
UltrasonicVest.elf:     file format elf32-littlearm

Sections:
Idx Name          Size      VMA       LMA       File off  Algn
  0 .isr_vector   000001c4  08000000  08000000  00010000  2**0
                  CONTENTS, ALLOC, LOAD, READONLY, DATA
  1 .text         00008a7c  080001d0  080001d0  000101d0  2**4
                  CONTENTS, ALLOC, LOAD, READONLY, CODE
  2 .rodata       000004c4  08008c50  08008c50  00018c50  2**3
                  CONTENTS, ALLOC, LOAD, READONLY, DATA
  3 .ARM.extab    00000000  08009114  08009114  000201f4  2**0
                  CONTENTS
  4 .ARM          00000008  08009114  08009114  00019114  2**2
                  CONTENTS, ALLOC, LOAD, READONLY, DATA
  5 .preinit_array 00000000  0800911c  0800911c  000201f4  2**0
                  CONTENTS, ALLOC, LOAD, DATA
  6 .init_array   00000004  0800911c  0800911c  0001911c  2**2
                  CONTENTS, ALLOC, LOAD, DATA
  7 .fini_array   00000004  08009120  08009120  00019120  2**2
                  CONTENTS, ALLOC, LOAD, DATA
  8 .data         000001f4  20000000  08009124  00020000  2**2
                  CONTENTS, ALLOC, LOAD, DATA
  9 .bss          00000364  200001f4  08009318  000201f4  2**2
                  ALLOC
 10 ._user_heap_stack 00000600  20000558  08009318  00020558  2**0
                  ALLOC
 11 .ARM.attributes 00000030  00000000  00000000  000201f4  2**0
                  CONTENTS, READONLY
 12 .debug_info   00011b52  00000000  00000000  00020224  2**0
                  CONTENTS, READONLY, DEBUGGING, OCTETS
 13 .debug_abbrev 00002435  00000000  00000000  00031d76  2**0
                  CONTENTS, READONLY, DEBUGGING, OCTETS
 14 .debug_aranges 00000d98  00000000  00000000  000341b0  2**3
                  CONTENTS, READONLY, DEBUGGING, OCTETS
 15 .debug_ranges 00000ca8  00000000  00000000  00034f48  2**3
                  CONTENTS, READONLY, DEBUGGING, OCTETS
 16 .debug_macro  000232be  00000000  00000000  00035bf0  2**0
                  CONTENTS, READONLY, DEBUGGING, OCTETS
 17 .debug_line   00010c58  00000000  00000000  00058eae  2**0
                  CONTENTS, READONLY, DEBUGGING, OCTETS
 18 .debug_str    000d2d8f  00000000  00000000  00069b06  2**0
                  CONTENTS, READONLY, DEBUGGING, OCTETS
 19 .comment      00000053  00000000  00000000  0013c895  2**0
                  CONTENTS, READONLY
 20 .debug_frame  00004a18  00000000  00000000  0013c8e8  2**2
                  CONTENTS, READONLY, DEBUGGING, OCTETS

Disassembly of section .text:

080001d0 <__do_global_dtors_aux>:
 80001d0:	b510      	push	{r4, lr}
 80001d2:	4c05      	ldr	r4, [pc, #20]	; (80001e8 <__do_global_dtors_aux+0x18>)
 80001d4:	7823      	ldrb	r3, [r4, #0]
 80001d6:	b933      	cbnz	r3, 80001e6 <__do_global_dtors_aux+0x16>
 80001d8:	4b04      	ldr	r3, [pc, #16]	; (80001ec <__do_global_dtors_aux+0x1c>)
 80001da:	b113      	cbz	r3, 80001e2 <__do_global_dtors_aux+0x12>
 80001dc:	4804      	ldr	r0, [pc, #16]	; (80001f0 <__do_global_dtors_aux+0x20>)
 80001de:	f3af 8000 	nop.w
 80001e2:	2301      	movs	r3, #1
 80001e4:	7023      	strb	r3, [r4, #0]
 80001e6:	bd10      	pop	{r4, pc}
 80001e8:	200001f4 	.word	0x200001f4
 80001ec:	00000000 	.word	0x00000000
 80001f0:	08008c34 	.word	0x08008c34

080001f4 <frame_dummy>:
 80001f4:	b508      	push	{r3, lr}
 80001f6:	4b03      	ldr	r3, [pc, #12]	; (8000204 <frame_dummy+0x10>)
 80001f8:	b11b      	cbz	r3, 8000202 <frame_dummy+0xe>
 80001fa:	4903      	ldr	r1, [pc, #12]	; (8000208 <frame_dummy+0x14>)
 80001fc:	4803      	ldr	r0, [pc, #12]	; (800020c <frame_dummy+0x18>)
 80001fe:	f3af 8000 	nop.w
 8000202:	bd08      	pop	{r3, pc}
 8000204:	00000000 	.word	0x00000000
 8000208:	200001f8 	.word	0x200001f8
 800020c:	08008c34 	.word	0x08008c34

08000210 <strlen>:
 8000210:	4603      	mov	r3, r0
 8000212:	f813 2b01 	ldrb.w	r2, [r3], #1
 8000216:	2a00      	cmp	r2, #0
 8000218:	d1fb      	bne.n	8000212 <strlen+0x2>
 800021a:	1a18      	subs	r0, r3, r0
 800021c:	3801      	subs	r0, #1
 800021e:	4770      	bx	lr

08000220 <memchr>:
 8000220:	f001 01ff 	and.w	r1, r1, #255	; 0xff
 8000224:	2a10      	cmp	r2, #16
 8000226:	db2b      	blt.n	8000280 <memchr+0x60>
 8000228:	f010 0f07 	tst.w	r0, #7
 800022c:	d008      	beq.n	8000240 <memchr+0x20>
 800022e:	f810 3b01 	ldrb.w	r3, [r0], #1
 8000232:	3a01      	subs	r2, #1
 8000234:	428b      	cmp	r3, r1
 8000236:	d02d      	beq.n	8000294 <memchr+0x74>
 8000238:	f010 0f07 	tst.w	r0, #7
 800023c:	b342      	cbz	r2, 8000290 <memchr+0x70>
 800023e:	d1f6      	bne.n	800022e <memchr+0xe>
 8000240:	b4f0      	push	{r4, r5, r6, r7}
 8000242:	ea41 2101 	orr.w	r1, r1, r1, lsl #8
 8000246:	ea41 4101 	orr.w	r1, r1, r1, lsl #16
 800024a:	f022 0407 	bic.w	r4, r2, #7
 800024e:	f07f 0700 	mvns.w	r7, #0
 8000252:	2300      	movs	r3, #0
 8000254:	e8f0 5602 	ldrd	r5, r6, [r0], #8
 8000258:	3c08      	subs	r4, #8
 800025a:	ea85 0501 	eor.w	r5, r5, r1
 800025e:	ea86 0601 	eor.w	r6, r6, r1
 8000262:	fa85 f547 	uadd8	r5, r5, r7
 8000266:	faa3 f587 	sel	r5, r3, r7
 800026a:	fa86 f647 	uadd8	r6, r6, r7
 800026e:	faa5 f687 	sel	r6, r5, r7
 8000272:	b98e      	cbnz	r6, 8000298 <memchr+0x78>
 8000274:	d1ee      	bne.n	8000254 <memchr+0x34>
 8000276:	bcf0      	pop	{r4, r5, r6, r7}
 8000278:	f001 01ff 	and.w	r1, r1, #255	; 0xff
 800027c:	f002 0207 	and.w	r2, r2, #7
 8000280:	b132      	cbz	r2, 8000290 <memchr+0x70>
 8000282:	f810 3b01 	ldrb.w	r3, [r0], #1
 8000286:	3a01      	subs	r2, #1
 8000288:	ea83 0301 	eor.w	r3, r3, r1
 800028c:	b113      	cbz	r3, 8000294 <memchr+0x74>
 800028e:	d1f8      	bne.n	8000282 <memchr+0x62>
 8000290:	2000      	movs	r0, #0
 8000292:	4770      	bx	lr
 8000294:	3801      	subs	r0, #1
 8000296:	4770      	bx	lr
 8000298:	2d00      	cmp	r5, #0
 800029a:	bf06      	itte	eq
 800029c:	4635      	moveq	r5, r6
 800029e:	3803      	subeq	r0, #3
 80002a0:	3807      	subne	r0, #7
 80002a2:	f015 0f01 	tst.w	r5, #1
 80002a6:	d107      	bne.n	80002b8 <memchr+0x98>
 80002a8:	3001      	adds	r0, #1
 80002aa:	f415 7f80 	tst.w	r5, #256	; 0x100
 80002ae:	bf02      	ittt	eq
 80002b0:	3001      	addeq	r0, #1
 80002b2:	f415 3fc0 	tsteq.w	r5, #98304	; 0x18000
 80002b6:	3001      	addeq	r0, #1
 80002b8:	bcf0      	pop	{r4, r5, r6, r7}
 80002ba:	3801      	subs	r0, #1
 80002bc:	4770      	bx	lr
 80002be:	bf00      	nop

080002c0 <__aeabi_drsub>:
 80002c0:	f081 4100 	eor.w	r1, r1, #2147483648	; 0x80000000
 80002c4:	e002      	b.n	80002cc <__adddf3>
 80002c6:	bf00      	nop

080002c8 <__aeabi_dsub>:
 80002c8:	f083 4300 	eor.w	r3, r3, #2147483648	; 0x80000000

080002cc <__adddf3>:
 80002cc:	b530      	push	{r4, r5, lr}
 80002ce:	ea4f 0441 	mov.w	r4, r1, lsl #1
 80002d2:	ea4f 0543 	mov.w	r5, r3, lsl #1
 80002d6:	ea94 0f05 	teq	r4, r5
 80002da:	bf08      	it	eq
 80002dc:	ea90 0f02 	teqeq	r0, r2
 80002e0:	bf1f      	itttt	ne
 80002e2:	ea54 0c00 	orrsne.w	ip, r4, r0
 80002e6:	ea55 0c02 	orrsne.w	ip, r5, r2
 80002ea:	ea7f 5c64 	mvnsne.w	ip, r4, asr #21
 80002ee:	ea7f 5c65 	mvnsne.w	ip, r5, asr #21
 80002f2:	f000 80e2 	beq.w	80004ba <__adddf3+0x1ee>
 80002f6:	ea4f 5454 	mov.w	r4, r4, lsr #21
 80002fa:	ebd4 5555 	rsbs	r5, r4, r5, lsr #21
 80002fe:	bfb8      	it	lt
 8000300:	426d      	neglt	r5, r5
 8000302:	dd0c      	ble.n	800031e <__adddf3+0x52>
 8000304:	442c      	add	r4, r5
 8000306:	ea80 0202 	eor.w	r2, r0, r2
 800030a:	ea81 0303 	eor.w	r3, r1, r3
 800030e:	ea82 0000 	eor.w	r0, r2, r0
 8000312:	ea83 0101 	eor.w	r1, r3, r1
 8000316:	ea80 0202 	eor.w	r2, r0, r2
 800031a:	ea81 0303 	eor.w	r3, r1, r3
 800031e:	2d36      	cmp	r5, #54	; 0x36
 8000320:	bf88      	it	hi
 8000322:	bd30      	pophi	{r4, r5, pc}
 8000324:	f011 4f00 	tst.w	r1, #2147483648	; 0x80000000
 8000328:	ea4f 3101 	mov.w	r1, r1, lsl #12
 800032c:	f44f 1c80 	mov.w	ip, #1048576	; 0x100000
 8000330:	ea4c 3111 	orr.w	r1, ip, r1, lsr #12
 8000334:	d002      	beq.n	800033c <__adddf3+0x70>
 8000336:	4240      	negs	r0, r0
 8000338:	eb61 0141 	sbc.w	r1, r1, r1, lsl #1
 800033c:	f013 4f00 	tst.w	r3, #2147483648	; 0x80000000
 8000340:	ea4f 3303 	mov.w	r3, r3, lsl #12
 8000344:	ea4c 3313 	orr.w	r3, ip, r3, lsr #12
 8000348:	d002      	beq.n	8000350 <__adddf3+0x84>
 800034a:	4252      	negs	r2, r2
 800034c:	eb63 0343 	sbc.w	r3, r3, r3, lsl #1
 8000350:	ea94 0f05 	teq	r4, r5
 8000354:	f000 80a7 	beq.w	80004a6 <__adddf3+0x1da>
 8000358:	f1a4 0401 	sub.w	r4, r4, #1
 800035c:	f1d5 0e20 	rsbs	lr, r5, #32
 8000360:	db0d      	blt.n	800037e <__adddf3+0xb2>
 8000362:	fa02 fc0e 	lsl.w	ip, r2, lr
 8000366:	fa22 f205 	lsr.w	r2, r2, r5
 800036a:	1880      	adds	r0, r0, r2
 800036c:	f141 0100 	adc.w	r1, r1, #0
 8000370:	fa03 f20e 	lsl.w	r2, r3, lr
 8000374:	1880      	adds	r0, r0, r2
 8000376:	fa43 f305 	asr.w	r3, r3, r5
 800037a:	4159      	adcs	r1, r3
 800037c:	e00e      	b.n	800039c <__adddf3+0xd0>
 800037e:	f1a5 0520 	sub.w	r5, r5, #32
 8000382:	f10e 0e20 	add.w	lr, lr, #32
 8000386:	2a01      	cmp	r2, #1
 8000388:	fa03 fc0e 	lsl.w	ip, r3, lr
 800038c:	bf28      	it	cs
 800038e:	f04c 0c02 	orrcs.w	ip, ip, #2
 8000392:	fa43 f305 	asr.w	r3, r3, r5
 8000396:	18c0      	adds	r0, r0, r3
 8000398:	eb51 71e3 	adcs.w	r1, r1, r3, asr #31
 800039c:	f001 4500 	and.w	r5, r1, #2147483648	; 0x80000000
 80003a0:	d507      	bpl.n	80003b2 <__adddf3+0xe6>
 80003a2:	f04f 0e00 	mov.w	lr, #0
 80003a6:	f1dc 0c00 	rsbs	ip, ip, #0
 80003aa:	eb7e 0000 	sbcs.w	r0, lr, r0
 80003ae:	eb6e 0101 	sbc.w	r1, lr, r1
 80003b2:	f5b1 1f80 	cmp.w	r1, #1048576	; 0x100000
 80003b6:	d31b      	bcc.n	80003f0 <__adddf3+0x124>
 80003b8:	f5b1 1f00 	cmp.w	r1, #2097152	; 0x200000
 80003bc:	d30c      	bcc.n	80003d8 <__adddf3+0x10c>
 80003be:	0849      	lsrs	r1, r1, #1
 80003c0:	ea5f 0030 	movs.w	r0, r0, rrx
 80003c4:	ea4f 0c3c 	mov.w	ip, ip, rrx
 80003c8:	f104 0401 	add.w	r4, r4, #1
 80003cc:	ea4f 5244 	mov.w	r2, r4, lsl #21
 80003d0:	f512 0f80 	cmn.w	r2, #4194304	; 0x400000
 80003d4:	f080 809a 	bcs.w	800050c <__adddf3+0x240>
 80003d8:	f1bc 4f00 	cmp.w	ip, #2147483648	; 0x80000000
 80003dc:	bf08      	it	eq
 80003de:	ea5f 0c50 	movseq.w	ip, r0, lsr #1
 80003e2:	f150 0000 	adcs.w	r0, r0, #0
 80003e6:	eb41 5104 	adc.w	r1, r1, r4, lsl #20
 80003ea:	ea41 0105 	orr.w	r1, r1, r5
 80003ee:	bd30      	pop	{r4, r5, pc}
 80003f0:	ea5f 0c4c 	movs.w	ip, ip, lsl #1
 80003f4:	4140      	adcs	r0, r0
 80003f6:	eb41 0101 	adc.w	r1, r1, r1
 80003fa:	3c01      	subs	r4, #1
 80003fc:	bf28      	it	cs
 80003fe:	f5b1 1f80 	cmpcs.w	r1, #1048576	; 0x100000
 8000402:	d2e9      	bcs.n	80003d8 <__adddf3+0x10c>
 8000404:	f091 0f00 	teq	r1, #0
 8000408:	bf04      	itt	eq
 800040a:	4601      	moveq	r1, r0
 800040c:	2000      	moveq	r0, #0
 800040e:	fab1 f381 	clz	r3, r1
 8000412:	bf08      	it	eq
 8000414:	3320      	addeq	r3, #32
 8000416:	f1a3 030b 	sub.w	r3, r3, #11
 800041a:	f1b3 0220 	subs.w	r2, r3, #32
 800041e:	da0c      	bge.n	800043a <__adddf3+0x16e>
 8000420:	320c      	adds	r2, #12
 8000422:	dd08      	ble.n	8000436 <__adddf3+0x16a>
 8000424:	f102 0c14 	add.w	ip, r2, #20
 8000428:	f1c2 020c 	rsb	r2, r2, #12
 800042c:	fa01 f00c 	lsl.w	r0, r1, ip
 8000430:	fa21 f102 	lsr.w	r1, r1, r2
 8000434:	e00c      	b.n	8000450 <__adddf3+0x184>
 8000436:	f102 0214 	add.w	r2, r2, #20
 800043a:	bfd8      	it	le
 800043c:	f1c2 0c20 	rsble	ip, r2, #32
 8000440:	fa01 f102 	lsl.w	r1, r1, r2
 8000444:	fa20 fc0c 	lsr.w	ip, r0, ip
 8000448:	bfdc      	itt	le
 800044a:	ea41 010c 	orrle.w	r1, r1, ip
 800044e:	4090      	lslle	r0, r2
 8000450:	1ae4      	subs	r4, r4, r3
 8000452:	bfa2      	ittt	ge
 8000454:	eb01 5104 	addge.w	r1, r1, r4, lsl #20
 8000458:	4329      	orrge	r1, r5
 800045a:	bd30      	popge	{r4, r5, pc}
 800045c:	ea6f 0404 	mvn.w	r4, r4
 8000460:	3c1f      	subs	r4, #31
 8000462:	da1c      	bge.n	800049e <__adddf3+0x1d2>
 8000464:	340c      	adds	r4, #12
 8000466:	dc0e      	bgt.n	8000486 <__adddf3+0x1ba>
 8000468:	f104 0414 	add.w	r4, r4, #20
 800046c:	f1c4 0220 	rsb	r2, r4, #32
 8000470:	fa20 f004 	lsr.w	r0, r0, r4
 8000474:	fa01 f302 	lsl.w	r3, r1, r2
 8000478:	ea40 0003 	orr.w	r0, r0, r3
 800047c:	fa21 f304 	lsr.w	r3, r1, r4
 8000480:	ea45 0103 	orr.w	r1, r5, r3
 8000484:	bd30      	pop	{r4, r5, pc}
 8000486:	f1c4 040c 	rsb	r4, r4, #12
 800048a:	f1c4 0220 	rsb	r2, r4, #32
 800048e:	fa20 f002 	lsr.w	r0, r0, r2
 8000492:	fa01 f304 	lsl.w	r3, r1, r4
 8000496:	ea40 0003 	orr.w	r0, r0, r3
 800049a:	4629      	mov	r1, r5
 800049c:	bd30      	pop	{r4, r5, pc}
 800049e:	fa21 f004 	lsr.w	r0, r1, r4
 80004a2:	4629      	mov	r1, r5
 80004a4:	bd30      	pop	{r4, r5, pc}
 80004a6:	f094 0f00 	teq	r4, #0
 80004aa:	f483 1380 	eor.w	r3, r3, #1048576	; 0x100000
 80004ae:	bf06      	itte	eq
 80004b0:	f481 1180 	eoreq.w	r1, r1, #1048576	; 0x100000
 80004b4:	3401      	addeq	r4, #1
 80004b6:	3d01      	subne	r5, #1
 80004b8:	e74e      	b.n	8000358 <__adddf3+0x8c>
 80004ba:	ea7f 5c64 	mvns.w	ip, r4, asr #21
 80004be:	bf18      	it	ne
 80004c0:	ea7f 5c65 	mvnsne.w	ip, r5, asr #21
 80004c4:	d029      	beq.n	800051a <__adddf3+0x24e>
 80004c6:	ea94 0f05 	teq	r4, r5
 80004ca:	bf08      	it	eq
 80004cc:	ea90 0f02 	teqeq	r0, r2
 80004d0:	d005      	beq.n	80004de <__adddf3+0x212>
 80004d2:	ea54 0c00 	orrs.w	ip, r4, r0
 80004d6:	bf04      	itt	eq
 80004d8:	4619      	moveq	r1, r3
 80004da:	4610      	moveq	r0, r2
 80004dc:	bd30      	pop	{r4, r5, pc}
 80004de:	ea91 0f03 	teq	r1, r3
 80004e2:	bf1e      	ittt	ne
 80004e4:	2100      	movne	r1, #0
 80004e6:	2000      	movne	r0, #0
 80004e8:	bd30      	popne	{r4, r5, pc}
 80004ea:	ea5f 5c54 	movs.w	ip, r4, lsr #21
 80004ee:	d105      	bne.n	80004fc <__adddf3+0x230>
 80004f0:	0040      	lsls	r0, r0, #1
 80004f2:	4149      	adcs	r1, r1
 80004f4:	bf28      	it	cs
 80004f6:	f041 4100 	orrcs.w	r1, r1, #2147483648	; 0x80000000
 80004fa:	bd30      	pop	{r4, r5, pc}
 80004fc:	f514 0480 	adds.w	r4, r4, #4194304	; 0x400000
 8000500:	bf3c      	itt	cc
 8000502:	f501 1180 	addcc.w	r1, r1, #1048576	; 0x100000
 8000506:	bd30      	popcc	{r4, r5, pc}
 8000508:	f001 4500 	and.w	r5, r1, #2147483648	; 0x80000000
 800050c:	f045 41fe 	orr.w	r1, r5, #2130706432	; 0x7f000000
 8000510:	f441 0170 	orr.w	r1, r1, #15728640	; 0xf00000
 8000514:	f04f 0000 	mov.w	r0, #0
 8000518:	bd30      	pop	{r4, r5, pc}
 800051a:	ea7f 5c64 	mvns.w	ip, r4, asr #21
 800051e:	bf1a      	itte	ne
 8000520:	4619      	movne	r1, r3
 8000522:	4610      	movne	r0, r2
 8000524:	ea7f 5c65 	mvnseq.w	ip, r5, asr #21
 8000528:	bf1c      	itt	ne
 800052a:	460b      	movne	r3, r1
 800052c:	4602      	movne	r2, r0
 800052e:	ea50 3401 	orrs.w	r4, r0, r1, lsl #12
 8000532:	bf06      	itte	eq
 8000534:	ea52 3503 	orrseq.w	r5, r2, r3, lsl #12
 8000538:	ea91 0f03 	teqeq	r1, r3
 800053c:	f441 2100 	orrne.w	r1, r1, #524288	; 0x80000
 8000540:	bd30      	pop	{r4, r5, pc}
 8000542:	bf00      	nop

08000544 <__aeabi_ui2d>:
 8000544:	f090 0f00 	teq	r0, #0
 8000548:	bf04      	itt	eq
 800054a:	2100      	moveq	r1, #0
 800054c:	4770      	bxeq	lr
 800054e:	b530      	push	{r4, r5, lr}
 8000550:	f44f 6480 	mov.w	r4, #1024	; 0x400
 8000554:	f104 0432 	add.w	r4, r4, #50	; 0x32
 8000558:	f04f 0500 	mov.w	r5, #0
 800055c:	f04f 0100 	mov.w	r1, #0
 8000560:	e750      	b.n	8000404 <__adddf3+0x138>
 8000562:	bf00      	nop

08000564 <__aeabi_i2d>:
 8000564:	f090 0f00 	teq	r0, #0
 8000568:	bf04      	itt	eq
 800056a:	2100      	moveq	r1, #0
 800056c:	4770      	bxeq	lr
 800056e:	b530      	push	{r4, r5, lr}
 8000570:	f44f 6480 	mov.w	r4, #1024	; 0x400
 8000574:	f104 0432 	add.w	r4, r4, #50	; 0x32
 8000578:	f010 4500 	ands.w	r5, r0, #2147483648	; 0x80000000
 800057c:	bf48      	it	mi
 800057e:	4240      	negmi	r0, r0
 8000580:	f04f 0100 	mov.w	r1, #0
 8000584:	e73e      	b.n	8000404 <__adddf3+0x138>
 8000586:	bf00      	nop

08000588 <__aeabi_f2d>:
 8000588:	0042      	lsls	r2, r0, #1
 800058a:	ea4f 01e2 	mov.w	r1, r2, asr #3
 800058e:	ea4f 0131 	mov.w	r1, r1, rrx
 8000592:	ea4f 7002 	mov.w	r0, r2, lsl #28
 8000596:	bf1f      	itttt	ne
 8000598:	f012 437f 	andsne.w	r3, r2, #4278190080	; 0xff000000
 800059c:	f093 4f7f 	teqne	r3, #4278190080	; 0xff000000
 80005a0:	f081 5160 	eorne.w	r1, r1, #939524096	; 0x38000000
 80005a4:	4770      	bxne	lr
 80005a6:	f032 427f 	bics.w	r2, r2, #4278190080	; 0xff000000
 80005aa:	bf08      	it	eq
 80005ac:	4770      	bxeq	lr
 80005ae:	f093 4f7f 	teq	r3, #4278190080	; 0xff000000
 80005b2:	bf04      	itt	eq
 80005b4:	f441 2100 	orreq.w	r1, r1, #524288	; 0x80000
 80005b8:	4770      	bxeq	lr
 80005ba:	b530      	push	{r4, r5, lr}
 80005bc:	f44f 7460 	mov.w	r4, #896	; 0x380
 80005c0:	f001 4500 	and.w	r5, r1, #2147483648	; 0x80000000
 80005c4:	f021 4100 	bic.w	r1, r1, #2147483648	; 0x80000000
 80005c8:	e71c      	b.n	8000404 <__adddf3+0x138>
 80005ca:	bf00      	nop

080005cc <__aeabi_ul2d>:
 80005cc:	ea50 0201 	orrs.w	r2, r0, r1
 80005d0:	bf08      	it	eq
 80005d2:	4770      	bxeq	lr
 80005d4:	b530      	push	{r4, r5, lr}
 80005d6:	f04f 0500 	mov.w	r5, #0
 80005da:	e00a      	b.n	80005f2 <__aeabi_l2d+0x16>

080005dc <__aeabi_l2d>:
 80005dc:	ea50 0201 	orrs.w	r2, r0, r1
 80005e0:	bf08      	it	eq
 80005e2:	4770      	bxeq	lr
 80005e4:	b530      	push	{r4, r5, lr}
 80005e6:	f011 4500 	ands.w	r5, r1, #2147483648	; 0x80000000
 80005ea:	d502      	bpl.n	80005f2 <__aeabi_l2d+0x16>
 80005ec:	4240      	negs	r0, r0
 80005ee:	eb61 0141 	sbc.w	r1, r1, r1, lsl #1
 80005f2:	f44f 6480 	mov.w	r4, #1024	; 0x400
 80005f6:	f104 0432 	add.w	r4, r4, #50	; 0x32
 80005fa:	ea5f 5c91 	movs.w	ip, r1, lsr #22
 80005fe:	f43f aed8 	beq.w	80003b2 <__adddf3+0xe6>
 8000602:	f04f 0203 	mov.w	r2, #3
 8000606:	ea5f 0cdc 	movs.w	ip, ip, lsr #3
 800060a:	bf18      	it	ne
 800060c:	3203      	addne	r2, #3
 800060e:	ea5f 0cdc 	movs.w	ip, ip, lsr #3
 8000612:	bf18      	it	ne
 8000614:	3203      	addne	r2, #3
 8000616:	eb02 02dc 	add.w	r2, r2, ip, lsr #3
 800061a:	f1c2 0320 	rsb	r3, r2, #32
 800061e:	fa00 fc03 	lsl.w	ip, r0, r3
 8000622:	fa20 f002 	lsr.w	r0, r0, r2
 8000626:	fa01 fe03 	lsl.w	lr, r1, r3
 800062a:	ea40 000e 	orr.w	r0, r0, lr
 800062e:	fa21 f102 	lsr.w	r1, r1, r2
 8000632:	4414      	add	r4, r2
 8000634:	e6bd      	b.n	80003b2 <__adddf3+0xe6>
 8000636:	bf00      	nop

08000638 <__aeabi_dmul>:
 8000638:	b570      	push	{r4, r5, r6, lr}
 800063a:	f04f 0cff 	mov.w	ip, #255	; 0xff
 800063e:	f44c 6ce0 	orr.w	ip, ip, #1792	; 0x700
 8000642:	ea1c 5411 	ands.w	r4, ip, r1, lsr #20
 8000646:	bf1d      	ittte	ne
 8000648:	ea1c 5513 	andsne.w	r5, ip, r3, lsr #20
 800064c:	ea94 0f0c 	teqne	r4, ip
 8000650:	ea95 0f0c 	teqne	r5, ip
 8000654:	f000 f8de 	bleq	8000814 <__aeabi_dmul+0x1dc>
 8000658:	442c      	add	r4, r5
 800065a:	ea81 0603 	eor.w	r6, r1, r3
 800065e:	ea21 514c 	bic.w	r1, r1, ip, lsl #21
 8000662:	ea23 534c 	bic.w	r3, r3, ip, lsl #21
 8000666:	ea50 3501 	orrs.w	r5, r0, r1, lsl #12
 800066a:	bf18      	it	ne
 800066c:	ea52 3503 	orrsne.w	r5, r2, r3, lsl #12
 8000670:	f441 1180 	orr.w	r1, r1, #1048576	; 0x100000
 8000674:	f443 1380 	orr.w	r3, r3, #1048576	; 0x100000
 8000678:	d038      	beq.n	80006ec <__aeabi_dmul+0xb4>
 800067a:	fba0 ce02 	umull	ip, lr, r0, r2
 800067e:	f04f 0500 	mov.w	r5, #0
 8000682:	fbe1 e502 	umlal	lr, r5, r1, r2
 8000686:	f006 4200 	and.w	r2, r6, #2147483648	; 0x80000000
 800068a:	fbe0 e503 	umlal	lr, r5, r0, r3
 800068e:	f04f 0600 	mov.w	r6, #0
 8000692:	fbe1 5603 	umlal	r5, r6, r1, r3
 8000696:	f09c 0f00 	teq	ip, #0
 800069a:	bf18      	it	ne
 800069c:	f04e 0e01 	orrne.w	lr, lr, #1
 80006a0:	f1a4 04ff 	sub.w	r4, r4, #255	; 0xff
 80006a4:	f5b6 7f00 	cmp.w	r6, #512	; 0x200
 80006a8:	f564 7440 	sbc.w	r4, r4, #768	; 0x300
 80006ac:	d204      	bcs.n	80006b8 <__aeabi_dmul+0x80>
 80006ae:	ea5f 0e4e 	movs.w	lr, lr, lsl #1
 80006b2:	416d      	adcs	r5, r5
 80006b4:	eb46 0606 	adc.w	r6, r6, r6
 80006b8:	ea42 21c6 	orr.w	r1, r2, r6, lsl #11
 80006bc:	ea41 5155 	orr.w	r1, r1, r5, lsr #21
 80006c0:	ea4f 20c5 	mov.w	r0, r5, lsl #11
 80006c4:	ea40 505e 	orr.w	r0, r0, lr, lsr #21
 80006c8:	ea4f 2ece 	mov.w	lr, lr, lsl #11
 80006cc:	f1b4 0cfd 	subs.w	ip, r4, #253	; 0xfd
 80006d0:	bf88      	it	hi
 80006d2:	f5bc 6fe0 	cmphi.w	ip, #1792	; 0x700
 80006d6:	d81e      	bhi.n	8000716 <__aeabi_dmul+0xde>
 80006d8:	f1be 4f00 	cmp.w	lr, #2147483648	; 0x80000000
 80006dc:	bf08      	it	eq
 80006de:	ea5f 0e50 	movseq.w	lr, r0, lsr #1
 80006e2:	f150 0000 	adcs.w	r0, r0, #0
 80006e6:	eb41 5104 	adc.w	r1, r1, r4, lsl #20
 80006ea:	bd70      	pop	{r4, r5, r6, pc}
 80006ec:	f006 4600 	and.w	r6, r6, #2147483648	; 0x80000000
 80006f0:	ea46 0101 	orr.w	r1, r6, r1
 80006f4:	ea40 0002 	orr.w	r0, r0, r2
 80006f8:	ea81 0103 	eor.w	r1, r1, r3
 80006fc:	ebb4 045c 	subs.w	r4, r4, ip, lsr #1
 8000700:	bfc2      	ittt	gt
 8000702:	ebd4 050c 	rsbsgt	r5, r4, ip
 8000706:	ea41 5104 	orrgt.w	r1, r1, r4, lsl #20
 800070a:	bd70      	popgt	{r4, r5, r6, pc}
 800070c:	f441 1180 	orr.w	r1, r1, #1048576	; 0x100000
 8000710:	f04f 0e00 	mov.w	lr, #0
 8000714:	3c01      	subs	r4, #1
 8000716:	f300 80ab 	bgt.w	8000870 <__aeabi_dmul+0x238>
 800071a:	f114 0f36 	cmn.w	r4, #54	; 0x36
 800071e:	bfde      	ittt	le
 8000720:	2000      	movle	r0, #0
 8000722:	f001 4100 	andle.w	r1, r1, #2147483648	; 0x80000000
 8000726:	bd70      	pople	{r4, r5, r6, pc}
 8000728:	f1c4 0400 	rsb	r4, r4, #0
 800072c:	3c20      	subs	r4, #32
 800072e:	da35      	bge.n	800079c <__aeabi_dmul+0x164>
 8000730:	340c      	adds	r4, #12
 8000732:	dc1b      	bgt.n	800076c <__aeabi_dmul+0x134>
 8000734:	f104 0414 	add.w	r4, r4, #20
 8000738:	f1c4 0520 	rsb	r5, r4, #32
 800073c:	fa00 f305 	lsl.w	r3, r0, r5
 8000740:	fa20 f004 	lsr.w	r0, r0, r4
 8000744:	fa01 f205 	lsl.w	r2, r1, r5
 8000748:	ea40 0002 	orr.w	r0, r0, r2
 800074c:	f001 4200 	and.w	r2, r1, #2147483648	; 0x80000000
 8000750:	f021 4100 	bic.w	r1, r1, #2147483648	; 0x80000000
 8000754:	eb10 70d3 	adds.w	r0, r0, r3, lsr #31
 8000758:	fa21 f604 	lsr.w	r6, r1, r4
 800075c:	eb42 0106 	adc.w	r1, r2, r6
 8000760:	ea5e 0e43 	orrs.w	lr, lr, r3, lsl #1
 8000764:	bf08      	it	eq
 8000766:	ea20 70d3 	biceq.w	r0, r0, r3, lsr #31
 800076a:	bd70      	pop	{r4, r5, r6, pc}
 800076c:	f1c4 040c 	rsb	r4, r4, #12
 8000770:	f1c4 0520 	rsb	r5, r4, #32
 8000774:	fa00 f304 	lsl.w	r3, r0, r4
 8000778:	fa20 f005 	lsr.w	r0, r0, r5
 800077c:	fa01 f204 	lsl.w	r2, r1, r4
 8000780:	ea40 0002 	orr.w	r0, r0, r2
 8000784:	f001 4100 	and.w	r1, r1, #2147483648	; 0x80000000
 8000788:	eb10 70d3 	adds.w	r0, r0, r3, lsr #31
 800078c:	f141 0100 	adc.w	r1, r1, #0
 8000790:	ea5e 0e43 	orrs.w	lr, lr, r3, lsl #1
 8000794:	bf08      	it	eq
 8000796:	ea20 70d3 	biceq.w	r0, r0, r3, lsr #31
 800079a:	bd70      	pop	{r4, r5, r6, pc}
 800079c:	f1c4 0520 	rsb	r5, r4, #32
 80007a0:	fa00 f205 	lsl.w	r2, r0, r5
 80007a4:	ea4e 0e02 	orr.w	lr, lr, r2
 80007a8:	fa20 f304 	lsr.w	r3, r0, r4
 80007ac:	fa01 f205 	lsl.w	r2, r1, r5
 80007b0:	ea43 0302 	orr.w	r3, r3, r2
 80007b4:	fa21 f004 	lsr.w	r0, r1, r4
 80007b8:	f001 4100 	and.w	r1, r1, #2147483648	; 0x80000000
 80007bc:	fa21 f204 	lsr.w	r2, r1, r4
 80007c0:	ea20 0002 	bic.w	r0, r0, r2
 80007c4:	eb00 70d3 	add.w	r0, r0, r3, lsr #31
 80007c8:	ea5e 0e43 	orrs.w	lr, lr, r3, lsl #1
 80007cc:	bf08      	it	eq
 80007ce:	ea20 70d3 	biceq.w	r0, r0, r3, lsr #31
 80007d2:	bd70      	pop	{r4, r5, r6, pc}
 80007d4:	f094 0f00 	teq	r4, #0
 80007d8:	d10f      	bne.n	80007fa <__aeabi_dmul+0x1c2>
 80007da:	f001 4600 	and.w	r6, r1, #2147483648	; 0x80000000
 80007de:	0040      	lsls	r0, r0, #1
 80007e0:	eb41 0101 	adc.w	r1, r1, r1
 80007e4:	f411 1f80 	tst.w	r1, #1048576	; 0x100000
 80007e8:	bf08      	it	eq
 80007ea:	3c01      	subeq	r4, #1
 80007ec:	d0f7      	beq.n	80007de <__aeabi_dmul+0x1a6>
 80007ee:	ea41 0106 	orr.w	r1, r1, r6
 80007f2:	f095 0f00 	teq	r5, #0
 80007f6:	bf18      	it	ne
 80007f8:	4770      	bxne	lr
 80007fa:	f003 4600 	and.w	r6, r3, #2147483648	; 0x80000000
 80007fe:	0052      	lsls	r2, r2, #1
 8000800:	eb43 0303 	adc.w	r3, r3, r3
 8000804:	f413 1f80 	tst.w	r3, #1048576	; 0x100000
 8000808:	bf08      	it	eq
 800080a:	3d01      	subeq	r5, #1
 800080c:	d0f7      	beq.n	80007fe <__aeabi_dmul+0x1c6>
 800080e:	ea43 0306 	orr.w	r3, r3, r6
 8000812:	4770      	bx	lr
 8000814:	ea94 0f0c 	teq	r4, ip
 8000818:	ea0c 5513 	and.w	r5, ip, r3, lsr #20
 800081c:	bf18      	it	ne
 800081e:	ea95 0f0c 	teqne	r5, ip
 8000822:	d00c      	beq.n	800083e <__aeabi_dmul+0x206>
 8000824:	ea50 0641 	orrs.w	r6, r0, r1, lsl #1
 8000828:	bf18      	it	ne
 800082a:	ea52 0643 	orrsne.w	r6, r2, r3, lsl #1
 800082e:	d1d1      	bne.n	80007d4 <__aeabi_dmul+0x19c>
 8000830:	ea81 0103 	eor.w	r1, r1, r3
 8000834:	f001 4100 	and.w	r1, r1, #2147483648	; 0x80000000
 8000838:	f04f 0000 	mov.w	r0, #0
 800083c:	bd70      	pop	{r4, r5, r6, pc}
 800083e:	ea50 0641 	orrs.w	r6, r0, r1, lsl #1
 8000842:	bf06      	itte	eq
 8000844:	4610      	moveq	r0, r2
 8000846:	4619      	moveq	r1, r3
 8000848:	ea52 0643 	orrsne.w	r6, r2, r3, lsl #1
 800084c:	d019      	beq.n	8000882 <__aeabi_dmul+0x24a>
 800084e:	ea94 0f0c 	teq	r4, ip
 8000852:	d102      	bne.n	800085a <__aeabi_dmul+0x222>
 8000854:	ea50 3601 	orrs.w	r6, r0, r1, lsl #12
 8000858:	d113      	bne.n	8000882 <__aeabi_dmul+0x24a>
 800085a:	ea95 0f0c 	teq	r5, ip
 800085e:	d105      	bne.n	800086c <__aeabi_dmul+0x234>
 8000860:	ea52 3603 	orrs.w	r6, r2, r3, lsl #12
 8000864:	bf1c      	itt	ne
 8000866:	4610      	movne	r0, r2
 8000868:	4619      	movne	r1, r3
 800086a:	d10a      	bne.n	8000882 <__aeabi_dmul+0x24a>
 800086c:	ea81 0103 	eor.w	r1, r1, r3
 8000870:	f001 4100 	and.w	r1, r1, #2147483648	; 0x80000000
 8000874:	f041 41fe 	orr.w	r1, r1, #2130706432	; 0x7f000000
 8000878:	f441 0170 	orr.w	r1, r1, #15728640	; 0xf00000
 800087c:	f04f 0000 	mov.w	r0, #0
 8000880:	bd70      	pop	{r4, r5, r6, pc}
 8000882:	f041 41fe 	orr.w	r1, r1, #2130706432	; 0x7f000000
 8000886:	f441 0178 	orr.w	r1, r1, #16252928	; 0xf80000
 800088a:	bd70      	pop	{r4, r5, r6, pc}

0800088c <__aeabi_ddiv>:
 800088c:	b570      	push	{r4, r5, r6, lr}
 800088e:	f04f 0cff 	mov.w	ip, #255	; 0xff
 8000892:	f44c 6ce0 	orr.w	ip, ip, #1792	; 0x700
 8000896:	ea1c 5411 	ands.w	r4, ip, r1, lsr #20
 800089a:	bf1d      	ittte	ne
 800089c:	ea1c 5513 	andsne.w	r5, ip, r3, lsr #20
 80008a0:	ea94 0f0c 	teqne	r4, ip
 80008a4:	ea95 0f0c 	teqne	r5, ip
 80008a8:	f000 f8a7 	bleq	80009fa <__aeabi_ddiv+0x16e>
 80008ac:	eba4 0405 	sub.w	r4, r4, r5
 80008b0:	ea81 0e03 	eor.w	lr, r1, r3
 80008b4:	ea52 3503 	orrs.w	r5, r2, r3, lsl #12
 80008b8:	ea4f 3101 	mov.w	r1, r1, lsl #12
 80008bc:	f000 8088 	beq.w	80009d0 <__aeabi_ddiv+0x144>
 80008c0:	ea4f 3303 	mov.w	r3, r3, lsl #12
 80008c4:	f04f 5580 	mov.w	r5, #268435456	; 0x10000000
 80008c8:	ea45 1313 	orr.w	r3, r5, r3, lsr #4
 80008cc:	ea43 6312 	orr.w	r3, r3, r2, lsr #24
 80008d0:	ea4f 2202 	mov.w	r2, r2, lsl #8
 80008d4:	ea45 1511 	orr.w	r5, r5, r1, lsr #4
 80008d8:	ea45 6510 	orr.w	r5, r5, r0, lsr #24
 80008dc:	ea4f 2600 	mov.w	r6, r0, lsl #8
 80008e0:	f00e 4100 	and.w	r1, lr, #2147483648	; 0x80000000
 80008e4:	429d      	cmp	r5, r3
 80008e6:	bf08      	it	eq
 80008e8:	4296      	cmpeq	r6, r2
 80008ea:	f144 04fd 	adc.w	r4, r4, #253	; 0xfd
 80008ee:	f504 7440 	add.w	r4, r4, #768	; 0x300
 80008f2:	d202      	bcs.n	80008fa <__aeabi_ddiv+0x6e>
 80008f4:	085b      	lsrs	r3, r3, #1
 80008f6:	ea4f 0232 	mov.w	r2, r2, rrx
 80008fa:	1ab6      	subs	r6, r6, r2
 80008fc:	eb65 0503 	sbc.w	r5, r5, r3
 8000900:	085b      	lsrs	r3, r3, #1
 8000902:	ea4f 0232 	mov.w	r2, r2, rrx
 8000906:	f44f 1080 	mov.w	r0, #1048576	; 0x100000
 800090a:	f44f 2c00 	mov.w	ip, #524288	; 0x80000
 800090e:	ebb6 0e02 	subs.w	lr, r6, r2
 8000912:	eb75 0e03 	sbcs.w	lr, r5, r3
 8000916:	bf22      	ittt	cs
 8000918:	1ab6      	subcs	r6, r6, r2
 800091a:	4675      	movcs	r5, lr
 800091c:	ea40 000c 	orrcs.w	r0, r0, ip
 8000920:	085b      	lsrs	r3, r3, #1
 8000922:	ea4f 0232 	mov.w	r2, r2, rrx
 8000926:	ebb6 0e02 	subs.w	lr, r6, r2
 800092a:	eb75 0e03 	sbcs.w	lr, r5, r3
 800092e:	bf22      	ittt	cs
 8000930:	1ab6      	subcs	r6, r6, r2
 8000932:	4675      	movcs	r5, lr
 8000934:	ea40 005c 	orrcs.w	r0, r0, ip, lsr #1
 8000938:	085b      	lsrs	r3, r3, #1
 800093a:	ea4f 0232 	mov.w	r2, r2, rrx
 800093e:	ebb6 0e02 	subs.w	lr, r6, r2
 8000942:	eb75 0e03 	sbcs.w	lr, r5, r3
 8000946:	bf22      	ittt	cs
 8000948:	1ab6      	subcs	r6, r6, r2
 800094a:	4675      	movcs	r5, lr
 800094c:	ea40 009c 	orrcs.w	r0, r0, ip, lsr #2
 8000950:	085b      	lsrs	r3, r3, #1
 8000952:	ea4f 0232 	mov.w	r2, r2, rrx
 8000956:	ebb6 0e02 	subs.w	lr, r6, r2
 800095a:	eb75 0e03 	sbcs.w	lr, r5, r3
 800095e:	bf22      	ittt	cs
 8000960:	1ab6      	subcs	r6, r6, r2
 8000962:	4675      	movcs	r5, lr
 8000964:	ea40 00dc 	orrcs.w	r0, r0, ip, lsr #3
 8000968:	ea55 0e06 	orrs.w	lr, r5, r6
 800096c:	d018      	beq.n	80009a0 <__aeabi_ddiv+0x114>
 800096e:	ea4f 1505 	mov.w	r5, r5, lsl #4
 8000972:	ea45 7516 	orr.w	r5, r5, r6, lsr #28
 8000976:	ea4f 1606 	mov.w	r6, r6, lsl #4
 800097a:	ea4f 03c3 	mov.w	r3, r3, lsl #3
 800097e:	ea43 7352 	orr.w	r3, r3, r2, lsr #29
 8000982:	ea4f 02c2 	mov.w	r2, r2, lsl #3
 8000986:	ea5f 1c1c 	movs.w	ip, ip, lsr #4
 800098a:	d1c0      	bne.n	800090e <__aeabi_ddiv+0x82>
 800098c:	f411 1f80 	tst.w	r1, #1048576	; 0x100000
 8000990:	d10b      	bne.n	80009aa <__aeabi_ddiv+0x11e>
 8000992:	ea41 0100 	orr.w	r1, r1, r0
 8000996:	f04f 0000 	mov.w	r0, #0
 800099a:	f04f 4c00 	mov.w	ip, #2147483648	; 0x80000000
 800099e:	e7b6      	b.n	800090e <__aeabi_ddiv+0x82>
 80009a0:	f411 1f80 	tst.w	r1, #1048576	; 0x100000
 80009a4:	bf04      	itt	eq
 80009a6:	4301      	orreq	r1, r0
 80009a8:	2000      	moveq	r0, #0
 80009aa:	f1b4 0cfd 	subs.w	ip, r4, #253	; 0xfd
 80009ae:	bf88      	it	hi
 80009b0:	f5bc 6fe0 	cmphi.w	ip, #1792	; 0x700
 80009b4:	f63f aeaf 	bhi.w	8000716 <__aeabi_dmul+0xde>
 80009b8:	ebb5 0c03 	subs.w	ip, r5, r3
 80009bc:	bf04      	itt	eq
 80009be:	ebb6 0c02 	subseq.w	ip, r6, r2
 80009c2:	ea5f 0c50 	movseq.w	ip, r0, lsr #1
 80009c6:	f150 0000 	adcs.w	r0, r0, #0
 80009ca:	eb41 5104 	adc.w	r1, r1, r4, lsl #20
 80009ce:	bd70      	pop	{r4, r5, r6, pc}
 80009d0:	f00e 4e00 	and.w	lr, lr, #2147483648	; 0x80000000
 80009d4:	ea4e 3111 	orr.w	r1, lr, r1, lsr #12
 80009d8:	eb14 045c 	adds.w	r4, r4, ip, lsr #1
 80009dc:	bfc2      	ittt	gt
 80009de:	ebd4 050c 	rsbsgt	r5, r4, ip
 80009e2:	ea41 5104 	orrgt.w	r1, r1, r4, lsl #20
 80009e6:	bd70      	popgt	{r4, r5, r6, pc}
 80009e8:	f441 1180 	orr.w	r1, r1, #1048576	; 0x100000
 80009ec:	f04f 0e00 	mov.w	lr, #0
 80009f0:	3c01      	subs	r4, #1
 80009f2:	e690      	b.n	8000716 <__aeabi_dmul+0xde>
 80009f4:	ea45 0e06 	orr.w	lr, r5, r6
 80009f8:	e68d      	b.n	8000716 <__aeabi_dmul+0xde>
 80009fa:	ea0c 5513 	and.w	r5, ip, r3, lsr #20
 80009fe:	ea94 0f0c 	teq	r4, ip
 8000a02:	bf08      	it	eq
 8000a04:	ea95 0f0c 	teqeq	r5, ip
 8000a08:	f43f af3b 	beq.w	8000882 <__aeabi_dmul+0x24a>
 8000a0c:	ea94 0f0c 	teq	r4, ip
 8000a10:	d10a      	bne.n	8000a28 <__aeabi_ddiv+0x19c>
 8000a12:	ea50 3401 	orrs.w	r4, r0, r1, lsl #12
 8000a16:	f47f af34 	bne.w	8000882 <__aeabi_dmul+0x24a>
 8000a1a:	ea95 0f0c 	teq	r5, ip
 8000a1e:	f47f af25 	bne.w	800086c <__aeabi_dmul+0x234>
 8000a22:	4610      	mov	r0, r2
 8000a24:	4619      	mov	r1, r3
 8000a26:	e72c      	b.n	8000882 <__aeabi_dmul+0x24a>
 8000a28:	ea95 0f0c 	teq	r5, ip
 8000a2c:	d106      	bne.n	8000a3c <__aeabi_ddiv+0x1b0>
 8000a2e:	ea52 3503 	orrs.w	r5, r2, r3, lsl #12
 8000a32:	f43f aefd 	beq.w	8000830 <__aeabi_dmul+0x1f8>
 8000a36:	4610      	mov	r0, r2
 8000a38:	4619      	mov	r1, r3
 8000a3a:	e722      	b.n	8000882 <__aeabi_dmul+0x24a>
 8000a3c:	ea50 0641 	orrs.w	r6, r0, r1, lsl #1
 8000a40:	bf18      	it	ne
 8000a42:	ea52 0643 	orrsne.w	r6, r2, r3, lsl #1
 8000a46:	f47f aec5 	bne.w	80007d4 <__aeabi_dmul+0x19c>
 8000a4a:	ea50 0441 	orrs.w	r4, r0, r1, lsl #1
 8000a4e:	f47f af0d 	bne.w	800086c <__aeabi_dmul+0x234>
 8000a52:	ea52 0543 	orrs.w	r5, r2, r3, lsl #1
 8000a56:	f47f aeeb 	bne.w	8000830 <__aeabi_dmul+0x1f8>
 8000a5a:	e712      	b.n	8000882 <__aeabi_dmul+0x24a>

08000a5c <__gedf2>:
 8000a5c:	f04f 3cff 	mov.w	ip, #4294967295	; 0xffffffff
 8000a60:	e006      	b.n	8000a70 <__cmpdf2+0x4>
 8000a62:	bf00      	nop

08000a64 <__ledf2>:
 8000a64:	f04f 0c01 	mov.w	ip, #1
 8000a68:	e002      	b.n	8000a70 <__cmpdf2+0x4>
 8000a6a:	bf00      	nop

08000a6c <__cmpdf2>:
 8000a6c:	f04f 0c01 	mov.w	ip, #1
 8000a70:	f84d cd04 	str.w	ip, [sp, #-4]!
 8000a74:	ea4f 0c41 	mov.w	ip, r1, lsl #1
 8000a78:	ea7f 5c6c 	mvns.w	ip, ip, asr #21
 8000a7c:	ea4f 0c43 	mov.w	ip, r3, lsl #1
 8000a80:	bf18      	it	ne
 8000a82:	ea7f 5c6c 	mvnsne.w	ip, ip, asr #21
 8000a86:	d01b      	beq.n	8000ac0 <__cmpdf2+0x54>
 8000a88:	b001      	add	sp, #4
 8000a8a:	ea50 0c41 	orrs.w	ip, r0, r1, lsl #1
 8000a8e:	bf0c      	ite	eq
 8000a90:	ea52 0c43 	orrseq.w	ip, r2, r3, lsl #1
 8000a94:	ea91 0f03 	teqne	r1, r3
 8000a98:	bf02      	ittt	eq
 8000a9a:	ea90 0f02 	teqeq	r0, r2
 8000a9e:	2000      	moveq	r0, #0
 8000aa0:	4770      	bxeq	lr
 8000aa2:	f110 0f00 	cmn.w	r0, #0
 8000aa6:	ea91 0f03 	teq	r1, r3
 8000aaa:	bf58      	it	pl
 8000aac:	4299      	cmppl	r1, r3
 8000aae:	bf08      	it	eq
 8000ab0:	4290      	cmpeq	r0, r2
 8000ab2:	bf2c      	ite	cs
 8000ab4:	17d8      	asrcs	r0, r3, #31
 8000ab6:	ea6f 70e3 	mvncc.w	r0, r3, asr #31
 8000aba:	f040 0001 	orr.w	r0, r0, #1
 8000abe:	4770      	bx	lr
 8000ac0:	ea4f 0c41 	mov.w	ip, r1, lsl #1
 8000ac4:	ea7f 5c6c 	mvns.w	ip, ip, asr #21
 8000ac8:	d102      	bne.n	8000ad0 <__cmpdf2+0x64>
 8000aca:	ea50 3c01 	orrs.w	ip, r0, r1, lsl #12
 8000ace:	d107      	bne.n	8000ae0 <__cmpdf2+0x74>
 8000ad0:	ea4f 0c43 	mov.w	ip, r3, lsl #1
 8000ad4:	ea7f 5c6c 	mvns.w	ip, ip, asr #21
 8000ad8:	d1d6      	bne.n	8000a88 <__cmpdf2+0x1c>
 8000ada:	ea52 3c03 	orrs.w	ip, r2, r3, lsl #12
 8000ade:	d0d3      	beq.n	8000a88 <__cmpdf2+0x1c>
 8000ae0:	f85d 0b04 	ldr.w	r0, [sp], #4
 8000ae4:	4770      	bx	lr
 8000ae6:	bf00      	nop

08000ae8 <__aeabi_cdrcmple>:
 8000ae8:	4684      	mov	ip, r0
 8000aea:	4610      	mov	r0, r2
 8000aec:	4662      	mov	r2, ip
 8000aee:	468c      	mov	ip, r1
 8000af0:	4619      	mov	r1, r3
 8000af2:	4663      	mov	r3, ip
 8000af4:	e000      	b.n	8000af8 <__aeabi_cdcmpeq>
 8000af6:	bf00      	nop

08000af8 <__aeabi_cdcmpeq>:
 8000af8:	b501      	push	{r0, lr}
 8000afa:	f7ff ffb7 	bl	8000a6c <__cmpdf2>
 8000afe:	2800      	cmp	r0, #0
 8000b00:	bf48      	it	mi
 8000b02:	f110 0f00 	cmnmi.w	r0, #0
 8000b06:	bd01      	pop	{r0, pc}

08000b08 <__aeabi_dcmpeq>:
 8000b08:	f84d ed08 	str.w	lr, [sp, #-8]!
 8000b0c:	f7ff fff4 	bl	8000af8 <__aeabi_cdcmpeq>
 8000b10:	bf0c      	ite	eq
 8000b12:	2001      	moveq	r0, #1
 8000b14:	2000      	movne	r0, #0
 8000b16:	f85d fb08 	ldr.w	pc, [sp], #8
 8000b1a:	bf00      	nop

08000b1c <__aeabi_dcmplt>:
 8000b1c:	f84d ed08 	str.w	lr, [sp, #-8]!
 8000b20:	f7ff ffea 	bl	8000af8 <__aeabi_cdcmpeq>
 8000b24:	bf34      	ite	cc
 8000b26:	2001      	movcc	r0, #1
 8000b28:	2000      	movcs	r0, #0
 8000b2a:	f85d fb08 	ldr.w	pc, [sp], #8
 8000b2e:	bf00      	nop

08000b30 <__aeabi_dcmple>:
 8000b30:	f84d ed08 	str.w	lr, [sp, #-8]!
 8000b34:	f7ff ffe0 	bl	8000af8 <__aeabi_cdcmpeq>
 8000b38:	bf94      	ite	ls
 8000b3a:	2001      	movls	r0, #1
 8000b3c:	2000      	movhi	r0, #0
 8000b3e:	f85d fb08 	ldr.w	pc, [sp], #8
 8000b42:	bf00      	nop

08000b44 <__aeabi_dcmpge>:
 8000b44:	f84d ed08 	str.w	lr, [sp, #-8]!
 8000b48:	f7ff ffce 	bl	8000ae8 <__aeabi_cdrcmple>
 8000b4c:	bf94      	ite	ls
 8000b4e:	2001      	movls	r0, #1
 8000b50:	2000      	movhi	r0, #0
 8000b52:	f85d fb08 	ldr.w	pc, [sp], #8
 8000b56:	bf00      	nop

08000b58 <__aeabi_dcmpgt>:
 8000b58:	f84d ed08 	str.w	lr, [sp, #-8]!
 8000b5c:	f7ff ffc4 	bl	8000ae8 <__aeabi_cdrcmple>
 8000b60:	bf34      	ite	cc
 8000b62:	2001      	movcc	r0, #1
 8000b64:	2000      	movcs	r0, #0
 8000b66:	f85d fb08 	ldr.w	pc, [sp], #8
 8000b6a:	bf00      	nop

08000b6c <__aeabi_dcmpun>:
 8000b6c:	ea4f 0c41 	mov.w	ip, r1, lsl #1
 8000b70:	ea7f 5c6c 	mvns.w	ip, ip, asr #21
 8000b74:	d102      	bne.n	8000b7c <__aeabi_dcmpun+0x10>
 8000b76:	ea50 3c01 	orrs.w	ip, r0, r1, lsl #12
 8000b7a:	d10a      	bne.n	8000b92 <__aeabi_dcmpun+0x26>
 8000b7c:	ea4f 0c43 	mov.w	ip, r3, lsl #1
 8000b80:	ea7f 5c6c 	mvns.w	ip, ip, asr #21
 8000b84:	d102      	bne.n	8000b8c <__aeabi_dcmpun+0x20>
 8000b86:	ea52 3c03 	orrs.w	ip, r2, r3, lsl #12
 8000b8a:	d102      	bne.n	8000b92 <__aeabi_dcmpun+0x26>
 8000b8c:	f04f 0000 	mov.w	r0, #0
 8000b90:	4770      	bx	lr
 8000b92:	f04f 0001 	mov.w	r0, #1
 8000b96:	4770      	bx	lr

08000b98 <__aeabi_d2iz>:
 8000b98:	ea4f 0241 	mov.w	r2, r1, lsl #1
 8000b9c:	f512 1200 	adds.w	r2, r2, #2097152	; 0x200000
 8000ba0:	d215      	bcs.n	8000bce <__aeabi_d2iz+0x36>
 8000ba2:	d511      	bpl.n	8000bc8 <__aeabi_d2iz+0x30>
 8000ba4:	f46f 7378 	mvn.w	r3, #992	; 0x3e0
 8000ba8:	ebb3 5262 	subs.w	r2, r3, r2, asr #21
 8000bac:	d912      	bls.n	8000bd4 <__aeabi_d2iz+0x3c>
 8000bae:	ea4f 23c1 	mov.w	r3, r1, lsl #11
 8000bb2:	f043 4300 	orr.w	r3, r3, #2147483648	; 0x80000000
 8000bb6:	ea43 5350 	orr.w	r3, r3, r0, lsr #21
 8000bba:	f011 4f00 	tst.w	r1, #2147483648	; 0x80000000
 8000bbe:	fa23 f002 	lsr.w	r0, r3, r2
 8000bc2:	bf18      	it	ne
 8000bc4:	4240      	negne	r0, r0
 8000bc6:	4770      	bx	lr
 8000bc8:	f04f 0000 	mov.w	r0, #0
 8000bcc:	4770      	bx	lr
 8000bce:	ea50 3001 	orrs.w	r0, r0, r1, lsl #12
 8000bd2:	d105      	bne.n	8000be0 <__aeabi_d2iz+0x48>
 8000bd4:	f011 4000 	ands.w	r0, r1, #2147483648	; 0x80000000
 8000bd8:	bf08      	it	eq
 8000bda:	f06f 4000 	mvneq.w	r0, #2147483648	; 0x80000000
 8000bde:	4770      	bx	lr
 8000be0:	f04f 0000 	mov.w	r0, #0
 8000be4:	4770      	bx	lr
 8000be6:	bf00      	nop

08000be8 <__aeabi_d2f>:
 8000be8:	ea4f 0241 	mov.w	r2, r1, lsl #1
 8000bec:	f1b2 43e0 	subs.w	r3, r2, #1879048192	; 0x70000000
 8000bf0:	bf24      	itt	cs
 8000bf2:	f5b3 1c00 	subscs.w	ip, r3, #2097152	; 0x200000
 8000bf6:	f1dc 5cfe 	rsbscs	ip, ip, #532676608	; 0x1fc00000
 8000bfa:	d90d      	bls.n	8000c18 <__aeabi_d2f+0x30>
 8000bfc:	f001 4c00 	and.w	ip, r1, #2147483648	; 0x80000000
 8000c00:	ea4f 02c0 	mov.w	r2, r0, lsl #3
 8000c04:	ea4c 7050 	orr.w	r0, ip, r0, lsr #29
 8000c08:	f1b2 4f00 	cmp.w	r2, #2147483648	; 0x80000000
 8000c0c:	eb40 0083 	adc.w	r0, r0, r3, lsl #2
 8000c10:	bf08      	it	eq
 8000c12:	f020 0001 	biceq.w	r0, r0, #1
 8000c16:	4770      	bx	lr
 8000c18:	f011 4f80 	tst.w	r1, #1073741824	; 0x40000000
 8000c1c:	d121      	bne.n	8000c62 <__aeabi_d2f+0x7a>
 8000c1e:	f113 7238 	adds.w	r2, r3, #48234496	; 0x2e00000
 8000c22:	bfbc      	itt	lt
 8000c24:	f001 4000 	andlt.w	r0, r1, #2147483648	; 0x80000000
 8000c28:	4770      	bxlt	lr
 8000c2a:	f441 1180 	orr.w	r1, r1, #1048576	; 0x100000
 8000c2e:	ea4f 5252 	mov.w	r2, r2, lsr #21
 8000c32:	f1c2 0218 	rsb	r2, r2, #24
 8000c36:	f1c2 0c20 	rsb	ip, r2, #32
 8000c3a:	fa10 f30c 	lsls.w	r3, r0, ip
 8000c3e:	fa20 f002 	lsr.w	r0, r0, r2
 8000c42:	bf18      	it	ne
 8000c44:	f040 0001 	orrne.w	r0, r0, #1
 8000c48:	ea4f 23c1 	mov.w	r3, r1, lsl #11
 8000c4c:	ea4f 23d3 	mov.w	r3, r3, lsr #11
 8000c50:	fa03 fc0c 	lsl.w	ip, r3, ip
 8000c54:	ea40 000c 	orr.w	r0, r0, ip
 8000c58:	fa23 f302 	lsr.w	r3, r3, r2
 8000c5c:	ea4f 0343 	mov.w	r3, r3, lsl #1
 8000c60:	e7cc      	b.n	8000bfc <__aeabi_d2f+0x14>
 8000c62:	ea7f 5362 	mvns.w	r3, r2, asr #21
 8000c66:	d107      	bne.n	8000c78 <__aeabi_d2f+0x90>
 8000c68:	ea50 3301 	orrs.w	r3, r0, r1, lsl #12
 8000c6c:	bf1e      	ittt	ne
 8000c6e:	f04f 40fe 	movne.w	r0, #2130706432	; 0x7f000000
 8000c72:	f440 0040 	orrne.w	r0, r0, #12582912	; 0xc00000
 8000c76:	4770      	bxne	lr
 8000c78:	f001 4000 	and.w	r0, r1, #2147483648	; 0x80000000
 8000c7c:	f040 40fe 	orr.w	r0, r0, #2130706432	; 0x7f000000
 8000c80:	f440 0000 	orr.w	r0, r0, #8388608	; 0x800000
 8000c84:	4770      	bx	lr
 8000c86:	bf00      	nop

08000c88 <__aeabi_uldivmod>:
 8000c88:	b953      	cbnz	r3, 8000ca0 <__aeabi_uldivmod+0x18>
 8000c8a:	b94a      	cbnz	r2, 8000ca0 <__aeabi_uldivmod+0x18>
 8000c8c:	2900      	cmp	r1, #0
 8000c8e:	bf08      	it	eq
 8000c90:	2800      	cmpeq	r0, #0
 8000c92:	bf1c      	itt	ne
 8000c94:	f04f 31ff 	movne.w	r1, #4294967295	; 0xffffffff
 8000c98:	f04f 30ff 	movne.w	r0, #4294967295	; 0xffffffff
 8000c9c:	f000 b96e 	b.w	8000f7c <__aeabi_idiv0>
 8000ca0:	f1ad 0c08 	sub.w	ip, sp, #8
 8000ca4:	e96d ce04 	strd	ip, lr, [sp, #-16]!
 8000ca8:	f000 f806 	bl	8000cb8 <__udivmoddi4>
 8000cac:	f8dd e004 	ldr.w	lr, [sp, #4]
 8000cb0:	e9dd 2302 	ldrd	r2, r3, [sp, #8]
 8000cb4:	b004      	add	sp, #16
 8000cb6:	4770      	bx	lr

08000cb8 <__udivmoddi4>:
 8000cb8:	e92d 47f0 	stmdb	sp!, {r4, r5, r6, r7, r8, r9, sl, lr}
 8000cbc:	9d08      	ldr	r5, [sp, #32]
 8000cbe:	4604      	mov	r4, r0
 8000cc0:	468c      	mov	ip, r1
 8000cc2:	2b00      	cmp	r3, #0
 8000cc4:	f040 8083 	bne.w	8000dce <__udivmoddi4+0x116>
 8000cc8:	428a      	cmp	r2, r1
 8000cca:	4617      	mov	r7, r2
 8000ccc:	d947      	bls.n	8000d5e <__udivmoddi4+0xa6>
 8000cce:	fab2 f282 	clz	r2, r2
 8000cd2:	b142      	cbz	r2, 8000ce6 <__udivmoddi4+0x2e>
 8000cd4:	f1c2 0020 	rsb	r0, r2, #32
 8000cd8:	fa24 f000 	lsr.w	r0, r4, r0
 8000cdc:	4091      	lsls	r1, r2
 8000cde:	4097      	lsls	r7, r2
 8000ce0:	ea40 0c01 	orr.w	ip, r0, r1
 8000ce4:	4094      	lsls	r4, r2
 8000ce6:	ea4f 4817 	mov.w	r8, r7, lsr #16
 8000cea:	0c23      	lsrs	r3, r4, #16
 8000cec:	fbbc f6f8 	udiv	r6, ip, r8
 8000cf0:	fa1f fe87 	uxth.w	lr, r7
 8000cf4:	fb08 c116 	mls	r1, r8, r6, ip
 8000cf8:	ea43 4301 	orr.w	r3, r3, r1, lsl #16
 8000cfc:	fb06 f10e 	mul.w	r1, r6, lr
 8000d00:	4299      	cmp	r1, r3
 8000d02:	d909      	bls.n	8000d18 <__udivmoddi4+0x60>
 8000d04:	18fb      	adds	r3, r7, r3
 8000d06:	f106 30ff 	add.w	r0, r6, #4294967295	; 0xffffffff
 8000d0a:	f080 8119 	bcs.w	8000f40 <__udivmoddi4+0x288>
 8000d0e:	4299      	cmp	r1, r3
 8000d10:	f240 8116 	bls.w	8000f40 <__udivmoddi4+0x288>
 8000d14:	3e02      	subs	r6, #2
 8000d16:	443b      	add	r3, r7
 8000d18:	1a5b      	subs	r3, r3, r1
 8000d1a:	b2a4      	uxth	r4, r4
 8000d1c:	fbb3 f0f8 	udiv	r0, r3, r8
 8000d20:	fb08 3310 	mls	r3, r8, r0, r3
 8000d24:	ea44 4403 	orr.w	r4, r4, r3, lsl #16
 8000d28:	fb00 fe0e 	mul.w	lr, r0, lr
 8000d2c:	45a6      	cmp	lr, r4
 8000d2e:	d909      	bls.n	8000d44 <__udivmoddi4+0x8c>
 8000d30:	193c      	adds	r4, r7, r4
 8000d32:	f100 33ff 	add.w	r3, r0, #4294967295	; 0xffffffff
 8000d36:	f080 8105 	bcs.w	8000f44 <__udivmoddi4+0x28c>
 8000d3a:	45a6      	cmp	lr, r4
 8000d3c:	f240 8102 	bls.w	8000f44 <__udivmoddi4+0x28c>
 8000d40:	3802      	subs	r0, #2
 8000d42:	443c      	add	r4, r7
 8000d44:	ea40 4006 	orr.w	r0, r0, r6, lsl #16
 8000d48:	eba4 040e 	sub.w	r4, r4, lr
 8000d4c:	2600      	movs	r6, #0
 8000d4e:	b11d      	cbz	r5, 8000d58 <__udivmoddi4+0xa0>
 8000d50:	40d4      	lsrs	r4, r2
 8000d52:	2300      	movs	r3, #0
 8000d54:	e9c5 4300 	strd	r4, r3, [r5]
 8000d58:	4631      	mov	r1, r6
 8000d5a:	e8bd 87f0 	ldmia.w	sp!, {r4, r5, r6, r7, r8, r9, sl, pc}
 8000d5e:	b902      	cbnz	r2, 8000d62 <__udivmoddi4+0xaa>
 8000d60:	deff      	udf	#255	; 0xff
 8000d62:	fab2 f282 	clz	r2, r2
 8000d66:	2a00      	cmp	r2, #0
 8000d68:	d150      	bne.n	8000e0c <__udivmoddi4+0x154>
 8000d6a:	1bcb      	subs	r3, r1, r7
 8000d6c:	ea4f 4e17 	mov.w	lr, r7, lsr #16
 8000d70:	fa1f f887 	uxth.w	r8, r7
 8000d74:	2601      	movs	r6, #1
 8000d76:	fbb3 fcfe 	udiv	ip, r3, lr
 8000d7a:	0c21      	lsrs	r1, r4, #16
 8000d7c:	fb0e 331c 	mls	r3, lr, ip, r3
 8000d80:	ea41 4103 	orr.w	r1, r1, r3, lsl #16
 8000d84:	fb08 f30c 	mul.w	r3, r8, ip
 8000d88:	428b      	cmp	r3, r1
 8000d8a:	d907      	bls.n	8000d9c <__udivmoddi4+0xe4>
 8000d8c:	1879      	adds	r1, r7, r1
 8000d8e:	f10c 30ff 	add.w	r0, ip, #4294967295	; 0xffffffff
 8000d92:	d202      	bcs.n	8000d9a <__udivmoddi4+0xe2>
 8000d94:	428b      	cmp	r3, r1
 8000d96:	f200 80e9 	bhi.w	8000f6c <__udivmoddi4+0x2b4>
 8000d9a:	4684      	mov	ip, r0
 8000d9c:	1ac9      	subs	r1, r1, r3
 8000d9e:	b2a3      	uxth	r3, r4
 8000da0:	fbb1 f0fe 	udiv	r0, r1, lr
 8000da4:	fb0e 1110 	mls	r1, lr, r0, r1
 8000da8:	ea43 4401 	orr.w	r4, r3, r1, lsl #16
 8000dac:	fb08 f800 	mul.w	r8, r8, r0
 8000db0:	45a0      	cmp	r8, r4
 8000db2:	d907      	bls.n	8000dc4 <__udivmoddi4+0x10c>
 8000db4:	193c      	adds	r4, r7, r4
 8000db6:	f100 33ff 	add.w	r3, r0, #4294967295	; 0xffffffff
 8000dba:	d202      	bcs.n	8000dc2 <__udivmoddi4+0x10a>
 8000dbc:	45a0      	cmp	r8, r4
 8000dbe:	f200 80d9 	bhi.w	8000f74 <__udivmoddi4+0x2bc>
 8000dc2:	4618      	mov	r0, r3
 8000dc4:	eba4 0408 	sub.w	r4, r4, r8
 8000dc8:	ea40 400c 	orr.w	r0, r0, ip, lsl #16
 8000dcc:	e7bf      	b.n	8000d4e <__udivmoddi4+0x96>
 8000dce:	428b      	cmp	r3, r1
 8000dd0:	d909      	bls.n	8000de6 <__udivmoddi4+0x12e>
 8000dd2:	2d00      	cmp	r5, #0
 8000dd4:	f000 80b1 	beq.w	8000f3a <__udivmoddi4+0x282>
 8000dd8:	2600      	movs	r6, #0
 8000dda:	e9c5 0100 	strd	r0, r1, [r5]
 8000dde:	4630      	mov	r0, r6
 8000de0:	4631      	mov	r1, r6
 8000de2:	e8bd 87f0 	ldmia.w	sp!, {r4, r5, r6, r7, r8, r9, sl, pc}
 8000de6:	fab3 f683 	clz	r6, r3
 8000dea:	2e00      	cmp	r6, #0
 8000dec:	d14a      	bne.n	8000e84 <__udivmoddi4+0x1cc>
 8000dee:	428b      	cmp	r3, r1
 8000df0:	d302      	bcc.n	8000df8 <__udivmoddi4+0x140>
 8000df2:	4282      	cmp	r2, r0
 8000df4:	f200 80b8 	bhi.w	8000f68 <__udivmoddi4+0x2b0>
 8000df8:	1a84      	subs	r4, r0, r2
 8000dfa:	eb61 0103 	sbc.w	r1, r1, r3
 8000dfe:	2001      	movs	r0, #1
 8000e00:	468c      	mov	ip, r1
 8000e02:	2d00      	cmp	r5, #0
 8000e04:	d0a8      	beq.n	8000d58 <__udivmoddi4+0xa0>
 8000e06:	e9c5 4c00 	strd	r4, ip, [r5]
 8000e0a:	e7a5      	b.n	8000d58 <__udivmoddi4+0xa0>
 8000e0c:	f1c2 0320 	rsb	r3, r2, #32
 8000e10:	fa20 f603 	lsr.w	r6, r0, r3
 8000e14:	4097      	lsls	r7, r2
 8000e16:	fa01 f002 	lsl.w	r0, r1, r2
 8000e1a:	ea4f 4e17 	mov.w	lr, r7, lsr #16
 8000e1e:	40d9      	lsrs	r1, r3
 8000e20:	4330      	orrs	r0, r6
 8000e22:	0c03      	lsrs	r3, r0, #16
 8000e24:	fbb1 f6fe 	udiv	r6, r1, lr
 8000e28:	fa1f f887 	uxth.w	r8, r7
 8000e2c:	fb0e 1116 	mls	r1, lr, r6, r1
 8000e30:	ea43 4301 	orr.w	r3, r3, r1, lsl #16
 8000e34:	fb06 f108 	mul.w	r1, r6, r8
 8000e38:	4299      	cmp	r1, r3
 8000e3a:	fa04 f402 	lsl.w	r4, r4, r2
 8000e3e:	d909      	bls.n	8000e54 <__udivmoddi4+0x19c>
 8000e40:	18fb      	adds	r3, r7, r3
 8000e42:	f106 3cff 	add.w	ip, r6, #4294967295	; 0xffffffff
 8000e46:	f080 808d 	bcs.w	8000f64 <__udivmoddi4+0x2ac>
 8000e4a:	4299      	cmp	r1, r3
 8000e4c:	f240 808a 	bls.w	8000f64 <__udivmoddi4+0x2ac>
 8000e50:	3e02      	subs	r6, #2
 8000e52:	443b      	add	r3, r7
 8000e54:	1a5b      	subs	r3, r3, r1
 8000e56:	b281      	uxth	r1, r0
 8000e58:	fbb3 f0fe 	udiv	r0, r3, lr
 8000e5c:	fb0e 3310 	mls	r3, lr, r0, r3
 8000e60:	ea41 4103 	orr.w	r1, r1, r3, lsl #16
 8000e64:	fb00 f308 	mul.w	r3, r0, r8
 8000e68:	428b      	cmp	r3, r1
 8000e6a:	d907      	bls.n	8000e7c <__udivmoddi4+0x1c4>
 8000e6c:	1879      	adds	r1, r7, r1
 8000e6e:	f100 3cff 	add.w	ip, r0, #4294967295	; 0xffffffff
 8000e72:	d273      	bcs.n	8000f5c <__udivmoddi4+0x2a4>
 8000e74:	428b      	cmp	r3, r1
 8000e76:	d971      	bls.n	8000f5c <__udivmoddi4+0x2a4>
 8000e78:	3802      	subs	r0, #2
 8000e7a:	4439      	add	r1, r7
 8000e7c:	1acb      	subs	r3, r1, r3
 8000e7e:	ea40 4606 	orr.w	r6, r0, r6, lsl #16
 8000e82:	e778      	b.n	8000d76 <__udivmoddi4+0xbe>
 8000e84:	f1c6 0c20 	rsb	ip, r6, #32
 8000e88:	fa03 f406 	lsl.w	r4, r3, r6
 8000e8c:	fa22 f30c 	lsr.w	r3, r2, ip
 8000e90:	431c      	orrs	r4, r3
 8000e92:	fa20 f70c 	lsr.w	r7, r0, ip
 8000e96:	fa01 f306 	lsl.w	r3, r1, r6
 8000e9a:	ea4f 4e14 	mov.w	lr, r4, lsr #16
 8000e9e:	fa21 f10c 	lsr.w	r1, r1, ip
 8000ea2:	431f      	orrs	r7, r3
 8000ea4:	0c3b      	lsrs	r3, r7, #16
 8000ea6:	fbb1 f9fe 	udiv	r9, r1, lr
 8000eaa:	fa1f f884 	uxth.w	r8, r4
 8000eae:	fb0e 1119 	mls	r1, lr, r9, r1
 8000eb2:	ea43 4101 	orr.w	r1, r3, r1, lsl #16
 8000eb6:	fb09 fa08 	mul.w	sl, r9, r8
 8000eba:	458a      	cmp	sl, r1
 8000ebc:	fa02 f206 	lsl.w	r2, r2, r6
 8000ec0:	fa00 f306 	lsl.w	r3, r0, r6
 8000ec4:	d908      	bls.n	8000ed8 <__udivmoddi4+0x220>
 8000ec6:	1861      	adds	r1, r4, r1
 8000ec8:	f109 30ff 	add.w	r0, r9, #4294967295	; 0xffffffff
 8000ecc:	d248      	bcs.n	8000f60 <__udivmoddi4+0x2a8>
 8000ece:	458a      	cmp	sl, r1
 8000ed0:	d946      	bls.n	8000f60 <__udivmoddi4+0x2a8>
 8000ed2:	f1a9 0902 	sub.w	r9, r9, #2
 8000ed6:	4421      	add	r1, r4
 8000ed8:	eba1 010a 	sub.w	r1, r1, sl
 8000edc:	b2bf      	uxth	r7, r7
 8000ede:	fbb1 f0fe 	udiv	r0, r1, lr
 8000ee2:	fb0e 1110 	mls	r1, lr, r0, r1
 8000ee6:	ea47 4701 	orr.w	r7, r7, r1, lsl #16
 8000eea:	fb00 f808 	mul.w	r8, r0, r8
 8000eee:	45b8      	cmp	r8, r7
 8000ef0:	d907      	bls.n	8000f02 <__udivmoddi4+0x24a>
 8000ef2:	19e7      	adds	r7, r4, r7
 8000ef4:	f100 31ff 	add.w	r1, r0, #4294967295	; 0xffffffff
 8000ef8:	d22e      	bcs.n	8000f58 <__udivmoddi4+0x2a0>
 8000efa:	45b8      	cmp	r8, r7
 8000efc:	d92c      	bls.n	8000f58 <__udivmoddi4+0x2a0>
 8000efe:	3802      	subs	r0, #2
 8000f00:	4427      	add	r7, r4
 8000f02:	ea40 4009 	orr.w	r0, r0, r9, lsl #16
 8000f06:	eba7 0708 	sub.w	r7, r7, r8
 8000f0a:	fba0 8902 	umull	r8, r9, r0, r2
 8000f0e:	454f      	cmp	r7, r9
 8000f10:	46c6      	mov	lr, r8
 8000f12:	4649      	mov	r1, r9
 8000f14:	d31a      	bcc.n	8000f4c <__udivmoddi4+0x294>
 8000f16:	d017      	beq.n	8000f48 <__udivmoddi4+0x290>
 8000f18:	b15d      	cbz	r5, 8000f32 <__udivmoddi4+0x27a>
 8000f1a:	ebb3 020e 	subs.w	r2, r3, lr
 8000f1e:	eb67 0701 	sbc.w	r7, r7, r1
 8000f22:	fa07 fc0c 	lsl.w	ip, r7, ip
 8000f26:	40f2      	lsrs	r2, r6
 8000f28:	ea4c 0202 	orr.w	r2, ip, r2
 8000f2c:	40f7      	lsrs	r7, r6
 8000f2e:	e9c5 2700 	strd	r2, r7, [r5]
 8000f32:	2600      	movs	r6, #0
 8000f34:	4631      	mov	r1, r6
 8000f36:	e8bd 87f0 	ldmia.w	sp!, {r4, r5, r6, r7, r8, r9, sl, pc}
 8000f3a:	462e      	mov	r6, r5
 8000f3c:	4628      	mov	r0, r5
 8000f3e:	e70b      	b.n	8000d58 <__udivmoddi4+0xa0>
 8000f40:	4606      	mov	r6, r0
 8000f42:	e6e9      	b.n	8000d18 <__udivmoddi4+0x60>
 8000f44:	4618      	mov	r0, r3
 8000f46:	e6fd      	b.n	8000d44 <__udivmoddi4+0x8c>
 8000f48:	4543      	cmp	r3, r8
 8000f4a:	d2e5      	bcs.n	8000f18 <__udivmoddi4+0x260>
 8000f4c:	ebb8 0e02 	subs.w	lr, r8, r2
 8000f50:	eb69 0104 	sbc.w	r1, r9, r4
 8000f54:	3801      	subs	r0, #1
 8000f56:	e7df      	b.n	8000f18 <__udivmoddi4+0x260>
 8000f58:	4608      	mov	r0, r1
 8000f5a:	e7d2      	b.n	8000f02 <__udivmoddi4+0x24a>
 8000f5c:	4660      	mov	r0, ip
 8000f5e:	e78d      	b.n	8000e7c <__udivmoddi4+0x1c4>
 8000f60:	4681      	mov	r9, r0
 8000f62:	e7b9      	b.n	8000ed8 <__udivmoddi4+0x220>
 8000f64:	4666      	mov	r6, ip
 8000f66:	e775      	b.n	8000e54 <__udivmoddi4+0x19c>
 8000f68:	4630      	mov	r0, r6
 8000f6a:	e74a      	b.n	8000e02 <__udivmoddi4+0x14a>
 8000f6c:	f1ac 0c02 	sub.w	ip, ip, #2
 8000f70:	4439      	add	r1, r7
 8000f72:	e713      	b.n	8000d9c <__udivmoddi4+0xe4>
 8000f74:	3802      	subs	r0, #2
 8000f76:	443c      	add	r4, r7
 8000f78:	e724      	b.n	8000dc4 <__udivmoddi4+0x10c>
 8000f7a:	bf00      	nop

08000f7c <__aeabi_idiv0>:
 8000f7c:	4770      	bx	lr
 8000f7e:	bf00      	nop

08000f80 <GET_TIMER_CLK>:
/* USER CODE END PFP */

/* Private user code ---------------------------------------------------------*/
/* USER CODE BEGIN 0 */
uint32_t GET_TIMER_CLK(uint8_t timer)
{
 8000f80:	b580      	push	{r7, lr}
 8000f82:	b086      	sub	sp, #24
 8000f84:	af00      	add	r7, sp, #0
 8000f86:	4603      	mov	r3, r0
 8000f88:	71fb      	strb	r3, [r7, #7]
  uint8_t sel = 0;
 8000f8a:	2300      	movs	r3, #0
 8000f8c:	75fb      	strb	r3, [r7, #23]
  switch (timer)
 8000f8e:	79fb      	ldrb	r3, [r7, #7]
 8000f90:	2b07      	cmp	r3, #7
 8000f92:	dc02      	bgt.n	8000f9a <GET_TIMER_CLK+0x1a>
 8000f94:	2b02      	cmp	r3, #2
 8000f96:	da03      	bge.n	8000fa0 <GET_TIMER_CLK+0x20>
 8000f98:	e005      	b.n	8000fa6 <GET_TIMER_CLK+0x26>
 8000f9a:	3b0c      	subs	r3, #12
 8000f9c:	2b02      	cmp	r3, #2
 8000f9e:	d802      	bhi.n	8000fa6 <GET_TIMER_CLK+0x26>
  case 6:
  case 7:
  case 12:
  case 13:
  case 14:
    sel = 1;
 8000fa0:	2301      	movs	r3, #1
 8000fa2:	75fb      	strb	r3, [r7, #23]
    break;
 8000fa4:	e002      	b.n	8000fac <GET_TIMER_CLK+0x2c>
  default:
    sel = 2;
 8000fa6:	2302      	movs	r3, #2
 8000fa8:	75fb      	strb	r3, [r7, #23]
    break;
 8000faa:	bf00      	nop
  }
  if(sel == 1){
 8000fac:	7dfb      	ldrb	r3, [r7, #23]
 8000fae:	2b01      	cmp	r3, #1
 8000fb0:	d10d      	bne.n	8000fce <GET_TIMER_CLK+0x4e>
    /* Get PCLK1 frequency */
    uint32_t pclk1 = HAL_RCC_GetPCLK1Freq();
 8000fb2:	f001 fec9 	bl	8002d48 <HAL_RCC_GetPCLK1Freq>
 8000fb6:	60f8      	str	r0, [r7, #12]
  
    /* Get PCLK1 prescaler */
    if((RCC->CFGR & RCC_CFGR_PPRE1) == 0)
 8000fb8:	4b0d      	ldr	r3, [pc, #52]	; (8000ff0 <GET_TIMER_CLK+0x70>)
 8000fba:	689b      	ldr	r3, [r3, #8]
 8000fbc:	f403 53e0 	and.w	r3, r3, #7168	; 0x1c00
 8000fc0:	2b00      	cmp	r3, #0
 8000fc2:	d101      	bne.n	8000fc8 <GET_TIMER_CLK+0x48>
    {
      /* PCLK1 prescaler equal to 1 => TIMCLK = PCLK1 */
      return (pclk1);
 8000fc4:	68fb      	ldr	r3, [r7, #12]
 8000fc6:	e00f      	b.n	8000fe8 <GET_TIMER_CLK+0x68>
    }
    else
    {
      /* PCLK1 prescaler different from 1 => TIMCLK = 2 * PCLK1 */
      return(2 * pclk1);
 8000fc8:	68fb      	ldr	r3, [r7, #12]
 8000fca:	005b      	lsls	r3, r3, #1
 8000fcc:	e00c      	b.n	8000fe8 <GET_TIMER_CLK+0x68>
    }
  } else {
    /* Get PCLK2 frequency */
    uint32_t pclk2 = HAL_RCC_GetPCLK2Freq();
 8000fce:	f001 fecf 	bl	8002d70 <HAL_RCC_GetPCLK2Freq>
 8000fd2:	6138      	str	r0, [r7, #16]
  
    /* Get PCLK1 prescaler */
    if((RCC->CFGR & RCC_CFGR_PPRE2) == 0)
 8000fd4:	4b06      	ldr	r3, [pc, #24]	; (8000ff0 <GET_TIMER_CLK+0x70>)
 8000fd6:	689b      	ldr	r3, [r3, #8]
 8000fd8:	f403 4360 	and.w	r3, r3, #57344	; 0xe000
 8000fdc:	2b00      	cmp	r3, #0
 8000fde:	d101      	bne.n	8000fe4 <GET_TIMER_CLK+0x64>
    {
      /* PCLK1 prescaler equal to 1 => TIMCLK = PCLK1 */
      return (pclk2);
 8000fe0:	693b      	ldr	r3, [r7, #16]
 8000fe2:	e001      	b.n	8000fe8 <GET_TIMER_CLK+0x68>
    }
    else
    {
      /* PCLK1 prescaler different from 1 => TIMCLK = 2 * PCLK1 */
      return(2 * pclk2);
 8000fe4:	693b      	ldr	r3, [r7, #16]
 8000fe6:	005b      	lsls	r3, r3, #1
    }
  }
}
 8000fe8:	4618      	mov	r0, r3
 8000fea:	3718      	adds	r7, #24
 8000fec:	46bd      	mov	sp, r7
 8000fee:	bd80      	pop	{r7, pc}
 8000ff0:	40023800 	.word	0x40023800

08000ff4 <changeTimerFrequency>:

int changeTimerFrequency(TIM_HandleTypeDef *timer, int timer_num, int channel, float frequency, int32_t pulseWidth_ms){
 8000ff4:	b5b0      	push	{r4, r5, r7, lr}
 8000ff6:	b08e      	sub	sp, #56	; 0x38
 8000ff8:	af02      	add	r7, sp, #8
 8000ffa:	6178      	str	r0, [r7, #20]
 8000ffc:	6139      	str	r1, [r7, #16]
 8000ffe:	60fa      	str	r2, [r7, #12]
 8001000:	ed87 0a02 	vstr	s0, [r7, #8]
 8001004:	607b      	str	r3, [r7, #4]
  //Get the clock frequency going to this timer (scaled by the timer prescaler)
  float clk_freq = (float)(GET_TIMER_CLK(timer_num) / (PRESCALER - 1));
 8001006:	693b      	ldr	r3, [r7, #16]
 8001008:	b2db      	uxtb	r3, r3
 800100a:	4618      	mov	r0, r3
 800100c:	f7ff ffb8 	bl	8000f80 <GET_TIMER_CLK>
 8001010:	4603      	mov	r3, r0
 8001012:	4a4d      	ldr	r2, [pc, #308]	; (8001148 <changeTimerFrequency+0x154>)
 8001014:	fba2 2303 	umull	r2, r3, r2, r3
 8001018:	0adb      	lsrs	r3, r3, #11
 800101a:	ee07 3a90 	vmov	s15, r3
 800101e:	eef8 7a67 	vcvt.f32.u32	s15, s15
 8001022:	edc7 7a0b 	vstr	s15, [r7, #44]	; 0x2c
  int clk_freq_int = (int)clk_freq;
 8001026:	edd7 7a0b 	vldr	s15, [r7, #44]	; 0x2c
 800102a:	eefd 7ae7 	vcvt.s32.f32	s15, s15
 800102e:	ee17 3a90 	vmov	r3, s15
 8001032:	62bb      	str	r3, [r7, #40]	; 0x28
  //DEBUG
  // sprintf(buff, "TIMER CLK FREQ: %d\n", clk_freq_int);
  // HAL_UART_Transmit(&huart2, buff, 50, 1000);

  //Calculate period and set it
  uint32_t prev_ARR = timer->Instance->ARR;
 8001034:	697b      	ldr	r3, [r7, #20]
 8001036:	681b      	ldr	r3, [r3, #0]
 8001038:	6adb      	ldr	r3, [r3, #44]	; 0x2c
 800103a:	627b      	str	r3, [r7, #36]	; 0x24
  uint32_t curr_count = __HAL_TIM_GET_COUNTER(timer);
 800103c:	697b      	ldr	r3, [r7, #20]
 800103e:	681b      	ldr	r3, [r3, #0]
 8001040:	6a5b      	ldr	r3, [r3, #36]	; 0x24
 8001042:	623b      	str	r3, [r7, #32]
  timer->Instance->ARR = clk_freq / frequency - 1;
 8001044:	edd7 6a0b 	vldr	s13, [r7, #44]	; 0x2c
 8001048:	ed97 7a02 	vldr	s14, [r7, #8]
 800104c:	eec6 7a87 	vdiv.f32	s15, s13, s14
 8001050:	eeb7 7a00 	vmov.f32	s14, #112	; 0x3f800000  1.0
 8001054:	ee77 7ac7 	vsub.f32	s15, s15, s14
 8001058:	697b      	ldr	r3, [r7, #20]
 800105a:	681b      	ldr	r3, [r3, #0]
 800105c:	eefc 7ae7 	vcvt.u32.f32	s15, s15
 8001060:	ee17 2a90 	vmov	r2, s15
 8001064:	62da      	str	r2, [r3, #44]	; 0x2c
  uint32_t new_counter = ((float)curr_count / (float)prev_ARR) * timer->Instance->ARR;
 8001066:	6a3b      	ldr	r3, [r7, #32]
 8001068:	ee07 3a90 	vmov	s15, r3
 800106c:	eef8 6a67 	vcvt.f32.u32	s13, s15
 8001070:	6a7b      	ldr	r3, [r7, #36]	; 0x24
 8001072:	ee07 3a90 	vmov	s15, r3
 8001076:	eef8 7a67 	vcvt.f32.u32	s15, s15
 800107a:	ee86 7aa7 	vdiv.f32	s14, s13, s15
 800107e:	697b      	ldr	r3, [r7, #20]
 8001080:	681b      	ldr	r3, [r3, #0]
 8001082:	6adb      	ldr	r3, [r3, #44]	; 0x2c
 8001084:	ee07 3a90 	vmov	s15, r3
 8001088:	eef8 7a67 	vcvt.f32.u32	s15, s15
 800108c:	ee67 7a27 	vmul.f32	s15, s14, s15
 8001090:	eefc 7ae7 	vcvt.u32.f32	s15, s15
 8001094:	ee17 3a90 	vmov	r3, s15
 8001098:	61fb      	str	r3, [r7, #28]
  sprintf(buff, "PREV COUNT: %d\tPRE ARR: %d\tNEW COUNT: %d\tNEW ARR: %d\n", curr_count, prev_ARR, new_counter, timer->Instance->ARR);
 800109a:	697b      	ldr	r3, [r7, #20]
 800109c:	681b      	ldr	r3, [r3, #0]
 800109e:	6adb      	ldr	r3, [r3, #44]	; 0x2c
 80010a0:	9301      	str	r3, [sp, #4]
 80010a2:	69fb      	ldr	r3, [r7, #28]
 80010a4:	9300      	str	r3, [sp, #0]
 80010a6:	6a7b      	ldr	r3, [r7, #36]	; 0x24
 80010a8:	6a3a      	ldr	r2, [r7, #32]
 80010aa:	4928      	ldr	r1, [pc, #160]	; (800114c <changeTimerFrequency+0x158>)
 80010ac:	4828      	ldr	r0, [pc, #160]	; (8001150 <changeTimerFrequency+0x15c>)
 80010ae:	f005 fb95 	bl	80067dc <siprintf>
  HAL_UART_Transmit(&huart2, buff, strlen(buff), 1000);
 80010b2:	4827      	ldr	r0, [pc, #156]	; (8001150 <changeTimerFrequency+0x15c>)
 80010b4:	f7ff f8ac 	bl	8000210 <strlen>
 80010b8:	4603      	mov	r3, r0
 80010ba:	b29a      	uxth	r2, r3
 80010bc:	f44f 737a 	mov.w	r3, #1000	; 0x3e8
 80010c0:	4923      	ldr	r1, [pc, #140]	; (8001150 <changeTimerFrequency+0x15c>)
 80010c2:	4824      	ldr	r0, [pc, #144]	; (8001154 <changeTimerFrequency+0x160>)
 80010c4:	f003 ff0b 	bl	8004ede <HAL_UART_Transmit>
  __HAL_TIM_SET_COUNTER(timer, new_counter);
 80010c8:	697b      	ldr	r3, [r7, #20]
 80010ca:	681b      	ldr	r3, [r3, #0]
 80010cc:	69fa      	ldr	r2, [r7, #28]
 80010ce:	625a      	str	r2, [r3, #36]	; 0x24
  //DEBUG
  // sprintf(buff, "TIMER AUTO RELOAD VAL: %d\n", timer->Instance->ARR);
  // HAL_UART_Transmit(&huart2, buff, 50, 1000);
  //Set pulse width if it's valid ie. smaller than the period
  //Calculate the value for CCRx
  int ccr = (float)pulseWidth_ms * (clk_freq/1000.0);
 80010d0:	687b      	ldr	r3, [r7, #4]
 80010d2:	ee07 3a90 	vmov	s15, r3
 80010d6:	eef8 7ae7 	vcvt.f32.s32	s15, s15
 80010da:	ee17 0a90 	vmov	r0, s15
 80010de:	f7ff fa53 	bl	8000588 <__aeabi_f2d>
 80010e2:	4604      	mov	r4, r0
 80010e4:	460d      	mov	r5, r1
 80010e6:	6af8      	ldr	r0, [r7, #44]	; 0x2c
 80010e8:	f7ff fa4e 	bl	8000588 <__aeabi_f2d>
 80010ec:	f04f 0200 	mov.w	r2, #0
 80010f0:	4b19      	ldr	r3, [pc, #100]	; (8001158 <changeTimerFrequency+0x164>)
 80010f2:	f7ff fbcb 	bl	800088c <__aeabi_ddiv>
 80010f6:	4602      	mov	r2, r0
 80010f8:	460b      	mov	r3, r1
 80010fa:	4620      	mov	r0, r4
 80010fc:	4629      	mov	r1, r5
 80010fe:	f7ff fa9b 	bl	8000638 <__aeabi_dmul>
 8001102:	4602      	mov	r2, r0
 8001104:	460b      	mov	r3, r1
 8001106:	4610      	mov	r0, r2
 8001108:	4619      	mov	r1, r3
 800110a:	f7ff fd45 	bl	8000b98 <__aeabi_d2iz>
 800110e:	4603      	mov	r3, r0
 8001110:	61bb      	str	r3, [r7, #24]
  if(ccr < timer->Instance->ARR)
 8001112:	697b      	ldr	r3, [r7, #20]
 8001114:	681b      	ldr	r3, [r3, #0]
 8001116:	6ada      	ldr	r2, [r3, #44]	; 0x2c
 8001118:	69bb      	ldr	r3, [r7, #24]
 800111a:	429a      	cmp	r2, r3
 800111c:	d90c      	bls.n	8001138 <changeTimerFrequency+0x144>
  {
    if(channel == 1){
 800111e:	68fb      	ldr	r3, [r7, #12]
 8001120:	2b01      	cmp	r3, #1
 8001122:	d104      	bne.n	800112e <changeTimerFrequency+0x13a>
      timer->Instance->CCR1 = ccr;
 8001124:	697b      	ldr	r3, [r7, #20]
 8001126:	681b      	ldr	r3, [r3, #0]
 8001128:	69ba      	ldr	r2, [r7, #24]
 800112a:	635a      	str	r2, [r3, #52]	; 0x34
 800112c:	e007      	b.n	800113e <changeTimerFrequency+0x14a>
      //DEBUG
      // sprintf(buff, "TIMER CCR1 VAL: %d\n", timer->Instance->CCR1);
      // HAL_UART_Transmit(&huart2, buff, 50, 1000);
    } else {
      timer->Instance->CCR2 = ccr;
 800112e:	697b      	ldr	r3, [r7, #20]
 8001130:	681b      	ldr	r3, [r3, #0]
 8001132:	69ba      	ldr	r2, [r7, #24]
 8001134:	639a      	str	r2, [r3, #56]	; 0x38
 8001136:	e002      	b.n	800113e <changeTimerFrequency+0x14a>
    }

  }
  else
  {
    return -1;
 8001138:	f04f 33ff 	mov.w	r3, #4294967295	; 0xffffffff
 800113c:	e000      	b.n	8001140 <changeTimerFrequency+0x14c>
  }
  return 0;
 800113e:	2300      	movs	r3, #0
}
 8001140:	4618      	mov	r0, r3
 8001142:	3730      	adds	r7, #48	; 0x30
 8001144:	46bd      	mov	sp, r7
 8001146:	bdb0      	pop	{r4, r5, r7, pc}
 8001148:	aed22925 	.word	0xaed22925
 800114c:	08008c50 	.word	0x08008c50
 8001150:	2000034c 	.word	0x2000034c
 8001154:	200004a4 	.word	0x200004a4
 8001158:	408f4000 	.word	0x408f4000

0800115c <map_clamped>:

float map_clamped(float x, float in_min, float in_max, float out_min, float out_max) {
 800115c:	b5b0      	push	{r4, r5, r7, lr}
 800115e:	b08a      	sub	sp, #40	; 0x28
 8001160:	af00      	add	r7, sp, #0
 8001162:	ed87 0a05 	vstr	s0, [r7, #20]
 8001166:	edc7 0a04 	vstr	s1, [r7, #16]
 800116a:	ed87 1a03 	vstr	s2, [r7, #12]
 800116e:	edc7 1a02 	vstr	s3, [r7, #8]
 8001172:	ed87 2a01 	vstr	s4, [r7, #4]
  //Clip output
  if(x > in_max)
 8001176:	ed97 7a05 	vldr	s14, [r7, #20]
 800117a:	edd7 7a03 	vldr	s15, [r7, #12]
 800117e:	eeb4 7ae7 	vcmpe.f32	s14, s15
 8001182:	eef1 fa10 	vmrs	APSR_nzcv, fpscr
 8001186:	dd01      	ble.n	800118c <map_clamped+0x30>
    return out_max;
 8001188:	687b      	ldr	r3, [r7, #4]
 800118a:	e04c      	b.n	8001226 <map_clamped+0xca>
  else if(x < in_min)
 800118c:	ed97 7a05 	vldr	s14, [r7, #20]
 8001190:	edd7 7a04 	vldr	s15, [r7, #16]
 8001194:	eeb4 7ae7 	vcmpe.f32	s14, s15
 8001198:	eef1 fa10 	vmrs	APSR_nzcv, fpscr
 800119c:	d501      	bpl.n	80011a2 <map_clamped+0x46>
    return out_min;
 800119e:	68bb      	ldr	r3, [r7, #8]
 80011a0:	e041      	b.n	8001226 <map_clamped+0xca>
  else
  {
    double slope = 1.0 * (out_max - out_min) / (in_max - in_min);
 80011a2:	ed97 7a01 	vldr	s14, [r7, #4]
 80011a6:	edd7 7a02 	vldr	s15, [r7, #8]
 80011aa:	ee77 7a67 	vsub.f32	s15, s14, s15
 80011ae:	ee17 0a90 	vmov	r0, s15
 80011b2:	f7ff f9e9 	bl	8000588 <__aeabi_f2d>
 80011b6:	4604      	mov	r4, r0
 80011b8:	460d      	mov	r5, r1
 80011ba:	ed97 7a03 	vldr	s14, [r7, #12]
 80011be:	edd7 7a04 	vldr	s15, [r7, #16]
 80011c2:	ee77 7a67 	vsub.f32	s15, s14, s15
 80011c6:	ee17 0a90 	vmov	r0, s15
 80011ca:	f7ff f9dd 	bl	8000588 <__aeabi_f2d>
 80011ce:	4602      	mov	r2, r0
 80011d0:	460b      	mov	r3, r1
 80011d2:	4620      	mov	r0, r4
 80011d4:	4629      	mov	r1, r5
 80011d6:	f7ff fb59 	bl	800088c <__aeabi_ddiv>
 80011da:	4602      	mov	r2, r0
 80011dc:	460b      	mov	r3, r1
 80011de:	e9c7 2308 	strd	r2, r3, [r7, #32]
    double output = out_min + slope * (x - in_min);
 80011e2:	68b8      	ldr	r0, [r7, #8]
 80011e4:	f7ff f9d0 	bl	8000588 <__aeabi_f2d>
 80011e8:	4604      	mov	r4, r0
 80011ea:	460d      	mov	r5, r1
 80011ec:	ed97 7a05 	vldr	s14, [r7, #20]
 80011f0:	edd7 7a04 	vldr	s15, [r7, #16]
 80011f4:	ee77 7a67 	vsub.f32	s15, s14, s15
 80011f8:	ee17 0a90 	vmov	r0, s15
 80011fc:	f7ff f9c4 	bl	8000588 <__aeabi_f2d>
 8001200:	e9d7 2308 	ldrd	r2, r3, [r7, #32]
 8001204:	f7ff fa18 	bl	8000638 <__aeabi_dmul>
 8001208:	4602      	mov	r2, r0
 800120a:	460b      	mov	r3, r1
 800120c:	4620      	mov	r0, r4
 800120e:	4629      	mov	r1, r5
 8001210:	f7ff f85c 	bl	80002cc <__adddf3>
 8001214:	4602      	mov	r2, r0
 8001216:	460b      	mov	r3, r1
 8001218:	e9c7 2306 	strd	r2, r3, [r7, #24]
    return output;
 800121c:	e9d7 0106 	ldrd	r0, r1, [r7, #24]
 8001220:	f7ff fce2 	bl	8000be8 <__aeabi_d2f>
 8001224:	4603      	mov	r3, r0
 8001226:	ee07 3a90 	vmov	s15, r3
  }
}
 800122a:	eeb0 0a67 	vmov.f32	s0, s15
 800122e:	3728      	adds	r7, #40	; 0x28
 8001230:	46bd      	mov	sp, r7
 8001232:	bdb0      	pop	{r4, r5, r7, pc}

08001234 <UpdateMotorsFreq>:

void UpdateMotorsFreq(TIM_HandleTypeDef** motors, uint8_t* motors_num, uint8_t* motors_channel, float* distances){
 8001234:	b5b0      	push	{r4, r5, r7, lr}
 8001236:	b08c      	sub	sp, #48	; 0x30
 8001238:	af06      	add	r7, sp, #24
 800123a:	60f8      	str	r0, [r7, #12]
 800123c:	60b9      	str	r1, [r7, #8]
 800123e:	607a      	str	r2, [r7, #4]
 8001240:	603b      	str	r3, [r7, #0]
  float freq = 0.0;
 8001242:	f04f 0300 	mov.w	r3, #0
 8001246:	613b      	str	r3, [r7, #16]
  for(int i = 0; i < 4; i++){
 8001248:	2300      	movs	r3, #0
 800124a:	617b      	str	r3, [r7, #20]
 800124c:	e04f      	b.n	80012ee <UpdateMotorsFreq+0xba>
    freq = map_clamped(distances[i], 5.0, 300.0, 10.0, 1.0);
 800124e:	697b      	ldr	r3, [r7, #20]
 8001250:	009b      	lsls	r3, r3, #2
 8001252:	683a      	ldr	r2, [r7, #0]
 8001254:	4413      	add	r3, r2
 8001256:	edd3 7a00 	vldr	s15, [r3]
 800125a:	eeb7 2a00 	vmov.f32	s4, #112	; 0x3f800000  1.0
 800125e:	eef2 1a04 	vmov.f32	s3, #36	; 0x41200000  10.0
 8001262:	ed9f 1a27 	vldr	s2, [pc, #156]	; 8001300 <UpdateMotorsFreq+0xcc>
 8001266:	eef1 0a04 	vmov.f32	s1, #20	; 0x40a00000  5.0
 800126a:	eeb0 0a67 	vmov.f32	s0, s15
 800126e:	f7ff ff75 	bl	800115c <map_clamped>
 8001272:	ed87 0a04 	vstr	s0, [r7, #16]
    sprintf(buff, "DIST %d: %.2f\tFREQ %d: %.2f\n", i, distances[i], i, freq);
 8001276:	697b      	ldr	r3, [r7, #20]
 8001278:	009b      	lsls	r3, r3, #2
 800127a:	683a      	ldr	r2, [r7, #0]
 800127c:	4413      	add	r3, r2
 800127e:	681b      	ldr	r3, [r3, #0]
 8001280:	4618      	mov	r0, r3
 8001282:	f7ff f981 	bl	8000588 <__aeabi_f2d>
 8001286:	4604      	mov	r4, r0
 8001288:	460d      	mov	r5, r1
 800128a:	6938      	ldr	r0, [r7, #16]
 800128c:	f7ff f97c 	bl	8000588 <__aeabi_f2d>
 8001290:	4602      	mov	r2, r0
 8001292:	460b      	mov	r3, r1
 8001294:	e9cd 2304 	strd	r2, r3, [sp, #16]
 8001298:	697b      	ldr	r3, [r7, #20]
 800129a:	9302      	str	r3, [sp, #8]
 800129c:	e9cd 4500 	strd	r4, r5, [sp]
 80012a0:	697a      	ldr	r2, [r7, #20]
 80012a2:	4918      	ldr	r1, [pc, #96]	; (8001304 <UpdateMotorsFreq+0xd0>)
 80012a4:	4818      	ldr	r0, [pc, #96]	; (8001308 <UpdateMotorsFreq+0xd4>)
 80012a6:	f005 fa99 	bl	80067dc <siprintf>
    HAL_UART_Transmit(&huart2, buff, strlen(buff), 10000);
 80012aa:	4817      	ldr	r0, [pc, #92]	; (8001308 <UpdateMotorsFreq+0xd4>)
 80012ac:	f7fe ffb0 	bl	8000210 <strlen>
 80012b0:	4603      	mov	r3, r0
 80012b2:	b29a      	uxth	r2, r3
 80012b4:	f242 7310 	movw	r3, #10000	; 0x2710
 80012b8:	4913      	ldr	r1, [pc, #76]	; (8001308 <UpdateMotorsFreq+0xd4>)
 80012ba:	4814      	ldr	r0, [pc, #80]	; (800130c <UpdateMotorsFreq+0xd8>)
 80012bc:	f003 fe0f 	bl	8004ede <HAL_UART_Transmit>
    changeTimerFrequency(motors[i], motors_num[i], motors_channel[i], freq, 100);
 80012c0:	697b      	ldr	r3, [r7, #20]
 80012c2:	009b      	lsls	r3, r3, #2
 80012c4:	68fa      	ldr	r2, [r7, #12]
 80012c6:	4413      	add	r3, r2
 80012c8:	6818      	ldr	r0, [r3, #0]
 80012ca:	697b      	ldr	r3, [r7, #20]
 80012cc:	68ba      	ldr	r2, [r7, #8]
 80012ce:	4413      	add	r3, r2
 80012d0:	781b      	ldrb	r3, [r3, #0]
 80012d2:	4619      	mov	r1, r3
 80012d4:	697b      	ldr	r3, [r7, #20]
 80012d6:	687a      	ldr	r2, [r7, #4]
 80012d8:	4413      	add	r3, r2
 80012da:	781b      	ldrb	r3, [r3, #0]
 80012dc:	461a      	mov	r2, r3
 80012de:	2364      	movs	r3, #100	; 0x64
 80012e0:	ed97 0a04 	vldr	s0, [r7, #16]
 80012e4:	f7ff fe86 	bl	8000ff4 <changeTimerFrequency>
  for(int i = 0; i < 4; i++){
 80012e8:	697b      	ldr	r3, [r7, #20]
 80012ea:	3301      	adds	r3, #1
 80012ec:	617b      	str	r3, [r7, #20]
 80012ee:	697b      	ldr	r3, [r7, #20]
 80012f0:	2b03      	cmp	r3, #3
 80012f2:	ddac      	ble.n	800124e <UpdateMotorsFreq+0x1a>
  }
}
 80012f4:	bf00      	nop
 80012f6:	bf00      	nop
 80012f8:	3718      	adds	r7, #24
 80012fa:	46bd      	mov	sp, r7
 80012fc:	bdb0      	pop	{r4, r5, r7, pc}
 80012fe:	bf00      	nop
 8001300:	43960000 	.word	0x43960000
 8001304:	08008c88 	.word	0x08008c88
 8001308:	2000034c 	.word	0x2000034c
 800130c:	200004a4 	.word	0x200004a4

08001310 <main>:
/**
  * @brief  The application entry point.
  * @retval int
  */
int main(void)
{
 8001310:	b580      	push	{r7, lr}
 8001312:	af00      	add	r7, sp, #0
  /* USER CODE END 1 */

  /* MCU Configuration--------------------------------------------------------*/

  /* Reset of all peripherals, Initializes the Flash interface and the Systick. */
  HAL_Init();
 8001314:	f001 f8d0 	bl	80024b8 <HAL_Init>
  /* USER CODE BEGIN Init */

  /* USER CODE END Init */

  /* Configure the system clock */
  SystemClock_Config();
 8001318:	f000 f8d8 	bl	80014cc <SystemClock_Config>
  /* USER CODE BEGIN SysInit */

  /* USER CODE END SysInit */

  /* Initialize all configured peripherals */
  MX_GPIO_Init();
 800131c:	f000 fc60 	bl	8001be0 <MX_GPIO_Init>
  MX_USART2_UART_Init();
 8001320:	f000 fc34 	bl	8001b8c <MX_USART2_UART_Init>
  MX_TIM1_Init();
 8001324:	f000 f940 	bl	80015a8 <MX_TIM1_Init>
  MX_TIM3_Init();
 8001328:	f000 f9e0 	bl	80016ec <MX_TIM3_Init>
  MX_TIM4_Init();
 800132c:	f000 fa56 	bl	80017dc <MX_TIM4_Init>
  MX_TIM5_Init();
 8001330:	f000 facc 	bl	80018cc <MX_TIM5_Init>
  MX_TIM8_Init();
 8001334:	f000 fb24 	bl	8001980 <MX_TIM8_Init>
  MX_TIM12_Init();
 8001338:	f000 fbc4 	bl	8001ac4 <MX_TIM12_Init>
  /* USER CODE BEGIN 2 */
  HCSR04_Init(HCSR04_SENSOR1, &htim2);
 800133c:	4955      	ldr	r1, [pc, #340]	; (8001494 <main+0x184>)
 800133e:	2000      	movs	r0, #0
 8001340:	f004 f8be 	bl	80054c0 <HCSR04_Init>
  HCSR04_Init(HCSR04_SENSOR2, &htim2);
 8001344:	4953      	ldr	r1, [pc, #332]	; (8001494 <main+0x184>)
 8001346:	2001      	movs	r0, #1
 8001348:	f004 f8ba 	bl	80054c0 <HCSR04_Init>
  HCSR04_Init(HCSR04_SENSOR3, &htim2);
 800134c:	4951      	ldr	r1, [pc, #324]	; (8001494 <main+0x184>)
 800134e:	2002      	movs	r0, #2
 8001350:	f004 f8b6 	bl	80054c0 <HCSR04_Init>
  HCSR04_Init(HCSR04_SENSOR4, &htim2);
 8001354:	494f      	ldr	r1, [pc, #316]	; (8001494 <main+0x184>)
 8001356:	2003      	movs	r0, #3
 8001358:	f004 f8b2 	bl	80054c0 <HCSR04_Init>
  //START MOTOR TIMER 1,2,5,6 (middle 3 and 4 are not used)
  //1->TIM1, 2->TIM3, 3->TIM4, 4->TIM5, 5->TIM8, 6->TIM12
  HAL_TIM_PWM_Start(&htim1, TIM_CHANNEL_1);
 800135c:	2100      	movs	r1, #0
 800135e:	484e      	ldr	r0, [pc, #312]	; (8001498 <main+0x188>)
 8001360:	f002 fa7a 	bl	8003858 <HAL_TIM_PWM_Start>
  HAL_TIM_PWM_Start(&htim3, TIM_CHANNEL_1);
 8001364:	2100      	movs	r1, #0
 8001366:	484d      	ldr	r0, [pc, #308]	; (800149c <main+0x18c>)
 8001368:	f002 fa76 	bl	8003858 <HAL_TIM_PWM_Start>
  HAL_TIM_PWM_Start(&htim8, TIM_CHANNEL_1);
 800136c:	2100      	movs	r1, #0
 800136e:	484c      	ldr	r0, [pc, #304]	; (80014a0 <main+0x190>)
 8001370:	f002 fa72 	bl	8003858 <HAL_TIM_PWM_Start>
  HAL_TIM_PWM_Start(&htim12, TIM_CHANNEL_1);
 8001374:	2100      	movs	r1, #0
 8001376:	484b      	ldr	r0, [pc, #300]	; (80014a4 <main+0x194>)
 8001378:	f002 fa6e 	bl	8003858 <HAL_TIM_PWM_Start>
  while (1)
  {
    /* USER CODE END WHILE */

    /* USER CODE BEGIN 3 */
	  Distance1 = HCSR04_Read(HCSR04_SENSOR1);
 800137c:	2000      	movs	r0, #0
 800137e:	f004 fd0f 	bl	8005da0 <HCSR04_Read>
 8001382:	eef0 7a40 	vmov.f32	s15, s0
 8001386:	4b48      	ldr	r3, [pc, #288]	; (80014a8 <main+0x198>)
 8001388:	edc3 7a00 	vstr	s15, [r3]
	  Distance2 = HCSR04_Read(HCSR04_SENSOR2);
 800138c:	2001      	movs	r0, #1
 800138e:	f004 fd07 	bl	8005da0 <HCSR04_Read>
 8001392:	eef0 7a40 	vmov.f32	s15, s0
 8001396:	4b45      	ldr	r3, [pc, #276]	; (80014ac <main+0x19c>)
 8001398:	edc3 7a00 	vstr	s15, [r3]
	  Distance3 = HCSR04_Read(HCSR04_SENSOR3);
 800139c:	2002      	movs	r0, #2
 800139e:	f004 fcff 	bl	8005da0 <HCSR04_Read>
 80013a2:	eef0 7a40 	vmov.f32	s15, s0
 80013a6:	4b42      	ldr	r3, [pc, #264]	; (80014b0 <main+0x1a0>)
 80013a8:	edc3 7a00 	vstr	s15, [r3]
	  Distance4 = HCSR04_Read(HCSR04_SENSOR4);
 80013ac:	2003      	movs	r0, #3
 80013ae:	f004 fcf7 	bl	8005da0 <HCSR04_Read>
 80013b2:	eef0 7a40 	vmov.f32	s15, s0
 80013b6:	4b3f      	ldr	r3, [pc, #252]	; (80014b4 <main+0x1a4>)
 80013b8:	edc3 7a00 	vstr	s15, [r3]
    distances[0] = Distance1;
 80013bc:	4b3a      	ldr	r3, [pc, #232]	; (80014a8 <main+0x198>)
 80013be:	681b      	ldr	r3, [r3, #0]
 80013c0:	4a3d      	ldr	r2, [pc, #244]	; (80014b8 <main+0x1a8>)
 80013c2:	6013      	str	r3, [r2, #0]
    distances[1] = Distance2;
 80013c4:	4b39      	ldr	r3, [pc, #228]	; (80014ac <main+0x19c>)
 80013c6:	681b      	ldr	r3, [r3, #0]
 80013c8:	4a3b      	ldr	r2, [pc, #236]	; (80014b8 <main+0x1a8>)
 80013ca:	6053      	str	r3, [r2, #4]
    distances[2] = Distance3;
 80013cc:	4b38      	ldr	r3, [pc, #224]	; (80014b0 <main+0x1a0>)
 80013ce:	681b      	ldr	r3, [r3, #0]
 80013d0:	4a39      	ldr	r2, [pc, #228]	; (80014b8 <main+0x1a8>)
 80013d2:	6093      	str	r3, [r2, #8]
    distances[3] = Distance4;
 80013d4:	4b37      	ldr	r3, [pc, #220]	; (80014b4 <main+0x1a4>)
 80013d6:	681b      	ldr	r3, [r3, #0]
 80013d8:	4a37      	ldr	r2, [pc, #220]	; (80014b8 <main+0x1a8>)
 80013da:	60d3      	str	r3, [r2, #12]
	  sprintf(buff, "Dist= %.2f cm    ", Distance1);
 80013dc:	4b32      	ldr	r3, [pc, #200]	; (80014a8 <main+0x198>)
 80013de:	681b      	ldr	r3, [r3, #0]
 80013e0:	4618      	mov	r0, r3
 80013e2:	f7ff f8d1 	bl	8000588 <__aeabi_f2d>
 80013e6:	4602      	mov	r2, r0
 80013e8:	460b      	mov	r3, r1
 80013ea:	4934      	ldr	r1, [pc, #208]	; (80014bc <main+0x1ac>)
 80013ec:	4834      	ldr	r0, [pc, #208]	; (80014c0 <main+0x1b0>)
 80013ee:	f005 f9f5 	bl	80067dc <siprintf>
	  HAL_UART_Transmit(&huart2, buff, strlen(buff), 1000);
 80013f2:	4833      	ldr	r0, [pc, #204]	; (80014c0 <main+0x1b0>)
 80013f4:	f7fe ff0c 	bl	8000210 <strlen>
 80013f8:	4603      	mov	r3, r0
 80013fa:	b29a      	uxth	r2, r3
 80013fc:	f44f 737a 	mov.w	r3, #1000	; 0x3e8
 8001400:	492f      	ldr	r1, [pc, #188]	; (80014c0 <main+0x1b0>)
 8001402:	4830      	ldr	r0, [pc, #192]	; (80014c4 <main+0x1b4>)
 8001404:	f003 fd6b 	bl	8004ede <HAL_UART_Transmit>
	  sprintf(buff, "Dist= %.2f cm    ", Distance2);
 8001408:	4b28      	ldr	r3, [pc, #160]	; (80014ac <main+0x19c>)
 800140a:	681b      	ldr	r3, [r3, #0]
 800140c:	4618      	mov	r0, r3
 800140e:	f7ff f8bb 	bl	8000588 <__aeabi_f2d>
 8001412:	4602      	mov	r2, r0
 8001414:	460b      	mov	r3, r1
 8001416:	4929      	ldr	r1, [pc, #164]	; (80014bc <main+0x1ac>)
 8001418:	4829      	ldr	r0, [pc, #164]	; (80014c0 <main+0x1b0>)
 800141a:	f005 f9df 	bl	80067dc <siprintf>
	  HAL_UART_Transmit(&huart2, buff, strlen(buff), 1000);
 800141e:	4828      	ldr	r0, [pc, #160]	; (80014c0 <main+0x1b0>)
 8001420:	f7fe fef6 	bl	8000210 <strlen>
 8001424:	4603      	mov	r3, r0
 8001426:	b29a      	uxth	r2, r3
 8001428:	f44f 737a 	mov.w	r3, #1000	; 0x3e8
 800142c:	4924      	ldr	r1, [pc, #144]	; (80014c0 <main+0x1b0>)
 800142e:	4825      	ldr	r0, [pc, #148]	; (80014c4 <main+0x1b4>)
 8001430:	f003 fd55 	bl	8004ede <HAL_UART_Transmit>
	  sprintf(buff, "Dist= %.2f cm    ", Distance3);
 8001434:	4b1e      	ldr	r3, [pc, #120]	; (80014b0 <main+0x1a0>)
 8001436:	681b      	ldr	r3, [r3, #0]
 8001438:	4618      	mov	r0, r3
 800143a:	f7ff f8a5 	bl	8000588 <__aeabi_f2d>
 800143e:	4602      	mov	r2, r0
 8001440:	460b      	mov	r3, r1
 8001442:	491e      	ldr	r1, [pc, #120]	; (80014bc <main+0x1ac>)
 8001444:	481e      	ldr	r0, [pc, #120]	; (80014c0 <main+0x1b0>)
 8001446:	f005 f9c9 	bl	80067dc <siprintf>
	  HAL_UART_Transmit(&huart2, buff, strlen(buff), 1000);
 800144a:	481d      	ldr	r0, [pc, #116]	; (80014c0 <main+0x1b0>)
 800144c:	f7fe fee0 	bl	8000210 <strlen>
 8001450:	4603      	mov	r3, r0
 8001452:	b29a      	uxth	r2, r3
 8001454:	f44f 737a 	mov.w	r3, #1000	; 0x3e8
 8001458:	4919      	ldr	r1, [pc, #100]	; (80014c0 <main+0x1b0>)
 800145a:	481a      	ldr	r0, [pc, #104]	; (80014c4 <main+0x1b4>)
 800145c:	f003 fd3f 	bl	8004ede <HAL_UART_Transmit>
	  sprintf(buff, "Dist= %.2f cm\n", Distance4);
 8001460:	4b14      	ldr	r3, [pc, #80]	; (80014b4 <main+0x1a4>)
 8001462:	681b      	ldr	r3, [r3, #0]
 8001464:	4618      	mov	r0, r3
 8001466:	f7ff f88f 	bl	8000588 <__aeabi_f2d>
 800146a:	4602      	mov	r2, r0
 800146c:	460b      	mov	r3, r1
 800146e:	4916      	ldr	r1, [pc, #88]	; (80014c8 <main+0x1b8>)
 8001470:	4813      	ldr	r0, [pc, #76]	; (80014c0 <main+0x1b0>)
 8001472:	f005 f9b3 	bl	80067dc <siprintf>
	  HAL_UART_Transmit(&huart2, buff, strlen(buff), 1000);
 8001476:	4812      	ldr	r0, [pc, #72]	; (80014c0 <main+0x1b0>)
 8001478:	f7fe feca 	bl	8000210 <strlen>
 800147c:	4603      	mov	r3, r0
 800147e:	b29a      	uxth	r2, r3
 8001480:	f44f 737a 	mov.w	r3, #1000	; 0x3e8
 8001484:	490e      	ldr	r1, [pc, #56]	; (80014c0 <main+0x1b0>)
 8001486:	480f      	ldr	r0, [pc, #60]	; (80014c4 <main+0x1b4>)
 8001488:	f003 fd29 	bl	8004ede <HAL_UART_Transmit>
	  HAL_Delay(10);
 800148c:	200a      	movs	r0, #10
 800148e:	f001 f885 	bl	800259c <HAL_Delay>
  {
 8001492:	e773      	b.n	800137c <main+0x6c>
 8001494:	2000045c 	.word	0x2000045c
 8001498:	20000414 	.word	0x20000414
 800149c:	200003c8 	.word	0x200003c8
 80014a0:	200002bc 	.word	0x200002bc
 80014a4:	200004fc 	.word	0x200004fc
 80014a8:	20000210 	.word	0x20000210
 80014ac:	20000214 	.word	0x20000214
 80014b0:	20000218 	.word	0x20000218
 80014b4:	2000021c 	.word	0x2000021c
 80014b8:	200004e8 	.word	0x200004e8
 80014bc:	08008ca8 	.word	0x08008ca8
 80014c0:	2000034c 	.word	0x2000034c
 80014c4:	200004a4 	.word	0x200004a4
 80014c8:	08008cbc 	.word	0x08008cbc

080014cc <SystemClock_Config>:
/**
  * @brief System Clock Configuration
  * @retval None
  */
void SystemClock_Config(void)
{
 80014cc:	b580      	push	{r7, lr}
 80014ce:	b094      	sub	sp, #80	; 0x50
 80014d0:	af00      	add	r7, sp, #0
  RCC_OscInitTypeDef RCC_OscInitStruct = {0};
 80014d2:	f107 031c 	add.w	r3, r7, #28
 80014d6:	2234      	movs	r2, #52	; 0x34
 80014d8:	2100      	movs	r1, #0
 80014da:	4618      	mov	r0, r3
 80014dc:	f004 fd0c 	bl	8005ef8 <memset>
  RCC_ClkInitTypeDef RCC_ClkInitStruct = {0};
 80014e0:	f107 0308 	add.w	r3, r7, #8
 80014e4:	2200      	movs	r2, #0
 80014e6:	601a      	str	r2, [r3, #0]
 80014e8:	605a      	str	r2, [r3, #4]
 80014ea:	609a      	str	r2, [r3, #8]
 80014ec:	60da      	str	r2, [r3, #12]
 80014ee:	611a      	str	r2, [r3, #16]

  /** Configure the main internal regulator output voltage
  */
  __HAL_RCC_PWR_CLK_ENABLE();
 80014f0:	2300      	movs	r3, #0
 80014f2:	607b      	str	r3, [r7, #4]
 80014f4:	4b2a      	ldr	r3, [pc, #168]	; (80015a0 <SystemClock_Config+0xd4>)
 80014f6:	6c1b      	ldr	r3, [r3, #64]	; 0x40
 80014f8:	4a29      	ldr	r2, [pc, #164]	; (80015a0 <SystemClock_Config+0xd4>)
 80014fa:	f043 5380 	orr.w	r3, r3, #268435456	; 0x10000000
 80014fe:	6413      	str	r3, [r2, #64]	; 0x40
 8001500:	4b27      	ldr	r3, [pc, #156]	; (80015a0 <SystemClock_Config+0xd4>)
 8001502:	6c1b      	ldr	r3, [r3, #64]	; 0x40
 8001504:	f003 5380 	and.w	r3, r3, #268435456	; 0x10000000
 8001508:	607b      	str	r3, [r7, #4]
 800150a:	687b      	ldr	r3, [r7, #4]
  __HAL_PWR_VOLTAGESCALING_CONFIG(PWR_REGULATOR_VOLTAGE_SCALE3);
 800150c:	2300      	movs	r3, #0
 800150e:	603b      	str	r3, [r7, #0]
 8001510:	4b24      	ldr	r3, [pc, #144]	; (80015a4 <SystemClock_Config+0xd8>)
 8001512:	681b      	ldr	r3, [r3, #0]
 8001514:	f423 4340 	bic.w	r3, r3, #49152	; 0xc000
 8001518:	4a22      	ldr	r2, [pc, #136]	; (80015a4 <SystemClock_Config+0xd8>)
 800151a:	f443 4380 	orr.w	r3, r3, #16384	; 0x4000
 800151e:	6013      	str	r3, [r2, #0]
 8001520:	4b20      	ldr	r3, [pc, #128]	; (80015a4 <SystemClock_Config+0xd8>)
 8001522:	681b      	ldr	r3, [r3, #0]
 8001524:	f403 4340 	and.w	r3, r3, #49152	; 0xc000
 8001528:	603b      	str	r3, [r7, #0]
 800152a:	683b      	ldr	r3, [r7, #0]
  /** Initializes the RCC Oscillators according to the specified parameters
  * in the RCC_OscInitTypeDef structure.
  */
  RCC_OscInitStruct.OscillatorType = RCC_OSCILLATORTYPE_HSI;
 800152c:	2302      	movs	r3, #2
 800152e:	61fb      	str	r3, [r7, #28]
  RCC_OscInitStruct.HSIState = RCC_HSI_ON;
 8001530:	2301      	movs	r3, #1
 8001532:	62bb      	str	r3, [r7, #40]	; 0x28
  RCC_OscInitStruct.HSICalibrationValue = RCC_HSICALIBRATION_DEFAULT;
 8001534:	2310      	movs	r3, #16
 8001536:	62fb      	str	r3, [r7, #44]	; 0x2c
  RCC_OscInitStruct.PLL.PLLState = RCC_PLL_ON;
 8001538:	2302      	movs	r3, #2
 800153a:	637b      	str	r3, [r7, #52]	; 0x34
  RCC_OscInitStruct.PLL.PLLSource = RCC_PLLSOURCE_HSI;
 800153c:	2300      	movs	r3, #0
 800153e:	63bb      	str	r3, [r7, #56]	; 0x38
  RCC_OscInitStruct.PLL.PLLM = 16;
 8001540:	2310      	movs	r3, #16
 8001542:	63fb      	str	r3, [r7, #60]	; 0x3c
  RCC_OscInitStruct.PLL.PLLN = 336;
 8001544:	f44f 73a8 	mov.w	r3, #336	; 0x150
 8001548:	643b      	str	r3, [r7, #64]	; 0x40
  RCC_OscInitStruct.PLL.PLLP = RCC_PLLP_DIV4;
 800154a:	2304      	movs	r3, #4
 800154c:	647b      	str	r3, [r7, #68]	; 0x44
  RCC_OscInitStruct.PLL.PLLQ = 2;
 800154e:	2302      	movs	r3, #2
 8001550:	64bb      	str	r3, [r7, #72]	; 0x48
  RCC_OscInitStruct.PLL.PLLR = 2;
 8001552:	2302      	movs	r3, #2
 8001554:	64fb      	str	r3, [r7, #76]	; 0x4c
  if (HAL_RCC_OscConfig(&RCC_OscInitStruct) != HAL_OK)
 8001556:	f107 031c 	add.w	r3, r7, #28
 800155a:	4618      	mov	r0, r3
 800155c:	f001 fdce 	bl	80030fc <HAL_RCC_OscConfig>
 8001560:	4603      	mov	r3, r0
 8001562:	2b00      	cmp	r3, #0
 8001564:	d001      	beq.n	800156a <SystemClock_Config+0x9e>
  {
    Error_Handler();
 8001566:	f000 fbfb 	bl	8001d60 <Error_Handler>
  }
  /** Initializes the CPU, AHB and APB buses clocks
  */
  RCC_ClkInitStruct.ClockType = RCC_CLOCKTYPE_HCLK|RCC_CLOCKTYPE_SYSCLK
 800156a:	230f      	movs	r3, #15
 800156c:	60bb      	str	r3, [r7, #8]
                              |RCC_CLOCKTYPE_PCLK1|RCC_CLOCKTYPE_PCLK2;
  RCC_ClkInitStruct.SYSCLKSource = RCC_SYSCLKSOURCE_PLLCLK;
 800156e:	2302      	movs	r3, #2
 8001570:	60fb      	str	r3, [r7, #12]
  RCC_ClkInitStruct.AHBCLKDivider = RCC_SYSCLK_DIV1;
 8001572:	2300      	movs	r3, #0
 8001574:	613b      	str	r3, [r7, #16]
  RCC_ClkInitStruct.APB1CLKDivider = RCC_HCLK_DIV2;
 8001576:	f44f 5380 	mov.w	r3, #4096	; 0x1000
 800157a:	617b      	str	r3, [r7, #20]
  RCC_ClkInitStruct.APB2CLKDivider = RCC_HCLK_DIV1;
 800157c:	2300      	movs	r3, #0
 800157e:	61bb      	str	r3, [r7, #24]

  if (HAL_RCC_ClockConfig(&RCC_ClkInitStruct, FLASH_LATENCY_2) != HAL_OK)
 8001580:	f107 0308 	add.w	r3, r7, #8
 8001584:	2102      	movs	r1, #2
 8001586:	4618      	mov	r0, r3
 8001588:	f001 faec 	bl	8002b64 <HAL_RCC_ClockConfig>
 800158c:	4603      	mov	r3, r0
 800158e:	2b00      	cmp	r3, #0
 8001590:	d001      	beq.n	8001596 <SystemClock_Config+0xca>
  {
    Error_Handler();
 8001592:	f000 fbe5 	bl	8001d60 <Error_Handler>
  }
}
 8001596:	bf00      	nop
 8001598:	3750      	adds	r7, #80	; 0x50
 800159a:	46bd      	mov	sp, r7
 800159c:	bd80      	pop	{r7, pc}
 800159e:	bf00      	nop
 80015a0:	40023800 	.word	0x40023800
 80015a4:	40007000 	.word	0x40007000

080015a8 <MX_TIM1_Init>:
  * @brief TIM1 Initialization Function
  * @param None
  * @retval None
  */
static void MX_TIM1_Init(void)
{
 80015a8:	b580      	push	{r7, lr}
 80015aa:	b096      	sub	sp, #88	; 0x58
 80015ac:	af00      	add	r7, sp, #0

  /* USER CODE BEGIN TIM1_Init 0 */

  /* USER CODE END TIM1_Init 0 */

  TIM_ClockConfigTypeDef sClockSourceConfig = {0};
 80015ae:	f107 0348 	add.w	r3, r7, #72	; 0x48
 80015b2:	2200      	movs	r2, #0
 80015b4:	601a      	str	r2, [r3, #0]
 80015b6:	605a      	str	r2, [r3, #4]
 80015b8:	609a      	str	r2, [r3, #8]
 80015ba:	60da      	str	r2, [r3, #12]
  TIM_MasterConfigTypeDef sMasterConfig = {0};
 80015bc:	f107 0340 	add.w	r3, r7, #64	; 0x40
 80015c0:	2200      	movs	r2, #0
 80015c2:	601a      	str	r2, [r3, #0]
 80015c4:	605a      	str	r2, [r3, #4]
  TIM_OC_InitTypeDef sConfigOC = {0};
 80015c6:	f107 0324 	add.w	r3, r7, #36	; 0x24
 80015ca:	2200      	movs	r2, #0
 80015cc:	601a      	str	r2, [r3, #0]
 80015ce:	605a      	str	r2, [r3, #4]
 80015d0:	609a      	str	r2, [r3, #8]
 80015d2:	60da      	str	r2, [r3, #12]
 80015d4:	611a      	str	r2, [r3, #16]
 80015d6:	615a      	str	r2, [r3, #20]
 80015d8:	619a      	str	r2, [r3, #24]
  TIM_BreakDeadTimeConfigTypeDef sBreakDeadTimeConfig = {0};
 80015da:	1d3b      	adds	r3, r7, #4
 80015dc:	2220      	movs	r2, #32
 80015de:	2100      	movs	r1, #0
 80015e0:	4618      	mov	r0, r3
 80015e2:	f004 fc89 	bl	8005ef8 <memset>

  /* USER CODE BEGIN TIM1_Init 1 */

  /* USER CODE END TIM1_Init 1 */
  htim1.Instance = TIM1;
 80015e6:	4b3f      	ldr	r3, [pc, #252]	; (80016e4 <MX_TIM1_Init+0x13c>)
 80015e8:	4a3f      	ldr	r2, [pc, #252]	; (80016e8 <MX_TIM1_Init+0x140>)
 80015ea:	601a      	str	r2, [r3, #0]
  htim1.Init.Prescaler = 3000-1;
 80015ec:	4b3d      	ldr	r3, [pc, #244]	; (80016e4 <MX_TIM1_Init+0x13c>)
 80015ee:	f640 32b7 	movw	r2, #2999	; 0xbb7
 80015f2:	605a      	str	r2, [r3, #4]
  htim1.Init.CounterMode = TIM_COUNTERMODE_UP;
 80015f4:	4b3b      	ldr	r3, [pc, #236]	; (80016e4 <MX_TIM1_Init+0x13c>)
 80015f6:	2200      	movs	r2, #0
 80015f8:	609a      	str	r2, [r3, #8]
  htim1.Init.Period = 65535;
 80015fa:	4b3a      	ldr	r3, [pc, #232]	; (80016e4 <MX_TIM1_Init+0x13c>)
 80015fc:	f64f 72ff 	movw	r2, #65535	; 0xffff
 8001600:	60da      	str	r2, [r3, #12]
  htim1.Init.ClockDivision = TIM_CLOCKDIVISION_DIV1;
 8001602:	4b38      	ldr	r3, [pc, #224]	; (80016e4 <MX_TIM1_Init+0x13c>)
 8001604:	2200      	movs	r2, #0
 8001606:	611a      	str	r2, [r3, #16]
  htim1.Init.RepetitionCounter = 0;
 8001608:	4b36      	ldr	r3, [pc, #216]	; (80016e4 <MX_TIM1_Init+0x13c>)
 800160a:	2200      	movs	r2, #0
 800160c:	615a      	str	r2, [r3, #20]
  htim1.Init.AutoReloadPreload = TIM_AUTORELOAD_PRELOAD_ENABLE;
 800160e:	4b35      	ldr	r3, [pc, #212]	; (80016e4 <MX_TIM1_Init+0x13c>)
 8001610:	2280      	movs	r2, #128	; 0x80
 8001612:	619a      	str	r2, [r3, #24]
  if (HAL_TIM_Base_Init(&htim1) != HAL_OK)
 8001614:	4833      	ldr	r0, [pc, #204]	; (80016e4 <MX_TIM1_Init+0x13c>)
 8001616:	f002 f80f 	bl	8003638 <HAL_TIM_Base_Init>
 800161a:	4603      	mov	r3, r0
 800161c:	2b00      	cmp	r3, #0
 800161e:	d001      	beq.n	8001624 <MX_TIM1_Init+0x7c>
  {
    Error_Handler();
 8001620:	f000 fb9e 	bl	8001d60 <Error_Handler>
  }
  sClockSourceConfig.ClockSource = TIM_CLOCKSOURCE_INTERNAL;
 8001624:	f44f 5380 	mov.w	r3, #4096	; 0x1000
 8001628:	64bb      	str	r3, [r7, #72]	; 0x48
  if (HAL_TIM_ConfigClockSource(&htim1, &sClockSourceConfig) != HAL_OK)
 800162a:	f107 0348 	add.w	r3, r7, #72	; 0x48
 800162e:	4619      	mov	r1, r3
 8001630:	482c      	ldr	r0, [pc, #176]	; (80016e4 <MX_TIM1_Init+0x13c>)
 8001632:	f002 fdc1 	bl	80041b8 <HAL_TIM_ConfigClockSource>
 8001636:	4603      	mov	r3, r0
 8001638:	2b00      	cmp	r3, #0
 800163a:	d001      	beq.n	8001640 <MX_TIM1_Init+0x98>
  {
    Error_Handler();
 800163c:	f000 fb90 	bl	8001d60 <Error_Handler>
  }
  if (HAL_TIM_PWM_Init(&htim1) != HAL_OK)
 8001640:	4828      	ldr	r0, [pc, #160]	; (80016e4 <MX_TIM1_Init+0x13c>)
 8001642:	f002 f8b9 	bl	80037b8 <HAL_TIM_PWM_Init>
 8001646:	4603      	mov	r3, r0
 8001648:	2b00      	cmp	r3, #0
 800164a:	d001      	beq.n	8001650 <MX_TIM1_Init+0xa8>
  {
    Error_Handler();
 800164c:	f000 fb88 	bl	8001d60 <Error_Handler>
  }
  sMasterConfig.MasterOutputTrigger = TIM_TRGO_RESET;
 8001650:	2300      	movs	r3, #0
 8001652:	643b      	str	r3, [r7, #64]	; 0x40
  sMasterConfig.MasterSlaveMode = TIM_MASTERSLAVEMODE_DISABLE;
 8001654:	2300      	movs	r3, #0
 8001656:	647b      	str	r3, [r7, #68]	; 0x44
  if (HAL_TIMEx_MasterConfigSynchronization(&htim1, &sMasterConfig) != HAL_OK)
 8001658:	f107 0340 	add.w	r3, r7, #64	; 0x40
 800165c:	4619      	mov	r1, r3
 800165e:	4821      	ldr	r0, [pc, #132]	; (80016e4 <MX_TIM1_Init+0x13c>)
 8001660:	f003 fb0e 	bl	8004c80 <HAL_TIMEx_MasterConfigSynchronization>
 8001664:	4603      	mov	r3, r0
 8001666:	2b00      	cmp	r3, #0
 8001668:	d001      	beq.n	800166e <MX_TIM1_Init+0xc6>
  {
    Error_Handler();
 800166a:	f000 fb79 	bl	8001d60 <Error_Handler>
  }
  sConfigOC.OCMode = TIM_OCMODE_PWM1;
 800166e:	2360      	movs	r3, #96	; 0x60
 8001670:	627b      	str	r3, [r7, #36]	; 0x24
  sConfigOC.Pulse = 100;
 8001672:	2364      	movs	r3, #100	; 0x64
 8001674:	62bb      	str	r3, [r7, #40]	; 0x28
  sConfigOC.OCPolarity = TIM_OCPOLARITY_HIGH;
 8001676:	2300      	movs	r3, #0
 8001678:	62fb      	str	r3, [r7, #44]	; 0x2c
  sConfigOC.OCNPolarity = TIM_OCNPOLARITY_HIGH;
 800167a:	2300      	movs	r3, #0
 800167c:	633b      	str	r3, [r7, #48]	; 0x30
  sConfigOC.OCFastMode = TIM_OCFAST_DISABLE;
 800167e:	2300      	movs	r3, #0
 8001680:	637b      	str	r3, [r7, #52]	; 0x34
  sConfigOC.OCIdleState = TIM_OCIDLESTATE_RESET;
 8001682:	2300      	movs	r3, #0
 8001684:	63bb      	str	r3, [r7, #56]	; 0x38
  sConfigOC.OCNIdleState = TIM_OCNIDLESTATE_RESET;
 8001686:	2300      	movs	r3, #0
 8001688:	63fb      	str	r3, [r7, #60]	; 0x3c
  if (HAL_TIM_PWM_ConfigChannel(&htim1, &sConfigOC, TIM_CHANNEL_1) != HAL_OK)
 800168a:	f107 0324 	add.w	r3, r7, #36	; 0x24
 800168e:	2200      	movs	r2, #0
 8001690:	4619      	mov	r1, r3
 8001692:	4814      	ldr	r0, [pc, #80]	; (80016e4 <MX_TIM1_Init+0x13c>)
 8001694:	f002 fcce 	bl	8004034 <HAL_TIM_PWM_ConfigChannel>
 8001698:	4603      	mov	r3, r0
 800169a:	2b00      	cmp	r3, #0
 800169c:	d001      	beq.n	80016a2 <MX_TIM1_Init+0xfa>
  {
    Error_Handler();
 800169e:	f000 fb5f 	bl	8001d60 <Error_Handler>
  }
  sBreakDeadTimeConfig.OffStateRunMode = TIM_OSSR_DISABLE;
 80016a2:	2300      	movs	r3, #0
 80016a4:	607b      	str	r3, [r7, #4]
  sBreakDeadTimeConfig.OffStateIDLEMode = TIM_OSSI_DISABLE;
 80016a6:	2300      	movs	r3, #0
 80016a8:	60bb      	str	r3, [r7, #8]
  sBreakDeadTimeConfig.LockLevel = TIM_LOCKLEVEL_OFF;
 80016aa:	2300      	movs	r3, #0
 80016ac:	60fb      	str	r3, [r7, #12]
  sBreakDeadTimeConfig.DeadTime = 0;
 80016ae:	2300      	movs	r3, #0
 80016b0:	613b      	str	r3, [r7, #16]
  sBreakDeadTimeConfig.BreakState = TIM_BREAK_DISABLE;
 80016b2:	2300      	movs	r3, #0
 80016b4:	617b      	str	r3, [r7, #20]
  sBreakDeadTimeConfig.BreakPolarity = TIM_BREAKPOLARITY_HIGH;
 80016b6:	f44f 5300 	mov.w	r3, #8192	; 0x2000
 80016ba:	61bb      	str	r3, [r7, #24]
  sBreakDeadTimeConfig.AutomaticOutput = TIM_AUTOMATICOUTPUT_DISABLE;
 80016bc:	2300      	movs	r3, #0
 80016be:	623b      	str	r3, [r7, #32]
  if (HAL_TIMEx_ConfigBreakDeadTime(&htim1, &sBreakDeadTimeConfig) != HAL_OK)
 80016c0:	1d3b      	adds	r3, r7, #4
 80016c2:	4619      	mov	r1, r3
 80016c4:	4807      	ldr	r0, [pc, #28]	; (80016e4 <MX_TIM1_Init+0x13c>)
 80016c6:	f003 fb57 	bl	8004d78 <HAL_TIMEx_ConfigBreakDeadTime>
 80016ca:	4603      	mov	r3, r0
 80016cc:	2b00      	cmp	r3, #0
 80016ce:	d001      	beq.n	80016d4 <MX_TIM1_Init+0x12c>
  {
    Error_Handler();
 80016d0:	f000 fb46 	bl	8001d60 <Error_Handler>
  }
  /* USER CODE BEGIN TIM1_Init 2 */

  /* USER CODE END TIM1_Init 2 */
  HAL_TIM_MspPostInit(&htim1);
 80016d4:	4803      	ldr	r0, [pc, #12]	; (80016e4 <MX_TIM1_Init+0x13c>)
 80016d6:	f000 fc71 	bl	8001fbc <HAL_TIM_MspPostInit>

}
 80016da:	bf00      	nop
 80016dc:	3758      	adds	r7, #88	; 0x58
 80016de:	46bd      	mov	sp, r7
 80016e0:	bd80      	pop	{r7, pc}
 80016e2:	bf00      	nop
 80016e4:	20000414 	.word	0x20000414
 80016e8:	40010000 	.word	0x40010000

080016ec <MX_TIM3_Init>:
  * @brief TIM3 Initialization Function
  * @param None
  * @retval None
  */
static void MX_TIM3_Init(void)
{
 80016ec:	b580      	push	{r7, lr}
 80016ee:	b08e      	sub	sp, #56	; 0x38
 80016f0:	af00      	add	r7, sp, #0

  /* USER CODE BEGIN TIM3_Init 0 */

  /* USER CODE END TIM3_Init 0 */

  TIM_ClockConfigTypeDef sClockSourceConfig = {0};
 80016f2:	f107 0328 	add.w	r3, r7, #40	; 0x28
 80016f6:	2200      	movs	r2, #0
 80016f8:	601a      	str	r2, [r3, #0]
 80016fa:	605a      	str	r2, [r3, #4]
 80016fc:	609a      	str	r2, [r3, #8]
 80016fe:	60da      	str	r2, [r3, #12]
  TIM_MasterConfigTypeDef sMasterConfig = {0};
 8001700:	f107 0320 	add.w	r3, r7, #32
 8001704:	2200      	movs	r2, #0
 8001706:	601a      	str	r2, [r3, #0]
 8001708:	605a      	str	r2, [r3, #4]
  TIM_OC_InitTypeDef sConfigOC = {0};
 800170a:	1d3b      	adds	r3, r7, #4
 800170c:	2200      	movs	r2, #0
 800170e:	601a      	str	r2, [r3, #0]
 8001710:	605a      	str	r2, [r3, #4]
 8001712:	609a      	str	r2, [r3, #8]
 8001714:	60da      	str	r2, [r3, #12]
 8001716:	611a      	str	r2, [r3, #16]
 8001718:	615a      	str	r2, [r3, #20]
 800171a:	619a      	str	r2, [r3, #24]

  /* USER CODE BEGIN TIM3_Init 1 */

  /* USER CODE END TIM3_Init 1 */
  htim3.Instance = TIM3;
 800171c:	4b2d      	ldr	r3, [pc, #180]	; (80017d4 <MX_TIM3_Init+0xe8>)
 800171e:	4a2e      	ldr	r2, [pc, #184]	; (80017d8 <MX_TIM3_Init+0xec>)
 8001720:	601a      	str	r2, [r3, #0]
  htim3.Init.Prescaler = 3000-1;
 8001722:	4b2c      	ldr	r3, [pc, #176]	; (80017d4 <MX_TIM3_Init+0xe8>)
 8001724:	f640 32b7 	movw	r2, #2999	; 0xbb7
 8001728:	605a      	str	r2, [r3, #4]
  htim3.Init.CounterMode = TIM_COUNTERMODE_UP;
 800172a:	4b2a      	ldr	r3, [pc, #168]	; (80017d4 <MX_TIM3_Init+0xe8>)
 800172c:	2200      	movs	r2, #0
 800172e:	609a      	str	r2, [r3, #8]
  htim3.Init.Period = 65535;
 8001730:	4b28      	ldr	r3, [pc, #160]	; (80017d4 <MX_TIM3_Init+0xe8>)
 8001732:	f64f 72ff 	movw	r2, #65535	; 0xffff
 8001736:	60da      	str	r2, [r3, #12]
  htim3.Init.ClockDivision = TIM_CLOCKDIVISION_DIV1;
 8001738:	4b26      	ldr	r3, [pc, #152]	; (80017d4 <MX_TIM3_Init+0xe8>)
 800173a:	2200      	movs	r2, #0
 800173c:	611a      	str	r2, [r3, #16]
  htim3.Init.AutoReloadPreload = TIM_AUTORELOAD_PRELOAD_DISABLE;
 800173e:	4b25      	ldr	r3, [pc, #148]	; (80017d4 <MX_TIM3_Init+0xe8>)
 8001740:	2200      	movs	r2, #0
 8001742:	619a      	str	r2, [r3, #24]
  if (HAL_TIM_Base_Init(&htim3) != HAL_OK)
 8001744:	4823      	ldr	r0, [pc, #140]	; (80017d4 <MX_TIM3_Init+0xe8>)
 8001746:	f001 ff77 	bl	8003638 <HAL_TIM_Base_Init>
 800174a:	4603      	mov	r3, r0
 800174c:	2b00      	cmp	r3, #0
 800174e:	d001      	beq.n	8001754 <MX_TIM3_Init+0x68>
  {
    Error_Handler();
 8001750:	f000 fb06 	bl	8001d60 <Error_Handler>
  }
  sClockSourceConfig.ClockSource = TIM_CLOCKSOURCE_INTERNAL;
 8001754:	f44f 5380 	mov.w	r3, #4096	; 0x1000
 8001758:	62bb      	str	r3, [r7, #40]	; 0x28
  if (HAL_TIM_ConfigClockSource(&htim3, &sClockSourceConfig) != HAL_OK)
 800175a:	f107 0328 	add.w	r3, r7, #40	; 0x28
 800175e:	4619      	mov	r1, r3
 8001760:	481c      	ldr	r0, [pc, #112]	; (80017d4 <MX_TIM3_Init+0xe8>)
 8001762:	f002 fd29 	bl	80041b8 <HAL_TIM_ConfigClockSource>
 8001766:	4603      	mov	r3, r0
 8001768:	2b00      	cmp	r3, #0
 800176a:	d001      	beq.n	8001770 <MX_TIM3_Init+0x84>
  {
    Error_Handler();
 800176c:	f000 faf8 	bl	8001d60 <Error_Handler>
  }
  if (HAL_TIM_PWM_Init(&htim3) != HAL_OK)
 8001770:	4818      	ldr	r0, [pc, #96]	; (80017d4 <MX_TIM3_Init+0xe8>)
 8001772:	f002 f821 	bl	80037b8 <HAL_TIM_PWM_Init>
 8001776:	4603      	mov	r3, r0
 8001778:	2b00      	cmp	r3, #0
 800177a:	d001      	beq.n	8001780 <MX_TIM3_Init+0x94>
  {
    Error_Handler();
 800177c:	f000 faf0 	bl	8001d60 <Error_Handler>
  }
  sMasterConfig.MasterOutputTrigger = TIM_TRGO_RESET;
 8001780:	2300      	movs	r3, #0
 8001782:	623b      	str	r3, [r7, #32]
  sMasterConfig.MasterSlaveMode = TIM_MASTERSLAVEMODE_DISABLE;
 8001784:	2300      	movs	r3, #0
 8001786:	627b      	str	r3, [r7, #36]	; 0x24
  if (HAL_TIMEx_MasterConfigSynchronization(&htim3, &sMasterConfig) != HAL_OK)
 8001788:	f107 0320 	add.w	r3, r7, #32
 800178c:	4619      	mov	r1, r3
 800178e:	4811      	ldr	r0, [pc, #68]	; (80017d4 <MX_TIM3_Init+0xe8>)
 8001790:	f003 fa76 	bl	8004c80 <HAL_TIMEx_MasterConfigSynchronization>
 8001794:	4603      	mov	r3, r0
 8001796:	2b00      	cmp	r3, #0
 8001798:	d001      	beq.n	800179e <MX_TIM3_Init+0xb2>
  {
    Error_Handler();
 800179a:	f000 fae1 	bl	8001d60 <Error_Handler>
  }
  sConfigOC.OCMode = TIM_OCMODE_PWM1;
 800179e:	2360      	movs	r3, #96	; 0x60
 80017a0:	607b      	str	r3, [r7, #4]
  sConfigOC.Pulse = 100;
 80017a2:	2364      	movs	r3, #100	; 0x64
 80017a4:	60bb      	str	r3, [r7, #8]
  sConfigOC.OCPolarity = TIM_OCPOLARITY_HIGH;
 80017a6:	2300      	movs	r3, #0
 80017a8:	60fb      	str	r3, [r7, #12]
  sConfigOC.OCFastMode = TIM_OCFAST_DISABLE;
 80017aa:	2300      	movs	r3, #0
 80017ac:	617b      	str	r3, [r7, #20]
  if (HAL_TIM_PWM_ConfigChannel(&htim3, &sConfigOC, TIM_CHANNEL_1) != HAL_OK)
 80017ae:	1d3b      	adds	r3, r7, #4
 80017b0:	2200      	movs	r2, #0
 80017b2:	4619      	mov	r1, r3
 80017b4:	4807      	ldr	r0, [pc, #28]	; (80017d4 <MX_TIM3_Init+0xe8>)
 80017b6:	f002 fc3d 	bl	8004034 <HAL_TIM_PWM_ConfigChannel>
 80017ba:	4603      	mov	r3, r0
 80017bc:	2b00      	cmp	r3, #0
 80017be:	d001      	beq.n	80017c4 <MX_TIM3_Init+0xd8>
  {
    Error_Handler();
 80017c0:	f000 face 	bl	8001d60 <Error_Handler>
  }
  /* USER CODE BEGIN TIM3_Init 2 */

  /* USER CODE END TIM3_Init 2 */
  HAL_TIM_MspPostInit(&htim3);
 80017c4:	4803      	ldr	r0, [pc, #12]	; (80017d4 <MX_TIM3_Init+0xe8>)
 80017c6:	f000 fbf9 	bl	8001fbc <HAL_TIM_MspPostInit>

}
 80017ca:	bf00      	nop
 80017cc:	3738      	adds	r7, #56	; 0x38
 80017ce:	46bd      	mov	sp, r7
 80017d0:	bd80      	pop	{r7, pc}
 80017d2:	bf00      	nop
 80017d4:	200003c8 	.word	0x200003c8
 80017d8:	40000400 	.word	0x40000400

080017dc <MX_TIM4_Init>:
  * @brief TIM4 Initialization Function
  * @param None
  * @retval None
  */
static void MX_TIM4_Init(void)
{
 80017dc:	b580      	push	{r7, lr}
 80017de:	b08e      	sub	sp, #56	; 0x38
 80017e0:	af00      	add	r7, sp, #0

  /* USER CODE BEGIN TIM4_Init 0 */

  /* USER CODE END TIM4_Init 0 */

  TIM_ClockConfigTypeDef sClockSourceConfig = {0};
 80017e2:	f107 0328 	add.w	r3, r7, #40	; 0x28
 80017e6:	2200      	movs	r2, #0
 80017e8:	601a      	str	r2, [r3, #0]
 80017ea:	605a      	str	r2, [r3, #4]
 80017ec:	609a      	str	r2, [r3, #8]
 80017ee:	60da      	str	r2, [r3, #12]
  TIM_MasterConfigTypeDef sMasterConfig = {0};
 80017f0:	f107 0320 	add.w	r3, r7, #32
 80017f4:	2200      	movs	r2, #0
 80017f6:	601a      	str	r2, [r3, #0]
 80017f8:	605a      	str	r2, [r3, #4]
  TIM_OC_InitTypeDef sConfigOC = {0};
 80017fa:	1d3b      	adds	r3, r7, #4
 80017fc:	2200      	movs	r2, #0
 80017fe:	601a      	str	r2, [r3, #0]
 8001800:	605a      	str	r2, [r3, #4]
 8001802:	609a      	str	r2, [r3, #8]
 8001804:	60da      	str	r2, [r3, #12]
 8001806:	611a      	str	r2, [r3, #16]
 8001808:	615a      	str	r2, [r3, #20]
 800180a:	619a      	str	r2, [r3, #24]

  /* USER CODE BEGIN TIM4_Init 1 */

  /* USER CODE END TIM4_Init 1 */
  htim4.Instance = TIM4;
 800180c:	4b2d      	ldr	r3, [pc, #180]	; (80018c4 <MX_TIM4_Init+0xe8>)
 800180e:	4a2e      	ldr	r2, [pc, #184]	; (80018c8 <MX_TIM4_Init+0xec>)
 8001810:	601a      	str	r2, [r3, #0]
  htim4.Init.Prescaler = 3000-1;
 8001812:	4b2c      	ldr	r3, [pc, #176]	; (80018c4 <MX_TIM4_Init+0xe8>)
 8001814:	f640 32b7 	movw	r2, #2999	; 0xbb7
 8001818:	605a      	str	r2, [r3, #4]
  htim4.Init.CounterMode = TIM_COUNTERMODE_UP;
 800181a:	4b2a      	ldr	r3, [pc, #168]	; (80018c4 <MX_TIM4_Init+0xe8>)
 800181c:	2200      	movs	r2, #0
 800181e:	609a      	str	r2, [r3, #8]
  htim4.Init.Period = 65535;
 8001820:	4b28      	ldr	r3, [pc, #160]	; (80018c4 <MX_TIM4_Init+0xe8>)
 8001822:	f64f 72ff 	movw	r2, #65535	; 0xffff
 8001826:	60da      	str	r2, [r3, #12]
  htim4.Init.ClockDivision = TIM_CLOCKDIVISION_DIV1;
 8001828:	4b26      	ldr	r3, [pc, #152]	; (80018c4 <MX_TIM4_Init+0xe8>)
 800182a:	2200      	movs	r2, #0
 800182c:	611a      	str	r2, [r3, #16]
  htim4.Init.AutoReloadPreload = TIM_AUTORELOAD_PRELOAD_DISABLE;
 800182e:	4b25      	ldr	r3, [pc, #148]	; (80018c4 <MX_TIM4_Init+0xe8>)
 8001830:	2200      	movs	r2, #0
 8001832:	619a      	str	r2, [r3, #24]
  if (HAL_TIM_Base_Init(&htim4) != HAL_OK)
 8001834:	4823      	ldr	r0, [pc, #140]	; (80018c4 <MX_TIM4_Init+0xe8>)
 8001836:	f001 feff 	bl	8003638 <HAL_TIM_Base_Init>
 800183a:	4603      	mov	r3, r0
 800183c:	2b00      	cmp	r3, #0
 800183e:	d001      	beq.n	8001844 <MX_TIM4_Init+0x68>
  {
    Error_Handler();
 8001840:	f000 fa8e 	bl	8001d60 <Error_Handler>
  }
  sClockSourceConfig.ClockSource = TIM_CLOCKSOURCE_INTERNAL;
 8001844:	f44f 5380 	mov.w	r3, #4096	; 0x1000
 8001848:	62bb      	str	r3, [r7, #40]	; 0x28
  if (HAL_TIM_ConfigClockSource(&htim4, &sClockSourceConfig) != HAL_OK)
 800184a:	f107 0328 	add.w	r3, r7, #40	; 0x28
 800184e:	4619      	mov	r1, r3
 8001850:	481c      	ldr	r0, [pc, #112]	; (80018c4 <MX_TIM4_Init+0xe8>)
 8001852:	f002 fcb1 	bl	80041b8 <HAL_TIM_ConfigClockSource>
 8001856:	4603      	mov	r3, r0
 8001858:	2b00      	cmp	r3, #0
 800185a:	d001      	beq.n	8001860 <MX_TIM4_Init+0x84>
  {
    Error_Handler();
 800185c:	f000 fa80 	bl	8001d60 <Error_Handler>
  }
  if (HAL_TIM_PWM_Init(&htim4) != HAL_OK)
 8001860:	4818      	ldr	r0, [pc, #96]	; (80018c4 <MX_TIM4_Init+0xe8>)
 8001862:	f001 ffa9 	bl	80037b8 <HAL_TIM_PWM_Init>
 8001866:	4603      	mov	r3, r0
 8001868:	2b00      	cmp	r3, #0
 800186a:	d001      	beq.n	8001870 <MX_TIM4_Init+0x94>
  {
    Error_Handler();
 800186c:	f000 fa78 	bl	8001d60 <Error_Handler>
  }
  sMasterConfig.MasterOutputTrigger = TIM_TRGO_RESET;
 8001870:	2300      	movs	r3, #0
 8001872:	623b      	str	r3, [r7, #32]
  sMasterConfig.MasterSlaveMode = TIM_MASTERSLAVEMODE_DISABLE;
 8001874:	2300      	movs	r3, #0
 8001876:	627b      	str	r3, [r7, #36]	; 0x24
  if (HAL_TIMEx_MasterConfigSynchronization(&htim4, &sMasterConfig) != HAL_OK)
 8001878:	f107 0320 	add.w	r3, r7, #32
 800187c:	4619      	mov	r1, r3
 800187e:	4811      	ldr	r0, [pc, #68]	; (80018c4 <MX_TIM4_Init+0xe8>)
 8001880:	f003 f9fe 	bl	8004c80 <HAL_TIMEx_MasterConfigSynchronization>
 8001884:	4603      	mov	r3, r0
 8001886:	2b00      	cmp	r3, #0
 8001888:	d001      	beq.n	800188e <MX_TIM4_Init+0xb2>
  {
    Error_Handler();
 800188a:	f000 fa69 	bl	8001d60 <Error_Handler>
  }
  sConfigOC.OCMode = TIM_OCMODE_PWM1;
 800188e:	2360      	movs	r3, #96	; 0x60
 8001890:	607b      	str	r3, [r7, #4]
  sConfigOC.Pulse = 100;
 8001892:	2364      	movs	r3, #100	; 0x64
 8001894:	60bb      	str	r3, [r7, #8]
  sConfigOC.OCPolarity = TIM_OCPOLARITY_HIGH;
 8001896:	2300      	movs	r3, #0
 8001898:	60fb      	str	r3, [r7, #12]
  sConfigOC.OCFastMode = TIM_OCFAST_DISABLE;
 800189a:	2300      	movs	r3, #0
 800189c:	617b      	str	r3, [r7, #20]
  if (HAL_TIM_PWM_ConfigChannel(&htim4, &sConfigOC, TIM_CHANNEL_1) != HAL_OK)
 800189e:	1d3b      	adds	r3, r7, #4
 80018a0:	2200      	movs	r2, #0
 80018a2:	4619      	mov	r1, r3
 80018a4:	4807      	ldr	r0, [pc, #28]	; (80018c4 <MX_TIM4_Init+0xe8>)
 80018a6:	f002 fbc5 	bl	8004034 <HAL_TIM_PWM_ConfigChannel>
 80018aa:	4603      	mov	r3, r0
 80018ac:	2b00      	cmp	r3, #0
 80018ae:	d001      	beq.n	80018b4 <MX_TIM4_Init+0xd8>
  {
    Error_Handler();
 80018b0:	f000 fa56 	bl	8001d60 <Error_Handler>
  }
  /* USER CODE BEGIN TIM4_Init 2 */

  /* USER CODE END TIM4_Init 2 */
  HAL_TIM_MspPostInit(&htim4);
 80018b4:	4803      	ldr	r0, [pc, #12]	; (80018c4 <MX_TIM4_Init+0xe8>)
 80018b6:	f000 fb81 	bl	8001fbc <HAL_TIM_MspPostInit>

}
 80018ba:	bf00      	nop
 80018bc:	3738      	adds	r7, #56	; 0x38
 80018be:	46bd      	mov	sp, r7
 80018c0:	bd80      	pop	{r7, pc}
 80018c2:	bf00      	nop
 80018c4:	20000304 	.word	0x20000304
 80018c8:	40000800 	.word	0x40000800

080018cc <MX_TIM5_Init>:
  * @brief TIM5 Initialization Function
  * @param None
  * @retval None
  */
static void MX_TIM5_Init(void)
{
 80018cc:	b580      	push	{r7, lr}
 80018ce:	b08a      	sub	sp, #40	; 0x28
 80018d0:	af00      	add	r7, sp, #0

  /* USER CODE BEGIN TIM5_Init 0 */

  /* USER CODE END TIM5_Init 0 */

  TIM_MasterConfigTypeDef sMasterConfig = {0};
 80018d2:	f107 0320 	add.w	r3, r7, #32
 80018d6:	2200      	movs	r2, #0
 80018d8:	601a      	str	r2, [r3, #0]
 80018da:	605a      	str	r2, [r3, #4]
  TIM_OC_InitTypeDef sConfigOC = {0};
 80018dc:	1d3b      	adds	r3, r7, #4
 80018de:	2200      	movs	r2, #0
 80018e0:	601a      	str	r2, [r3, #0]
 80018e2:	605a      	str	r2, [r3, #4]
 80018e4:	609a      	str	r2, [r3, #8]
 80018e6:	60da      	str	r2, [r3, #12]
 80018e8:	611a      	str	r2, [r3, #16]
 80018ea:	615a      	str	r2, [r3, #20]
 80018ec:	619a      	str	r2, [r3, #24]

  /* USER CODE BEGIN TIM5_Init 1 */

  /* USER CODE END TIM5_Init 1 */
  htim5.Instance = TIM5;
 80018ee:	4b22      	ldr	r3, [pc, #136]	; (8001978 <MX_TIM5_Init+0xac>)
 80018f0:	4a22      	ldr	r2, [pc, #136]	; (800197c <MX_TIM5_Init+0xb0>)
 80018f2:	601a      	str	r2, [r3, #0]
  htim5.Init.Prescaler = 3000-1;
 80018f4:	4b20      	ldr	r3, [pc, #128]	; (8001978 <MX_TIM5_Init+0xac>)
 80018f6:	f640 32b7 	movw	r2, #2999	; 0xbb7
 80018fa:	605a      	str	r2, [r3, #4]
  htim5.Init.CounterMode = TIM_COUNTERMODE_UP;
 80018fc:	4b1e      	ldr	r3, [pc, #120]	; (8001978 <MX_TIM5_Init+0xac>)
 80018fe:	2200      	movs	r2, #0
 8001900:	609a      	str	r2, [r3, #8]
  htim5.Init.Period = 4294967295;
 8001902:	4b1d      	ldr	r3, [pc, #116]	; (8001978 <MX_TIM5_Init+0xac>)
 8001904:	f04f 32ff 	mov.w	r2, #4294967295	; 0xffffffff
 8001908:	60da      	str	r2, [r3, #12]
  htim5.Init.ClockDivision = TIM_CLOCKDIVISION_DIV1;
 800190a:	4b1b      	ldr	r3, [pc, #108]	; (8001978 <MX_TIM5_Init+0xac>)
 800190c:	2200      	movs	r2, #0
 800190e:	611a      	str	r2, [r3, #16]
  htim5.Init.AutoReloadPreload = TIM_AUTORELOAD_PRELOAD_DISABLE;
 8001910:	4b19      	ldr	r3, [pc, #100]	; (8001978 <MX_TIM5_Init+0xac>)
 8001912:	2200      	movs	r2, #0
 8001914:	619a      	str	r2, [r3, #24]
  if (HAL_TIM_PWM_Init(&htim5) != HAL_OK)
 8001916:	4818      	ldr	r0, [pc, #96]	; (8001978 <MX_TIM5_Init+0xac>)
 8001918:	f001 ff4e 	bl	80037b8 <HAL_TIM_PWM_Init>
 800191c:	4603      	mov	r3, r0
 800191e:	2b00      	cmp	r3, #0
 8001920:	d001      	beq.n	8001926 <MX_TIM5_Init+0x5a>
  {
    Error_Handler();
 8001922:	f000 fa1d 	bl	8001d60 <Error_Handler>
  }
  sMasterConfig.MasterOutputTrigger = TIM_TRGO_RESET;
 8001926:	2300      	movs	r3, #0
 8001928:	623b      	str	r3, [r7, #32]
  sMasterConfig.MasterSlaveMode = TIM_MASTERSLAVEMODE_DISABLE;
 800192a:	2300      	movs	r3, #0
 800192c:	627b      	str	r3, [r7, #36]	; 0x24
  if (HAL_TIMEx_MasterConfigSynchronization(&htim5, &sMasterConfig) != HAL_OK)
 800192e:	f107 0320 	add.w	r3, r7, #32
 8001932:	4619      	mov	r1, r3
 8001934:	4810      	ldr	r0, [pc, #64]	; (8001978 <MX_TIM5_Init+0xac>)
 8001936:	f003 f9a3 	bl	8004c80 <HAL_TIMEx_MasterConfigSynchronization>
 800193a:	4603      	mov	r3, r0
 800193c:	2b00      	cmp	r3, #0
 800193e:	d001      	beq.n	8001944 <MX_TIM5_Init+0x78>
  {
    Error_Handler();
 8001940:	f000 fa0e 	bl	8001d60 <Error_Handler>
  }
  sConfigOC.OCMode = TIM_OCMODE_PWM1;
 8001944:	2360      	movs	r3, #96	; 0x60
 8001946:	607b      	str	r3, [r7, #4]
  sConfigOC.Pulse = 100;
 8001948:	2364      	movs	r3, #100	; 0x64
 800194a:	60bb      	str	r3, [r7, #8]
  sConfigOC.OCPolarity = TIM_OCPOLARITY_HIGH;
 800194c:	2300      	movs	r3, #0
 800194e:	60fb      	str	r3, [r7, #12]
  sConfigOC.OCFastMode = TIM_OCFAST_DISABLE;
 8001950:	2300      	movs	r3, #0
 8001952:	617b      	str	r3, [r7, #20]
  if (HAL_TIM_PWM_ConfigChannel(&htim5, &sConfigOC, TIM_CHANNEL_1) != HAL_OK)
 8001954:	1d3b      	adds	r3, r7, #4
 8001956:	2200      	movs	r2, #0
 8001958:	4619      	mov	r1, r3
 800195a:	4807      	ldr	r0, [pc, #28]	; (8001978 <MX_TIM5_Init+0xac>)
 800195c:	f002 fb6a 	bl	8004034 <HAL_TIM_PWM_ConfigChannel>
 8001960:	4603      	mov	r3, r0
 8001962:	2b00      	cmp	r3, #0
 8001964:	d001      	beq.n	800196a <MX_TIM5_Init+0x9e>
  {
    Error_Handler();
 8001966:	f000 f9fb 	bl	8001d60 <Error_Handler>
  }
  /* USER CODE BEGIN TIM5_Init 2 */

  /* USER CODE END TIM5_Init 2 */
  HAL_TIM_MspPostInit(&htim5);
 800196a:	4803      	ldr	r0, [pc, #12]	; (8001978 <MX_TIM5_Init+0xac>)
 800196c:	f000 fb26 	bl	8001fbc <HAL_TIM_MspPostInit>

}
 8001970:	bf00      	nop
 8001972:	3728      	adds	r7, #40	; 0x28
 8001974:	46bd      	mov	sp, r7
 8001976:	bd80      	pop	{r7, pc}
 8001978:	20000380 	.word	0x20000380
 800197c:	40000c00 	.word	0x40000c00

08001980 <MX_TIM8_Init>:
  * @brief TIM8 Initialization Function
  * @param None
  * @retval None
  */
static void MX_TIM8_Init(void)
{
 8001980:	b580      	push	{r7, lr}
 8001982:	b096      	sub	sp, #88	; 0x58
 8001984:	af00      	add	r7, sp, #0

  /* USER CODE BEGIN TIM8_Init 0 */

  /* USER CODE END TIM8_Init 0 */

  TIM_ClockConfigTypeDef sClockSourceConfig = {0};
 8001986:	f107 0348 	add.w	r3, r7, #72	; 0x48
 800198a:	2200      	movs	r2, #0
 800198c:	601a      	str	r2, [r3, #0]
 800198e:	605a      	str	r2, [r3, #4]
 8001990:	609a      	str	r2, [r3, #8]
 8001992:	60da      	str	r2, [r3, #12]
  TIM_MasterConfigTypeDef sMasterConfig = {0};
 8001994:	f107 0340 	add.w	r3, r7, #64	; 0x40
 8001998:	2200      	movs	r2, #0
 800199a:	601a      	str	r2, [r3, #0]
 800199c:	605a      	str	r2, [r3, #4]
  TIM_OC_InitTypeDef sConfigOC = {0};
 800199e:	f107 0324 	add.w	r3, r7, #36	; 0x24
 80019a2:	2200      	movs	r2, #0
 80019a4:	601a      	str	r2, [r3, #0]
 80019a6:	605a      	str	r2, [r3, #4]
 80019a8:	609a      	str	r2, [r3, #8]
 80019aa:	60da      	str	r2, [r3, #12]
 80019ac:	611a      	str	r2, [r3, #16]
 80019ae:	615a      	str	r2, [r3, #20]
 80019b0:	619a      	str	r2, [r3, #24]
  TIM_BreakDeadTimeConfigTypeDef sBreakDeadTimeConfig = {0};
 80019b2:	1d3b      	adds	r3, r7, #4
 80019b4:	2220      	movs	r2, #32
 80019b6:	2100      	movs	r1, #0
 80019b8:	4618      	mov	r0, r3
 80019ba:	f004 fa9d 	bl	8005ef8 <memset>

  /* USER CODE BEGIN TIM8_Init 1 */

  /* USER CODE END TIM8_Init 1 */
  htim8.Instance = TIM8;
 80019be:	4b3f      	ldr	r3, [pc, #252]	; (8001abc <MX_TIM8_Init+0x13c>)
 80019c0:	4a3f      	ldr	r2, [pc, #252]	; (8001ac0 <MX_TIM8_Init+0x140>)
 80019c2:	601a      	str	r2, [r3, #0]
  htim8.Init.Prescaler = 3000-1;
 80019c4:	4b3d      	ldr	r3, [pc, #244]	; (8001abc <MX_TIM8_Init+0x13c>)
 80019c6:	f640 32b7 	movw	r2, #2999	; 0xbb7
 80019ca:	605a      	str	r2, [r3, #4]
  htim8.Init.CounterMode = TIM_COUNTERMODE_UP;
 80019cc:	4b3b      	ldr	r3, [pc, #236]	; (8001abc <MX_TIM8_Init+0x13c>)
 80019ce:	2200      	movs	r2, #0
 80019d0:	609a      	str	r2, [r3, #8]
  htim8.Init.Period = 65535;
 80019d2:	4b3a      	ldr	r3, [pc, #232]	; (8001abc <MX_TIM8_Init+0x13c>)
 80019d4:	f64f 72ff 	movw	r2, #65535	; 0xffff
 80019d8:	60da      	str	r2, [r3, #12]
  htim8.Init.ClockDivision = TIM_CLOCKDIVISION_DIV1;
 80019da:	4b38      	ldr	r3, [pc, #224]	; (8001abc <MX_TIM8_Init+0x13c>)
 80019dc:	2200      	movs	r2, #0
 80019de:	611a      	str	r2, [r3, #16]
  htim8.Init.RepetitionCounter = 0;
 80019e0:	4b36      	ldr	r3, [pc, #216]	; (8001abc <MX_TIM8_Init+0x13c>)
 80019e2:	2200      	movs	r2, #0
 80019e4:	615a      	str	r2, [r3, #20]
  htim8.Init.AutoReloadPreload = TIM_AUTORELOAD_PRELOAD_DISABLE;
 80019e6:	4b35      	ldr	r3, [pc, #212]	; (8001abc <MX_TIM8_Init+0x13c>)
 80019e8:	2200      	movs	r2, #0
 80019ea:	619a      	str	r2, [r3, #24]
  if (HAL_TIM_Base_Init(&htim8) != HAL_OK)
 80019ec:	4833      	ldr	r0, [pc, #204]	; (8001abc <MX_TIM8_Init+0x13c>)
 80019ee:	f001 fe23 	bl	8003638 <HAL_TIM_Base_Init>
 80019f2:	4603      	mov	r3, r0
 80019f4:	2b00      	cmp	r3, #0
 80019f6:	d001      	beq.n	80019fc <MX_TIM8_Init+0x7c>
  {
    Error_Handler();
 80019f8:	f000 f9b2 	bl	8001d60 <Error_Handler>
  }
  sClockSourceConfig.ClockSource = TIM_CLOCKSOURCE_INTERNAL;
 80019fc:	f44f 5380 	mov.w	r3, #4096	; 0x1000
 8001a00:	64bb      	str	r3, [r7, #72]	; 0x48
  if (HAL_TIM_ConfigClockSource(&htim8, &sClockSourceConfig) != HAL_OK)
 8001a02:	f107 0348 	add.w	r3, r7, #72	; 0x48
 8001a06:	4619      	mov	r1, r3
 8001a08:	482c      	ldr	r0, [pc, #176]	; (8001abc <MX_TIM8_Init+0x13c>)
 8001a0a:	f002 fbd5 	bl	80041b8 <HAL_TIM_ConfigClockSource>
 8001a0e:	4603      	mov	r3, r0
 8001a10:	2b00      	cmp	r3, #0
 8001a12:	d001      	beq.n	8001a18 <MX_TIM8_Init+0x98>
  {
    Error_Handler();
 8001a14:	f000 f9a4 	bl	8001d60 <Error_Handler>
  }
  if (HAL_TIM_PWM_Init(&htim8) != HAL_OK)
 8001a18:	4828      	ldr	r0, [pc, #160]	; (8001abc <MX_TIM8_Init+0x13c>)
 8001a1a:	f001 fecd 	bl	80037b8 <HAL_TIM_PWM_Init>
 8001a1e:	4603      	mov	r3, r0
 8001a20:	2b00      	cmp	r3, #0
 8001a22:	d001      	beq.n	8001a28 <MX_TIM8_Init+0xa8>
  {
    Error_Handler();
 8001a24:	f000 f99c 	bl	8001d60 <Error_Handler>
  }
  sMasterConfig.MasterOutputTrigger = TIM_TRGO_RESET;
 8001a28:	2300      	movs	r3, #0
 8001a2a:	643b      	str	r3, [r7, #64]	; 0x40
  sMasterConfig.MasterSlaveMode = TIM_MASTERSLAVEMODE_DISABLE;
 8001a2c:	2300      	movs	r3, #0
 8001a2e:	647b      	str	r3, [r7, #68]	; 0x44
  if (HAL_TIMEx_MasterConfigSynchronization(&htim8, &sMasterConfig) != HAL_OK)
 8001a30:	f107 0340 	add.w	r3, r7, #64	; 0x40
 8001a34:	4619      	mov	r1, r3
 8001a36:	4821      	ldr	r0, [pc, #132]	; (8001abc <MX_TIM8_Init+0x13c>)
 8001a38:	f003 f922 	bl	8004c80 <HAL_TIMEx_MasterConfigSynchronization>
 8001a3c:	4603      	mov	r3, r0
 8001a3e:	2b00      	cmp	r3, #0
 8001a40:	d001      	beq.n	8001a46 <MX_TIM8_Init+0xc6>
  {
    Error_Handler();
 8001a42:	f000 f98d 	bl	8001d60 <Error_Handler>
  }
  sConfigOC.OCMode = TIM_OCMODE_PWM1;
 8001a46:	2360      	movs	r3, #96	; 0x60
 8001a48:	627b      	str	r3, [r7, #36]	; 0x24
  sConfigOC.Pulse = 100;
 8001a4a:	2364      	movs	r3, #100	; 0x64
 8001a4c:	62bb      	str	r3, [r7, #40]	; 0x28
  sConfigOC.OCPolarity = TIM_OCPOLARITY_HIGH;
 8001a4e:	2300      	movs	r3, #0
 8001a50:	62fb      	str	r3, [r7, #44]	; 0x2c
  sConfigOC.OCNPolarity = TIM_OCNPOLARITY_HIGH;
 8001a52:	2300      	movs	r3, #0
 8001a54:	633b      	str	r3, [r7, #48]	; 0x30
  sConfigOC.OCFastMode = TIM_OCFAST_DISABLE;
 8001a56:	2300      	movs	r3, #0
 8001a58:	637b      	str	r3, [r7, #52]	; 0x34
  sConfigOC.OCIdleState = TIM_OCIDLESTATE_RESET;
 8001a5a:	2300      	movs	r3, #0
 8001a5c:	63bb      	str	r3, [r7, #56]	; 0x38
  sConfigOC.OCNIdleState = TIM_OCNIDLESTATE_RESET;
 8001a5e:	2300      	movs	r3, #0
 8001a60:	63fb      	str	r3, [r7, #60]	; 0x3c
  if (HAL_TIM_PWM_ConfigChannel(&htim8, &sConfigOC, TIM_CHANNEL_1) != HAL_OK)
 8001a62:	f107 0324 	add.w	r3, r7, #36	; 0x24
 8001a66:	2200      	movs	r2, #0
 8001a68:	4619      	mov	r1, r3
 8001a6a:	4814      	ldr	r0, [pc, #80]	; (8001abc <MX_TIM8_Init+0x13c>)
 8001a6c:	f002 fae2 	bl	8004034 <HAL_TIM_PWM_ConfigChannel>
 8001a70:	4603      	mov	r3, r0
 8001a72:	2b00      	cmp	r3, #0
 8001a74:	d001      	beq.n	8001a7a <MX_TIM8_Init+0xfa>
  {
    Error_Handler();
 8001a76:	f000 f973 	bl	8001d60 <Error_Handler>
  }
  sBreakDeadTimeConfig.OffStateRunMode = TIM_OSSR_DISABLE;
 8001a7a:	2300      	movs	r3, #0
 8001a7c:	607b      	str	r3, [r7, #4]
  sBreakDeadTimeConfig.OffStateIDLEMode = TIM_OSSI_DISABLE;
 8001a7e:	2300      	movs	r3, #0
 8001a80:	60bb      	str	r3, [r7, #8]
  sBreakDeadTimeConfig.LockLevel = TIM_LOCKLEVEL_OFF;
 8001a82:	2300      	movs	r3, #0
 8001a84:	60fb      	str	r3, [r7, #12]
  sBreakDeadTimeConfig.DeadTime = 0;
 8001a86:	2300      	movs	r3, #0
 8001a88:	613b      	str	r3, [r7, #16]
  sBreakDeadTimeConfig.BreakState = TIM_BREAK_DISABLE;
 8001a8a:	2300      	movs	r3, #0
 8001a8c:	617b      	str	r3, [r7, #20]
  sBreakDeadTimeConfig.BreakPolarity = TIM_BREAKPOLARITY_HIGH;
 8001a8e:	f44f 5300 	mov.w	r3, #8192	; 0x2000
 8001a92:	61bb      	str	r3, [r7, #24]
  sBreakDeadTimeConfig.AutomaticOutput = TIM_AUTOMATICOUTPUT_DISABLE;
 8001a94:	2300      	movs	r3, #0
 8001a96:	623b      	str	r3, [r7, #32]
  if (HAL_TIMEx_ConfigBreakDeadTime(&htim8, &sBreakDeadTimeConfig) != HAL_OK)
 8001a98:	1d3b      	adds	r3, r7, #4
 8001a9a:	4619      	mov	r1, r3
 8001a9c:	4807      	ldr	r0, [pc, #28]	; (8001abc <MX_TIM8_Init+0x13c>)
 8001a9e:	f003 f96b 	bl	8004d78 <HAL_TIMEx_ConfigBreakDeadTime>
 8001aa2:	4603      	mov	r3, r0
 8001aa4:	2b00      	cmp	r3, #0
 8001aa6:	d001      	beq.n	8001aac <MX_TIM8_Init+0x12c>
  {
    Error_Handler();
 8001aa8:	f000 f95a 	bl	8001d60 <Error_Handler>
  }
  /* USER CODE BEGIN TIM8_Init 2 */

  /* USER CODE END TIM8_Init 2 */
  HAL_TIM_MspPostInit(&htim8);
 8001aac:	4803      	ldr	r0, [pc, #12]	; (8001abc <MX_TIM8_Init+0x13c>)
 8001aae:	f000 fa85 	bl	8001fbc <HAL_TIM_MspPostInit>

}
 8001ab2:	bf00      	nop
 8001ab4:	3758      	adds	r7, #88	; 0x58
 8001ab6:	46bd      	mov	sp, r7
 8001ab8:	bd80      	pop	{r7, pc}
 8001aba:	bf00      	nop
 8001abc:	200002bc 	.word	0x200002bc
 8001ac0:	40010400 	.word	0x40010400

08001ac4 <MX_TIM12_Init>:
  * @brief TIM12 Initialization Function
  * @param None
  * @retval None
  */
static void MX_TIM12_Init(void)
{
 8001ac4:	b580      	push	{r7, lr}
 8001ac6:	b08c      	sub	sp, #48	; 0x30
 8001ac8:	af00      	add	r7, sp, #0

  /* USER CODE BEGIN TIM12_Init 0 */

  /* USER CODE END TIM12_Init 0 */

  TIM_ClockConfigTypeDef sClockSourceConfig = {0};
 8001aca:	f107 0320 	add.w	r3, r7, #32
 8001ace:	2200      	movs	r2, #0
 8001ad0:	601a      	str	r2, [r3, #0]
 8001ad2:	605a      	str	r2, [r3, #4]
 8001ad4:	609a      	str	r2, [r3, #8]
 8001ad6:	60da      	str	r2, [r3, #12]
  TIM_OC_InitTypeDef sConfigOC = {0};
 8001ad8:	1d3b      	adds	r3, r7, #4
 8001ada:	2200      	movs	r2, #0
 8001adc:	601a      	str	r2, [r3, #0]
 8001ade:	605a      	str	r2, [r3, #4]
 8001ae0:	609a      	str	r2, [r3, #8]
 8001ae2:	60da      	str	r2, [r3, #12]
 8001ae4:	611a      	str	r2, [r3, #16]
 8001ae6:	615a      	str	r2, [r3, #20]
 8001ae8:	619a      	str	r2, [r3, #24]

  /* USER CODE BEGIN TIM12_Init 1 */

  /* USER CODE END TIM12_Init 1 */
  htim12.Instance = TIM12;
 8001aea:	4b26      	ldr	r3, [pc, #152]	; (8001b84 <MX_TIM12_Init+0xc0>)
 8001aec:	4a26      	ldr	r2, [pc, #152]	; (8001b88 <MX_TIM12_Init+0xc4>)
 8001aee:	601a      	str	r2, [r3, #0]
  htim12.Init.Prescaler = 3000-1;
 8001af0:	4b24      	ldr	r3, [pc, #144]	; (8001b84 <MX_TIM12_Init+0xc0>)
 8001af2:	f640 32b7 	movw	r2, #2999	; 0xbb7
 8001af6:	605a      	str	r2, [r3, #4]
  htim12.Init.CounterMode = TIM_COUNTERMODE_UP;
 8001af8:	4b22      	ldr	r3, [pc, #136]	; (8001b84 <MX_TIM12_Init+0xc0>)
 8001afa:	2200      	movs	r2, #0
 8001afc:	609a      	str	r2, [r3, #8]
  htim12.Init.Period = 65535;
 8001afe:	4b21      	ldr	r3, [pc, #132]	; (8001b84 <MX_TIM12_Init+0xc0>)
 8001b00:	f64f 72ff 	movw	r2, #65535	; 0xffff
 8001b04:	60da      	str	r2, [r3, #12]
  htim12.Init.ClockDivision = TIM_CLOCKDIVISION_DIV1;
 8001b06:	4b1f      	ldr	r3, [pc, #124]	; (8001b84 <MX_TIM12_Init+0xc0>)
 8001b08:	2200      	movs	r2, #0
 8001b0a:	611a      	str	r2, [r3, #16]
  htim12.Init.AutoReloadPreload = TIM_AUTORELOAD_PRELOAD_DISABLE;
 8001b0c:	4b1d      	ldr	r3, [pc, #116]	; (8001b84 <MX_TIM12_Init+0xc0>)
 8001b0e:	2200      	movs	r2, #0
 8001b10:	619a      	str	r2, [r3, #24]
  if (HAL_TIM_Base_Init(&htim12) != HAL_OK)
 8001b12:	481c      	ldr	r0, [pc, #112]	; (8001b84 <MX_TIM12_Init+0xc0>)
 8001b14:	f001 fd90 	bl	8003638 <HAL_TIM_Base_Init>
 8001b18:	4603      	mov	r3, r0
 8001b1a:	2b00      	cmp	r3, #0
 8001b1c:	d001      	beq.n	8001b22 <MX_TIM12_Init+0x5e>
  {
    Error_Handler();
 8001b1e:	f000 f91f 	bl	8001d60 <Error_Handler>
  }
  sClockSourceConfig.ClockSource = TIM_CLOCKSOURCE_INTERNAL;
 8001b22:	f44f 5380 	mov.w	r3, #4096	; 0x1000
 8001b26:	623b      	str	r3, [r7, #32]
  if (HAL_TIM_ConfigClockSource(&htim12, &sClockSourceConfig) != HAL_OK)
 8001b28:	f107 0320 	add.w	r3, r7, #32
 8001b2c:	4619      	mov	r1, r3
 8001b2e:	4815      	ldr	r0, [pc, #84]	; (8001b84 <MX_TIM12_Init+0xc0>)
 8001b30:	f002 fb42 	bl	80041b8 <HAL_TIM_ConfigClockSource>
 8001b34:	4603      	mov	r3, r0
 8001b36:	2b00      	cmp	r3, #0
 8001b38:	d001      	beq.n	8001b3e <MX_TIM12_Init+0x7a>
  {
    Error_Handler();
 8001b3a:	f000 f911 	bl	8001d60 <Error_Handler>
  }
  if (HAL_TIM_PWM_Init(&htim12) != HAL_OK)
 8001b3e:	4811      	ldr	r0, [pc, #68]	; (8001b84 <MX_TIM12_Init+0xc0>)
 8001b40:	f001 fe3a 	bl	80037b8 <HAL_TIM_PWM_Init>
 8001b44:	4603      	mov	r3, r0
 8001b46:	2b00      	cmp	r3, #0
 8001b48:	d001      	beq.n	8001b4e <MX_TIM12_Init+0x8a>
  {
    Error_Handler();
 8001b4a:	f000 f909 	bl	8001d60 <Error_Handler>
  }
  sConfigOC.OCMode = TIM_OCMODE_PWM1;
 8001b4e:	2360      	movs	r3, #96	; 0x60
 8001b50:	607b      	str	r3, [r7, #4]
  sConfigOC.Pulse = 100;
 8001b52:	2364      	movs	r3, #100	; 0x64
 8001b54:	60bb      	str	r3, [r7, #8]
  sConfigOC.OCPolarity = TIM_OCPOLARITY_HIGH;
 8001b56:	2300      	movs	r3, #0
 8001b58:	60fb      	str	r3, [r7, #12]
  sConfigOC.OCFastMode = TIM_OCFAST_DISABLE;
 8001b5a:	2300      	movs	r3, #0
 8001b5c:	617b      	str	r3, [r7, #20]
  if (HAL_TIM_PWM_ConfigChannel(&htim12, &sConfigOC, TIM_CHANNEL_1) != HAL_OK)
 8001b5e:	1d3b      	adds	r3, r7, #4
 8001b60:	2200      	movs	r2, #0
 8001b62:	4619      	mov	r1, r3
 8001b64:	4807      	ldr	r0, [pc, #28]	; (8001b84 <MX_TIM12_Init+0xc0>)
 8001b66:	f002 fa65 	bl	8004034 <HAL_TIM_PWM_ConfigChannel>
 8001b6a:	4603      	mov	r3, r0
 8001b6c:	2b00      	cmp	r3, #0
 8001b6e:	d001      	beq.n	8001b74 <MX_TIM12_Init+0xb0>
  {
    Error_Handler();
 8001b70:	f000 f8f6 	bl	8001d60 <Error_Handler>
  }
  /* USER CODE BEGIN TIM12_Init 2 */

  /* USER CODE END TIM12_Init 2 */
  HAL_TIM_MspPostInit(&htim12);
 8001b74:	4803      	ldr	r0, [pc, #12]	; (8001b84 <MX_TIM12_Init+0xc0>)
 8001b76:	f000 fa21 	bl	8001fbc <HAL_TIM_MspPostInit>

}
 8001b7a:	bf00      	nop
 8001b7c:	3730      	adds	r7, #48	; 0x30
 8001b7e:	46bd      	mov	sp, r7
 8001b80:	bd80      	pop	{r7, pc}
 8001b82:	bf00      	nop
 8001b84:	200004fc 	.word	0x200004fc
 8001b88:	40001800 	.word	0x40001800

08001b8c <MX_USART2_UART_Init>:
  * @brief USART2 Initialization Function
  * @param None
  * @retval None
  */
static void MX_USART2_UART_Init(void)
{
 8001b8c:	b580      	push	{r7, lr}
 8001b8e:	af00      	add	r7, sp, #0
  /* USER CODE END USART2_Init 0 */

  /* USER CODE BEGIN USART2_Init 1 */

  /* USER CODE END USART2_Init 1 */
  huart2.Instance = USART2;
 8001b90:	4b11      	ldr	r3, [pc, #68]	; (8001bd8 <MX_USART2_UART_Init+0x4c>)
 8001b92:	4a12      	ldr	r2, [pc, #72]	; (8001bdc <MX_USART2_UART_Init+0x50>)
 8001b94:	601a      	str	r2, [r3, #0]
  huart2.Init.BaudRate = 115200;
 8001b96:	4b10      	ldr	r3, [pc, #64]	; (8001bd8 <MX_USART2_UART_Init+0x4c>)
 8001b98:	f44f 32e1 	mov.w	r2, #115200	; 0x1c200
 8001b9c:	605a      	str	r2, [r3, #4]
  huart2.Init.WordLength = UART_WORDLENGTH_8B;
 8001b9e:	4b0e      	ldr	r3, [pc, #56]	; (8001bd8 <MX_USART2_UART_Init+0x4c>)
 8001ba0:	2200      	movs	r2, #0
 8001ba2:	609a      	str	r2, [r3, #8]
  huart2.Init.StopBits = UART_STOPBITS_1;
 8001ba4:	4b0c      	ldr	r3, [pc, #48]	; (8001bd8 <MX_USART2_UART_Init+0x4c>)
 8001ba6:	2200      	movs	r2, #0
 8001ba8:	60da      	str	r2, [r3, #12]
  huart2.Init.Parity = UART_PARITY_NONE;
 8001baa:	4b0b      	ldr	r3, [pc, #44]	; (8001bd8 <MX_USART2_UART_Init+0x4c>)
 8001bac:	2200      	movs	r2, #0
 8001bae:	611a      	str	r2, [r3, #16]
  huart2.Init.Mode = UART_MODE_TX_RX;
 8001bb0:	4b09      	ldr	r3, [pc, #36]	; (8001bd8 <MX_USART2_UART_Init+0x4c>)
 8001bb2:	220c      	movs	r2, #12
 8001bb4:	615a      	str	r2, [r3, #20]
  huart2.Init.HwFlowCtl = UART_HWCONTROL_NONE;
 8001bb6:	4b08      	ldr	r3, [pc, #32]	; (8001bd8 <MX_USART2_UART_Init+0x4c>)
 8001bb8:	2200      	movs	r2, #0
 8001bba:	619a      	str	r2, [r3, #24]
  huart2.Init.OverSampling = UART_OVERSAMPLING_16;
 8001bbc:	4b06      	ldr	r3, [pc, #24]	; (8001bd8 <MX_USART2_UART_Init+0x4c>)
 8001bbe:	2200      	movs	r2, #0
 8001bc0:	61da      	str	r2, [r3, #28]
  if (HAL_UART_Init(&huart2) != HAL_OK)
 8001bc2:	4805      	ldr	r0, [pc, #20]	; (8001bd8 <MX_USART2_UART_Init+0x4c>)
 8001bc4:	f003 f93e 	bl	8004e44 <HAL_UART_Init>
 8001bc8:	4603      	mov	r3, r0
 8001bca:	2b00      	cmp	r3, #0
 8001bcc:	d001      	beq.n	8001bd2 <MX_USART2_UART_Init+0x46>
  {
    Error_Handler();
 8001bce:	f000 f8c7 	bl	8001d60 <Error_Handler>
  }
  /* USER CODE BEGIN USART2_Init 2 */

  /* USER CODE END USART2_Init 2 */

}
 8001bd2:	bf00      	nop
 8001bd4:	bd80      	pop	{r7, pc}
 8001bd6:	bf00      	nop
 8001bd8:	200004a4 	.word	0x200004a4
 8001bdc:	40004400 	.word	0x40004400

08001be0 <MX_GPIO_Init>:
  * @brief GPIO Initialization Function
  * @param None
  * @retval None
  */
static void MX_GPIO_Init(void)
{
 8001be0:	b580      	push	{r7, lr}
 8001be2:	b08a      	sub	sp, #40	; 0x28
 8001be4:	af00      	add	r7, sp, #0
  GPIO_InitTypeDef GPIO_InitStruct = {0};
 8001be6:	f107 0314 	add.w	r3, r7, #20
 8001bea:	2200      	movs	r2, #0
 8001bec:	601a      	str	r2, [r3, #0]
 8001bee:	605a      	str	r2, [r3, #4]
 8001bf0:	609a      	str	r2, [r3, #8]
 8001bf2:	60da      	str	r2, [r3, #12]
 8001bf4:	611a      	str	r2, [r3, #16]

  /* GPIO Ports Clock Enable */
  __HAL_RCC_GPIOC_CLK_ENABLE();
 8001bf6:	2300      	movs	r3, #0
 8001bf8:	613b      	str	r3, [r7, #16]
 8001bfa:	4b2d      	ldr	r3, [pc, #180]	; (8001cb0 <MX_GPIO_Init+0xd0>)
 8001bfc:	6b1b      	ldr	r3, [r3, #48]	; 0x30
 8001bfe:	4a2c      	ldr	r2, [pc, #176]	; (8001cb0 <MX_GPIO_Init+0xd0>)
 8001c00:	f043 0304 	orr.w	r3, r3, #4
 8001c04:	6313      	str	r3, [r2, #48]	; 0x30
 8001c06:	4b2a      	ldr	r3, [pc, #168]	; (8001cb0 <MX_GPIO_Init+0xd0>)
 8001c08:	6b1b      	ldr	r3, [r3, #48]	; 0x30
 8001c0a:	f003 0304 	and.w	r3, r3, #4
 8001c0e:	613b      	str	r3, [r7, #16]
 8001c10:	693b      	ldr	r3, [r7, #16]
  __HAL_RCC_GPIOH_CLK_ENABLE();
 8001c12:	2300      	movs	r3, #0
 8001c14:	60fb      	str	r3, [r7, #12]
 8001c16:	4b26      	ldr	r3, [pc, #152]	; (8001cb0 <MX_GPIO_Init+0xd0>)
 8001c18:	6b1b      	ldr	r3, [r3, #48]	; 0x30
 8001c1a:	4a25      	ldr	r2, [pc, #148]	; (8001cb0 <MX_GPIO_Init+0xd0>)
 8001c1c:	f043 0380 	orr.w	r3, r3, #128	; 0x80
 8001c20:	6313      	str	r3, [r2, #48]	; 0x30
 8001c22:	4b23      	ldr	r3, [pc, #140]	; (8001cb0 <MX_GPIO_Init+0xd0>)
 8001c24:	6b1b      	ldr	r3, [r3, #48]	; 0x30
 8001c26:	f003 0380 	and.w	r3, r3, #128	; 0x80
 8001c2a:	60fb      	str	r3, [r7, #12]
 8001c2c:	68fb      	ldr	r3, [r7, #12]
  __HAL_RCC_GPIOA_CLK_ENABLE();
 8001c2e:	2300      	movs	r3, #0
 8001c30:	60bb      	str	r3, [r7, #8]
 8001c32:	4b1f      	ldr	r3, [pc, #124]	; (8001cb0 <MX_GPIO_Init+0xd0>)
 8001c34:	6b1b      	ldr	r3, [r3, #48]	; 0x30
 8001c36:	4a1e      	ldr	r2, [pc, #120]	; (8001cb0 <MX_GPIO_Init+0xd0>)
 8001c38:	f043 0301 	orr.w	r3, r3, #1
 8001c3c:	6313      	str	r3, [r2, #48]	; 0x30
 8001c3e:	4b1c      	ldr	r3, [pc, #112]	; (8001cb0 <MX_GPIO_Init+0xd0>)
 8001c40:	6b1b      	ldr	r3, [r3, #48]	; 0x30
 8001c42:	f003 0301 	and.w	r3, r3, #1
 8001c46:	60bb      	str	r3, [r7, #8]
 8001c48:	68bb      	ldr	r3, [r7, #8]
  __HAL_RCC_GPIOB_CLK_ENABLE();
 8001c4a:	2300      	movs	r3, #0
 8001c4c:	607b      	str	r3, [r7, #4]
 8001c4e:	4b18      	ldr	r3, [pc, #96]	; (8001cb0 <MX_GPIO_Init+0xd0>)
 8001c50:	6b1b      	ldr	r3, [r3, #48]	; 0x30
 8001c52:	4a17      	ldr	r2, [pc, #92]	; (8001cb0 <MX_GPIO_Init+0xd0>)
 8001c54:	f043 0302 	orr.w	r3, r3, #2
 8001c58:	6313      	str	r3, [r2, #48]	; 0x30
 8001c5a:	4b15      	ldr	r3, [pc, #84]	; (8001cb0 <MX_GPIO_Init+0xd0>)
 8001c5c:	6b1b      	ldr	r3, [r3, #48]	; 0x30
 8001c5e:	f003 0302 	and.w	r3, r3, #2
 8001c62:	607b      	str	r3, [r7, #4]
 8001c64:	687b      	ldr	r3, [r7, #4]

  /*Configure GPIO pin Output Level */
  HAL_GPIO_WritePin(LD2_GPIO_Port, LD2_Pin, GPIO_PIN_RESET);
 8001c66:	2200      	movs	r2, #0
 8001c68:	2120      	movs	r1, #32
 8001c6a:	4812      	ldr	r0, [pc, #72]	; (8001cb4 <MX_GPIO_Init+0xd4>)
 8001c6c:	f000 ff60 	bl	8002b30 <HAL_GPIO_WritePin>

  /*Configure GPIO pin : B1_Pin */
  GPIO_InitStruct.Pin = B1_Pin;
 8001c70:	f44f 5300 	mov.w	r3, #8192	; 0x2000
 8001c74:	617b      	str	r3, [r7, #20]
  GPIO_InitStruct.Mode = GPIO_MODE_IT_FALLING;
 8001c76:	f44f 1304 	mov.w	r3, #2162688	; 0x210000
 8001c7a:	61bb      	str	r3, [r7, #24]
  GPIO_InitStruct.Pull = GPIO_NOPULL;
 8001c7c:	2300      	movs	r3, #0
 8001c7e:	61fb      	str	r3, [r7, #28]
  HAL_GPIO_Init(B1_GPIO_Port, &GPIO_InitStruct);
 8001c80:	f107 0314 	add.w	r3, r7, #20
 8001c84:	4619      	mov	r1, r3
 8001c86:	480c      	ldr	r0, [pc, #48]	; (8001cb8 <MX_GPIO_Init+0xd8>)
 8001c88:	f000 fdbe 	bl	8002808 <HAL_GPIO_Init>

  /*Configure GPIO pin : LD2_Pin */
  GPIO_InitStruct.Pin = LD2_Pin;
 8001c8c:	2320      	movs	r3, #32
 8001c8e:	617b      	str	r3, [r7, #20]
  GPIO_InitStruct.Mode = GPIO_MODE_OUTPUT_PP;
 8001c90:	2301      	movs	r3, #1
 8001c92:	61bb      	str	r3, [r7, #24]
  GPIO_InitStruct.Pull = GPIO_NOPULL;
 8001c94:	2300      	movs	r3, #0
 8001c96:	61fb      	str	r3, [r7, #28]
  GPIO_InitStruct.Speed = GPIO_SPEED_FREQ_LOW;
 8001c98:	2300      	movs	r3, #0
 8001c9a:	623b      	str	r3, [r7, #32]
  HAL_GPIO_Init(LD2_GPIO_Port, &GPIO_InitStruct);
 8001c9c:	f107 0314 	add.w	r3, r7, #20
 8001ca0:	4619      	mov	r1, r3
 8001ca2:	4804      	ldr	r0, [pc, #16]	; (8001cb4 <MX_GPIO_Init+0xd4>)
 8001ca4:	f000 fdb0 	bl	8002808 <HAL_GPIO_Init>

}
 8001ca8:	bf00      	nop
 8001caa:	3728      	adds	r7, #40	; 0x28
 8001cac:	46bd      	mov	sp, r7
 8001cae:	bd80      	pop	{r7, pc}
 8001cb0:	40023800 	.word	0x40023800
 8001cb4:	40020000 	.word	0x40020000
 8001cb8:	40020800 	.word	0x40020800

08001cbc <HAL_TIM_IC_CaptureCallback>:

/* USER CODE BEGIN 4 */
void HAL_TIM_IC_CaptureCallback(TIM_HandleTypeDef *htim)
{
 8001cbc:	b580      	push	{r7, lr}
 8001cbe:	b082      	sub	sp, #8
 8001cc0:	af00      	add	r7, sp, #0
 8001cc2:	6078      	str	r0, [r7, #4]
    HCSR04_TMR_IC_ISR(htim);
 8001cc4:	6878      	ldr	r0, [r7, #4]
 8001cc6:	f003 fe23 	bl	8005910 <HCSR04_TMR_IC_ISR>
}
 8001cca:	bf00      	nop
 8001ccc:	3708      	adds	r7, #8
 8001cce:	46bd      	mov	sp, r7
 8001cd0:	bd80      	pop	{r7, pc}

08001cd2 <HAL_TIM_PeriodElapsedCallback>:
 
void HAL_TIM_PeriodElapsedCallback(TIM_HandleTypeDef* htim)
{
 8001cd2:	b580      	push	{r7, lr}
 8001cd4:	b082      	sub	sp, #8
 8001cd6:	af00      	add	r7, sp, #0
 8001cd8:	6078      	str	r0, [r7, #4]
    HCSR04_TMR_OVF_ISR(htim);
 8001cda:	6878      	ldr	r0, [r7, #4]
 8001cdc:	f003 fddc 	bl	8005898 <HCSR04_TMR_OVF_ISR>
}
 8001ce0:	bf00      	nop
 8001ce2:	3708      	adds	r7, #8
 8001ce4:	46bd      	mov	sp, r7
 8001ce6:	bd80      	pop	{r7, pc}

08001ce8 <SysTick_CallBack>:

uint8_t TRIG_Ticks;
uint16_t MOTOR_Ticks;
void SysTick_CallBack(void)
{
 8001ce8:	b580      	push	{r7, lr}
 8001cea:	af00      	add	r7, sp, #0
    TRIG_Ticks++;
 8001cec:	4b16      	ldr	r3, [pc, #88]	; (8001d48 <SysTick_CallBack+0x60>)
 8001cee:	781b      	ldrb	r3, [r3, #0]
 8001cf0:	3301      	adds	r3, #1
 8001cf2:	b2da      	uxtb	r2, r3
 8001cf4:	4b14      	ldr	r3, [pc, #80]	; (8001d48 <SysTick_CallBack+0x60>)
 8001cf6:	701a      	strb	r2, [r3, #0]
    MOTOR_Ticks++;
 8001cf8:	4b14      	ldr	r3, [pc, #80]	; (8001d4c <SysTick_CallBack+0x64>)
 8001cfa:	881b      	ldrh	r3, [r3, #0]
 8001cfc:	3301      	adds	r3, #1
 8001cfe:	b29a      	uxth	r2, r3
 8001d00:	4b12      	ldr	r3, [pc, #72]	; (8001d4c <SysTick_CallBack+0x64>)
 8001d02:	801a      	strh	r2, [r3, #0]
    if(TRIG_Ticks >= 15) // Each 15msec
 8001d04:	4b10      	ldr	r3, [pc, #64]	; (8001d48 <SysTick_CallBack+0x60>)
 8001d06:	781b      	ldrb	r3, [r3, #0]
 8001d08:	2b0e      	cmp	r3, #14
 8001d0a:	d90e      	bls.n	8001d2a <SysTick_CallBack+0x42>
    {
        HCSR04_Trigger(HCSR04_SENSOR1);
 8001d0c:	2000      	movs	r0, #0
 8001d0e:	f004 f861 	bl	8005dd4 <HCSR04_Trigger>
        HCSR04_Trigger(HCSR04_SENSOR2);
 8001d12:	2001      	movs	r0, #1
 8001d14:	f004 f85e 	bl	8005dd4 <HCSR04_Trigger>
        HCSR04_Trigger(HCSR04_SENSOR3);
 8001d18:	2002      	movs	r0, #2
 8001d1a:	f004 f85b 	bl	8005dd4 <HCSR04_Trigger>
        HCSR04_Trigger(HCSR04_SENSOR4);
 8001d1e:	2003      	movs	r0, #3
 8001d20:	f004 f858 	bl	8005dd4 <HCSR04_Trigger>
        TRIG_Ticks = 0;
 8001d24:	4b08      	ldr	r3, [pc, #32]	; (8001d48 <SysTick_CallBack+0x60>)
 8001d26:	2200      	movs	r2, #0
 8001d28:	701a      	strb	r2, [r3, #0]
    }
    if(MOTOR_Ticks >= 100){
 8001d2a:	4b08      	ldr	r3, [pc, #32]	; (8001d4c <SysTick_CallBack+0x64>)
 8001d2c:	881b      	ldrh	r3, [r3, #0]
 8001d2e:	2b63      	cmp	r3, #99	; 0x63
 8001d30:	d908      	bls.n	8001d44 <SysTick_CallBack+0x5c>
      UpdateMotorsFreq(motors, motors_num, motors_channel, distances);
 8001d32:	4b07      	ldr	r3, [pc, #28]	; (8001d50 <SysTick_CallBack+0x68>)
 8001d34:	4a07      	ldr	r2, [pc, #28]	; (8001d54 <SysTick_CallBack+0x6c>)
 8001d36:	4908      	ldr	r1, [pc, #32]	; (8001d58 <SysTick_CallBack+0x70>)
 8001d38:	4808      	ldr	r0, [pc, #32]	; (8001d5c <SysTick_CallBack+0x74>)
 8001d3a:	f7ff fa7b 	bl	8001234 <UpdateMotorsFreq>
      MOTOR_Ticks = 0;
 8001d3e:	4b03      	ldr	r3, [pc, #12]	; (8001d4c <SysTick_CallBack+0x64>)
 8001d40:	2200      	movs	r2, #0
 8001d42:	801a      	strh	r2, [r3, #0]
    }
}
 8001d44:	bf00      	nop
 8001d46:	bd80      	pop	{r7, pc}
 8001d48:	200004f8 	.word	0x200004f8
 8001d4c:	20000410 	.word	0x20000410
 8001d50:	200004e8 	.word	0x200004e8
 8001d54:	20000014 	.word	0x20000014
 8001d58:	20000010 	.word	0x20000010
 8001d5c:	20000000 	.word	0x20000000

08001d60 <Error_Handler>:
/**
  * @brief  This function is executed in case of error occurrence.
  * @retval None
  */
void Error_Handler(void)
{
 8001d60:	b480      	push	{r7}
 8001d62:	af00      	add	r7, sp, #0
  \details Disables IRQ interrupts by setting the I-bit in the CPSR.
           Can only be executed in Privileged modes.
 */
__STATIC_FORCEINLINE void __disable_irq(void)
{
  __ASM volatile ("cpsid i" : : : "memory");
 8001d64:	b672      	cpsid	i
}
 8001d66:	bf00      	nop
  /* USER CODE BEGIN Error_Handler_Debug */
  /* User can add his own implementation to report the HAL error return state */
  __disable_irq();
  while (1)
 8001d68:	e7fe      	b.n	8001d68 <Error_Handler+0x8>
	...

08001d6c <HAL_MspInit>:
void HAL_TIM_MspPostInit(TIM_HandleTypeDef *htim);
                                                                                                                        /**
  * Initializes the Global MSP.
  */
void HAL_MspInit(void)
{
 8001d6c:	b580      	push	{r7, lr}
 8001d6e:	b082      	sub	sp, #8
 8001d70:	af00      	add	r7, sp, #0
  /* USER CODE BEGIN MspInit 0 */

  /* USER CODE END MspInit 0 */

  __HAL_RCC_SYSCFG_CLK_ENABLE();
 8001d72:	2300      	movs	r3, #0
 8001d74:	607b      	str	r3, [r7, #4]
 8001d76:	4b10      	ldr	r3, [pc, #64]	; (8001db8 <HAL_MspInit+0x4c>)
 8001d78:	6c5b      	ldr	r3, [r3, #68]	; 0x44
 8001d7a:	4a0f      	ldr	r2, [pc, #60]	; (8001db8 <HAL_MspInit+0x4c>)
 8001d7c:	f443 4380 	orr.w	r3, r3, #16384	; 0x4000
 8001d80:	6453      	str	r3, [r2, #68]	; 0x44
 8001d82:	4b0d      	ldr	r3, [pc, #52]	; (8001db8 <HAL_MspInit+0x4c>)
 8001d84:	6c5b      	ldr	r3, [r3, #68]	; 0x44
 8001d86:	f403 4380 	and.w	r3, r3, #16384	; 0x4000
 8001d8a:	607b      	str	r3, [r7, #4]
 8001d8c:	687b      	ldr	r3, [r7, #4]
  __HAL_RCC_PWR_CLK_ENABLE();
 8001d8e:	2300      	movs	r3, #0
 8001d90:	603b      	str	r3, [r7, #0]
 8001d92:	4b09      	ldr	r3, [pc, #36]	; (8001db8 <HAL_MspInit+0x4c>)
 8001d94:	6c1b      	ldr	r3, [r3, #64]	; 0x40
 8001d96:	4a08      	ldr	r2, [pc, #32]	; (8001db8 <HAL_MspInit+0x4c>)
 8001d98:	f043 5380 	orr.w	r3, r3, #268435456	; 0x10000000
 8001d9c:	6413      	str	r3, [r2, #64]	; 0x40
 8001d9e:	4b06      	ldr	r3, [pc, #24]	; (8001db8 <HAL_MspInit+0x4c>)
 8001da0:	6c1b      	ldr	r3, [r3, #64]	; 0x40
 8001da2:	f003 5380 	and.w	r3, r3, #268435456	; 0x10000000
 8001da6:	603b      	str	r3, [r7, #0]
 8001da8:	683b      	ldr	r3, [r7, #0]

  HAL_NVIC_SetPriorityGrouping(NVIC_PRIORITYGROUP_0);
 8001daa:	2007      	movs	r0, #7
 8001dac:	f000 fcea 	bl	8002784 <HAL_NVIC_SetPriorityGrouping>
  /* System interrupt init*/

  /* USER CODE BEGIN MspInit 1 */

  /* USER CODE END MspInit 1 */
}
 8001db0:	bf00      	nop
 8001db2:	3708      	adds	r7, #8
 8001db4:	46bd      	mov	sp, r7
 8001db6:	bd80      	pop	{r7, pc}
 8001db8:	40023800 	.word	0x40023800

08001dbc <HAL_TIM_Base_MspInit>:
* This function configures the hardware resources used in this example
* @param htim_base: TIM_Base handle pointer
* @retval None
*/
void HAL_TIM_Base_MspInit(TIM_HandleTypeDef* htim_base)
{
 8001dbc:	b580      	push	{r7, lr}
 8001dbe:	b090      	sub	sp, #64	; 0x40
 8001dc0:	af00      	add	r7, sp, #0
 8001dc2:	6078      	str	r0, [r7, #4]
  GPIO_InitTypeDef GPIO_InitStruct = {0};
 8001dc4:	f107 032c 	add.w	r3, r7, #44	; 0x2c
 8001dc8:	2200      	movs	r2, #0
 8001dca:	601a      	str	r2, [r3, #0]
 8001dcc:	605a      	str	r2, [r3, #4]
 8001dce:	609a      	str	r2, [r3, #8]
 8001dd0:	60da      	str	r2, [r3, #12]
 8001dd2:	611a      	str	r2, [r3, #16]
  if(htim_base->Instance==TIM1)
 8001dd4:	687b      	ldr	r3, [r7, #4]
 8001dd6:	681b      	ldr	r3, [r3, #0]
 8001dd8:	4a5f      	ldr	r2, [pc, #380]	; (8001f58 <HAL_TIM_Base_MspInit+0x19c>)
 8001dda:	4293      	cmp	r3, r2
 8001ddc:	d10e      	bne.n	8001dfc <HAL_TIM_Base_MspInit+0x40>
  {
  /* USER CODE BEGIN TIM1_MspInit 0 */

  /* USER CODE END TIM1_MspInit 0 */
    /* Peripheral clock enable */
    __HAL_RCC_TIM1_CLK_ENABLE();
 8001dde:	2300      	movs	r3, #0
 8001de0:	62bb      	str	r3, [r7, #40]	; 0x28
 8001de2:	4b5e      	ldr	r3, [pc, #376]	; (8001f5c <HAL_TIM_Base_MspInit+0x1a0>)
 8001de4:	6c5b      	ldr	r3, [r3, #68]	; 0x44
 8001de6:	4a5d      	ldr	r2, [pc, #372]	; (8001f5c <HAL_TIM_Base_MspInit+0x1a0>)
 8001de8:	f043 0301 	orr.w	r3, r3, #1
 8001dec:	6453      	str	r3, [r2, #68]	; 0x44
 8001dee:	4b5b      	ldr	r3, [pc, #364]	; (8001f5c <HAL_TIM_Base_MspInit+0x1a0>)
 8001df0:	6c5b      	ldr	r3, [r3, #68]	; 0x44
 8001df2:	f003 0301 	and.w	r3, r3, #1
 8001df6:	62bb      	str	r3, [r7, #40]	; 0x28
 8001df8:	6abb      	ldr	r3, [r7, #40]	; 0x28
  /* USER CODE BEGIN TIM12_MspInit 1 */

  /* USER CODE END TIM12_MspInit 1 */
  }

}
 8001dfa:	e0a8      	b.n	8001f4e <HAL_TIM_Base_MspInit+0x192>
  else if(htim_base->Instance==TIM2)
 8001dfc:	687b      	ldr	r3, [r7, #4]
 8001dfe:	681b      	ldr	r3, [r3, #0]
 8001e00:	f1b3 4f80 	cmp.w	r3, #1073741824	; 0x40000000
 8001e04:	d154      	bne.n	8001eb0 <HAL_TIM_Base_MspInit+0xf4>
    __HAL_RCC_TIM2_CLK_ENABLE();
 8001e06:	2300      	movs	r3, #0
 8001e08:	627b      	str	r3, [r7, #36]	; 0x24
 8001e0a:	4b54      	ldr	r3, [pc, #336]	; (8001f5c <HAL_TIM_Base_MspInit+0x1a0>)
 8001e0c:	6c1b      	ldr	r3, [r3, #64]	; 0x40
 8001e0e:	4a53      	ldr	r2, [pc, #332]	; (8001f5c <HAL_TIM_Base_MspInit+0x1a0>)
 8001e10:	f043 0301 	orr.w	r3, r3, #1
 8001e14:	6413      	str	r3, [r2, #64]	; 0x40
 8001e16:	4b51      	ldr	r3, [pc, #324]	; (8001f5c <HAL_TIM_Base_MspInit+0x1a0>)
 8001e18:	6c1b      	ldr	r3, [r3, #64]	; 0x40
 8001e1a:	f003 0301 	and.w	r3, r3, #1
 8001e1e:	627b      	str	r3, [r7, #36]	; 0x24
 8001e20:	6a7b      	ldr	r3, [r7, #36]	; 0x24
    __HAL_RCC_GPIOA_CLK_ENABLE();
 8001e22:	2300      	movs	r3, #0
 8001e24:	623b      	str	r3, [r7, #32]
 8001e26:	4b4d      	ldr	r3, [pc, #308]	; (8001f5c <HAL_TIM_Base_MspInit+0x1a0>)
 8001e28:	6b1b      	ldr	r3, [r3, #48]	; 0x30
 8001e2a:	4a4c      	ldr	r2, [pc, #304]	; (8001f5c <HAL_TIM_Base_MspInit+0x1a0>)
 8001e2c:	f043 0301 	orr.w	r3, r3, #1
 8001e30:	6313      	str	r3, [r2, #48]	; 0x30
 8001e32:	4b4a      	ldr	r3, [pc, #296]	; (8001f5c <HAL_TIM_Base_MspInit+0x1a0>)
 8001e34:	6b1b      	ldr	r3, [r3, #48]	; 0x30
 8001e36:	f003 0301 	and.w	r3, r3, #1
 8001e3a:	623b      	str	r3, [r7, #32]
 8001e3c:	6a3b      	ldr	r3, [r7, #32]
    __HAL_RCC_GPIOB_CLK_ENABLE();
 8001e3e:	2300      	movs	r3, #0
 8001e40:	61fb      	str	r3, [r7, #28]
 8001e42:	4b46      	ldr	r3, [pc, #280]	; (8001f5c <HAL_TIM_Base_MspInit+0x1a0>)
 8001e44:	6b1b      	ldr	r3, [r3, #48]	; 0x30
 8001e46:	4a45      	ldr	r2, [pc, #276]	; (8001f5c <HAL_TIM_Base_MspInit+0x1a0>)
 8001e48:	f043 0302 	orr.w	r3, r3, #2
 8001e4c:	6313      	str	r3, [r2, #48]	; 0x30
 8001e4e:	4b43      	ldr	r3, [pc, #268]	; (8001f5c <HAL_TIM_Base_MspInit+0x1a0>)
 8001e50:	6b1b      	ldr	r3, [r3, #48]	; 0x30
 8001e52:	f003 0302 	and.w	r3, r3, #2
 8001e56:	61fb      	str	r3, [r7, #28]
 8001e58:	69fb      	ldr	r3, [r7, #28]
    GPIO_InitStruct.Pin = GPIO_PIN_1|GPIO_PIN_15;
 8001e5a:	f248 0302 	movw	r3, #32770	; 0x8002
 8001e5e:	62fb      	str	r3, [r7, #44]	; 0x2c
    GPIO_InitStruct.Mode = GPIO_MODE_AF_PP;
 8001e60:	2302      	movs	r3, #2
 8001e62:	633b      	str	r3, [r7, #48]	; 0x30
    GPIO_InitStruct.Pull = GPIO_NOPULL;
 8001e64:	2300      	movs	r3, #0
 8001e66:	637b      	str	r3, [r7, #52]	; 0x34
    GPIO_InitStruct.Speed = GPIO_SPEED_FREQ_LOW;
 8001e68:	2300      	movs	r3, #0
 8001e6a:	63bb      	str	r3, [r7, #56]	; 0x38
    GPIO_InitStruct.Alternate = GPIO_AF1_TIM2;
 8001e6c:	2301      	movs	r3, #1
 8001e6e:	63fb      	str	r3, [r7, #60]	; 0x3c
    HAL_GPIO_Init(GPIOA, &GPIO_InitStruct);
 8001e70:	f107 032c 	add.w	r3, r7, #44	; 0x2c
 8001e74:	4619      	mov	r1, r3
 8001e76:	483a      	ldr	r0, [pc, #232]	; (8001f60 <HAL_TIM_Base_MspInit+0x1a4>)
 8001e78:	f000 fcc6 	bl	8002808 <HAL_GPIO_Init>
    GPIO_InitStruct.Pin = GPIO_PIN_2|GPIO_PIN_10;
 8001e7c:	f240 4304 	movw	r3, #1028	; 0x404
 8001e80:	62fb      	str	r3, [r7, #44]	; 0x2c
    GPIO_InitStruct.Mode = GPIO_MODE_AF_PP;
 8001e82:	2302      	movs	r3, #2
 8001e84:	633b      	str	r3, [r7, #48]	; 0x30
    GPIO_InitStruct.Pull = GPIO_NOPULL;
 8001e86:	2300      	movs	r3, #0
 8001e88:	637b      	str	r3, [r7, #52]	; 0x34
    GPIO_InitStruct.Speed = GPIO_SPEED_FREQ_LOW;
 8001e8a:	2300      	movs	r3, #0
 8001e8c:	63bb      	str	r3, [r7, #56]	; 0x38
    GPIO_InitStruct.Alternate = GPIO_AF1_TIM2;
 8001e8e:	2301      	movs	r3, #1
 8001e90:	63fb      	str	r3, [r7, #60]	; 0x3c
    HAL_GPIO_Init(GPIOB, &GPIO_InitStruct);
 8001e92:	f107 032c 	add.w	r3, r7, #44	; 0x2c
 8001e96:	4619      	mov	r1, r3
 8001e98:	4832      	ldr	r0, [pc, #200]	; (8001f64 <HAL_TIM_Base_MspInit+0x1a8>)
 8001e9a:	f000 fcb5 	bl	8002808 <HAL_GPIO_Init>
    HAL_NVIC_SetPriority(TIM2_IRQn, 0, 0);
 8001e9e:	2200      	movs	r2, #0
 8001ea0:	2100      	movs	r1, #0
 8001ea2:	201c      	movs	r0, #28
 8001ea4:	f000 fc79 	bl	800279a <HAL_NVIC_SetPriority>
    HAL_NVIC_EnableIRQ(TIM2_IRQn);
 8001ea8:	201c      	movs	r0, #28
 8001eaa:	f000 fc92 	bl	80027d2 <HAL_NVIC_EnableIRQ>
}
 8001eae:	e04e      	b.n	8001f4e <HAL_TIM_Base_MspInit+0x192>
  else if(htim_base->Instance==TIM3)
 8001eb0:	687b      	ldr	r3, [r7, #4]
 8001eb2:	681b      	ldr	r3, [r3, #0]
 8001eb4:	4a2c      	ldr	r2, [pc, #176]	; (8001f68 <HAL_TIM_Base_MspInit+0x1ac>)
 8001eb6:	4293      	cmp	r3, r2
 8001eb8:	d10e      	bne.n	8001ed8 <HAL_TIM_Base_MspInit+0x11c>
    __HAL_RCC_TIM3_CLK_ENABLE();
 8001eba:	2300      	movs	r3, #0
 8001ebc:	61bb      	str	r3, [r7, #24]
 8001ebe:	4b27      	ldr	r3, [pc, #156]	; (8001f5c <HAL_TIM_Base_MspInit+0x1a0>)
 8001ec0:	6c1b      	ldr	r3, [r3, #64]	; 0x40
 8001ec2:	4a26      	ldr	r2, [pc, #152]	; (8001f5c <HAL_TIM_Base_MspInit+0x1a0>)
 8001ec4:	f043 0302 	orr.w	r3, r3, #2
 8001ec8:	6413      	str	r3, [r2, #64]	; 0x40
 8001eca:	4b24      	ldr	r3, [pc, #144]	; (8001f5c <HAL_TIM_Base_MspInit+0x1a0>)
 8001ecc:	6c1b      	ldr	r3, [r3, #64]	; 0x40
 8001ece:	f003 0302 	and.w	r3, r3, #2
 8001ed2:	61bb      	str	r3, [r7, #24]
 8001ed4:	69bb      	ldr	r3, [r7, #24]
}
 8001ed6:	e03a      	b.n	8001f4e <HAL_TIM_Base_MspInit+0x192>
  else if(htim_base->Instance==TIM4)
 8001ed8:	687b      	ldr	r3, [r7, #4]
 8001eda:	681b      	ldr	r3, [r3, #0]
 8001edc:	4a23      	ldr	r2, [pc, #140]	; (8001f6c <HAL_TIM_Base_MspInit+0x1b0>)
 8001ede:	4293      	cmp	r3, r2
 8001ee0:	d10e      	bne.n	8001f00 <HAL_TIM_Base_MspInit+0x144>
    __HAL_RCC_TIM4_CLK_ENABLE();
 8001ee2:	2300      	movs	r3, #0
 8001ee4:	617b      	str	r3, [r7, #20]
 8001ee6:	4b1d      	ldr	r3, [pc, #116]	; (8001f5c <HAL_TIM_Base_MspInit+0x1a0>)
 8001ee8:	6c1b      	ldr	r3, [r3, #64]	; 0x40
 8001eea:	4a1c      	ldr	r2, [pc, #112]	; (8001f5c <HAL_TIM_Base_MspInit+0x1a0>)
 8001eec:	f043 0304 	orr.w	r3, r3, #4
 8001ef0:	6413      	str	r3, [r2, #64]	; 0x40
 8001ef2:	4b1a      	ldr	r3, [pc, #104]	; (8001f5c <HAL_TIM_Base_MspInit+0x1a0>)
 8001ef4:	6c1b      	ldr	r3, [r3, #64]	; 0x40
 8001ef6:	f003 0304 	and.w	r3, r3, #4
 8001efa:	617b      	str	r3, [r7, #20]
 8001efc:	697b      	ldr	r3, [r7, #20]
}
 8001efe:	e026      	b.n	8001f4e <HAL_TIM_Base_MspInit+0x192>
  else if(htim_base->Instance==TIM8)
 8001f00:	687b      	ldr	r3, [r7, #4]
 8001f02:	681b      	ldr	r3, [r3, #0]
 8001f04:	4a1a      	ldr	r2, [pc, #104]	; (8001f70 <HAL_TIM_Base_MspInit+0x1b4>)
 8001f06:	4293      	cmp	r3, r2
 8001f08:	d10e      	bne.n	8001f28 <HAL_TIM_Base_MspInit+0x16c>
    __HAL_RCC_TIM8_CLK_ENABLE();
 8001f0a:	2300      	movs	r3, #0
 8001f0c:	613b      	str	r3, [r7, #16]
 8001f0e:	4b13      	ldr	r3, [pc, #76]	; (8001f5c <HAL_TIM_Base_MspInit+0x1a0>)
 8001f10:	6c5b      	ldr	r3, [r3, #68]	; 0x44
 8001f12:	4a12      	ldr	r2, [pc, #72]	; (8001f5c <HAL_TIM_Base_MspInit+0x1a0>)
 8001f14:	f043 0302 	orr.w	r3, r3, #2
 8001f18:	6453      	str	r3, [r2, #68]	; 0x44
 8001f1a:	4b10      	ldr	r3, [pc, #64]	; (8001f5c <HAL_TIM_Base_MspInit+0x1a0>)
 8001f1c:	6c5b      	ldr	r3, [r3, #68]	; 0x44
 8001f1e:	f003 0302 	and.w	r3, r3, #2
 8001f22:	613b      	str	r3, [r7, #16]
 8001f24:	693b      	ldr	r3, [r7, #16]
}
 8001f26:	e012      	b.n	8001f4e <HAL_TIM_Base_MspInit+0x192>
  else if(htim_base->Instance==TIM12)
 8001f28:	687b      	ldr	r3, [r7, #4]
 8001f2a:	681b      	ldr	r3, [r3, #0]
 8001f2c:	4a11      	ldr	r2, [pc, #68]	; (8001f74 <HAL_TIM_Base_MspInit+0x1b8>)
 8001f2e:	4293      	cmp	r3, r2
 8001f30:	d10d      	bne.n	8001f4e <HAL_TIM_Base_MspInit+0x192>
    __HAL_RCC_TIM12_CLK_ENABLE();
 8001f32:	2300      	movs	r3, #0
 8001f34:	60fb      	str	r3, [r7, #12]
 8001f36:	4b09      	ldr	r3, [pc, #36]	; (8001f5c <HAL_TIM_Base_MspInit+0x1a0>)
 8001f38:	6c1b      	ldr	r3, [r3, #64]	; 0x40
 8001f3a:	4a08      	ldr	r2, [pc, #32]	; (8001f5c <HAL_TIM_Base_MspInit+0x1a0>)
 8001f3c:	f043 0340 	orr.w	r3, r3, #64	; 0x40
 8001f40:	6413      	str	r3, [r2, #64]	; 0x40
 8001f42:	4b06      	ldr	r3, [pc, #24]	; (8001f5c <HAL_TIM_Base_MspInit+0x1a0>)
 8001f44:	6c1b      	ldr	r3, [r3, #64]	; 0x40
 8001f46:	f003 0340 	and.w	r3, r3, #64	; 0x40
 8001f4a:	60fb      	str	r3, [r7, #12]
 8001f4c:	68fb      	ldr	r3, [r7, #12]
}
 8001f4e:	bf00      	nop
 8001f50:	3740      	adds	r7, #64	; 0x40
 8001f52:	46bd      	mov	sp, r7
 8001f54:	bd80      	pop	{r7, pc}
 8001f56:	bf00      	nop
 8001f58:	40010000 	.word	0x40010000
 8001f5c:	40023800 	.word	0x40023800
 8001f60:	40020000 	.word	0x40020000
 8001f64:	40020400 	.word	0x40020400
 8001f68:	40000400 	.word	0x40000400
 8001f6c:	40000800 	.word	0x40000800
 8001f70:	40010400 	.word	0x40010400
 8001f74:	40001800 	.word	0x40001800

08001f78 <HAL_TIM_PWM_MspInit>:
* This function configures the hardware resources used in this example
* @param htim_pwm: TIM_PWM handle pointer
* @retval None
*/
void HAL_TIM_PWM_MspInit(TIM_HandleTypeDef* htim_pwm)
{
 8001f78:	b480      	push	{r7}
 8001f7a:	b085      	sub	sp, #20
 8001f7c:	af00      	add	r7, sp, #0
 8001f7e:	6078      	str	r0, [r7, #4]
  if(htim_pwm->Instance==TIM5)
 8001f80:	687b      	ldr	r3, [r7, #4]
 8001f82:	681b      	ldr	r3, [r3, #0]
 8001f84:	4a0b      	ldr	r2, [pc, #44]	; (8001fb4 <HAL_TIM_PWM_MspInit+0x3c>)
 8001f86:	4293      	cmp	r3, r2
 8001f88:	d10d      	bne.n	8001fa6 <HAL_TIM_PWM_MspInit+0x2e>
  {
  /* USER CODE BEGIN TIM5_MspInit 0 */

  /* USER CODE END TIM5_MspInit 0 */
    /* Peripheral clock enable */
    __HAL_RCC_TIM5_CLK_ENABLE();
 8001f8a:	2300      	movs	r3, #0
 8001f8c:	60fb      	str	r3, [r7, #12]
 8001f8e:	4b0a      	ldr	r3, [pc, #40]	; (8001fb8 <HAL_TIM_PWM_MspInit+0x40>)
 8001f90:	6c1b      	ldr	r3, [r3, #64]	; 0x40
 8001f92:	4a09      	ldr	r2, [pc, #36]	; (8001fb8 <HAL_TIM_PWM_MspInit+0x40>)
 8001f94:	f043 0308 	orr.w	r3, r3, #8
 8001f98:	6413      	str	r3, [r2, #64]	; 0x40
 8001f9a:	4b07      	ldr	r3, [pc, #28]	; (8001fb8 <HAL_TIM_PWM_MspInit+0x40>)
 8001f9c:	6c1b      	ldr	r3, [r3, #64]	; 0x40
 8001f9e:	f003 0308 	and.w	r3, r3, #8
 8001fa2:	60fb      	str	r3, [r7, #12]
 8001fa4:	68fb      	ldr	r3, [r7, #12]
  /* USER CODE BEGIN TIM5_MspInit 1 */

  /* USER CODE END TIM5_MspInit 1 */
  }

}
 8001fa6:	bf00      	nop
 8001fa8:	3714      	adds	r7, #20
 8001faa:	46bd      	mov	sp, r7
 8001fac:	f85d 7b04 	ldr.w	r7, [sp], #4
 8001fb0:	4770      	bx	lr
 8001fb2:	bf00      	nop
 8001fb4:	40000c00 	.word	0x40000c00
 8001fb8:	40023800 	.word	0x40023800

08001fbc <HAL_TIM_MspPostInit>:

void HAL_TIM_MspPostInit(TIM_HandleTypeDef* htim)
{
 8001fbc:	b580      	push	{r7, lr}
 8001fbe:	b08e      	sub	sp, #56	; 0x38
 8001fc0:	af00      	add	r7, sp, #0
 8001fc2:	6078      	str	r0, [r7, #4]
  GPIO_InitTypeDef GPIO_InitStruct = {0};
 8001fc4:	f107 0324 	add.w	r3, r7, #36	; 0x24
 8001fc8:	2200      	movs	r2, #0
 8001fca:	601a      	str	r2, [r3, #0]
 8001fcc:	605a      	str	r2, [r3, #4]
 8001fce:	609a      	str	r2, [r3, #8]
 8001fd0:	60da      	str	r2, [r3, #12]
 8001fd2:	611a      	str	r2, [r3, #16]
  if(htim->Instance==TIM1)
 8001fd4:	687b      	ldr	r3, [r7, #4]
 8001fd6:	681b      	ldr	r3, [r3, #0]
 8001fd8:	4a6d      	ldr	r2, [pc, #436]	; (8002190 <HAL_TIM_MspPostInit+0x1d4>)
 8001fda:	4293      	cmp	r3, r2
 8001fdc:	d11f      	bne.n	800201e <HAL_TIM_MspPostInit+0x62>
  {
  /* USER CODE BEGIN TIM1_MspPostInit 0 */

  /* USER CODE END TIM1_MspPostInit 0 */
    __HAL_RCC_GPIOA_CLK_ENABLE();
 8001fde:	2300      	movs	r3, #0
 8001fe0:	623b      	str	r3, [r7, #32]
 8001fe2:	4b6c      	ldr	r3, [pc, #432]	; (8002194 <HAL_TIM_MspPostInit+0x1d8>)
 8001fe4:	6b1b      	ldr	r3, [r3, #48]	; 0x30
 8001fe6:	4a6b      	ldr	r2, [pc, #428]	; (8002194 <HAL_TIM_MspPostInit+0x1d8>)
 8001fe8:	f043 0301 	orr.w	r3, r3, #1
 8001fec:	6313      	str	r3, [r2, #48]	; 0x30
 8001fee:	4b69      	ldr	r3, [pc, #420]	; (8002194 <HAL_TIM_MspPostInit+0x1d8>)
 8001ff0:	6b1b      	ldr	r3, [r3, #48]	; 0x30
 8001ff2:	f003 0301 	and.w	r3, r3, #1
 8001ff6:	623b      	str	r3, [r7, #32]
 8001ff8:	6a3b      	ldr	r3, [r7, #32]
    /**TIM1 GPIO Configuration
    PA8     ------> TIM1_CH1
    */
    GPIO_InitStruct.Pin = GPIO_PIN_8;
 8001ffa:	f44f 7380 	mov.w	r3, #256	; 0x100
 8001ffe:	627b      	str	r3, [r7, #36]	; 0x24
    GPIO_InitStruct.Mode = GPIO_MODE_AF_PP;
 8002000:	2302      	movs	r3, #2
 8002002:	62bb      	str	r3, [r7, #40]	; 0x28
    GPIO_InitStruct.Pull = GPIO_NOPULL;
 8002004:	2300      	movs	r3, #0
 8002006:	62fb      	str	r3, [r7, #44]	; 0x2c
    GPIO_InitStruct.Speed = GPIO_SPEED_FREQ_LOW;
 8002008:	2300      	movs	r3, #0
 800200a:	633b      	str	r3, [r7, #48]	; 0x30
    GPIO_InitStruct.Alternate = GPIO_AF1_TIM1;
 800200c:	2301      	movs	r3, #1
 800200e:	637b      	str	r3, [r7, #52]	; 0x34
    HAL_GPIO_Init(GPIOA, &GPIO_InitStruct);
 8002010:	f107 0324 	add.w	r3, r7, #36	; 0x24
 8002014:	4619      	mov	r1, r3
 8002016:	4860      	ldr	r0, [pc, #384]	; (8002198 <HAL_TIM_MspPostInit+0x1dc>)
 8002018:	f000 fbf6 	bl	8002808 <HAL_GPIO_Init>
  /* USER CODE BEGIN TIM12_MspPostInit 1 */

  /* USER CODE END TIM12_MspPostInit 1 */
  }

}
 800201c:	e0b3      	b.n	8002186 <HAL_TIM_MspPostInit+0x1ca>
  else if(htim->Instance==TIM3)
 800201e:	687b      	ldr	r3, [r7, #4]
 8002020:	681b      	ldr	r3, [r3, #0]
 8002022:	4a5e      	ldr	r2, [pc, #376]	; (800219c <HAL_TIM_MspPostInit+0x1e0>)
 8002024:	4293      	cmp	r3, r2
 8002026:	d11e      	bne.n	8002066 <HAL_TIM_MspPostInit+0xaa>
    __HAL_RCC_GPIOA_CLK_ENABLE();
 8002028:	2300      	movs	r3, #0
 800202a:	61fb      	str	r3, [r7, #28]
 800202c:	4b59      	ldr	r3, [pc, #356]	; (8002194 <HAL_TIM_MspPostInit+0x1d8>)
 800202e:	6b1b      	ldr	r3, [r3, #48]	; 0x30
 8002030:	4a58      	ldr	r2, [pc, #352]	; (8002194 <HAL_TIM_MspPostInit+0x1d8>)
 8002032:	f043 0301 	orr.w	r3, r3, #1
 8002036:	6313      	str	r3, [r2, #48]	; 0x30
 8002038:	4b56      	ldr	r3, [pc, #344]	; (8002194 <HAL_TIM_MspPostInit+0x1d8>)
 800203a:	6b1b      	ldr	r3, [r3, #48]	; 0x30
 800203c:	f003 0301 	and.w	r3, r3, #1
 8002040:	61fb      	str	r3, [r7, #28]
 8002042:	69fb      	ldr	r3, [r7, #28]
    GPIO_InitStruct.Pin = GPIO_PIN_6;
 8002044:	2340      	movs	r3, #64	; 0x40
 8002046:	627b      	str	r3, [r7, #36]	; 0x24
    GPIO_InitStruct.Mode = GPIO_MODE_AF_PP;
 8002048:	2302      	movs	r3, #2
 800204a:	62bb      	str	r3, [r7, #40]	; 0x28
    GPIO_InitStruct.Pull = GPIO_NOPULL;
 800204c:	2300      	movs	r3, #0
 800204e:	62fb      	str	r3, [r7, #44]	; 0x2c
    GPIO_InitStruct.Speed = GPIO_SPEED_FREQ_LOW;
 8002050:	2300      	movs	r3, #0
 8002052:	633b      	str	r3, [r7, #48]	; 0x30
    GPIO_InitStruct.Alternate = GPIO_AF2_TIM3;
 8002054:	2302      	movs	r3, #2
 8002056:	637b      	str	r3, [r7, #52]	; 0x34
    HAL_GPIO_Init(GPIOA, &GPIO_InitStruct);
 8002058:	f107 0324 	add.w	r3, r7, #36	; 0x24
 800205c:	4619      	mov	r1, r3
 800205e:	484e      	ldr	r0, [pc, #312]	; (8002198 <HAL_TIM_MspPostInit+0x1dc>)
 8002060:	f000 fbd2 	bl	8002808 <HAL_GPIO_Init>
}
 8002064:	e08f      	b.n	8002186 <HAL_TIM_MspPostInit+0x1ca>
  else if(htim->Instance==TIM4)
 8002066:	687b      	ldr	r3, [r7, #4]
 8002068:	681b      	ldr	r3, [r3, #0]
 800206a:	4a4d      	ldr	r2, [pc, #308]	; (80021a0 <HAL_TIM_MspPostInit+0x1e4>)
 800206c:	4293      	cmp	r3, r2
 800206e:	d11e      	bne.n	80020ae <HAL_TIM_MspPostInit+0xf2>
    __HAL_RCC_GPIOB_CLK_ENABLE();
 8002070:	2300      	movs	r3, #0
 8002072:	61bb      	str	r3, [r7, #24]
 8002074:	4b47      	ldr	r3, [pc, #284]	; (8002194 <HAL_TIM_MspPostInit+0x1d8>)
 8002076:	6b1b      	ldr	r3, [r3, #48]	; 0x30
 8002078:	4a46      	ldr	r2, [pc, #280]	; (8002194 <HAL_TIM_MspPostInit+0x1d8>)
 800207a:	f043 0302 	orr.w	r3, r3, #2
 800207e:	6313      	str	r3, [r2, #48]	; 0x30
 8002080:	4b44      	ldr	r3, [pc, #272]	; (8002194 <HAL_TIM_MspPostInit+0x1d8>)
 8002082:	6b1b      	ldr	r3, [r3, #48]	; 0x30
 8002084:	f003 0302 	and.w	r3, r3, #2
 8002088:	61bb      	str	r3, [r7, #24]
 800208a:	69bb      	ldr	r3, [r7, #24]
    GPIO_InitStruct.Pin = GPIO_PIN_6;
 800208c:	2340      	movs	r3, #64	; 0x40
 800208e:	627b      	str	r3, [r7, #36]	; 0x24
    GPIO_InitStruct.Mode = GPIO_MODE_AF_PP;
 8002090:	2302      	movs	r3, #2
 8002092:	62bb      	str	r3, [r7, #40]	; 0x28
    GPIO_InitStruct.Pull = GPIO_NOPULL;
 8002094:	2300      	movs	r3, #0
 8002096:	62fb      	str	r3, [r7, #44]	; 0x2c
    GPIO_InitStruct.Speed = GPIO_SPEED_FREQ_LOW;
 8002098:	2300      	movs	r3, #0
 800209a:	633b      	str	r3, [r7, #48]	; 0x30
    GPIO_InitStruct.Alternate = GPIO_AF2_TIM4;
 800209c:	2302      	movs	r3, #2
 800209e:	637b      	str	r3, [r7, #52]	; 0x34
    HAL_GPIO_Init(GPIOB, &GPIO_InitStruct);
 80020a0:	f107 0324 	add.w	r3, r7, #36	; 0x24
 80020a4:	4619      	mov	r1, r3
 80020a6:	483f      	ldr	r0, [pc, #252]	; (80021a4 <HAL_TIM_MspPostInit+0x1e8>)
 80020a8:	f000 fbae 	bl	8002808 <HAL_GPIO_Init>
}
 80020ac:	e06b      	b.n	8002186 <HAL_TIM_MspPostInit+0x1ca>
  else if(htim->Instance==TIM5)
 80020ae:	687b      	ldr	r3, [r7, #4]
 80020b0:	681b      	ldr	r3, [r3, #0]
 80020b2:	4a3d      	ldr	r2, [pc, #244]	; (80021a8 <HAL_TIM_MspPostInit+0x1ec>)
 80020b4:	4293      	cmp	r3, r2
 80020b6:	d11e      	bne.n	80020f6 <HAL_TIM_MspPostInit+0x13a>
    __HAL_RCC_GPIOA_CLK_ENABLE();
 80020b8:	2300      	movs	r3, #0
 80020ba:	617b      	str	r3, [r7, #20]
 80020bc:	4b35      	ldr	r3, [pc, #212]	; (8002194 <HAL_TIM_MspPostInit+0x1d8>)
 80020be:	6b1b      	ldr	r3, [r3, #48]	; 0x30
 80020c0:	4a34      	ldr	r2, [pc, #208]	; (8002194 <HAL_TIM_MspPostInit+0x1d8>)
 80020c2:	f043 0301 	orr.w	r3, r3, #1
 80020c6:	6313      	str	r3, [r2, #48]	; 0x30
 80020c8:	4b32      	ldr	r3, [pc, #200]	; (8002194 <HAL_TIM_MspPostInit+0x1d8>)
 80020ca:	6b1b      	ldr	r3, [r3, #48]	; 0x30
 80020cc:	f003 0301 	and.w	r3, r3, #1
 80020d0:	617b      	str	r3, [r7, #20]
 80020d2:	697b      	ldr	r3, [r7, #20]
    GPIO_InitStruct.Pin = GPIO_PIN_0;
 80020d4:	2301      	movs	r3, #1
 80020d6:	627b      	str	r3, [r7, #36]	; 0x24
    GPIO_InitStruct.Mode = GPIO_MODE_AF_PP;
 80020d8:	2302      	movs	r3, #2
 80020da:	62bb      	str	r3, [r7, #40]	; 0x28
    GPIO_InitStruct.Pull = GPIO_NOPULL;
 80020dc:	2300      	movs	r3, #0
 80020de:	62fb      	str	r3, [r7, #44]	; 0x2c
    GPIO_InitStruct.Speed = GPIO_SPEED_FREQ_LOW;
 80020e0:	2300      	movs	r3, #0
 80020e2:	633b      	str	r3, [r7, #48]	; 0x30
    GPIO_InitStruct.Alternate = GPIO_AF2_TIM5;
 80020e4:	2302      	movs	r3, #2
 80020e6:	637b      	str	r3, [r7, #52]	; 0x34
    HAL_GPIO_Init(GPIOA, &GPIO_InitStruct);
 80020e8:	f107 0324 	add.w	r3, r7, #36	; 0x24
 80020ec:	4619      	mov	r1, r3
 80020ee:	482a      	ldr	r0, [pc, #168]	; (8002198 <HAL_TIM_MspPostInit+0x1dc>)
 80020f0:	f000 fb8a 	bl	8002808 <HAL_GPIO_Init>
}
 80020f4:	e047      	b.n	8002186 <HAL_TIM_MspPostInit+0x1ca>
  else if(htim->Instance==TIM8)
 80020f6:	687b      	ldr	r3, [r7, #4]
 80020f8:	681b      	ldr	r3, [r3, #0]
 80020fa:	4a2c      	ldr	r2, [pc, #176]	; (80021ac <HAL_TIM_MspPostInit+0x1f0>)
 80020fc:	4293      	cmp	r3, r2
 80020fe:	d11e      	bne.n	800213e <HAL_TIM_MspPostInit+0x182>
    __HAL_RCC_GPIOC_CLK_ENABLE();
 8002100:	2300      	movs	r3, #0
 8002102:	613b      	str	r3, [r7, #16]
 8002104:	4b23      	ldr	r3, [pc, #140]	; (8002194 <HAL_TIM_MspPostInit+0x1d8>)
 8002106:	6b1b      	ldr	r3, [r3, #48]	; 0x30
 8002108:	4a22      	ldr	r2, [pc, #136]	; (8002194 <HAL_TIM_MspPostInit+0x1d8>)
 800210a:	f043 0304 	orr.w	r3, r3, #4
 800210e:	6313      	str	r3, [r2, #48]	; 0x30
 8002110:	4b20      	ldr	r3, [pc, #128]	; (8002194 <HAL_TIM_MspPostInit+0x1d8>)
 8002112:	6b1b      	ldr	r3, [r3, #48]	; 0x30
 8002114:	f003 0304 	and.w	r3, r3, #4
 8002118:	613b      	str	r3, [r7, #16]
 800211a:	693b      	ldr	r3, [r7, #16]
    GPIO_InitStruct.Pin = GPIO_PIN_6;
 800211c:	2340      	movs	r3, #64	; 0x40
 800211e:	627b      	str	r3, [r7, #36]	; 0x24
    GPIO_InitStruct.Mode = GPIO_MODE_AF_PP;
 8002120:	2302      	movs	r3, #2
 8002122:	62bb      	str	r3, [r7, #40]	; 0x28
    GPIO_InitStruct.Pull = GPIO_NOPULL;
 8002124:	2300      	movs	r3, #0
 8002126:	62fb      	str	r3, [r7, #44]	; 0x2c
    GPIO_InitStruct.Speed = GPIO_SPEED_FREQ_LOW;
 8002128:	2300      	movs	r3, #0
 800212a:	633b      	str	r3, [r7, #48]	; 0x30
    GPIO_InitStruct.Alternate = GPIO_AF3_TIM8;
 800212c:	2303      	movs	r3, #3
 800212e:	637b      	str	r3, [r7, #52]	; 0x34
    HAL_GPIO_Init(GPIOC, &GPIO_InitStruct);
 8002130:	f107 0324 	add.w	r3, r7, #36	; 0x24
 8002134:	4619      	mov	r1, r3
 8002136:	481e      	ldr	r0, [pc, #120]	; (80021b0 <HAL_TIM_MspPostInit+0x1f4>)
 8002138:	f000 fb66 	bl	8002808 <HAL_GPIO_Init>
}
 800213c:	e023      	b.n	8002186 <HAL_TIM_MspPostInit+0x1ca>
  else if(htim->Instance==TIM12)
 800213e:	687b      	ldr	r3, [r7, #4]
 8002140:	681b      	ldr	r3, [r3, #0]
 8002142:	4a1c      	ldr	r2, [pc, #112]	; (80021b4 <HAL_TIM_MspPostInit+0x1f8>)
 8002144:	4293      	cmp	r3, r2
 8002146:	d11e      	bne.n	8002186 <HAL_TIM_MspPostInit+0x1ca>
    __HAL_RCC_GPIOB_CLK_ENABLE();
 8002148:	2300      	movs	r3, #0
 800214a:	60fb      	str	r3, [r7, #12]
 800214c:	4b11      	ldr	r3, [pc, #68]	; (8002194 <HAL_TIM_MspPostInit+0x1d8>)
 800214e:	6b1b      	ldr	r3, [r3, #48]	; 0x30
 8002150:	4a10      	ldr	r2, [pc, #64]	; (8002194 <HAL_TIM_MspPostInit+0x1d8>)
 8002152:	f043 0302 	orr.w	r3, r3, #2
 8002156:	6313      	str	r3, [r2, #48]	; 0x30
 8002158:	4b0e      	ldr	r3, [pc, #56]	; (8002194 <HAL_TIM_MspPostInit+0x1d8>)
 800215a:	6b1b      	ldr	r3, [r3, #48]	; 0x30
 800215c:	f003 0302 	and.w	r3, r3, #2
 8002160:	60fb      	str	r3, [r7, #12]
 8002162:	68fb      	ldr	r3, [r7, #12]
    GPIO_InitStruct.Pin = GPIO_PIN_14;
 8002164:	f44f 4380 	mov.w	r3, #16384	; 0x4000
 8002168:	627b      	str	r3, [r7, #36]	; 0x24
    GPIO_InitStruct.Mode = GPIO_MODE_AF_PP;
 800216a:	2302      	movs	r3, #2
 800216c:	62bb      	str	r3, [r7, #40]	; 0x28
    GPIO_InitStruct.Pull = GPIO_NOPULL;
 800216e:	2300      	movs	r3, #0
 8002170:	62fb      	str	r3, [r7, #44]	; 0x2c
    GPIO_InitStruct.Speed = GPIO_SPEED_FREQ_LOW;
 8002172:	2300      	movs	r3, #0
 8002174:	633b      	str	r3, [r7, #48]	; 0x30
    GPIO_InitStruct.Alternate = GPIO_AF9_TIM12;
 8002176:	2309      	movs	r3, #9
 8002178:	637b      	str	r3, [r7, #52]	; 0x34
    HAL_GPIO_Init(GPIOB, &GPIO_InitStruct);
 800217a:	f107 0324 	add.w	r3, r7, #36	; 0x24
 800217e:	4619      	mov	r1, r3
 8002180:	4808      	ldr	r0, [pc, #32]	; (80021a4 <HAL_TIM_MspPostInit+0x1e8>)
 8002182:	f000 fb41 	bl	8002808 <HAL_GPIO_Init>
}
 8002186:	bf00      	nop
 8002188:	3738      	adds	r7, #56	; 0x38
 800218a:	46bd      	mov	sp, r7
 800218c:	bd80      	pop	{r7, pc}
 800218e:	bf00      	nop
 8002190:	40010000 	.word	0x40010000
 8002194:	40023800 	.word	0x40023800
 8002198:	40020000 	.word	0x40020000
 800219c:	40000400 	.word	0x40000400
 80021a0:	40000800 	.word	0x40000800
 80021a4:	40020400 	.word	0x40020400
 80021a8:	40000c00 	.word	0x40000c00
 80021ac:	40010400 	.word	0x40010400
 80021b0:	40020800 	.word	0x40020800
 80021b4:	40001800 	.word	0x40001800

080021b8 <HAL_UART_MspInit>:
* This function configures the hardware resources used in this example
* @param huart: UART handle pointer
* @retval None
*/
void HAL_UART_MspInit(UART_HandleTypeDef* huart)
{
 80021b8:	b580      	push	{r7, lr}
 80021ba:	b08a      	sub	sp, #40	; 0x28
 80021bc:	af00      	add	r7, sp, #0
 80021be:	6078      	str	r0, [r7, #4]
  GPIO_InitTypeDef GPIO_InitStruct = {0};
 80021c0:	f107 0314 	add.w	r3, r7, #20
 80021c4:	2200      	movs	r2, #0
 80021c6:	601a      	str	r2, [r3, #0]
 80021c8:	605a      	str	r2, [r3, #4]
 80021ca:	609a      	str	r2, [r3, #8]
 80021cc:	60da      	str	r2, [r3, #12]
 80021ce:	611a      	str	r2, [r3, #16]
  if(huart->Instance==USART2)
 80021d0:	687b      	ldr	r3, [r7, #4]
 80021d2:	681b      	ldr	r3, [r3, #0]
 80021d4:	4a19      	ldr	r2, [pc, #100]	; (800223c <HAL_UART_MspInit+0x84>)
 80021d6:	4293      	cmp	r3, r2
 80021d8:	d12b      	bne.n	8002232 <HAL_UART_MspInit+0x7a>
  {
  /* USER CODE BEGIN USART2_MspInit 0 */

  /* USER CODE END USART2_MspInit 0 */
    /* Peripheral clock enable */
    __HAL_RCC_USART2_CLK_ENABLE();
 80021da:	2300      	movs	r3, #0
 80021dc:	613b      	str	r3, [r7, #16]
 80021de:	4b18      	ldr	r3, [pc, #96]	; (8002240 <HAL_UART_MspInit+0x88>)
 80021e0:	6c1b      	ldr	r3, [r3, #64]	; 0x40
 80021e2:	4a17      	ldr	r2, [pc, #92]	; (8002240 <HAL_UART_MspInit+0x88>)
 80021e4:	f443 3300 	orr.w	r3, r3, #131072	; 0x20000
 80021e8:	6413      	str	r3, [r2, #64]	; 0x40
 80021ea:	4b15      	ldr	r3, [pc, #84]	; (8002240 <HAL_UART_MspInit+0x88>)
 80021ec:	6c1b      	ldr	r3, [r3, #64]	; 0x40
 80021ee:	f403 3300 	and.w	r3, r3, #131072	; 0x20000
 80021f2:	613b      	str	r3, [r7, #16]
 80021f4:	693b      	ldr	r3, [r7, #16]

    __HAL_RCC_GPIOA_CLK_ENABLE();
 80021f6:	2300      	movs	r3, #0
 80021f8:	60fb      	str	r3, [r7, #12]
 80021fa:	4b11      	ldr	r3, [pc, #68]	; (8002240 <HAL_UART_MspInit+0x88>)
 80021fc:	6b1b      	ldr	r3, [r3, #48]	; 0x30
 80021fe:	4a10      	ldr	r2, [pc, #64]	; (8002240 <HAL_UART_MspInit+0x88>)
 8002200:	f043 0301 	orr.w	r3, r3, #1
 8002204:	6313      	str	r3, [r2, #48]	; 0x30
 8002206:	4b0e      	ldr	r3, [pc, #56]	; (8002240 <HAL_UART_MspInit+0x88>)
 8002208:	6b1b      	ldr	r3, [r3, #48]	; 0x30
 800220a:	f003 0301 	and.w	r3, r3, #1
 800220e:	60fb      	str	r3, [r7, #12]
 8002210:	68fb      	ldr	r3, [r7, #12]
    /**USART2 GPIO Configuration
    PA2     ------> USART2_TX
    PA3     ------> USART2_RX
    */
    GPIO_InitStruct.Pin = USART_TX_Pin|USART_RX_Pin;
 8002212:	230c      	movs	r3, #12
 8002214:	617b      	str	r3, [r7, #20]
    GPIO_InitStruct.Mode = GPIO_MODE_AF_PP;
 8002216:	2302      	movs	r3, #2
 8002218:	61bb      	str	r3, [r7, #24]
    GPIO_InitStruct.Pull = GPIO_NOPULL;
 800221a:	2300      	movs	r3, #0
 800221c:	61fb      	str	r3, [r7, #28]
    GPIO_InitStruct.Speed = GPIO_SPEED_FREQ_VERY_HIGH;
 800221e:	2303      	movs	r3, #3
 8002220:	623b      	str	r3, [r7, #32]
    GPIO_InitStruct.Alternate = GPIO_AF7_USART2;
 8002222:	2307      	movs	r3, #7
 8002224:	627b      	str	r3, [r7, #36]	; 0x24
    HAL_GPIO_Init(GPIOA, &GPIO_InitStruct);
 8002226:	f107 0314 	add.w	r3, r7, #20
 800222a:	4619      	mov	r1, r3
 800222c:	4805      	ldr	r0, [pc, #20]	; (8002244 <HAL_UART_MspInit+0x8c>)
 800222e:	f000 faeb 	bl	8002808 <HAL_GPIO_Init>
  /* USER CODE BEGIN USART2_MspInit 1 */

  /* USER CODE END USART2_MspInit 1 */
  }

}
 8002232:	bf00      	nop
 8002234:	3728      	adds	r7, #40	; 0x28
 8002236:	46bd      	mov	sp, r7
 8002238:	bd80      	pop	{r7, pc}
 800223a:	bf00      	nop
 800223c:	40004400 	.word	0x40004400
 8002240:	40023800 	.word	0x40023800
 8002244:	40020000 	.word	0x40020000

08002248 <NMI_Handler>:
/******************************************************************************/
/**
  * @brief This function handles Non maskable interrupt.
  */
void NMI_Handler(void)
{
 8002248:	b480      	push	{r7}
 800224a:	af00      	add	r7, sp, #0
  /* USER CODE BEGIN NonMaskableInt_IRQn 0 */

  /* USER CODE END NonMaskableInt_IRQn 0 */
  /* USER CODE BEGIN NonMaskableInt_IRQn 1 */
  while (1)
 800224c:	e7fe      	b.n	800224c <NMI_Handler+0x4>

0800224e <HardFault_Handler>:

/**
  * @brief This function handles Hard fault interrupt.
  */
void HardFault_Handler(void)
{
 800224e:	b480      	push	{r7}
 8002250:	af00      	add	r7, sp, #0
  /* USER CODE BEGIN HardFault_IRQn 0 */

  /* USER CODE END HardFault_IRQn 0 */
  while (1)
 8002252:	e7fe      	b.n	8002252 <HardFault_Handler+0x4>

08002254 <MemManage_Handler>:

/**
  * @brief This function handles Memory management fault.
  */
void MemManage_Handler(void)
{
 8002254:	b480      	push	{r7}
 8002256:	af00      	add	r7, sp, #0
  /* USER CODE BEGIN MemoryManagement_IRQn 0 */

  /* USER CODE END MemoryManagement_IRQn 0 */
  while (1)
 8002258:	e7fe      	b.n	8002258 <MemManage_Handler+0x4>

0800225a <BusFault_Handler>:

/**
  * @brief This function handles Pre-fetch fault, memory access fault.
  */
void BusFault_Handler(void)
{
 800225a:	b480      	push	{r7}
 800225c:	af00      	add	r7, sp, #0
  /* USER CODE BEGIN BusFault_IRQn 0 */

  /* USER CODE END BusFault_IRQn 0 */
  while (1)
 800225e:	e7fe      	b.n	800225e <BusFault_Handler+0x4>

08002260 <UsageFault_Handler>:

/**
  * @brief This function handles Undefined instruction or illegal state.
  */
void UsageFault_Handler(void)
{
 8002260:	b480      	push	{r7}
 8002262:	af00      	add	r7, sp, #0
  /* USER CODE BEGIN UsageFault_IRQn 0 */

  /* USER CODE END UsageFault_IRQn 0 */
  while (1)
 8002264:	e7fe      	b.n	8002264 <UsageFault_Handler+0x4>

08002266 <SVC_Handler>:

/**
  * @brief This function handles System service call via SWI instruction.
  */
void SVC_Handler(void)
{
 8002266:	b480      	push	{r7}
 8002268:	af00      	add	r7, sp, #0

  /* USER CODE END SVCall_IRQn 0 */
  /* USER CODE BEGIN SVCall_IRQn 1 */

  /* USER CODE END SVCall_IRQn 1 */
}
 800226a:	bf00      	nop
 800226c:	46bd      	mov	sp, r7
 800226e:	f85d 7b04 	ldr.w	r7, [sp], #4
 8002272:	4770      	bx	lr

08002274 <DebugMon_Handler>:

/**
  * @brief This function handles Debug monitor.
  */
void DebugMon_Handler(void)
{
 8002274:	b480      	push	{r7}
 8002276:	af00      	add	r7, sp, #0

  /* USER CODE END DebugMonitor_IRQn 0 */
  /* USER CODE BEGIN DebugMonitor_IRQn 1 */

  /* USER CODE END DebugMonitor_IRQn 1 */
}
 8002278:	bf00      	nop
 800227a:	46bd      	mov	sp, r7
 800227c:	f85d 7b04 	ldr.w	r7, [sp], #4
 8002280:	4770      	bx	lr

08002282 <PendSV_Handler>:

/**
  * @brief This function handles Pendable request for system service.
  */
void PendSV_Handler(void)
{
 8002282:	b480      	push	{r7}
 8002284:	af00      	add	r7, sp, #0

  /* USER CODE END PendSV_IRQn 0 */
  /* USER CODE BEGIN PendSV_IRQn 1 */

  /* USER CODE END PendSV_IRQn 1 */
}
 8002286:	bf00      	nop
 8002288:	46bd      	mov	sp, r7
 800228a:	f85d 7b04 	ldr.w	r7, [sp], #4
 800228e:	4770      	bx	lr

08002290 <SysTick_Handler>:

/**
  * @brief This function handles System tick timer.
  */
void SysTick_Handler(void)
{
 8002290:	b580      	push	{r7, lr}
 8002292:	af00      	add	r7, sp, #0
  /* USER CODE BEGIN SysTick_IRQn 0 */

  /* USER CODE END SysTick_IRQn 0 */
  HAL_IncTick();
 8002294:	f000 f962 	bl	800255c <HAL_IncTick>
  /* USER CODE BEGIN SysTick_IRQn 1 */
  SysTick_CallBack();
 8002298:	f7ff fd26 	bl	8001ce8 <SysTick_CallBack>
  /* USER CODE END SysTick_IRQn 1 */
}
 800229c:	bf00      	nop
 800229e:	bd80      	pop	{r7, pc}

080022a0 <TIM2_IRQHandler>:

/**
  * @brief This function handles TIM2 global interrupt.
  */
void TIM2_IRQHandler(void)
{
 80022a0:	b580      	push	{r7, lr}
 80022a2:	af00      	add	r7, sp, #0
  /* USER CODE BEGIN TIM2_IRQn 0 */

  /* USER CODE END TIM2_IRQn 0 */
  HAL_TIM_IRQHandler(&htim2);
 80022a4:	4802      	ldr	r0, [pc, #8]	; (80022b0 <TIM2_IRQHandler+0x10>)
 80022a6:	f001 fd21 	bl	8003cec <HAL_TIM_IRQHandler>
  /* USER CODE BEGIN TIM2_IRQn 1 */

  /* USER CODE END TIM2_IRQn 1 */
}
 80022aa:	bf00      	nop
 80022ac:	bd80      	pop	{r7, pc}
 80022ae:	bf00      	nop
 80022b0:	2000045c 	.word	0x2000045c

080022b4 <_getpid>:
void initialise_monitor_handles()
{
}

int _getpid(void)
{
 80022b4:	b480      	push	{r7}
 80022b6:	af00      	add	r7, sp, #0
	return 1;
 80022b8:	2301      	movs	r3, #1
}
 80022ba:	4618      	mov	r0, r3
 80022bc:	46bd      	mov	sp, r7
 80022be:	f85d 7b04 	ldr.w	r7, [sp], #4
 80022c2:	4770      	bx	lr

080022c4 <_kill>:

int _kill(int pid, int sig)
{
 80022c4:	b580      	push	{r7, lr}
 80022c6:	b082      	sub	sp, #8
 80022c8:	af00      	add	r7, sp, #0
 80022ca:	6078      	str	r0, [r7, #4]
 80022cc:	6039      	str	r1, [r7, #0]
	errno = EINVAL;
 80022ce:	f003 fde9 	bl	8005ea4 <__errno>
 80022d2:	4603      	mov	r3, r0
 80022d4:	2216      	movs	r2, #22
 80022d6:	601a      	str	r2, [r3, #0]
	return -1;
 80022d8:	f04f 33ff 	mov.w	r3, #4294967295	; 0xffffffff
}
 80022dc:	4618      	mov	r0, r3
 80022de:	3708      	adds	r7, #8
 80022e0:	46bd      	mov	sp, r7
 80022e2:	bd80      	pop	{r7, pc}

080022e4 <_exit>:

void _exit (int status)
{
 80022e4:	b580      	push	{r7, lr}
 80022e6:	b082      	sub	sp, #8
 80022e8:	af00      	add	r7, sp, #0
 80022ea:	6078      	str	r0, [r7, #4]
	_kill(status, -1);
 80022ec:	f04f 31ff 	mov.w	r1, #4294967295	; 0xffffffff
 80022f0:	6878      	ldr	r0, [r7, #4]
 80022f2:	f7ff ffe7 	bl	80022c4 <_kill>
	while (1) {}		/* Make sure we hang here */
 80022f6:	e7fe      	b.n	80022f6 <_exit+0x12>

080022f8 <_read>:
}

__attribute__((weak)) int _read(int file, char *ptr, int len)
{
 80022f8:	b580      	push	{r7, lr}
 80022fa:	b086      	sub	sp, #24
 80022fc:	af00      	add	r7, sp, #0
 80022fe:	60f8      	str	r0, [r7, #12]
 8002300:	60b9      	str	r1, [r7, #8]
 8002302:	607a      	str	r2, [r7, #4]
	int DataIdx;

	for (DataIdx = 0; DataIdx < len; DataIdx++)
 8002304:	2300      	movs	r3, #0
 8002306:	617b      	str	r3, [r7, #20]
 8002308:	e00a      	b.n	8002320 <_read+0x28>
	{
		*ptr++ = __io_getchar();
 800230a:	f3af 8000 	nop.w
 800230e:	4601      	mov	r1, r0
 8002310:	68bb      	ldr	r3, [r7, #8]
 8002312:	1c5a      	adds	r2, r3, #1
 8002314:	60ba      	str	r2, [r7, #8]
 8002316:	b2ca      	uxtb	r2, r1
 8002318:	701a      	strb	r2, [r3, #0]
	for (DataIdx = 0; DataIdx < len; DataIdx++)
 800231a:	697b      	ldr	r3, [r7, #20]
 800231c:	3301      	adds	r3, #1
 800231e:	617b      	str	r3, [r7, #20]
 8002320:	697a      	ldr	r2, [r7, #20]
 8002322:	687b      	ldr	r3, [r7, #4]
 8002324:	429a      	cmp	r2, r3
 8002326:	dbf0      	blt.n	800230a <_read+0x12>
	}

return len;
 8002328:	687b      	ldr	r3, [r7, #4]
}
 800232a:	4618      	mov	r0, r3
 800232c:	3718      	adds	r7, #24
 800232e:	46bd      	mov	sp, r7
 8002330:	bd80      	pop	{r7, pc}

08002332 <_write>:

__attribute__((weak)) int _write(int file, char *ptr, int len)
{
 8002332:	b580      	push	{r7, lr}
 8002334:	b086      	sub	sp, #24
 8002336:	af00      	add	r7, sp, #0
 8002338:	60f8      	str	r0, [r7, #12]
 800233a:	60b9      	str	r1, [r7, #8]
 800233c:	607a      	str	r2, [r7, #4]
	int DataIdx;

	for (DataIdx = 0; DataIdx < len; DataIdx++)
 800233e:	2300      	movs	r3, #0
 8002340:	617b      	str	r3, [r7, #20]
 8002342:	e009      	b.n	8002358 <_write+0x26>
	{
		__io_putchar(*ptr++);
 8002344:	68bb      	ldr	r3, [r7, #8]
 8002346:	1c5a      	adds	r2, r3, #1
 8002348:	60ba      	str	r2, [r7, #8]
 800234a:	781b      	ldrb	r3, [r3, #0]
 800234c:	4618      	mov	r0, r3
 800234e:	f3af 8000 	nop.w
	for (DataIdx = 0; DataIdx < len; DataIdx++)
 8002352:	697b      	ldr	r3, [r7, #20]
 8002354:	3301      	adds	r3, #1
 8002356:	617b      	str	r3, [r7, #20]
 8002358:	697a      	ldr	r2, [r7, #20]
 800235a:	687b      	ldr	r3, [r7, #4]
 800235c:	429a      	cmp	r2, r3
 800235e:	dbf1      	blt.n	8002344 <_write+0x12>
	}
	return len;
 8002360:	687b      	ldr	r3, [r7, #4]
}
 8002362:	4618      	mov	r0, r3
 8002364:	3718      	adds	r7, #24
 8002366:	46bd      	mov	sp, r7
 8002368:	bd80      	pop	{r7, pc}

0800236a <_close>:

int _close(int file)
{
 800236a:	b480      	push	{r7}
 800236c:	b083      	sub	sp, #12
 800236e:	af00      	add	r7, sp, #0
 8002370:	6078      	str	r0, [r7, #4]
	return -1;
 8002372:	f04f 33ff 	mov.w	r3, #4294967295	; 0xffffffff
}
 8002376:	4618      	mov	r0, r3
 8002378:	370c      	adds	r7, #12
 800237a:	46bd      	mov	sp, r7
 800237c:	f85d 7b04 	ldr.w	r7, [sp], #4
 8002380:	4770      	bx	lr

08002382 <_fstat>:


int _fstat(int file, struct stat *st)
{
 8002382:	b480      	push	{r7}
 8002384:	b083      	sub	sp, #12
 8002386:	af00      	add	r7, sp, #0
 8002388:	6078      	str	r0, [r7, #4]
 800238a:	6039      	str	r1, [r7, #0]
	st->st_mode = S_IFCHR;
 800238c:	683b      	ldr	r3, [r7, #0]
 800238e:	f44f 5200 	mov.w	r2, #8192	; 0x2000
 8002392:	605a      	str	r2, [r3, #4]
	return 0;
 8002394:	2300      	movs	r3, #0
}
 8002396:	4618      	mov	r0, r3
 8002398:	370c      	adds	r7, #12
 800239a:	46bd      	mov	sp, r7
 800239c:	f85d 7b04 	ldr.w	r7, [sp], #4
 80023a0:	4770      	bx	lr

080023a2 <_isatty>:

int _isatty(int file)
{
 80023a2:	b480      	push	{r7}
 80023a4:	b083      	sub	sp, #12
 80023a6:	af00      	add	r7, sp, #0
 80023a8:	6078      	str	r0, [r7, #4]
	return 1;
 80023aa:	2301      	movs	r3, #1
}
 80023ac:	4618      	mov	r0, r3
 80023ae:	370c      	adds	r7, #12
 80023b0:	46bd      	mov	sp, r7
 80023b2:	f85d 7b04 	ldr.w	r7, [sp], #4
 80023b6:	4770      	bx	lr

080023b8 <_lseek>:

int _lseek(int file, int ptr, int dir)
{
 80023b8:	b480      	push	{r7}
 80023ba:	b085      	sub	sp, #20
 80023bc:	af00      	add	r7, sp, #0
 80023be:	60f8      	str	r0, [r7, #12]
 80023c0:	60b9      	str	r1, [r7, #8]
 80023c2:	607a      	str	r2, [r7, #4]
	return 0;
 80023c4:	2300      	movs	r3, #0
}
 80023c6:	4618      	mov	r0, r3
 80023c8:	3714      	adds	r7, #20
 80023ca:	46bd      	mov	sp, r7
 80023cc:	f85d 7b04 	ldr.w	r7, [sp], #4
 80023d0:	4770      	bx	lr
	...

080023d4 <_sbrk>:
 *
 * @param incr Memory size
 * @return Pointer to allocated memory
 */
void *_sbrk(ptrdiff_t incr)
{
 80023d4:	b580      	push	{r7, lr}
 80023d6:	b086      	sub	sp, #24
 80023d8:	af00      	add	r7, sp, #0
 80023da:	6078      	str	r0, [r7, #4]
  extern uint8_t _end; /* Symbol defined in the linker script */
  extern uint8_t _estack; /* Symbol defined in the linker script */
  extern uint32_t _Min_Stack_Size; /* Symbol defined in the linker script */
  const uint32_t stack_limit = (uint32_t)&_estack - (uint32_t)&_Min_Stack_Size;
 80023dc:	4a14      	ldr	r2, [pc, #80]	; (8002430 <_sbrk+0x5c>)
 80023de:	4b15      	ldr	r3, [pc, #84]	; (8002434 <_sbrk+0x60>)
 80023e0:	1ad3      	subs	r3, r2, r3
 80023e2:	617b      	str	r3, [r7, #20]
  const uint8_t *max_heap = (uint8_t *)stack_limit;
 80023e4:	697b      	ldr	r3, [r7, #20]
 80023e6:	613b      	str	r3, [r7, #16]
  uint8_t *prev_heap_end;

  /* Initialize heap end at first call */
  if (NULL == __sbrk_heap_end)
 80023e8:	4b13      	ldr	r3, [pc, #76]	; (8002438 <_sbrk+0x64>)
 80023ea:	681b      	ldr	r3, [r3, #0]
 80023ec:	2b00      	cmp	r3, #0
 80023ee:	d102      	bne.n	80023f6 <_sbrk+0x22>
  {
    __sbrk_heap_end = &_end;
 80023f0:	4b11      	ldr	r3, [pc, #68]	; (8002438 <_sbrk+0x64>)
 80023f2:	4a12      	ldr	r2, [pc, #72]	; (800243c <_sbrk+0x68>)
 80023f4:	601a      	str	r2, [r3, #0]
  }

  /* Protect heap from growing into the reserved MSP stack */
  if (__sbrk_heap_end + incr > max_heap)
 80023f6:	4b10      	ldr	r3, [pc, #64]	; (8002438 <_sbrk+0x64>)
 80023f8:	681a      	ldr	r2, [r3, #0]
 80023fa:	687b      	ldr	r3, [r7, #4]
 80023fc:	4413      	add	r3, r2
 80023fe:	693a      	ldr	r2, [r7, #16]
 8002400:	429a      	cmp	r2, r3
 8002402:	d207      	bcs.n	8002414 <_sbrk+0x40>
  {
    errno = ENOMEM;
 8002404:	f003 fd4e 	bl	8005ea4 <__errno>
 8002408:	4603      	mov	r3, r0
 800240a:	220c      	movs	r2, #12
 800240c:	601a      	str	r2, [r3, #0]
    return (void *)-1;
 800240e:	f04f 33ff 	mov.w	r3, #4294967295	; 0xffffffff
 8002412:	e009      	b.n	8002428 <_sbrk+0x54>
  }

  prev_heap_end = __sbrk_heap_end;
 8002414:	4b08      	ldr	r3, [pc, #32]	; (8002438 <_sbrk+0x64>)
 8002416:	681b      	ldr	r3, [r3, #0]
 8002418:	60fb      	str	r3, [r7, #12]
  __sbrk_heap_end += incr;
 800241a:	4b07      	ldr	r3, [pc, #28]	; (8002438 <_sbrk+0x64>)
 800241c:	681a      	ldr	r2, [r3, #0]
 800241e:	687b      	ldr	r3, [r7, #4]
 8002420:	4413      	add	r3, r2
 8002422:	4a05      	ldr	r2, [pc, #20]	; (8002438 <_sbrk+0x64>)
 8002424:	6013      	str	r3, [r2, #0]

  return (void *)prev_heap_end;
 8002426:	68fb      	ldr	r3, [r7, #12]
}
 8002428:	4618      	mov	r0, r3
 800242a:	3718      	adds	r7, #24
 800242c:	46bd      	mov	sp, r7
 800242e:	bd80      	pop	{r7, pc}
 8002430:	20020000 	.word	0x20020000
 8002434:	00000400 	.word	0x00000400
 8002438:	20000220 	.word	0x20000220
 800243c:	20000558 	.word	0x20000558

08002440 <SystemInit>:
  *         configuration.
  * @param  None
  * @retval None
  */
void SystemInit(void)
{
 8002440:	b480      	push	{r7}
 8002442:	af00      	add	r7, sp, #0
  /* FPU settings ------------------------------------------------------------*/
  #if (__FPU_PRESENT == 1) && (__FPU_USED == 1)
    SCB->CPACR |= ((3UL << 10*2)|(3UL << 11*2));  /* set CP10 and CP11 Full Access */
 8002444:	4b06      	ldr	r3, [pc, #24]	; (8002460 <SystemInit+0x20>)
 8002446:	f8d3 3088 	ldr.w	r3, [r3, #136]	; 0x88
 800244a:	4a05      	ldr	r2, [pc, #20]	; (8002460 <SystemInit+0x20>)
 800244c:	f443 0370 	orr.w	r3, r3, #15728640	; 0xf00000
 8002450:	f8c2 3088 	str.w	r3, [r2, #136]	; 0x88

  /* Configure the Vector Table location -------------------------------------*/
#if defined(USER_VECT_TAB_ADDRESS)
  SCB->VTOR = VECT_TAB_BASE_ADDRESS | VECT_TAB_OFFSET; /* Vector Table Relocation in Internal SRAM */
#endif /* USER_VECT_TAB_ADDRESS */
}
 8002454:	bf00      	nop
 8002456:	46bd      	mov	sp, r7
 8002458:	f85d 7b04 	ldr.w	r7, [sp], #4
 800245c:	4770      	bx	lr
 800245e:	bf00      	nop
 8002460:	e000ed00 	.word	0xe000ed00

08002464 <Reset_Handler>:

    .section  .text.Reset_Handler
  .weak  Reset_Handler
  .type  Reset_Handler, %function
Reset_Handler:  
  ldr   sp, =_estack      /* set stack pointer */
 8002464:	f8df d034 	ldr.w	sp, [pc, #52]	; 800249c <LoopFillZerobss+0x12>

/* Copy the data segment initializers from flash to SRAM */  
  ldr r0, =_sdata
 8002468:	480d      	ldr	r0, [pc, #52]	; (80024a0 <LoopFillZerobss+0x16>)
  ldr r1, =_edata
 800246a:	490e      	ldr	r1, [pc, #56]	; (80024a4 <LoopFillZerobss+0x1a>)
  ldr r2, =_sidata
 800246c:	4a0e      	ldr	r2, [pc, #56]	; (80024a8 <LoopFillZerobss+0x1e>)
  movs r3, #0
 800246e:	2300      	movs	r3, #0
  b LoopCopyDataInit
 8002470:	e002      	b.n	8002478 <LoopCopyDataInit>

08002472 <CopyDataInit>:

CopyDataInit:
  ldr r4, [r2, r3]
 8002472:	58d4      	ldr	r4, [r2, r3]
  str r4, [r0, r3]
 8002474:	50c4      	str	r4, [r0, r3]
  adds r3, r3, #4
 8002476:	3304      	adds	r3, #4

08002478 <LoopCopyDataInit>:

LoopCopyDataInit:
  adds r4, r0, r3
 8002478:	18c4      	adds	r4, r0, r3
  cmp r4, r1
 800247a:	428c      	cmp	r4, r1
  bcc CopyDataInit
 800247c:	d3f9      	bcc.n	8002472 <CopyDataInit>
  
/* Zero fill the bss segment. */
  ldr r2, =_sbss
 800247e:	4a0b      	ldr	r2, [pc, #44]	; (80024ac <LoopFillZerobss+0x22>)
  ldr r4, =_ebss
 8002480:	4c0b      	ldr	r4, [pc, #44]	; (80024b0 <LoopFillZerobss+0x26>)
  movs r3, #0
 8002482:	2300      	movs	r3, #0
  b LoopFillZerobss
 8002484:	e001      	b.n	800248a <LoopFillZerobss>

08002486 <FillZerobss>:

FillZerobss:
  str  r3, [r2]
 8002486:	6013      	str	r3, [r2, #0]
  adds r2, r2, #4
 8002488:	3204      	adds	r2, #4

0800248a <LoopFillZerobss>:

LoopFillZerobss:
  cmp r2, r4
 800248a:	42a2      	cmp	r2, r4
  bcc FillZerobss
 800248c:	d3fb      	bcc.n	8002486 <FillZerobss>

/* Call the clock system intitialization function.*/
  bl  SystemInit   
 800248e:	f7ff ffd7 	bl	8002440 <SystemInit>
/* Call static constructors */
    bl __libc_init_array
 8002492:	f003 fd0d 	bl	8005eb0 <__libc_init_array>
/* Call the application's entry point.*/
  bl  main
 8002496:	f7fe ff3b 	bl	8001310 <main>
  bx  lr    
 800249a:	4770      	bx	lr
  ldr   sp, =_estack      /* set stack pointer */
 800249c:	20020000 	.word	0x20020000
  ldr r0, =_sdata
 80024a0:	20000000 	.word	0x20000000
  ldr r1, =_edata
 80024a4:	200001f4 	.word	0x200001f4
  ldr r2, =_sidata
 80024a8:	08009124 	.word	0x08009124
  ldr r2, =_sbss
 80024ac:	200001f4 	.word	0x200001f4
  ldr r4, =_ebss
 80024b0:	20000558 	.word	0x20000558

080024b4 <ADC_IRQHandler>:
 * @retval None       
*/
    .section  .text.Default_Handler,"ax",%progbits
Default_Handler:
Infinite_Loop:
  b  Infinite_Loop
 80024b4:	e7fe      	b.n	80024b4 <ADC_IRQHandler>
	...

080024b8 <HAL_Init>:
  *         need to ensure that the SysTick time base is always set to 1 millisecond
  *         to have correct HAL operation.
  * @retval HAL status
  */
HAL_StatusTypeDef HAL_Init(void)
{
 80024b8:	b580      	push	{r7, lr}
 80024ba:	af00      	add	r7, sp, #0
  /* Configure Flash prefetch, Instruction cache, Data cache */ 
#if (INSTRUCTION_CACHE_ENABLE != 0U)
  __HAL_FLASH_INSTRUCTION_CACHE_ENABLE();
 80024bc:	4b0e      	ldr	r3, [pc, #56]	; (80024f8 <HAL_Init+0x40>)
 80024be:	681b      	ldr	r3, [r3, #0]
 80024c0:	4a0d      	ldr	r2, [pc, #52]	; (80024f8 <HAL_Init+0x40>)
 80024c2:	f443 7300 	orr.w	r3, r3, #512	; 0x200
 80024c6:	6013      	str	r3, [r2, #0]
#endif /* INSTRUCTION_CACHE_ENABLE */

#if (DATA_CACHE_ENABLE != 0U)
  __HAL_FLASH_DATA_CACHE_ENABLE();
 80024c8:	4b0b      	ldr	r3, [pc, #44]	; (80024f8 <HAL_Init+0x40>)
 80024ca:	681b      	ldr	r3, [r3, #0]
 80024cc:	4a0a      	ldr	r2, [pc, #40]	; (80024f8 <HAL_Init+0x40>)
 80024ce:	f443 6380 	orr.w	r3, r3, #1024	; 0x400
 80024d2:	6013      	str	r3, [r2, #0]
#endif /* DATA_CACHE_ENABLE */

#if (PREFETCH_ENABLE != 0U)
  __HAL_FLASH_PREFETCH_BUFFER_ENABLE();
 80024d4:	4b08      	ldr	r3, [pc, #32]	; (80024f8 <HAL_Init+0x40>)
 80024d6:	681b      	ldr	r3, [r3, #0]
 80024d8:	4a07      	ldr	r2, [pc, #28]	; (80024f8 <HAL_Init+0x40>)
 80024da:	f443 7380 	orr.w	r3, r3, #256	; 0x100
 80024de:	6013      	str	r3, [r2, #0]
#endif /* PREFETCH_ENABLE */

  /* Set Interrupt Group Priority */
  HAL_NVIC_SetPriorityGrouping(NVIC_PRIORITYGROUP_4);
 80024e0:	2003      	movs	r0, #3
 80024e2:	f000 f94f 	bl	8002784 <HAL_NVIC_SetPriorityGrouping>

  /* Use systick as time base source and configure 1ms tick (default clock after Reset is HSI) */
  HAL_InitTick(TICK_INT_PRIORITY);
 80024e6:	2000      	movs	r0, #0
 80024e8:	f000 f808 	bl	80024fc <HAL_InitTick>

  /* Init the low level hardware */
  HAL_MspInit();
 80024ec:	f7ff fc3e 	bl	8001d6c <HAL_MspInit>

  /* Return function status */
  return HAL_OK;
 80024f0:	2300      	movs	r3, #0
}
 80024f2:	4618      	mov	r0, r3
 80024f4:	bd80      	pop	{r7, pc}
 80024f6:	bf00      	nop
 80024f8:	40023c00 	.word	0x40023c00

080024fc <HAL_InitTick>:
  *       implementation  in user file.
  * @param TickPriority Tick interrupt priority.
  * @retval HAL status
  */
__weak HAL_StatusTypeDef HAL_InitTick(uint32_t TickPriority)
{
 80024fc:	b580      	push	{r7, lr}
 80024fe:	b082      	sub	sp, #8
 8002500:	af00      	add	r7, sp, #0
 8002502:	6078      	str	r0, [r7, #4]
  /* Configure the SysTick to have interrupt in 1ms time basis*/
  if (HAL_SYSTICK_Config(SystemCoreClock / (1000U / uwTickFreq)) > 0U)
 8002504:	4b12      	ldr	r3, [pc, #72]	; (8002550 <HAL_InitTick+0x54>)
 8002506:	681a      	ldr	r2, [r3, #0]
 8002508:	4b12      	ldr	r3, [pc, #72]	; (8002554 <HAL_InitTick+0x58>)
 800250a:	781b      	ldrb	r3, [r3, #0]
 800250c:	4619      	mov	r1, r3
 800250e:	f44f 737a 	mov.w	r3, #1000	; 0x3e8
 8002512:	fbb3 f3f1 	udiv	r3, r3, r1
 8002516:	fbb2 f3f3 	udiv	r3, r2, r3
 800251a:	4618      	mov	r0, r3
 800251c:	f000 f967 	bl	80027ee <HAL_SYSTICK_Config>
 8002520:	4603      	mov	r3, r0
 8002522:	2b00      	cmp	r3, #0
 8002524:	d001      	beq.n	800252a <HAL_InitTick+0x2e>
  {
    return HAL_ERROR;
 8002526:	2301      	movs	r3, #1
 8002528:	e00e      	b.n	8002548 <HAL_InitTick+0x4c>
  }

  /* Configure the SysTick IRQ priority */
  if (TickPriority < (1UL << __NVIC_PRIO_BITS))
 800252a:	687b      	ldr	r3, [r7, #4]
 800252c:	2b0f      	cmp	r3, #15
 800252e:	d80a      	bhi.n	8002546 <HAL_InitTick+0x4a>
  {
    HAL_NVIC_SetPriority(SysTick_IRQn, TickPriority, 0U);
 8002530:	2200      	movs	r2, #0
 8002532:	6879      	ldr	r1, [r7, #4]
 8002534:	f04f 30ff 	mov.w	r0, #4294967295	; 0xffffffff
 8002538:	f000 f92f 	bl	800279a <HAL_NVIC_SetPriority>
    uwTickPrio = TickPriority;
 800253c:	4a06      	ldr	r2, [pc, #24]	; (8002558 <HAL_InitTick+0x5c>)
 800253e:	687b      	ldr	r3, [r7, #4]
 8002540:	6013      	str	r3, [r2, #0]
  {
    return HAL_ERROR;
  }

  /* Return function status */
  return HAL_OK;
 8002542:	2300      	movs	r3, #0
 8002544:	e000      	b.n	8002548 <HAL_InitTick+0x4c>
    return HAL_ERROR;
 8002546:	2301      	movs	r3, #1
}
 8002548:	4618      	mov	r0, r3
 800254a:	3708      	adds	r7, #8
 800254c:	46bd      	mov	sp, r7
 800254e:	bd80      	pop	{r7, pc}
 8002550:	20000018 	.word	0x20000018
 8002554:	20000020 	.word	0x20000020
 8002558:	2000001c 	.word	0x2000001c

0800255c <HAL_IncTick>:
 * @note This function is declared as __weak to be overwritten in case of other 
  *      implementations in user file.
  * @retval None
  */
__weak void HAL_IncTick(void)
{
 800255c:	b480      	push	{r7}
 800255e:	af00      	add	r7, sp, #0
  uwTick += uwTickFreq;
 8002560:	4b06      	ldr	r3, [pc, #24]	; (800257c <HAL_IncTick+0x20>)
 8002562:	781b      	ldrb	r3, [r3, #0]
 8002564:	461a      	mov	r2, r3
 8002566:	4b06      	ldr	r3, [pc, #24]	; (8002580 <HAL_IncTick+0x24>)
 8002568:	681b      	ldr	r3, [r3, #0]
 800256a:	4413      	add	r3, r2
 800256c:	4a04      	ldr	r2, [pc, #16]	; (8002580 <HAL_IncTick+0x24>)
 800256e:	6013      	str	r3, [r2, #0]
}
 8002570:	bf00      	nop
 8002572:	46bd      	mov	sp, r7
 8002574:	f85d 7b04 	ldr.w	r7, [sp], #4
 8002578:	4770      	bx	lr
 800257a:	bf00      	nop
 800257c:	20000020 	.word	0x20000020
 8002580:	20000544 	.word	0x20000544

08002584 <HAL_GetTick>:
  * @note This function is declared as __weak to be overwritten in case of other 
  *       implementations in user file.
  * @retval tick value
  */
__weak uint32_t HAL_GetTick(void)
{
 8002584:	b480      	push	{r7}
 8002586:	af00      	add	r7, sp, #0
  return uwTick;
 8002588:	4b03      	ldr	r3, [pc, #12]	; (8002598 <HAL_GetTick+0x14>)
 800258a:	681b      	ldr	r3, [r3, #0]
}
 800258c:	4618      	mov	r0, r3
 800258e:	46bd      	mov	sp, r7
 8002590:	f85d 7b04 	ldr.w	r7, [sp], #4
 8002594:	4770      	bx	lr
 8002596:	bf00      	nop
 8002598:	20000544 	.word	0x20000544

0800259c <HAL_Delay>:
  *       implementations in user file.
  * @param Delay specifies the delay time length, in milliseconds.
  * @retval None
  */
__weak void HAL_Delay(uint32_t Delay)
{
 800259c:	b580      	push	{r7, lr}
 800259e:	b084      	sub	sp, #16
 80025a0:	af00      	add	r7, sp, #0
 80025a2:	6078      	str	r0, [r7, #4]
  uint32_t tickstart = HAL_GetTick();
 80025a4:	f7ff ffee 	bl	8002584 <HAL_GetTick>
 80025a8:	60b8      	str	r0, [r7, #8]
  uint32_t wait = Delay;
 80025aa:	687b      	ldr	r3, [r7, #4]
 80025ac:	60fb      	str	r3, [r7, #12]

  /* Add a freq to guarantee minimum wait */
  if (wait < HAL_MAX_DELAY)
 80025ae:	68fb      	ldr	r3, [r7, #12]
 80025b0:	f1b3 3fff 	cmp.w	r3, #4294967295	; 0xffffffff
 80025b4:	d005      	beq.n	80025c2 <HAL_Delay+0x26>
  {
    wait += (uint32_t)(uwTickFreq);
 80025b6:	4b0a      	ldr	r3, [pc, #40]	; (80025e0 <HAL_Delay+0x44>)
 80025b8:	781b      	ldrb	r3, [r3, #0]
 80025ba:	461a      	mov	r2, r3
 80025bc:	68fb      	ldr	r3, [r7, #12]
 80025be:	4413      	add	r3, r2
 80025c0:	60fb      	str	r3, [r7, #12]
  }

  while((HAL_GetTick() - tickstart) < wait)
 80025c2:	bf00      	nop
 80025c4:	f7ff ffde 	bl	8002584 <HAL_GetTick>
 80025c8:	4602      	mov	r2, r0
 80025ca:	68bb      	ldr	r3, [r7, #8]
 80025cc:	1ad3      	subs	r3, r2, r3
 80025ce:	68fa      	ldr	r2, [r7, #12]
 80025d0:	429a      	cmp	r2, r3
 80025d2:	d8f7      	bhi.n	80025c4 <HAL_Delay+0x28>
  {
  }
}
 80025d4:	bf00      	nop
 80025d6:	bf00      	nop
 80025d8:	3710      	adds	r7, #16
 80025da:	46bd      	mov	sp, r7
 80025dc:	bd80      	pop	{r7, pc}
 80025de:	bf00      	nop
 80025e0:	20000020 	.word	0x20000020

080025e4 <__NVIC_SetPriorityGrouping>:
           In case of a conflict between priority grouping and available
           priority bits (__NVIC_PRIO_BITS), the smallest possible priority group is set.
  \param [in]      PriorityGroup  Priority grouping field.
 */
__STATIC_INLINE void __NVIC_SetPriorityGrouping(uint32_t PriorityGroup)
{
 80025e4:	b480      	push	{r7}
 80025e6:	b085      	sub	sp, #20
 80025e8:	af00      	add	r7, sp, #0
 80025ea:	6078      	str	r0, [r7, #4]
  uint32_t reg_value;
  uint32_t PriorityGroupTmp = (PriorityGroup & (uint32_t)0x07UL);             /* only values 0..7 are used          */
 80025ec:	687b      	ldr	r3, [r7, #4]
 80025ee:	f003 0307 	and.w	r3, r3, #7
 80025f2:	60fb      	str	r3, [r7, #12]

  reg_value  =  SCB->AIRCR;                                                   /* read old register configuration    */
 80025f4:	4b0c      	ldr	r3, [pc, #48]	; (8002628 <__NVIC_SetPriorityGrouping+0x44>)
 80025f6:	68db      	ldr	r3, [r3, #12]
 80025f8:	60bb      	str	r3, [r7, #8]
  reg_value &= ~((uint32_t)(SCB_AIRCR_VECTKEY_Msk | SCB_AIRCR_PRIGROUP_Msk)); /* clear bits to change               */
 80025fa:	68ba      	ldr	r2, [r7, #8]
 80025fc:	f64f 03ff 	movw	r3, #63743	; 0xf8ff
 8002600:	4013      	ands	r3, r2
 8002602:	60bb      	str	r3, [r7, #8]
  reg_value  =  (reg_value                                   |
                ((uint32_t)0x5FAUL << SCB_AIRCR_VECTKEY_Pos) |
                (PriorityGroupTmp << SCB_AIRCR_PRIGROUP_Pos)  );              /* Insert write key and priority group */
 8002604:	68fb      	ldr	r3, [r7, #12]
 8002606:	021a      	lsls	r2, r3, #8
                ((uint32_t)0x5FAUL << SCB_AIRCR_VECTKEY_Pos) |
 8002608:	68bb      	ldr	r3, [r7, #8]
 800260a:	4313      	orrs	r3, r2
  reg_value  =  (reg_value                                   |
 800260c:	f043 63bf 	orr.w	r3, r3, #100139008	; 0x5f80000
 8002610:	f443 3300 	orr.w	r3, r3, #131072	; 0x20000
 8002614:	60bb      	str	r3, [r7, #8]
  SCB->AIRCR =  reg_value;
 8002616:	4a04      	ldr	r2, [pc, #16]	; (8002628 <__NVIC_SetPriorityGrouping+0x44>)
 8002618:	68bb      	ldr	r3, [r7, #8]
 800261a:	60d3      	str	r3, [r2, #12]
}
 800261c:	bf00      	nop
 800261e:	3714      	adds	r7, #20
 8002620:	46bd      	mov	sp, r7
 8002622:	f85d 7b04 	ldr.w	r7, [sp], #4
 8002626:	4770      	bx	lr
 8002628:	e000ed00 	.word	0xe000ed00

0800262c <__NVIC_GetPriorityGrouping>:
  \brief   Get Priority Grouping
  \details Reads the priority grouping field from the NVIC Interrupt Controller.
  \return                Priority grouping field (SCB->AIRCR [10:8] PRIGROUP field).
 */
__STATIC_INLINE uint32_t __NVIC_GetPriorityGrouping(void)
{
 800262c:	b480      	push	{r7}
 800262e:	af00      	add	r7, sp, #0
  return ((uint32_t)((SCB->AIRCR & SCB_AIRCR_PRIGROUP_Msk) >> SCB_AIRCR_PRIGROUP_Pos));
 8002630:	4b04      	ldr	r3, [pc, #16]	; (8002644 <__NVIC_GetPriorityGrouping+0x18>)
 8002632:	68db      	ldr	r3, [r3, #12]
 8002634:	0a1b      	lsrs	r3, r3, #8
 8002636:	f003 0307 	and.w	r3, r3, #7
}
 800263a:	4618      	mov	r0, r3
 800263c:	46bd      	mov	sp, r7
 800263e:	f85d 7b04 	ldr.w	r7, [sp], #4
 8002642:	4770      	bx	lr
 8002644:	e000ed00 	.word	0xe000ed00

08002648 <__NVIC_EnableIRQ>:
  \details Enables a device specific interrupt in the NVIC interrupt controller.
  \param [in]      IRQn  Device specific interrupt number.
  \note    IRQn must not be negative.
 */
__STATIC_INLINE void __NVIC_EnableIRQ(IRQn_Type IRQn)
{
 8002648:	b480      	push	{r7}
 800264a:	b083      	sub	sp, #12
 800264c:	af00      	add	r7, sp, #0
 800264e:	4603      	mov	r3, r0
 8002650:	71fb      	strb	r3, [r7, #7]
  if ((int32_t)(IRQn) >= 0)
 8002652:	f997 3007 	ldrsb.w	r3, [r7, #7]
 8002656:	2b00      	cmp	r3, #0
 8002658:	db0b      	blt.n	8002672 <__NVIC_EnableIRQ+0x2a>
  {
    NVIC->ISER[(((uint32_t)IRQn) >> 5UL)] = (uint32_t)(1UL << (((uint32_t)IRQn) & 0x1FUL));
 800265a:	79fb      	ldrb	r3, [r7, #7]
 800265c:	f003 021f 	and.w	r2, r3, #31
 8002660:	4907      	ldr	r1, [pc, #28]	; (8002680 <__NVIC_EnableIRQ+0x38>)
 8002662:	f997 3007 	ldrsb.w	r3, [r7, #7]
 8002666:	095b      	lsrs	r3, r3, #5
 8002668:	2001      	movs	r0, #1
 800266a:	fa00 f202 	lsl.w	r2, r0, r2
 800266e:	f841 2023 	str.w	r2, [r1, r3, lsl #2]
  }
}
 8002672:	bf00      	nop
 8002674:	370c      	adds	r7, #12
 8002676:	46bd      	mov	sp, r7
 8002678:	f85d 7b04 	ldr.w	r7, [sp], #4
 800267c:	4770      	bx	lr
 800267e:	bf00      	nop
 8002680:	e000e100 	.word	0xe000e100

08002684 <__NVIC_SetPriority>:
  \param [in]      IRQn  Interrupt number.
  \param [in]  priority  Priority to set.
  \note    The priority cannot be set for every processor exception.
 */
__STATIC_INLINE void __NVIC_SetPriority(IRQn_Type IRQn, uint32_t priority)
{
 8002684:	b480      	push	{r7}
 8002686:	b083      	sub	sp, #12
 8002688:	af00      	add	r7, sp, #0
 800268a:	4603      	mov	r3, r0
 800268c:	6039      	str	r1, [r7, #0]
 800268e:	71fb      	strb	r3, [r7, #7]
  if ((int32_t)(IRQn) >= 0)
 8002690:	f997 3007 	ldrsb.w	r3, [r7, #7]
 8002694:	2b00      	cmp	r3, #0
 8002696:	db0a      	blt.n	80026ae <__NVIC_SetPriority+0x2a>
  {
    NVIC->IP[((uint32_t)IRQn)]               = (uint8_t)((priority << (8U - __NVIC_PRIO_BITS)) & (uint32_t)0xFFUL);
 8002698:	683b      	ldr	r3, [r7, #0]
 800269a:	b2da      	uxtb	r2, r3
 800269c:	490c      	ldr	r1, [pc, #48]	; (80026d0 <__NVIC_SetPriority+0x4c>)
 800269e:	f997 3007 	ldrsb.w	r3, [r7, #7]
 80026a2:	0112      	lsls	r2, r2, #4
 80026a4:	b2d2      	uxtb	r2, r2
 80026a6:	440b      	add	r3, r1
 80026a8:	f883 2300 	strb.w	r2, [r3, #768]	; 0x300
  }
  else
  {
    SCB->SHP[(((uint32_t)IRQn) & 0xFUL)-4UL] = (uint8_t)((priority << (8U - __NVIC_PRIO_BITS)) & (uint32_t)0xFFUL);
  }
}
 80026ac:	e00a      	b.n	80026c4 <__NVIC_SetPriority+0x40>
    SCB->SHP[(((uint32_t)IRQn) & 0xFUL)-4UL] = (uint8_t)((priority << (8U - __NVIC_PRIO_BITS)) & (uint32_t)0xFFUL);
 80026ae:	683b      	ldr	r3, [r7, #0]
 80026b0:	b2da      	uxtb	r2, r3
 80026b2:	4908      	ldr	r1, [pc, #32]	; (80026d4 <__NVIC_SetPriority+0x50>)
 80026b4:	79fb      	ldrb	r3, [r7, #7]
 80026b6:	f003 030f 	and.w	r3, r3, #15
 80026ba:	3b04      	subs	r3, #4
 80026bc:	0112      	lsls	r2, r2, #4
 80026be:	b2d2      	uxtb	r2, r2
 80026c0:	440b      	add	r3, r1
 80026c2:	761a      	strb	r2, [r3, #24]
}
 80026c4:	bf00      	nop
 80026c6:	370c      	adds	r7, #12
 80026c8:	46bd      	mov	sp, r7
 80026ca:	f85d 7b04 	ldr.w	r7, [sp], #4
 80026ce:	4770      	bx	lr
 80026d0:	e000e100 	.word	0xe000e100
 80026d4:	e000ed00 	.word	0xe000ed00

080026d8 <NVIC_EncodePriority>:
  \param [in]   PreemptPriority  Preemptive priority value (starting from 0).
  \param [in]       SubPriority  Subpriority value (starting from 0).
  \return                        Encoded priority. Value can be used in the function \ref NVIC_SetPriority().
 */
__STATIC_INLINE uint32_t NVIC_EncodePriority (uint32_t PriorityGroup, uint32_t PreemptPriority, uint32_t SubPriority)
{
 80026d8:	b480      	push	{r7}
 80026da:	b089      	sub	sp, #36	; 0x24
 80026dc:	af00      	add	r7, sp, #0
 80026de:	60f8      	str	r0, [r7, #12]
 80026e0:	60b9      	str	r1, [r7, #8]
 80026e2:	607a      	str	r2, [r7, #4]
  uint32_t PriorityGroupTmp = (PriorityGroup & (uint32_t)0x07UL);   /* only values 0..7 are used          */
 80026e4:	68fb      	ldr	r3, [r7, #12]
 80026e6:	f003 0307 	and.w	r3, r3, #7
 80026ea:	61fb      	str	r3, [r7, #28]
  uint32_t PreemptPriorityBits;
  uint32_t SubPriorityBits;

  PreemptPriorityBits = ((7UL - PriorityGroupTmp) > (uint32_t)(__NVIC_PRIO_BITS)) ? (uint32_t)(__NVIC_PRIO_BITS) : (uint32_t)(7UL - PriorityGroupTmp);
 80026ec:	69fb      	ldr	r3, [r7, #28]
 80026ee:	f1c3 0307 	rsb	r3, r3, #7
 80026f2:	2b04      	cmp	r3, #4
 80026f4:	bf28      	it	cs
 80026f6:	2304      	movcs	r3, #4
 80026f8:	61bb      	str	r3, [r7, #24]
  SubPriorityBits     = ((PriorityGroupTmp + (uint32_t)(__NVIC_PRIO_BITS)) < (uint32_t)7UL) ? (uint32_t)0UL : (uint32_t)((PriorityGroupTmp - 7UL) + (uint32_t)(__NVIC_PRIO_BITS));
 80026fa:	69fb      	ldr	r3, [r7, #28]
 80026fc:	3304      	adds	r3, #4
 80026fe:	2b06      	cmp	r3, #6
 8002700:	d902      	bls.n	8002708 <NVIC_EncodePriority+0x30>
 8002702:	69fb      	ldr	r3, [r7, #28]
 8002704:	3b03      	subs	r3, #3
 8002706:	e000      	b.n	800270a <NVIC_EncodePriority+0x32>
 8002708:	2300      	movs	r3, #0
 800270a:	617b      	str	r3, [r7, #20]

  return (
           ((PreemptPriority & (uint32_t)((1UL << (PreemptPriorityBits)) - 1UL)) << SubPriorityBits) |
 800270c:	f04f 32ff 	mov.w	r2, #4294967295	; 0xffffffff
 8002710:	69bb      	ldr	r3, [r7, #24]
 8002712:	fa02 f303 	lsl.w	r3, r2, r3
 8002716:	43da      	mvns	r2, r3
 8002718:	68bb      	ldr	r3, [r7, #8]
 800271a:	401a      	ands	r2, r3
 800271c:	697b      	ldr	r3, [r7, #20]
 800271e:	409a      	lsls	r2, r3
           ((SubPriority     & (uint32_t)((1UL << (SubPriorityBits    )) - 1UL)))
 8002720:	f04f 31ff 	mov.w	r1, #4294967295	; 0xffffffff
 8002724:	697b      	ldr	r3, [r7, #20]
 8002726:	fa01 f303 	lsl.w	r3, r1, r3
 800272a:	43d9      	mvns	r1, r3
 800272c:	687b      	ldr	r3, [r7, #4]
 800272e:	400b      	ands	r3, r1
           ((PreemptPriority & (uint32_t)((1UL << (PreemptPriorityBits)) - 1UL)) << SubPriorityBits) |
 8002730:	4313      	orrs	r3, r2
         );
}
 8002732:	4618      	mov	r0, r3
 8002734:	3724      	adds	r7, #36	; 0x24
 8002736:	46bd      	mov	sp, r7
 8002738:	f85d 7b04 	ldr.w	r7, [sp], #4
 800273c:	4770      	bx	lr
	...

08002740 <SysTick_Config>:
  \note    When the variable <b>__Vendor_SysTickConfig</b> is set to 1, then the
           function <b>SysTick_Config</b> is not included. In this case, the file <b><i>device</i>.h</b>
           must contain a vendor-specific implementation of this function.
 */
__STATIC_INLINE uint32_t SysTick_Config(uint32_t ticks)
{
 8002740:	b580      	push	{r7, lr}
 8002742:	b082      	sub	sp, #8
 8002744:	af00      	add	r7, sp, #0
 8002746:	6078      	str	r0, [r7, #4]
  if ((ticks - 1UL) > SysTick_LOAD_RELOAD_Msk)
 8002748:	687b      	ldr	r3, [r7, #4]
 800274a:	3b01      	subs	r3, #1
 800274c:	f1b3 7f80 	cmp.w	r3, #16777216	; 0x1000000
 8002750:	d301      	bcc.n	8002756 <SysTick_Config+0x16>
  {
    return (1UL);                                                   /* Reload value impossible */
 8002752:	2301      	movs	r3, #1
 8002754:	e00f      	b.n	8002776 <SysTick_Config+0x36>
  }

  SysTick->LOAD  = (uint32_t)(ticks - 1UL);                         /* set reload register */
 8002756:	4a0a      	ldr	r2, [pc, #40]	; (8002780 <SysTick_Config+0x40>)
 8002758:	687b      	ldr	r3, [r7, #4]
 800275a:	3b01      	subs	r3, #1
 800275c:	6053      	str	r3, [r2, #4]
  NVIC_SetPriority (SysTick_IRQn, (1UL << __NVIC_PRIO_BITS) - 1UL); /* set Priority for Systick Interrupt */
 800275e:	210f      	movs	r1, #15
 8002760:	f04f 30ff 	mov.w	r0, #4294967295	; 0xffffffff
 8002764:	f7ff ff8e 	bl	8002684 <__NVIC_SetPriority>
  SysTick->VAL   = 0UL;                                             /* Load the SysTick Counter Value */
 8002768:	4b05      	ldr	r3, [pc, #20]	; (8002780 <SysTick_Config+0x40>)
 800276a:	2200      	movs	r2, #0
 800276c:	609a      	str	r2, [r3, #8]
  SysTick->CTRL  = SysTick_CTRL_CLKSOURCE_Msk |
 800276e:	4b04      	ldr	r3, [pc, #16]	; (8002780 <SysTick_Config+0x40>)
 8002770:	2207      	movs	r2, #7
 8002772:	601a      	str	r2, [r3, #0]
                   SysTick_CTRL_TICKINT_Msk   |
                   SysTick_CTRL_ENABLE_Msk;                         /* Enable SysTick IRQ and SysTick Timer */
  return (0UL);                                                     /* Function successful */
 8002774:	2300      	movs	r3, #0
}
 8002776:	4618      	mov	r0, r3
 8002778:	3708      	adds	r7, #8
 800277a:	46bd      	mov	sp, r7
 800277c:	bd80      	pop	{r7, pc}
 800277e:	bf00      	nop
 8002780:	e000e010 	.word	0xe000e010

08002784 <HAL_NVIC_SetPriorityGrouping>:
  * @note   When the NVIC_PriorityGroup_0 is selected, IRQ preemption is no more possible. 
  *         The pending IRQ priority will be managed only by the subpriority. 
  * @retval None
  */
void HAL_NVIC_SetPriorityGrouping(uint32_t PriorityGroup)
{
 8002784:	b580      	push	{r7, lr}
 8002786:	b082      	sub	sp, #8
 8002788:	af00      	add	r7, sp, #0
 800278a:	6078      	str	r0, [r7, #4]
  /* Check the parameters */
  assert_param(IS_NVIC_PRIORITY_GROUP(PriorityGroup));
  
  /* Set the PRIGROUP[10:8] bits according to the PriorityGroup parameter value */
  NVIC_SetPriorityGrouping(PriorityGroup);
 800278c:	6878      	ldr	r0, [r7, #4]
 800278e:	f7ff ff29 	bl	80025e4 <__NVIC_SetPriorityGrouping>
}
 8002792:	bf00      	nop
 8002794:	3708      	adds	r7, #8
 8002796:	46bd      	mov	sp, r7
 8002798:	bd80      	pop	{r7, pc}

0800279a <HAL_NVIC_SetPriority>:
  *         This parameter can be a value between 0 and 15
  *         A lower priority value indicates a higher priority.          
  * @retval None
  */
void HAL_NVIC_SetPriority(IRQn_Type IRQn, uint32_t PreemptPriority, uint32_t SubPriority)
{ 
 800279a:	b580      	push	{r7, lr}
 800279c:	b086      	sub	sp, #24
 800279e:	af00      	add	r7, sp, #0
 80027a0:	4603      	mov	r3, r0
 80027a2:	60b9      	str	r1, [r7, #8]
 80027a4:	607a      	str	r2, [r7, #4]
 80027a6:	73fb      	strb	r3, [r7, #15]
  uint32_t prioritygroup = 0x00U;
 80027a8:	2300      	movs	r3, #0
 80027aa:	617b      	str	r3, [r7, #20]
  
  /* Check the parameters */
  assert_param(IS_NVIC_SUB_PRIORITY(SubPriority));
  assert_param(IS_NVIC_PREEMPTION_PRIORITY(PreemptPriority));
  
  prioritygroup = NVIC_GetPriorityGrouping();
 80027ac:	f7ff ff3e 	bl	800262c <__NVIC_GetPriorityGrouping>
 80027b0:	6178      	str	r0, [r7, #20]
  
  NVIC_SetPriority(IRQn, NVIC_EncodePriority(prioritygroup, PreemptPriority, SubPriority));
 80027b2:	687a      	ldr	r2, [r7, #4]
 80027b4:	68b9      	ldr	r1, [r7, #8]
 80027b6:	6978      	ldr	r0, [r7, #20]
 80027b8:	f7ff ff8e 	bl	80026d8 <NVIC_EncodePriority>
 80027bc:	4602      	mov	r2, r0
 80027be:	f997 300f 	ldrsb.w	r3, [r7, #15]
 80027c2:	4611      	mov	r1, r2
 80027c4:	4618      	mov	r0, r3
 80027c6:	f7ff ff5d 	bl	8002684 <__NVIC_SetPriority>
}
 80027ca:	bf00      	nop
 80027cc:	3718      	adds	r7, #24
 80027ce:	46bd      	mov	sp, r7
 80027d0:	bd80      	pop	{r7, pc}

080027d2 <HAL_NVIC_EnableIRQ>:
  *         This parameter can be an enumerator of IRQn_Type enumeration
  *         (For the complete STM32 Devices IRQ Channels list, please refer to the appropriate CMSIS device file (stm32f4xxxx.h))
  * @retval None
  */
void HAL_NVIC_EnableIRQ(IRQn_Type IRQn)
{
 80027d2:	b580      	push	{r7, lr}
 80027d4:	b082      	sub	sp, #8
 80027d6:	af00      	add	r7, sp, #0
 80027d8:	4603      	mov	r3, r0
 80027da:	71fb      	strb	r3, [r7, #7]
  /* Check the parameters */
  assert_param(IS_NVIC_DEVICE_IRQ(IRQn));
  
  /* Enable interrupt */
  NVIC_EnableIRQ(IRQn);
 80027dc:	f997 3007 	ldrsb.w	r3, [r7, #7]
 80027e0:	4618      	mov	r0, r3
 80027e2:	f7ff ff31 	bl	8002648 <__NVIC_EnableIRQ>
}
 80027e6:	bf00      	nop
 80027e8:	3708      	adds	r7, #8
 80027ea:	46bd      	mov	sp, r7
 80027ec:	bd80      	pop	{r7, pc}

080027ee <HAL_SYSTICK_Config>:
  * @param  TicksNumb Specifies the ticks Number of ticks between two interrupts.
  * @retval status:  - 0  Function succeeded.
  *                  - 1  Function failed.
  */
uint32_t HAL_SYSTICK_Config(uint32_t TicksNumb)
{
 80027ee:	b580      	push	{r7, lr}
 80027f0:	b082      	sub	sp, #8
 80027f2:	af00      	add	r7, sp, #0
 80027f4:	6078      	str	r0, [r7, #4]
   return SysTick_Config(TicksNumb);
 80027f6:	6878      	ldr	r0, [r7, #4]
 80027f8:	f7ff ffa2 	bl	8002740 <SysTick_Config>
 80027fc:	4603      	mov	r3, r0
}
 80027fe:	4618      	mov	r0, r3
 8002800:	3708      	adds	r7, #8
 8002802:	46bd      	mov	sp, r7
 8002804:	bd80      	pop	{r7, pc}
	...

08002808 <HAL_GPIO_Init>:
  * @param  GPIO_Init pointer to a GPIO_InitTypeDef structure that contains
  *         the configuration information for the specified GPIO peripheral.
  * @retval None
  */
void HAL_GPIO_Init(GPIO_TypeDef  *GPIOx, GPIO_InitTypeDef *GPIO_Init)
{
 8002808:	b480      	push	{r7}
 800280a:	b089      	sub	sp, #36	; 0x24
 800280c:	af00      	add	r7, sp, #0
 800280e:	6078      	str	r0, [r7, #4]
 8002810:	6039      	str	r1, [r7, #0]
  uint32_t position;
  uint32_t ioposition = 0x00U;
 8002812:	2300      	movs	r3, #0
 8002814:	617b      	str	r3, [r7, #20]
  uint32_t iocurrent = 0x00U;
 8002816:	2300      	movs	r3, #0
 8002818:	613b      	str	r3, [r7, #16]
  uint32_t temp = 0x00U;
 800281a:	2300      	movs	r3, #0
 800281c:	61bb      	str	r3, [r7, #24]
  assert_param(IS_GPIO_ALL_INSTANCE(GPIOx));
  assert_param(IS_GPIO_PIN(GPIO_Init->Pin));
  assert_param(IS_GPIO_MODE(GPIO_Init->Mode));

  /* Configure the port pins */
  for(position = 0U; position < GPIO_NUMBER; position++)
 800281e:	2300      	movs	r3, #0
 8002820:	61fb      	str	r3, [r7, #28]
 8002822:	e165      	b.n	8002af0 <HAL_GPIO_Init+0x2e8>
  {
    /* Get the IO position */
    ioposition = 0x01U << position;
 8002824:	2201      	movs	r2, #1
 8002826:	69fb      	ldr	r3, [r7, #28]
 8002828:	fa02 f303 	lsl.w	r3, r2, r3
 800282c:	617b      	str	r3, [r7, #20]
    /* Get the current IO position */
    iocurrent = (uint32_t)(GPIO_Init->Pin) & ioposition;
 800282e:	683b      	ldr	r3, [r7, #0]
 8002830:	681b      	ldr	r3, [r3, #0]
 8002832:	697a      	ldr	r2, [r7, #20]
 8002834:	4013      	ands	r3, r2
 8002836:	613b      	str	r3, [r7, #16]

    if(iocurrent == ioposition)
 8002838:	693a      	ldr	r2, [r7, #16]
 800283a:	697b      	ldr	r3, [r7, #20]
 800283c:	429a      	cmp	r2, r3
 800283e:	f040 8154 	bne.w	8002aea <HAL_GPIO_Init+0x2e2>
    {
      /*--------------------- GPIO Mode Configuration ------------------------*/
      /* In case of Output or Alternate function mode selection */
      if(((GPIO_Init->Mode & GPIO_MODE) == MODE_OUTPUT) || \
 8002842:	683b      	ldr	r3, [r7, #0]
 8002844:	685b      	ldr	r3, [r3, #4]
 8002846:	f003 0303 	and.w	r3, r3, #3
 800284a:	2b01      	cmp	r3, #1
 800284c:	d005      	beq.n	800285a <HAL_GPIO_Init+0x52>
          (GPIO_Init->Mode & GPIO_MODE) == MODE_AF)
 800284e:	683b      	ldr	r3, [r7, #0]
 8002850:	685b      	ldr	r3, [r3, #4]
 8002852:	f003 0303 	and.w	r3, r3, #3
      if(((GPIO_Init->Mode & GPIO_MODE) == MODE_OUTPUT) || \
 8002856:	2b02      	cmp	r3, #2
 8002858:	d130      	bne.n	80028bc <HAL_GPIO_Init+0xb4>
      {
        /* Check the Speed parameter */
        assert_param(IS_GPIO_SPEED(GPIO_Init->Speed));
        /* Configure the IO Speed */
        temp = GPIOx->OSPEEDR; 
 800285a:	687b      	ldr	r3, [r7, #4]
 800285c:	689b      	ldr	r3, [r3, #8]
 800285e:	61bb      	str	r3, [r7, #24]
        temp &= ~(GPIO_OSPEEDER_OSPEEDR0 << (position * 2U));
 8002860:	69fb      	ldr	r3, [r7, #28]
 8002862:	005b      	lsls	r3, r3, #1
 8002864:	2203      	movs	r2, #3
 8002866:	fa02 f303 	lsl.w	r3, r2, r3
 800286a:	43db      	mvns	r3, r3
 800286c:	69ba      	ldr	r2, [r7, #24]
 800286e:	4013      	ands	r3, r2
 8002870:	61bb      	str	r3, [r7, #24]
        temp |= (GPIO_Init->Speed << (position * 2U));
 8002872:	683b      	ldr	r3, [r7, #0]
 8002874:	68da      	ldr	r2, [r3, #12]
 8002876:	69fb      	ldr	r3, [r7, #28]
 8002878:	005b      	lsls	r3, r3, #1
 800287a:	fa02 f303 	lsl.w	r3, r2, r3
 800287e:	69ba      	ldr	r2, [r7, #24]
 8002880:	4313      	orrs	r3, r2
 8002882:	61bb      	str	r3, [r7, #24]
        GPIOx->OSPEEDR = temp;
 8002884:	687b      	ldr	r3, [r7, #4]
 8002886:	69ba      	ldr	r2, [r7, #24]
 8002888:	609a      	str	r2, [r3, #8]

        /* Configure the IO Output Type */
        temp = GPIOx->OTYPER;
 800288a:	687b      	ldr	r3, [r7, #4]
 800288c:	685b      	ldr	r3, [r3, #4]
 800288e:	61bb      	str	r3, [r7, #24]
        temp &= ~(GPIO_OTYPER_OT_0 << position) ;
 8002890:	2201      	movs	r2, #1
 8002892:	69fb      	ldr	r3, [r7, #28]
 8002894:	fa02 f303 	lsl.w	r3, r2, r3
 8002898:	43db      	mvns	r3, r3
 800289a:	69ba      	ldr	r2, [r7, #24]
 800289c:	4013      	ands	r3, r2
 800289e:	61bb      	str	r3, [r7, #24]
        temp |= (((GPIO_Init->Mode & OUTPUT_TYPE) >> OUTPUT_TYPE_Pos) << position);
 80028a0:	683b      	ldr	r3, [r7, #0]
 80028a2:	685b      	ldr	r3, [r3, #4]
 80028a4:	091b      	lsrs	r3, r3, #4
 80028a6:	f003 0201 	and.w	r2, r3, #1
 80028aa:	69fb      	ldr	r3, [r7, #28]
 80028ac:	fa02 f303 	lsl.w	r3, r2, r3
 80028b0:	69ba      	ldr	r2, [r7, #24]
 80028b2:	4313      	orrs	r3, r2
 80028b4:	61bb      	str	r3, [r7, #24]
        GPIOx->OTYPER = temp;
 80028b6:	687b      	ldr	r3, [r7, #4]
 80028b8:	69ba      	ldr	r2, [r7, #24]
 80028ba:	605a      	str	r2, [r3, #4]
       }

      if((GPIO_Init->Mode & GPIO_MODE) != MODE_ANALOG)
 80028bc:	683b      	ldr	r3, [r7, #0]
 80028be:	685b      	ldr	r3, [r3, #4]
 80028c0:	f003 0303 	and.w	r3, r3, #3
 80028c4:	2b03      	cmp	r3, #3
 80028c6:	d017      	beq.n	80028f8 <HAL_GPIO_Init+0xf0>
      {
        /* Check the parameters */
        assert_param(IS_GPIO_PULL(GPIO_Init->Pull));
        
        /* Activate the Pull-up or Pull down resistor for the current IO */
        temp = GPIOx->PUPDR;
 80028c8:	687b      	ldr	r3, [r7, #4]
 80028ca:	68db      	ldr	r3, [r3, #12]
 80028cc:	61bb      	str	r3, [r7, #24]
        temp &= ~(GPIO_PUPDR_PUPDR0 << (position * 2U));
 80028ce:	69fb      	ldr	r3, [r7, #28]
 80028d0:	005b      	lsls	r3, r3, #1
 80028d2:	2203      	movs	r2, #3
 80028d4:	fa02 f303 	lsl.w	r3, r2, r3
 80028d8:	43db      	mvns	r3, r3
 80028da:	69ba      	ldr	r2, [r7, #24]
 80028dc:	4013      	ands	r3, r2
 80028de:	61bb      	str	r3, [r7, #24]
        temp |= ((GPIO_Init->Pull) << (position * 2U));
 80028e0:	683b      	ldr	r3, [r7, #0]
 80028e2:	689a      	ldr	r2, [r3, #8]
 80028e4:	69fb      	ldr	r3, [r7, #28]
 80028e6:	005b      	lsls	r3, r3, #1
 80028e8:	fa02 f303 	lsl.w	r3, r2, r3
 80028ec:	69ba      	ldr	r2, [r7, #24]
 80028ee:	4313      	orrs	r3, r2
 80028f0:	61bb      	str	r3, [r7, #24]
        GPIOx->PUPDR = temp;
 80028f2:	687b      	ldr	r3, [r7, #4]
 80028f4:	69ba      	ldr	r2, [r7, #24]
 80028f6:	60da      	str	r2, [r3, #12]
      }

      /* In case of Alternate function mode selection */
      if((GPIO_Init->Mode & GPIO_MODE) == MODE_AF)
 80028f8:	683b      	ldr	r3, [r7, #0]
 80028fa:	685b      	ldr	r3, [r3, #4]
 80028fc:	f003 0303 	and.w	r3, r3, #3
 8002900:	2b02      	cmp	r3, #2
 8002902:	d123      	bne.n	800294c <HAL_GPIO_Init+0x144>
      {
        /* Check the Alternate function parameter */
        assert_param(IS_GPIO_AF(GPIO_Init->Alternate));
        /* Configure Alternate function mapped with the current IO */
        temp = GPIOx->AFR[position >> 3U];
 8002904:	69fb      	ldr	r3, [r7, #28]
 8002906:	08da      	lsrs	r2, r3, #3
 8002908:	687b      	ldr	r3, [r7, #4]
 800290a:	3208      	adds	r2, #8
 800290c:	f853 3022 	ldr.w	r3, [r3, r2, lsl #2]
 8002910:	61bb      	str	r3, [r7, #24]
        temp &= ~(0xFU << ((uint32_t)(position & 0x07U) * 4U)) ;
 8002912:	69fb      	ldr	r3, [r7, #28]
 8002914:	f003 0307 	and.w	r3, r3, #7
 8002918:	009b      	lsls	r3, r3, #2
 800291a:	220f      	movs	r2, #15
 800291c:	fa02 f303 	lsl.w	r3, r2, r3
 8002920:	43db      	mvns	r3, r3
 8002922:	69ba      	ldr	r2, [r7, #24]
 8002924:	4013      	ands	r3, r2
 8002926:	61bb      	str	r3, [r7, #24]
        temp |= ((uint32_t)(GPIO_Init->Alternate) << (((uint32_t)position & 0x07U) * 4U));
 8002928:	683b      	ldr	r3, [r7, #0]
 800292a:	691a      	ldr	r2, [r3, #16]
 800292c:	69fb      	ldr	r3, [r7, #28]
 800292e:	f003 0307 	and.w	r3, r3, #7
 8002932:	009b      	lsls	r3, r3, #2
 8002934:	fa02 f303 	lsl.w	r3, r2, r3
 8002938:	69ba      	ldr	r2, [r7, #24]
 800293a:	4313      	orrs	r3, r2
 800293c:	61bb      	str	r3, [r7, #24]
        GPIOx->AFR[position >> 3U] = temp;
 800293e:	69fb      	ldr	r3, [r7, #28]
 8002940:	08da      	lsrs	r2, r3, #3
 8002942:	687b      	ldr	r3, [r7, #4]
 8002944:	3208      	adds	r2, #8
 8002946:	69b9      	ldr	r1, [r7, #24]
 8002948:	f843 1022 	str.w	r1, [r3, r2, lsl #2]
      }

      /* Configure IO Direction mode (Input, Output, Alternate or Analog) */
      temp = GPIOx->MODER;
 800294c:	687b      	ldr	r3, [r7, #4]
 800294e:	681b      	ldr	r3, [r3, #0]
 8002950:	61bb      	str	r3, [r7, #24]
      temp &= ~(GPIO_MODER_MODER0 << (position * 2U));
 8002952:	69fb      	ldr	r3, [r7, #28]
 8002954:	005b      	lsls	r3, r3, #1
 8002956:	2203      	movs	r2, #3
 8002958:	fa02 f303 	lsl.w	r3, r2, r3
 800295c:	43db      	mvns	r3, r3
 800295e:	69ba      	ldr	r2, [r7, #24]
 8002960:	4013      	ands	r3, r2
 8002962:	61bb      	str	r3, [r7, #24]
      temp |= ((GPIO_Init->Mode & GPIO_MODE) << (position * 2U));
 8002964:	683b      	ldr	r3, [r7, #0]
 8002966:	685b      	ldr	r3, [r3, #4]
 8002968:	f003 0203 	and.w	r2, r3, #3
 800296c:	69fb      	ldr	r3, [r7, #28]
 800296e:	005b      	lsls	r3, r3, #1
 8002970:	fa02 f303 	lsl.w	r3, r2, r3
 8002974:	69ba      	ldr	r2, [r7, #24]
 8002976:	4313      	orrs	r3, r2
 8002978:	61bb      	str	r3, [r7, #24]
      GPIOx->MODER = temp;
 800297a:	687b      	ldr	r3, [r7, #4]
 800297c:	69ba      	ldr	r2, [r7, #24]
 800297e:	601a      	str	r2, [r3, #0]

      /*--------------------- EXTI Mode Configuration ------------------------*/
      /* Configure the External Interrupt or event for the current IO */
      if((GPIO_Init->Mode & EXTI_MODE) != 0x00U)
 8002980:	683b      	ldr	r3, [r7, #0]
 8002982:	685b      	ldr	r3, [r3, #4]
 8002984:	f403 3340 	and.w	r3, r3, #196608	; 0x30000
 8002988:	2b00      	cmp	r3, #0
 800298a:	f000 80ae 	beq.w	8002aea <HAL_GPIO_Init+0x2e2>
      {
        /* Enable SYSCFG Clock */
        __HAL_RCC_SYSCFG_CLK_ENABLE();
 800298e:	2300      	movs	r3, #0
 8002990:	60fb      	str	r3, [r7, #12]
 8002992:	4b5d      	ldr	r3, [pc, #372]	; (8002b08 <HAL_GPIO_Init+0x300>)
 8002994:	6c5b      	ldr	r3, [r3, #68]	; 0x44
 8002996:	4a5c      	ldr	r2, [pc, #368]	; (8002b08 <HAL_GPIO_Init+0x300>)
 8002998:	f443 4380 	orr.w	r3, r3, #16384	; 0x4000
 800299c:	6453      	str	r3, [r2, #68]	; 0x44
 800299e:	4b5a      	ldr	r3, [pc, #360]	; (8002b08 <HAL_GPIO_Init+0x300>)
 80029a0:	6c5b      	ldr	r3, [r3, #68]	; 0x44
 80029a2:	f403 4380 	and.w	r3, r3, #16384	; 0x4000
 80029a6:	60fb      	str	r3, [r7, #12]
 80029a8:	68fb      	ldr	r3, [r7, #12]

        temp = SYSCFG->EXTICR[position >> 2U];
 80029aa:	4a58      	ldr	r2, [pc, #352]	; (8002b0c <HAL_GPIO_Init+0x304>)
 80029ac:	69fb      	ldr	r3, [r7, #28]
 80029ae:	089b      	lsrs	r3, r3, #2
 80029b0:	3302      	adds	r3, #2
 80029b2:	f852 3023 	ldr.w	r3, [r2, r3, lsl #2]
 80029b6:	61bb      	str	r3, [r7, #24]
        temp &= ~(0x0FU << (4U * (position & 0x03U)));
 80029b8:	69fb      	ldr	r3, [r7, #28]
 80029ba:	f003 0303 	and.w	r3, r3, #3
 80029be:	009b      	lsls	r3, r3, #2
 80029c0:	220f      	movs	r2, #15
 80029c2:	fa02 f303 	lsl.w	r3, r2, r3
 80029c6:	43db      	mvns	r3, r3
 80029c8:	69ba      	ldr	r2, [r7, #24]
 80029ca:	4013      	ands	r3, r2
 80029cc:	61bb      	str	r3, [r7, #24]
        temp |= ((uint32_t)(GPIO_GET_INDEX(GPIOx)) << (4U * (position & 0x03U)));
 80029ce:	687b      	ldr	r3, [r7, #4]
 80029d0:	4a4f      	ldr	r2, [pc, #316]	; (8002b10 <HAL_GPIO_Init+0x308>)
 80029d2:	4293      	cmp	r3, r2
 80029d4:	d025      	beq.n	8002a22 <HAL_GPIO_Init+0x21a>
 80029d6:	687b      	ldr	r3, [r7, #4]
 80029d8:	4a4e      	ldr	r2, [pc, #312]	; (8002b14 <HAL_GPIO_Init+0x30c>)
 80029da:	4293      	cmp	r3, r2
 80029dc:	d01f      	beq.n	8002a1e <HAL_GPIO_Init+0x216>
 80029de:	687b      	ldr	r3, [r7, #4]
 80029e0:	4a4d      	ldr	r2, [pc, #308]	; (8002b18 <HAL_GPIO_Init+0x310>)
 80029e2:	4293      	cmp	r3, r2
 80029e4:	d019      	beq.n	8002a1a <HAL_GPIO_Init+0x212>
 80029e6:	687b      	ldr	r3, [r7, #4]
 80029e8:	4a4c      	ldr	r2, [pc, #304]	; (8002b1c <HAL_GPIO_Init+0x314>)
 80029ea:	4293      	cmp	r3, r2
 80029ec:	d013      	beq.n	8002a16 <HAL_GPIO_Init+0x20e>
 80029ee:	687b      	ldr	r3, [r7, #4]
 80029f0:	4a4b      	ldr	r2, [pc, #300]	; (8002b20 <HAL_GPIO_Init+0x318>)
 80029f2:	4293      	cmp	r3, r2
 80029f4:	d00d      	beq.n	8002a12 <HAL_GPIO_Init+0x20a>
 80029f6:	687b      	ldr	r3, [r7, #4]
 80029f8:	4a4a      	ldr	r2, [pc, #296]	; (8002b24 <HAL_GPIO_Init+0x31c>)
 80029fa:	4293      	cmp	r3, r2
 80029fc:	d007      	beq.n	8002a0e <HAL_GPIO_Init+0x206>
 80029fe:	687b      	ldr	r3, [r7, #4]
 8002a00:	4a49      	ldr	r2, [pc, #292]	; (8002b28 <HAL_GPIO_Init+0x320>)
 8002a02:	4293      	cmp	r3, r2
 8002a04:	d101      	bne.n	8002a0a <HAL_GPIO_Init+0x202>
 8002a06:	2306      	movs	r3, #6
 8002a08:	e00c      	b.n	8002a24 <HAL_GPIO_Init+0x21c>
 8002a0a:	2307      	movs	r3, #7
 8002a0c:	e00a      	b.n	8002a24 <HAL_GPIO_Init+0x21c>
 8002a0e:	2305      	movs	r3, #5
 8002a10:	e008      	b.n	8002a24 <HAL_GPIO_Init+0x21c>
 8002a12:	2304      	movs	r3, #4
 8002a14:	e006      	b.n	8002a24 <HAL_GPIO_Init+0x21c>
 8002a16:	2303      	movs	r3, #3
 8002a18:	e004      	b.n	8002a24 <HAL_GPIO_Init+0x21c>
 8002a1a:	2302      	movs	r3, #2
 8002a1c:	e002      	b.n	8002a24 <HAL_GPIO_Init+0x21c>
 8002a1e:	2301      	movs	r3, #1
 8002a20:	e000      	b.n	8002a24 <HAL_GPIO_Init+0x21c>
 8002a22:	2300      	movs	r3, #0
 8002a24:	69fa      	ldr	r2, [r7, #28]
 8002a26:	f002 0203 	and.w	r2, r2, #3
 8002a2a:	0092      	lsls	r2, r2, #2
 8002a2c:	4093      	lsls	r3, r2
 8002a2e:	69ba      	ldr	r2, [r7, #24]
 8002a30:	4313      	orrs	r3, r2
 8002a32:	61bb      	str	r3, [r7, #24]
        SYSCFG->EXTICR[position >> 2U] = temp;
 8002a34:	4935      	ldr	r1, [pc, #212]	; (8002b0c <HAL_GPIO_Init+0x304>)
 8002a36:	69fb      	ldr	r3, [r7, #28]
 8002a38:	089b      	lsrs	r3, r3, #2
 8002a3a:	3302      	adds	r3, #2
 8002a3c:	69ba      	ldr	r2, [r7, #24]
 8002a3e:	f841 2023 	str.w	r2, [r1, r3, lsl #2]

        /* Clear EXTI line configuration */
        temp = EXTI->IMR;
 8002a42:	4b3a      	ldr	r3, [pc, #232]	; (8002b2c <HAL_GPIO_Init+0x324>)
 8002a44:	681b      	ldr	r3, [r3, #0]
 8002a46:	61bb      	str	r3, [r7, #24]
        temp &= ~((uint32_t)iocurrent);
 8002a48:	693b      	ldr	r3, [r7, #16]
 8002a4a:	43db      	mvns	r3, r3
 8002a4c:	69ba      	ldr	r2, [r7, #24]
 8002a4e:	4013      	ands	r3, r2
 8002a50:	61bb      	str	r3, [r7, #24]
        if((GPIO_Init->Mode & EXTI_IT) != 0x00U)
 8002a52:	683b      	ldr	r3, [r7, #0]
 8002a54:	685b      	ldr	r3, [r3, #4]
 8002a56:	f403 3380 	and.w	r3, r3, #65536	; 0x10000
 8002a5a:	2b00      	cmp	r3, #0
 8002a5c:	d003      	beq.n	8002a66 <HAL_GPIO_Init+0x25e>
        {
          temp |= iocurrent;
 8002a5e:	69ba      	ldr	r2, [r7, #24]
 8002a60:	693b      	ldr	r3, [r7, #16]
 8002a62:	4313      	orrs	r3, r2
 8002a64:	61bb      	str	r3, [r7, #24]
        }
        EXTI->IMR = temp;
 8002a66:	4a31      	ldr	r2, [pc, #196]	; (8002b2c <HAL_GPIO_Init+0x324>)
 8002a68:	69bb      	ldr	r3, [r7, #24]
 8002a6a:	6013      	str	r3, [r2, #0]

        temp = EXTI->EMR;
 8002a6c:	4b2f      	ldr	r3, [pc, #188]	; (8002b2c <HAL_GPIO_Init+0x324>)
 8002a6e:	685b      	ldr	r3, [r3, #4]
 8002a70:	61bb      	str	r3, [r7, #24]
        temp &= ~((uint32_t)iocurrent);
 8002a72:	693b      	ldr	r3, [r7, #16]
 8002a74:	43db      	mvns	r3, r3
 8002a76:	69ba      	ldr	r2, [r7, #24]
 8002a78:	4013      	ands	r3, r2
 8002a7a:	61bb      	str	r3, [r7, #24]
        if((GPIO_Init->Mode & EXTI_EVT) != 0x00U)
 8002a7c:	683b      	ldr	r3, [r7, #0]
 8002a7e:	685b      	ldr	r3, [r3, #4]
 8002a80:	f403 3300 	and.w	r3, r3, #131072	; 0x20000
 8002a84:	2b00      	cmp	r3, #0
 8002a86:	d003      	beq.n	8002a90 <HAL_GPIO_Init+0x288>
        {
          temp |= iocurrent;
 8002a88:	69ba      	ldr	r2, [r7, #24]
 8002a8a:	693b      	ldr	r3, [r7, #16]
 8002a8c:	4313      	orrs	r3, r2
 8002a8e:	61bb      	str	r3, [r7, #24]
        }
        EXTI->EMR = temp;
 8002a90:	4a26      	ldr	r2, [pc, #152]	; (8002b2c <HAL_GPIO_Init+0x324>)
 8002a92:	69bb      	ldr	r3, [r7, #24]
 8002a94:	6053      	str	r3, [r2, #4]

        /* Clear Rising Falling edge configuration */
        temp = EXTI->RTSR;
 8002a96:	4b25      	ldr	r3, [pc, #148]	; (8002b2c <HAL_GPIO_Init+0x324>)
 8002a98:	689b      	ldr	r3, [r3, #8]
 8002a9a:	61bb      	str	r3, [r7, #24]
        temp &= ~((uint32_t)iocurrent);
 8002a9c:	693b      	ldr	r3, [r7, #16]
 8002a9e:	43db      	mvns	r3, r3
 8002aa0:	69ba      	ldr	r2, [r7, #24]
 8002aa2:	4013      	ands	r3, r2
 8002aa4:	61bb      	str	r3, [r7, #24]
        if((GPIO_Init->Mode & TRIGGER_RISING) != 0x00U)
 8002aa6:	683b      	ldr	r3, [r7, #0]
 8002aa8:	685b      	ldr	r3, [r3, #4]
 8002aaa:	f403 1380 	and.w	r3, r3, #1048576	; 0x100000
 8002aae:	2b00      	cmp	r3, #0
 8002ab0:	d003      	beq.n	8002aba <HAL_GPIO_Init+0x2b2>
        {
          temp |= iocurrent;
 8002ab2:	69ba      	ldr	r2, [r7, #24]
 8002ab4:	693b      	ldr	r3, [r7, #16]
 8002ab6:	4313      	orrs	r3, r2
 8002ab8:	61bb      	str	r3, [r7, #24]
        }
        EXTI->RTSR = temp;
 8002aba:	4a1c      	ldr	r2, [pc, #112]	; (8002b2c <HAL_GPIO_Init+0x324>)
 8002abc:	69bb      	ldr	r3, [r7, #24]
 8002abe:	6093      	str	r3, [r2, #8]

        temp = EXTI->FTSR;
 8002ac0:	4b1a      	ldr	r3, [pc, #104]	; (8002b2c <HAL_GPIO_Init+0x324>)
 8002ac2:	68db      	ldr	r3, [r3, #12]
 8002ac4:	61bb      	str	r3, [r7, #24]
        temp &= ~((uint32_t)iocurrent);
 8002ac6:	693b      	ldr	r3, [r7, #16]
 8002ac8:	43db      	mvns	r3, r3
 8002aca:	69ba      	ldr	r2, [r7, #24]
 8002acc:	4013      	ands	r3, r2
 8002ace:	61bb      	str	r3, [r7, #24]
        if((GPIO_Init->Mode & TRIGGER_FALLING) != 0x00U)
 8002ad0:	683b      	ldr	r3, [r7, #0]
 8002ad2:	685b      	ldr	r3, [r3, #4]
 8002ad4:	f403 1300 	and.w	r3, r3, #2097152	; 0x200000
 8002ad8:	2b00      	cmp	r3, #0
 8002ada:	d003      	beq.n	8002ae4 <HAL_GPIO_Init+0x2dc>
        {
          temp |= iocurrent;
 8002adc:	69ba      	ldr	r2, [r7, #24]
 8002ade:	693b      	ldr	r3, [r7, #16]
 8002ae0:	4313      	orrs	r3, r2
 8002ae2:	61bb      	str	r3, [r7, #24]
        }
        EXTI->FTSR = temp;
 8002ae4:	4a11      	ldr	r2, [pc, #68]	; (8002b2c <HAL_GPIO_Init+0x324>)
 8002ae6:	69bb      	ldr	r3, [r7, #24]
 8002ae8:	60d3      	str	r3, [r2, #12]
  for(position = 0U; position < GPIO_NUMBER; position++)
 8002aea:	69fb      	ldr	r3, [r7, #28]
 8002aec:	3301      	adds	r3, #1
 8002aee:	61fb      	str	r3, [r7, #28]
 8002af0:	69fb      	ldr	r3, [r7, #28]
 8002af2:	2b0f      	cmp	r3, #15
 8002af4:	f67f ae96 	bls.w	8002824 <HAL_GPIO_Init+0x1c>
      }
    }
  }
}
 8002af8:	bf00      	nop
 8002afa:	bf00      	nop
 8002afc:	3724      	adds	r7, #36	; 0x24
 8002afe:	46bd      	mov	sp, r7
 8002b00:	f85d 7b04 	ldr.w	r7, [sp], #4
 8002b04:	4770      	bx	lr
 8002b06:	bf00      	nop
 8002b08:	40023800 	.word	0x40023800
 8002b0c:	40013800 	.word	0x40013800
 8002b10:	40020000 	.word	0x40020000
 8002b14:	40020400 	.word	0x40020400
 8002b18:	40020800 	.word	0x40020800
 8002b1c:	40020c00 	.word	0x40020c00
 8002b20:	40021000 	.word	0x40021000
 8002b24:	40021400 	.word	0x40021400
 8002b28:	40021800 	.word	0x40021800
 8002b2c:	40013c00 	.word	0x40013c00

08002b30 <HAL_GPIO_WritePin>:
  *            @arg GPIO_PIN_RESET: to clear the port pin
  *            @arg GPIO_PIN_SET: to set the port pin
  * @retval None
  */
void HAL_GPIO_WritePin(GPIO_TypeDef* GPIOx, uint16_t GPIO_Pin, GPIO_PinState PinState)
{
 8002b30:	b480      	push	{r7}
 8002b32:	b083      	sub	sp, #12
 8002b34:	af00      	add	r7, sp, #0
 8002b36:	6078      	str	r0, [r7, #4]
 8002b38:	460b      	mov	r3, r1
 8002b3a:	807b      	strh	r3, [r7, #2]
 8002b3c:	4613      	mov	r3, r2
 8002b3e:	707b      	strb	r3, [r7, #1]
  /* Check the parameters */
  assert_param(IS_GPIO_PIN(GPIO_Pin));
  assert_param(IS_GPIO_PIN_ACTION(PinState));

  if(PinState != GPIO_PIN_RESET)
 8002b40:	787b      	ldrb	r3, [r7, #1]
 8002b42:	2b00      	cmp	r3, #0
 8002b44:	d003      	beq.n	8002b4e <HAL_GPIO_WritePin+0x1e>
  {
    GPIOx->BSRR = GPIO_Pin;
 8002b46:	887a      	ldrh	r2, [r7, #2]
 8002b48:	687b      	ldr	r3, [r7, #4]
 8002b4a:	619a      	str	r2, [r3, #24]
  }
  else
  {
    GPIOx->BSRR = (uint32_t)GPIO_Pin << 16U;
  }
}
 8002b4c:	e003      	b.n	8002b56 <HAL_GPIO_WritePin+0x26>
    GPIOx->BSRR = (uint32_t)GPIO_Pin << 16U;
 8002b4e:	887b      	ldrh	r3, [r7, #2]
 8002b50:	041a      	lsls	r2, r3, #16
 8002b52:	687b      	ldr	r3, [r7, #4]
 8002b54:	619a      	str	r2, [r3, #24]
}
 8002b56:	bf00      	nop
 8002b58:	370c      	adds	r7, #12
 8002b5a:	46bd      	mov	sp, r7
 8002b5c:	f85d 7b04 	ldr.w	r7, [sp], #4
 8002b60:	4770      	bx	lr
	...

08002b64 <HAL_RCC_ClockConfig>:
  *         HPRE[3:0] bits to ensure that HCLK not exceed the maximum allowed frequency
  *         (for more details refer to section above "Initialization/de-initialization functions")
  * @retval None
  */
HAL_StatusTypeDef HAL_RCC_ClockConfig(RCC_ClkInitTypeDef  *RCC_ClkInitStruct, uint32_t FLatency)
{
 8002b64:	b580      	push	{r7, lr}
 8002b66:	b084      	sub	sp, #16
 8002b68:	af00      	add	r7, sp, #0
 8002b6a:	6078      	str	r0, [r7, #4]
 8002b6c:	6039      	str	r1, [r7, #0]
  uint32_t tickstart;

  /* Check Null pointer */
  if(RCC_ClkInitStruct == NULL)
 8002b6e:	687b      	ldr	r3, [r7, #4]
 8002b70:	2b00      	cmp	r3, #0
 8002b72:	d101      	bne.n	8002b78 <HAL_RCC_ClockConfig+0x14>
  {
    return HAL_ERROR;
 8002b74:	2301      	movs	r3, #1
 8002b76:	e0cc      	b.n	8002d12 <HAL_RCC_ClockConfig+0x1ae>
  /* To correctly read data from FLASH memory, the number of wait states (LATENCY)
    must be correctly programmed according to the frequency of the CPU clock
    (HCLK) and the supply voltage of the device. */

  /* Increasing the number of wait states because of higher CPU frequency */
  if(FLatency > __HAL_FLASH_GET_LATENCY())
 8002b78:	4b68      	ldr	r3, [pc, #416]	; (8002d1c <HAL_RCC_ClockConfig+0x1b8>)
 8002b7a:	681b      	ldr	r3, [r3, #0]
 8002b7c:	f003 030f 	and.w	r3, r3, #15
 8002b80:	683a      	ldr	r2, [r7, #0]
 8002b82:	429a      	cmp	r2, r3
 8002b84:	d90c      	bls.n	8002ba0 <HAL_RCC_ClockConfig+0x3c>
  {
    /* Program the new number of wait states to the LATENCY bits in the FLASH_ACR register */
    __HAL_FLASH_SET_LATENCY(FLatency);
 8002b86:	4b65      	ldr	r3, [pc, #404]	; (8002d1c <HAL_RCC_ClockConfig+0x1b8>)
 8002b88:	683a      	ldr	r2, [r7, #0]
 8002b8a:	b2d2      	uxtb	r2, r2
 8002b8c:	701a      	strb	r2, [r3, #0]

    /* Check that the new number of wait states is taken into account to access the Flash
    memory by reading the FLASH_ACR register */
    if(__HAL_FLASH_GET_LATENCY() != FLatency)
 8002b8e:	4b63      	ldr	r3, [pc, #396]	; (8002d1c <HAL_RCC_ClockConfig+0x1b8>)
 8002b90:	681b      	ldr	r3, [r3, #0]
 8002b92:	f003 030f 	and.w	r3, r3, #15
 8002b96:	683a      	ldr	r2, [r7, #0]
 8002b98:	429a      	cmp	r2, r3
 8002b9a:	d001      	beq.n	8002ba0 <HAL_RCC_ClockConfig+0x3c>
    {
      return HAL_ERROR;
 8002b9c:	2301      	movs	r3, #1
 8002b9e:	e0b8      	b.n	8002d12 <HAL_RCC_ClockConfig+0x1ae>
    }
  }

  /*-------------------------- HCLK Configuration --------------------------*/
  if(((RCC_ClkInitStruct->ClockType) & RCC_CLOCKTYPE_HCLK) == RCC_CLOCKTYPE_HCLK)
 8002ba0:	687b      	ldr	r3, [r7, #4]
 8002ba2:	681b      	ldr	r3, [r3, #0]
 8002ba4:	f003 0302 	and.w	r3, r3, #2
 8002ba8:	2b00      	cmp	r3, #0
 8002baa:	d020      	beq.n	8002bee <HAL_RCC_ClockConfig+0x8a>
  {
    /* Set the highest APBx dividers in order to ensure that we do not go through
       a non-spec phase whatever we decrease or increase HCLK. */
    if(((RCC_ClkInitStruct->ClockType) & RCC_CLOCKTYPE_PCLK1) == RCC_CLOCKTYPE_PCLK1)
 8002bac:	687b      	ldr	r3, [r7, #4]
 8002bae:	681b      	ldr	r3, [r3, #0]
 8002bb0:	f003 0304 	and.w	r3, r3, #4
 8002bb4:	2b00      	cmp	r3, #0
 8002bb6:	d005      	beq.n	8002bc4 <HAL_RCC_ClockConfig+0x60>
    {
      MODIFY_REG(RCC->CFGR, RCC_CFGR_PPRE1, RCC_HCLK_DIV16);
 8002bb8:	4b59      	ldr	r3, [pc, #356]	; (8002d20 <HAL_RCC_ClockConfig+0x1bc>)
 8002bba:	689b      	ldr	r3, [r3, #8]
 8002bbc:	4a58      	ldr	r2, [pc, #352]	; (8002d20 <HAL_RCC_ClockConfig+0x1bc>)
 8002bbe:	f443 53e0 	orr.w	r3, r3, #7168	; 0x1c00
 8002bc2:	6093      	str	r3, [r2, #8]
    }

    if(((RCC_ClkInitStruct->ClockType) & RCC_CLOCKTYPE_PCLK2) == RCC_CLOCKTYPE_PCLK2)
 8002bc4:	687b      	ldr	r3, [r7, #4]
 8002bc6:	681b      	ldr	r3, [r3, #0]
 8002bc8:	f003 0308 	and.w	r3, r3, #8
 8002bcc:	2b00      	cmp	r3, #0
 8002bce:	d005      	beq.n	8002bdc <HAL_RCC_ClockConfig+0x78>
    {
      MODIFY_REG(RCC->CFGR, RCC_CFGR_PPRE2, (RCC_HCLK_DIV16 << 3));
 8002bd0:	4b53      	ldr	r3, [pc, #332]	; (8002d20 <HAL_RCC_ClockConfig+0x1bc>)
 8002bd2:	689b      	ldr	r3, [r3, #8]
 8002bd4:	4a52      	ldr	r2, [pc, #328]	; (8002d20 <HAL_RCC_ClockConfig+0x1bc>)
 8002bd6:	f443 4360 	orr.w	r3, r3, #57344	; 0xe000
 8002bda:	6093      	str	r3, [r2, #8]
    }

    assert_param(IS_RCC_HCLK(RCC_ClkInitStruct->AHBCLKDivider));
    MODIFY_REG(RCC->CFGR, RCC_CFGR_HPRE, RCC_ClkInitStruct->AHBCLKDivider);
 8002bdc:	4b50      	ldr	r3, [pc, #320]	; (8002d20 <HAL_RCC_ClockConfig+0x1bc>)
 8002bde:	689b      	ldr	r3, [r3, #8]
 8002be0:	f023 02f0 	bic.w	r2, r3, #240	; 0xf0
 8002be4:	687b      	ldr	r3, [r7, #4]
 8002be6:	689b      	ldr	r3, [r3, #8]
 8002be8:	494d      	ldr	r1, [pc, #308]	; (8002d20 <HAL_RCC_ClockConfig+0x1bc>)
 8002bea:	4313      	orrs	r3, r2
 8002bec:	608b      	str	r3, [r1, #8]
  }

  /*------------------------- SYSCLK Configuration ---------------------------*/
  if(((RCC_ClkInitStruct->ClockType) & RCC_CLOCKTYPE_SYSCLK) == RCC_CLOCKTYPE_SYSCLK)
 8002bee:	687b      	ldr	r3, [r7, #4]
 8002bf0:	681b      	ldr	r3, [r3, #0]
 8002bf2:	f003 0301 	and.w	r3, r3, #1
 8002bf6:	2b00      	cmp	r3, #0
 8002bf8:	d044      	beq.n	8002c84 <HAL_RCC_ClockConfig+0x120>
  {
    assert_param(IS_RCC_SYSCLKSOURCE(RCC_ClkInitStruct->SYSCLKSource));

    /* HSE is selected as System Clock Source */
    if(RCC_ClkInitStruct->SYSCLKSource == RCC_SYSCLKSOURCE_HSE)
 8002bfa:	687b      	ldr	r3, [r7, #4]
 8002bfc:	685b      	ldr	r3, [r3, #4]
 8002bfe:	2b01      	cmp	r3, #1
 8002c00:	d107      	bne.n	8002c12 <HAL_RCC_ClockConfig+0xae>
    {
      /* Check the HSE ready flag */
      if(__HAL_RCC_GET_FLAG(RCC_FLAG_HSERDY) == RESET)
 8002c02:	4b47      	ldr	r3, [pc, #284]	; (8002d20 <HAL_RCC_ClockConfig+0x1bc>)
 8002c04:	681b      	ldr	r3, [r3, #0]
 8002c06:	f403 3300 	and.w	r3, r3, #131072	; 0x20000
 8002c0a:	2b00      	cmp	r3, #0
 8002c0c:	d119      	bne.n	8002c42 <HAL_RCC_ClockConfig+0xde>
      {
        return HAL_ERROR;
 8002c0e:	2301      	movs	r3, #1
 8002c10:	e07f      	b.n	8002d12 <HAL_RCC_ClockConfig+0x1ae>
      }
    }
    /* PLL is selected as System Clock Source */
    else if((RCC_ClkInitStruct->SYSCLKSource == RCC_SYSCLKSOURCE_PLLCLK)   ||
 8002c12:	687b      	ldr	r3, [r7, #4]
 8002c14:	685b      	ldr	r3, [r3, #4]
 8002c16:	2b02      	cmp	r3, #2
 8002c18:	d003      	beq.n	8002c22 <HAL_RCC_ClockConfig+0xbe>
            (RCC_ClkInitStruct->SYSCLKSource == RCC_SYSCLKSOURCE_PLLRCLK))
 8002c1a:	687b      	ldr	r3, [r7, #4]
 8002c1c:	685b      	ldr	r3, [r3, #4]
    else if((RCC_ClkInitStruct->SYSCLKSource == RCC_SYSCLKSOURCE_PLLCLK)   ||
 8002c1e:	2b03      	cmp	r3, #3
 8002c20:	d107      	bne.n	8002c32 <HAL_RCC_ClockConfig+0xce>
    {
      /* Check the PLL ready flag */
      if(__HAL_RCC_GET_FLAG(RCC_FLAG_PLLRDY) == RESET)
 8002c22:	4b3f      	ldr	r3, [pc, #252]	; (8002d20 <HAL_RCC_ClockConfig+0x1bc>)
 8002c24:	681b      	ldr	r3, [r3, #0]
 8002c26:	f003 7300 	and.w	r3, r3, #33554432	; 0x2000000
 8002c2a:	2b00      	cmp	r3, #0
 8002c2c:	d109      	bne.n	8002c42 <HAL_RCC_ClockConfig+0xde>
      {
        return HAL_ERROR;
 8002c2e:	2301      	movs	r3, #1
 8002c30:	e06f      	b.n	8002d12 <HAL_RCC_ClockConfig+0x1ae>
    }
    /* HSI is selected as System Clock Source */
    else
    {
      /* Check the HSI ready flag */
      if(__HAL_RCC_GET_FLAG(RCC_FLAG_HSIRDY) == RESET)
 8002c32:	4b3b      	ldr	r3, [pc, #236]	; (8002d20 <HAL_RCC_ClockConfig+0x1bc>)
 8002c34:	681b      	ldr	r3, [r3, #0]
 8002c36:	f003 0302 	and.w	r3, r3, #2
 8002c3a:	2b00      	cmp	r3, #0
 8002c3c:	d101      	bne.n	8002c42 <HAL_RCC_ClockConfig+0xde>
      {
        return HAL_ERROR;
 8002c3e:	2301      	movs	r3, #1
 8002c40:	e067      	b.n	8002d12 <HAL_RCC_ClockConfig+0x1ae>
      }
    }

    __HAL_RCC_SYSCLK_CONFIG(RCC_ClkInitStruct->SYSCLKSource);
 8002c42:	4b37      	ldr	r3, [pc, #220]	; (8002d20 <HAL_RCC_ClockConfig+0x1bc>)
 8002c44:	689b      	ldr	r3, [r3, #8]
 8002c46:	f023 0203 	bic.w	r2, r3, #3
 8002c4a:	687b      	ldr	r3, [r7, #4]
 8002c4c:	685b      	ldr	r3, [r3, #4]
 8002c4e:	4934      	ldr	r1, [pc, #208]	; (8002d20 <HAL_RCC_ClockConfig+0x1bc>)
 8002c50:	4313      	orrs	r3, r2
 8002c52:	608b      	str	r3, [r1, #8]

    /* Get Start Tick */
    tickstart = HAL_GetTick();
 8002c54:	f7ff fc96 	bl	8002584 <HAL_GetTick>
 8002c58:	60f8      	str	r0, [r7, #12]

    while (__HAL_RCC_GET_SYSCLK_SOURCE() != (RCC_ClkInitStruct->SYSCLKSource << RCC_CFGR_SWS_Pos))
 8002c5a:	e00a      	b.n	8002c72 <HAL_RCC_ClockConfig+0x10e>
    {
      if ((HAL_GetTick() - tickstart) > CLOCKSWITCH_TIMEOUT_VALUE)
 8002c5c:	f7ff fc92 	bl	8002584 <HAL_GetTick>
 8002c60:	4602      	mov	r2, r0
 8002c62:	68fb      	ldr	r3, [r7, #12]
 8002c64:	1ad3      	subs	r3, r2, r3
 8002c66:	f241 3288 	movw	r2, #5000	; 0x1388
 8002c6a:	4293      	cmp	r3, r2
 8002c6c:	d901      	bls.n	8002c72 <HAL_RCC_ClockConfig+0x10e>
      {
        return HAL_TIMEOUT;
 8002c6e:	2303      	movs	r3, #3
 8002c70:	e04f      	b.n	8002d12 <HAL_RCC_ClockConfig+0x1ae>
    while (__HAL_RCC_GET_SYSCLK_SOURCE() != (RCC_ClkInitStruct->SYSCLKSource << RCC_CFGR_SWS_Pos))
 8002c72:	4b2b      	ldr	r3, [pc, #172]	; (8002d20 <HAL_RCC_ClockConfig+0x1bc>)
 8002c74:	689b      	ldr	r3, [r3, #8]
 8002c76:	f003 020c 	and.w	r2, r3, #12
 8002c7a:	687b      	ldr	r3, [r7, #4]
 8002c7c:	685b      	ldr	r3, [r3, #4]
 8002c7e:	009b      	lsls	r3, r3, #2
 8002c80:	429a      	cmp	r2, r3
 8002c82:	d1eb      	bne.n	8002c5c <HAL_RCC_ClockConfig+0xf8>
      }
    }
  }

  /* Decreasing the number of wait states because of lower CPU frequency */
  if(FLatency < __HAL_FLASH_GET_LATENCY())
 8002c84:	4b25      	ldr	r3, [pc, #148]	; (8002d1c <HAL_RCC_ClockConfig+0x1b8>)
 8002c86:	681b      	ldr	r3, [r3, #0]
 8002c88:	f003 030f 	and.w	r3, r3, #15
 8002c8c:	683a      	ldr	r2, [r7, #0]
 8002c8e:	429a      	cmp	r2, r3
 8002c90:	d20c      	bcs.n	8002cac <HAL_RCC_ClockConfig+0x148>
  {
     /* Program the new number of wait states to the LATENCY bits in the FLASH_ACR register */
    __HAL_FLASH_SET_LATENCY(FLatency);
 8002c92:	4b22      	ldr	r3, [pc, #136]	; (8002d1c <HAL_RCC_ClockConfig+0x1b8>)
 8002c94:	683a      	ldr	r2, [r7, #0]
 8002c96:	b2d2      	uxtb	r2, r2
 8002c98:	701a      	strb	r2, [r3, #0]

    /* Check that the new number of wait states is taken into account to access the Flash
    memory by reading the FLASH_ACR register */
    if(__HAL_FLASH_GET_LATENCY() != FLatency)
 8002c9a:	4b20      	ldr	r3, [pc, #128]	; (8002d1c <HAL_RCC_ClockConfig+0x1b8>)
 8002c9c:	681b      	ldr	r3, [r3, #0]
 8002c9e:	f003 030f 	and.w	r3, r3, #15
 8002ca2:	683a      	ldr	r2, [r7, #0]
 8002ca4:	429a      	cmp	r2, r3
 8002ca6:	d001      	beq.n	8002cac <HAL_RCC_ClockConfig+0x148>
    {
      return HAL_ERROR;
 8002ca8:	2301      	movs	r3, #1
 8002caa:	e032      	b.n	8002d12 <HAL_RCC_ClockConfig+0x1ae>
    }
  }

  /*-------------------------- PCLK1 Configuration ---------------------------*/
  if(((RCC_ClkInitStruct->ClockType) & RCC_CLOCKTYPE_PCLK1) == RCC_CLOCKTYPE_PCLK1)
 8002cac:	687b      	ldr	r3, [r7, #4]
 8002cae:	681b      	ldr	r3, [r3, #0]
 8002cb0:	f003 0304 	and.w	r3, r3, #4
 8002cb4:	2b00      	cmp	r3, #0
 8002cb6:	d008      	beq.n	8002cca <HAL_RCC_ClockConfig+0x166>
  {
    assert_param(IS_RCC_PCLK(RCC_ClkInitStruct->APB1CLKDivider));
    MODIFY_REG(RCC->CFGR, RCC_CFGR_PPRE1, RCC_ClkInitStruct->APB1CLKDivider);
 8002cb8:	4b19      	ldr	r3, [pc, #100]	; (8002d20 <HAL_RCC_ClockConfig+0x1bc>)
 8002cba:	689b      	ldr	r3, [r3, #8]
 8002cbc:	f423 52e0 	bic.w	r2, r3, #7168	; 0x1c00
 8002cc0:	687b      	ldr	r3, [r7, #4]
 8002cc2:	68db      	ldr	r3, [r3, #12]
 8002cc4:	4916      	ldr	r1, [pc, #88]	; (8002d20 <HAL_RCC_ClockConfig+0x1bc>)
 8002cc6:	4313      	orrs	r3, r2
 8002cc8:	608b      	str	r3, [r1, #8]
  }

  /*-------------------------- PCLK2 Configuration ---------------------------*/
  if(((RCC_ClkInitStruct->ClockType) & RCC_CLOCKTYPE_PCLK2) == RCC_CLOCKTYPE_PCLK2)
 8002cca:	687b      	ldr	r3, [r7, #4]
 8002ccc:	681b      	ldr	r3, [r3, #0]
 8002cce:	f003 0308 	and.w	r3, r3, #8
 8002cd2:	2b00      	cmp	r3, #0
 8002cd4:	d009      	beq.n	8002cea <HAL_RCC_ClockConfig+0x186>
  {
    assert_param(IS_RCC_PCLK(RCC_ClkInitStruct->APB2CLKDivider));
    MODIFY_REG(RCC->CFGR, RCC_CFGR_PPRE2, ((RCC_ClkInitStruct->APB2CLKDivider) << 3U));
 8002cd6:	4b12      	ldr	r3, [pc, #72]	; (8002d20 <HAL_RCC_ClockConfig+0x1bc>)
 8002cd8:	689b      	ldr	r3, [r3, #8]
 8002cda:	f423 4260 	bic.w	r2, r3, #57344	; 0xe000
 8002cde:	687b      	ldr	r3, [r7, #4]
 8002ce0:	691b      	ldr	r3, [r3, #16]
 8002ce2:	00db      	lsls	r3, r3, #3
 8002ce4:	490e      	ldr	r1, [pc, #56]	; (8002d20 <HAL_RCC_ClockConfig+0x1bc>)
 8002ce6:	4313      	orrs	r3, r2
 8002ce8:	608b      	str	r3, [r1, #8]
  }

  /* Update the SystemCoreClock global variable */
  SystemCoreClock = HAL_RCC_GetSysClockFreq() >> AHBPrescTable[(RCC->CFGR & RCC_CFGR_HPRE)>> RCC_CFGR_HPRE_Pos];
 8002cea:	f000 f855 	bl	8002d98 <HAL_RCC_GetSysClockFreq>
 8002cee:	4602      	mov	r2, r0
 8002cf0:	4b0b      	ldr	r3, [pc, #44]	; (8002d20 <HAL_RCC_ClockConfig+0x1bc>)
 8002cf2:	689b      	ldr	r3, [r3, #8]
 8002cf4:	091b      	lsrs	r3, r3, #4
 8002cf6:	f003 030f 	and.w	r3, r3, #15
 8002cfa:	490a      	ldr	r1, [pc, #40]	; (8002d24 <HAL_RCC_ClockConfig+0x1c0>)
 8002cfc:	5ccb      	ldrb	r3, [r1, r3]
 8002cfe:	fa22 f303 	lsr.w	r3, r2, r3
 8002d02:	4a09      	ldr	r2, [pc, #36]	; (8002d28 <HAL_RCC_ClockConfig+0x1c4>)
 8002d04:	6013      	str	r3, [r2, #0]

  /* Configure the source of time base considering new system clocks settings */
  HAL_InitTick (uwTickPrio);
 8002d06:	4b09      	ldr	r3, [pc, #36]	; (8002d2c <HAL_RCC_ClockConfig+0x1c8>)
 8002d08:	681b      	ldr	r3, [r3, #0]
 8002d0a:	4618      	mov	r0, r3
 8002d0c:	f7ff fbf6 	bl	80024fc <HAL_InitTick>

  return HAL_OK;
 8002d10:	2300      	movs	r3, #0
}
 8002d12:	4618      	mov	r0, r3
 8002d14:	3710      	adds	r7, #16
 8002d16:	46bd      	mov	sp, r7
 8002d18:	bd80      	pop	{r7, pc}
 8002d1a:	bf00      	nop
 8002d1c:	40023c00 	.word	0x40023c00
 8002d20:	40023800 	.word	0x40023800
 8002d24:	08008ccc 	.word	0x08008ccc
 8002d28:	20000018 	.word	0x20000018
 8002d2c:	2000001c 	.word	0x2000001c

08002d30 <HAL_RCC_GetHCLKFreq>:
  * @note   The SystemCoreClock CMSIS variable is used to store System Clock Frequency
  *         and updated within this function
  * @retval HCLK frequency
  */
uint32_t HAL_RCC_GetHCLKFreq(void)
{
 8002d30:	b480      	push	{r7}
 8002d32:	af00      	add	r7, sp, #0
  return SystemCoreClock;
 8002d34:	4b03      	ldr	r3, [pc, #12]	; (8002d44 <HAL_RCC_GetHCLKFreq+0x14>)
 8002d36:	681b      	ldr	r3, [r3, #0]
}
 8002d38:	4618      	mov	r0, r3
 8002d3a:	46bd      	mov	sp, r7
 8002d3c:	f85d 7b04 	ldr.w	r7, [sp], #4
 8002d40:	4770      	bx	lr
 8002d42:	bf00      	nop
 8002d44:	20000018 	.word	0x20000018

08002d48 <HAL_RCC_GetPCLK1Freq>:
  * @note   Each time PCLK1 changes, this function must be called to update the
  *         right PCLK1 value. Otherwise, any configuration based on this function will be incorrect.
  * @retval PCLK1 frequency
  */
uint32_t HAL_RCC_GetPCLK1Freq(void)
{
 8002d48:	b580      	push	{r7, lr}
 8002d4a:	af00      	add	r7, sp, #0
  /* Get HCLK source and Compute PCLK1 frequency ---------------------------*/
  return (HAL_RCC_GetHCLKFreq() >> APBPrescTable[(RCC->CFGR & RCC_CFGR_PPRE1)>> RCC_CFGR_PPRE1_Pos]);
 8002d4c:	f7ff fff0 	bl	8002d30 <HAL_RCC_GetHCLKFreq>
 8002d50:	4602      	mov	r2, r0
 8002d52:	4b05      	ldr	r3, [pc, #20]	; (8002d68 <HAL_RCC_GetPCLK1Freq+0x20>)
 8002d54:	689b      	ldr	r3, [r3, #8]
 8002d56:	0a9b      	lsrs	r3, r3, #10
 8002d58:	f003 0307 	and.w	r3, r3, #7
 8002d5c:	4903      	ldr	r1, [pc, #12]	; (8002d6c <HAL_RCC_GetPCLK1Freq+0x24>)
 8002d5e:	5ccb      	ldrb	r3, [r1, r3]
 8002d60:	fa22 f303 	lsr.w	r3, r2, r3
}
 8002d64:	4618      	mov	r0, r3
 8002d66:	bd80      	pop	{r7, pc}
 8002d68:	40023800 	.word	0x40023800
 8002d6c:	08008cdc 	.word	0x08008cdc

08002d70 <HAL_RCC_GetPCLK2Freq>:
  * @note   Each time PCLK2 changes, this function must be called to update the
  *         right PCLK2 value. Otherwise, any configuration based on this function will be incorrect.
  * @retval PCLK2 frequency
  */
uint32_t HAL_RCC_GetPCLK2Freq(void)
{
 8002d70:	b580      	push	{r7, lr}
 8002d72:	af00      	add	r7, sp, #0
  /* Get HCLK source and Compute PCLK2 frequency ---------------------------*/
  return (HAL_RCC_GetHCLKFreq()>> APBPrescTable[(RCC->CFGR & RCC_CFGR_PPRE2)>> RCC_CFGR_PPRE2_Pos]);
 8002d74:	f7ff ffdc 	bl	8002d30 <HAL_RCC_GetHCLKFreq>
 8002d78:	4602      	mov	r2, r0
 8002d7a:	4b05      	ldr	r3, [pc, #20]	; (8002d90 <HAL_RCC_GetPCLK2Freq+0x20>)
 8002d7c:	689b      	ldr	r3, [r3, #8]
 8002d7e:	0b5b      	lsrs	r3, r3, #13
 8002d80:	f003 0307 	and.w	r3, r3, #7
 8002d84:	4903      	ldr	r1, [pc, #12]	; (8002d94 <HAL_RCC_GetPCLK2Freq+0x24>)
 8002d86:	5ccb      	ldrb	r3, [r1, r3]
 8002d88:	fa22 f303 	lsr.w	r3, r2, r3
}
 8002d8c:	4618      	mov	r0, r3
 8002d8e:	bd80      	pop	{r7, pc}
 8002d90:	40023800 	.word	0x40023800
 8002d94:	08008cdc 	.word	0x08008cdc

08002d98 <HAL_RCC_GetSysClockFreq>:
  *
  *
  * @retval SYSCLK frequency
  */
uint32_t HAL_RCC_GetSysClockFreq(void)
{
 8002d98:	e92d 4fb0 	stmdb	sp!, {r4, r5, r7, r8, r9, sl, fp, lr}
 8002d9c:	b088      	sub	sp, #32
 8002d9e:	af00      	add	r7, sp, #0
  uint32_t pllm = 0U;
 8002da0:	2300      	movs	r3, #0
 8002da2:	617b      	str	r3, [r7, #20]
  uint32_t pllvco = 0U;
 8002da4:	2300      	movs	r3, #0
 8002da6:	61fb      	str	r3, [r7, #28]
  uint32_t pllp = 0U;
 8002da8:	2300      	movs	r3, #0
 8002daa:	613b      	str	r3, [r7, #16]
  uint32_t pllr = 0U;
 8002dac:	2300      	movs	r3, #0
 8002dae:	60fb      	str	r3, [r7, #12]
  uint32_t sysclockfreq = 0U;
 8002db0:	2300      	movs	r3, #0
 8002db2:	61bb      	str	r3, [r7, #24]

  /* Get SYSCLK source -------------------------------------------------------*/
  switch (RCC->CFGR & RCC_CFGR_SWS)
 8002db4:	4bce      	ldr	r3, [pc, #824]	; (80030f0 <HAL_RCC_GetSysClockFreq+0x358>)
 8002db6:	689b      	ldr	r3, [r3, #8]
 8002db8:	f003 030c 	and.w	r3, r3, #12
 8002dbc:	2b0c      	cmp	r3, #12
 8002dbe:	f200 818d 	bhi.w	80030dc <HAL_RCC_GetSysClockFreq+0x344>
 8002dc2:	a201      	add	r2, pc, #4	; (adr r2, 8002dc8 <HAL_RCC_GetSysClockFreq+0x30>)
 8002dc4:	f852 f023 	ldr.w	pc, [r2, r3, lsl #2]
 8002dc8:	08002dfd 	.word	0x08002dfd
 8002dcc:	080030dd 	.word	0x080030dd
 8002dd0:	080030dd 	.word	0x080030dd
 8002dd4:	080030dd 	.word	0x080030dd
 8002dd8:	08002e03 	.word	0x08002e03
 8002ddc:	080030dd 	.word	0x080030dd
 8002de0:	080030dd 	.word	0x080030dd
 8002de4:	080030dd 	.word	0x080030dd
 8002de8:	08002e09 	.word	0x08002e09
 8002dec:	080030dd 	.word	0x080030dd
 8002df0:	080030dd 	.word	0x080030dd
 8002df4:	080030dd 	.word	0x080030dd
 8002df8:	08002f7d 	.word	0x08002f7d
  {
    case RCC_CFGR_SWS_HSI:  /* HSI used as system clock source */
    {
      sysclockfreq = HSI_VALUE;
 8002dfc:	4bbd      	ldr	r3, [pc, #756]	; (80030f4 <HAL_RCC_GetSysClockFreq+0x35c>)
 8002dfe:	61bb      	str	r3, [r7, #24]
       break;
 8002e00:	e16f      	b.n	80030e2 <HAL_RCC_GetSysClockFreq+0x34a>
    }
    case RCC_CFGR_SWS_HSE:  /* HSE used as system clock  source */
    {
      sysclockfreq = HSE_VALUE;
 8002e02:	4bbd      	ldr	r3, [pc, #756]	; (80030f8 <HAL_RCC_GetSysClockFreq+0x360>)
 8002e04:	61bb      	str	r3, [r7, #24]
      break;
 8002e06:	e16c      	b.n	80030e2 <HAL_RCC_GetSysClockFreq+0x34a>
    }
    case RCC_CFGR_SWS_PLL:  /* PLL/PLLP used as system clock  source */
    {
      /* PLL_VCO = (HSE_VALUE or HSI_VALUE / PLLM) * PLLN
      SYSCLK = PLL_VCO / PLLP */
      pllm = RCC->PLLCFGR & RCC_PLLCFGR_PLLM;
 8002e08:	4bb9      	ldr	r3, [pc, #740]	; (80030f0 <HAL_RCC_GetSysClockFreq+0x358>)
 8002e0a:	685b      	ldr	r3, [r3, #4]
 8002e0c:	f003 033f 	and.w	r3, r3, #63	; 0x3f
 8002e10:	617b      	str	r3, [r7, #20]
      if(__HAL_RCC_GET_PLL_OSCSOURCE() != RCC_PLLSOURCE_HSI)
 8002e12:	4bb7      	ldr	r3, [pc, #732]	; (80030f0 <HAL_RCC_GetSysClockFreq+0x358>)
 8002e14:	685b      	ldr	r3, [r3, #4]
 8002e16:	f403 0380 	and.w	r3, r3, #4194304	; 0x400000
 8002e1a:	2b00      	cmp	r3, #0
 8002e1c:	d053      	beq.n	8002ec6 <HAL_RCC_GetSysClockFreq+0x12e>
      {
        /* HSE used as PLL clock source */
        pllvco = (uint32_t) ((((uint64_t) HSE_VALUE * ((uint64_t) ((RCC->PLLCFGR & RCC_PLLCFGR_PLLN) >> RCC_PLLCFGR_PLLN_Pos)))) / (uint64_t)pllm);
 8002e1e:	4bb4      	ldr	r3, [pc, #720]	; (80030f0 <HAL_RCC_GetSysClockFreq+0x358>)
 8002e20:	685b      	ldr	r3, [r3, #4]
 8002e22:	099b      	lsrs	r3, r3, #6
 8002e24:	461a      	mov	r2, r3
 8002e26:	f04f 0300 	mov.w	r3, #0
 8002e2a:	f240 10ff 	movw	r0, #511	; 0x1ff
 8002e2e:	f04f 0100 	mov.w	r1, #0
 8002e32:	ea02 0400 	and.w	r4, r2, r0
 8002e36:	603c      	str	r4, [r7, #0]
 8002e38:	400b      	ands	r3, r1
 8002e3a:	607b      	str	r3, [r7, #4]
 8002e3c:	e9d7 4500 	ldrd	r4, r5, [r7]
 8002e40:	4620      	mov	r0, r4
 8002e42:	4629      	mov	r1, r5
 8002e44:	f04f 0200 	mov.w	r2, #0
 8002e48:	f04f 0300 	mov.w	r3, #0
 8002e4c:	014b      	lsls	r3, r1, #5
 8002e4e:	ea43 63d0 	orr.w	r3, r3, r0, lsr #27
 8002e52:	0142      	lsls	r2, r0, #5
 8002e54:	4610      	mov	r0, r2
 8002e56:	4619      	mov	r1, r3
 8002e58:	4623      	mov	r3, r4
 8002e5a:	1ac0      	subs	r0, r0, r3
 8002e5c:	462b      	mov	r3, r5
 8002e5e:	eb61 0103 	sbc.w	r1, r1, r3
 8002e62:	f04f 0200 	mov.w	r2, #0
 8002e66:	f04f 0300 	mov.w	r3, #0
 8002e6a:	018b      	lsls	r3, r1, #6
 8002e6c:	ea43 6390 	orr.w	r3, r3, r0, lsr #26
 8002e70:	0182      	lsls	r2, r0, #6
 8002e72:	1a12      	subs	r2, r2, r0
 8002e74:	eb63 0301 	sbc.w	r3, r3, r1
 8002e78:	f04f 0000 	mov.w	r0, #0
 8002e7c:	f04f 0100 	mov.w	r1, #0
 8002e80:	00d9      	lsls	r1, r3, #3
 8002e82:	ea41 7152 	orr.w	r1, r1, r2, lsr #29
 8002e86:	00d0      	lsls	r0, r2, #3
 8002e88:	4602      	mov	r2, r0
 8002e8a:	460b      	mov	r3, r1
 8002e8c:	4621      	mov	r1, r4
 8002e8e:	1852      	adds	r2, r2, r1
 8002e90:	4629      	mov	r1, r5
 8002e92:	eb43 0101 	adc.w	r1, r3, r1
 8002e96:	460b      	mov	r3, r1
 8002e98:	f04f 0000 	mov.w	r0, #0
 8002e9c:	f04f 0100 	mov.w	r1, #0
 8002ea0:	0259      	lsls	r1, r3, #9
 8002ea2:	ea41 51d2 	orr.w	r1, r1, r2, lsr #23
 8002ea6:	0250      	lsls	r0, r2, #9
 8002ea8:	4602      	mov	r2, r0
 8002eaa:	460b      	mov	r3, r1
 8002eac:	4610      	mov	r0, r2
 8002eae:	4619      	mov	r1, r3
 8002eb0:	697b      	ldr	r3, [r7, #20]
 8002eb2:	461a      	mov	r2, r3
 8002eb4:	f04f 0300 	mov.w	r3, #0
 8002eb8:	f7fd fee6 	bl	8000c88 <__aeabi_uldivmod>
 8002ebc:	4602      	mov	r2, r0
 8002ebe:	460b      	mov	r3, r1
 8002ec0:	4613      	mov	r3, r2
 8002ec2:	61fb      	str	r3, [r7, #28]
 8002ec4:	e04c      	b.n	8002f60 <HAL_RCC_GetSysClockFreq+0x1c8>
      }
      else
      {
        /* HSI used as PLL clock source */
        pllvco = (uint32_t) ((((uint64_t) HSI_VALUE * ((uint64_t) ((RCC->PLLCFGR & RCC_PLLCFGR_PLLN) >> RCC_PLLCFGR_PLLN_Pos)))) / (uint64_t)pllm);
 8002ec6:	4b8a      	ldr	r3, [pc, #552]	; (80030f0 <HAL_RCC_GetSysClockFreq+0x358>)
 8002ec8:	685b      	ldr	r3, [r3, #4]
 8002eca:	099b      	lsrs	r3, r3, #6
 8002ecc:	461a      	mov	r2, r3
 8002ece:	f04f 0300 	mov.w	r3, #0
 8002ed2:	f240 10ff 	movw	r0, #511	; 0x1ff
 8002ed6:	f04f 0100 	mov.w	r1, #0
 8002eda:	ea02 0a00 	and.w	sl, r2, r0
 8002ede:	ea03 0b01 	and.w	fp, r3, r1
 8002ee2:	4650      	mov	r0, sl
 8002ee4:	4659      	mov	r1, fp
 8002ee6:	f04f 0200 	mov.w	r2, #0
 8002eea:	f04f 0300 	mov.w	r3, #0
 8002eee:	014b      	lsls	r3, r1, #5
 8002ef0:	ea43 63d0 	orr.w	r3, r3, r0, lsr #27
 8002ef4:	0142      	lsls	r2, r0, #5
 8002ef6:	4610      	mov	r0, r2
 8002ef8:	4619      	mov	r1, r3
 8002efa:	ebb0 000a 	subs.w	r0, r0, sl
 8002efe:	eb61 010b 	sbc.w	r1, r1, fp
 8002f02:	f04f 0200 	mov.w	r2, #0
 8002f06:	f04f 0300 	mov.w	r3, #0
 8002f0a:	018b      	lsls	r3, r1, #6
 8002f0c:	ea43 6390 	orr.w	r3, r3, r0, lsr #26
 8002f10:	0182      	lsls	r2, r0, #6
 8002f12:	1a12      	subs	r2, r2, r0
 8002f14:	eb63 0301 	sbc.w	r3, r3, r1
 8002f18:	f04f 0000 	mov.w	r0, #0
 8002f1c:	f04f 0100 	mov.w	r1, #0
 8002f20:	00d9      	lsls	r1, r3, #3
 8002f22:	ea41 7152 	orr.w	r1, r1, r2, lsr #29
 8002f26:	00d0      	lsls	r0, r2, #3
 8002f28:	4602      	mov	r2, r0
 8002f2a:	460b      	mov	r3, r1
 8002f2c:	eb12 020a 	adds.w	r2, r2, sl
 8002f30:	eb43 030b 	adc.w	r3, r3, fp
 8002f34:	f04f 0000 	mov.w	r0, #0
 8002f38:	f04f 0100 	mov.w	r1, #0
 8002f3c:	0299      	lsls	r1, r3, #10
 8002f3e:	ea41 5192 	orr.w	r1, r1, r2, lsr #22
 8002f42:	0290      	lsls	r0, r2, #10
 8002f44:	4602      	mov	r2, r0
 8002f46:	460b      	mov	r3, r1
 8002f48:	4610      	mov	r0, r2
 8002f4a:	4619      	mov	r1, r3
 8002f4c:	697b      	ldr	r3, [r7, #20]
 8002f4e:	461a      	mov	r2, r3
 8002f50:	f04f 0300 	mov.w	r3, #0
 8002f54:	f7fd fe98 	bl	8000c88 <__aeabi_uldivmod>
 8002f58:	4602      	mov	r2, r0
 8002f5a:	460b      	mov	r3, r1
 8002f5c:	4613      	mov	r3, r2
 8002f5e:	61fb      	str	r3, [r7, #28]
      }
      pllp = ((((RCC->PLLCFGR & RCC_PLLCFGR_PLLP) >> RCC_PLLCFGR_PLLP_Pos) + 1U) *2U);
 8002f60:	4b63      	ldr	r3, [pc, #396]	; (80030f0 <HAL_RCC_GetSysClockFreq+0x358>)
 8002f62:	685b      	ldr	r3, [r3, #4]
 8002f64:	0c1b      	lsrs	r3, r3, #16
 8002f66:	f003 0303 	and.w	r3, r3, #3
 8002f6a:	3301      	adds	r3, #1
 8002f6c:	005b      	lsls	r3, r3, #1
 8002f6e:	613b      	str	r3, [r7, #16]

      sysclockfreq = pllvco/pllp;
 8002f70:	69fa      	ldr	r2, [r7, #28]
 8002f72:	693b      	ldr	r3, [r7, #16]
 8002f74:	fbb2 f3f3 	udiv	r3, r2, r3
 8002f78:	61bb      	str	r3, [r7, #24]
      break;
 8002f7a:	e0b2      	b.n	80030e2 <HAL_RCC_GetSysClockFreq+0x34a>
    }
    case RCC_CFGR_SWS_PLLR:  /* PLL/PLLR used as system clock  source */
    {
      /* PLL_VCO = (HSE_VALUE or HSI_VALUE / PLLM) * PLLN
      SYSCLK = PLL_VCO / PLLR */
      pllm = RCC->PLLCFGR & RCC_PLLCFGR_PLLM;
 8002f7c:	4b5c      	ldr	r3, [pc, #368]	; (80030f0 <HAL_RCC_GetSysClockFreq+0x358>)
 8002f7e:	685b      	ldr	r3, [r3, #4]
 8002f80:	f003 033f 	and.w	r3, r3, #63	; 0x3f
 8002f84:	617b      	str	r3, [r7, #20]
      if(__HAL_RCC_GET_PLL_OSCSOURCE() != RCC_PLLSOURCE_HSI)
 8002f86:	4b5a      	ldr	r3, [pc, #360]	; (80030f0 <HAL_RCC_GetSysClockFreq+0x358>)
 8002f88:	685b      	ldr	r3, [r3, #4]
 8002f8a:	f403 0380 	and.w	r3, r3, #4194304	; 0x400000
 8002f8e:	2b00      	cmp	r3, #0
 8002f90:	d04d      	beq.n	800302e <HAL_RCC_GetSysClockFreq+0x296>
      {
        /* HSE used as PLL clock source */
        pllvco = (uint32_t) ((((uint64_t) HSE_VALUE * ((uint64_t) ((RCC->PLLCFGR & RCC_PLLCFGR_PLLN) >> RCC_PLLCFGR_PLLN_Pos)))) / (uint64_t)pllm);
 8002f92:	4b57      	ldr	r3, [pc, #348]	; (80030f0 <HAL_RCC_GetSysClockFreq+0x358>)
 8002f94:	685b      	ldr	r3, [r3, #4]
 8002f96:	099b      	lsrs	r3, r3, #6
 8002f98:	461a      	mov	r2, r3
 8002f9a:	f04f 0300 	mov.w	r3, #0
 8002f9e:	f240 10ff 	movw	r0, #511	; 0x1ff
 8002fa2:	f04f 0100 	mov.w	r1, #0
 8002fa6:	ea02 0800 	and.w	r8, r2, r0
 8002faa:	ea03 0901 	and.w	r9, r3, r1
 8002fae:	4640      	mov	r0, r8
 8002fb0:	4649      	mov	r1, r9
 8002fb2:	f04f 0200 	mov.w	r2, #0
 8002fb6:	f04f 0300 	mov.w	r3, #0
 8002fba:	014b      	lsls	r3, r1, #5
 8002fbc:	ea43 63d0 	orr.w	r3, r3, r0, lsr #27
 8002fc0:	0142      	lsls	r2, r0, #5
 8002fc2:	4610      	mov	r0, r2
 8002fc4:	4619      	mov	r1, r3
 8002fc6:	ebb0 0008 	subs.w	r0, r0, r8
 8002fca:	eb61 0109 	sbc.w	r1, r1, r9
 8002fce:	f04f 0200 	mov.w	r2, #0
 8002fd2:	f04f 0300 	mov.w	r3, #0
 8002fd6:	018b      	lsls	r3, r1, #6
 8002fd8:	ea43 6390 	orr.w	r3, r3, r0, lsr #26
 8002fdc:	0182      	lsls	r2, r0, #6
 8002fde:	1a12      	subs	r2, r2, r0
 8002fe0:	eb63 0301 	sbc.w	r3, r3, r1
 8002fe4:	f04f 0000 	mov.w	r0, #0
 8002fe8:	f04f 0100 	mov.w	r1, #0
 8002fec:	00d9      	lsls	r1, r3, #3
 8002fee:	ea41 7152 	orr.w	r1, r1, r2, lsr #29
 8002ff2:	00d0      	lsls	r0, r2, #3
 8002ff4:	4602      	mov	r2, r0
 8002ff6:	460b      	mov	r3, r1
 8002ff8:	eb12 0208 	adds.w	r2, r2, r8
 8002ffc:	eb43 0309 	adc.w	r3, r3, r9
 8003000:	f04f 0000 	mov.w	r0, #0
 8003004:	f04f 0100 	mov.w	r1, #0
 8003008:	0259      	lsls	r1, r3, #9
 800300a:	ea41 51d2 	orr.w	r1, r1, r2, lsr #23
 800300e:	0250      	lsls	r0, r2, #9
 8003010:	4602      	mov	r2, r0
 8003012:	460b      	mov	r3, r1
 8003014:	4610      	mov	r0, r2
 8003016:	4619      	mov	r1, r3
 8003018:	697b      	ldr	r3, [r7, #20]
 800301a:	461a      	mov	r2, r3
 800301c:	f04f 0300 	mov.w	r3, #0
 8003020:	f7fd fe32 	bl	8000c88 <__aeabi_uldivmod>
 8003024:	4602      	mov	r2, r0
 8003026:	460b      	mov	r3, r1
 8003028:	4613      	mov	r3, r2
 800302a:	61fb      	str	r3, [r7, #28]
 800302c:	e04a      	b.n	80030c4 <HAL_RCC_GetSysClockFreq+0x32c>
      }
      else
      {
        /* HSI used as PLL clock source */
        pllvco = (uint32_t) ((((uint64_t) HSI_VALUE * ((uint64_t) ((RCC->PLLCFGR & RCC_PLLCFGR_PLLN) >> RCC_PLLCFGR_PLLN_Pos)))) / (uint64_t)pllm);
 800302e:	4b30      	ldr	r3, [pc, #192]	; (80030f0 <HAL_RCC_GetSysClockFreq+0x358>)
 8003030:	685b      	ldr	r3, [r3, #4]
 8003032:	099b      	lsrs	r3, r3, #6
 8003034:	461a      	mov	r2, r3
 8003036:	f04f 0300 	mov.w	r3, #0
 800303a:	f240 10ff 	movw	r0, #511	; 0x1ff
 800303e:	f04f 0100 	mov.w	r1, #0
 8003042:	ea02 0400 	and.w	r4, r2, r0
 8003046:	ea03 0501 	and.w	r5, r3, r1
 800304a:	4620      	mov	r0, r4
 800304c:	4629      	mov	r1, r5
 800304e:	f04f 0200 	mov.w	r2, #0
 8003052:	f04f 0300 	mov.w	r3, #0
 8003056:	014b      	lsls	r3, r1, #5
 8003058:	ea43 63d0 	orr.w	r3, r3, r0, lsr #27
 800305c:	0142      	lsls	r2, r0, #5
 800305e:	4610      	mov	r0, r2
 8003060:	4619      	mov	r1, r3
 8003062:	1b00      	subs	r0, r0, r4
 8003064:	eb61 0105 	sbc.w	r1, r1, r5
 8003068:	f04f 0200 	mov.w	r2, #0
 800306c:	f04f 0300 	mov.w	r3, #0
 8003070:	018b      	lsls	r3, r1, #6
 8003072:	ea43 6390 	orr.w	r3, r3, r0, lsr #26
 8003076:	0182      	lsls	r2, r0, #6
 8003078:	1a12      	subs	r2, r2, r0
 800307a:	eb63 0301 	sbc.w	r3, r3, r1
 800307e:	f04f 0000 	mov.w	r0, #0
 8003082:	f04f 0100 	mov.w	r1, #0
 8003086:	00d9      	lsls	r1, r3, #3
 8003088:	ea41 7152 	orr.w	r1, r1, r2, lsr #29
 800308c:	00d0      	lsls	r0, r2, #3
 800308e:	4602      	mov	r2, r0
 8003090:	460b      	mov	r3, r1
 8003092:	1912      	adds	r2, r2, r4
 8003094:	eb45 0303 	adc.w	r3, r5, r3
 8003098:	f04f 0000 	mov.w	r0, #0
 800309c:	f04f 0100 	mov.w	r1, #0
 80030a0:	0299      	lsls	r1, r3, #10
 80030a2:	ea41 5192 	orr.w	r1, r1, r2, lsr #22
 80030a6:	0290      	lsls	r0, r2, #10
 80030a8:	4602      	mov	r2, r0
 80030aa:	460b      	mov	r3, r1
 80030ac:	4610      	mov	r0, r2
 80030ae:	4619      	mov	r1, r3
 80030b0:	697b      	ldr	r3, [r7, #20]
 80030b2:	461a      	mov	r2, r3
 80030b4:	f04f 0300 	mov.w	r3, #0
 80030b8:	f7fd fde6 	bl	8000c88 <__aeabi_uldivmod>
 80030bc:	4602      	mov	r2, r0
 80030be:	460b      	mov	r3, r1
 80030c0:	4613      	mov	r3, r2
 80030c2:	61fb      	str	r3, [r7, #28]
      }
      pllr = ((RCC->PLLCFGR & RCC_PLLCFGR_PLLR) >> RCC_PLLCFGR_PLLR_Pos);
 80030c4:	4b0a      	ldr	r3, [pc, #40]	; (80030f0 <HAL_RCC_GetSysClockFreq+0x358>)
 80030c6:	685b      	ldr	r3, [r3, #4]
 80030c8:	0f1b      	lsrs	r3, r3, #28
 80030ca:	f003 0307 	and.w	r3, r3, #7
 80030ce:	60fb      	str	r3, [r7, #12]

      sysclockfreq = pllvco/pllr;
 80030d0:	69fa      	ldr	r2, [r7, #28]
 80030d2:	68fb      	ldr	r3, [r7, #12]
 80030d4:	fbb2 f3f3 	udiv	r3, r2, r3
 80030d8:	61bb      	str	r3, [r7, #24]
      break;
 80030da:	e002      	b.n	80030e2 <HAL_RCC_GetSysClockFreq+0x34a>
    }
    default:
    {
      sysclockfreq = HSI_VALUE;
 80030dc:	4b05      	ldr	r3, [pc, #20]	; (80030f4 <HAL_RCC_GetSysClockFreq+0x35c>)
 80030de:	61bb      	str	r3, [r7, #24]
      break;
 80030e0:	bf00      	nop
    }
  }
  return sysclockfreq;
 80030e2:	69bb      	ldr	r3, [r7, #24]
}
 80030e4:	4618      	mov	r0, r3
 80030e6:	3720      	adds	r7, #32
 80030e8:	46bd      	mov	sp, r7
 80030ea:	e8bd 8fb0 	ldmia.w	sp!, {r4, r5, r7, r8, r9, sl, fp, pc}
 80030ee:	bf00      	nop
 80030f0:	40023800 	.word	0x40023800
 80030f4:	00f42400 	.word	0x00f42400
 80030f8:	007a1200 	.word	0x007a1200

080030fc <HAL_RCC_OscConfig>:
  * @note   This function add the PLL/PLLR factor management during PLL configuration this feature
  *         is only available in STM32F410xx/STM32F446xx/STM32F469xx/STM32F479xx/STM32F412Zx/STM32F412Vx/STM32F412Rx/STM32F412Cx devices
  * @retval HAL status
  */
HAL_StatusTypeDef HAL_RCC_OscConfig(RCC_OscInitTypeDef  *RCC_OscInitStruct)
{
 80030fc:	b580      	push	{r7, lr}
 80030fe:	b086      	sub	sp, #24
 8003100:	af00      	add	r7, sp, #0
 8003102:	6078      	str	r0, [r7, #4]
  uint32_t tickstart, pll_config;

  /* Check Null pointer */
  if(RCC_OscInitStruct == NULL)
 8003104:	687b      	ldr	r3, [r7, #4]
 8003106:	2b00      	cmp	r3, #0
 8003108:	d101      	bne.n	800310e <HAL_RCC_OscConfig+0x12>
  {
    return HAL_ERROR;
 800310a:	2301      	movs	r3, #1
 800310c:	e28d      	b.n	800362a <HAL_RCC_OscConfig+0x52e>
  }

  /* Check the parameters */
  assert_param(IS_RCC_OSCILLATORTYPE(RCC_OscInitStruct->OscillatorType));
  /*------------------------------- HSE Configuration ------------------------*/
  if(((RCC_OscInitStruct->OscillatorType) & RCC_OSCILLATORTYPE_HSE) == RCC_OSCILLATORTYPE_HSE)
 800310e:	687b      	ldr	r3, [r7, #4]
 8003110:	681b      	ldr	r3, [r3, #0]
 8003112:	f003 0301 	and.w	r3, r3, #1
 8003116:	2b00      	cmp	r3, #0
 8003118:	f000 8083 	beq.w	8003222 <HAL_RCC_OscConfig+0x126>
  {
    /* Check the parameters */
    assert_param(IS_RCC_HSE(RCC_OscInitStruct->HSEState));
    /* When the HSE is used as system clock or clock source for PLL in these cases HSE will not disabled */
#if defined(STM32F446xx)
    if((__HAL_RCC_GET_SYSCLK_SOURCE() == RCC_CFGR_SWS_HSE)                                                                     ||\
 800311c:	4b94      	ldr	r3, [pc, #592]	; (8003370 <HAL_RCC_OscConfig+0x274>)
 800311e:	689b      	ldr	r3, [r3, #8]
 8003120:	f003 030c 	and.w	r3, r3, #12
 8003124:	2b04      	cmp	r3, #4
 8003126:	d019      	beq.n	800315c <HAL_RCC_OscConfig+0x60>
      ((__HAL_RCC_GET_SYSCLK_SOURCE() == RCC_CFGR_SWS_PLL) && ((RCC->PLLCFGR & RCC_PLLCFGR_PLLSRC) == RCC_PLLCFGR_PLLSRC_HSE)) ||\
 8003128:	4b91      	ldr	r3, [pc, #580]	; (8003370 <HAL_RCC_OscConfig+0x274>)
 800312a:	689b      	ldr	r3, [r3, #8]
 800312c:	f003 030c 	and.w	r3, r3, #12
    if((__HAL_RCC_GET_SYSCLK_SOURCE() == RCC_CFGR_SWS_HSE)                                                                     ||\
 8003130:	2b08      	cmp	r3, #8
 8003132:	d106      	bne.n	8003142 <HAL_RCC_OscConfig+0x46>
      ((__HAL_RCC_GET_SYSCLK_SOURCE() == RCC_CFGR_SWS_PLL) && ((RCC->PLLCFGR & RCC_PLLCFGR_PLLSRC) == RCC_PLLCFGR_PLLSRC_HSE)) ||\
 8003134:	4b8e      	ldr	r3, [pc, #568]	; (8003370 <HAL_RCC_OscConfig+0x274>)
 8003136:	685b      	ldr	r3, [r3, #4]
 8003138:	f403 0380 	and.w	r3, r3, #4194304	; 0x400000
 800313c:	f5b3 0f80 	cmp.w	r3, #4194304	; 0x400000
 8003140:	d00c      	beq.n	800315c <HAL_RCC_OscConfig+0x60>
      ((__HAL_RCC_GET_SYSCLK_SOURCE() == RCC_CFGR_SWS_PLLR) && ((RCC->PLLCFGR & RCC_PLLCFGR_PLLSRC) == RCC_PLLCFGR_PLLSRC_HSE)))
 8003142:	4b8b      	ldr	r3, [pc, #556]	; (8003370 <HAL_RCC_OscConfig+0x274>)
 8003144:	689b      	ldr	r3, [r3, #8]
 8003146:	f003 030c 	and.w	r3, r3, #12
      ((__HAL_RCC_GET_SYSCLK_SOURCE() == RCC_CFGR_SWS_PLL) && ((RCC->PLLCFGR & RCC_PLLCFGR_PLLSRC) == RCC_PLLCFGR_PLLSRC_HSE)) ||\
 800314a:	2b0c      	cmp	r3, #12
 800314c:	d112      	bne.n	8003174 <HAL_RCC_OscConfig+0x78>
      ((__HAL_RCC_GET_SYSCLK_SOURCE() == RCC_CFGR_SWS_PLLR) && ((RCC->PLLCFGR & RCC_PLLCFGR_PLLSRC) == RCC_PLLCFGR_PLLSRC_HSE)))
 800314e:	4b88      	ldr	r3, [pc, #544]	; (8003370 <HAL_RCC_OscConfig+0x274>)
 8003150:	685b      	ldr	r3, [r3, #4]
 8003152:	f403 0380 	and.w	r3, r3, #4194304	; 0x400000
 8003156:	f5b3 0f80 	cmp.w	r3, #4194304	; 0x400000
 800315a:	d10b      	bne.n	8003174 <HAL_RCC_OscConfig+0x78>
#else
    if((__HAL_RCC_GET_SYSCLK_SOURCE() == RCC_CFGR_SWS_HSE)                                                                     ||\
      ((__HAL_RCC_GET_SYSCLK_SOURCE() == RCC_CFGR_SWS_PLL) && ((RCC->PLLCFGR & RCC_PLLCFGR_PLLSRC) == RCC_PLLCFGR_PLLSRC_HSE)))
#endif /* STM32F446xx */
    {
      if((__HAL_RCC_GET_FLAG(RCC_FLAG_HSERDY) != RESET) && (RCC_OscInitStruct->HSEState == RCC_HSE_OFF))
 800315c:	4b84      	ldr	r3, [pc, #528]	; (8003370 <HAL_RCC_OscConfig+0x274>)
 800315e:	681b      	ldr	r3, [r3, #0]
 8003160:	f403 3300 	and.w	r3, r3, #131072	; 0x20000
 8003164:	2b00      	cmp	r3, #0
 8003166:	d05b      	beq.n	8003220 <HAL_RCC_OscConfig+0x124>
 8003168:	687b      	ldr	r3, [r7, #4]
 800316a:	685b      	ldr	r3, [r3, #4]
 800316c:	2b00      	cmp	r3, #0
 800316e:	d157      	bne.n	8003220 <HAL_RCC_OscConfig+0x124>
      {
        return HAL_ERROR;
 8003170:	2301      	movs	r3, #1
 8003172:	e25a      	b.n	800362a <HAL_RCC_OscConfig+0x52e>
      }
    }
    else
    {
      /* Set the new HSE configuration ---------------------------------------*/
      __HAL_RCC_HSE_CONFIG(RCC_OscInitStruct->HSEState);
 8003174:	687b      	ldr	r3, [r7, #4]
 8003176:	685b      	ldr	r3, [r3, #4]
 8003178:	f5b3 3f80 	cmp.w	r3, #65536	; 0x10000
 800317c:	d106      	bne.n	800318c <HAL_RCC_OscConfig+0x90>
 800317e:	4b7c      	ldr	r3, [pc, #496]	; (8003370 <HAL_RCC_OscConfig+0x274>)
 8003180:	681b      	ldr	r3, [r3, #0]
 8003182:	4a7b      	ldr	r2, [pc, #492]	; (8003370 <HAL_RCC_OscConfig+0x274>)
 8003184:	f443 3380 	orr.w	r3, r3, #65536	; 0x10000
 8003188:	6013      	str	r3, [r2, #0]
 800318a:	e01d      	b.n	80031c8 <HAL_RCC_OscConfig+0xcc>
 800318c:	687b      	ldr	r3, [r7, #4]
 800318e:	685b      	ldr	r3, [r3, #4]
 8003190:	f5b3 2fa0 	cmp.w	r3, #327680	; 0x50000
 8003194:	d10c      	bne.n	80031b0 <HAL_RCC_OscConfig+0xb4>
 8003196:	4b76      	ldr	r3, [pc, #472]	; (8003370 <HAL_RCC_OscConfig+0x274>)
 8003198:	681b      	ldr	r3, [r3, #0]
 800319a:	4a75      	ldr	r2, [pc, #468]	; (8003370 <HAL_RCC_OscConfig+0x274>)
 800319c:	f443 2380 	orr.w	r3, r3, #262144	; 0x40000
 80031a0:	6013      	str	r3, [r2, #0]
 80031a2:	4b73      	ldr	r3, [pc, #460]	; (8003370 <HAL_RCC_OscConfig+0x274>)
 80031a4:	681b      	ldr	r3, [r3, #0]
 80031a6:	4a72      	ldr	r2, [pc, #456]	; (8003370 <HAL_RCC_OscConfig+0x274>)
 80031a8:	f443 3380 	orr.w	r3, r3, #65536	; 0x10000
 80031ac:	6013      	str	r3, [r2, #0]
 80031ae:	e00b      	b.n	80031c8 <HAL_RCC_OscConfig+0xcc>
 80031b0:	4b6f      	ldr	r3, [pc, #444]	; (8003370 <HAL_RCC_OscConfig+0x274>)
 80031b2:	681b      	ldr	r3, [r3, #0]
 80031b4:	4a6e      	ldr	r2, [pc, #440]	; (8003370 <HAL_RCC_OscConfig+0x274>)
 80031b6:	f423 3380 	bic.w	r3, r3, #65536	; 0x10000
 80031ba:	6013      	str	r3, [r2, #0]
 80031bc:	4b6c      	ldr	r3, [pc, #432]	; (8003370 <HAL_RCC_OscConfig+0x274>)
 80031be:	681b      	ldr	r3, [r3, #0]
 80031c0:	4a6b      	ldr	r2, [pc, #428]	; (8003370 <HAL_RCC_OscConfig+0x274>)
 80031c2:	f423 2380 	bic.w	r3, r3, #262144	; 0x40000
 80031c6:	6013      	str	r3, [r2, #0]

      /* Check the HSE State */
      if((RCC_OscInitStruct->HSEState) != RCC_HSE_OFF)
 80031c8:	687b      	ldr	r3, [r7, #4]
 80031ca:	685b      	ldr	r3, [r3, #4]
 80031cc:	2b00      	cmp	r3, #0
 80031ce:	d013      	beq.n	80031f8 <HAL_RCC_OscConfig+0xfc>
      {
        /* Get Start Tick*/
        tickstart = HAL_GetTick();
 80031d0:	f7ff f9d8 	bl	8002584 <HAL_GetTick>
 80031d4:	6138      	str	r0, [r7, #16]

        /* Wait till HSE is ready */
        while(__HAL_RCC_GET_FLAG(RCC_FLAG_HSERDY) == RESET)
 80031d6:	e008      	b.n	80031ea <HAL_RCC_OscConfig+0xee>
        {
          if((HAL_GetTick() - tickstart ) > HSE_TIMEOUT_VALUE)
 80031d8:	f7ff f9d4 	bl	8002584 <HAL_GetTick>
 80031dc:	4602      	mov	r2, r0
 80031de:	693b      	ldr	r3, [r7, #16]
 80031e0:	1ad3      	subs	r3, r2, r3
 80031e2:	2b64      	cmp	r3, #100	; 0x64
 80031e4:	d901      	bls.n	80031ea <HAL_RCC_OscConfig+0xee>
          {
            return HAL_TIMEOUT;
 80031e6:	2303      	movs	r3, #3
 80031e8:	e21f      	b.n	800362a <HAL_RCC_OscConfig+0x52e>
        while(__HAL_RCC_GET_FLAG(RCC_FLAG_HSERDY) == RESET)
 80031ea:	4b61      	ldr	r3, [pc, #388]	; (8003370 <HAL_RCC_OscConfig+0x274>)
 80031ec:	681b      	ldr	r3, [r3, #0]
 80031ee:	f403 3300 	and.w	r3, r3, #131072	; 0x20000
 80031f2:	2b00      	cmp	r3, #0
 80031f4:	d0f0      	beq.n	80031d8 <HAL_RCC_OscConfig+0xdc>
 80031f6:	e014      	b.n	8003222 <HAL_RCC_OscConfig+0x126>
        }
      }
      else
      {
        /* Get Start Tick*/
        tickstart = HAL_GetTick();
 80031f8:	f7ff f9c4 	bl	8002584 <HAL_GetTick>
 80031fc:	6138      	str	r0, [r7, #16]

        /* Wait till HSE is bypassed or disabled */
        while(__HAL_RCC_GET_FLAG(RCC_FLAG_HSERDY) != RESET)
 80031fe:	e008      	b.n	8003212 <HAL_RCC_OscConfig+0x116>
        {
          if((HAL_GetTick() - tickstart ) > HSE_TIMEOUT_VALUE)
 8003200:	f7ff f9c0 	bl	8002584 <HAL_GetTick>
 8003204:	4602      	mov	r2, r0
 8003206:	693b      	ldr	r3, [r7, #16]
 8003208:	1ad3      	subs	r3, r2, r3
 800320a:	2b64      	cmp	r3, #100	; 0x64
 800320c:	d901      	bls.n	8003212 <HAL_RCC_OscConfig+0x116>
          {
            return HAL_TIMEOUT;
 800320e:	2303      	movs	r3, #3
 8003210:	e20b      	b.n	800362a <HAL_RCC_OscConfig+0x52e>
        while(__HAL_RCC_GET_FLAG(RCC_FLAG_HSERDY) != RESET)
 8003212:	4b57      	ldr	r3, [pc, #348]	; (8003370 <HAL_RCC_OscConfig+0x274>)
 8003214:	681b      	ldr	r3, [r3, #0]
 8003216:	f403 3300 	and.w	r3, r3, #131072	; 0x20000
 800321a:	2b00      	cmp	r3, #0
 800321c:	d1f0      	bne.n	8003200 <HAL_RCC_OscConfig+0x104>
 800321e:	e000      	b.n	8003222 <HAL_RCC_OscConfig+0x126>
      if((__HAL_RCC_GET_FLAG(RCC_FLAG_HSERDY) != RESET) && (RCC_OscInitStruct->HSEState == RCC_HSE_OFF))
 8003220:	bf00      	nop
        }
      }
    }
  }
  /*----------------------------- HSI Configuration --------------------------*/
  if(((RCC_OscInitStruct->OscillatorType) & RCC_OSCILLATORTYPE_HSI) == RCC_OSCILLATORTYPE_HSI)
 8003222:	687b      	ldr	r3, [r7, #4]
 8003224:	681b      	ldr	r3, [r3, #0]
 8003226:	f003 0302 	and.w	r3, r3, #2
 800322a:	2b00      	cmp	r3, #0
 800322c:	d06f      	beq.n	800330e <HAL_RCC_OscConfig+0x212>
    assert_param(IS_RCC_HSI(RCC_OscInitStruct->HSIState));
    assert_param(IS_RCC_CALIBRATION_VALUE(RCC_OscInitStruct->HSICalibrationValue));

    /* Check if HSI is used as system clock or as PLL source when PLL is selected as system clock */
#if defined(STM32F446xx)
    if((__HAL_RCC_GET_SYSCLK_SOURCE() == RCC_CFGR_SWS_HSI)                                                                     ||\
 800322e:	4b50      	ldr	r3, [pc, #320]	; (8003370 <HAL_RCC_OscConfig+0x274>)
 8003230:	689b      	ldr	r3, [r3, #8]
 8003232:	f003 030c 	and.w	r3, r3, #12
 8003236:	2b00      	cmp	r3, #0
 8003238:	d017      	beq.n	800326a <HAL_RCC_OscConfig+0x16e>
      ((__HAL_RCC_GET_SYSCLK_SOURCE() == RCC_CFGR_SWS_PLL) && ((RCC->PLLCFGR & RCC_PLLCFGR_PLLSRC) == RCC_PLLCFGR_PLLSRC_HSI)) ||\
 800323a:	4b4d      	ldr	r3, [pc, #308]	; (8003370 <HAL_RCC_OscConfig+0x274>)
 800323c:	689b      	ldr	r3, [r3, #8]
 800323e:	f003 030c 	and.w	r3, r3, #12
    if((__HAL_RCC_GET_SYSCLK_SOURCE() == RCC_CFGR_SWS_HSI)                                                                     ||\
 8003242:	2b08      	cmp	r3, #8
 8003244:	d105      	bne.n	8003252 <HAL_RCC_OscConfig+0x156>
      ((__HAL_RCC_GET_SYSCLK_SOURCE() == RCC_CFGR_SWS_PLL) && ((RCC->PLLCFGR & RCC_PLLCFGR_PLLSRC) == RCC_PLLCFGR_PLLSRC_HSI)) ||\
 8003246:	4b4a      	ldr	r3, [pc, #296]	; (8003370 <HAL_RCC_OscConfig+0x274>)
 8003248:	685b      	ldr	r3, [r3, #4]
 800324a:	f403 0380 	and.w	r3, r3, #4194304	; 0x400000
 800324e:	2b00      	cmp	r3, #0
 8003250:	d00b      	beq.n	800326a <HAL_RCC_OscConfig+0x16e>
      ((__HAL_RCC_GET_SYSCLK_SOURCE() == RCC_CFGR_SWS_PLLR) && ((RCC->PLLCFGR & RCC_PLLCFGR_PLLSRC) == RCC_PLLCFGR_PLLSRC_HSI)))
 8003252:	4b47      	ldr	r3, [pc, #284]	; (8003370 <HAL_RCC_OscConfig+0x274>)
 8003254:	689b      	ldr	r3, [r3, #8]
 8003256:	f003 030c 	and.w	r3, r3, #12
      ((__HAL_RCC_GET_SYSCLK_SOURCE() == RCC_CFGR_SWS_PLL) && ((RCC->PLLCFGR & RCC_PLLCFGR_PLLSRC) == RCC_PLLCFGR_PLLSRC_HSI)) ||\
 800325a:	2b0c      	cmp	r3, #12
 800325c:	d11c      	bne.n	8003298 <HAL_RCC_OscConfig+0x19c>
      ((__HAL_RCC_GET_SYSCLK_SOURCE() == RCC_CFGR_SWS_PLLR) && ((RCC->PLLCFGR & RCC_PLLCFGR_PLLSRC) == RCC_PLLCFGR_PLLSRC_HSI)))
 800325e:	4b44      	ldr	r3, [pc, #272]	; (8003370 <HAL_RCC_OscConfig+0x274>)
 8003260:	685b      	ldr	r3, [r3, #4]
 8003262:	f403 0380 	and.w	r3, r3, #4194304	; 0x400000
 8003266:	2b00      	cmp	r3, #0
 8003268:	d116      	bne.n	8003298 <HAL_RCC_OscConfig+0x19c>
    if((__HAL_RCC_GET_SYSCLK_SOURCE() == RCC_CFGR_SWS_HSI)                                                                     ||\
      ((__HAL_RCC_GET_SYSCLK_SOURCE() == RCC_CFGR_SWS_PLL) && ((RCC->PLLCFGR & RCC_PLLCFGR_PLLSRC) == RCC_PLLCFGR_PLLSRC_HSI)))
#endif /* STM32F446xx */
    {
      /* When HSI is used as system clock it will not disabled */
      if((__HAL_RCC_GET_FLAG(RCC_FLAG_HSIRDY) != RESET) && (RCC_OscInitStruct->HSIState != RCC_HSI_ON))
 800326a:	4b41      	ldr	r3, [pc, #260]	; (8003370 <HAL_RCC_OscConfig+0x274>)
 800326c:	681b      	ldr	r3, [r3, #0]
 800326e:	f003 0302 	and.w	r3, r3, #2
 8003272:	2b00      	cmp	r3, #0
 8003274:	d005      	beq.n	8003282 <HAL_RCC_OscConfig+0x186>
 8003276:	687b      	ldr	r3, [r7, #4]
 8003278:	68db      	ldr	r3, [r3, #12]
 800327a:	2b01      	cmp	r3, #1
 800327c:	d001      	beq.n	8003282 <HAL_RCC_OscConfig+0x186>
      {
        return HAL_ERROR;
 800327e:	2301      	movs	r3, #1
 8003280:	e1d3      	b.n	800362a <HAL_RCC_OscConfig+0x52e>
      }
      /* Otherwise, just the calibration is allowed */
      else
      {
        /* Adjusts the Internal High Speed oscillator (HSI) calibration value.*/
        __HAL_RCC_HSI_CALIBRATIONVALUE_ADJUST(RCC_OscInitStruct->HSICalibrationValue);
 8003282:	4b3b      	ldr	r3, [pc, #236]	; (8003370 <HAL_RCC_OscConfig+0x274>)
 8003284:	681b      	ldr	r3, [r3, #0]
 8003286:	f023 02f8 	bic.w	r2, r3, #248	; 0xf8
 800328a:	687b      	ldr	r3, [r7, #4]
 800328c:	691b      	ldr	r3, [r3, #16]
 800328e:	00db      	lsls	r3, r3, #3
 8003290:	4937      	ldr	r1, [pc, #220]	; (8003370 <HAL_RCC_OscConfig+0x274>)
 8003292:	4313      	orrs	r3, r2
 8003294:	600b      	str	r3, [r1, #0]
      if((__HAL_RCC_GET_FLAG(RCC_FLAG_HSIRDY) != RESET) && (RCC_OscInitStruct->HSIState != RCC_HSI_ON))
 8003296:	e03a      	b.n	800330e <HAL_RCC_OscConfig+0x212>
      }
    }
    else
    {
      /* Check the HSI State */
      if((RCC_OscInitStruct->HSIState)!= RCC_HSI_OFF)
 8003298:	687b      	ldr	r3, [r7, #4]
 800329a:	68db      	ldr	r3, [r3, #12]
 800329c:	2b00      	cmp	r3, #0
 800329e:	d020      	beq.n	80032e2 <HAL_RCC_OscConfig+0x1e6>
      {
        /* Enable the Internal High Speed oscillator (HSI). */
        __HAL_RCC_HSI_ENABLE();
 80032a0:	4b34      	ldr	r3, [pc, #208]	; (8003374 <HAL_RCC_OscConfig+0x278>)
 80032a2:	2201      	movs	r2, #1
 80032a4:	601a      	str	r2, [r3, #0]

        /* Get Start Tick*/
        tickstart = HAL_GetTick();
 80032a6:	f7ff f96d 	bl	8002584 <HAL_GetTick>
 80032aa:	6138      	str	r0, [r7, #16]

        /* Wait till HSI is ready */
        while(__HAL_RCC_GET_FLAG(RCC_FLAG_HSIRDY) == RESET)
 80032ac:	e008      	b.n	80032c0 <HAL_RCC_OscConfig+0x1c4>
        {
          if((HAL_GetTick() - tickstart ) > HSI_TIMEOUT_VALUE)
 80032ae:	f7ff f969 	bl	8002584 <HAL_GetTick>
 80032b2:	4602      	mov	r2, r0
 80032b4:	693b      	ldr	r3, [r7, #16]
 80032b6:	1ad3      	subs	r3, r2, r3
 80032b8:	2b02      	cmp	r3, #2
 80032ba:	d901      	bls.n	80032c0 <HAL_RCC_OscConfig+0x1c4>
          {
            return HAL_TIMEOUT;
 80032bc:	2303      	movs	r3, #3
 80032be:	e1b4      	b.n	800362a <HAL_RCC_OscConfig+0x52e>
        while(__HAL_RCC_GET_FLAG(RCC_FLAG_HSIRDY) == RESET)
 80032c0:	4b2b      	ldr	r3, [pc, #172]	; (8003370 <HAL_RCC_OscConfig+0x274>)
 80032c2:	681b      	ldr	r3, [r3, #0]
 80032c4:	f003 0302 	and.w	r3, r3, #2
 80032c8:	2b00      	cmp	r3, #0
 80032ca:	d0f0      	beq.n	80032ae <HAL_RCC_OscConfig+0x1b2>
          }
        }

        /* Adjusts the Internal High Speed oscillator (HSI) calibration value.*/
        __HAL_RCC_HSI_CALIBRATIONVALUE_ADJUST(RCC_OscInitStruct->HSICalibrationValue);
 80032cc:	4b28      	ldr	r3, [pc, #160]	; (8003370 <HAL_RCC_OscConfig+0x274>)
 80032ce:	681b      	ldr	r3, [r3, #0]
 80032d0:	f023 02f8 	bic.w	r2, r3, #248	; 0xf8
 80032d4:	687b      	ldr	r3, [r7, #4]
 80032d6:	691b      	ldr	r3, [r3, #16]
 80032d8:	00db      	lsls	r3, r3, #3
 80032da:	4925      	ldr	r1, [pc, #148]	; (8003370 <HAL_RCC_OscConfig+0x274>)
 80032dc:	4313      	orrs	r3, r2
 80032de:	600b      	str	r3, [r1, #0]
 80032e0:	e015      	b.n	800330e <HAL_RCC_OscConfig+0x212>
      }
      else
      {
        /* Disable the Internal High Speed oscillator (HSI). */
        __HAL_RCC_HSI_DISABLE();
 80032e2:	4b24      	ldr	r3, [pc, #144]	; (8003374 <HAL_RCC_OscConfig+0x278>)
 80032e4:	2200      	movs	r2, #0
 80032e6:	601a      	str	r2, [r3, #0]

        /* Get Start Tick*/
        tickstart = HAL_GetTick();
 80032e8:	f7ff f94c 	bl	8002584 <HAL_GetTick>
 80032ec:	6138      	str	r0, [r7, #16]

        /* Wait till HSI is ready */
        while(__HAL_RCC_GET_FLAG(RCC_FLAG_HSIRDY) != RESET)
 80032ee:	e008      	b.n	8003302 <HAL_RCC_OscConfig+0x206>
        {
          if((HAL_GetTick() - tickstart ) > HSI_TIMEOUT_VALUE)
 80032f0:	f7ff f948 	bl	8002584 <HAL_GetTick>
 80032f4:	4602      	mov	r2, r0
 80032f6:	693b      	ldr	r3, [r7, #16]
 80032f8:	1ad3      	subs	r3, r2, r3
 80032fa:	2b02      	cmp	r3, #2
 80032fc:	d901      	bls.n	8003302 <HAL_RCC_OscConfig+0x206>
          {
            return HAL_TIMEOUT;
 80032fe:	2303      	movs	r3, #3
 8003300:	e193      	b.n	800362a <HAL_RCC_OscConfig+0x52e>
        while(__HAL_RCC_GET_FLAG(RCC_FLAG_HSIRDY) != RESET)
 8003302:	4b1b      	ldr	r3, [pc, #108]	; (8003370 <HAL_RCC_OscConfig+0x274>)
 8003304:	681b      	ldr	r3, [r3, #0]
 8003306:	f003 0302 	and.w	r3, r3, #2
 800330a:	2b00      	cmp	r3, #0
 800330c:	d1f0      	bne.n	80032f0 <HAL_RCC_OscConfig+0x1f4>
        }
      }
    }
  }
  /*------------------------------ LSI Configuration -------------------------*/
  if(((RCC_OscInitStruct->OscillatorType) & RCC_OSCILLATORTYPE_LSI) == RCC_OSCILLATORTYPE_LSI)
 800330e:	687b      	ldr	r3, [r7, #4]
 8003310:	681b      	ldr	r3, [r3, #0]
 8003312:	f003 0308 	and.w	r3, r3, #8
 8003316:	2b00      	cmp	r3, #0
 8003318:	d036      	beq.n	8003388 <HAL_RCC_OscConfig+0x28c>
  {
    /* Check the parameters */
    assert_param(IS_RCC_LSI(RCC_OscInitStruct->LSIState));

    /* Check the LSI State */
    if((RCC_OscInitStruct->LSIState)!= RCC_LSI_OFF)
 800331a:	687b      	ldr	r3, [r7, #4]
 800331c:	695b      	ldr	r3, [r3, #20]
 800331e:	2b00      	cmp	r3, #0
 8003320:	d016      	beq.n	8003350 <HAL_RCC_OscConfig+0x254>
    {
      /* Enable the Internal Low Speed oscillator (LSI). */
      __HAL_RCC_LSI_ENABLE();
 8003322:	4b15      	ldr	r3, [pc, #84]	; (8003378 <HAL_RCC_OscConfig+0x27c>)
 8003324:	2201      	movs	r2, #1
 8003326:	601a      	str	r2, [r3, #0]

      /* Get Start Tick*/
      tickstart = HAL_GetTick();
 8003328:	f7ff f92c 	bl	8002584 <HAL_GetTick>
 800332c:	6138      	str	r0, [r7, #16]

      /* Wait till LSI is ready */
      while(__HAL_RCC_GET_FLAG(RCC_FLAG_LSIRDY) == RESET)
 800332e:	e008      	b.n	8003342 <HAL_RCC_OscConfig+0x246>
      {
        if((HAL_GetTick() - tickstart ) > LSI_TIMEOUT_VALUE)
 8003330:	f7ff f928 	bl	8002584 <HAL_GetTick>
 8003334:	4602      	mov	r2, r0
 8003336:	693b      	ldr	r3, [r7, #16]
 8003338:	1ad3      	subs	r3, r2, r3
 800333a:	2b02      	cmp	r3, #2
 800333c:	d901      	bls.n	8003342 <HAL_RCC_OscConfig+0x246>
        {
          return HAL_TIMEOUT;
 800333e:	2303      	movs	r3, #3
 8003340:	e173      	b.n	800362a <HAL_RCC_OscConfig+0x52e>
      while(__HAL_RCC_GET_FLAG(RCC_FLAG_LSIRDY) == RESET)
 8003342:	4b0b      	ldr	r3, [pc, #44]	; (8003370 <HAL_RCC_OscConfig+0x274>)
 8003344:	6f5b      	ldr	r3, [r3, #116]	; 0x74
 8003346:	f003 0302 	and.w	r3, r3, #2
 800334a:	2b00      	cmp	r3, #0
 800334c:	d0f0      	beq.n	8003330 <HAL_RCC_OscConfig+0x234>
 800334e:	e01b      	b.n	8003388 <HAL_RCC_OscConfig+0x28c>
      }
    }
    else
    {
      /* Disable the Internal Low Speed oscillator (LSI). */
      __HAL_RCC_LSI_DISABLE();
 8003350:	4b09      	ldr	r3, [pc, #36]	; (8003378 <HAL_RCC_OscConfig+0x27c>)
 8003352:	2200      	movs	r2, #0
 8003354:	601a      	str	r2, [r3, #0]

      /* Get Start Tick*/
      tickstart = HAL_GetTick();
 8003356:	f7ff f915 	bl	8002584 <HAL_GetTick>
 800335a:	6138      	str	r0, [r7, #16]

      /* Wait till LSI is ready */
      while(__HAL_RCC_GET_FLAG(RCC_FLAG_LSIRDY) != RESET)
 800335c:	e00e      	b.n	800337c <HAL_RCC_OscConfig+0x280>
      {
        if((HAL_GetTick() - tickstart ) > LSI_TIMEOUT_VALUE)
 800335e:	f7ff f911 	bl	8002584 <HAL_GetTick>
 8003362:	4602      	mov	r2, r0
 8003364:	693b      	ldr	r3, [r7, #16]
 8003366:	1ad3      	subs	r3, r2, r3
 8003368:	2b02      	cmp	r3, #2
 800336a:	d907      	bls.n	800337c <HAL_RCC_OscConfig+0x280>
        {
          return HAL_TIMEOUT;
 800336c:	2303      	movs	r3, #3
 800336e:	e15c      	b.n	800362a <HAL_RCC_OscConfig+0x52e>
 8003370:	40023800 	.word	0x40023800
 8003374:	42470000 	.word	0x42470000
 8003378:	42470e80 	.word	0x42470e80
      while(__HAL_RCC_GET_FLAG(RCC_FLAG_LSIRDY) != RESET)
 800337c:	4b8a      	ldr	r3, [pc, #552]	; (80035a8 <HAL_RCC_OscConfig+0x4ac>)
 800337e:	6f5b      	ldr	r3, [r3, #116]	; 0x74
 8003380:	f003 0302 	and.w	r3, r3, #2
 8003384:	2b00      	cmp	r3, #0
 8003386:	d1ea      	bne.n	800335e <HAL_RCC_OscConfig+0x262>
        }
      }
    }
  }
  /*------------------------------ LSE Configuration -------------------------*/
  if(((RCC_OscInitStruct->OscillatorType) & RCC_OSCILLATORTYPE_LSE) == RCC_OSCILLATORTYPE_LSE)
 8003388:	687b      	ldr	r3, [r7, #4]
 800338a:	681b      	ldr	r3, [r3, #0]
 800338c:	f003 0304 	and.w	r3, r3, #4
 8003390:	2b00      	cmp	r3, #0
 8003392:	f000 8097 	beq.w	80034c4 <HAL_RCC_OscConfig+0x3c8>
  {
    FlagStatus       pwrclkchanged = RESET;
 8003396:	2300      	movs	r3, #0
 8003398:	75fb      	strb	r3, [r7, #23]
    /* Check the parameters */
    assert_param(IS_RCC_LSE(RCC_OscInitStruct->LSEState));

    /* Update LSE configuration in Backup Domain control register    */
    /* Requires to enable write access to Backup Domain of necessary */
    if(__HAL_RCC_PWR_IS_CLK_DISABLED())
 800339a:	4b83      	ldr	r3, [pc, #524]	; (80035a8 <HAL_RCC_OscConfig+0x4ac>)
 800339c:	6c1b      	ldr	r3, [r3, #64]	; 0x40
 800339e:	f003 5380 	and.w	r3, r3, #268435456	; 0x10000000
 80033a2:	2b00      	cmp	r3, #0
 80033a4:	d10f      	bne.n	80033c6 <HAL_RCC_OscConfig+0x2ca>
    {
      __HAL_RCC_PWR_CLK_ENABLE();
 80033a6:	2300      	movs	r3, #0
 80033a8:	60bb      	str	r3, [r7, #8]
 80033aa:	4b7f      	ldr	r3, [pc, #508]	; (80035a8 <HAL_RCC_OscConfig+0x4ac>)
 80033ac:	6c1b      	ldr	r3, [r3, #64]	; 0x40
 80033ae:	4a7e      	ldr	r2, [pc, #504]	; (80035a8 <HAL_RCC_OscConfig+0x4ac>)
 80033b0:	f043 5380 	orr.w	r3, r3, #268435456	; 0x10000000
 80033b4:	6413      	str	r3, [r2, #64]	; 0x40
 80033b6:	4b7c      	ldr	r3, [pc, #496]	; (80035a8 <HAL_RCC_OscConfig+0x4ac>)
 80033b8:	6c1b      	ldr	r3, [r3, #64]	; 0x40
 80033ba:	f003 5380 	and.w	r3, r3, #268435456	; 0x10000000
 80033be:	60bb      	str	r3, [r7, #8]
 80033c0:	68bb      	ldr	r3, [r7, #8]
      pwrclkchanged = SET;
 80033c2:	2301      	movs	r3, #1
 80033c4:	75fb      	strb	r3, [r7, #23]
    }

    if(HAL_IS_BIT_CLR(PWR->CR, PWR_CR_DBP))
 80033c6:	4b79      	ldr	r3, [pc, #484]	; (80035ac <HAL_RCC_OscConfig+0x4b0>)
 80033c8:	681b      	ldr	r3, [r3, #0]
 80033ca:	f403 7380 	and.w	r3, r3, #256	; 0x100
 80033ce:	2b00      	cmp	r3, #0
 80033d0:	d118      	bne.n	8003404 <HAL_RCC_OscConfig+0x308>
    {
      /* Enable write access to Backup domain */
      SET_BIT(PWR->CR, PWR_CR_DBP);
 80033d2:	4b76      	ldr	r3, [pc, #472]	; (80035ac <HAL_RCC_OscConfig+0x4b0>)
 80033d4:	681b      	ldr	r3, [r3, #0]
 80033d6:	4a75      	ldr	r2, [pc, #468]	; (80035ac <HAL_RCC_OscConfig+0x4b0>)
 80033d8:	f443 7380 	orr.w	r3, r3, #256	; 0x100
 80033dc:	6013      	str	r3, [r2, #0]

      /* Wait for Backup domain Write protection disable */
      tickstart = HAL_GetTick();
 80033de:	f7ff f8d1 	bl	8002584 <HAL_GetTick>
 80033e2:	6138      	str	r0, [r7, #16]

      while(HAL_IS_BIT_CLR(PWR->CR, PWR_CR_DBP))
 80033e4:	e008      	b.n	80033f8 <HAL_RCC_OscConfig+0x2fc>
      {
        if((HAL_GetTick() - tickstart) > RCC_DBP_TIMEOUT_VALUE)
 80033e6:	f7ff f8cd 	bl	8002584 <HAL_GetTick>
 80033ea:	4602      	mov	r2, r0
 80033ec:	693b      	ldr	r3, [r7, #16]
 80033ee:	1ad3      	subs	r3, r2, r3
 80033f0:	2b02      	cmp	r3, #2
 80033f2:	d901      	bls.n	80033f8 <HAL_RCC_OscConfig+0x2fc>
        {
          return HAL_TIMEOUT;
 80033f4:	2303      	movs	r3, #3
 80033f6:	e118      	b.n	800362a <HAL_RCC_OscConfig+0x52e>
      while(HAL_IS_BIT_CLR(PWR->CR, PWR_CR_DBP))
 80033f8:	4b6c      	ldr	r3, [pc, #432]	; (80035ac <HAL_RCC_OscConfig+0x4b0>)
 80033fa:	681b      	ldr	r3, [r3, #0]
 80033fc:	f403 7380 	and.w	r3, r3, #256	; 0x100
 8003400:	2b00      	cmp	r3, #0
 8003402:	d0f0      	beq.n	80033e6 <HAL_RCC_OscConfig+0x2ea>
        }
      }
    }

    /* Set the new LSE configuration -----------------------------------------*/
    __HAL_RCC_LSE_CONFIG(RCC_OscInitStruct->LSEState);
 8003404:	687b      	ldr	r3, [r7, #4]
 8003406:	689b      	ldr	r3, [r3, #8]
 8003408:	2b01      	cmp	r3, #1
 800340a:	d106      	bne.n	800341a <HAL_RCC_OscConfig+0x31e>
 800340c:	4b66      	ldr	r3, [pc, #408]	; (80035a8 <HAL_RCC_OscConfig+0x4ac>)
 800340e:	6f1b      	ldr	r3, [r3, #112]	; 0x70
 8003410:	4a65      	ldr	r2, [pc, #404]	; (80035a8 <HAL_RCC_OscConfig+0x4ac>)
 8003412:	f043 0301 	orr.w	r3, r3, #1
 8003416:	6713      	str	r3, [r2, #112]	; 0x70
 8003418:	e01c      	b.n	8003454 <HAL_RCC_OscConfig+0x358>
 800341a:	687b      	ldr	r3, [r7, #4]
 800341c:	689b      	ldr	r3, [r3, #8]
 800341e:	2b05      	cmp	r3, #5
 8003420:	d10c      	bne.n	800343c <HAL_RCC_OscConfig+0x340>
 8003422:	4b61      	ldr	r3, [pc, #388]	; (80035a8 <HAL_RCC_OscConfig+0x4ac>)
 8003424:	6f1b      	ldr	r3, [r3, #112]	; 0x70
 8003426:	4a60      	ldr	r2, [pc, #384]	; (80035a8 <HAL_RCC_OscConfig+0x4ac>)
 8003428:	f043 0304 	orr.w	r3, r3, #4
 800342c:	6713      	str	r3, [r2, #112]	; 0x70
 800342e:	4b5e      	ldr	r3, [pc, #376]	; (80035a8 <HAL_RCC_OscConfig+0x4ac>)
 8003430:	6f1b      	ldr	r3, [r3, #112]	; 0x70
 8003432:	4a5d      	ldr	r2, [pc, #372]	; (80035a8 <HAL_RCC_OscConfig+0x4ac>)
 8003434:	f043 0301 	orr.w	r3, r3, #1
 8003438:	6713      	str	r3, [r2, #112]	; 0x70
 800343a:	e00b      	b.n	8003454 <HAL_RCC_OscConfig+0x358>
 800343c:	4b5a      	ldr	r3, [pc, #360]	; (80035a8 <HAL_RCC_OscConfig+0x4ac>)
 800343e:	6f1b      	ldr	r3, [r3, #112]	; 0x70
 8003440:	4a59      	ldr	r2, [pc, #356]	; (80035a8 <HAL_RCC_OscConfig+0x4ac>)
 8003442:	f023 0301 	bic.w	r3, r3, #1
 8003446:	6713      	str	r3, [r2, #112]	; 0x70
 8003448:	4b57      	ldr	r3, [pc, #348]	; (80035a8 <HAL_RCC_OscConfig+0x4ac>)
 800344a:	6f1b      	ldr	r3, [r3, #112]	; 0x70
 800344c:	4a56      	ldr	r2, [pc, #344]	; (80035a8 <HAL_RCC_OscConfig+0x4ac>)
 800344e:	f023 0304 	bic.w	r3, r3, #4
 8003452:	6713      	str	r3, [r2, #112]	; 0x70
    /* Check the LSE State */
    if((RCC_OscInitStruct->LSEState) != RCC_LSE_OFF)
 8003454:	687b      	ldr	r3, [r7, #4]
 8003456:	689b      	ldr	r3, [r3, #8]
 8003458:	2b00      	cmp	r3, #0
 800345a:	d015      	beq.n	8003488 <HAL_RCC_OscConfig+0x38c>
    {
      /* Get Start Tick*/
      tickstart = HAL_GetTick();
 800345c:	f7ff f892 	bl	8002584 <HAL_GetTick>
 8003460:	6138      	str	r0, [r7, #16]

      /* Wait till LSE is ready */
      while(__HAL_RCC_GET_FLAG(RCC_FLAG_LSERDY) == RESET)
 8003462:	e00a      	b.n	800347a <HAL_RCC_OscConfig+0x37e>
      {
        if((HAL_GetTick() - tickstart ) > RCC_LSE_TIMEOUT_VALUE)
 8003464:	f7ff f88e 	bl	8002584 <HAL_GetTick>
 8003468:	4602      	mov	r2, r0
 800346a:	693b      	ldr	r3, [r7, #16]
 800346c:	1ad3      	subs	r3, r2, r3
 800346e:	f241 3288 	movw	r2, #5000	; 0x1388
 8003472:	4293      	cmp	r3, r2
 8003474:	d901      	bls.n	800347a <HAL_RCC_OscConfig+0x37e>
        {
          return HAL_TIMEOUT;
 8003476:	2303      	movs	r3, #3
 8003478:	e0d7      	b.n	800362a <HAL_RCC_OscConfig+0x52e>
      while(__HAL_RCC_GET_FLAG(RCC_FLAG_LSERDY) == RESET)
 800347a:	4b4b      	ldr	r3, [pc, #300]	; (80035a8 <HAL_RCC_OscConfig+0x4ac>)
 800347c:	6f1b      	ldr	r3, [r3, #112]	; 0x70
 800347e:	f003 0302 	and.w	r3, r3, #2
 8003482:	2b00      	cmp	r3, #0
 8003484:	d0ee      	beq.n	8003464 <HAL_RCC_OscConfig+0x368>
 8003486:	e014      	b.n	80034b2 <HAL_RCC_OscConfig+0x3b6>
      }
    }
    else
    {
      /* Get Start Tick*/
      tickstart = HAL_GetTick();
 8003488:	f7ff f87c 	bl	8002584 <HAL_GetTick>
 800348c:	6138      	str	r0, [r7, #16]

      /* Wait till LSE is ready */
      while(__HAL_RCC_GET_FLAG(RCC_FLAG_LSERDY) != RESET)
 800348e:	e00a      	b.n	80034a6 <HAL_RCC_OscConfig+0x3aa>
      {
        if((HAL_GetTick() - tickstart ) > RCC_LSE_TIMEOUT_VALUE)
 8003490:	f7ff f878 	bl	8002584 <HAL_GetTick>
 8003494:	4602      	mov	r2, r0
 8003496:	693b      	ldr	r3, [r7, #16]
 8003498:	1ad3      	subs	r3, r2, r3
 800349a:	f241 3288 	movw	r2, #5000	; 0x1388
 800349e:	4293      	cmp	r3, r2
 80034a0:	d901      	bls.n	80034a6 <HAL_RCC_OscConfig+0x3aa>
        {
          return HAL_TIMEOUT;
 80034a2:	2303      	movs	r3, #3
 80034a4:	e0c1      	b.n	800362a <HAL_RCC_OscConfig+0x52e>
      while(__HAL_RCC_GET_FLAG(RCC_FLAG_LSERDY) != RESET)
 80034a6:	4b40      	ldr	r3, [pc, #256]	; (80035a8 <HAL_RCC_OscConfig+0x4ac>)
 80034a8:	6f1b      	ldr	r3, [r3, #112]	; 0x70
 80034aa:	f003 0302 	and.w	r3, r3, #2
 80034ae:	2b00      	cmp	r3, #0
 80034b0:	d1ee      	bne.n	8003490 <HAL_RCC_OscConfig+0x394>
        }
      }
    }

    /* Restore clock configuration if changed */
    if(pwrclkchanged == SET)
 80034b2:	7dfb      	ldrb	r3, [r7, #23]
 80034b4:	2b01      	cmp	r3, #1
 80034b6:	d105      	bne.n	80034c4 <HAL_RCC_OscConfig+0x3c8>
    {
      __HAL_RCC_PWR_CLK_DISABLE();
 80034b8:	4b3b      	ldr	r3, [pc, #236]	; (80035a8 <HAL_RCC_OscConfig+0x4ac>)
 80034ba:	6c1b      	ldr	r3, [r3, #64]	; 0x40
 80034bc:	4a3a      	ldr	r2, [pc, #232]	; (80035a8 <HAL_RCC_OscConfig+0x4ac>)
 80034be:	f023 5380 	bic.w	r3, r3, #268435456	; 0x10000000
 80034c2:	6413      	str	r3, [r2, #64]	; 0x40
    }
  }
  /*-------------------------------- PLL Configuration -----------------------*/
  /* Check the parameters */
  assert_param(IS_RCC_PLL(RCC_OscInitStruct->PLL.PLLState));
  if ((RCC_OscInitStruct->PLL.PLLState) != RCC_PLL_NONE)
 80034c4:	687b      	ldr	r3, [r7, #4]
 80034c6:	699b      	ldr	r3, [r3, #24]
 80034c8:	2b00      	cmp	r3, #0
 80034ca:	f000 80ad 	beq.w	8003628 <HAL_RCC_OscConfig+0x52c>
  {
    /* Check if the PLL is used as system clock or not */
    if(__HAL_RCC_GET_SYSCLK_SOURCE() != RCC_CFGR_SWS_PLL)
 80034ce:	4b36      	ldr	r3, [pc, #216]	; (80035a8 <HAL_RCC_OscConfig+0x4ac>)
 80034d0:	689b      	ldr	r3, [r3, #8]
 80034d2:	f003 030c 	and.w	r3, r3, #12
 80034d6:	2b08      	cmp	r3, #8
 80034d8:	d060      	beq.n	800359c <HAL_RCC_OscConfig+0x4a0>
    {
      if((RCC_OscInitStruct->PLL.PLLState) == RCC_PLL_ON)
 80034da:	687b      	ldr	r3, [r7, #4]
 80034dc:	699b      	ldr	r3, [r3, #24]
 80034de:	2b02      	cmp	r3, #2
 80034e0:	d145      	bne.n	800356e <HAL_RCC_OscConfig+0x472>
        assert_param(IS_RCC_PLLP_VALUE(RCC_OscInitStruct->PLL.PLLP));
        assert_param(IS_RCC_PLLQ_VALUE(RCC_OscInitStruct->PLL.PLLQ));
        assert_param(IS_RCC_PLLR_VALUE(RCC_OscInitStruct->PLL.PLLR));

        /* Disable the main PLL. */
        __HAL_RCC_PLL_DISABLE();
 80034e2:	4b33      	ldr	r3, [pc, #204]	; (80035b0 <HAL_RCC_OscConfig+0x4b4>)
 80034e4:	2200      	movs	r2, #0
 80034e6:	601a      	str	r2, [r3, #0]

        /* Get Start Tick*/
        tickstart = HAL_GetTick();
 80034e8:	f7ff f84c 	bl	8002584 <HAL_GetTick>
 80034ec:	6138      	str	r0, [r7, #16]

        /* Wait till PLL is ready */
        while(__HAL_RCC_GET_FLAG(RCC_FLAG_PLLRDY) != RESET)
 80034ee:	e008      	b.n	8003502 <HAL_RCC_OscConfig+0x406>
        {
          if((HAL_GetTick() - tickstart ) > PLL_TIMEOUT_VALUE)
 80034f0:	f7ff f848 	bl	8002584 <HAL_GetTick>
 80034f4:	4602      	mov	r2, r0
 80034f6:	693b      	ldr	r3, [r7, #16]
 80034f8:	1ad3      	subs	r3, r2, r3
 80034fa:	2b02      	cmp	r3, #2
 80034fc:	d901      	bls.n	8003502 <HAL_RCC_OscConfig+0x406>
          {
            return HAL_TIMEOUT;
 80034fe:	2303      	movs	r3, #3
 8003500:	e093      	b.n	800362a <HAL_RCC_OscConfig+0x52e>
        while(__HAL_RCC_GET_FLAG(RCC_FLAG_PLLRDY) != RESET)
 8003502:	4b29      	ldr	r3, [pc, #164]	; (80035a8 <HAL_RCC_OscConfig+0x4ac>)
 8003504:	681b      	ldr	r3, [r3, #0]
 8003506:	f003 7300 	and.w	r3, r3, #33554432	; 0x2000000
 800350a:	2b00      	cmp	r3, #0
 800350c:	d1f0      	bne.n	80034f0 <HAL_RCC_OscConfig+0x3f4>
          }
        }

        /* Configure the main PLL clock source, multiplication and division factors. */
        WRITE_REG(RCC->PLLCFGR, (RCC_OscInitStruct->PLL.PLLSource                                            | \
 800350e:	687b      	ldr	r3, [r7, #4]
 8003510:	69da      	ldr	r2, [r3, #28]
 8003512:	687b      	ldr	r3, [r7, #4]
 8003514:	6a1b      	ldr	r3, [r3, #32]
 8003516:	431a      	orrs	r2, r3
 8003518:	687b      	ldr	r3, [r7, #4]
 800351a:	6a5b      	ldr	r3, [r3, #36]	; 0x24
 800351c:	019b      	lsls	r3, r3, #6
 800351e:	431a      	orrs	r2, r3
 8003520:	687b      	ldr	r3, [r7, #4]
 8003522:	6a9b      	ldr	r3, [r3, #40]	; 0x28
 8003524:	085b      	lsrs	r3, r3, #1
 8003526:	3b01      	subs	r3, #1
 8003528:	041b      	lsls	r3, r3, #16
 800352a:	431a      	orrs	r2, r3
 800352c:	687b      	ldr	r3, [r7, #4]
 800352e:	6adb      	ldr	r3, [r3, #44]	; 0x2c
 8003530:	061b      	lsls	r3, r3, #24
 8003532:	431a      	orrs	r2, r3
 8003534:	687b      	ldr	r3, [r7, #4]
 8003536:	6b1b      	ldr	r3, [r3, #48]	; 0x30
 8003538:	071b      	lsls	r3, r3, #28
 800353a:	491b      	ldr	r1, [pc, #108]	; (80035a8 <HAL_RCC_OscConfig+0x4ac>)
 800353c:	4313      	orrs	r3, r2
 800353e:	604b      	str	r3, [r1, #4]
                                 (RCC_OscInitStruct->PLL.PLLN << RCC_PLLCFGR_PLLN_Pos)                       | \
                                 (((RCC_OscInitStruct->PLL.PLLP >> 1U) - 1U) << RCC_PLLCFGR_PLLP_Pos)        | \
                                 (RCC_OscInitStruct->PLL.PLLQ << RCC_PLLCFGR_PLLQ_Pos)                       | \
                                 (RCC_OscInitStruct->PLL.PLLR << RCC_PLLCFGR_PLLR_Pos)));
        /* Enable the main PLL. */
        __HAL_RCC_PLL_ENABLE();
 8003540:	4b1b      	ldr	r3, [pc, #108]	; (80035b0 <HAL_RCC_OscConfig+0x4b4>)
 8003542:	2201      	movs	r2, #1
 8003544:	601a      	str	r2, [r3, #0]

        /* Get Start Tick*/
        tickstart = HAL_GetTick();
 8003546:	f7ff f81d 	bl	8002584 <HAL_GetTick>
 800354a:	6138      	str	r0, [r7, #16]

        /* Wait till PLL is ready */
        while(__HAL_RCC_GET_FLAG(RCC_FLAG_PLLRDY) == RESET)
 800354c:	e008      	b.n	8003560 <HAL_RCC_OscConfig+0x464>
        {
          if((HAL_GetTick() - tickstart ) > PLL_TIMEOUT_VALUE)
 800354e:	f7ff f819 	bl	8002584 <HAL_GetTick>
 8003552:	4602      	mov	r2, r0
 8003554:	693b      	ldr	r3, [r7, #16]
 8003556:	1ad3      	subs	r3, r2, r3
 8003558:	2b02      	cmp	r3, #2
 800355a:	d901      	bls.n	8003560 <HAL_RCC_OscConfig+0x464>
          {
            return HAL_TIMEOUT;
 800355c:	2303      	movs	r3, #3
 800355e:	e064      	b.n	800362a <HAL_RCC_OscConfig+0x52e>
        while(__HAL_RCC_GET_FLAG(RCC_FLAG_PLLRDY) == RESET)
 8003560:	4b11      	ldr	r3, [pc, #68]	; (80035a8 <HAL_RCC_OscConfig+0x4ac>)
 8003562:	681b      	ldr	r3, [r3, #0]
 8003564:	f003 7300 	and.w	r3, r3, #33554432	; 0x2000000
 8003568:	2b00      	cmp	r3, #0
 800356a:	d0f0      	beq.n	800354e <HAL_RCC_OscConfig+0x452>
 800356c:	e05c      	b.n	8003628 <HAL_RCC_OscConfig+0x52c>
        }
      }
      else
      {
        /* Disable the main PLL. */
        __HAL_RCC_PLL_DISABLE();
 800356e:	4b10      	ldr	r3, [pc, #64]	; (80035b0 <HAL_RCC_OscConfig+0x4b4>)
 8003570:	2200      	movs	r2, #0
 8003572:	601a      	str	r2, [r3, #0]

        /* Get Start Tick*/
        tickstart = HAL_GetTick();
 8003574:	f7ff f806 	bl	8002584 <HAL_GetTick>
 8003578:	6138      	str	r0, [r7, #16]

        /* Wait till PLL is ready */
        while(__HAL_RCC_GET_FLAG(RCC_FLAG_PLLRDY) != RESET)
 800357a:	e008      	b.n	800358e <HAL_RCC_OscConfig+0x492>
        {
          if((HAL_GetTick() - tickstart ) > PLL_TIMEOUT_VALUE)
 800357c:	f7ff f802 	bl	8002584 <HAL_GetTick>
 8003580:	4602      	mov	r2, r0
 8003582:	693b      	ldr	r3, [r7, #16]
 8003584:	1ad3      	subs	r3, r2, r3
 8003586:	2b02      	cmp	r3, #2
 8003588:	d901      	bls.n	800358e <HAL_RCC_OscConfig+0x492>
          {
            return HAL_TIMEOUT;
 800358a:	2303      	movs	r3, #3
 800358c:	e04d      	b.n	800362a <HAL_RCC_OscConfig+0x52e>
        while(__HAL_RCC_GET_FLAG(RCC_FLAG_PLLRDY) != RESET)
 800358e:	4b06      	ldr	r3, [pc, #24]	; (80035a8 <HAL_RCC_OscConfig+0x4ac>)
 8003590:	681b      	ldr	r3, [r3, #0]
 8003592:	f003 7300 	and.w	r3, r3, #33554432	; 0x2000000
 8003596:	2b00      	cmp	r3, #0
 8003598:	d1f0      	bne.n	800357c <HAL_RCC_OscConfig+0x480>
 800359a:	e045      	b.n	8003628 <HAL_RCC_OscConfig+0x52c>
      }
    }
    else
    {
      /* Check if there is a request to disable the PLL used as System clock source */
      if((RCC_OscInitStruct->PLL.PLLState) == RCC_PLL_OFF)
 800359c:	687b      	ldr	r3, [r7, #4]
 800359e:	699b      	ldr	r3, [r3, #24]
 80035a0:	2b01      	cmp	r3, #1
 80035a2:	d107      	bne.n	80035b4 <HAL_RCC_OscConfig+0x4b8>
      {
        return HAL_ERROR;
 80035a4:	2301      	movs	r3, #1
 80035a6:	e040      	b.n	800362a <HAL_RCC_OscConfig+0x52e>
 80035a8:	40023800 	.word	0x40023800
 80035ac:	40007000 	.word	0x40007000
 80035b0:	42470060 	.word	0x42470060
      }
      else
      {
        /* Do not return HAL_ERROR if request repeats the current configuration */
        pll_config = RCC->PLLCFGR;
 80035b4:	4b1f      	ldr	r3, [pc, #124]	; (8003634 <HAL_RCC_OscConfig+0x538>)
 80035b6:	685b      	ldr	r3, [r3, #4]
 80035b8:	60fb      	str	r3, [r7, #12]
#if defined (RCC_PLLCFGR_PLLR)
        if (((RCC_OscInitStruct->PLL.PLLState) == RCC_PLL_OFF) ||
 80035ba:	687b      	ldr	r3, [r7, #4]
 80035bc:	699b      	ldr	r3, [r3, #24]
 80035be:	2b01      	cmp	r3, #1
 80035c0:	d030      	beq.n	8003624 <HAL_RCC_OscConfig+0x528>
            (READ_BIT(pll_config, RCC_PLLCFGR_PLLSRC) != RCC_OscInitStruct->PLL.PLLSource) ||
 80035c2:	68fb      	ldr	r3, [r7, #12]
 80035c4:	f403 0280 	and.w	r2, r3, #4194304	; 0x400000
 80035c8:	687b      	ldr	r3, [r7, #4]
 80035ca:	69db      	ldr	r3, [r3, #28]
        if (((RCC_OscInitStruct->PLL.PLLState) == RCC_PLL_OFF) ||
 80035cc:	429a      	cmp	r2, r3
 80035ce:	d129      	bne.n	8003624 <HAL_RCC_OscConfig+0x528>
            (READ_BIT(pll_config, RCC_PLLCFGR_PLLM) != (RCC_OscInitStruct->PLL.PLLM) << RCC_PLLCFGR_PLLM_Pos) ||
 80035d0:	68fb      	ldr	r3, [r7, #12]
 80035d2:	f003 023f 	and.w	r2, r3, #63	; 0x3f
 80035d6:	687b      	ldr	r3, [r7, #4]
 80035d8:	6a1b      	ldr	r3, [r3, #32]
            (READ_BIT(pll_config, RCC_PLLCFGR_PLLSRC) != RCC_OscInitStruct->PLL.PLLSource) ||
 80035da:	429a      	cmp	r2, r3
 80035dc:	d122      	bne.n	8003624 <HAL_RCC_OscConfig+0x528>
            (READ_BIT(pll_config, RCC_PLLCFGR_PLLN) != (RCC_OscInitStruct->PLL.PLLN) << RCC_PLLCFGR_PLLN_Pos) ||
 80035de:	68fa      	ldr	r2, [r7, #12]
 80035e0:	f647 73c0 	movw	r3, #32704	; 0x7fc0
 80035e4:	4013      	ands	r3, r2
 80035e6:	687a      	ldr	r2, [r7, #4]
 80035e8:	6a52      	ldr	r2, [r2, #36]	; 0x24
 80035ea:	0192      	lsls	r2, r2, #6
            (READ_BIT(pll_config, RCC_PLLCFGR_PLLM) != (RCC_OscInitStruct->PLL.PLLM) << RCC_PLLCFGR_PLLM_Pos) ||
 80035ec:	4293      	cmp	r3, r2
 80035ee:	d119      	bne.n	8003624 <HAL_RCC_OscConfig+0x528>
            (READ_BIT(pll_config, RCC_PLLCFGR_PLLP) != (((RCC_OscInitStruct->PLL.PLLP >> 1U) - 1U)) << RCC_PLLCFGR_PLLP_Pos) ||
 80035f0:	68fb      	ldr	r3, [r7, #12]
 80035f2:	f403 3240 	and.w	r2, r3, #196608	; 0x30000
 80035f6:	687b      	ldr	r3, [r7, #4]
 80035f8:	6a9b      	ldr	r3, [r3, #40]	; 0x28
 80035fa:	085b      	lsrs	r3, r3, #1
 80035fc:	3b01      	subs	r3, #1
 80035fe:	041b      	lsls	r3, r3, #16
            (READ_BIT(pll_config, RCC_PLLCFGR_PLLN) != (RCC_OscInitStruct->PLL.PLLN) << RCC_PLLCFGR_PLLN_Pos) ||
 8003600:	429a      	cmp	r2, r3
 8003602:	d10f      	bne.n	8003624 <HAL_RCC_OscConfig+0x528>
            (READ_BIT(pll_config, RCC_PLLCFGR_PLLQ) != (RCC_OscInitStruct->PLL.PLLQ << RCC_PLLCFGR_PLLQ_Pos)) ||
 8003604:	68fb      	ldr	r3, [r7, #12]
 8003606:	f003 6270 	and.w	r2, r3, #251658240	; 0xf000000
 800360a:	687b      	ldr	r3, [r7, #4]
 800360c:	6adb      	ldr	r3, [r3, #44]	; 0x2c
 800360e:	061b      	lsls	r3, r3, #24
            (READ_BIT(pll_config, RCC_PLLCFGR_PLLP) != (((RCC_OscInitStruct->PLL.PLLP >> 1U) - 1U)) << RCC_PLLCFGR_PLLP_Pos) ||
 8003610:	429a      	cmp	r2, r3
 8003612:	d107      	bne.n	8003624 <HAL_RCC_OscConfig+0x528>
            (READ_BIT(pll_config, RCC_PLLCFGR_PLLR) != (RCC_OscInitStruct->PLL.PLLR << RCC_PLLCFGR_PLLR_Pos)))
 8003614:	68fb      	ldr	r3, [r7, #12]
 8003616:	f003 42e0 	and.w	r2, r3, #1879048192	; 0x70000000
 800361a:	687b      	ldr	r3, [r7, #4]
 800361c:	6b1b      	ldr	r3, [r3, #48]	; 0x30
 800361e:	071b      	lsls	r3, r3, #28
            (READ_BIT(pll_config, RCC_PLLCFGR_PLLQ) != (RCC_OscInitStruct->PLL.PLLQ << RCC_PLLCFGR_PLLQ_Pos)) ||
 8003620:	429a      	cmp	r2, r3
 8003622:	d001      	beq.n	8003628 <HAL_RCC_OscConfig+0x52c>
            (READ_BIT(pll_config, RCC_PLLCFGR_PLLN) != (RCC_OscInitStruct->PLL.PLLN) << RCC_PLLCFGR_PLLN_Pos) ||
            (READ_BIT(pll_config, RCC_PLLCFGR_PLLP) != (((RCC_OscInitStruct->PLL.PLLP >> 1U) - 1U)) << RCC_PLLCFGR_PLLP_Pos) ||
            (READ_BIT(pll_config, RCC_PLLCFGR_PLLQ) != (RCC_OscInitStruct->PLL.PLLQ << RCC_PLLCFGR_PLLQ_Pos)))
#endif
        {
          return HAL_ERROR;
 8003624:	2301      	movs	r3, #1
 8003626:	e000      	b.n	800362a <HAL_RCC_OscConfig+0x52e>
        }
      }
    }
  }
  return HAL_OK;
 8003628:	2300      	movs	r3, #0
}
 800362a:	4618      	mov	r0, r3
 800362c:	3718      	adds	r7, #24
 800362e:	46bd      	mov	sp, r7
 8003630:	bd80      	pop	{r7, pc}
 8003632:	bf00      	nop
 8003634:	40023800 	.word	0x40023800

08003638 <HAL_TIM_Base_Init>:
  *         Ex: call @ref HAL_TIM_Base_DeInit() before HAL_TIM_Base_Init()
  * @param  htim TIM Base handle
  * @retval HAL status
  */
HAL_StatusTypeDef HAL_TIM_Base_Init(TIM_HandleTypeDef *htim)
{
 8003638:	b580      	push	{r7, lr}
 800363a:	b082      	sub	sp, #8
 800363c:	af00      	add	r7, sp, #0
 800363e:	6078      	str	r0, [r7, #4]
  /* Check the TIM handle allocation */
  if (htim == NULL)
 8003640:	687b      	ldr	r3, [r7, #4]
 8003642:	2b00      	cmp	r3, #0
 8003644:	d101      	bne.n	800364a <HAL_TIM_Base_Init+0x12>
  {
    return HAL_ERROR;
 8003646:	2301      	movs	r3, #1
 8003648:	e041      	b.n	80036ce <HAL_TIM_Base_Init+0x96>
  assert_param(IS_TIM_INSTANCE(htim->Instance));
  assert_param(IS_TIM_COUNTER_MODE(htim->Init.CounterMode));
  assert_param(IS_TIM_CLOCKDIVISION_DIV(htim->Init.ClockDivision));
  assert_param(IS_TIM_AUTORELOAD_PRELOAD(htim->Init.AutoReloadPreload));

  if (htim->State == HAL_TIM_STATE_RESET)
 800364a:	687b      	ldr	r3, [r7, #4]
 800364c:	f893 303d 	ldrb.w	r3, [r3, #61]	; 0x3d
 8003650:	b2db      	uxtb	r3, r3
 8003652:	2b00      	cmp	r3, #0
 8003654:	d106      	bne.n	8003664 <HAL_TIM_Base_Init+0x2c>
  {
    /* Allocate lock resource and initialize it */
    htim->Lock = HAL_UNLOCKED;
 8003656:	687b      	ldr	r3, [r7, #4]
 8003658:	2200      	movs	r2, #0
 800365a:	f883 203c 	strb.w	r2, [r3, #60]	; 0x3c
    }
    /* Init the low level hardware : GPIO, CLOCK, NVIC */
    htim->Base_MspInitCallback(htim);
#else
    /* Init the low level hardware : GPIO, CLOCK, NVIC */
    HAL_TIM_Base_MspInit(htim);
 800365e:	6878      	ldr	r0, [r7, #4]
 8003660:	f7fe fbac 	bl	8001dbc <HAL_TIM_Base_MspInit>
#endif /* USE_HAL_TIM_REGISTER_CALLBACKS */
  }

  /* Set the TIM state */
  htim->State = HAL_TIM_STATE_BUSY;
 8003664:	687b      	ldr	r3, [r7, #4]
 8003666:	2202      	movs	r2, #2
 8003668:	f883 203d 	strb.w	r2, [r3, #61]	; 0x3d

  /* Set the Time Base configuration */
  TIM_Base_SetConfig(htim->Instance, &htim->Init);
 800366c:	687b      	ldr	r3, [r7, #4]
 800366e:	681a      	ldr	r2, [r3, #0]
 8003670:	687b      	ldr	r3, [r7, #4]
 8003672:	3304      	adds	r3, #4
 8003674:	4619      	mov	r1, r3
 8003676:	4610      	mov	r0, r2
 8003678:	f000 fec8 	bl	800440c <TIM_Base_SetConfig>

  /* Initialize the DMA burst operation state */
  htim->DMABurstState = HAL_DMA_BURST_STATE_READY;
 800367c:	687b      	ldr	r3, [r7, #4]
 800367e:	2201      	movs	r2, #1
 8003680:	f883 2046 	strb.w	r2, [r3, #70]	; 0x46

  /* Initialize the TIM channels state */
  TIM_CHANNEL_STATE_SET_ALL(htim, HAL_TIM_CHANNEL_STATE_READY);
 8003684:	687b      	ldr	r3, [r7, #4]
 8003686:	2201      	movs	r2, #1
 8003688:	f883 203e 	strb.w	r2, [r3, #62]	; 0x3e
 800368c:	687b      	ldr	r3, [r7, #4]
 800368e:	2201      	movs	r2, #1
 8003690:	f883 203f 	strb.w	r2, [r3, #63]	; 0x3f
 8003694:	687b      	ldr	r3, [r7, #4]
 8003696:	2201      	movs	r2, #1
 8003698:	f883 2040 	strb.w	r2, [r3, #64]	; 0x40
 800369c:	687b      	ldr	r3, [r7, #4]
 800369e:	2201      	movs	r2, #1
 80036a0:	f883 2041 	strb.w	r2, [r3, #65]	; 0x41
  TIM_CHANNEL_N_STATE_SET_ALL(htim, HAL_TIM_CHANNEL_STATE_READY);
 80036a4:	687b      	ldr	r3, [r7, #4]
 80036a6:	2201      	movs	r2, #1
 80036a8:	f883 2042 	strb.w	r2, [r3, #66]	; 0x42
 80036ac:	687b      	ldr	r3, [r7, #4]
 80036ae:	2201      	movs	r2, #1
 80036b0:	f883 2043 	strb.w	r2, [r3, #67]	; 0x43
 80036b4:	687b      	ldr	r3, [r7, #4]
 80036b6:	2201      	movs	r2, #1
 80036b8:	f883 2044 	strb.w	r2, [r3, #68]	; 0x44
 80036bc:	687b      	ldr	r3, [r7, #4]
 80036be:	2201      	movs	r2, #1
 80036c0:	f883 2045 	strb.w	r2, [r3, #69]	; 0x45

  /* Initialize the TIM state*/
  htim->State = HAL_TIM_STATE_READY;
 80036c4:	687b      	ldr	r3, [r7, #4]
 80036c6:	2201      	movs	r2, #1
 80036c8:	f883 203d 	strb.w	r2, [r3, #61]	; 0x3d

  return HAL_OK;
 80036cc:	2300      	movs	r3, #0
}
 80036ce:	4618      	mov	r0, r3
 80036d0:	3708      	adds	r7, #8
 80036d2:	46bd      	mov	sp, r7
 80036d4:	bd80      	pop	{r7, pc}
	...

080036d8 <HAL_TIM_Base_Start_IT>:
  * @brief  Starts the TIM Base generation in interrupt mode.
  * @param  htim TIM Base handle
  * @retval HAL status
  */
HAL_StatusTypeDef HAL_TIM_Base_Start_IT(TIM_HandleTypeDef *htim)
{
 80036d8:	b480      	push	{r7}
 80036da:	b085      	sub	sp, #20
 80036dc:	af00      	add	r7, sp, #0
 80036de:	6078      	str	r0, [r7, #4]

  /* Check the parameters */
  assert_param(IS_TIM_INSTANCE(htim->Instance));

  /* Check the TIM state */
  if (htim->State != HAL_TIM_STATE_READY)
 80036e0:	687b      	ldr	r3, [r7, #4]
 80036e2:	f893 303d 	ldrb.w	r3, [r3, #61]	; 0x3d
 80036e6:	b2db      	uxtb	r3, r3
 80036e8:	2b01      	cmp	r3, #1
 80036ea:	d001      	beq.n	80036f0 <HAL_TIM_Base_Start_IT+0x18>
  {
    return HAL_ERROR;
 80036ec:	2301      	movs	r3, #1
 80036ee:	e04e      	b.n	800378e <HAL_TIM_Base_Start_IT+0xb6>
  }

  /* Set the TIM state */
  htim->State = HAL_TIM_STATE_BUSY;
 80036f0:	687b      	ldr	r3, [r7, #4]
 80036f2:	2202      	movs	r2, #2
 80036f4:	f883 203d 	strb.w	r2, [r3, #61]	; 0x3d

  /* Enable the TIM Update interrupt */
  __HAL_TIM_ENABLE_IT(htim, TIM_IT_UPDATE);
 80036f8:	687b      	ldr	r3, [r7, #4]
 80036fa:	681b      	ldr	r3, [r3, #0]
 80036fc:	68da      	ldr	r2, [r3, #12]
 80036fe:	687b      	ldr	r3, [r7, #4]
 8003700:	681b      	ldr	r3, [r3, #0]
 8003702:	f042 0201 	orr.w	r2, r2, #1
 8003706:	60da      	str	r2, [r3, #12]

  /* Enable the Peripheral, except in trigger mode where enable is automatically done with trigger */
  if (IS_TIM_SLAVE_INSTANCE(htim->Instance))
 8003708:	687b      	ldr	r3, [r7, #4]
 800370a:	681b      	ldr	r3, [r3, #0]
 800370c:	4a23      	ldr	r2, [pc, #140]	; (800379c <HAL_TIM_Base_Start_IT+0xc4>)
 800370e:	4293      	cmp	r3, r2
 8003710:	d022      	beq.n	8003758 <HAL_TIM_Base_Start_IT+0x80>
 8003712:	687b      	ldr	r3, [r7, #4]
 8003714:	681b      	ldr	r3, [r3, #0]
 8003716:	f1b3 4f80 	cmp.w	r3, #1073741824	; 0x40000000
 800371a:	d01d      	beq.n	8003758 <HAL_TIM_Base_Start_IT+0x80>
 800371c:	687b      	ldr	r3, [r7, #4]
 800371e:	681b      	ldr	r3, [r3, #0]
 8003720:	4a1f      	ldr	r2, [pc, #124]	; (80037a0 <HAL_TIM_Base_Start_IT+0xc8>)
 8003722:	4293      	cmp	r3, r2
 8003724:	d018      	beq.n	8003758 <HAL_TIM_Base_Start_IT+0x80>
 8003726:	687b      	ldr	r3, [r7, #4]
 8003728:	681b      	ldr	r3, [r3, #0]
 800372a:	4a1e      	ldr	r2, [pc, #120]	; (80037a4 <HAL_TIM_Base_Start_IT+0xcc>)
 800372c:	4293      	cmp	r3, r2
 800372e:	d013      	beq.n	8003758 <HAL_TIM_Base_Start_IT+0x80>
 8003730:	687b      	ldr	r3, [r7, #4]
 8003732:	681b      	ldr	r3, [r3, #0]
 8003734:	4a1c      	ldr	r2, [pc, #112]	; (80037a8 <HAL_TIM_Base_Start_IT+0xd0>)
 8003736:	4293      	cmp	r3, r2
 8003738:	d00e      	beq.n	8003758 <HAL_TIM_Base_Start_IT+0x80>
 800373a:	687b      	ldr	r3, [r7, #4]
 800373c:	681b      	ldr	r3, [r3, #0]
 800373e:	4a1b      	ldr	r2, [pc, #108]	; (80037ac <HAL_TIM_Base_Start_IT+0xd4>)
 8003740:	4293      	cmp	r3, r2
 8003742:	d009      	beq.n	8003758 <HAL_TIM_Base_Start_IT+0x80>
 8003744:	687b      	ldr	r3, [r7, #4]
 8003746:	681b      	ldr	r3, [r3, #0]
 8003748:	4a19      	ldr	r2, [pc, #100]	; (80037b0 <HAL_TIM_Base_Start_IT+0xd8>)
 800374a:	4293      	cmp	r3, r2
 800374c:	d004      	beq.n	8003758 <HAL_TIM_Base_Start_IT+0x80>
 800374e:	687b      	ldr	r3, [r7, #4]
 8003750:	681b      	ldr	r3, [r3, #0]
 8003752:	4a18      	ldr	r2, [pc, #96]	; (80037b4 <HAL_TIM_Base_Start_IT+0xdc>)
 8003754:	4293      	cmp	r3, r2
 8003756:	d111      	bne.n	800377c <HAL_TIM_Base_Start_IT+0xa4>
  {
    tmpsmcr = htim->Instance->SMCR & TIM_SMCR_SMS;
 8003758:	687b      	ldr	r3, [r7, #4]
 800375a:	681b      	ldr	r3, [r3, #0]
 800375c:	689b      	ldr	r3, [r3, #8]
 800375e:	f003 0307 	and.w	r3, r3, #7
 8003762:	60fb      	str	r3, [r7, #12]
    if (!IS_TIM_SLAVEMODE_TRIGGER_ENABLED(tmpsmcr))
 8003764:	68fb      	ldr	r3, [r7, #12]
 8003766:	2b06      	cmp	r3, #6
 8003768:	d010      	beq.n	800378c <HAL_TIM_Base_Start_IT+0xb4>
    {
      __HAL_TIM_ENABLE(htim);
 800376a:	687b      	ldr	r3, [r7, #4]
 800376c:	681b      	ldr	r3, [r3, #0]
 800376e:	681a      	ldr	r2, [r3, #0]
 8003770:	687b      	ldr	r3, [r7, #4]
 8003772:	681b      	ldr	r3, [r3, #0]
 8003774:	f042 0201 	orr.w	r2, r2, #1
 8003778:	601a      	str	r2, [r3, #0]
    if (!IS_TIM_SLAVEMODE_TRIGGER_ENABLED(tmpsmcr))
 800377a:	e007      	b.n	800378c <HAL_TIM_Base_Start_IT+0xb4>
    }
  }
  else
  {
    __HAL_TIM_ENABLE(htim);
 800377c:	687b      	ldr	r3, [r7, #4]
 800377e:	681b      	ldr	r3, [r3, #0]
 8003780:	681a      	ldr	r2, [r3, #0]
 8003782:	687b      	ldr	r3, [r7, #4]
 8003784:	681b      	ldr	r3, [r3, #0]
 8003786:	f042 0201 	orr.w	r2, r2, #1
 800378a:	601a      	str	r2, [r3, #0]
  }

  /* Return function status */
  return HAL_OK;
 800378c:	2300      	movs	r3, #0
}
 800378e:	4618      	mov	r0, r3
 8003790:	3714      	adds	r7, #20
 8003792:	46bd      	mov	sp, r7
 8003794:	f85d 7b04 	ldr.w	r7, [sp], #4
 8003798:	4770      	bx	lr
 800379a:	bf00      	nop
 800379c:	40010000 	.word	0x40010000
 80037a0:	40000400 	.word	0x40000400
 80037a4:	40000800 	.word	0x40000800
 80037a8:	40000c00 	.word	0x40000c00
 80037ac:	40010400 	.word	0x40010400
 80037b0:	40014000 	.word	0x40014000
 80037b4:	40001800 	.word	0x40001800

080037b8 <HAL_TIM_PWM_Init>:
  *         Ex: call @ref HAL_TIM_PWM_DeInit() before HAL_TIM_PWM_Init()
  * @param  htim TIM PWM handle
  * @retval HAL status
  */
HAL_StatusTypeDef HAL_TIM_PWM_Init(TIM_HandleTypeDef *htim)
{
 80037b8:	b580      	push	{r7, lr}
 80037ba:	b082      	sub	sp, #8
 80037bc:	af00      	add	r7, sp, #0
 80037be:	6078      	str	r0, [r7, #4]
  /* Check the TIM handle allocation */
  if (htim == NULL)
 80037c0:	687b      	ldr	r3, [r7, #4]
 80037c2:	2b00      	cmp	r3, #0
 80037c4:	d101      	bne.n	80037ca <HAL_TIM_PWM_Init+0x12>
  {
    return HAL_ERROR;
 80037c6:	2301      	movs	r3, #1
 80037c8:	e041      	b.n	800384e <HAL_TIM_PWM_Init+0x96>
  assert_param(IS_TIM_INSTANCE(htim->Instance));
  assert_param(IS_TIM_COUNTER_MODE(htim->Init.CounterMode));
  assert_param(IS_TIM_CLOCKDIVISION_DIV(htim->Init.ClockDivision));
  assert_param(IS_TIM_AUTORELOAD_PRELOAD(htim->Init.AutoReloadPreload));

  if (htim->State == HAL_TIM_STATE_RESET)
 80037ca:	687b      	ldr	r3, [r7, #4]
 80037cc:	f893 303d 	ldrb.w	r3, [r3, #61]	; 0x3d
 80037d0:	b2db      	uxtb	r3, r3
 80037d2:	2b00      	cmp	r3, #0
 80037d4:	d106      	bne.n	80037e4 <HAL_TIM_PWM_Init+0x2c>
  {
    /* Allocate lock resource and initialize it */
    htim->Lock = HAL_UNLOCKED;
 80037d6:	687b      	ldr	r3, [r7, #4]
 80037d8:	2200      	movs	r2, #0
 80037da:	f883 203c 	strb.w	r2, [r3, #60]	; 0x3c
    }
    /* Init the low level hardware : GPIO, CLOCK, NVIC */
    htim->PWM_MspInitCallback(htim);
#else
    /* Init the low level hardware : GPIO, CLOCK, NVIC and DMA */
    HAL_TIM_PWM_MspInit(htim);
 80037de:	6878      	ldr	r0, [r7, #4]
 80037e0:	f7fe fbca 	bl	8001f78 <HAL_TIM_PWM_MspInit>
#endif /* USE_HAL_TIM_REGISTER_CALLBACKS */
  }

  /* Set the TIM state */
  htim->State = HAL_TIM_STATE_BUSY;
 80037e4:	687b      	ldr	r3, [r7, #4]
 80037e6:	2202      	movs	r2, #2
 80037e8:	f883 203d 	strb.w	r2, [r3, #61]	; 0x3d

  /* Init the base time for the PWM */
  TIM_Base_SetConfig(htim->Instance, &htim->Init);
 80037ec:	687b      	ldr	r3, [r7, #4]
 80037ee:	681a      	ldr	r2, [r3, #0]
 80037f0:	687b      	ldr	r3, [r7, #4]
 80037f2:	3304      	adds	r3, #4
 80037f4:	4619      	mov	r1, r3
 80037f6:	4610      	mov	r0, r2
 80037f8:	f000 fe08 	bl	800440c <TIM_Base_SetConfig>

  /* Initialize the DMA burst operation state */
  htim->DMABurstState = HAL_DMA_BURST_STATE_READY;
 80037fc:	687b      	ldr	r3, [r7, #4]
 80037fe:	2201      	movs	r2, #1
 8003800:	f883 2046 	strb.w	r2, [r3, #70]	; 0x46

  /* Initialize the TIM channels state */
  TIM_CHANNEL_STATE_SET_ALL(htim, HAL_TIM_CHANNEL_STATE_READY);
 8003804:	687b      	ldr	r3, [r7, #4]
 8003806:	2201      	movs	r2, #1
 8003808:	f883 203e 	strb.w	r2, [r3, #62]	; 0x3e
 800380c:	687b      	ldr	r3, [r7, #4]
 800380e:	2201      	movs	r2, #1
 8003810:	f883 203f 	strb.w	r2, [r3, #63]	; 0x3f
 8003814:	687b      	ldr	r3, [r7, #4]
 8003816:	2201      	movs	r2, #1
 8003818:	f883 2040 	strb.w	r2, [r3, #64]	; 0x40
 800381c:	687b      	ldr	r3, [r7, #4]
 800381e:	2201      	movs	r2, #1
 8003820:	f883 2041 	strb.w	r2, [r3, #65]	; 0x41
  TIM_CHANNEL_N_STATE_SET_ALL(htim, HAL_TIM_CHANNEL_STATE_READY);
 8003824:	687b      	ldr	r3, [r7, #4]
 8003826:	2201      	movs	r2, #1
 8003828:	f883 2042 	strb.w	r2, [r3, #66]	; 0x42
 800382c:	687b      	ldr	r3, [r7, #4]
 800382e:	2201      	movs	r2, #1
 8003830:	f883 2043 	strb.w	r2, [r3, #67]	; 0x43
 8003834:	687b      	ldr	r3, [r7, #4]
 8003836:	2201      	movs	r2, #1
 8003838:	f883 2044 	strb.w	r2, [r3, #68]	; 0x44
 800383c:	687b      	ldr	r3, [r7, #4]
 800383e:	2201      	movs	r2, #1
 8003840:	f883 2045 	strb.w	r2, [r3, #69]	; 0x45

  /* Initialize the TIM state*/
  htim->State = HAL_TIM_STATE_READY;
 8003844:	687b      	ldr	r3, [r7, #4]
 8003846:	2201      	movs	r2, #1
 8003848:	f883 203d 	strb.w	r2, [r3, #61]	; 0x3d

  return HAL_OK;
 800384c:	2300      	movs	r3, #0
}
 800384e:	4618      	mov	r0, r3
 8003850:	3708      	adds	r7, #8
 8003852:	46bd      	mov	sp, r7
 8003854:	bd80      	pop	{r7, pc}
	...

08003858 <HAL_TIM_PWM_Start>:
  *            @arg TIM_CHANNEL_3: TIM Channel 3 selected
  *            @arg TIM_CHANNEL_4: TIM Channel 4 selected
  * @retval HAL status
  */
HAL_StatusTypeDef HAL_TIM_PWM_Start(TIM_HandleTypeDef *htim, uint32_t Channel)
{
 8003858:	b580      	push	{r7, lr}
 800385a:	b084      	sub	sp, #16
 800385c:	af00      	add	r7, sp, #0
 800385e:	6078      	str	r0, [r7, #4]
 8003860:	6039      	str	r1, [r7, #0]

  /* Check the parameters */
  assert_param(IS_TIM_CCX_INSTANCE(htim->Instance, Channel));

  /* Check the TIM channel state */
  if (TIM_CHANNEL_STATE_GET(htim, Channel) != HAL_TIM_CHANNEL_STATE_READY)
 8003862:	683b      	ldr	r3, [r7, #0]
 8003864:	2b00      	cmp	r3, #0
 8003866:	d109      	bne.n	800387c <HAL_TIM_PWM_Start+0x24>
 8003868:	687b      	ldr	r3, [r7, #4]
 800386a:	f893 303e 	ldrb.w	r3, [r3, #62]	; 0x3e
 800386e:	b2db      	uxtb	r3, r3
 8003870:	2b01      	cmp	r3, #1
 8003872:	bf14      	ite	ne
 8003874:	2301      	movne	r3, #1
 8003876:	2300      	moveq	r3, #0
 8003878:	b2db      	uxtb	r3, r3
 800387a:	e022      	b.n	80038c2 <HAL_TIM_PWM_Start+0x6a>
 800387c:	683b      	ldr	r3, [r7, #0]
 800387e:	2b04      	cmp	r3, #4
 8003880:	d109      	bne.n	8003896 <HAL_TIM_PWM_Start+0x3e>
 8003882:	687b      	ldr	r3, [r7, #4]
 8003884:	f893 303f 	ldrb.w	r3, [r3, #63]	; 0x3f
 8003888:	b2db      	uxtb	r3, r3
 800388a:	2b01      	cmp	r3, #1
 800388c:	bf14      	ite	ne
 800388e:	2301      	movne	r3, #1
 8003890:	2300      	moveq	r3, #0
 8003892:	b2db      	uxtb	r3, r3
 8003894:	e015      	b.n	80038c2 <HAL_TIM_PWM_Start+0x6a>
 8003896:	683b      	ldr	r3, [r7, #0]
 8003898:	2b08      	cmp	r3, #8
 800389a:	d109      	bne.n	80038b0 <HAL_TIM_PWM_Start+0x58>
 800389c:	687b      	ldr	r3, [r7, #4]
 800389e:	f893 3040 	ldrb.w	r3, [r3, #64]	; 0x40
 80038a2:	b2db      	uxtb	r3, r3
 80038a4:	2b01      	cmp	r3, #1
 80038a6:	bf14      	ite	ne
 80038a8:	2301      	movne	r3, #1
 80038aa:	2300      	moveq	r3, #0
 80038ac:	b2db      	uxtb	r3, r3
 80038ae:	e008      	b.n	80038c2 <HAL_TIM_PWM_Start+0x6a>
 80038b0:	687b      	ldr	r3, [r7, #4]
 80038b2:	f893 3041 	ldrb.w	r3, [r3, #65]	; 0x41
 80038b6:	b2db      	uxtb	r3, r3
 80038b8:	2b01      	cmp	r3, #1
 80038ba:	bf14      	ite	ne
 80038bc:	2301      	movne	r3, #1
 80038be:	2300      	moveq	r3, #0
 80038c0:	b2db      	uxtb	r3, r3
 80038c2:	2b00      	cmp	r3, #0
 80038c4:	d001      	beq.n	80038ca <HAL_TIM_PWM_Start+0x72>
  {
    return HAL_ERROR;
 80038c6:	2301      	movs	r3, #1
 80038c8:	e07c      	b.n	80039c4 <HAL_TIM_PWM_Start+0x16c>
  }

  /* Set the TIM channel state */
  TIM_CHANNEL_STATE_SET(htim, Channel, HAL_TIM_CHANNEL_STATE_BUSY);
 80038ca:	683b      	ldr	r3, [r7, #0]
 80038cc:	2b00      	cmp	r3, #0
 80038ce:	d104      	bne.n	80038da <HAL_TIM_PWM_Start+0x82>
 80038d0:	687b      	ldr	r3, [r7, #4]
 80038d2:	2202      	movs	r2, #2
 80038d4:	f883 203e 	strb.w	r2, [r3, #62]	; 0x3e
 80038d8:	e013      	b.n	8003902 <HAL_TIM_PWM_Start+0xaa>
 80038da:	683b      	ldr	r3, [r7, #0]
 80038dc:	2b04      	cmp	r3, #4
 80038de:	d104      	bne.n	80038ea <HAL_TIM_PWM_Start+0x92>
 80038e0:	687b      	ldr	r3, [r7, #4]
 80038e2:	2202      	movs	r2, #2
 80038e4:	f883 203f 	strb.w	r2, [r3, #63]	; 0x3f
 80038e8:	e00b      	b.n	8003902 <HAL_TIM_PWM_Start+0xaa>
 80038ea:	683b      	ldr	r3, [r7, #0]
 80038ec:	2b08      	cmp	r3, #8
 80038ee:	d104      	bne.n	80038fa <HAL_TIM_PWM_Start+0xa2>
 80038f0:	687b      	ldr	r3, [r7, #4]
 80038f2:	2202      	movs	r2, #2
 80038f4:	f883 2040 	strb.w	r2, [r3, #64]	; 0x40
 80038f8:	e003      	b.n	8003902 <HAL_TIM_PWM_Start+0xaa>
 80038fa:	687b      	ldr	r3, [r7, #4]
 80038fc:	2202      	movs	r2, #2
 80038fe:	f883 2041 	strb.w	r2, [r3, #65]	; 0x41

  /* Enable the Capture compare channel */
  TIM_CCxChannelCmd(htim->Instance, Channel, TIM_CCx_ENABLE);
 8003902:	687b      	ldr	r3, [r7, #4]
 8003904:	681b      	ldr	r3, [r3, #0]
 8003906:	2201      	movs	r2, #1
 8003908:	6839      	ldr	r1, [r7, #0]
 800390a:	4618      	mov	r0, r3
 800390c:	f001 f992 	bl	8004c34 <TIM_CCxChannelCmd>

  if (IS_TIM_BREAK_INSTANCE(htim->Instance) != RESET)
 8003910:	687b      	ldr	r3, [r7, #4]
 8003912:	681b      	ldr	r3, [r3, #0]
 8003914:	4a2d      	ldr	r2, [pc, #180]	; (80039cc <HAL_TIM_PWM_Start+0x174>)
 8003916:	4293      	cmp	r3, r2
 8003918:	d004      	beq.n	8003924 <HAL_TIM_PWM_Start+0xcc>
 800391a:	687b      	ldr	r3, [r7, #4]
 800391c:	681b      	ldr	r3, [r3, #0]
 800391e:	4a2c      	ldr	r2, [pc, #176]	; (80039d0 <HAL_TIM_PWM_Start+0x178>)
 8003920:	4293      	cmp	r3, r2
 8003922:	d101      	bne.n	8003928 <HAL_TIM_PWM_Start+0xd0>
 8003924:	2301      	movs	r3, #1
 8003926:	e000      	b.n	800392a <HAL_TIM_PWM_Start+0xd2>
 8003928:	2300      	movs	r3, #0
 800392a:	2b00      	cmp	r3, #0
 800392c:	d007      	beq.n	800393e <HAL_TIM_PWM_Start+0xe6>
  {
    /* Enable the main output */
    __HAL_TIM_MOE_ENABLE(htim);
 800392e:	687b      	ldr	r3, [r7, #4]
 8003930:	681b      	ldr	r3, [r3, #0]
 8003932:	6c5a      	ldr	r2, [r3, #68]	; 0x44
 8003934:	687b      	ldr	r3, [r7, #4]
 8003936:	681b      	ldr	r3, [r3, #0]
 8003938:	f442 4200 	orr.w	r2, r2, #32768	; 0x8000
 800393c:	645a      	str	r2, [r3, #68]	; 0x44
  }

  /* Enable the Peripheral, except in trigger mode where enable is automatically done with trigger */
  if (IS_TIM_SLAVE_INSTANCE(htim->Instance))
 800393e:	687b      	ldr	r3, [r7, #4]
 8003940:	681b      	ldr	r3, [r3, #0]
 8003942:	4a22      	ldr	r2, [pc, #136]	; (80039cc <HAL_TIM_PWM_Start+0x174>)
 8003944:	4293      	cmp	r3, r2
 8003946:	d022      	beq.n	800398e <HAL_TIM_PWM_Start+0x136>
 8003948:	687b      	ldr	r3, [r7, #4]
 800394a:	681b      	ldr	r3, [r3, #0]
 800394c:	f1b3 4f80 	cmp.w	r3, #1073741824	; 0x40000000
 8003950:	d01d      	beq.n	800398e <HAL_TIM_PWM_Start+0x136>
 8003952:	687b      	ldr	r3, [r7, #4]
 8003954:	681b      	ldr	r3, [r3, #0]
 8003956:	4a1f      	ldr	r2, [pc, #124]	; (80039d4 <HAL_TIM_PWM_Start+0x17c>)
 8003958:	4293      	cmp	r3, r2
 800395a:	d018      	beq.n	800398e <HAL_TIM_PWM_Start+0x136>
 800395c:	687b      	ldr	r3, [r7, #4]
 800395e:	681b      	ldr	r3, [r3, #0]
 8003960:	4a1d      	ldr	r2, [pc, #116]	; (80039d8 <HAL_TIM_PWM_Start+0x180>)
 8003962:	4293      	cmp	r3, r2
 8003964:	d013      	beq.n	800398e <HAL_TIM_PWM_Start+0x136>
 8003966:	687b      	ldr	r3, [r7, #4]
 8003968:	681b      	ldr	r3, [r3, #0]
 800396a:	4a1c      	ldr	r2, [pc, #112]	; (80039dc <HAL_TIM_PWM_Start+0x184>)
 800396c:	4293      	cmp	r3, r2
 800396e:	d00e      	beq.n	800398e <HAL_TIM_PWM_Start+0x136>
 8003970:	687b      	ldr	r3, [r7, #4]
 8003972:	681b      	ldr	r3, [r3, #0]
 8003974:	4a16      	ldr	r2, [pc, #88]	; (80039d0 <HAL_TIM_PWM_Start+0x178>)
 8003976:	4293      	cmp	r3, r2
 8003978:	d009      	beq.n	800398e <HAL_TIM_PWM_Start+0x136>
 800397a:	687b      	ldr	r3, [r7, #4]
 800397c:	681b      	ldr	r3, [r3, #0]
 800397e:	4a18      	ldr	r2, [pc, #96]	; (80039e0 <HAL_TIM_PWM_Start+0x188>)
 8003980:	4293      	cmp	r3, r2
 8003982:	d004      	beq.n	800398e <HAL_TIM_PWM_Start+0x136>
 8003984:	687b      	ldr	r3, [r7, #4]
 8003986:	681b      	ldr	r3, [r3, #0]
 8003988:	4a16      	ldr	r2, [pc, #88]	; (80039e4 <HAL_TIM_PWM_Start+0x18c>)
 800398a:	4293      	cmp	r3, r2
 800398c:	d111      	bne.n	80039b2 <HAL_TIM_PWM_Start+0x15a>
  {
    tmpsmcr = htim->Instance->SMCR & TIM_SMCR_SMS;
 800398e:	687b      	ldr	r3, [r7, #4]
 8003990:	681b      	ldr	r3, [r3, #0]
 8003992:	689b      	ldr	r3, [r3, #8]
 8003994:	f003 0307 	and.w	r3, r3, #7
 8003998:	60fb      	str	r3, [r7, #12]
    if (!IS_TIM_SLAVEMODE_TRIGGER_ENABLED(tmpsmcr))
 800399a:	68fb      	ldr	r3, [r7, #12]
 800399c:	2b06      	cmp	r3, #6
 800399e:	d010      	beq.n	80039c2 <HAL_TIM_PWM_Start+0x16a>
    {
      __HAL_TIM_ENABLE(htim);
 80039a0:	687b      	ldr	r3, [r7, #4]
 80039a2:	681b      	ldr	r3, [r3, #0]
 80039a4:	681a      	ldr	r2, [r3, #0]
 80039a6:	687b      	ldr	r3, [r7, #4]
 80039a8:	681b      	ldr	r3, [r3, #0]
 80039aa:	f042 0201 	orr.w	r2, r2, #1
 80039ae:	601a      	str	r2, [r3, #0]
    if (!IS_TIM_SLAVEMODE_TRIGGER_ENABLED(tmpsmcr))
 80039b0:	e007      	b.n	80039c2 <HAL_TIM_PWM_Start+0x16a>
    }
  }
  else
  {
    __HAL_TIM_ENABLE(htim);
 80039b2:	687b      	ldr	r3, [r7, #4]
 80039b4:	681b      	ldr	r3, [r3, #0]
 80039b6:	681a      	ldr	r2, [r3, #0]
 80039b8:	687b      	ldr	r3, [r7, #4]
 80039ba:	681b      	ldr	r3, [r3, #0]
 80039bc:	f042 0201 	orr.w	r2, r2, #1
 80039c0:	601a      	str	r2, [r3, #0]
  }

  /* Return function status */
  return HAL_OK;
 80039c2:	2300      	movs	r3, #0
}
 80039c4:	4618      	mov	r0, r3
 80039c6:	3710      	adds	r7, #16
 80039c8:	46bd      	mov	sp, r7
 80039ca:	bd80      	pop	{r7, pc}
 80039cc:	40010000 	.word	0x40010000
 80039d0:	40010400 	.word	0x40010400
 80039d4:	40000400 	.word	0x40000400
 80039d8:	40000800 	.word	0x40000800
 80039dc:	40000c00 	.word	0x40000c00
 80039e0:	40014000 	.word	0x40014000
 80039e4:	40001800 	.word	0x40001800

080039e8 <HAL_TIM_IC_Init>:
  *         Ex: call @ref HAL_TIM_IC_DeInit() before HAL_TIM_IC_Init()
  * @param  htim TIM Input Capture handle
  * @retval HAL status
  */
HAL_StatusTypeDef HAL_TIM_IC_Init(TIM_HandleTypeDef *htim)
{
 80039e8:	b580      	push	{r7, lr}
 80039ea:	b082      	sub	sp, #8
 80039ec:	af00      	add	r7, sp, #0
 80039ee:	6078      	str	r0, [r7, #4]
  /* Check the TIM handle allocation */
  if (htim == NULL)
 80039f0:	687b      	ldr	r3, [r7, #4]
 80039f2:	2b00      	cmp	r3, #0
 80039f4:	d101      	bne.n	80039fa <HAL_TIM_IC_Init+0x12>
  {
    return HAL_ERROR;
 80039f6:	2301      	movs	r3, #1
 80039f8:	e041      	b.n	8003a7e <HAL_TIM_IC_Init+0x96>
  assert_param(IS_TIM_INSTANCE(htim->Instance));
  assert_param(IS_TIM_COUNTER_MODE(htim->Init.CounterMode));
  assert_param(IS_TIM_CLOCKDIVISION_DIV(htim->Init.ClockDivision));
  assert_param(IS_TIM_AUTORELOAD_PRELOAD(htim->Init.AutoReloadPreload));

  if (htim->State == HAL_TIM_STATE_RESET)
 80039fa:	687b      	ldr	r3, [r7, #4]
 80039fc:	f893 303d 	ldrb.w	r3, [r3, #61]	; 0x3d
 8003a00:	b2db      	uxtb	r3, r3
 8003a02:	2b00      	cmp	r3, #0
 8003a04:	d106      	bne.n	8003a14 <HAL_TIM_IC_Init+0x2c>
  {
    /* Allocate lock resource and initialize it */
    htim->Lock = HAL_UNLOCKED;
 8003a06:	687b      	ldr	r3, [r7, #4]
 8003a08:	2200      	movs	r2, #0
 8003a0a:	f883 203c 	strb.w	r2, [r3, #60]	; 0x3c
    }
    /* Init the low level hardware : GPIO, CLOCK, NVIC */
    htim->IC_MspInitCallback(htim);
#else
    /* Init the low level hardware : GPIO, CLOCK, NVIC and DMA */
    HAL_TIM_IC_MspInit(htim);
 8003a0e:	6878      	ldr	r0, [r7, #4]
 8003a10:	f000 f839 	bl	8003a86 <HAL_TIM_IC_MspInit>
#endif /* USE_HAL_TIM_REGISTER_CALLBACKS */
  }

  /* Set the TIM state */
  htim->State = HAL_TIM_STATE_BUSY;
 8003a14:	687b      	ldr	r3, [r7, #4]
 8003a16:	2202      	movs	r2, #2
 8003a18:	f883 203d 	strb.w	r2, [r3, #61]	; 0x3d

  /* Init the base time for the input capture */
  TIM_Base_SetConfig(htim->Instance, &htim->Init);
 8003a1c:	687b      	ldr	r3, [r7, #4]
 8003a1e:	681a      	ldr	r2, [r3, #0]
 8003a20:	687b      	ldr	r3, [r7, #4]
 8003a22:	3304      	adds	r3, #4
 8003a24:	4619      	mov	r1, r3
 8003a26:	4610      	mov	r0, r2
 8003a28:	f000 fcf0 	bl	800440c <TIM_Base_SetConfig>

  /* Initialize the DMA burst operation state */
  htim->DMABurstState = HAL_DMA_BURST_STATE_READY;
 8003a2c:	687b      	ldr	r3, [r7, #4]
 8003a2e:	2201      	movs	r2, #1
 8003a30:	f883 2046 	strb.w	r2, [r3, #70]	; 0x46

  /* Initialize the TIM channels state */
  TIM_CHANNEL_STATE_SET_ALL(htim, HAL_TIM_CHANNEL_STATE_READY);
 8003a34:	687b      	ldr	r3, [r7, #4]
 8003a36:	2201      	movs	r2, #1
 8003a38:	f883 203e 	strb.w	r2, [r3, #62]	; 0x3e
 8003a3c:	687b      	ldr	r3, [r7, #4]
 8003a3e:	2201      	movs	r2, #1
 8003a40:	f883 203f 	strb.w	r2, [r3, #63]	; 0x3f
 8003a44:	687b      	ldr	r3, [r7, #4]
 8003a46:	2201      	movs	r2, #1
 8003a48:	f883 2040 	strb.w	r2, [r3, #64]	; 0x40
 8003a4c:	687b      	ldr	r3, [r7, #4]
 8003a4e:	2201      	movs	r2, #1
 8003a50:	f883 2041 	strb.w	r2, [r3, #65]	; 0x41
  TIM_CHANNEL_N_STATE_SET_ALL(htim, HAL_TIM_CHANNEL_STATE_READY);
 8003a54:	687b      	ldr	r3, [r7, #4]
 8003a56:	2201      	movs	r2, #1
 8003a58:	f883 2042 	strb.w	r2, [r3, #66]	; 0x42
 8003a5c:	687b      	ldr	r3, [r7, #4]
 8003a5e:	2201      	movs	r2, #1
 8003a60:	f883 2043 	strb.w	r2, [r3, #67]	; 0x43
 8003a64:	687b      	ldr	r3, [r7, #4]
 8003a66:	2201      	movs	r2, #1
 8003a68:	f883 2044 	strb.w	r2, [r3, #68]	; 0x44
 8003a6c:	687b      	ldr	r3, [r7, #4]
 8003a6e:	2201      	movs	r2, #1
 8003a70:	f883 2045 	strb.w	r2, [r3, #69]	; 0x45

  /* Initialize the TIM state*/
  htim->State = HAL_TIM_STATE_READY;
 8003a74:	687b      	ldr	r3, [r7, #4]
 8003a76:	2201      	movs	r2, #1
 8003a78:	f883 203d 	strb.w	r2, [r3, #61]	; 0x3d

  return HAL_OK;
 8003a7c:	2300      	movs	r3, #0
}
 8003a7e:	4618      	mov	r0, r3
 8003a80:	3708      	adds	r7, #8
 8003a82:	46bd      	mov	sp, r7
 8003a84:	bd80      	pop	{r7, pc}

08003a86 <HAL_TIM_IC_MspInit>:
  * @brief  Initializes the TIM Input Capture MSP.
  * @param  htim TIM Input Capture handle
  * @retval None
  */
__weak void HAL_TIM_IC_MspInit(TIM_HandleTypeDef *htim)
{
 8003a86:	b480      	push	{r7}
 8003a88:	b083      	sub	sp, #12
 8003a8a:	af00      	add	r7, sp, #0
 8003a8c:	6078      	str	r0, [r7, #4]
  UNUSED(htim);

  /* NOTE : This function should not be modified, when the callback is needed,
            the HAL_TIM_IC_MspInit could be implemented in the user file
   */
}
 8003a8e:	bf00      	nop
 8003a90:	370c      	adds	r7, #12
 8003a92:	46bd      	mov	sp, r7
 8003a94:	f85d 7b04 	ldr.w	r7, [sp], #4
 8003a98:	4770      	bx	lr
	...

08003a9c <HAL_TIM_IC_Start_IT>:
  *            @arg TIM_CHANNEL_3: TIM Channel 3 selected
  *            @arg TIM_CHANNEL_4: TIM Channel 4 selected
  * @retval HAL status
  */
HAL_StatusTypeDef HAL_TIM_IC_Start_IT(TIM_HandleTypeDef *htim, uint32_t Channel)
{
 8003a9c:	b580      	push	{r7, lr}
 8003a9e:	b084      	sub	sp, #16
 8003aa0:	af00      	add	r7, sp, #0
 8003aa2:	6078      	str	r0, [r7, #4]
 8003aa4:	6039      	str	r1, [r7, #0]
  HAL_StatusTypeDef status = HAL_OK;
 8003aa6:	2300      	movs	r3, #0
 8003aa8:	73fb      	strb	r3, [r7, #15]
  uint32_t tmpsmcr;

  HAL_TIM_ChannelStateTypeDef channel_state = TIM_CHANNEL_STATE_GET(htim, Channel);
 8003aaa:	683b      	ldr	r3, [r7, #0]
 8003aac:	2b00      	cmp	r3, #0
 8003aae:	d104      	bne.n	8003aba <HAL_TIM_IC_Start_IT+0x1e>
 8003ab0:	687b      	ldr	r3, [r7, #4]
 8003ab2:	f893 303e 	ldrb.w	r3, [r3, #62]	; 0x3e
 8003ab6:	b2db      	uxtb	r3, r3
 8003ab8:	e013      	b.n	8003ae2 <HAL_TIM_IC_Start_IT+0x46>
 8003aba:	683b      	ldr	r3, [r7, #0]
 8003abc:	2b04      	cmp	r3, #4
 8003abe:	d104      	bne.n	8003aca <HAL_TIM_IC_Start_IT+0x2e>
 8003ac0:	687b      	ldr	r3, [r7, #4]
 8003ac2:	f893 303f 	ldrb.w	r3, [r3, #63]	; 0x3f
 8003ac6:	b2db      	uxtb	r3, r3
 8003ac8:	e00b      	b.n	8003ae2 <HAL_TIM_IC_Start_IT+0x46>
 8003aca:	683b      	ldr	r3, [r7, #0]
 8003acc:	2b08      	cmp	r3, #8
 8003ace:	d104      	bne.n	8003ada <HAL_TIM_IC_Start_IT+0x3e>
 8003ad0:	687b      	ldr	r3, [r7, #4]
 8003ad2:	f893 3040 	ldrb.w	r3, [r3, #64]	; 0x40
 8003ad6:	b2db      	uxtb	r3, r3
 8003ad8:	e003      	b.n	8003ae2 <HAL_TIM_IC_Start_IT+0x46>
 8003ada:	687b      	ldr	r3, [r7, #4]
 8003adc:	f893 3041 	ldrb.w	r3, [r3, #65]	; 0x41
 8003ae0:	b2db      	uxtb	r3, r3
 8003ae2:	73bb      	strb	r3, [r7, #14]
  HAL_TIM_ChannelStateTypeDef complementary_channel_state = TIM_CHANNEL_N_STATE_GET(htim, Channel);
 8003ae4:	683b      	ldr	r3, [r7, #0]
 8003ae6:	2b00      	cmp	r3, #0
 8003ae8:	d104      	bne.n	8003af4 <HAL_TIM_IC_Start_IT+0x58>
 8003aea:	687b      	ldr	r3, [r7, #4]
 8003aec:	f893 3042 	ldrb.w	r3, [r3, #66]	; 0x42
 8003af0:	b2db      	uxtb	r3, r3
 8003af2:	e013      	b.n	8003b1c <HAL_TIM_IC_Start_IT+0x80>
 8003af4:	683b      	ldr	r3, [r7, #0]
 8003af6:	2b04      	cmp	r3, #4
 8003af8:	d104      	bne.n	8003b04 <HAL_TIM_IC_Start_IT+0x68>
 8003afa:	687b      	ldr	r3, [r7, #4]
 8003afc:	f893 3043 	ldrb.w	r3, [r3, #67]	; 0x43
 8003b00:	b2db      	uxtb	r3, r3
 8003b02:	e00b      	b.n	8003b1c <HAL_TIM_IC_Start_IT+0x80>
 8003b04:	683b      	ldr	r3, [r7, #0]
 8003b06:	2b08      	cmp	r3, #8
 8003b08:	d104      	bne.n	8003b14 <HAL_TIM_IC_Start_IT+0x78>
 8003b0a:	687b      	ldr	r3, [r7, #4]
 8003b0c:	f893 3044 	ldrb.w	r3, [r3, #68]	; 0x44
 8003b10:	b2db      	uxtb	r3, r3
 8003b12:	e003      	b.n	8003b1c <HAL_TIM_IC_Start_IT+0x80>
 8003b14:	687b      	ldr	r3, [r7, #4]
 8003b16:	f893 3045 	ldrb.w	r3, [r3, #69]	; 0x45
 8003b1a:	b2db      	uxtb	r3, r3
 8003b1c:	737b      	strb	r3, [r7, #13]

  /* Check the parameters */
  assert_param(IS_TIM_CCX_INSTANCE(htim->Instance, Channel));

  /* Check the TIM channel state */
  if ((channel_state != HAL_TIM_CHANNEL_STATE_READY)
 8003b1e:	7bbb      	ldrb	r3, [r7, #14]
 8003b20:	2b01      	cmp	r3, #1
 8003b22:	d102      	bne.n	8003b2a <HAL_TIM_IC_Start_IT+0x8e>
      || (complementary_channel_state != HAL_TIM_CHANNEL_STATE_READY))
 8003b24:	7b7b      	ldrb	r3, [r7, #13]
 8003b26:	2b01      	cmp	r3, #1
 8003b28:	d001      	beq.n	8003b2e <HAL_TIM_IC_Start_IT+0x92>
  {
    return HAL_ERROR;
 8003b2a:	2301      	movs	r3, #1
 8003b2c:	e0cc      	b.n	8003cc8 <HAL_TIM_IC_Start_IT+0x22c>
  }

  /* Set the TIM channel state */
  TIM_CHANNEL_STATE_SET(htim, Channel, HAL_TIM_CHANNEL_STATE_BUSY);
 8003b2e:	683b      	ldr	r3, [r7, #0]
 8003b30:	2b00      	cmp	r3, #0
 8003b32:	d104      	bne.n	8003b3e <HAL_TIM_IC_Start_IT+0xa2>
 8003b34:	687b      	ldr	r3, [r7, #4]
 8003b36:	2202      	movs	r2, #2
 8003b38:	f883 203e 	strb.w	r2, [r3, #62]	; 0x3e
 8003b3c:	e013      	b.n	8003b66 <HAL_TIM_IC_Start_IT+0xca>
 8003b3e:	683b      	ldr	r3, [r7, #0]
 8003b40:	2b04      	cmp	r3, #4
 8003b42:	d104      	bne.n	8003b4e <HAL_TIM_IC_Start_IT+0xb2>
 8003b44:	687b      	ldr	r3, [r7, #4]
 8003b46:	2202      	movs	r2, #2
 8003b48:	f883 203f 	strb.w	r2, [r3, #63]	; 0x3f
 8003b4c:	e00b      	b.n	8003b66 <HAL_TIM_IC_Start_IT+0xca>
 8003b4e:	683b      	ldr	r3, [r7, #0]
 8003b50:	2b08      	cmp	r3, #8
 8003b52:	d104      	bne.n	8003b5e <HAL_TIM_IC_Start_IT+0xc2>
 8003b54:	687b      	ldr	r3, [r7, #4]
 8003b56:	2202      	movs	r2, #2
 8003b58:	f883 2040 	strb.w	r2, [r3, #64]	; 0x40
 8003b5c:	e003      	b.n	8003b66 <HAL_TIM_IC_Start_IT+0xca>
 8003b5e:	687b      	ldr	r3, [r7, #4]
 8003b60:	2202      	movs	r2, #2
 8003b62:	f883 2041 	strb.w	r2, [r3, #65]	; 0x41
  TIM_CHANNEL_N_STATE_SET(htim, Channel, HAL_TIM_CHANNEL_STATE_BUSY);
 8003b66:	683b      	ldr	r3, [r7, #0]
 8003b68:	2b00      	cmp	r3, #0
 8003b6a:	d104      	bne.n	8003b76 <HAL_TIM_IC_Start_IT+0xda>
 8003b6c:	687b      	ldr	r3, [r7, #4]
 8003b6e:	2202      	movs	r2, #2
 8003b70:	f883 2042 	strb.w	r2, [r3, #66]	; 0x42
 8003b74:	e013      	b.n	8003b9e <HAL_TIM_IC_Start_IT+0x102>
 8003b76:	683b      	ldr	r3, [r7, #0]
 8003b78:	2b04      	cmp	r3, #4
 8003b7a:	d104      	bne.n	8003b86 <HAL_TIM_IC_Start_IT+0xea>
 8003b7c:	687b      	ldr	r3, [r7, #4]
 8003b7e:	2202      	movs	r2, #2
 8003b80:	f883 2043 	strb.w	r2, [r3, #67]	; 0x43
 8003b84:	e00b      	b.n	8003b9e <HAL_TIM_IC_Start_IT+0x102>
 8003b86:	683b      	ldr	r3, [r7, #0]
 8003b88:	2b08      	cmp	r3, #8
 8003b8a:	d104      	bne.n	8003b96 <HAL_TIM_IC_Start_IT+0xfa>
 8003b8c:	687b      	ldr	r3, [r7, #4]
 8003b8e:	2202      	movs	r2, #2
 8003b90:	f883 2044 	strb.w	r2, [r3, #68]	; 0x44
 8003b94:	e003      	b.n	8003b9e <HAL_TIM_IC_Start_IT+0x102>
 8003b96:	687b      	ldr	r3, [r7, #4]
 8003b98:	2202      	movs	r2, #2
 8003b9a:	f883 2045 	strb.w	r2, [r3, #69]	; 0x45
 8003b9e:	683b      	ldr	r3, [r7, #0]
 8003ba0:	2b0c      	cmp	r3, #12
 8003ba2:	d841      	bhi.n	8003c28 <HAL_TIM_IC_Start_IT+0x18c>
 8003ba4:	a201      	add	r2, pc, #4	; (adr r2, 8003bac <HAL_TIM_IC_Start_IT+0x110>)
 8003ba6:	f852 f023 	ldr.w	pc, [r2, r3, lsl #2]
 8003baa:	bf00      	nop
 8003bac:	08003be1 	.word	0x08003be1
 8003bb0:	08003c29 	.word	0x08003c29
 8003bb4:	08003c29 	.word	0x08003c29
 8003bb8:	08003c29 	.word	0x08003c29
 8003bbc:	08003bf3 	.word	0x08003bf3
 8003bc0:	08003c29 	.word	0x08003c29
 8003bc4:	08003c29 	.word	0x08003c29
 8003bc8:	08003c29 	.word	0x08003c29
 8003bcc:	08003c05 	.word	0x08003c05
 8003bd0:	08003c29 	.word	0x08003c29
 8003bd4:	08003c29 	.word	0x08003c29
 8003bd8:	08003c29 	.word	0x08003c29
 8003bdc:	08003c17 	.word	0x08003c17
  switch (Channel)
  {
    case TIM_CHANNEL_1:
    {
      /* Enable the TIM Capture/Compare 1 interrupt */
      __HAL_TIM_ENABLE_IT(htim, TIM_IT_CC1);
 8003be0:	687b      	ldr	r3, [r7, #4]
 8003be2:	681b      	ldr	r3, [r3, #0]
 8003be4:	68da      	ldr	r2, [r3, #12]
 8003be6:	687b      	ldr	r3, [r7, #4]
 8003be8:	681b      	ldr	r3, [r3, #0]
 8003bea:	f042 0202 	orr.w	r2, r2, #2
 8003bee:	60da      	str	r2, [r3, #12]
      break;
 8003bf0:	e01d      	b.n	8003c2e <HAL_TIM_IC_Start_IT+0x192>
    }

    case TIM_CHANNEL_2:
    {
      /* Enable the TIM Capture/Compare 2 interrupt */
      __HAL_TIM_ENABLE_IT(htim, TIM_IT_CC2);
 8003bf2:	687b      	ldr	r3, [r7, #4]
 8003bf4:	681b      	ldr	r3, [r3, #0]
 8003bf6:	68da      	ldr	r2, [r3, #12]
 8003bf8:	687b      	ldr	r3, [r7, #4]
 8003bfa:	681b      	ldr	r3, [r3, #0]
 8003bfc:	f042 0204 	orr.w	r2, r2, #4
 8003c00:	60da      	str	r2, [r3, #12]
      break;
 8003c02:	e014      	b.n	8003c2e <HAL_TIM_IC_Start_IT+0x192>
    }

    case TIM_CHANNEL_3:
    {
      /* Enable the TIM Capture/Compare 3 interrupt */
      __HAL_TIM_ENABLE_IT(htim, TIM_IT_CC3);
 8003c04:	687b      	ldr	r3, [r7, #4]
 8003c06:	681b      	ldr	r3, [r3, #0]
 8003c08:	68da      	ldr	r2, [r3, #12]
 8003c0a:	687b      	ldr	r3, [r7, #4]
 8003c0c:	681b      	ldr	r3, [r3, #0]
 8003c0e:	f042 0208 	orr.w	r2, r2, #8
 8003c12:	60da      	str	r2, [r3, #12]
      break;
 8003c14:	e00b      	b.n	8003c2e <HAL_TIM_IC_Start_IT+0x192>
    }

    case TIM_CHANNEL_4:
    {
      /* Enable the TIM Capture/Compare 4 interrupt */
      __HAL_TIM_ENABLE_IT(htim, TIM_IT_CC4);
 8003c16:	687b      	ldr	r3, [r7, #4]
 8003c18:	681b      	ldr	r3, [r3, #0]
 8003c1a:	68da      	ldr	r2, [r3, #12]
 8003c1c:	687b      	ldr	r3, [r7, #4]
 8003c1e:	681b      	ldr	r3, [r3, #0]
 8003c20:	f042 0210 	orr.w	r2, r2, #16
 8003c24:	60da      	str	r2, [r3, #12]
      break;
 8003c26:	e002      	b.n	8003c2e <HAL_TIM_IC_Start_IT+0x192>
    }

    default:
      status = HAL_ERROR;
 8003c28:	2301      	movs	r3, #1
 8003c2a:	73fb      	strb	r3, [r7, #15]
      break;
 8003c2c:	bf00      	nop
  }

  if (status == HAL_OK)
 8003c2e:	7bfb      	ldrb	r3, [r7, #15]
 8003c30:	2b00      	cmp	r3, #0
 8003c32:	d148      	bne.n	8003cc6 <HAL_TIM_IC_Start_IT+0x22a>
  {
    /* Enable the Input Capture channel */
    TIM_CCxChannelCmd(htim->Instance, Channel, TIM_CCx_ENABLE);
 8003c34:	687b      	ldr	r3, [r7, #4]
 8003c36:	681b      	ldr	r3, [r3, #0]
 8003c38:	2201      	movs	r2, #1
 8003c3a:	6839      	ldr	r1, [r7, #0]
 8003c3c:	4618      	mov	r0, r3
 8003c3e:	f000 fff9 	bl	8004c34 <TIM_CCxChannelCmd>

    /* Enable the Peripheral, except in trigger mode where enable is automatically done with trigger */
    if (IS_TIM_SLAVE_INSTANCE(htim->Instance))
 8003c42:	687b      	ldr	r3, [r7, #4]
 8003c44:	681b      	ldr	r3, [r3, #0]
 8003c46:	4a22      	ldr	r2, [pc, #136]	; (8003cd0 <HAL_TIM_IC_Start_IT+0x234>)
 8003c48:	4293      	cmp	r3, r2
 8003c4a:	d022      	beq.n	8003c92 <HAL_TIM_IC_Start_IT+0x1f6>
 8003c4c:	687b      	ldr	r3, [r7, #4]
 8003c4e:	681b      	ldr	r3, [r3, #0]
 8003c50:	f1b3 4f80 	cmp.w	r3, #1073741824	; 0x40000000
 8003c54:	d01d      	beq.n	8003c92 <HAL_TIM_IC_Start_IT+0x1f6>
 8003c56:	687b      	ldr	r3, [r7, #4]
 8003c58:	681b      	ldr	r3, [r3, #0]
 8003c5a:	4a1e      	ldr	r2, [pc, #120]	; (8003cd4 <HAL_TIM_IC_Start_IT+0x238>)
 8003c5c:	4293      	cmp	r3, r2
 8003c5e:	d018      	beq.n	8003c92 <HAL_TIM_IC_Start_IT+0x1f6>
 8003c60:	687b      	ldr	r3, [r7, #4]
 8003c62:	681b      	ldr	r3, [r3, #0]
 8003c64:	4a1c      	ldr	r2, [pc, #112]	; (8003cd8 <HAL_TIM_IC_Start_IT+0x23c>)
 8003c66:	4293      	cmp	r3, r2
 8003c68:	d013      	beq.n	8003c92 <HAL_TIM_IC_Start_IT+0x1f6>
 8003c6a:	687b      	ldr	r3, [r7, #4]
 8003c6c:	681b      	ldr	r3, [r3, #0]
 8003c6e:	4a1b      	ldr	r2, [pc, #108]	; (8003cdc <HAL_TIM_IC_Start_IT+0x240>)
 8003c70:	4293      	cmp	r3, r2
 8003c72:	d00e      	beq.n	8003c92 <HAL_TIM_IC_Start_IT+0x1f6>
 8003c74:	687b      	ldr	r3, [r7, #4]
 8003c76:	681b      	ldr	r3, [r3, #0]
 8003c78:	4a19      	ldr	r2, [pc, #100]	; (8003ce0 <HAL_TIM_IC_Start_IT+0x244>)
 8003c7a:	4293      	cmp	r3, r2
 8003c7c:	d009      	beq.n	8003c92 <HAL_TIM_IC_Start_IT+0x1f6>
 8003c7e:	687b      	ldr	r3, [r7, #4]
 8003c80:	681b      	ldr	r3, [r3, #0]
 8003c82:	4a18      	ldr	r2, [pc, #96]	; (8003ce4 <HAL_TIM_IC_Start_IT+0x248>)
 8003c84:	4293      	cmp	r3, r2
 8003c86:	d004      	beq.n	8003c92 <HAL_TIM_IC_Start_IT+0x1f6>
 8003c88:	687b      	ldr	r3, [r7, #4]
 8003c8a:	681b      	ldr	r3, [r3, #0]
 8003c8c:	4a16      	ldr	r2, [pc, #88]	; (8003ce8 <HAL_TIM_IC_Start_IT+0x24c>)
 8003c8e:	4293      	cmp	r3, r2
 8003c90:	d111      	bne.n	8003cb6 <HAL_TIM_IC_Start_IT+0x21a>
    {
      tmpsmcr = htim->Instance->SMCR & TIM_SMCR_SMS;
 8003c92:	687b      	ldr	r3, [r7, #4]
 8003c94:	681b      	ldr	r3, [r3, #0]
 8003c96:	689b      	ldr	r3, [r3, #8]
 8003c98:	f003 0307 	and.w	r3, r3, #7
 8003c9c:	60bb      	str	r3, [r7, #8]
      if (!IS_TIM_SLAVEMODE_TRIGGER_ENABLED(tmpsmcr))
 8003c9e:	68bb      	ldr	r3, [r7, #8]
 8003ca0:	2b06      	cmp	r3, #6
 8003ca2:	d010      	beq.n	8003cc6 <HAL_TIM_IC_Start_IT+0x22a>
      {
        __HAL_TIM_ENABLE(htim);
 8003ca4:	687b      	ldr	r3, [r7, #4]
 8003ca6:	681b      	ldr	r3, [r3, #0]
 8003ca8:	681a      	ldr	r2, [r3, #0]
 8003caa:	687b      	ldr	r3, [r7, #4]
 8003cac:	681b      	ldr	r3, [r3, #0]
 8003cae:	f042 0201 	orr.w	r2, r2, #1
 8003cb2:	601a      	str	r2, [r3, #0]
      if (!IS_TIM_SLAVEMODE_TRIGGER_ENABLED(tmpsmcr))
 8003cb4:	e007      	b.n	8003cc6 <HAL_TIM_IC_Start_IT+0x22a>
      }
    }
    else
    {
      __HAL_TIM_ENABLE(htim);
 8003cb6:	687b      	ldr	r3, [r7, #4]
 8003cb8:	681b      	ldr	r3, [r3, #0]
 8003cba:	681a      	ldr	r2, [r3, #0]
 8003cbc:	687b      	ldr	r3, [r7, #4]
 8003cbe:	681b      	ldr	r3, [r3, #0]
 8003cc0:	f042 0201 	orr.w	r2, r2, #1
 8003cc4:	601a      	str	r2, [r3, #0]
    }
  }

  /* Return function status */
  return status;
 8003cc6:	7bfb      	ldrb	r3, [r7, #15]
}
 8003cc8:	4618      	mov	r0, r3
 8003cca:	3710      	adds	r7, #16
 8003ccc:	46bd      	mov	sp, r7
 8003cce:	bd80      	pop	{r7, pc}
 8003cd0:	40010000 	.word	0x40010000
 8003cd4:	40000400 	.word	0x40000400
 8003cd8:	40000800 	.word	0x40000800
 8003cdc:	40000c00 	.word	0x40000c00
 8003ce0:	40010400 	.word	0x40010400
 8003ce4:	40014000 	.word	0x40014000
 8003ce8:	40001800 	.word	0x40001800

08003cec <HAL_TIM_IRQHandler>:
  * @brief  This function handles TIM interrupts requests.
  * @param  htim TIM  handle
  * @retval None
  */
void HAL_TIM_IRQHandler(TIM_HandleTypeDef *htim)
{
 8003cec:	b580      	push	{r7, lr}
 8003cee:	b082      	sub	sp, #8
 8003cf0:	af00      	add	r7, sp, #0
 8003cf2:	6078      	str	r0, [r7, #4]
  /* Capture compare 1 event */
  if (__HAL_TIM_GET_FLAG(htim, TIM_FLAG_CC1) != RESET)
 8003cf4:	687b      	ldr	r3, [r7, #4]
 8003cf6:	681b      	ldr	r3, [r3, #0]
 8003cf8:	691b      	ldr	r3, [r3, #16]
 8003cfa:	f003 0302 	and.w	r3, r3, #2
 8003cfe:	2b02      	cmp	r3, #2
 8003d00:	d122      	bne.n	8003d48 <HAL_TIM_IRQHandler+0x5c>
  {
    if (__HAL_TIM_GET_IT_SOURCE(htim, TIM_IT_CC1) != RESET)
 8003d02:	687b      	ldr	r3, [r7, #4]
 8003d04:	681b      	ldr	r3, [r3, #0]
 8003d06:	68db      	ldr	r3, [r3, #12]
 8003d08:	f003 0302 	and.w	r3, r3, #2
 8003d0c:	2b02      	cmp	r3, #2
 8003d0e:	d11b      	bne.n	8003d48 <HAL_TIM_IRQHandler+0x5c>
    {
      {
        __HAL_TIM_CLEAR_IT(htim, TIM_IT_CC1);
 8003d10:	687b      	ldr	r3, [r7, #4]
 8003d12:	681b      	ldr	r3, [r3, #0]
 8003d14:	f06f 0202 	mvn.w	r2, #2
 8003d18:	611a      	str	r2, [r3, #16]
        htim->Channel = HAL_TIM_ACTIVE_CHANNEL_1;
 8003d1a:	687b      	ldr	r3, [r7, #4]
 8003d1c:	2201      	movs	r2, #1
 8003d1e:	771a      	strb	r2, [r3, #28]

        /* Input capture event */
        if ((htim->Instance->CCMR1 & TIM_CCMR1_CC1S) != 0x00U)
 8003d20:	687b      	ldr	r3, [r7, #4]
 8003d22:	681b      	ldr	r3, [r3, #0]
 8003d24:	699b      	ldr	r3, [r3, #24]
 8003d26:	f003 0303 	and.w	r3, r3, #3
 8003d2a:	2b00      	cmp	r3, #0
 8003d2c:	d003      	beq.n	8003d36 <HAL_TIM_IRQHandler+0x4a>
        {
#if (USE_HAL_TIM_REGISTER_CALLBACKS == 1)
          htim->IC_CaptureCallback(htim);
#else
          HAL_TIM_IC_CaptureCallback(htim);
 8003d2e:	6878      	ldr	r0, [r7, #4]
 8003d30:	f7fd ffc4 	bl	8001cbc <HAL_TIM_IC_CaptureCallback>
 8003d34:	e005      	b.n	8003d42 <HAL_TIM_IRQHandler+0x56>
        {
#if (USE_HAL_TIM_REGISTER_CALLBACKS == 1)
          htim->OC_DelayElapsedCallback(htim);
          htim->PWM_PulseFinishedCallback(htim);
#else
          HAL_TIM_OC_DelayElapsedCallback(htim);
 8003d36:	6878      	ldr	r0, [r7, #4]
 8003d38:	f000 fb4a 	bl	80043d0 <HAL_TIM_OC_DelayElapsedCallback>
          HAL_TIM_PWM_PulseFinishedCallback(htim);
 8003d3c:	6878      	ldr	r0, [r7, #4]
 8003d3e:	f000 fb51 	bl	80043e4 <HAL_TIM_PWM_PulseFinishedCallback>
#endif /* USE_HAL_TIM_REGISTER_CALLBACKS */
        }
        htim->Channel = HAL_TIM_ACTIVE_CHANNEL_CLEARED;
 8003d42:	687b      	ldr	r3, [r7, #4]
 8003d44:	2200      	movs	r2, #0
 8003d46:	771a      	strb	r2, [r3, #28]
      }
    }
  }
  /* Capture compare 2 event */
  if (__HAL_TIM_GET_FLAG(htim, TIM_FLAG_CC2) != RESET)
 8003d48:	687b      	ldr	r3, [r7, #4]
 8003d4a:	681b      	ldr	r3, [r3, #0]
 8003d4c:	691b      	ldr	r3, [r3, #16]
 8003d4e:	f003 0304 	and.w	r3, r3, #4
 8003d52:	2b04      	cmp	r3, #4
 8003d54:	d122      	bne.n	8003d9c <HAL_TIM_IRQHandler+0xb0>
  {
    if (__HAL_TIM_GET_IT_SOURCE(htim, TIM_IT_CC2) != RESET)
 8003d56:	687b      	ldr	r3, [r7, #4]
 8003d58:	681b      	ldr	r3, [r3, #0]
 8003d5a:	68db      	ldr	r3, [r3, #12]
 8003d5c:	f003 0304 	and.w	r3, r3, #4
 8003d60:	2b04      	cmp	r3, #4
 8003d62:	d11b      	bne.n	8003d9c <HAL_TIM_IRQHandler+0xb0>
    {
      __HAL_TIM_CLEAR_IT(htim, TIM_IT_CC2);
 8003d64:	687b      	ldr	r3, [r7, #4]
 8003d66:	681b      	ldr	r3, [r3, #0]
 8003d68:	f06f 0204 	mvn.w	r2, #4
 8003d6c:	611a      	str	r2, [r3, #16]
      htim->Channel = HAL_TIM_ACTIVE_CHANNEL_2;
 8003d6e:	687b      	ldr	r3, [r7, #4]
 8003d70:	2202      	movs	r2, #2
 8003d72:	771a      	strb	r2, [r3, #28]
      /* Input capture event */
      if ((htim->Instance->CCMR1 & TIM_CCMR1_CC2S) != 0x00U)
 8003d74:	687b      	ldr	r3, [r7, #4]
 8003d76:	681b      	ldr	r3, [r3, #0]
 8003d78:	699b      	ldr	r3, [r3, #24]
 8003d7a:	f403 7340 	and.w	r3, r3, #768	; 0x300
 8003d7e:	2b00      	cmp	r3, #0
 8003d80:	d003      	beq.n	8003d8a <HAL_TIM_IRQHandler+0x9e>
      {
#if (USE_HAL_TIM_REGISTER_CALLBACKS == 1)
        htim->IC_CaptureCallback(htim);
#else
        HAL_TIM_IC_CaptureCallback(htim);
 8003d82:	6878      	ldr	r0, [r7, #4]
 8003d84:	f7fd ff9a 	bl	8001cbc <HAL_TIM_IC_CaptureCallback>
 8003d88:	e005      	b.n	8003d96 <HAL_TIM_IRQHandler+0xaa>
      {
#if (USE_HAL_TIM_REGISTER_CALLBACKS == 1)
        htim->OC_DelayElapsedCallback(htim);
        htim->PWM_PulseFinishedCallback(htim);
#else
        HAL_TIM_OC_DelayElapsedCallback(htim);
 8003d8a:	6878      	ldr	r0, [r7, #4]
 8003d8c:	f000 fb20 	bl	80043d0 <HAL_TIM_OC_DelayElapsedCallback>
        HAL_TIM_PWM_PulseFinishedCallback(htim);
 8003d90:	6878      	ldr	r0, [r7, #4]
 8003d92:	f000 fb27 	bl	80043e4 <HAL_TIM_PWM_PulseFinishedCallback>
#endif /* USE_HAL_TIM_REGISTER_CALLBACKS */
      }
      htim->Channel = HAL_TIM_ACTIVE_CHANNEL_CLEARED;
 8003d96:	687b      	ldr	r3, [r7, #4]
 8003d98:	2200      	movs	r2, #0
 8003d9a:	771a      	strb	r2, [r3, #28]
    }
  }
  /* Capture compare 3 event */
  if (__HAL_TIM_GET_FLAG(htim, TIM_FLAG_CC3) != RESET)
 8003d9c:	687b      	ldr	r3, [r7, #4]
 8003d9e:	681b      	ldr	r3, [r3, #0]
 8003da0:	691b      	ldr	r3, [r3, #16]
 8003da2:	f003 0308 	and.w	r3, r3, #8
 8003da6:	2b08      	cmp	r3, #8
 8003da8:	d122      	bne.n	8003df0 <HAL_TIM_IRQHandler+0x104>
  {
    if (__HAL_TIM_GET_IT_SOURCE(htim, TIM_IT_CC3) != RESET)
 8003daa:	687b      	ldr	r3, [r7, #4]
 8003dac:	681b      	ldr	r3, [r3, #0]
 8003dae:	68db      	ldr	r3, [r3, #12]
 8003db0:	f003 0308 	and.w	r3, r3, #8
 8003db4:	2b08      	cmp	r3, #8
 8003db6:	d11b      	bne.n	8003df0 <HAL_TIM_IRQHandler+0x104>
    {
      __HAL_TIM_CLEAR_IT(htim, TIM_IT_CC3);
 8003db8:	687b      	ldr	r3, [r7, #4]
 8003dba:	681b      	ldr	r3, [r3, #0]
 8003dbc:	f06f 0208 	mvn.w	r2, #8
 8003dc0:	611a      	str	r2, [r3, #16]
      htim->Channel = HAL_TIM_ACTIVE_CHANNEL_3;
 8003dc2:	687b      	ldr	r3, [r7, #4]
 8003dc4:	2204      	movs	r2, #4
 8003dc6:	771a      	strb	r2, [r3, #28]
      /* Input capture event */
      if ((htim->Instance->CCMR2 & TIM_CCMR2_CC3S) != 0x00U)
 8003dc8:	687b      	ldr	r3, [r7, #4]
 8003dca:	681b      	ldr	r3, [r3, #0]
 8003dcc:	69db      	ldr	r3, [r3, #28]
 8003dce:	f003 0303 	and.w	r3, r3, #3
 8003dd2:	2b00      	cmp	r3, #0
 8003dd4:	d003      	beq.n	8003dde <HAL_TIM_IRQHandler+0xf2>
      {
#if (USE_HAL_TIM_REGISTER_CALLBACKS == 1)
        htim->IC_CaptureCallback(htim);
#else
        HAL_TIM_IC_CaptureCallback(htim);
 8003dd6:	6878      	ldr	r0, [r7, #4]
 8003dd8:	f7fd ff70 	bl	8001cbc <HAL_TIM_IC_CaptureCallback>
 8003ddc:	e005      	b.n	8003dea <HAL_TIM_IRQHandler+0xfe>
      {
#if (USE_HAL_TIM_REGISTER_CALLBACKS == 1)
        htim->OC_DelayElapsedCallback(htim);
        htim->PWM_PulseFinishedCallback(htim);
#else
        HAL_TIM_OC_DelayElapsedCallback(htim);
 8003dde:	6878      	ldr	r0, [r7, #4]
 8003de0:	f000 faf6 	bl	80043d0 <HAL_TIM_OC_DelayElapsedCallback>
        HAL_TIM_PWM_PulseFinishedCallback(htim);
 8003de4:	6878      	ldr	r0, [r7, #4]
 8003de6:	f000 fafd 	bl	80043e4 <HAL_TIM_PWM_PulseFinishedCallback>
#endif /* USE_HAL_TIM_REGISTER_CALLBACKS */
      }
      htim->Channel = HAL_TIM_ACTIVE_CHANNEL_CLEARED;
 8003dea:	687b      	ldr	r3, [r7, #4]
 8003dec:	2200      	movs	r2, #0
 8003dee:	771a      	strb	r2, [r3, #28]
    }
  }
  /* Capture compare 4 event */
  if (__HAL_TIM_GET_FLAG(htim, TIM_FLAG_CC4) != RESET)
 8003df0:	687b      	ldr	r3, [r7, #4]
 8003df2:	681b      	ldr	r3, [r3, #0]
 8003df4:	691b      	ldr	r3, [r3, #16]
 8003df6:	f003 0310 	and.w	r3, r3, #16
 8003dfa:	2b10      	cmp	r3, #16
 8003dfc:	d122      	bne.n	8003e44 <HAL_TIM_IRQHandler+0x158>
  {
    if (__HAL_TIM_GET_IT_SOURCE(htim, TIM_IT_CC4) != RESET)
 8003dfe:	687b      	ldr	r3, [r7, #4]
 8003e00:	681b      	ldr	r3, [r3, #0]
 8003e02:	68db      	ldr	r3, [r3, #12]
 8003e04:	f003 0310 	and.w	r3, r3, #16
 8003e08:	2b10      	cmp	r3, #16
 8003e0a:	d11b      	bne.n	8003e44 <HAL_TIM_IRQHandler+0x158>
    {
      __HAL_TIM_CLEAR_IT(htim, TIM_IT_CC4);
 8003e0c:	687b      	ldr	r3, [r7, #4]
 8003e0e:	681b      	ldr	r3, [r3, #0]
 8003e10:	f06f 0210 	mvn.w	r2, #16
 8003e14:	611a      	str	r2, [r3, #16]
      htim->Channel = HAL_TIM_ACTIVE_CHANNEL_4;
 8003e16:	687b      	ldr	r3, [r7, #4]
 8003e18:	2208      	movs	r2, #8
 8003e1a:	771a      	strb	r2, [r3, #28]
      /* Input capture event */
      if ((htim->Instance->CCMR2 & TIM_CCMR2_CC4S) != 0x00U)
 8003e1c:	687b      	ldr	r3, [r7, #4]
 8003e1e:	681b      	ldr	r3, [r3, #0]
 8003e20:	69db      	ldr	r3, [r3, #28]
 8003e22:	f403 7340 	and.w	r3, r3, #768	; 0x300
 8003e26:	2b00      	cmp	r3, #0
 8003e28:	d003      	beq.n	8003e32 <HAL_TIM_IRQHandler+0x146>
      {
#if (USE_HAL_TIM_REGISTER_CALLBACKS == 1)
        htim->IC_CaptureCallback(htim);
#else
        HAL_TIM_IC_CaptureCallback(htim);
 8003e2a:	6878      	ldr	r0, [r7, #4]
 8003e2c:	f7fd ff46 	bl	8001cbc <HAL_TIM_IC_CaptureCallback>
 8003e30:	e005      	b.n	8003e3e <HAL_TIM_IRQHandler+0x152>
      {
#if (USE_HAL_TIM_REGISTER_CALLBACKS == 1)
        htim->OC_DelayElapsedCallback(htim);
        htim->PWM_PulseFinishedCallback(htim);
#else
        HAL_TIM_OC_DelayElapsedCallback(htim);
 8003e32:	6878      	ldr	r0, [r7, #4]
 8003e34:	f000 facc 	bl	80043d0 <HAL_TIM_OC_DelayElapsedCallback>
        HAL_TIM_PWM_PulseFinishedCallback(htim);
 8003e38:	6878      	ldr	r0, [r7, #4]
 8003e3a:	f000 fad3 	bl	80043e4 <HAL_TIM_PWM_PulseFinishedCallback>
#endif /* USE_HAL_TIM_REGISTER_CALLBACKS */
      }
      htim->Channel = HAL_TIM_ACTIVE_CHANNEL_CLEARED;
 8003e3e:	687b      	ldr	r3, [r7, #4]
 8003e40:	2200      	movs	r2, #0
 8003e42:	771a      	strb	r2, [r3, #28]
    }
  }
  /* TIM Update event */
  if (__HAL_TIM_GET_FLAG(htim, TIM_FLAG_UPDATE) != RESET)
 8003e44:	687b      	ldr	r3, [r7, #4]
 8003e46:	681b      	ldr	r3, [r3, #0]
 8003e48:	691b      	ldr	r3, [r3, #16]
 8003e4a:	f003 0301 	and.w	r3, r3, #1
 8003e4e:	2b01      	cmp	r3, #1
 8003e50:	d10e      	bne.n	8003e70 <HAL_TIM_IRQHandler+0x184>
  {
    if (__HAL_TIM_GET_IT_SOURCE(htim, TIM_IT_UPDATE) != RESET)
 8003e52:	687b      	ldr	r3, [r7, #4]
 8003e54:	681b      	ldr	r3, [r3, #0]
 8003e56:	68db      	ldr	r3, [r3, #12]
 8003e58:	f003 0301 	and.w	r3, r3, #1
 8003e5c:	2b01      	cmp	r3, #1
 8003e5e:	d107      	bne.n	8003e70 <HAL_TIM_IRQHandler+0x184>
    {
      __HAL_TIM_CLEAR_IT(htim, TIM_IT_UPDATE);
 8003e60:	687b      	ldr	r3, [r7, #4]
 8003e62:	681b      	ldr	r3, [r3, #0]
 8003e64:	f06f 0201 	mvn.w	r2, #1
 8003e68:	611a      	str	r2, [r3, #16]
#if (USE_HAL_TIM_REGISTER_CALLBACKS == 1)
      htim->PeriodElapsedCallback(htim);
#else
      HAL_TIM_PeriodElapsedCallback(htim);
 8003e6a:	6878      	ldr	r0, [r7, #4]
 8003e6c:	f7fd ff31 	bl	8001cd2 <HAL_TIM_PeriodElapsedCallback>
#endif /* USE_HAL_TIM_REGISTER_CALLBACKS */
    }
  }
  /* TIM Break input event */
  if (__HAL_TIM_GET_FLAG(htim, TIM_FLAG_BREAK) != RESET)
 8003e70:	687b      	ldr	r3, [r7, #4]
 8003e72:	681b      	ldr	r3, [r3, #0]
 8003e74:	691b      	ldr	r3, [r3, #16]
 8003e76:	f003 0380 	and.w	r3, r3, #128	; 0x80
 8003e7a:	2b80      	cmp	r3, #128	; 0x80
 8003e7c:	d10e      	bne.n	8003e9c <HAL_TIM_IRQHandler+0x1b0>
  {
    if (__HAL_TIM_GET_IT_SOURCE(htim, TIM_IT_BREAK) != RESET)
 8003e7e:	687b      	ldr	r3, [r7, #4]
 8003e80:	681b      	ldr	r3, [r3, #0]
 8003e82:	68db      	ldr	r3, [r3, #12]
 8003e84:	f003 0380 	and.w	r3, r3, #128	; 0x80
 8003e88:	2b80      	cmp	r3, #128	; 0x80
 8003e8a:	d107      	bne.n	8003e9c <HAL_TIM_IRQHandler+0x1b0>
    {
      __HAL_TIM_CLEAR_IT(htim, TIM_IT_BREAK);
 8003e8c:	687b      	ldr	r3, [r7, #4]
 8003e8e:	681b      	ldr	r3, [r3, #0]
 8003e90:	f06f 0280 	mvn.w	r2, #128	; 0x80
 8003e94:	611a      	str	r2, [r3, #16]
#if (USE_HAL_TIM_REGISTER_CALLBACKS == 1)
      htim->BreakCallback(htim);
#else
      HAL_TIMEx_BreakCallback(htim);
 8003e96:	6878      	ldr	r0, [r7, #4]
 8003e98:	f000 ffca 	bl	8004e30 <HAL_TIMEx_BreakCallback>
#endif /* USE_HAL_TIM_REGISTER_CALLBACKS */
    }
  }
  /* TIM Trigger detection event */
  if (__HAL_TIM_GET_FLAG(htim, TIM_FLAG_TRIGGER) != RESET)
 8003e9c:	687b      	ldr	r3, [r7, #4]
 8003e9e:	681b      	ldr	r3, [r3, #0]
 8003ea0:	691b      	ldr	r3, [r3, #16]
 8003ea2:	f003 0340 	and.w	r3, r3, #64	; 0x40
 8003ea6:	2b40      	cmp	r3, #64	; 0x40
 8003ea8:	d10e      	bne.n	8003ec8 <HAL_TIM_IRQHandler+0x1dc>
  {
    if (__HAL_TIM_GET_IT_SOURCE(htim, TIM_IT_TRIGGER) != RESET)
 8003eaa:	687b      	ldr	r3, [r7, #4]
 8003eac:	681b      	ldr	r3, [r3, #0]
 8003eae:	68db      	ldr	r3, [r3, #12]
 8003eb0:	f003 0340 	and.w	r3, r3, #64	; 0x40
 8003eb4:	2b40      	cmp	r3, #64	; 0x40
 8003eb6:	d107      	bne.n	8003ec8 <HAL_TIM_IRQHandler+0x1dc>
    {
      __HAL_TIM_CLEAR_IT(htim, TIM_IT_TRIGGER);
 8003eb8:	687b      	ldr	r3, [r7, #4]
 8003eba:	681b      	ldr	r3, [r3, #0]
 8003ebc:	f06f 0240 	mvn.w	r2, #64	; 0x40
 8003ec0:	611a      	str	r2, [r3, #16]
#if (USE_HAL_TIM_REGISTER_CALLBACKS == 1)
      htim->TriggerCallback(htim);
#else
      HAL_TIM_TriggerCallback(htim);
 8003ec2:	6878      	ldr	r0, [r7, #4]
 8003ec4:	f000 fa98 	bl	80043f8 <HAL_TIM_TriggerCallback>
#endif /* USE_HAL_TIM_REGISTER_CALLBACKS */
    }
  }
  /* TIM commutation event */
  if (__HAL_TIM_GET_FLAG(htim, TIM_FLAG_COM) != RESET)
 8003ec8:	687b      	ldr	r3, [r7, #4]
 8003eca:	681b      	ldr	r3, [r3, #0]
 8003ecc:	691b      	ldr	r3, [r3, #16]
 8003ece:	f003 0320 	and.w	r3, r3, #32
 8003ed2:	2b20      	cmp	r3, #32
 8003ed4:	d10e      	bne.n	8003ef4 <HAL_TIM_IRQHandler+0x208>
  {
    if (__HAL_TIM_GET_IT_SOURCE(htim, TIM_IT_COM) != RESET)
 8003ed6:	687b      	ldr	r3, [r7, #4]
 8003ed8:	681b      	ldr	r3, [r3, #0]
 8003eda:	68db      	ldr	r3, [r3, #12]
 8003edc:	f003 0320 	and.w	r3, r3, #32
 8003ee0:	2b20      	cmp	r3, #32
 8003ee2:	d107      	bne.n	8003ef4 <HAL_TIM_IRQHandler+0x208>
    {
      __HAL_TIM_CLEAR_IT(htim, TIM_FLAG_COM);
 8003ee4:	687b      	ldr	r3, [r7, #4]
 8003ee6:	681b      	ldr	r3, [r3, #0]
 8003ee8:	f06f 0220 	mvn.w	r2, #32
 8003eec:	611a      	str	r2, [r3, #16]
#if (USE_HAL_TIM_REGISTER_CALLBACKS == 1)
      htim->CommutationCallback(htim);
#else
      HAL_TIMEx_CommutCallback(htim);
 8003eee:	6878      	ldr	r0, [r7, #4]
 8003ef0:	f000 ff94 	bl	8004e1c <HAL_TIMEx_CommutCallback>
#endif /* USE_HAL_TIM_REGISTER_CALLBACKS */
    }
  }
}
 8003ef4:	bf00      	nop
 8003ef6:	3708      	adds	r7, #8
 8003ef8:	46bd      	mov	sp, r7
 8003efa:	bd80      	pop	{r7, pc}

08003efc <HAL_TIM_IC_ConfigChannel>:
  *            @arg TIM_CHANNEL_3: TIM Channel 3 selected
  *            @arg TIM_CHANNEL_4: TIM Channel 4 selected
  * @retval HAL status
  */
HAL_StatusTypeDef HAL_TIM_IC_ConfigChannel(TIM_HandleTypeDef *htim, TIM_IC_InitTypeDef *sConfig, uint32_t Channel)
{
 8003efc:	b580      	push	{r7, lr}
 8003efe:	b086      	sub	sp, #24
 8003f00:	af00      	add	r7, sp, #0
 8003f02:	60f8      	str	r0, [r7, #12]
 8003f04:	60b9      	str	r1, [r7, #8]
 8003f06:	607a      	str	r2, [r7, #4]
  HAL_StatusTypeDef status = HAL_OK;
 8003f08:	2300      	movs	r3, #0
 8003f0a:	75fb      	strb	r3, [r7, #23]
  assert_param(IS_TIM_IC_SELECTION(sConfig->ICSelection));
  assert_param(IS_TIM_IC_PRESCALER(sConfig->ICPrescaler));
  assert_param(IS_TIM_IC_FILTER(sConfig->ICFilter));

  /* Process Locked */
  __HAL_LOCK(htim);
 8003f0c:	68fb      	ldr	r3, [r7, #12]
 8003f0e:	f893 303c 	ldrb.w	r3, [r3, #60]	; 0x3c
 8003f12:	2b01      	cmp	r3, #1
 8003f14:	d101      	bne.n	8003f1a <HAL_TIM_IC_ConfigChannel+0x1e>
 8003f16:	2302      	movs	r3, #2
 8003f18:	e088      	b.n	800402c <HAL_TIM_IC_ConfigChannel+0x130>
 8003f1a:	68fb      	ldr	r3, [r7, #12]
 8003f1c:	2201      	movs	r2, #1
 8003f1e:	f883 203c 	strb.w	r2, [r3, #60]	; 0x3c

  if (Channel == TIM_CHANNEL_1)
 8003f22:	687b      	ldr	r3, [r7, #4]
 8003f24:	2b00      	cmp	r3, #0
 8003f26:	d11b      	bne.n	8003f60 <HAL_TIM_IC_ConfigChannel+0x64>
  {
    /* TI1 Configuration */
    TIM_TI1_SetConfig(htim->Instance,
 8003f28:	68fb      	ldr	r3, [r7, #12]
 8003f2a:	6818      	ldr	r0, [r3, #0]
 8003f2c:	68bb      	ldr	r3, [r7, #8]
 8003f2e:	6819      	ldr	r1, [r3, #0]
 8003f30:	68bb      	ldr	r3, [r7, #8]
 8003f32:	685a      	ldr	r2, [r3, #4]
 8003f34:	68bb      	ldr	r3, [r7, #8]
 8003f36:	68db      	ldr	r3, [r3, #12]
 8003f38:	f000 fcb8 	bl	80048ac <TIM_TI1_SetConfig>
                      sConfig->ICPolarity,
                      sConfig->ICSelection,
                      sConfig->ICFilter);

    /* Reset the IC1PSC Bits */
    htim->Instance->CCMR1 &= ~TIM_CCMR1_IC1PSC;
 8003f3c:	68fb      	ldr	r3, [r7, #12]
 8003f3e:	681b      	ldr	r3, [r3, #0]
 8003f40:	699a      	ldr	r2, [r3, #24]
 8003f42:	68fb      	ldr	r3, [r7, #12]
 8003f44:	681b      	ldr	r3, [r3, #0]
 8003f46:	f022 020c 	bic.w	r2, r2, #12
 8003f4a:	619a      	str	r2, [r3, #24]

    /* Set the IC1PSC value */
    htim->Instance->CCMR1 |= sConfig->ICPrescaler;
 8003f4c:	68fb      	ldr	r3, [r7, #12]
 8003f4e:	681b      	ldr	r3, [r3, #0]
 8003f50:	6999      	ldr	r1, [r3, #24]
 8003f52:	68bb      	ldr	r3, [r7, #8]
 8003f54:	689a      	ldr	r2, [r3, #8]
 8003f56:	68fb      	ldr	r3, [r7, #12]
 8003f58:	681b      	ldr	r3, [r3, #0]
 8003f5a:	430a      	orrs	r2, r1
 8003f5c:	619a      	str	r2, [r3, #24]
 8003f5e:	e060      	b.n	8004022 <HAL_TIM_IC_ConfigChannel+0x126>
  }
  else if (Channel == TIM_CHANNEL_2)
 8003f60:	687b      	ldr	r3, [r7, #4]
 8003f62:	2b04      	cmp	r3, #4
 8003f64:	d11c      	bne.n	8003fa0 <HAL_TIM_IC_ConfigChannel+0xa4>
  {
    /* TI2 Configuration */
    assert_param(IS_TIM_CC2_INSTANCE(htim->Instance));

    TIM_TI2_SetConfig(htim->Instance,
 8003f66:	68fb      	ldr	r3, [r7, #12]
 8003f68:	6818      	ldr	r0, [r3, #0]
 8003f6a:	68bb      	ldr	r3, [r7, #8]
 8003f6c:	6819      	ldr	r1, [r3, #0]
 8003f6e:	68bb      	ldr	r3, [r7, #8]
 8003f70:	685a      	ldr	r2, [r3, #4]
 8003f72:	68bb      	ldr	r3, [r7, #8]
 8003f74:	68db      	ldr	r3, [r3, #12]
 8003f76:	f000 fd3c 	bl	80049f2 <TIM_TI2_SetConfig>
                      sConfig->ICPolarity,
                      sConfig->ICSelection,
                      sConfig->ICFilter);

    /* Reset the IC2PSC Bits */
    htim->Instance->CCMR1 &= ~TIM_CCMR1_IC2PSC;
 8003f7a:	68fb      	ldr	r3, [r7, #12]
 8003f7c:	681b      	ldr	r3, [r3, #0]
 8003f7e:	699a      	ldr	r2, [r3, #24]
 8003f80:	68fb      	ldr	r3, [r7, #12]
 8003f82:	681b      	ldr	r3, [r3, #0]
 8003f84:	f422 6240 	bic.w	r2, r2, #3072	; 0xc00
 8003f88:	619a      	str	r2, [r3, #24]

    /* Set the IC2PSC value */
    htim->Instance->CCMR1 |= (sConfig->ICPrescaler << 8U);
 8003f8a:	68fb      	ldr	r3, [r7, #12]
 8003f8c:	681b      	ldr	r3, [r3, #0]
 8003f8e:	6999      	ldr	r1, [r3, #24]
 8003f90:	68bb      	ldr	r3, [r7, #8]
 8003f92:	689b      	ldr	r3, [r3, #8]
 8003f94:	021a      	lsls	r2, r3, #8
 8003f96:	68fb      	ldr	r3, [r7, #12]
 8003f98:	681b      	ldr	r3, [r3, #0]
 8003f9a:	430a      	orrs	r2, r1
 8003f9c:	619a      	str	r2, [r3, #24]
 8003f9e:	e040      	b.n	8004022 <HAL_TIM_IC_ConfigChannel+0x126>
  }
  else if (Channel == TIM_CHANNEL_3)
 8003fa0:	687b      	ldr	r3, [r7, #4]
 8003fa2:	2b08      	cmp	r3, #8
 8003fa4:	d11b      	bne.n	8003fde <HAL_TIM_IC_ConfigChannel+0xe2>
  {
    /* TI3 Configuration */
    assert_param(IS_TIM_CC3_INSTANCE(htim->Instance));

    TIM_TI3_SetConfig(htim->Instance,
 8003fa6:	68fb      	ldr	r3, [r7, #12]
 8003fa8:	6818      	ldr	r0, [r3, #0]
 8003faa:	68bb      	ldr	r3, [r7, #8]
 8003fac:	6819      	ldr	r1, [r3, #0]
 8003fae:	68bb      	ldr	r3, [r7, #8]
 8003fb0:	685a      	ldr	r2, [r3, #4]
 8003fb2:	68bb      	ldr	r3, [r7, #8]
 8003fb4:	68db      	ldr	r3, [r3, #12]
 8003fb6:	f000 fd89 	bl	8004acc <TIM_TI3_SetConfig>
                      sConfig->ICPolarity,
                      sConfig->ICSelection,
                      sConfig->ICFilter);

    /* Reset the IC3PSC Bits */
    htim->Instance->CCMR2 &= ~TIM_CCMR2_IC3PSC;
 8003fba:	68fb      	ldr	r3, [r7, #12]
 8003fbc:	681b      	ldr	r3, [r3, #0]
 8003fbe:	69da      	ldr	r2, [r3, #28]
 8003fc0:	68fb      	ldr	r3, [r7, #12]
 8003fc2:	681b      	ldr	r3, [r3, #0]
 8003fc4:	f022 020c 	bic.w	r2, r2, #12
 8003fc8:	61da      	str	r2, [r3, #28]

    /* Set the IC3PSC value */
    htim->Instance->CCMR2 |= sConfig->ICPrescaler;
 8003fca:	68fb      	ldr	r3, [r7, #12]
 8003fcc:	681b      	ldr	r3, [r3, #0]
 8003fce:	69d9      	ldr	r1, [r3, #28]
 8003fd0:	68bb      	ldr	r3, [r7, #8]
 8003fd2:	689a      	ldr	r2, [r3, #8]
 8003fd4:	68fb      	ldr	r3, [r7, #12]
 8003fd6:	681b      	ldr	r3, [r3, #0]
 8003fd8:	430a      	orrs	r2, r1
 8003fda:	61da      	str	r2, [r3, #28]
 8003fdc:	e021      	b.n	8004022 <HAL_TIM_IC_ConfigChannel+0x126>
  }
  else if (Channel == TIM_CHANNEL_4)
 8003fde:	687b      	ldr	r3, [r7, #4]
 8003fe0:	2b0c      	cmp	r3, #12
 8003fe2:	d11c      	bne.n	800401e <HAL_TIM_IC_ConfigChannel+0x122>
  {
    /* TI4 Configuration */
    assert_param(IS_TIM_CC4_INSTANCE(htim->Instance));

    TIM_TI4_SetConfig(htim->Instance,
 8003fe4:	68fb      	ldr	r3, [r7, #12]
 8003fe6:	6818      	ldr	r0, [r3, #0]
 8003fe8:	68bb      	ldr	r3, [r7, #8]
 8003fea:	6819      	ldr	r1, [r3, #0]
 8003fec:	68bb      	ldr	r3, [r7, #8]
 8003fee:	685a      	ldr	r2, [r3, #4]
 8003ff0:	68bb      	ldr	r3, [r7, #8]
 8003ff2:	68db      	ldr	r3, [r3, #12]
 8003ff4:	f000 fda6 	bl	8004b44 <TIM_TI4_SetConfig>
                      sConfig->ICPolarity,
                      sConfig->ICSelection,
                      sConfig->ICFilter);

    /* Reset the IC4PSC Bits */
    htim->Instance->CCMR2 &= ~TIM_CCMR2_IC4PSC;
 8003ff8:	68fb      	ldr	r3, [r7, #12]
 8003ffa:	681b      	ldr	r3, [r3, #0]
 8003ffc:	69da      	ldr	r2, [r3, #28]
 8003ffe:	68fb      	ldr	r3, [r7, #12]
 8004000:	681b      	ldr	r3, [r3, #0]
 8004002:	f422 6240 	bic.w	r2, r2, #3072	; 0xc00
 8004006:	61da      	str	r2, [r3, #28]

    /* Set the IC4PSC value */
    htim->Instance->CCMR2 |= (sConfig->ICPrescaler << 8U);
 8004008:	68fb      	ldr	r3, [r7, #12]
 800400a:	681b      	ldr	r3, [r3, #0]
 800400c:	69d9      	ldr	r1, [r3, #28]
 800400e:	68bb      	ldr	r3, [r7, #8]
 8004010:	689b      	ldr	r3, [r3, #8]
 8004012:	021a      	lsls	r2, r3, #8
 8004014:	68fb      	ldr	r3, [r7, #12]
 8004016:	681b      	ldr	r3, [r3, #0]
 8004018:	430a      	orrs	r2, r1
 800401a:	61da      	str	r2, [r3, #28]
 800401c:	e001      	b.n	8004022 <HAL_TIM_IC_ConfigChannel+0x126>
  }
  else
  {
    status = HAL_ERROR;
 800401e:	2301      	movs	r3, #1
 8004020:	75fb      	strb	r3, [r7, #23]
  }

  __HAL_UNLOCK(htim);
 8004022:	68fb      	ldr	r3, [r7, #12]
 8004024:	2200      	movs	r2, #0
 8004026:	f883 203c 	strb.w	r2, [r3, #60]	; 0x3c

  return status;
 800402a:	7dfb      	ldrb	r3, [r7, #23]
}
 800402c:	4618      	mov	r0, r3
 800402e:	3718      	adds	r7, #24
 8004030:	46bd      	mov	sp, r7
 8004032:	bd80      	pop	{r7, pc}

08004034 <HAL_TIM_PWM_ConfigChannel>:
  * @retval HAL status
  */
HAL_StatusTypeDef HAL_TIM_PWM_ConfigChannel(TIM_HandleTypeDef *htim,
                                            TIM_OC_InitTypeDef *sConfig,
                                            uint32_t Channel)
{
 8004034:	b580      	push	{r7, lr}
 8004036:	b086      	sub	sp, #24
 8004038:	af00      	add	r7, sp, #0
 800403a:	60f8      	str	r0, [r7, #12]
 800403c:	60b9      	str	r1, [r7, #8]
 800403e:	607a      	str	r2, [r7, #4]
  HAL_StatusTypeDef status = HAL_OK;
 8004040:	2300      	movs	r3, #0
 8004042:	75fb      	strb	r3, [r7, #23]
  assert_param(IS_TIM_PWM_MODE(sConfig->OCMode));
  assert_param(IS_TIM_OC_POLARITY(sConfig->OCPolarity));
  assert_param(IS_TIM_FAST_STATE(sConfig->OCFastMode));

  /* Process Locked */
  __HAL_LOCK(htim);
 8004044:	68fb      	ldr	r3, [r7, #12]
 8004046:	f893 303c 	ldrb.w	r3, [r3, #60]	; 0x3c
 800404a:	2b01      	cmp	r3, #1
 800404c:	d101      	bne.n	8004052 <HAL_TIM_PWM_ConfigChannel+0x1e>
 800404e:	2302      	movs	r3, #2
 8004050:	e0ae      	b.n	80041b0 <HAL_TIM_PWM_ConfigChannel+0x17c>
 8004052:	68fb      	ldr	r3, [r7, #12]
 8004054:	2201      	movs	r2, #1
 8004056:	f883 203c 	strb.w	r2, [r3, #60]	; 0x3c
 800405a:	687b      	ldr	r3, [r7, #4]
 800405c:	2b0c      	cmp	r3, #12
 800405e:	f200 809f 	bhi.w	80041a0 <HAL_TIM_PWM_ConfigChannel+0x16c>
 8004062:	a201      	add	r2, pc, #4	; (adr r2, 8004068 <HAL_TIM_PWM_ConfigChannel+0x34>)
 8004064:	f852 f023 	ldr.w	pc, [r2, r3, lsl #2]
 8004068:	0800409d 	.word	0x0800409d
 800406c:	080041a1 	.word	0x080041a1
 8004070:	080041a1 	.word	0x080041a1
 8004074:	080041a1 	.word	0x080041a1
 8004078:	080040dd 	.word	0x080040dd
 800407c:	080041a1 	.word	0x080041a1
 8004080:	080041a1 	.word	0x080041a1
 8004084:	080041a1 	.word	0x080041a1
 8004088:	0800411f 	.word	0x0800411f
 800408c:	080041a1 	.word	0x080041a1
 8004090:	080041a1 	.word	0x080041a1
 8004094:	080041a1 	.word	0x080041a1
 8004098:	0800415f 	.word	0x0800415f
    {
      /* Check the parameters */
      assert_param(IS_TIM_CC1_INSTANCE(htim->Instance));

      /* Configure the Channel 1 in PWM mode */
      TIM_OC1_SetConfig(htim->Instance, sConfig);
 800409c:	68fb      	ldr	r3, [r7, #12]
 800409e:	681b      	ldr	r3, [r3, #0]
 80040a0:	68b9      	ldr	r1, [r7, #8]
 80040a2:	4618      	mov	r0, r3
 80040a4:	f000 fa52 	bl	800454c <TIM_OC1_SetConfig>

      /* Set the Preload enable bit for channel1 */
      htim->Instance->CCMR1 |= TIM_CCMR1_OC1PE;
 80040a8:	68fb      	ldr	r3, [r7, #12]
 80040aa:	681b      	ldr	r3, [r3, #0]
 80040ac:	699a      	ldr	r2, [r3, #24]
 80040ae:	68fb      	ldr	r3, [r7, #12]
 80040b0:	681b      	ldr	r3, [r3, #0]
 80040b2:	f042 0208 	orr.w	r2, r2, #8
 80040b6:	619a      	str	r2, [r3, #24]

      /* Configure the Output Fast mode */
      htim->Instance->CCMR1 &= ~TIM_CCMR1_OC1FE;
 80040b8:	68fb      	ldr	r3, [r7, #12]
 80040ba:	681b      	ldr	r3, [r3, #0]
 80040bc:	699a      	ldr	r2, [r3, #24]
 80040be:	68fb      	ldr	r3, [r7, #12]
 80040c0:	681b      	ldr	r3, [r3, #0]
 80040c2:	f022 0204 	bic.w	r2, r2, #4
 80040c6:	619a      	str	r2, [r3, #24]
      htim->Instance->CCMR1 |= sConfig->OCFastMode;
 80040c8:	68fb      	ldr	r3, [r7, #12]
 80040ca:	681b      	ldr	r3, [r3, #0]
 80040cc:	6999      	ldr	r1, [r3, #24]
 80040ce:	68bb      	ldr	r3, [r7, #8]
 80040d0:	691a      	ldr	r2, [r3, #16]
 80040d2:	68fb      	ldr	r3, [r7, #12]
 80040d4:	681b      	ldr	r3, [r3, #0]
 80040d6:	430a      	orrs	r2, r1
 80040d8:	619a      	str	r2, [r3, #24]
      break;
 80040da:	e064      	b.n	80041a6 <HAL_TIM_PWM_ConfigChannel+0x172>
    {
      /* Check the parameters */
      assert_param(IS_TIM_CC2_INSTANCE(htim->Instance));

      /* Configure the Channel 2 in PWM mode */
      TIM_OC2_SetConfig(htim->Instance, sConfig);
 80040dc:	68fb      	ldr	r3, [r7, #12]
 80040de:	681b      	ldr	r3, [r3, #0]
 80040e0:	68b9      	ldr	r1, [r7, #8]
 80040e2:	4618      	mov	r0, r3
 80040e4:	f000 faa2 	bl	800462c <TIM_OC2_SetConfig>

      /* Set the Preload enable bit for channel2 */
      htim->Instance->CCMR1 |= TIM_CCMR1_OC2PE;
 80040e8:	68fb      	ldr	r3, [r7, #12]
 80040ea:	681b      	ldr	r3, [r3, #0]
 80040ec:	699a      	ldr	r2, [r3, #24]
 80040ee:	68fb      	ldr	r3, [r7, #12]
 80040f0:	681b      	ldr	r3, [r3, #0]
 80040f2:	f442 6200 	orr.w	r2, r2, #2048	; 0x800
 80040f6:	619a      	str	r2, [r3, #24]

      /* Configure the Output Fast mode */
      htim->Instance->CCMR1 &= ~TIM_CCMR1_OC2FE;
 80040f8:	68fb      	ldr	r3, [r7, #12]
 80040fa:	681b      	ldr	r3, [r3, #0]
 80040fc:	699a      	ldr	r2, [r3, #24]
 80040fe:	68fb      	ldr	r3, [r7, #12]
 8004100:	681b      	ldr	r3, [r3, #0]
 8004102:	f422 6280 	bic.w	r2, r2, #1024	; 0x400
 8004106:	619a      	str	r2, [r3, #24]
      htim->Instance->CCMR1 |= sConfig->OCFastMode << 8U;
 8004108:	68fb      	ldr	r3, [r7, #12]
 800410a:	681b      	ldr	r3, [r3, #0]
 800410c:	6999      	ldr	r1, [r3, #24]
 800410e:	68bb      	ldr	r3, [r7, #8]
 8004110:	691b      	ldr	r3, [r3, #16]
 8004112:	021a      	lsls	r2, r3, #8
 8004114:	68fb      	ldr	r3, [r7, #12]
 8004116:	681b      	ldr	r3, [r3, #0]
 8004118:	430a      	orrs	r2, r1
 800411a:	619a      	str	r2, [r3, #24]
      break;
 800411c:	e043      	b.n	80041a6 <HAL_TIM_PWM_ConfigChannel+0x172>
    {
      /* Check the parameters */
      assert_param(IS_TIM_CC3_INSTANCE(htim->Instance));

      /* Configure the Channel 3 in PWM mode */
      TIM_OC3_SetConfig(htim->Instance, sConfig);
 800411e:	68fb      	ldr	r3, [r7, #12]
 8004120:	681b      	ldr	r3, [r3, #0]
 8004122:	68b9      	ldr	r1, [r7, #8]
 8004124:	4618      	mov	r0, r3
 8004126:	f000 faf7 	bl	8004718 <TIM_OC3_SetConfig>

      /* Set the Preload enable bit for channel3 */
      htim->Instance->CCMR2 |= TIM_CCMR2_OC3PE;
 800412a:	68fb      	ldr	r3, [r7, #12]
 800412c:	681b      	ldr	r3, [r3, #0]
 800412e:	69da      	ldr	r2, [r3, #28]
 8004130:	68fb      	ldr	r3, [r7, #12]
 8004132:	681b      	ldr	r3, [r3, #0]
 8004134:	f042 0208 	orr.w	r2, r2, #8
 8004138:	61da      	str	r2, [r3, #28]

      /* Configure the Output Fast mode */
      htim->Instance->CCMR2 &= ~TIM_CCMR2_OC3FE;
 800413a:	68fb      	ldr	r3, [r7, #12]
 800413c:	681b      	ldr	r3, [r3, #0]
 800413e:	69da      	ldr	r2, [r3, #28]
 8004140:	68fb      	ldr	r3, [r7, #12]
 8004142:	681b      	ldr	r3, [r3, #0]
 8004144:	f022 0204 	bic.w	r2, r2, #4
 8004148:	61da      	str	r2, [r3, #28]
      htim->Instance->CCMR2 |= sConfig->OCFastMode;
 800414a:	68fb      	ldr	r3, [r7, #12]
 800414c:	681b      	ldr	r3, [r3, #0]
 800414e:	69d9      	ldr	r1, [r3, #28]
 8004150:	68bb      	ldr	r3, [r7, #8]
 8004152:	691a      	ldr	r2, [r3, #16]
 8004154:	68fb      	ldr	r3, [r7, #12]
 8004156:	681b      	ldr	r3, [r3, #0]
 8004158:	430a      	orrs	r2, r1
 800415a:	61da      	str	r2, [r3, #28]
      break;
 800415c:	e023      	b.n	80041a6 <HAL_TIM_PWM_ConfigChannel+0x172>
    {
      /* Check the parameters */
      assert_param(IS_TIM_CC4_INSTANCE(htim->Instance));

      /* Configure the Channel 4 in PWM mode */
      TIM_OC4_SetConfig(htim->Instance, sConfig);
 800415e:	68fb      	ldr	r3, [r7, #12]
 8004160:	681b      	ldr	r3, [r3, #0]
 8004162:	68b9      	ldr	r1, [r7, #8]
 8004164:	4618      	mov	r0, r3
 8004166:	f000 fb4b 	bl	8004800 <TIM_OC4_SetConfig>

      /* Set the Preload enable bit for channel4 */
      htim->Instance->CCMR2 |= TIM_CCMR2_OC4PE;
 800416a:	68fb      	ldr	r3, [r7, #12]
 800416c:	681b      	ldr	r3, [r3, #0]
 800416e:	69da      	ldr	r2, [r3, #28]
 8004170:	68fb      	ldr	r3, [r7, #12]
 8004172:	681b      	ldr	r3, [r3, #0]
 8004174:	f442 6200 	orr.w	r2, r2, #2048	; 0x800
 8004178:	61da      	str	r2, [r3, #28]

      /* Configure the Output Fast mode */
      htim->Instance->CCMR2 &= ~TIM_CCMR2_OC4FE;
 800417a:	68fb      	ldr	r3, [r7, #12]
 800417c:	681b      	ldr	r3, [r3, #0]
 800417e:	69da      	ldr	r2, [r3, #28]
 8004180:	68fb      	ldr	r3, [r7, #12]
 8004182:	681b      	ldr	r3, [r3, #0]
 8004184:	f422 6280 	bic.w	r2, r2, #1024	; 0x400
 8004188:	61da      	str	r2, [r3, #28]
      htim->Instance->CCMR2 |= sConfig->OCFastMode << 8U;
 800418a:	68fb      	ldr	r3, [r7, #12]
 800418c:	681b      	ldr	r3, [r3, #0]
 800418e:	69d9      	ldr	r1, [r3, #28]
 8004190:	68bb      	ldr	r3, [r7, #8]
 8004192:	691b      	ldr	r3, [r3, #16]
 8004194:	021a      	lsls	r2, r3, #8
 8004196:	68fb      	ldr	r3, [r7, #12]
 8004198:	681b      	ldr	r3, [r3, #0]
 800419a:	430a      	orrs	r2, r1
 800419c:	61da      	str	r2, [r3, #28]
      break;
 800419e:	e002      	b.n	80041a6 <HAL_TIM_PWM_ConfigChannel+0x172>
    }

    default:
      status = HAL_ERROR;
 80041a0:	2301      	movs	r3, #1
 80041a2:	75fb      	strb	r3, [r7, #23]
      break;
 80041a4:	bf00      	nop
  }

  __HAL_UNLOCK(htim);
 80041a6:	68fb      	ldr	r3, [r7, #12]
 80041a8:	2200      	movs	r2, #0
 80041aa:	f883 203c 	strb.w	r2, [r3, #60]	; 0x3c

  return status;
 80041ae:	7dfb      	ldrb	r3, [r7, #23]
}
 80041b0:	4618      	mov	r0, r3
 80041b2:	3718      	adds	r7, #24
 80041b4:	46bd      	mov	sp, r7
 80041b6:	bd80      	pop	{r7, pc}

080041b8 <HAL_TIM_ConfigClockSource>:
  * @param  sClockSourceConfig pointer to a TIM_ClockConfigTypeDef structure that
  *         contains the clock source information for the TIM peripheral.
  * @retval HAL status
  */
HAL_StatusTypeDef HAL_TIM_ConfigClockSource(TIM_HandleTypeDef *htim, TIM_ClockConfigTypeDef *sClockSourceConfig)
{
 80041b8:	b580      	push	{r7, lr}
 80041ba:	b084      	sub	sp, #16
 80041bc:	af00      	add	r7, sp, #0
 80041be:	6078      	str	r0, [r7, #4]
 80041c0:	6039      	str	r1, [r7, #0]
  HAL_StatusTypeDef status = HAL_OK;
 80041c2:	2300      	movs	r3, #0
 80041c4:	73fb      	strb	r3, [r7, #15]
  uint32_t tmpsmcr;

  /* Process Locked */
  __HAL_LOCK(htim);
 80041c6:	687b      	ldr	r3, [r7, #4]
 80041c8:	f893 303c 	ldrb.w	r3, [r3, #60]	; 0x3c
 80041cc:	2b01      	cmp	r3, #1
 80041ce:	d101      	bne.n	80041d4 <HAL_TIM_ConfigClockSource+0x1c>
 80041d0:	2302      	movs	r3, #2
 80041d2:	e0b4      	b.n	800433e <HAL_TIM_ConfigClockSource+0x186>
 80041d4:	687b      	ldr	r3, [r7, #4]
 80041d6:	2201      	movs	r2, #1
 80041d8:	f883 203c 	strb.w	r2, [r3, #60]	; 0x3c

  htim->State = HAL_TIM_STATE_BUSY;
 80041dc:	687b      	ldr	r3, [r7, #4]
 80041de:	2202      	movs	r2, #2
 80041e0:	f883 203d 	strb.w	r2, [r3, #61]	; 0x3d

  /* Check the parameters */
  assert_param(IS_TIM_CLOCKSOURCE(sClockSourceConfig->ClockSource));

  /* Reset the SMS, TS, ECE, ETPS and ETRF bits */
  tmpsmcr = htim->Instance->SMCR;
 80041e4:	687b      	ldr	r3, [r7, #4]
 80041e6:	681b      	ldr	r3, [r3, #0]
 80041e8:	689b      	ldr	r3, [r3, #8]
 80041ea:	60bb      	str	r3, [r7, #8]
  tmpsmcr &= ~(TIM_SMCR_SMS | TIM_SMCR_TS);
 80041ec:	68bb      	ldr	r3, [r7, #8]
 80041ee:	f023 0377 	bic.w	r3, r3, #119	; 0x77
 80041f2:	60bb      	str	r3, [r7, #8]
  tmpsmcr &= ~(TIM_SMCR_ETF | TIM_SMCR_ETPS | TIM_SMCR_ECE | TIM_SMCR_ETP);
 80041f4:	68bb      	ldr	r3, [r7, #8]
 80041f6:	f423 437f 	bic.w	r3, r3, #65280	; 0xff00
 80041fa:	60bb      	str	r3, [r7, #8]
  htim->Instance->SMCR = tmpsmcr;
 80041fc:	687b      	ldr	r3, [r7, #4]
 80041fe:	681b      	ldr	r3, [r3, #0]
 8004200:	68ba      	ldr	r2, [r7, #8]
 8004202:	609a      	str	r2, [r3, #8]

  switch (sClockSourceConfig->ClockSource)
 8004204:	683b      	ldr	r3, [r7, #0]
 8004206:	681b      	ldr	r3, [r3, #0]
 8004208:	f5b3 5f00 	cmp.w	r3, #8192	; 0x2000
 800420c:	d03e      	beq.n	800428c <HAL_TIM_ConfigClockSource+0xd4>
 800420e:	f5b3 5f00 	cmp.w	r3, #8192	; 0x2000
 8004212:	f200 8087 	bhi.w	8004324 <HAL_TIM_ConfigClockSource+0x16c>
 8004216:	f5b3 5f80 	cmp.w	r3, #4096	; 0x1000
 800421a:	f000 8086 	beq.w	800432a <HAL_TIM_ConfigClockSource+0x172>
 800421e:	f5b3 5f80 	cmp.w	r3, #4096	; 0x1000
 8004222:	d87f      	bhi.n	8004324 <HAL_TIM_ConfigClockSource+0x16c>
 8004224:	2b70      	cmp	r3, #112	; 0x70
 8004226:	d01a      	beq.n	800425e <HAL_TIM_ConfigClockSource+0xa6>
 8004228:	2b70      	cmp	r3, #112	; 0x70
 800422a:	d87b      	bhi.n	8004324 <HAL_TIM_ConfigClockSource+0x16c>
 800422c:	2b60      	cmp	r3, #96	; 0x60
 800422e:	d050      	beq.n	80042d2 <HAL_TIM_ConfigClockSource+0x11a>
 8004230:	2b60      	cmp	r3, #96	; 0x60
 8004232:	d877      	bhi.n	8004324 <HAL_TIM_ConfigClockSource+0x16c>
 8004234:	2b50      	cmp	r3, #80	; 0x50
 8004236:	d03c      	beq.n	80042b2 <HAL_TIM_ConfigClockSource+0xfa>
 8004238:	2b50      	cmp	r3, #80	; 0x50
 800423a:	d873      	bhi.n	8004324 <HAL_TIM_ConfigClockSource+0x16c>
 800423c:	2b40      	cmp	r3, #64	; 0x40
 800423e:	d058      	beq.n	80042f2 <HAL_TIM_ConfigClockSource+0x13a>
 8004240:	2b40      	cmp	r3, #64	; 0x40
 8004242:	d86f      	bhi.n	8004324 <HAL_TIM_ConfigClockSource+0x16c>
 8004244:	2b30      	cmp	r3, #48	; 0x30
 8004246:	d064      	beq.n	8004312 <HAL_TIM_ConfigClockSource+0x15a>
 8004248:	2b30      	cmp	r3, #48	; 0x30
 800424a:	d86b      	bhi.n	8004324 <HAL_TIM_ConfigClockSource+0x16c>
 800424c:	2b20      	cmp	r3, #32
 800424e:	d060      	beq.n	8004312 <HAL_TIM_ConfigClockSource+0x15a>
 8004250:	2b20      	cmp	r3, #32
 8004252:	d867      	bhi.n	8004324 <HAL_TIM_ConfigClockSource+0x16c>
 8004254:	2b00      	cmp	r3, #0
 8004256:	d05c      	beq.n	8004312 <HAL_TIM_ConfigClockSource+0x15a>
 8004258:	2b10      	cmp	r3, #16
 800425a:	d05a      	beq.n	8004312 <HAL_TIM_ConfigClockSource+0x15a>
 800425c:	e062      	b.n	8004324 <HAL_TIM_ConfigClockSource+0x16c>
      assert_param(IS_TIM_CLOCKPRESCALER(sClockSourceConfig->ClockPrescaler));
      assert_param(IS_TIM_CLOCKPOLARITY(sClockSourceConfig->ClockPolarity));
      assert_param(IS_TIM_CLOCKFILTER(sClockSourceConfig->ClockFilter));

      /* Configure the ETR Clock source */
      TIM_ETR_SetConfig(htim->Instance,
 800425e:	687b      	ldr	r3, [r7, #4]
 8004260:	6818      	ldr	r0, [r3, #0]
 8004262:	683b      	ldr	r3, [r7, #0]
 8004264:	6899      	ldr	r1, [r3, #8]
 8004266:	683b      	ldr	r3, [r7, #0]
 8004268:	685a      	ldr	r2, [r3, #4]
 800426a:	683b      	ldr	r3, [r7, #0]
 800426c:	68db      	ldr	r3, [r3, #12]
 800426e:	f000 fcc1 	bl	8004bf4 <TIM_ETR_SetConfig>
                        sClockSourceConfig->ClockPrescaler,
                        sClockSourceConfig->ClockPolarity,
                        sClockSourceConfig->ClockFilter);

      /* Select the External clock mode1 and the ETRF trigger */
      tmpsmcr = htim->Instance->SMCR;
 8004272:	687b      	ldr	r3, [r7, #4]
 8004274:	681b      	ldr	r3, [r3, #0]
 8004276:	689b      	ldr	r3, [r3, #8]
 8004278:	60bb      	str	r3, [r7, #8]
      tmpsmcr |= (TIM_SLAVEMODE_EXTERNAL1 | TIM_CLOCKSOURCE_ETRMODE1);
 800427a:	68bb      	ldr	r3, [r7, #8]
 800427c:	f043 0377 	orr.w	r3, r3, #119	; 0x77
 8004280:	60bb      	str	r3, [r7, #8]
      /* Write to TIMx SMCR */
      htim->Instance->SMCR = tmpsmcr;
 8004282:	687b      	ldr	r3, [r7, #4]
 8004284:	681b      	ldr	r3, [r3, #0]
 8004286:	68ba      	ldr	r2, [r7, #8]
 8004288:	609a      	str	r2, [r3, #8]
      break;
 800428a:	e04f      	b.n	800432c <HAL_TIM_ConfigClockSource+0x174>
      assert_param(IS_TIM_CLOCKPRESCALER(sClockSourceConfig->ClockPrescaler));
      assert_param(IS_TIM_CLOCKPOLARITY(sClockSourceConfig->ClockPolarity));
      assert_param(IS_TIM_CLOCKFILTER(sClockSourceConfig->ClockFilter));

      /* Configure the ETR Clock source */
      TIM_ETR_SetConfig(htim->Instance,
 800428c:	687b      	ldr	r3, [r7, #4]
 800428e:	6818      	ldr	r0, [r3, #0]
 8004290:	683b      	ldr	r3, [r7, #0]
 8004292:	6899      	ldr	r1, [r3, #8]
 8004294:	683b      	ldr	r3, [r7, #0]
 8004296:	685a      	ldr	r2, [r3, #4]
 8004298:	683b      	ldr	r3, [r7, #0]
 800429a:	68db      	ldr	r3, [r3, #12]
 800429c:	f000 fcaa 	bl	8004bf4 <TIM_ETR_SetConfig>
                        sClockSourceConfig->ClockPrescaler,
                        sClockSourceConfig->ClockPolarity,
                        sClockSourceConfig->ClockFilter);
      /* Enable the External clock mode2 */
      htim->Instance->SMCR |= TIM_SMCR_ECE;
 80042a0:	687b      	ldr	r3, [r7, #4]
 80042a2:	681b      	ldr	r3, [r3, #0]
 80042a4:	689a      	ldr	r2, [r3, #8]
 80042a6:	687b      	ldr	r3, [r7, #4]
 80042a8:	681b      	ldr	r3, [r3, #0]
 80042aa:	f442 4280 	orr.w	r2, r2, #16384	; 0x4000
 80042ae:	609a      	str	r2, [r3, #8]
      break;
 80042b0:	e03c      	b.n	800432c <HAL_TIM_ConfigClockSource+0x174>

      /* Check TI1 input conditioning related parameters */
      assert_param(IS_TIM_CLOCKPOLARITY(sClockSourceConfig->ClockPolarity));
      assert_param(IS_TIM_CLOCKFILTER(sClockSourceConfig->ClockFilter));

      TIM_TI1_ConfigInputStage(htim->Instance,
 80042b2:	687b      	ldr	r3, [r7, #4]
 80042b4:	6818      	ldr	r0, [r3, #0]
 80042b6:	683b      	ldr	r3, [r7, #0]
 80042b8:	6859      	ldr	r1, [r3, #4]
 80042ba:	683b      	ldr	r3, [r7, #0]
 80042bc:	68db      	ldr	r3, [r3, #12]
 80042be:	461a      	mov	r2, r3
 80042c0:	f000 fb68 	bl	8004994 <TIM_TI1_ConfigInputStage>
                               sClockSourceConfig->ClockPolarity,
                               sClockSourceConfig->ClockFilter);
      TIM_ITRx_SetConfig(htim->Instance, TIM_CLOCKSOURCE_TI1);
 80042c4:	687b      	ldr	r3, [r7, #4]
 80042c6:	681b      	ldr	r3, [r3, #0]
 80042c8:	2150      	movs	r1, #80	; 0x50
 80042ca:	4618      	mov	r0, r3
 80042cc:	f000 fc77 	bl	8004bbe <TIM_ITRx_SetConfig>
      break;
 80042d0:	e02c      	b.n	800432c <HAL_TIM_ConfigClockSource+0x174>

      /* Check TI2 input conditioning related parameters */
      assert_param(IS_TIM_CLOCKPOLARITY(sClockSourceConfig->ClockPolarity));
      assert_param(IS_TIM_CLOCKFILTER(sClockSourceConfig->ClockFilter));

      TIM_TI2_ConfigInputStage(htim->Instance,
 80042d2:	687b      	ldr	r3, [r7, #4]
 80042d4:	6818      	ldr	r0, [r3, #0]
 80042d6:	683b      	ldr	r3, [r7, #0]
 80042d8:	6859      	ldr	r1, [r3, #4]
 80042da:	683b      	ldr	r3, [r7, #0]
 80042dc:	68db      	ldr	r3, [r3, #12]
 80042de:	461a      	mov	r2, r3
 80042e0:	f000 fbc4 	bl	8004a6c <TIM_TI2_ConfigInputStage>
                               sClockSourceConfig->ClockPolarity,
                               sClockSourceConfig->ClockFilter);
      TIM_ITRx_SetConfig(htim->Instance, TIM_CLOCKSOURCE_TI2);
 80042e4:	687b      	ldr	r3, [r7, #4]
 80042e6:	681b      	ldr	r3, [r3, #0]
 80042e8:	2160      	movs	r1, #96	; 0x60
 80042ea:	4618      	mov	r0, r3
 80042ec:	f000 fc67 	bl	8004bbe <TIM_ITRx_SetConfig>
      break;
 80042f0:	e01c      	b.n	800432c <HAL_TIM_ConfigClockSource+0x174>

      /* Check TI1 input conditioning related parameters */
      assert_param(IS_TIM_CLOCKPOLARITY(sClockSourceConfig->ClockPolarity));
      assert_param(IS_TIM_CLOCKFILTER(sClockSourceConfig->ClockFilter));

      TIM_TI1_ConfigInputStage(htim->Instance,
 80042f2:	687b      	ldr	r3, [r7, #4]
 80042f4:	6818      	ldr	r0, [r3, #0]
 80042f6:	683b      	ldr	r3, [r7, #0]
 80042f8:	6859      	ldr	r1, [r3, #4]
 80042fa:	683b      	ldr	r3, [r7, #0]
 80042fc:	68db      	ldr	r3, [r3, #12]
 80042fe:	461a      	mov	r2, r3
 8004300:	f000 fb48 	bl	8004994 <TIM_TI1_ConfigInputStage>
                               sClockSourceConfig->ClockPolarity,
                               sClockSourceConfig->ClockFilter);
      TIM_ITRx_SetConfig(htim->Instance, TIM_CLOCKSOURCE_TI1ED);
 8004304:	687b      	ldr	r3, [r7, #4]
 8004306:	681b      	ldr	r3, [r3, #0]
 8004308:	2140      	movs	r1, #64	; 0x40
 800430a:	4618      	mov	r0, r3
 800430c:	f000 fc57 	bl	8004bbe <TIM_ITRx_SetConfig>
      break;
 8004310:	e00c      	b.n	800432c <HAL_TIM_ConfigClockSource+0x174>
    case TIM_CLOCKSOURCE_ITR3:
    {
      /* Check whether or not the timer instance supports internal trigger input */
      assert_param(IS_TIM_CLOCKSOURCE_ITRX_INSTANCE(htim->Instance));

      TIM_ITRx_SetConfig(htim->Instance, sClockSourceConfig->ClockSource);
 8004312:	687b      	ldr	r3, [r7, #4]
 8004314:	681a      	ldr	r2, [r3, #0]
 8004316:	683b      	ldr	r3, [r7, #0]
 8004318:	681b      	ldr	r3, [r3, #0]
 800431a:	4619      	mov	r1, r3
 800431c:	4610      	mov	r0, r2
 800431e:	f000 fc4e 	bl	8004bbe <TIM_ITRx_SetConfig>
      break;
 8004322:	e003      	b.n	800432c <HAL_TIM_ConfigClockSource+0x174>
    }

    default:
      status = HAL_ERROR;
 8004324:	2301      	movs	r3, #1
 8004326:	73fb      	strb	r3, [r7, #15]
      break;
 8004328:	e000      	b.n	800432c <HAL_TIM_ConfigClockSource+0x174>
      break;
 800432a:	bf00      	nop
  }
  htim->State = HAL_TIM_STATE_READY;
 800432c:	687b      	ldr	r3, [r7, #4]
 800432e:	2201      	movs	r2, #1
 8004330:	f883 203d 	strb.w	r2, [r3, #61]	; 0x3d

  __HAL_UNLOCK(htim);
 8004334:	687b      	ldr	r3, [r7, #4]
 8004336:	2200      	movs	r2, #0
 8004338:	f883 203c 	strb.w	r2, [r3, #60]	; 0x3c

  return status;
 800433c:	7bfb      	ldrb	r3, [r7, #15]
}
 800433e:	4618      	mov	r0, r3
 8004340:	3710      	adds	r7, #16
 8004342:	46bd      	mov	sp, r7
 8004344:	bd80      	pop	{r7, pc}
	...

08004348 <HAL_TIM_ReadCapturedValue>:
  *            @arg TIM_CHANNEL_3: TIM Channel 3 selected
  *            @arg TIM_CHANNEL_4: TIM Channel 4 selected
  * @retval Captured value
  */
uint32_t HAL_TIM_ReadCapturedValue(TIM_HandleTypeDef *htim, uint32_t Channel)
{
 8004348:	b480      	push	{r7}
 800434a:	b085      	sub	sp, #20
 800434c:	af00      	add	r7, sp, #0
 800434e:	6078      	str	r0, [r7, #4]
 8004350:	6039      	str	r1, [r7, #0]
  uint32_t tmpreg = 0U;
 8004352:	2300      	movs	r3, #0
 8004354:	60fb      	str	r3, [r7, #12]
 8004356:	683b      	ldr	r3, [r7, #0]
 8004358:	2b0c      	cmp	r3, #12
 800435a:	d831      	bhi.n	80043c0 <HAL_TIM_ReadCapturedValue+0x78>
 800435c:	a201      	add	r2, pc, #4	; (adr r2, 8004364 <HAL_TIM_ReadCapturedValue+0x1c>)
 800435e:	f852 f023 	ldr.w	pc, [r2, r3, lsl #2]
 8004362:	bf00      	nop
 8004364:	08004399 	.word	0x08004399
 8004368:	080043c1 	.word	0x080043c1
 800436c:	080043c1 	.word	0x080043c1
 8004370:	080043c1 	.word	0x080043c1
 8004374:	080043a3 	.word	0x080043a3
 8004378:	080043c1 	.word	0x080043c1
 800437c:	080043c1 	.word	0x080043c1
 8004380:	080043c1 	.word	0x080043c1
 8004384:	080043ad 	.word	0x080043ad
 8004388:	080043c1 	.word	0x080043c1
 800438c:	080043c1 	.word	0x080043c1
 8004390:	080043c1 	.word	0x080043c1
 8004394:	080043b7 	.word	0x080043b7
    {
      /* Check the parameters */
      assert_param(IS_TIM_CC1_INSTANCE(htim->Instance));

      /* Return the capture 1 value */
      tmpreg =  htim->Instance->CCR1;
 8004398:	687b      	ldr	r3, [r7, #4]
 800439a:	681b      	ldr	r3, [r3, #0]
 800439c:	6b5b      	ldr	r3, [r3, #52]	; 0x34
 800439e:	60fb      	str	r3, [r7, #12]

      break;
 80043a0:	e00f      	b.n	80043c2 <HAL_TIM_ReadCapturedValue+0x7a>
    {
      /* Check the parameters */
      assert_param(IS_TIM_CC2_INSTANCE(htim->Instance));

      /* Return the capture 2 value */
      tmpreg =   htim->Instance->CCR2;
 80043a2:	687b      	ldr	r3, [r7, #4]
 80043a4:	681b      	ldr	r3, [r3, #0]
 80043a6:	6b9b      	ldr	r3, [r3, #56]	; 0x38
 80043a8:	60fb      	str	r3, [r7, #12]

      break;
 80043aa:	e00a      	b.n	80043c2 <HAL_TIM_ReadCapturedValue+0x7a>
    {
      /* Check the parameters */
      assert_param(IS_TIM_CC3_INSTANCE(htim->Instance));

      /* Return the capture 3 value */
      tmpreg =   htim->Instance->CCR3;
 80043ac:	687b      	ldr	r3, [r7, #4]
 80043ae:	681b      	ldr	r3, [r3, #0]
 80043b0:	6bdb      	ldr	r3, [r3, #60]	; 0x3c
 80043b2:	60fb      	str	r3, [r7, #12]

      break;
 80043b4:	e005      	b.n	80043c2 <HAL_TIM_ReadCapturedValue+0x7a>
    {
      /* Check the parameters */
      assert_param(IS_TIM_CC4_INSTANCE(htim->Instance));

      /* Return the capture 4 value */
      tmpreg =   htim->Instance->CCR4;
 80043b6:	687b      	ldr	r3, [r7, #4]
 80043b8:	681b      	ldr	r3, [r3, #0]
 80043ba:	6c1b      	ldr	r3, [r3, #64]	; 0x40
 80043bc:	60fb      	str	r3, [r7, #12]

      break;
 80043be:	e000      	b.n	80043c2 <HAL_TIM_ReadCapturedValue+0x7a>
    }

    default:
      break;
 80043c0:	bf00      	nop
  }

  return tmpreg;
 80043c2:	68fb      	ldr	r3, [r7, #12]
}
 80043c4:	4618      	mov	r0, r3
 80043c6:	3714      	adds	r7, #20
 80043c8:	46bd      	mov	sp, r7
 80043ca:	f85d 7b04 	ldr.w	r7, [sp], #4
 80043ce:	4770      	bx	lr

080043d0 <HAL_TIM_OC_DelayElapsedCallback>:
  * @brief  Output Compare callback in non-blocking mode
  * @param  htim TIM OC handle
  * @retval None
  */
__weak void HAL_TIM_OC_DelayElapsedCallback(TIM_HandleTypeDef *htim)
{
 80043d0:	b480      	push	{r7}
 80043d2:	b083      	sub	sp, #12
 80043d4:	af00      	add	r7, sp, #0
 80043d6:	6078      	str	r0, [r7, #4]
  UNUSED(htim);

  /* NOTE : This function should not be modified, when the callback is needed,
            the HAL_TIM_OC_DelayElapsedCallback could be implemented in the user file
   */
}
 80043d8:	bf00      	nop
 80043da:	370c      	adds	r7, #12
 80043dc:	46bd      	mov	sp, r7
 80043de:	f85d 7b04 	ldr.w	r7, [sp], #4
 80043e2:	4770      	bx	lr

080043e4 <HAL_TIM_PWM_PulseFinishedCallback>:
  * @brief  PWM Pulse finished callback in non-blocking mode
  * @param  htim TIM handle
  * @retval None
  */
__weak void HAL_TIM_PWM_PulseFinishedCallback(TIM_HandleTypeDef *htim)
{
 80043e4:	b480      	push	{r7}
 80043e6:	b083      	sub	sp, #12
 80043e8:	af00      	add	r7, sp, #0
 80043ea:	6078      	str	r0, [r7, #4]
  UNUSED(htim);

  /* NOTE : This function should not be modified, when the callback is needed,
            the HAL_TIM_PWM_PulseFinishedCallback could be implemented in the user file
   */
}
 80043ec:	bf00      	nop
 80043ee:	370c      	adds	r7, #12
 80043f0:	46bd      	mov	sp, r7
 80043f2:	f85d 7b04 	ldr.w	r7, [sp], #4
 80043f6:	4770      	bx	lr

080043f8 <HAL_TIM_TriggerCallback>:
  * @brief  Hall Trigger detection callback in non-blocking mode
  * @param  htim TIM handle
  * @retval None
  */
__weak void HAL_TIM_TriggerCallback(TIM_HandleTypeDef *htim)
{
 80043f8:	b480      	push	{r7}
 80043fa:	b083      	sub	sp, #12
 80043fc:	af00      	add	r7, sp, #0
 80043fe:	6078      	str	r0, [r7, #4]
  UNUSED(htim);

  /* NOTE : This function should not be modified, when the callback is needed,
            the HAL_TIM_TriggerCallback could be implemented in the user file
   */
}
 8004400:	bf00      	nop
 8004402:	370c      	adds	r7, #12
 8004404:	46bd      	mov	sp, r7
 8004406:	f85d 7b04 	ldr.w	r7, [sp], #4
 800440a:	4770      	bx	lr

0800440c <TIM_Base_SetConfig>:
  * @param  TIMx TIM peripheral
  * @param  Structure TIM Base configuration structure
  * @retval None
  */
void TIM_Base_SetConfig(TIM_TypeDef *TIMx, TIM_Base_InitTypeDef *Structure)
{
 800440c:	b480      	push	{r7}
 800440e:	b085      	sub	sp, #20
 8004410:	af00      	add	r7, sp, #0
 8004412:	6078      	str	r0, [r7, #4]
 8004414:	6039      	str	r1, [r7, #0]
  uint32_t tmpcr1;
  tmpcr1 = TIMx->CR1;
 8004416:	687b      	ldr	r3, [r7, #4]
 8004418:	681b      	ldr	r3, [r3, #0]
 800441a:	60fb      	str	r3, [r7, #12]

  /* Set TIM Time Base Unit parameters ---------------------------------------*/
  if (IS_TIM_COUNTER_MODE_SELECT_INSTANCE(TIMx))
 800441c:	687b      	ldr	r3, [r7, #4]
 800441e:	4a40      	ldr	r2, [pc, #256]	; (8004520 <TIM_Base_SetConfig+0x114>)
 8004420:	4293      	cmp	r3, r2
 8004422:	d013      	beq.n	800444c <TIM_Base_SetConfig+0x40>
 8004424:	687b      	ldr	r3, [r7, #4]
 8004426:	f1b3 4f80 	cmp.w	r3, #1073741824	; 0x40000000
 800442a:	d00f      	beq.n	800444c <TIM_Base_SetConfig+0x40>
 800442c:	687b      	ldr	r3, [r7, #4]
 800442e:	4a3d      	ldr	r2, [pc, #244]	; (8004524 <TIM_Base_SetConfig+0x118>)
 8004430:	4293      	cmp	r3, r2
 8004432:	d00b      	beq.n	800444c <TIM_Base_SetConfig+0x40>
 8004434:	687b      	ldr	r3, [r7, #4]
 8004436:	4a3c      	ldr	r2, [pc, #240]	; (8004528 <TIM_Base_SetConfig+0x11c>)
 8004438:	4293      	cmp	r3, r2
 800443a:	d007      	beq.n	800444c <TIM_Base_SetConfig+0x40>
 800443c:	687b      	ldr	r3, [r7, #4]
 800443e:	4a3b      	ldr	r2, [pc, #236]	; (800452c <TIM_Base_SetConfig+0x120>)
 8004440:	4293      	cmp	r3, r2
 8004442:	d003      	beq.n	800444c <TIM_Base_SetConfig+0x40>
 8004444:	687b      	ldr	r3, [r7, #4]
 8004446:	4a3a      	ldr	r2, [pc, #232]	; (8004530 <TIM_Base_SetConfig+0x124>)
 8004448:	4293      	cmp	r3, r2
 800444a:	d108      	bne.n	800445e <TIM_Base_SetConfig+0x52>
  {
    /* Select the Counter Mode */
    tmpcr1 &= ~(TIM_CR1_DIR | TIM_CR1_CMS);
 800444c:	68fb      	ldr	r3, [r7, #12]
 800444e:	f023 0370 	bic.w	r3, r3, #112	; 0x70
 8004452:	60fb      	str	r3, [r7, #12]
    tmpcr1 |= Structure->CounterMode;
 8004454:	683b      	ldr	r3, [r7, #0]
 8004456:	685b      	ldr	r3, [r3, #4]
 8004458:	68fa      	ldr	r2, [r7, #12]
 800445a:	4313      	orrs	r3, r2
 800445c:	60fb      	str	r3, [r7, #12]
  }

  if (IS_TIM_CLOCK_DIVISION_INSTANCE(TIMx))
 800445e:	687b      	ldr	r3, [r7, #4]
 8004460:	4a2f      	ldr	r2, [pc, #188]	; (8004520 <TIM_Base_SetConfig+0x114>)
 8004462:	4293      	cmp	r3, r2
 8004464:	d02b      	beq.n	80044be <TIM_Base_SetConfig+0xb2>
 8004466:	687b      	ldr	r3, [r7, #4]
 8004468:	f1b3 4f80 	cmp.w	r3, #1073741824	; 0x40000000
 800446c:	d027      	beq.n	80044be <TIM_Base_SetConfig+0xb2>
 800446e:	687b      	ldr	r3, [r7, #4]
 8004470:	4a2c      	ldr	r2, [pc, #176]	; (8004524 <TIM_Base_SetConfig+0x118>)
 8004472:	4293      	cmp	r3, r2
 8004474:	d023      	beq.n	80044be <TIM_Base_SetConfig+0xb2>
 8004476:	687b      	ldr	r3, [r7, #4]
 8004478:	4a2b      	ldr	r2, [pc, #172]	; (8004528 <TIM_Base_SetConfig+0x11c>)
 800447a:	4293      	cmp	r3, r2
 800447c:	d01f      	beq.n	80044be <TIM_Base_SetConfig+0xb2>
 800447e:	687b      	ldr	r3, [r7, #4]
 8004480:	4a2a      	ldr	r2, [pc, #168]	; (800452c <TIM_Base_SetConfig+0x120>)
 8004482:	4293      	cmp	r3, r2
 8004484:	d01b      	beq.n	80044be <TIM_Base_SetConfig+0xb2>
 8004486:	687b      	ldr	r3, [r7, #4]
 8004488:	4a29      	ldr	r2, [pc, #164]	; (8004530 <TIM_Base_SetConfig+0x124>)
 800448a:	4293      	cmp	r3, r2
 800448c:	d017      	beq.n	80044be <TIM_Base_SetConfig+0xb2>
 800448e:	687b      	ldr	r3, [r7, #4]
 8004490:	4a28      	ldr	r2, [pc, #160]	; (8004534 <TIM_Base_SetConfig+0x128>)
 8004492:	4293      	cmp	r3, r2
 8004494:	d013      	beq.n	80044be <TIM_Base_SetConfig+0xb2>
 8004496:	687b      	ldr	r3, [r7, #4]
 8004498:	4a27      	ldr	r2, [pc, #156]	; (8004538 <TIM_Base_SetConfig+0x12c>)
 800449a:	4293      	cmp	r3, r2
 800449c:	d00f      	beq.n	80044be <TIM_Base_SetConfig+0xb2>
 800449e:	687b      	ldr	r3, [r7, #4]
 80044a0:	4a26      	ldr	r2, [pc, #152]	; (800453c <TIM_Base_SetConfig+0x130>)
 80044a2:	4293      	cmp	r3, r2
 80044a4:	d00b      	beq.n	80044be <TIM_Base_SetConfig+0xb2>
 80044a6:	687b      	ldr	r3, [r7, #4]
 80044a8:	4a25      	ldr	r2, [pc, #148]	; (8004540 <TIM_Base_SetConfig+0x134>)
 80044aa:	4293      	cmp	r3, r2
 80044ac:	d007      	beq.n	80044be <TIM_Base_SetConfig+0xb2>
 80044ae:	687b      	ldr	r3, [r7, #4]
 80044b0:	4a24      	ldr	r2, [pc, #144]	; (8004544 <TIM_Base_SetConfig+0x138>)
 80044b2:	4293      	cmp	r3, r2
 80044b4:	d003      	beq.n	80044be <TIM_Base_SetConfig+0xb2>
 80044b6:	687b      	ldr	r3, [r7, #4]
 80044b8:	4a23      	ldr	r2, [pc, #140]	; (8004548 <TIM_Base_SetConfig+0x13c>)
 80044ba:	4293      	cmp	r3, r2
 80044bc:	d108      	bne.n	80044d0 <TIM_Base_SetConfig+0xc4>
  {
    /* Set the clock division */
    tmpcr1 &= ~TIM_CR1_CKD;
 80044be:	68fb      	ldr	r3, [r7, #12]
 80044c0:	f423 7340 	bic.w	r3, r3, #768	; 0x300
 80044c4:	60fb      	str	r3, [r7, #12]
    tmpcr1 |= (uint32_t)Structure->ClockDivision;
 80044c6:	683b      	ldr	r3, [r7, #0]
 80044c8:	68db      	ldr	r3, [r3, #12]
 80044ca:	68fa      	ldr	r2, [r7, #12]
 80044cc:	4313      	orrs	r3, r2
 80044ce:	60fb      	str	r3, [r7, #12]
  }

  /* Set the auto-reload preload */
  MODIFY_REG(tmpcr1, TIM_CR1_ARPE, Structure->AutoReloadPreload);
 80044d0:	68fb      	ldr	r3, [r7, #12]
 80044d2:	f023 0280 	bic.w	r2, r3, #128	; 0x80
 80044d6:	683b      	ldr	r3, [r7, #0]
 80044d8:	695b      	ldr	r3, [r3, #20]
 80044da:	4313      	orrs	r3, r2
 80044dc:	60fb      	str	r3, [r7, #12]

  TIMx->CR1 = tmpcr1;
 80044de:	687b      	ldr	r3, [r7, #4]
 80044e0:	68fa      	ldr	r2, [r7, #12]
 80044e2:	601a      	str	r2, [r3, #0]

  /* Set the Autoreload value */
  TIMx->ARR = (uint32_t)Structure->Period ;
 80044e4:	683b      	ldr	r3, [r7, #0]
 80044e6:	689a      	ldr	r2, [r3, #8]
 80044e8:	687b      	ldr	r3, [r7, #4]
 80044ea:	62da      	str	r2, [r3, #44]	; 0x2c

  /* Set the Prescaler value */
  TIMx->PSC = Structure->Prescaler;
 80044ec:	683b      	ldr	r3, [r7, #0]
 80044ee:	681a      	ldr	r2, [r3, #0]
 80044f0:	687b      	ldr	r3, [r7, #4]
 80044f2:	629a      	str	r2, [r3, #40]	; 0x28

  if (IS_TIM_REPETITION_COUNTER_INSTANCE(TIMx))
 80044f4:	687b      	ldr	r3, [r7, #4]
 80044f6:	4a0a      	ldr	r2, [pc, #40]	; (8004520 <TIM_Base_SetConfig+0x114>)
 80044f8:	4293      	cmp	r3, r2
 80044fa:	d003      	beq.n	8004504 <TIM_Base_SetConfig+0xf8>
 80044fc:	687b      	ldr	r3, [r7, #4]
 80044fe:	4a0c      	ldr	r2, [pc, #48]	; (8004530 <TIM_Base_SetConfig+0x124>)
 8004500:	4293      	cmp	r3, r2
 8004502:	d103      	bne.n	800450c <TIM_Base_SetConfig+0x100>
  {
    /* Set the Repetition Counter value */
    TIMx->RCR = Structure->RepetitionCounter;
 8004504:	683b      	ldr	r3, [r7, #0]
 8004506:	691a      	ldr	r2, [r3, #16]
 8004508:	687b      	ldr	r3, [r7, #4]
 800450a:	631a      	str	r2, [r3, #48]	; 0x30
  }

  /* Generate an update event to reload the Prescaler
     and the repetition counter (only for advanced timer) value immediately */
  TIMx->EGR = TIM_EGR_UG;
 800450c:	687b      	ldr	r3, [r7, #4]
 800450e:	2201      	movs	r2, #1
 8004510:	615a      	str	r2, [r3, #20]
}
 8004512:	bf00      	nop
 8004514:	3714      	adds	r7, #20
 8004516:	46bd      	mov	sp, r7
 8004518:	f85d 7b04 	ldr.w	r7, [sp], #4
 800451c:	4770      	bx	lr
 800451e:	bf00      	nop
 8004520:	40010000 	.word	0x40010000
 8004524:	40000400 	.word	0x40000400
 8004528:	40000800 	.word	0x40000800
 800452c:	40000c00 	.word	0x40000c00
 8004530:	40010400 	.word	0x40010400
 8004534:	40014000 	.word	0x40014000
 8004538:	40014400 	.word	0x40014400
 800453c:	40014800 	.word	0x40014800
 8004540:	40001800 	.word	0x40001800
 8004544:	40001c00 	.word	0x40001c00
 8004548:	40002000 	.word	0x40002000

0800454c <TIM_OC1_SetConfig>:
  * @param  TIMx to select the TIM peripheral
  * @param  OC_Config The output configuration structure
  * @retval None
  */
static void TIM_OC1_SetConfig(TIM_TypeDef *TIMx, TIM_OC_InitTypeDef *OC_Config)
{
 800454c:	b480      	push	{r7}
 800454e:	b087      	sub	sp, #28
 8004550:	af00      	add	r7, sp, #0
 8004552:	6078      	str	r0, [r7, #4]
 8004554:	6039      	str	r1, [r7, #0]
  uint32_t tmpccmrx;
  uint32_t tmpccer;
  uint32_t tmpcr2;

  /* Disable the Channel 1: Reset the CC1E Bit */
  TIMx->CCER &= ~TIM_CCER_CC1E;
 8004556:	687b      	ldr	r3, [r7, #4]
 8004558:	6a1b      	ldr	r3, [r3, #32]
 800455a:	f023 0201 	bic.w	r2, r3, #1
 800455e:	687b      	ldr	r3, [r7, #4]
 8004560:	621a      	str	r2, [r3, #32]

  /* Get the TIMx CCER register value */
  tmpccer = TIMx->CCER;
 8004562:	687b      	ldr	r3, [r7, #4]
 8004564:	6a1b      	ldr	r3, [r3, #32]
 8004566:	617b      	str	r3, [r7, #20]
  /* Get the TIMx CR2 register value */
  tmpcr2 =  TIMx->CR2;
 8004568:	687b      	ldr	r3, [r7, #4]
 800456a:	685b      	ldr	r3, [r3, #4]
 800456c:	613b      	str	r3, [r7, #16]

  /* Get the TIMx CCMR1 register value */
  tmpccmrx = TIMx->CCMR1;
 800456e:	687b      	ldr	r3, [r7, #4]
 8004570:	699b      	ldr	r3, [r3, #24]
 8004572:	60fb      	str	r3, [r7, #12]

  /* Reset the Output Compare Mode Bits */
  tmpccmrx &= ~TIM_CCMR1_OC1M;
 8004574:	68fb      	ldr	r3, [r7, #12]
 8004576:	f023 0370 	bic.w	r3, r3, #112	; 0x70
 800457a:	60fb      	str	r3, [r7, #12]
  tmpccmrx &= ~TIM_CCMR1_CC1S;
 800457c:	68fb      	ldr	r3, [r7, #12]
 800457e:	f023 0303 	bic.w	r3, r3, #3
 8004582:	60fb      	str	r3, [r7, #12]
  /* Select the Output Compare Mode */
  tmpccmrx |= OC_Config->OCMode;
 8004584:	683b      	ldr	r3, [r7, #0]
 8004586:	681b      	ldr	r3, [r3, #0]
 8004588:	68fa      	ldr	r2, [r7, #12]
 800458a:	4313      	orrs	r3, r2
 800458c:	60fb      	str	r3, [r7, #12]

  /* Reset the Output Polarity level */
  tmpccer &= ~TIM_CCER_CC1P;
 800458e:	697b      	ldr	r3, [r7, #20]
 8004590:	f023 0302 	bic.w	r3, r3, #2
 8004594:	617b      	str	r3, [r7, #20]
  /* Set the Output Compare Polarity */
  tmpccer |= OC_Config->OCPolarity;
 8004596:	683b      	ldr	r3, [r7, #0]
 8004598:	689b      	ldr	r3, [r3, #8]
 800459a:	697a      	ldr	r2, [r7, #20]
 800459c:	4313      	orrs	r3, r2
 800459e:	617b      	str	r3, [r7, #20]

  if (IS_TIM_CCXN_INSTANCE(TIMx, TIM_CHANNEL_1))
 80045a0:	687b      	ldr	r3, [r7, #4]
 80045a2:	4a20      	ldr	r2, [pc, #128]	; (8004624 <TIM_OC1_SetConfig+0xd8>)
 80045a4:	4293      	cmp	r3, r2
 80045a6:	d003      	beq.n	80045b0 <TIM_OC1_SetConfig+0x64>
 80045a8:	687b      	ldr	r3, [r7, #4]
 80045aa:	4a1f      	ldr	r2, [pc, #124]	; (8004628 <TIM_OC1_SetConfig+0xdc>)
 80045ac:	4293      	cmp	r3, r2
 80045ae:	d10c      	bne.n	80045ca <TIM_OC1_SetConfig+0x7e>
  {
    /* Check parameters */
    assert_param(IS_TIM_OCN_POLARITY(OC_Config->OCNPolarity));

    /* Reset the Output N Polarity level */
    tmpccer &= ~TIM_CCER_CC1NP;
 80045b0:	697b      	ldr	r3, [r7, #20]
 80045b2:	f023 0308 	bic.w	r3, r3, #8
 80045b6:	617b      	str	r3, [r7, #20]
    /* Set the Output N Polarity */
    tmpccer |= OC_Config->OCNPolarity;
 80045b8:	683b      	ldr	r3, [r7, #0]
 80045ba:	68db      	ldr	r3, [r3, #12]
 80045bc:	697a      	ldr	r2, [r7, #20]
 80045be:	4313      	orrs	r3, r2
 80045c0:	617b      	str	r3, [r7, #20]
    /* Reset the Output N State */
    tmpccer &= ~TIM_CCER_CC1NE;
 80045c2:	697b      	ldr	r3, [r7, #20]
 80045c4:	f023 0304 	bic.w	r3, r3, #4
 80045c8:	617b      	str	r3, [r7, #20]
  }

  if (IS_TIM_BREAK_INSTANCE(TIMx))
 80045ca:	687b      	ldr	r3, [r7, #4]
 80045cc:	4a15      	ldr	r2, [pc, #84]	; (8004624 <TIM_OC1_SetConfig+0xd8>)
 80045ce:	4293      	cmp	r3, r2
 80045d0:	d003      	beq.n	80045da <TIM_OC1_SetConfig+0x8e>
 80045d2:	687b      	ldr	r3, [r7, #4]
 80045d4:	4a14      	ldr	r2, [pc, #80]	; (8004628 <TIM_OC1_SetConfig+0xdc>)
 80045d6:	4293      	cmp	r3, r2
 80045d8:	d111      	bne.n	80045fe <TIM_OC1_SetConfig+0xb2>
    /* Check parameters */
    assert_param(IS_TIM_OCNIDLE_STATE(OC_Config->OCNIdleState));
    assert_param(IS_TIM_OCIDLE_STATE(OC_Config->OCIdleState));

    /* Reset the Output Compare and Output Compare N IDLE State */
    tmpcr2 &= ~TIM_CR2_OIS1;
 80045da:	693b      	ldr	r3, [r7, #16]
 80045dc:	f423 7380 	bic.w	r3, r3, #256	; 0x100
 80045e0:	613b      	str	r3, [r7, #16]
    tmpcr2 &= ~TIM_CR2_OIS1N;
 80045e2:	693b      	ldr	r3, [r7, #16]
 80045e4:	f423 7300 	bic.w	r3, r3, #512	; 0x200
 80045e8:	613b      	str	r3, [r7, #16]
    /* Set the Output Idle state */
    tmpcr2 |= OC_Config->OCIdleState;
 80045ea:	683b      	ldr	r3, [r7, #0]
 80045ec:	695b      	ldr	r3, [r3, #20]
 80045ee:	693a      	ldr	r2, [r7, #16]
 80045f0:	4313      	orrs	r3, r2
 80045f2:	613b      	str	r3, [r7, #16]
    /* Set the Output N Idle state */
    tmpcr2 |= OC_Config->OCNIdleState;
 80045f4:	683b      	ldr	r3, [r7, #0]
 80045f6:	699b      	ldr	r3, [r3, #24]
 80045f8:	693a      	ldr	r2, [r7, #16]
 80045fa:	4313      	orrs	r3, r2
 80045fc:	613b      	str	r3, [r7, #16]
  }

  /* Write to TIMx CR2 */
  TIMx->CR2 = tmpcr2;
 80045fe:	687b      	ldr	r3, [r7, #4]
 8004600:	693a      	ldr	r2, [r7, #16]
 8004602:	605a      	str	r2, [r3, #4]

  /* Write to TIMx CCMR1 */
  TIMx->CCMR1 = tmpccmrx;
 8004604:	687b      	ldr	r3, [r7, #4]
 8004606:	68fa      	ldr	r2, [r7, #12]
 8004608:	619a      	str	r2, [r3, #24]

  /* Set the Capture Compare Register value */
  TIMx->CCR1 = OC_Config->Pulse;
 800460a:	683b      	ldr	r3, [r7, #0]
 800460c:	685a      	ldr	r2, [r3, #4]
 800460e:	687b      	ldr	r3, [r7, #4]
 8004610:	635a      	str	r2, [r3, #52]	; 0x34

  /* Write to TIMx CCER */
  TIMx->CCER = tmpccer;
 8004612:	687b      	ldr	r3, [r7, #4]
 8004614:	697a      	ldr	r2, [r7, #20]
 8004616:	621a      	str	r2, [r3, #32]
}
 8004618:	bf00      	nop
 800461a:	371c      	adds	r7, #28
 800461c:	46bd      	mov	sp, r7
 800461e:	f85d 7b04 	ldr.w	r7, [sp], #4
 8004622:	4770      	bx	lr
 8004624:	40010000 	.word	0x40010000
 8004628:	40010400 	.word	0x40010400

0800462c <TIM_OC2_SetConfig>:
  * @param  TIMx to select the TIM peripheral
  * @param  OC_Config The output configuration structure
  * @retval None
  */
void TIM_OC2_SetConfig(TIM_TypeDef *TIMx, TIM_OC_InitTypeDef *OC_Config)
{
 800462c:	b480      	push	{r7}
 800462e:	b087      	sub	sp, #28
 8004630:	af00      	add	r7, sp, #0
 8004632:	6078      	str	r0, [r7, #4]
 8004634:	6039      	str	r1, [r7, #0]
  uint32_t tmpccmrx;
  uint32_t tmpccer;
  uint32_t tmpcr2;

  /* Disable the Channel 2: Reset the CC2E Bit */
  TIMx->CCER &= ~TIM_CCER_CC2E;
 8004636:	687b      	ldr	r3, [r7, #4]
 8004638:	6a1b      	ldr	r3, [r3, #32]
 800463a:	f023 0210 	bic.w	r2, r3, #16
 800463e:	687b      	ldr	r3, [r7, #4]
 8004640:	621a      	str	r2, [r3, #32]

  /* Get the TIMx CCER register value */
  tmpccer = TIMx->CCER;
 8004642:	687b      	ldr	r3, [r7, #4]
 8004644:	6a1b      	ldr	r3, [r3, #32]
 8004646:	617b      	str	r3, [r7, #20]
  /* Get the TIMx CR2 register value */
  tmpcr2 =  TIMx->CR2;
 8004648:	687b      	ldr	r3, [r7, #4]
 800464a:	685b      	ldr	r3, [r3, #4]
 800464c:	613b      	str	r3, [r7, #16]

  /* Get the TIMx CCMR1 register value */
  tmpccmrx = TIMx->CCMR1;
 800464e:	687b      	ldr	r3, [r7, #4]
 8004650:	699b      	ldr	r3, [r3, #24]
 8004652:	60fb      	str	r3, [r7, #12]

  /* Reset the Output Compare mode and Capture/Compare selection Bits */
  tmpccmrx &= ~TIM_CCMR1_OC2M;
 8004654:	68fb      	ldr	r3, [r7, #12]
 8004656:	f423 43e0 	bic.w	r3, r3, #28672	; 0x7000
 800465a:	60fb      	str	r3, [r7, #12]
  tmpccmrx &= ~TIM_CCMR1_CC2S;
 800465c:	68fb      	ldr	r3, [r7, #12]
 800465e:	f423 7340 	bic.w	r3, r3, #768	; 0x300
 8004662:	60fb      	str	r3, [r7, #12]

  /* Select the Output Compare Mode */
  tmpccmrx |= (OC_Config->OCMode << 8U);
 8004664:	683b      	ldr	r3, [r7, #0]
 8004666:	681b      	ldr	r3, [r3, #0]
 8004668:	021b      	lsls	r3, r3, #8
 800466a:	68fa      	ldr	r2, [r7, #12]
 800466c:	4313      	orrs	r3, r2
 800466e:	60fb      	str	r3, [r7, #12]

  /* Reset the Output Polarity level */
  tmpccer &= ~TIM_CCER_CC2P;
 8004670:	697b      	ldr	r3, [r7, #20]
 8004672:	f023 0320 	bic.w	r3, r3, #32
 8004676:	617b      	str	r3, [r7, #20]
  /* Set the Output Compare Polarity */
  tmpccer |= (OC_Config->OCPolarity << 4U);
 8004678:	683b      	ldr	r3, [r7, #0]
 800467a:	689b      	ldr	r3, [r3, #8]
 800467c:	011b      	lsls	r3, r3, #4
 800467e:	697a      	ldr	r2, [r7, #20]
 8004680:	4313      	orrs	r3, r2
 8004682:	617b      	str	r3, [r7, #20]

  if (IS_TIM_CCXN_INSTANCE(TIMx, TIM_CHANNEL_2))
 8004684:	687b      	ldr	r3, [r7, #4]
 8004686:	4a22      	ldr	r2, [pc, #136]	; (8004710 <TIM_OC2_SetConfig+0xe4>)
 8004688:	4293      	cmp	r3, r2
 800468a:	d003      	beq.n	8004694 <TIM_OC2_SetConfig+0x68>
 800468c:	687b      	ldr	r3, [r7, #4]
 800468e:	4a21      	ldr	r2, [pc, #132]	; (8004714 <TIM_OC2_SetConfig+0xe8>)
 8004690:	4293      	cmp	r3, r2
 8004692:	d10d      	bne.n	80046b0 <TIM_OC2_SetConfig+0x84>
  {
    assert_param(IS_TIM_OCN_POLARITY(OC_Config->OCNPolarity));

    /* Reset the Output N Polarity level */
    tmpccer &= ~TIM_CCER_CC2NP;
 8004694:	697b      	ldr	r3, [r7, #20]
 8004696:	f023 0380 	bic.w	r3, r3, #128	; 0x80
 800469a:	617b      	str	r3, [r7, #20]
    /* Set the Output N Polarity */
    tmpccer |= (OC_Config->OCNPolarity << 4U);
 800469c:	683b      	ldr	r3, [r7, #0]
 800469e:	68db      	ldr	r3, [r3, #12]
 80046a0:	011b      	lsls	r3, r3, #4
 80046a2:	697a      	ldr	r2, [r7, #20]
 80046a4:	4313      	orrs	r3, r2
 80046a6:	617b      	str	r3, [r7, #20]
    /* Reset the Output N State */
    tmpccer &= ~TIM_CCER_CC2NE;
 80046a8:	697b      	ldr	r3, [r7, #20]
 80046aa:	f023 0340 	bic.w	r3, r3, #64	; 0x40
 80046ae:	617b      	str	r3, [r7, #20]

  }

  if (IS_TIM_BREAK_INSTANCE(TIMx))
 80046b0:	687b      	ldr	r3, [r7, #4]
 80046b2:	4a17      	ldr	r2, [pc, #92]	; (8004710 <TIM_OC2_SetConfig+0xe4>)
 80046b4:	4293      	cmp	r3, r2
 80046b6:	d003      	beq.n	80046c0 <TIM_OC2_SetConfig+0x94>
 80046b8:	687b      	ldr	r3, [r7, #4]
 80046ba:	4a16      	ldr	r2, [pc, #88]	; (8004714 <TIM_OC2_SetConfig+0xe8>)
 80046bc:	4293      	cmp	r3, r2
 80046be:	d113      	bne.n	80046e8 <TIM_OC2_SetConfig+0xbc>
    /* Check parameters */
    assert_param(IS_TIM_OCNIDLE_STATE(OC_Config->OCNIdleState));
    assert_param(IS_TIM_OCIDLE_STATE(OC_Config->OCIdleState));

    /* Reset the Output Compare and Output Compare N IDLE State */
    tmpcr2 &= ~TIM_CR2_OIS2;
 80046c0:	693b      	ldr	r3, [r7, #16]
 80046c2:	f423 6380 	bic.w	r3, r3, #1024	; 0x400
 80046c6:	613b      	str	r3, [r7, #16]
    tmpcr2 &= ~TIM_CR2_OIS2N;
 80046c8:	693b      	ldr	r3, [r7, #16]
 80046ca:	f423 6300 	bic.w	r3, r3, #2048	; 0x800
 80046ce:	613b      	str	r3, [r7, #16]
    /* Set the Output Idle state */
    tmpcr2 |= (OC_Config->OCIdleState << 2U);
 80046d0:	683b      	ldr	r3, [r7, #0]
 80046d2:	695b      	ldr	r3, [r3, #20]
 80046d4:	009b      	lsls	r3, r3, #2
 80046d6:	693a      	ldr	r2, [r7, #16]
 80046d8:	4313      	orrs	r3, r2
 80046da:	613b      	str	r3, [r7, #16]
    /* Set the Output N Idle state */
    tmpcr2 |= (OC_Config->OCNIdleState << 2U);
 80046dc:	683b      	ldr	r3, [r7, #0]
 80046de:	699b      	ldr	r3, [r3, #24]
 80046e0:	009b      	lsls	r3, r3, #2
 80046e2:	693a      	ldr	r2, [r7, #16]
 80046e4:	4313      	orrs	r3, r2
 80046e6:	613b      	str	r3, [r7, #16]
  }

  /* Write to TIMx CR2 */
  TIMx->CR2 = tmpcr2;
 80046e8:	687b      	ldr	r3, [r7, #4]
 80046ea:	693a      	ldr	r2, [r7, #16]
 80046ec:	605a      	str	r2, [r3, #4]

  /* Write to TIMx CCMR1 */
  TIMx->CCMR1 = tmpccmrx;
 80046ee:	687b      	ldr	r3, [r7, #4]
 80046f0:	68fa      	ldr	r2, [r7, #12]
 80046f2:	619a      	str	r2, [r3, #24]

  /* Set the Capture Compare Register value */
  TIMx->CCR2 = OC_Config->Pulse;
 80046f4:	683b      	ldr	r3, [r7, #0]
 80046f6:	685a      	ldr	r2, [r3, #4]
 80046f8:	687b      	ldr	r3, [r7, #4]
 80046fa:	639a      	str	r2, [r3, #56]	; 0x38

  /* Write to TIMx CCER */
  TIMx->CCER = tmpccer;
 80046fc:	687b      	ldr	r3, [r7, #4]
 80046fe:	697a      	ldr	r2, [r7, #20]
 8004700:	621a      	str	r2, [r3, #32]
}
 8004702:	bf00      	nop
 8004704:	371c      	adds	r7, #28
 8004706:	46bd      	mov	sp, r7
 8004708:	f85d 7b04 	ldr.w	r7, [sp], #4
 800470c:	4770      	bx	lr
 800470e:	bf00      	nop
 8004710:	40010000 	.word	0x40010000
 8004714:	40010400 	.word	0x40010400

08004718 <TIM_OC3_SetConfig>:
  * @param  TIMx to select the TIM peripheral
  * @param  OC_Config The output configuration structure
  * @retval None
  */
static void TIM_OC3_SetConfig(TIM_TypeDef *TIMx, TIM_OC_InitTypeDef *OC_Config)
{
 8004718:	b480      	push	{r7}
 800471a:	b087      	sub	sp, #28
 800471c:	af00      	add	r7, sp, #0
 800471e:	6078      	str	r0, [r7, #4]
 8004720:	6039      	str	r1, [r7, #0]
  uint32_t tmpccmrx;
  uint32_t tmpccer;
  uint32_t tmpcr2;

  /* Disable the Channel 3: Reset the CC2E Bit */
  TIMx->CCER &= ~TIM_CCER_CC3E;
 8004722:	687b      	ldr	r3, [r7, #4]
 8004724:	6a1b      	ldr	r3, [r3, #32]
 8004726:	f423 7280 	bic.w	r2, r3, #256	; 0x100
 800472a:	687b      	ldr	r3, [r7, #4]
 800472c:	621a      	str	r2, [r3, #32]

  /* Get the TIMx CCER register value */
  tmpccer = TIMx->CCER;
 800472e:	687b      	ldr	r3, [r7, #4]
 8004730:	6a1b      	ldr	r3, [r3, #32]
 8004732:	617b      	str	r3, [r7, #20]
  /* Get the TIMx CR2 register value */
  tmpcr2 =  TIMx->CR2;
 8004734:	687b      	ldr	r3, [r7, #4]
 8004736:	685b      	ldr	r3, [r3, #4]
 8004738:	613b      	str	r3, [r7, #16]

  /* Get the TIMx CCMR2 register value */
  tmpccmrx = TIMx->CCMR2;
 800473a:	687b      	ldr	r3, [r7, #4]
 800473c:	69db      	ldr	r3, [r3, #28]
 800473e:	60fb      	str	r3, [r7, #12]

  /* Reset the Output Compare mode and Capture/Compare selection Bits */
  tmpccmrx &= ~TIM_CCMR2_OC3M;
 8004740:	68fb      	ldr	r3, [r7, #12]
 8004742:	f023 0370 	bic.w	r3, r3, #112	; 0x70
 8004746:	60fb      	str	r3, [r7, #12]
  tmpccmrx &= ~TIM_CCMR2_CC3S;
 8004748:	68fb      	ldr	r3, [r7, #12]
 800474a:	f023 0303 	bic.w	r3, r3, #3
 800474e:	60fb      	str	r3, [r7, #12]
  /* Select the Output Compare Mode */
  tmpccmrx |= OC_Config->OCMode;
 8004750:	683b      	ldr	r3, [r7, #0]
 8004752:	681b      	ldr	r3, [r3, #0]
 8004754:	68fa      	ldr	r2, [r7, #12]
 8004756:	4313      	orrs	r3, r2
 8004758:	60fb      	str	r3, [r7, #12]

  /* Reset the Output Polarity level */
  tmpccer &= ~TIM_CCER_CC3P;
 800475a:	697b      	ldr	r3, [r7, #20]
 800475c:	f423 7300 	bic.w	r3, r3, #512	; 0x200
 8004760:	617b      	str	r3, [r7, #20]
  /* Set the Output Compare Polarity */
  tmpccer |= (OC_Config->OCPolarity << 8U);
 8004762:	683b      	ldr	r3, [r7, #0]
 8004764:	689b      	ldr	r3, [r3, #8]
 8004766:	021b      	lsls	r3, r3, #8
 8004768:	697a      	ldr	r2, [r7, #20]
 800476a:	4313      	orrs	r3, r2
 800476c:	617b      	str	r3, [r7, #20]

  if (IS_TIM_CCXN_INSTANCE(TIMx, TIM_CHANNEL_3))
 800476e:	687b      	ldr	r3, [r7, #4]
 8004770:	4a21      	ldr	r2, [pc, #132]	; (80047f8 <TIM_OC3_SetConfig+0xe0>)
 8004772:	4293      	cmp	r3, r2
 8004774:	d003      	beq.n	800477e <TIM_OC3_SetConfig+0x66>
 8004776:	687b      	ldr	r3, [r7, #4]
 8004778:	4a20      	ldr	r2, [pc, #128]	; (80047fc <TIM_OC3_SetConfig+0xe4>)
 800477a:	4293      	cmp	r3, r2
 800477c:	d10d      	bne.n	800479a <TIM_OC3_SetConfig+0x82>
  {
    assert_param(IS_TIM_OCN_POLARITY(OC_Config->OCNPolarity));

    /* Reset the Output N Polarity level */
    tmpccer &= ~TIM_CCER_CC3NP;
 800477e:	697b      	ldr	r3, [r7, #20]
 8004780:	f423 6300 	bic.w	r3, r3, #2048	; 0x800
 8004784:	617b      	str	r3, [r7, #20]
    /* Set the Output N Polarity */
    tmpccer |= (OC_Config->OCNPolarity << 8U);
 8004786:	683b      	ldr	r3, [r7, #0]
 8004788:	68db      	ldr	r3, [r3, #12]
 800478a:	021b      	lsls	r3, r3, #8
 800478c:	697a      	ldr	r2, [r7, #20]
 800478e:	4313      	orrs	r3, r2
 8004790:	617b      	str	r3, [r7, #20]
    /* Reset the Output N State */
    tmpccer &= ~TIM_CCER_CC3NE;
 8004792:	697b      	ldr	r3, [r7, #20]
 8004794:	f423 6380 	bic.w	r3, r3, #1024	; 0x400
 8004798:	617b      	str	r3, [r7, #20]
  }

  if (IS_TIM_BREAK_INSTANCE(TIMx))
 800479a:	687b      	ldr	r3, [r7, #4]
 800479c:	4a16      	ldr	r2, [pc, #88]	; (80047f8 <TIM_OC3_SetConfig+0xe0>)
 800479e:	4293      	cmp	r3, r2
 80047a0:	d003      	beq.n	80047aa <TIM_OC3_SetConfig+0x92>
 80047a2:	687b      	ldr	r3, [r7, #4]
 80047a4:	4a15      	ldr	r2, [pc, #84]	; (80047fc <TIM_OC3_SetConfig+0xe4>)
 80047a6:	4293      	cmp	r3, r2
 80047a8:	d113      	bne.n	80047d2 <TIM_OC3_SetConfig+0xba>
    /* Check parameters */
    assert_param(IS_TIM_OCNIDLE_STATE(OC_Config->OCNIdleState));
    assert_param(IS_TIM_OCIDLE_STATE(OC_Config->OCIdleState));

    /* Reset the Output Compare and Output Compare N IDLE State */
    tmpcr2 &= ~TIM_CR2_OIS3;
 80047aa:	693b      	ldr	r3, [r7, #16]
 80047ac:	f423 5380 	bic.w	r3, r3, #4096	; 0x1000
 80047b0:	613b      	str	r3, [r7, #16]
    tmpcr2 &= ~TIM_CR2_OIS3N;
 80047b2:	693b      	ldr	r3, [r7, #16]
 80047b4:	f423 5300 	bic.w	r3, r3, #8192	; 0x2000
 80047b8:	613b      	str	r3, [r7, #16]
    /* Set the Output Idle state */
    tmpcr2 |= (OC_Config->OCIdleState << 4U);
 80047ba:	683b      	ldr	r3, [r7, #0]
 80047bc:	695b      	ldr	r3, [r3, #20]
 80047be:	011b      	lsls	r3, r3, #4
 80047c0:	693a      	ldr	r2, [r7, #16]
 80047c2:	4313      	orrs	r3, r2
 80047c4:	613b      	str	r3, [r7, #16]
    /* Set the Output N Idle state */
    tmpcr2 |= (OC_Config->OCNIdleState << 4U);
 80047c6:	683b      	ldr	r3, [r7, #0]
 80047c8:	699b      	ldr	r3, [r3, #24]
 80047ca:	011b      	lsls	r3, r3, #4
 80047cc:	693a      	ldr	r2, [r7, #16]
 80047ce:	4313      	orrs	r3, r2
 80047d0:	613b      	str	r3, [r7, #16]
  }

  /* Write to TIMx CR2 */
  TIMx->CR2 = tmpcr2;
 80047d2:	687b      	ldr	r3, [r7, #4]
 80047d4:	693a      	ldr	r2, [r7, #16]
 80047d6:	605a      	str	r2, [r3, #4]

  /* Write to TIMx CCMR2 */
  TIMx->CCMR2 = tmpccmrx;
 80047d8:	687b      	ldr	r3, [r7, #4]
 80047da:	68fa      	ldr	r2, [r7, #12]
 80047dc:	61da      	str	r2, [r3, #28]

  /* Set the Capture Compare Register value */
  TIMx->CCR3 = OC_Config->Pulse;
 80047de:	683b      	ldr	r3, [r7, #0]
 80047e0:	685a      	ldr	r2, [r3, #4]
 80047e2:	687b      	ldr	r3, [r7, #4]
 80047e4:	63da      	str	r2, [r3, #60]	; 0x3c

  /* Write to TIMx CCER */
  TIMx->CCER = tmpccer;
 80047e6:	687b      	ldr	r3, [r7, #4]
 80047e8:	697a      	ldr	r2, [r7, #20]
 80047ea:	621a      	str	r2, [r3, #32]
}
 80047ec:	bf00      	nop
 80047ee:	371c      	adds	r7, #28
 80047f0:	46bd      	mov	sp, r7
 80047f2:	f85d 7b04 	ldr.w	r7, [sp], #4
 80047f6:	4770      	bx	lr
 80047f8:	40010000 	.word	0x40010000
 80047fc:	40010400 	.word	0x40010400

08004800 <TIM_OC4_SetConfig>:
  * @param  TIMx to select the TIM peripheral
  * @param  OC_Config The output configuration structure
  * @retval None
  */
static void TIM_OC4_SetConfig(TIM_TypeDef *TIMx, TIM_OC_InitTypeDef *OC_Config)
{
 8004800:	b480      	push	{r7}
 8004802:	b087      	sub	sp, #28
 8004804:	af00      	add	r7, sp, #0
 8004806:	6078      	str	r0, [r7, #4]
 8004808:	6039      	str	r1, [r7, #0]
  uint32_t tmpccmrx;
  uint32_t tmpccer;
  uint32_t tmpcr2;

  /* Disable the Channel 4: Reset the CC4E Bit */
  TIMx->CCER &= ~TIM_CCER_CC4E;
 800480a:	687b      	ldr	r3, [r7, #4]
 800480c:	6a1b      	ldr	r3, [r3, #32]
 800480e:	f423 5280 	bic.w	r2, r3, #4096	; 0x1000
 8004812:	687b      	ldr	r3, [r7, #4]
 8004814:	621a      	str	r2, [r3, #32]

  /* Get the TIMx CCER register value */
  tmpccer = TIMx->CCER;
 8004816:	687b      	ldr	r3, [r7, #4]
 8004818:	6a1b      	ldr	r3, [r3, #32]
 800481a:	613b      	str	r3, [r7, #16]
  /* Get the TIMx CR2 register value */
  tmpcr2 =  TIMx->CR2;
 800481c:	687b      	ldr	r3, [r7, #4]
 800481e:	685b      	ldr	r3, [r3, #4]
 8004820:	617b      	str	r3, [r7, #20]

  /* Get the TIMx CCMR2 register value */
  tmpccmrx = TIMx->CCMR2;
 8004822:	687b      	ldr	r3, [r7, #4]
 8004824:	69db      	ldr	r3, [r3, #28]
 8004826:	60fb      	str	r3, [r7, #12]

  /* Reset the Output Compare mode and Capture/Compare selection Bits */
  tmpccmrx &= ~TIM_CCMR2_OC4M;
 8004828:	68fb      	ldr	r3, [r7, #12]
 800482a:	f423 43e0 	bic.w	r3, r3, #28672	; 0x7000
 800482e:	60fb      	str	r3, [r7, #12]
  tmpccmrx &= ~TIM_CCMR2_CC4S;
 8004830:	68fb      	ldr	r3, [r7, #12]
 8004832:	f423 7340 	bic.w	r3, r3, #768	; 0x300
 8004836:	60fb      	str	r3, [r7, #12]

  /* Select the Output Compare Mode */
  tmpccmrx |= (OC_Config->OCMode << 8U);
 8004838:	683b      	ldr	r3, [r7, #0]
 800483a:	681b      	ldr	r3, [r3, #0]
 800483c:	021b      	lsls	r3, r3, #8
 800483e:	68fa      	ldr	r2, [r7, #12]
 8004840:	4313      	orrs	r3, r2
 8004842:	60fb      	str	r3, [r7, #12]

  /* Reset the Output Polarity level */
  tmpccer &= ~TIM_CCER_CC4P;
 8004844:	693b      	ldr	r3, [r7, #16]
 8004846:	f423 5300 	bic.w	r3, r3, #8192	; 0x2000
 800484a:	613b      	str	r3, [r7, #16]
  /* Set the Output Compare Polarity */
  tmpccer |= (OC_Config->OCPolarity << 12U);
 800484c:	683b      	ldr	r3, [r7, #0]
 800484e:	689b      	ldr	r3, [r3, #8]
 8004850:	031b      	lsls	r3, r3, #12
 8004852:	693a      	ldr	r2, [r7, #16]
 8004854:	4313      	orrs	r3, r2
 8004856:	613b      	str	r3, [r7, #16]

  if (IS_TIM_BREAK_INSTANCE(TIMx))
 8004858:	687b      	ldr	r3, [r7, #4]
 800485a:	4a12      	ldr	r2, [pc, #72]	; (80048a4 <TIM_OC4_SetConfig+0xa4>)
 800485c:	4293      	cmp	r3, r2
 800485e:	d003      	beq.n	8004868 <TIM_OC4_SetConfig+0x68>
 8004860:	687b      	ldr	r3, [r7, #4]
 8004862:	4a11      	ldr	r2, [pc, #68]	; (80048a8 <TIM_OC4_SetConfig+0xa8>)
 8004864:	4293      	cmp	r3, r2
 8004866:	d109      	bne.n	800487c <TIM_OC4_SetConfig+0x7c>
  {
    /* Check parameters */
    assert_param(IS_TIM_OCIDLE_STATE(OC_Config->OCIdleState));

    /* Reset the Output Compare IDLE State */
    tmpcr2 &= ~TIM_CR2_OIS4;
 8004868:	697b      	ldr	r3, [r7, #20]
 800486a:	f423 4380 	bic.w	r3, r3, #16384	; 0x4000
 800486e:	617b      	str	r3, [r7, #20]

    /* Set the Output Idle state */
    tmpcr2 |= (OC_Config->OCIdleState << 6U);
 8004870:	683b      	ldr	r3, [r7, #0]
 8004872:	695b      	ldr	r3, [r3, #20]
 8004874:	019b      	lsls	r3, r3, #6
 8004876:	697a      	ldr	r2, [r7, #20]
 8004878:	4313      	orrs	r3, r2
 800487a:	617b      	str	r3, [r7, #20]
  }

  /* Write to TIMx CR2 */
  TIMx->CR2 = tmpcr2;
 800487c:	687b      	ldr	r3, [r7, #4]
 800487e:	697a      	ldr	r2, [r7, #20]
 8004880:	605a      	str	r2, [r3, #4]

  /* Write to TIMx CCMR2 */
  TIMx->CCMR2 = tmpccmrx;
 8004882:	687b      	ldr	r3, [r7, #4]
 8004884:	68fa      	ldr	r2, [r7, #12]
 8004886:	61da      	str	r2, [r3, #28]

  /* Set the Capture Compare Register value */
  TIMx->CCR4 = OC_Config->Pulse;
 8004888:	683b      	ldr	r3, [r7, #0]
 800488a:	685a      	ldr	r2, [r3, #4]
 800488c:	687b      	ldr	r3, [r7, #4]
 800488e:	641a      	str	r2, [r3, #64]	; 0x40

  /* Write to TIMx CCER */
  TIMx->CCER = tmpccer;
 8004890:	687b      	ldr	r3, [r7, #4]
 8004892:	693a      	ldr	r2, [r7, #16]
 8004894:	621a      	str	r2, [r3, #32]
}
 8004896:	bf00      	nop
 8004898:	371c      	adds	r7, #28
 800489a:	46bd      	mov	sp, r7
 800489c:	f85d 7b04 	ldr.w	r7, [sp], #4
 80048a0:	4770      	bx	lr
 80048a2:	bf00      	nop
 80048a4:	40010000 	.word	0x40010000
 80048a8:	40010400 	.word	0x40010400

080048ac <TIM_TI1_SetConfig>:
  *       (on channel2 path) is used as the input signal. Therefore CCMR1 must be
  *        protected against un-initialized filter and polarity values.
  */
void TIM_TI1_SetConfig(TIM_TypeDef *TIMx, uint32_t TIM_ICPolarity, uint32_t TIM_ICSelection,
                       uint32_t TIM_ICFilter)
{
 80048ac:	b480      	push	{r7}
 80048ae:	b087      	sub	sp, #28
 80048b0:	af00      	add	r7, sp, #0
 80048b2:	60f8      	str	r0, [r7, #12]
 80048b4:	60b9      	str	r1, [r7, #8]
 80048b6:	607a      	str	r2, [r7, #4]
 80048b8:	603b      	str	r3, [r7, #0]
  uint32_t tmpccmr1;
  uint32_t tmpccer;

  /* Disable the Channel 1: Reset the CC1E Bit */
  TIMx->CCER &= ~TIM_CCER_CC1E;
 80048ba:	68fb      	ldr	r3, [r7, #12]
 80048bc:	6a1b      	ldr	r3, [r3, #32]
 80048be:	f023 0201 	bic.w	r2, r3, #1
 80048c2:	68fb      	ldr	r3, [r7, #12]
 80048c4:	621a      	str	r2, [r3, #32]
  tmpccmr1 = TIMx->CCMR1;
 80048c6:	68fb      	ldr	r3, [r7, #12]
 80048c8:	699b      	ldr	r3, [r3, #24]
 80048ca:	617b      	str	r3, [r7, #20]
  tmpccer = TIMx->CCER;
 80048cc:	68fb      	ldr	r3, [r7, #12]
 80048ce:	6a1b      	ldr	r3, [r3, #32]
 80048d0:	613b      	str	r3, [r7, #16]

  /* Select the Input */
  if (IS_TIM_CC2_INSTANCE(TIMx) != RESET)
 80048d2:	68fb      	ldr	r3, [r7, #12]
 80048d4:	4a28      	ldr	r2, [pc, #160]	; (8004978 <TIM_TI1_SetConfig+0xcc>)
 80048d6:	4293      	cmp	r3, r2
 80048d8:	d01b      	beq.n	8004912 <TIM_TI1_SetConfig+0x66>
 80048da:	68fb      	ldr	r3, [r7, #12]
 80048dc:	f1b3 4f80 	cmp.w	r3, #1073741824	; 0x40000000
 80048e0:	d017      	beq.n	8004912 <TIM_TI1_SetConfig+0x66>
 80048e2:	68fb      	ldr	r3, [r7, #12]
 80048e4:	4a25      	ldr	r2, [pc, #148]	; (800497c <TIM_TI1_SetConfig+0xd0>)
 80048e6:	4293      	cmp	r3, r2
 80048e8:	d013      	beq.n	8004912 <TIM_TI1_SetConfig+0x66>
 80048ea:	68fb      	ldr	r3, [r7, #12]
 80048ec:	4a24      	ldr	r2, [pc, #144]	; (8004980 <TIM_TI1_SetConfig+0xd4>)
 80048ee:	4293      	cmp	r3, r2
 80048f0:	d00f      	beq.n	8004912 <TIM_TI1_SetConfig+0x66>
 80048f2:	68fb      	ldr	r3, [r7, #12]
 80048f4:	4a23      	ldr	r2, [pc, #140]	; (8004984 <TIM_TI1_SetConfig+0xd8>)
 80048f6:	4293      	cmp	r3, r2
 80048f8:	d00b      	beq.n	8004912 <TIM_TI1_SetConfig+0x66>
 80048fa:	68fb      	ldr	r3, [r7, #12]
 80048fc:	4a22      	ldr	r2, [pc, #136]	; (8004988 <TIM_TI1_SetConfig+0xdc>)
 80048fe:	4293      	cmp	r3, r2
 8004900:	d007      	beq.n	8004912 <TIM_TI1_SetConfig+0x66>
 8004902:	68fb      	ldr	r3, [r7, #12]
 8004904:	4a21      	ldr	r2, [pc, #132]	; (800498c <TIM_TI1_SetConfig+0xe0>)
 8004906:	4293      	cmp	r3, r2
 8004908:	d003      	beq.n	8004912 <TIM_TI1_SetConfig+0x66>
 800490a:	68fb      	ldr	r3, [r7, #12]
 800490c:	4a20      	ldr	r2, [pc, #128]	; (8004990 <TIM_TI1_SetConfig+0xe4>)
 800490e:	4293      	cmp	r3, r2
 8004910:	d101      	bne.n	8004916 <TIM_TI1_SetConfig+0x6a>
 8004912:	2301      	movs	r3, #1
 8004914:	e000      	b.n	8004918 <TIM_TI1_SetConfig+0x6c>
 8004916:	2300      	movs	r3, #0
 8004918:	2b00      	cmp	r3, #0
 800491a:	d008      	beq.n	800492e <TIM_TI1_SetConfig+0x82>
  {
    tmpccmr1 &= ~TIM_CCMR1_CC1S;
 800491c:	697b      	ldr	r3, [r7, #20]
 800491e:	f023 0303 	bic.w	r3, r3, #3
 8004922:	617b      	str	r3, [r7, #20]
    tmpccmr1 |= TIM_ICSelection;
 8004924:	697a      	ldr	r2, [r7, #20]
 8004926:	687b      	ldr	r3, [r7, #4]
 8004928:	4313      	orrs	r3, r2
 800492a:	617b      	str	r3, [r7, #20]
 800492c:	e003      	b.n	8004936 <TIM_TI1_SetConfig+0x8a>
  }
  else
  {
    tmpccmr1 |= TIM_CCMR1_CC1S_0;
 800492e:	697b      	ldr	r3, [r7, #20]
 8004930:	f043 0301 	orr.w	r3, r3, #1
 8004934:	617b      	str	r3, [r7, #20]
  }

  /* Set the filter */
  tmpccmr1 &= ~TIM_CCMR1_IC1F;
 8004936:	697b      	ldr	r3, [r7, #20]
 8004938:	f023 03f0 	bic.w	r3, r3, #240	; 0xf0
 800493c:	617b      	str	r3, [r7, #20]
  tmpccmr1 |= ((TIM_ICFilter << 4U) & TIM_CCMR1_IC1F);
 800493e:	683b      	ldr	r3, [r7, #0]
 8004940:	011b      	lsls	r3, r3, #4
 8004942:	b2db      	uxtb	r3, r3
 8004944:	697a      	ldr	r2, [r7, #20]
 8004946:	4313      	orrs	r3, r2
 8004948:	617b      	str	r3, [r7, #20]

  /* Select the Polarity and set the CC1E Bit */
  tmpccer &= ~(TIM_CCER_CC1P | TIM_CCER_CC1NP);
 800494a:	693b      	ldr	r3, [r7, #16]
 800494c:	f023 030a 	bic.w	r3, r3, #10
 8004950:	613b      	str	r3, [r7, #16]
  tmpccer |= (TIM_ICPolarity & (TIM_CCER_CC1P | TIM_CCER_CC1NP));
 8004952:	68bb      	ldr	r3, [r7, #8]
 8004954:	f003 030a 	and.w	r3, r3, #10
 8004958:	693a      	ldr	r2, [r7, #16]
 800495a:	4313      	orrs	r3, r2
 800495c:	613b      	str	r3, [r7, #16]

  /* Write to TIMx CCMR1 and CCER registers */
  TIMx->CCMR1 = tmpccmr1;
 800495e:	68fb      	ldr	r3, [r7, #12]
 8004960:	697a      	ldr	r2, [r7, #20]
 8004962:	619a      	str	r2, [r3, #24]
  TIMx->CCER = tmpccer;
 8004964:	68fb      	ldr	r3, [r7, #12]
 8004966:	693a      	ldr	r2, [r7, #16]
 8004968:	621a      	str	r2, [r3, #32]
}
 800496a:	bf00      	nop
 800496c:	371c      	adds	r7, #28
 800496e:	46bd      	mov	sp, r7
 8004970:	f85d 7b04 	ldr.w	r7, [sp], #4
 8004974:	4770      	bx	lr
 8004976:	bf00      	nop
 8004978:	40010000 	.word	0x40010000
 800497c:	40000400 	.word	0x40000400
 8004980:	40000800 	.word	0x40000800
 8004984:	40000c00 	.word	0x40000c00
 8004988:	40010400 	.word	0x40010400
 800498c:	40014000 	.word	0x40014000
 8004990:	40001800 	.word	0x40001800

08004994 <TIM_TI1_ConfigInputStage>:
  * @param  TIM_ICFilter Specifies the Input Capture Filter.
  *          This parameter must be a value between 0x00 and 0x0F.
  * @retval None
  */
static void TIM_TI1_ConfigInputStage(TIM_TypeDef *TIMx, uint32_t TIM_ICPolarity, uint32_t TIM_ICFilter)
{
 8004994:	b480      	push	{r7}
 8004996:	b087      	sub	sp, #28
 8004998:	af00      	add	r7, sp, #0
 800499a:	60f8      	str	r0, [r7, #12]
 800499c:	60b9      	str	r1, [r7, #8]
 800499e:	607a      	str	r2, [r7, #4]
  uint32_t tmpccmr1;
  uint32_t tmpccer;

  /* Disable the Channel 1: Reset the CC1E Bit */
  tmpccer = TIMx->CCER;
 80049a0:	68fb      	ldr	r3, [r7, #12]
 80049a2:	6a1b      	ldr	r3, [r3, #32]
 80049a4:	617b      	str	r3, [r7, #20]
  TIMx->CCER &= ~TIM_CCER_CC1E;
 80049a6:	68fb      	ldr	r3, [r7, #12]
 80049a8:	6a1b      	ldr	r3, [r3, #32]
 80049aa:	f023 0201 	bic.w	r2, r3, #1
 80049ae:	68fb      	ldr	r3, [r7, #12]
 80049b0:	621a      	str	r2, [r3, #32]
  tmpccmr1 = TIMx->CCMR1;
 80049b2:	68fb      	ldr	r3, [r7, #12]
 80049b4:	699b      	ldr	r3, [r3, #24]
 80049b6:	613b      	str	r3, [r7, #16]

  /* Set the filter */
  tmpccmr1 &= ~TIM_CCMR1_IC1F;
 80049b8:	693b      	ldr	r3, [r7, #16]
 80049ba:	f023 03f0 	bic.w	r3, r3, #240	; 0xf0
 80049be:	613b      	str	r3, [r7, #16]
  tmpccmr1 |= (TIM_ICFilter << 4U);
 80049c0:	687b      	ldr	r3, [r7, #4]
 80049c2:	011b      	lsls	r3, r3, #4
 80049c4:	693a      	ldr	r2, [r7, #16]
 80049c6:	4313      	orrs	r3, r2
 80049c8:	613b      	str	r3, [r7, #16]

  /* Select the Polarity and set the CC1E Bit */
  tmpccer &= ~(TIM_CCER_CC1P | TIM_CCER_CC1NP);
 80049ca:	697b      	ldr	r3, [r7, #20]
 80049cc:	f023 030a 	bic.w	r3, r3, #10
 80049d0:	617b      	str	r3, [r7, #20]
  tmpccer |= TIM_ICPolarity;
 80049d2:	697a      	ldr	r2, [r7, #20]
 80049d4:	68bb      	ldr	r3, [r7, #8]
 80049d6:	4313      	orrs	r3, r2
 80049d8:	617b      	str	r3, [r7, #20]

  /* Write to TIMx CCMR1 and CCER registers */
  TIMx->CCMR1 = tmpccmr1;
 80049da:	68fb      	ldr	r3, [r7, #12]
 80049dc:	693a      	ldr	r2, [r7, #16]
 80049de:	619a      	str	r2, [r3, #24]
  TIMx->CCER = tmpccer;
 80049e0:	68fb      	ldr	r3, [r7, #12]
 80049e2:	697a      	ldr	r2, [r7, #20]
 80049e4:	621a      	str	r2, [r3, #32]
}
 80049e6:	bf00      	nop
 80049e8:	371c      	adds	r7, #28
 80049ea:	46bd      	mov	sp, r7
 80049ec:	f85d 7b04 	ldr.w	r7, [sp], #4
 80049f0:	4770      	bx	lr

080049f2 <TIM_TI2_SetConfig>:
  *       (on channel1 path) is used as the input signal. Therefore CCMR1 must be
  *        protected against un-initialized filter and polarity values.
  */
static void TIM_TI2_SetConfig(TIM_TypeDef *TIMx, uint32_t TIM_ICPolarity, uint32_t TIM_ICSelection,
                              uint32_t TIM_ICFilter)
{
 80049f2:	b480      	push	{r7}
 80049f4:	b087      	sub	sp, #28
 80049f6:	af00      	add	r7, sp, #0
 80049f8:	60f8      	str	r0, [r7, #12]
 80049fa:	60b9      	str	r1, [r7, #8]
 80049fc:	607a      	str	r2, [r7, #4]
 80049fe:	603b      	str	r3, [r7, #0]
  uint32_t tmpccmr1;
  uint32_t tmpccer;

  /* Disable the Channel 2: Reset the CC2E Bit */
  TIMx->CCER &= ~TIM_CCER_CC2E;
 8004a00:	68fb      	ldr	r3, [r7, #12]
 8004a02:	6a1b      	ldr	r3, [r3, #32]
 8004a04:	f023 0210 	bic.w	r2, r3, #16
 8004a08:	68fb      	ldr	r3, [r7, #12]
 8004a0a:	621a      	str	r2, [r3, #32]
  tmpccmr1 = TIMx->CCMR1;
 8004a0c:	68fb      	ldr	r3, [r7, #12]
 8004a0e:	699b      	ldr	r3, [r3, #24]
 8004a10:	617b      	str	r3, [r7, #20]
  tmpccer = TIMx->CCER;
 8004a12:	68fb      	ldr	r3, [r7, #12]
 8004a14:	6a1b      	ldr	r3, [r3, #32]
 8004a16:	613b      	str	r3, [r7, #16]

  /* Select the Input */
  tmpccmr1 &= ~TIM_CCMR1_CC2S;
 8004a18:	697b      	ldr	r3, [r7, #20]
 8004a1a:	f423 7340 	bic.w	r3, r3, #768	; 0x300
 8004a1e:	617b      	str	r3, [r7, #20]
  tmpccmr1 |= (TIM_ICSelection << 8U);
 8004a20:	687b      	ldr	r3, [r7, #4]
 8004a22:	021b      	lsls	r3, r3, #8
 8004a24:	697a      	ldr	r2, [r7, #20]
 8004a26:	4313      	orrs	r3, r2
 8004a28:	617b      	str	r3, [r7, #20]

  /* Set the filter */
  tmpccmr1 &= ~TIM_CCMR1_IC2F;
 8004a2a:	697b      	ldr	r3, [r7, #20]
 8004a2c:	f423 4370 	bic.w	r3, r3, #61440	; 0xf000
 8004a30:	617b      	str	r3, [r7, #20]
  tmpccmr1 |= ((TIM_ICFilter << 12U) & TIM_CCMR1_IC2F);
 8004a32:	683b      	ldr	r3, [r7, #0]
 8004a34:	031b      	lsls	r3, r3, #12
 8004a36:	b29b      	uxth	r3, r3
 8004a38:	697a      	ldr	r2, [r7, #20]
 8004a3a:	4313      	orrs	r3, r2
 8004a3c:	617b      	str	r3, [r7, #20]

  /* Select the Polarity and set the CC2E Bit */
  tmpccer &= ~(TIM_CCER_CC2P | TIM_CCER_CC2NP);
 8004a3e:	693b      	ldr	r3, [r7, #16]
 8004a40:	f023 03a0 	bic.w	r3, r3, #160	; 0xa0
 8004a44:	613b      	str	r3, [r7, #16]
  tmpccer |= ((TIM_ICPolarity << 4U) & (TIM_CCER_CC2P | TIM_CCER_CC2NP));
 8004a46:	68bb      	ldr	r3, [r7, #8]
 8004a48:	011b      	lsls	r3, r3, #4
 8004a4a:	f003 03a0 	and.w	r3, r3, #160	; 0xa0
 8004a4e:	693a      	ldr	r2, [r7, #16]
 8004a50:	4313      	orrs	r3, r2
 8004a52:	613b      	str	r3, [r7, #16]

  /* Write to TIMx CCMR1 and CCER registers */
  TIMx->CCMR1 = tmpccmr1 ;
 8004a54:	68fb      	ldr	r3, [r7, #12]
 8004a56:	697a      	ldr	r2, [r7, #20]
 8004a58:	619a      	str	r2, [r3, #24]
  TIMx->CCER = tmpccer;
 8004a5a:	68fb      	ldr	r3, [r7, #12]
 8004a5c:	693a      	ldr	r2, [r7, #16]
 8004a5e:	621a      	str	r2, [r3, #32]
}
 8004a60:	bf00      	nop
 8004a62:	371c      	adds	r7, #28
 8004a64:	46bd      	mov	sp, r7
 8004a66:	f85d 7b04 	ldr.w	r7, [sp], #4
 8004a6a:	4770      	bx	lr

08004a6c <TIM_TI2_ConfigInputStage>:
  * @param  TIM_ICFilter Specifies the Input Capture Filter.
  *          This parameter must be a value between 0x00 and 0x0F.
  * @retval None
  */
static void TIM_TI2_ConfigInputStage(TIM_TypeDef *TIMx, uint32_t TIM_ICPolarity, uint32_t TIM_ICFilter)
{
 8004a6c:	b480      	push	{r7}
 8004a6e:	b087      	sub	sp, #28
 8004a70:	af00      	add	r7, sp, #0
 8004a72:	60f8      	str	r0, [r7, #12]
 8004a74:	60b9      	str	r1, [r7, #8]
 8004a76:	607a      	str	r2, [r7, #4]
  uint32_t tmpccmr1;
  uint32_t tmpccer;

  /* Disable the Channel 2: Reset the CC2E Bit */
  TIMx->CCER &= ~TIM_CCER_CC2E;
 8004a78:	68fb      	ldr	r3, [r7, #12]
 8004a7a:	6a1b      	ldr	r3, [r3, #32]
 8004a7c:	f023 0210 	bic.w	r2, r3, #16
 8004a80:	68fb      	ldr	r3, [r7, #12]
 8004a82:	621a      	str	r2, [r3, #32]
  tmpccmr1 = TIMx->CCMR1;
 8004a84:	68fb      	ldr	r3, [r7, #12]
 8004a86:	699b      	ldr	r3, [r3, #24]
 8004a88:	617b      	str	r3, [r7, #20]
  tmpccer = TIMx->CCER;
 8004a8a:	68fb      	ldr	r3, [r7, #12]
 8004a8c:	6a1b      	ldr	r3, [r3, #32]
 8004a8e:	613b      	str	r3, [r7, #16]

  /* Set the filter */
  tmpccmr1 &= ~TIM_CCMR1_IC2F;
 8004a90:	697b      	ldr	r3, [r7, #20]
 8004a92:	f423 4370 	bic.w	r3, r3, #61440	; 0xf000
 8004a96:	617b      	str	r3, [r7, #20]
  tmpccmr1 |= (TIM_ICFilter << 12U);
 8004a98:	687b      	ldr	r3, [r7, #4]
 8004a9a:	031b      	lsls	r3, r3, #12
 8004a9c:	697a      	ldr	r2, [r7, #20]
 8004a9e:	4313      	orrs	r3, r2
 8004aa0:	617b      	str	r3, [r7, #20]

  /* Select the Polarity and set the CC2E Bit */
  tmpccer &= ~(TIM_CCER_CC2P | TIM_CCER_CC2NP);
 8004aa2:	693b      	ldr	r3, [r7, #16]
 8004aa4:	f023 03a0 	bic.w	r3, r3, #160	; 0xa0
 8004aa8:	613b      	str	r3, [r7, #16]
  tmpccer |= (TIM_ICPolarity << 4U);
 8004aaa:	68bb      	ldr	r3, [r7, #8]
 8004aac:	011b      	lsls	r3, r3, #4
 8004aae:	693a      	ldr	r2, [r7, #16]
 8004ab0:	4313      	orrs	r3, r2
 8004ab2:	613b      	str	r3, [r7, #16]

  /* Write to TIMx CCMR1 and CCER registers */
  TIMx->CCMR1 = tmpccmr1 ;
 8004ab4:	68fb      	ldr	r3, [r7, #12]
 8004ab6:	697a      	ldr	r2, [r7, #20]
 8004ab8:	619a      	str	r2, [r3, #24]
  TIMx->CCER = tmpccer;
 8004aba:	68fb      	ldr	r3, [r7, #12]
 8004abc:	693a      	ldr	r2, [r7, #16]
 8004abe:	621a      	str	r2, [r3, #32]
}
 8004ac0:	bf00      	nop
 8004ac2:	371c      	adds	r7, #28
 8004ac4:	46bd      	mov	sp, r7
 8004ac6:	f85d 7b04 	ldr.w	r7, [sp], #4
 8004aca:	4770      	bx	lr

08004acc <TIM_TI3_SetConfig>:
  *       (on channel1 path) is used as the input signal. Therefore CCMR2 must be
  *        protected against un-initialized filter and polarity values.
  */
static void TIM_TI3_SetConfig(TIM_TypeDef *TIMx, uint32_t TIM_ICPolarity, uint32_t TIM_ICSelection,
                              uint32_t TIM_ICFilter)
{
 8004acc:	b480      	push	{r7}
 8004ace:	b087      	sub	sp, #28
 8004ad0:	af00      	add	r7, sp, #0
 8004ad2:	60f8      	str	r0, [r7, #12]
 8004ad4:	60b9      	str	r1, [r7, #8]
 8004ad6:	607a      	str	r2, [r7, #4]
 8004ad8:	603b      	str	r3, [r7, #0]
  uint32_t tmpccmr2;
  uint32_t tmpccer;

  /* Disable the Channel 3: Reset the CC3E Bit */
  TIMx->CCER &= ~TIM_CCER_CC3E;
 8004ada:	68fb      	ldr	r3, [r7, #12]
 8004adc:	6a1b      	ldr	r3, [r3, #32]
 8004ade:	f423 7280 	bic.w	r2, r3, #256	; 0x100
 8004ae2:	68fb      	ldr	r3, [r7, #12]
 8004ae4:	621a      	str	r2, [r3, #32]
  tmpccmr2 = TIMx->CCMR2;
 8004ae6:	68fb      	ldr	r3, [r7, #12]
 8004ae8:	69db      	ldr	r3, [r3, #28]
 8004aea:	617b      	str	r3, [r7, #20]
  tmpccer = TIMx->CCER;
 8004aec:	68fb      	ldr	r3, [r7, #12]
 8004aee:	6a1b      	ldr	r3, [r3, #32]
 8004af0:	613b      	str	r3, [r7, #16]

  /* Select the Input */
  tmpccmr2 &= ~TIM_CCMR2_CC3S;
 8004af2:	697b      	ldr	r3, [r7, #20]
 8004af4:	f023 0303 	bic.w	r3, r3, #3
 8004af8:	617b      	str	r3, [r7, #20]
  tmpccmr2 |= TIM_ICSelection;
 8004afa:	697a      	ldr	r2, [r7, #20]
 8004afc:	687b      	ldr	r3, [r7, #4]
 8004afe:	4313      	orrs	r3, r2
 8004b00:	617b      	str	r3, [r7, #20]

  /* Set the filter */
  tmpccmr2 &= ~TIM_CCMR2_IC3F;
 8004b02:	697b      	ldr	r3, [r7, #20]
 8004b04:	f023 03f0 	bic.w	r3, r3, #240	; 0xf0
 8004b08:	617b      	str	r3, [r7, #20]
  tmpccmr2 |= ((TIM_ICFilter << 4U) & TIM_CCMR2_IC3F);
 8004b0a:	683b      	ldr	r3, [r7, #0]
 8004b0c:	011b      	lsls	r3, r3, #4
 8004b0e:	b2db      	uxtb	r3, r3
 8004b10:	697a      	ldr	r2, [r7, #20]
 8004b12:	4313      	orrs	r3, r2
 8004b14:	617b      	str	r3, [r7, #20]

  /* Select the Polarity and set the CC3E Bit */
  tmpccer &= ~(TIM_CCER_CC3P | TIM_CCER_CC3NP);
 8004b16:	693b      	ldr	r3, [r7, #16]
 8004b18:	f423 6320 	bic.w	r3, r3, #2560	; 0xa00
 8004b1c:	613b      	str	r3, [r7, #16]
  tmpccer |= ((TIM_ICPolarity << 8U) & (TIM_CCER_CC3P | TIM_CCER_CC3NP));
 8004b1e:	68bb      	ldr	r3, [r7, #8]
 8004b20:	021b      	lsls	r3, r3, #8
 8004b22:	f403 6320 	and.w	r3, r3, #2560	; 0xa00
 8004b26:	693a      	ldr	r2, [r7, #16]
 8004b28:	4313      	orrs	r3, r2
 8004b2a:	613b      	str	r3, [r7, #16]

  /* Write to TIMx CCMR2 and CCER registers */
  TIMx->CCMR2 = tmpccmr2;
 8004b2c:	68fb      	ldr	r3, [r7, #12]
 8004b2e:	697a      	ldr	r2, [r7, #20]
 8004b30:	61da      	str	r2, [r3, #28]
  TIMx->CCER = tmpccer;
 8004b32:	68fb      	ldr	r3, [r7, #12]
 8004b34:	693a      	ldr	r2, [r7, #16]
 8004b36:	621a      	str	r2, [r3, #32]
}
 8004b38:	bf00      	nop
 8004b3a:	371c      	adds	r7, #28
 8004b3c:	46bd      	mov	sp, r7
 8004b3e:	f85d 7b04 	ldr.w	r7, [sp], #4
 8004b42:	4770      	bx	lr

08004b44 <TIM_TI4_SetConfig>:
  *        protected against un-initialized filter and polarity values.
  * @retval None
  */
static void TIM_TI4_SetConfig(TIM_TypeDef *TIMx, uint32_t TIM_ICPolarity, uint32_t TIM_ICSelection,
                              uint32_t TIM_ICFilter)
{
 8004b44:	b480      	push	{r7}
 8004b46:	b087      	sub	sp, #28
 8004b48:	af00      	add	r7, sp, #0
 8004b4a:	60f8      	str	r0, [r7, #12]
 8004b4c:	60b9      	str	r1, [r7, #8]
 8004b4e:	607a      	str	r2, [r7, #4]
 8004b50:	603b      	str	r3, [r7, #0]
  uint32_t tmpccmr2;
  uint32_t tmpccer;

  /* Disable the Channel 4: Reset the CC4E Bit */
  TIMx->CCER &= ~TIM_CCER_CC4E;
 8004b52:	68fb      	ldr	r3, [r7, #12]
 8004b54:	6a1b      	ldr	r3, [r3, #32]
 8004b56:	f423 5280 	bic.w	r2, r3, #4096	; 0x1000
 8004b5a:	68fb      	ldr	r3, [r7, #12]
 8004b5c:	621a      	str	r2, [r3, #32]
  tmpccmr2 = TIMx->CCMR2;
 8004b5e:	68fb      	ldr	r3, [r7, #12]
 8004b60:	69db      	ldr	r3, [r3, #28]
 8004b62:	617b      	str	r3, [r7, #20]
  tmpccer = TIMx->CCER;
 8004b64:	68fb      	ldr	r3, [r7, #12]
 8004b66:	6a1b      	ldr	r3, [r3, #32]
 8004b68:	613b      	str	r3, [r7, #16]

  /* Select the Input */
  tmpccmr2 &= ~TIM_CCMR2_CC4S;
 8004b6a:	697b      	ldr	r3, [r7, #20]
 8004b6c:	f423 7340 	bic.w	r3, r3, #768	; 0x300
 8004b70:	617b      	str	r3, [r7, #20]
  tmpccmr2 |= (TIM_ICSelection << 8U);
 8004b72:	687b      	ldr	r3, [r7, #4]
 8004b74:	021b      	lsls	r3, r3, #8
 8004b76:	697a      	ldr	r2, [r7, #20]
 8004b78:	4313      	orrs	r3, r2
 8004b7a:	617b      	str	r3, [r7, #20]

  /* Set the filter */
  tmpccmr2 &= ~TIM_CCMR2_IC4F;
 8004b7c:	697b      	ldr	r3, [r7, #20]
 8004b7e:	f423 4370 	bic.w	r3, r3, #61440	; 0xf000
 8004b82:	617b      	str	r3, [r7, #20]
  tmpccmr2 |= ((TIM_ICFilter << 12U) & TIM_CCMR2_IC4F);
 8004b84:	683b      	ldr	r3, [r7, #0]
 8004b86:	031b      	lsls	r3, r3, #12
 8004b88:	b29b      	uxth	r3, r3
 8004b8a:	697a      	ldr	r2, [r7, #20]
 8004b8c:	4313      	orrs	r3, r2
 8004b8e:	617b      	str	r3, [r7, #20]

  /* Select the Polarity and set the CC4E Bit */
  tmpccer &= ~(TIM_CCER_CC4P | TIM_CCER_CC4NP);
 8004b90:	693b      	ldr	r3, [r7, #16]
 8004b92:	f423 4320 	bic.w	r3, r3, #40960	; 0xa000
 8004b96:	613b      	str	r3, [r7, #16]
  tmpccer |= ((TIM_ICPolarity << 12U) & (TIM_CCER_CC4P | TIM_CCER_CC4NP));
 8004b98:	68bb      	ldr	r3, [r7, #8]
 8004b9a:	031b      	lsls	r3, r3, #12
 8004b9c:	f403 4320 	and.w	r3, r3, #40960	; 0xa000
 8004ba0:	693a      	ldr	r2, [r7, #16]
 8004ba2:	4313      	orrs	r3, r2
 8004ba4:	613b      	str	r3, [r7, #16]

  /* Write to TIMx CCMR2 and CCER registers */
  TIMx->CCMR2 = tmpccmr2;
 8004ba6:	68fb      	ldr	r3, [r7, #12]
 8004ba8:	697a      	ldr	r2, [r7, #20]
 8004baa:	61da      	str	r2, [r3, #28]
  TIMx->CCER = tmpccer ;
 8004bac:	68fb      	ldr	r3, [r7, #12]
 8004bae:	693a      	ldr	r2, [r7, #16]
 8004bb0:	621a      	str	r2, [r3, #32]
}
 8004bb2:	bf00      	nop
 8004bb4:	371c      	adds	r7, #28
 8004bb6:	46bd      	mov	sp, r7
 8004bb8:	f85d 7b04 	ldr.w	r7, [sp], #4
 8004bbc:	4770      	bx	lr

08004bbe <TIM_ITRx_SetConfig>:
  *            @arg TIM_TS_TI2FP2: Filtered Timer Input 2
  *            @arg TIM_TS_ETRF: External Trigger input
  * @retval None
  */
static void TIM_ITRx_SetConfig(TIM_TypeDef *TIMx, uint32_t InputTriggerSource)
{
 8004bbe:	b480      	push	{r7}
 8004bc0:	b085      	sub	sp, #20
 8004bc2:	af00      	add	r7, sp, #0
 8004bc4:	6078      	str	r0, [r7, #4]
 8004bc6:	6039      	str	r1, [r7, #0]
  uint32_t tmpsmcr;

  /* Get the TIMx SMCR register value */
  tmpsmcr = TIMx->SMCR;
 8004bc8:	687b      	ldr	r3, [r7, #4]
 8004bca:	689b      	ldr	r3, [r3, #8]
 8004bcc:	60fb      	str	r3, [r7, #12]
  /* Reset the TS Bits */
  tmpsmcr &= ~TIM_SMCR_TS;
 8004bce:	68fb      	ldr	r3, [r7, #12]
 8004bd0:	f023 0370 	bic.w	r3, r3, #112	; 0x70
 8004bd4:	60fb      	str	r3, [r7, #12]
  /* Set the Input Trigger source and the slave mode*/
  tmpsmcr |= (InputTriggerSource | TIM_SLAVEMODE_EXTERNAL1);
 8004bd6:	683a      	ldr	r2, [r7, #0]
 8004bd8:	68fb      	ldr	r3, [r7, #12]
 8004bda:	4313      	orrs	r3, r2
 8004bdc:	f043 0307 	orr.w	r3, r3, #7
 8004be0:	60fb      	str	r3, [r7, #12]
  /* Write to TIMx SMCR */
  TIMx->SMCR = tmpsmcr;
 8004be2:	687b      	ldr	r3, [r7, #4]
 8004be4:	68fa      	ldr	r2, [r7, #12]
 8004be6:	609a      	str	r2, [r3, #8]
}
 8004be8:	bf00      	nop
 8004bea:	3714      	adds	r7, #20
 8004bec:	46bd      	mov	sp, r7
 8004bee:	f85d 7b04 	ldr.w	r7, [sp], #4
 8004bf2:	4770      	bx	lr

08004bf4 <TIM_ETR_SetConfig>:
  *          This parameter must be a value between 0x00 and 0x0F
  * @retval None
  */
void TIM_ETR_SetConfig(TIM_TypeDef *TIMx, uint32_t TIM_ExtTRGPrescaler,
                       uint32_t TIM_ExtTRGPolarity, uint32_t ExtTRGFilter)
{
 8004bf4:	b480      	push	{r7}
 8004bf6:	b087      	sub	sp, #28
 8004bf8:	af00      	add	r7, sp, #0
 8004bfa:	60f8      	str	r0, [r7, #12]
 8004bfc:	60b9      	str	r1, [r7, #8]
 8004bfe:	607a      	str	r2, [r7, #4]
 8004c00:	603b      	str	r3, [r7, #0]
  uint32_t tmpsmcr;

  tmpsmcr = TIMx->SMCR;
 8004c02:	68fb      	ldr	r3, [r7, #12]
 8004c04:	689b      	ldr	r3, [r3, #8]
 8004c06:	617b      	str	r3, [r7, #20]

  /* Reset the ETR Bits */
  tmpsmcr &= ~(TIM_SMCR_ETF | TIM_SMCR_ETPS | TIM_SMCR_ECE | TIM_SMCR_ETP);
 8004c08:	697b      	ldr	r3, [r7, #20]
 8004c0a:	f423 437f 	bic.w	r3, r3, #65280	; 0xff00
 8004c0e:	617b      	str	r3, [r7, #20]

  /* Set the Prescaler, the Filter value and the Polarity */
  tmpsmcr |= (uint32_t)(TIM_ExtTRGPrescaler | (TIM_ExtTRGPolarity | (ExtTRGFilter << 8U)));
 8004c10:	683b      	ldr	r3, [r7, #0]
 8004c12:	021a      	lsls	r2, r3, #8
 8004c14:	687b      	ldr	r3, [r7, #4]
 8004c16:	431a      	orrs	r2, r3
 8004c18:	68bb      	ldr	r3, [r7, #8]
 8004c1a:	4313      	orrs	r3, r2
 8004c1c:	697a      	ldr	r2, [r7, #20]
 8004c1e:	4313      	orrs	r3, r2
 8004c20:	617b      	str	r3, [r7, #20]

  /* Write to TIMx SMCR */
  TIMx->SMCR = tmpsmcr;
 8004c22:	68fb      	ldr	r3, [r7, #12]
 8004c24:	697a      	ldr	r2, [r7, #20]
 8004c26:	609a      	str	r2, [r3, #8]
}
 8004c28:	bf00      	nop
 8004c2a:	371c      	adds	r7, #28
 8004c2c:	46bd      	mov	sp, r7
 8004c2e:	f85d 7b04 	ldr.w	r7, [sp], #4
 8004c32:	4770      	bx	lr

08004c34 <TIM_CCxChannelCmd>:
  * @param  ChannelState specifies the TIM Channel CCxE bit new state.
  *          This parameter can be: TIM_CCx_ENABLE or TIM_CCx_DISABLE.
  * @retval None
  */
void TIM_CCxChannelCmd(TIM_TypeDef *TIMx, uint32_t Channel, uint32_t ChannelState)
{
 8004c34:	b480      	push	{r7}
 8004c36:	b087      	sub	sp, #28
 8004c38:	af00      	add	r7, sp, #0
 8004c3a:	60f8      	str	r0, [r7, #12]
 8004c3c:	60b9      	str	r1, [r7, #8]
 8004c3e:	607a      	str	r2, [r7, #4]

  /* Check the parameters */
  assert_param(IS_TIM_CC1_INSTANCE(TIMx));
  assert_param(IS_TIM_CHANNELS(Channel));

  tmp = TIM_CCER_CC1E << (Channel & 0x1FU); /* 0x1FU = 31 bits max shift */
 8004c40:	68bb      	ldr	r3, [r7, #8]
 8004c42:	f003 031f 	and.w	r3, r3, #31
 8004c46:	2201      	movs	r2, #1
 8004c48:	fa02 f303 	lsl.w	r3, r2, r3
 8004c4c:	617b      	str	r3, [r7, #20]

  /* Reset the CCxE Bit */
  TIMx->CCER &= ~tmp;
 8004c4e:	68fb      	ldr	r3, [r7, #12]
 8004c50:	6a1a      	ldr	r2, [r3, #32]
 8004c52:	697b      	ldr	r3, [r7, #20]
 8004c54:	43db      	mvns	r3, r3
 8004c56:	401a      	ands	r2, r3
 8004c58:	68fb      	ldr	r3, [r7, #12]
 8004c5a:	621a      	str	r2, [r3, #32]

  /* Set or reset the CCxE Bit */
  TIMx->CCER |= (uint32_t)(ChannelState << (Channel & 0x1FU)); /* 0x1FU = 31 bits max shift */
 8004c5c:	68fb      	ldr	r3, [r7, #12]
 8004c5e:	6a1a      	ldr	r2, [r3, #32]
 8004c60:	68bb      	ldr	r3, [r7, #8]
 8004c62:	f003 031f 	and.w	r3, r3, #31
 8004c66:	6879      	ldr	r1, [r7, #4]
 8004c68:	fa01 f303 	lsl.w	r3, r1, r3
 8004c6c:	431a      	orrs	r2, r3
 8004c6e:	68fb      	ldr	r3, [r7, #12]
 8004c70:	621a      	str	r2, [r3, #32]
}
 8004c72:	bf00      	nop
 8004c74:	371c      	adds	r7, #28
 8004c76:	46bd      	mov	sp, r7
 8004c78:	f85d 7b04 	ldr.w	r7, [sp], #4
 8004c7c:	4770      	bx	lr
	...

08004c80 <HAL_TIMEx_MasterConfigSynchronization>:
  *         mode.
  * @retval HAL status
  */
HAL_StatusTypeDef HAL_TIMEx_MasterConfigSynchronization(TIM_HandleTypeDef *htim,
                                                        TIM_MasterConfigTypeDef *sMasterConfig)
{
 8004c80:	b480      	push	{r7}
 8004c82:	b085      	sub	sp, #20
 8004c84:	af00      	add	r7, sp, #0
 8004c86:	6078      	str	r0, [r7, #4]
 8004c88:	6039      	str	r1, [r7, #0]
  assert_param(IS_TIM_MASTER_INSTANCE(htim->Instance));
  assert_param(IS_TIM_TRGO_SOURCE(sMasterConfig->MasterOutputTrigger));
  assert_param(IS_TIM_MSM_STATE(sMasterConfig->MasterSlaveMode));

  /* Check input state */
  __HAL_LOCK(htim);
 8004c8a:	687b      	ldr	r3, [r7, #4]
 8004c8c:	f893 303c 	ldrb.w	r3, [r3, #60]	; 0x3c
 8004c90:	2b01      	cmp	r3, #1
 8004c92:	d101      	bne.n	8004c98 <HAL_TIMEx_MasterConfigSynchronization+0x18>
 8004c94:	2302      	movs	r3, #2
 8004c96:	e05a      	b.n	8004d4e <HAL_TIMEx_MasterConfigSynchronization+0xce>
 8004c98:	687b      	ldr	r3, [r7, #4]
 8004c9a:	2201      	movs	r2, #1
 8004c9c:	f883 203c 	strb.w	r2, [r3, #60]	; 0x3c

  /* Change the handler state */
  htim->State = HAL_TIM_STATE_BUSY;
 8004ca0:	687b      	ldr	r3, [r7, #4]
 8004ca2:	2202      	movs	r2, #2
 8004ca4:	f883 203d 	strb.w	r2, [r3, #61]	; 0x3d

  /* Get the TIMx CR2 register value */
  tmpcr2 = htim->Instance->CR2;
 8004ca8:	687b      	ldr	r3, [r7, #4]
 8004caa:	681b      	ldr	r3, [r3, #0]
 8004cac:	685b      	ldr	r3, [r3, #4]
 8004cae:	60fb      	str	r3, [r7, #12]

  /* Get the TIMx SMCR register value */
  tmpsmcr = htim->Instance->SMCR;
 8004cb0:	687b      	ldr	r3, [r7, #4]
 8004cb2:	681b      	ldr	r3, [r3, #0]
 8004cb4:	689b      	ldr	r3, [r3, #8]
 8004cb6:	60bb      	str	r3, [r7, #8]

  /* Reset the MMS Bits */
  tmpcr2 &= ~TIM_CR2_MMS;
 8004cb8:	68fb      	ldr	r3, [r7, #12]
 8004cba:	f023 0370 	bic.w	r3, r3, #112	; 0x70
 8004cbe:	60fb      	str	r3, [r7, #12]
  /* Select the TRGO source */
  tmpcr2 |=  sMasterConfig->MasterOutputTrigger;
 8004cc0:	683b      	ldr	r3, [r7, #0]
 8004cc2:	681b      	ldr	r3, [r3, #0]
 8004cc4:	68fa      	ldr	r2, [r7, #12]
 8004cc6:	4313      	orrs	r3, r2
 8004cc8:	60fb      	str	r3, [r7, #12]

  /* Update TIMx CR2 */
  htim->Instance->CR2 = tmpcr2;
 8004cca:	687b      	ldr	r3, [r7, #4]
 8004ccc:	681b      	ldr	r3, [r3, #0]
 8004cce:	68fa      	ldr	r2, [r7, #12]
 8004cd0:	605a      	str	r2, [r3, #4]

  if (IS_TIM_SLAVE_INSTANCE(htim->Instance))
 8004cd2:	687b      	ldr	r3, [r7, #4]
 8004cd4:	681b      	ldr	r3, [r3, #0]
 8004cd6:	4a21      	ldr	r2, [pc, #132]	; (8004d5c <HAL_TIMEx_MasterConfigSynchronization+0xdc>)
 8004cd8:	4293      	cmp	r3, r2
 8004cda:	d022      	beq.n	8004d22 <HAL_TIMEx_MasterConfigSynchronization+0xa2>
 8004cdc:	687b      	ldr	r3, [r7, #4]
 8004cde:	681b      	ldr	r3, [r3, #0]
 8004ce0:	f1b3 4f80 	cmp.w	r3, #1073741824	; 0x40000000
 8004ce4:	d01d      	beq.n	8004d22 <HAL_TIMEx_MasterConfigSynchronization+0xa2>
 8004ce6:	687b      	ldr	r3, [r7, #4]
 8004ce8:	681b      	ldr	r3, [r3, #0]
 8004cea:	4a1d      	ldr	r2, [pc, #116]	; (8004d60 <HAL_TIMEx_MasterConfigSynchronization+0xe0>)
 8004cec:	4293      	cmp	r3, r2
 8004cee:	d018      	beq.n	8004d22 <HAL_TIMEx_MasterConfigSynchronization+0xa2>
 8004cf0:	687b      	ldr	r3, [r7, #4]
 8004cf2:	681b      	ldr	r3, [r3, #0]
 8004cf4:	4a1b      	ldr	r2, [pc, #108]	; (8004d64 <HAL_TIMEx_MasterConfigSynchronization+0xe4>)
 8004cf6:	4293      	cmp	r3, r2
 8004cf8:	d013      	beq.n	8004d22 <HAL_TIMEx_MasterConfigSynchronization+0xa2>
 8004cfa:	687b      	ldr	r3, [r7, #4]
 8004cfc:	681b      	ldr	r3, [r3, #0]
 8004cfe:	4a1a      	ldr	r2, [pc, #104]	; (8004d68 <HAL_TIMEx_MasterConfigSynchronization+0xe8>)
 8004d00:	4293      	cmp	r3, r2
 8004d02:	d00e      	beq.n	8004d22 <HAL_TIMEx_MasterConfigSynchronization+0xa2>
 8004d04:	687b      	ldr	r3, [r7, #4]
 8004d06:	681b      	ldr	r3, [r3, #0]
 8004d08:	4a18      	ldr	r2, [pc, #96]	; (8004d6c <HAL_TIMEx_MasterConfigSynchronization+0xec>)
 8004d0a:	4293      	cmp	r3, r2
 8004d0c:	d009      	beq.n	8004d22 <HAL_TIMEx_MasterConfigSynchronization+0xa2>
 8004d0e:	687b      	ldr	r3, [r7, #4]
 8004d10:	681b      	ldr	r3, [r3, #0]
 8004d12:	4a17      	ldr	r2, [pc, #92]	; (8004d70 <HAL_TIMEx_MasterConfigSynchronization+0xf0>)
 8004d14:	4293      	cmp	r3, r2
 8004d16:	d004      	beq.n	8004d22 <HAL_TIMEx_MasterConfigSynchronization+0xa2>
 8004d18:	687b      	ldr	r3, [r7, #4]
 8004d1a:	681b      	ldr	r3, [r3, #0]
 8004d1c:	4a15      	ldr	r2, [pc, #84]	; (8004d74 <HAL_TIMEx_MasterConfigSynchronization+0xf4>)
 8004d1e:	4293      	cmp	r3, r2
 8004d20:	d10c      	bne.n	8004d3c <HAL_TIMEx_MasterConfigSynchronization+0xbc>
  {
    /* Reset the MSM Bit */
    tmpsmcr &= ~TIM_SMCR_MSM;
 8004d22:	68bb      	ldr	r3, [r7, #8]
 8004d24:	f023 0380 	bic.w	r3, r3, #128	; 0x80
 8004d28:	60bb      	str	r3, [r7, #8]
    /* Set master mode */
    tmpsmcr |= sMasterConfig->MasterSlaveMode;
 8004d2a:	683b      	ldr	r3, [r7, #0]
 8004d2c:	685b      	ldr	r3, [r3, #4]
 8004d2e:	68ba      	ldr	r2, [r7, #8]
 8004d30:	4313      	orrs	r3, r2
 8004d32:	60bb      	str	r3, [r7, #8]

    /* Update TIMx SMCR */
    htim->Instance->SMCR = tmpsmcr;
 8004d34:	687b      	ldr	r3, [r7, #4]
 8004d36:	681b      	ldr	r3, [r3, #0]
 8004d38:	68ba      	ldr	r2, [r7, #8]
 8004d3a:	609a      	str	r2, [r3, #8]
  }

  /* Change the htim state */
  htim->State = HAL_TIM_STATE_READY;
 8004d3c:	687b      	ldr	r3, [r7, #4]
 8004d3e:	2201      	movs	r2, #1
 8004d40:	f883 203d 	strb.w	r2, [r3, #61]	; 0x3d

  __HAL_UNLOCK(htim);
 8004d44:	687b      	ldr	r3, [r7, #4]
 8004d46:	2200      	movs	r2, #0
 8004d48:	f883 203c 	strb.w	r2, [r3, #60]	; 0x3c

  return HAL_OK;
 8004d4c:	2300      	movs	r3, #0
}
 8004d4e:	4618      	mov	r0, r3
 8004d50:	3714      	adds	r7, #20
 8004d52:	46bd      	mov	sp, r7
 8004d54:	f85d 7b04 	ldr.w	r7, [sp], #4
 8004d58:	4770      	bx	lr
 8004d5a:	bf00      	nop
 8004d5c:	40010000 	.word	0x40010000
 8004d60:	40000400 	.word	0x40000400
 8004d64:	40000800 	.word	0x40000800
 8004d68:	40000c00 	.word	0x40000c00
 8004d6c:	40010400 	.word	0x40010400
 8004d70:	40014000 	.word	0x40014000
 8004d74:	40001800 	.word	0x40001800

08004d78 <HAL_TIMEx_ConfigBreakDeadTime>:
  *         interrupt can be enabled by calling the @ref __HAL_TIM_ENABLE_IT macro.
  * @retval HAL status
  */
HAL_StatusTypeDef HAL_TIMEx_ConfigBreakDeadTime(TIM_HandleTypeDef *htim,
                                                TIM_BreakDeadTimeConfigTypeDef *sBreakDeadTimeConfig)
{
 8004d78:	b480      	push	{r7}
 8004d7a:	b085      	sub	sp, #20
 8004d7c:	af00      	add	r7, sp, #0
 8004d7e:	6078      	str	r0, [r7, #4]
 8004d80:	6039      	str	r1, [r7, #0]
  /* Keep this variable initialized to 0 as it is used to configure BDTR register */
  uint32_t tmpbdtr = 0U;
 8004d82:	2300      	movs	r3, #0
 8004d84:	60fb      	str	r3, [r7, #12]
  assert_param(IS_TIM_BREAK_STATE(sBreakDeadTimeConfig->BreakState));
  assert_param(IS_TIM_BREAK_POLARITY(sBreakDeadTimeConfig->BreakPolarity));
  assert_param(IS_TIM_AUTOMATIC_OUTPUT_STATE(sBreakDeadTimeConfig->AutomaticOutput));

  /* Check input state */
  __HAL_LOCK(htim);
 8004d86:	687b      	ldr	r3, [r7, #4]
 8004d88:	f893 303c 	ldrb.w	r3, [r3, #60]	; 0x3c
 8004d8c:	2b01      	cmp	r3, #1
 8004d8e:	d101      	bne.n	8004d94 <HAL_TIMEx_ConfigBreakDeadTime+0x1c>
 8004d90:	2302      	movs	r3, #2
 8004d92:	e03d      	b.n	8004e10 <HAL_TIMEx_ConfigBreakDeadTime+0x98>
 8004d94:	687b      	ldr	r3, [r7, #4]
 8004d96:	2201      	movs	r2, #1
 8004d98:	f883 203c 	strb.w	r2, [r3, #60]	; 0x3c

  /* Set the Lock level, the Break enable Bit and the Polarity, the OSSR State,
     the OSSI State, the dead time value and the Automatic Output Enable Bit */

  /* Set the BDTR bits */
  MODIFY_REG(tmpbdtr, TIM_BDTR_DTG, sBreakDeadTimeConfig->DeadTime);
 8004d9c:	68fb      	ldr	r3, [r7, #12]
 8004d9e:	f023 02ff 	bic.w	r2, r3, #255	; 0xff
 8004da2:	683b      	ldr	r3, [r7, #0]
 8004da4:	68db      	ldr	r3, [r3, #12]
 8004da6:	4313      	orrs	r3, r2
 8004da8:	60fb      	str	r3, [r7, #12]
  MODIFY_REG(tmpbdtr, TIM_BDTR_LOCK, sBreakDeadTimeConfig->LockLevel);
 8004daa:	68fb      	ldr	r3, [r7, #12]
 8004dac:	f423 7240 	bic.w	r2, r3, #768	; 0x300
 8004db0:	683b      	ldr	r3, [r7, #0]
 8004db2:	689b      	ldr	r3, [r3, #8]
 8004db4:	4313      	orrs	r3, r2
 8004db6:	60fb      	str	r3, [r7, #12]
  MODIFY_REG(tmpbdtr, TIM_BDTR_OSSI, sBreakDeadTimeConfig->OffStateIDLEMode);
 8004db8:	68fb      	ldr	r3, [r7, #12]
 8004dba:	f423 6280 	bic.w	r2, r3, #1024	; 0x400
 8004dbe:	683b      	ldr	r3, [r7, #0]
 8004dc0:	685b      	ldr	r3, [r3, #4]
 8004dc2:	4313      	orrs	r3, r2
 8004dc4:	60fb      	str	r3, [r7, #12]
  MODIFY_REG(tmpbdtr, TIM_BDTR_OSSR, sBreakDeadTimeConfig->OffStateRunMode);
 8004dc6:	68fb      	ldr	r3, [r7, #12]
 8004dc8:	f423 6200 	bic.w	r2, r3, #2048	; 0x800
 8004dcc:	683b      	ldr	r3, [r7, #0]
 8004dce:	681b      	ldr	r3, [r3, #0]
 8004dd0:	4313      	orrs	r3, r2
 8004dd2:	60fb      	str	r3, [r7, #12]
  MODIFY_REG(tmpbdtr, TIM_BDTR_BKE, sBreakDeadTimeConfig->BreakState);
 8004dd4:	68fb      	ldr	r3, [r7, #12]
 8004dd6:	f423 5280 	bic.w	r2, r3, #4096	; 0x1000
 8004dda:	683b      	ldr	r3, [r7, #0]
 8004ddc:	691b      	ldr	r3, [r3, #16]
 8004dde:	4313      	orrs	r3, r2
 8004de0:	60fb      	str	r3, [r7, #12]
  MODIFY_REG(tmpbdtr, TIM_BDTR_BKP, sBreakDeadTimeConfig->BreakPolarity);
 8004de2:	68fb      	ldr	r3, [r7, #12]
 8004de4:	f423 5200 	bic.w	r2, r3, #8192	; 0x2000
 8004de8:	683b      	ldr	r3, [r7, #0]
 8004dea:	695b      	ldr	r3, [r3, #20]
 8004dec:	4313      	orrs	r3, r2
 8004dee:	60fb      	str	r3, [r7, #12]
  MODIFY_REG(tmpbdtr, TIM_BDTR_AOE, sBreakDeadTimeConfig->AutomaticOutput);
 8004df0:	68fb      	ldr	r3, [r7, #12]
 8004df2:	f423 4280 	bic.w	r2, r3, #16384	; 0x4000
 8004df6:	683b      	ldr	r3, [r7, #0]
 8004df8:	69db      	ldr	r3, [r3, #28]
 8004dfa:	4313      	orrs	r3, r2
 8004dfc:	60fb      	str	r3, [r7, #12]


  /* Set TIMx_BDTR */
  htim->Instance->BDTR = tmpbdtr;
 8004dfe:	687b      	ldr	r3, [r7, #4]
 8004e00:	681b      	ldr	r3, [r3, #0]
 8004e02:	68fa      	ldr	r2, [r7, #12]
 8004e04:	645a      	str	r2, [r3, #68]	; 0x44

  __HAL_UNLOCK(htim);
 8004e06:	687b      	ldr	r3, [r7, #4]
 8004e08:	2200      	movs	r2, #0
 8004e0a:	f883 203c 	strb.w	r2, [r3, #60]	; 0x3c

  return HAL_OK;
 8004e0e:	2300      	movs	r3, #0
}
 8004e10:	4618      	mov	r0, r3
 8004e12:	3714      	adds	r7, #20
 8004e14:	46bd      	mov	sp, r7
 8004e16:	f85d 7b04 	ldr.w	r7, [sp], #4
 8004e1a:	4770      	bx	lr

08004e1c <HAL_TIMEx_CommutCallback>:
  * @brief  Hall commutation changed callback in non-blocking mode
  * @param  htim TIM handle
  * @retval None
  */
__weak void HAL_TIMEx_CommutCallback(TIM_HandleTypeDef *htim)
{
 8004e1c:	b480      	push	{r7}
 8004e1e:	b083      	sub	sp, #12
 8004e20:	af00      	add	r7, sp, #0
 8004e22:	6078      	str	r0, [r7, #4]
  UNUSED(htim);

  /* NOTE : This function should not be modified, when the callback is needed,
            the HAL_TIMEx_CommutCallback could be implemented in the user file
   */
}
 8004e24:	bf00      	nop
 8004e26:	370c      	adds	r7, #12
 8004e28:	46bd      	mov	sp, r7
 8004e2a:	f85d 7b04 	ldr.w	r7, [sp], #4
 8004e2e:	4770      	bx	lr

08004e30 <HAL_TIMEx_BreakCallback>:
  * @brief  Hall Break detection callback in non-blocking mode
  * @param  htim TIM handle
  * @retval None
  */
__weak void HAL_TIMEx_BreakCallback(TIM_HandleTypeDef *htim)
{
 8004e30:	b480      	push	{r7}
 8004e32:	b083      	sub	sp, #12
 8004e34:	af00      	add	r7, sp, #0
 8004e36:	6078      	str	r0, [r7, #4]
  UNUSED(htim);

  /* NOTE : This function should not be modified, when the callback is needed,
            the HAL_TIMEx_BreakCallback could be implemented in the user file
   */
}
 8004e38:	bf00      	nop
 8004e3a:	370c      	adds	r7, #12
 8004e3c:	46bd      	mov	sp, r7
 8004e3e:	f85d 7b04 	ldr.w	r7, [sp], #4
 8004e42:	4770      	bx	lr

08004e44 <HAL_UART_Init>:
  * @param  huart  Pointer to a UART_HandleTypeDef structure that contains
  *                the configuration information for the specified UART module.
  * @retval HAL status
  */
HAL_StatusTypeDef HAL_UART_Init(UART_HandleTypeDef *huart)
{
 8004e44:	b580      	push	{r7, lr}
 8004e46:	b082      	sub	sp, #8
 8004e48:	af00      	add	r7, sp, #0
 8004e4a:	6078      	str	r0, [r7, #4]
  /* Check the UART handle allocation */
  if (huart == NULL)
 8004e4c:	687b      	ldr	r3, [r7, #4]
 8004e4e:	2b00      	cmp	r3, #0
 8004e50:	d101      	bne.n	8004e56 <HAL_UART_Init+0x12>
  {
    return HAL_ERROR;
 8004e52:	2301      	movs	r3, #1
 8004e54:	e03f      	b.n	8004ed6 <HAL_UART_Init+0x92>
    assert_param(IS_UART_INSTANCE(huart->Instance));
  }
  assert_param(IS_UART_WORD_LENGTH(huart->Init.WordLength));
  assert_param(IS_UART_OVERSAMPLING(huart->Init.OverSampling));

  if (huart->gState == HAL_UART_STATE_RESET)
 8004e56:	687b      	ldr	r3, [r7, #4]
 8004e58:	f893 303d 	ldrb.w	r3, [r3, #61]	; 0x3d
 8004e5c:	b2db      	uxtb	r3, r3
 8004e5e:	2b00      	cmp	r3, #0
 8004e60:	d106      	bne.n	8004e70 <HAL_UART_Init+0x2c>
  {
    /* Allocate lock resource and initialize it */
    huart->Lock = HAL_UNLOCKED;
 8004e62:	687b      	ldr	r3, [r7, #4]
 8004e64:	2200      	movs	r2, #0
 8004e66:	f883 203c 	strb.w	r2, [r3, #60]	; 0x3c

    /* Init the low level hardware */
    huart->MspInitCallback(huart);
#else
    /* Init the low level hardware : GPIO, CLOCK */
    HAL_UART_MspInit(huart);
 8004e6a:	6878      	ldr	r0, [r7, #4]
 8004e6c:	f7fd f9a4 	bl	80021b8 <HAL_UART_MspInit>
#endif /* (USE_HAL_UART_REGISTER_CALLBACKS) */
  }

  huart->gState = HAL_UART_STATE_BUSY;
 8004e70:	687b      	ldr	r3, [r7, #4]
 8004e72:	2224      	movs	r2, #36	; 0x24
 8004e74:	f883 203d 	strb.w	r2, [r3, #61]	; 0x3d

  /* Disable the peripheral */
  __HAL_UART_DISABLE(huart);
 8004e78:	687b      	ldr	r3, [r7, #4]
 8004e7a:	681b      	ldr	r3, [r3, #0]
 8004e7c:	68da      	ldr	r2, [r3, #12]
 8004e7e:	687b      	ldr	r3, [r7, #4]
 8004e80:	681b      	ldr	r3, [r3, #0]
 8004e82:	f422 5200 	bic.w	r2, r2, #8192	; 0x2000
 8004e86:	60da      	str	r2, [r3, #12]

  /* Set the UART Communication parameters */
  UART_SetConfig(huart);
 8004e88:	6878      	ldr	r0, [r7, #4]
 8004e8a:	f000 f929 	bl	80050e0 <UART_SetConfig>

  /* In asynchronous mode, the following bits must be kept cleared:
     - LINEN and CLKEN bits in the USART_CR2 register,
     - SCEN, HDSEL and IREN  bits in the USART_CR3 register.*/
  CLEAR_BIT(huart->Instance->CR2, (USART_CR2_LINEN | USART_CR2_CLKEN));
 8004e8e:	687b      	ldr	r3, [r7, #4]
 8004e90:	681b      	ldr	r3, [r3, #0]
 8004e92:	691a      	ldr	r2, [r3, #16]
 8004e94:	687b      	ldr	r3, [r7, #4]
 8004e96:	681b      	ldr	r3, [r3, #0]
 8004e98:	f422 4290 	bic.w	r2, r2, #18432	; 0x4800
 8004e9c:	611a      	str	r2, [r3, #16]
  CLEAR_BIT(huart->Instance->CR3, (USART_CR3_SCEN | USART_CR3_HDSEL | USART_CR3_IREN));
 8004e9e:	687b      	ldr	r3, [r7, #4]
 8004ea0:	681b      	ldr	r3, [r3, #0]
 8004ea2:	695a      	ldr	r2, [r3, #20]
 8004ea4:	687b      	ldr	r3, [r7, #4]
 8004ea6:	681b      	ldr	r3, [r3, #0]
 8004ea8:	f022 022a 	bic.w	r2, r2, #42	; 0x2a
 8004eac:	615a      	str	r2, [r3, #20]

  /* Enable the peripheral */
  __HAL_UART_ENABLE(huart);
 8004eae:	687b      	ldr	r3, [r7, #4]
 8004eb0:	681b      	ldr	r3, [r3, #0]
 8004eb2:	68da      	ldr	r2, [r3, #12]
 8004eb4:	687b      	ldr	r3, [r7, #4]
 8004eb6:	681b      	ldr	r3, [r3, #0]
 8004eb8:	f442 5200 	orr.w	r2, r2, #8192	; 0x2000
 8004ebc:	60da      	str	r2, [r3, #12]

  /* Initialize the UART state */
  huart->ErrorCode = HAL_UART_ERROR_NONE;
 8004ebe:	687b      	ldr	r3, [r7, #4]
 8004ec0:	2200      	movs	r2, #0
 8004ec2:	641a      	str	r2, [r3, #64]	; 0x40
  huart->gState = HAL_UART_STATE_READY;
 8004ec4:	687b      	ldr	r3, [r7, #4]
 8004ec6:	2220      	movs	r2, #32
 8004ec8:	f883 203d 	strb.w	r2, [r3, #61]	; 0x3d
  huart->RxState = HAL_UART_STATE_READY;
 8004ecc:	687b      	ldr	r3, [r7, #4]
 8004ece:	2220      	movs	r2, #32
 8004ed0:	f883 203e 	strb.w	r2, [r3, #62]	; 0x3e

  return HAL_OK;
 8004ed4:	2300      	movs	r3, #0
}
 8004ed6:	4618      	mov	r0, r3
 8004ed8:	3708      	adds	r7, #8
 8004eda:	46bd      	mov	sp, r7
 8004edc:	bd80      	pop	{r7, pc}

08004ede <HAL_UART_Transmit>:
  * @param  Size  Amount of data elements (u8 or u16) to be sent
  * @param  Timeout Timeout duration
  * @retval HAL status
  */
HAL_StatusTypeDef HAL_UART_Transmit(UART_HandleTypeDef *huart, uint8_t *pData, uint16_t Size, uint32_t Timeout)
{
 8004ede:	b580      	push	{r7, lr}
 8004ee0:	b08a      	sub	sp, #40	; 0x28
 8004ee2:	af02      	add	r7, sp, #8
 8004ee4:	60f8      	str	r0, [r7, #12]
 8004ee6:	60b9      	str	r1, [r7, #8]
 8004ee8:	603b      	str	r3, [r7, #0]
 8004eea:	4613      	mov	r3, r2
 8004eec:	80fb      	strh	r3, [r7, #6]
  uint8_t  *pdata8bits;
  uint16_t *pdata16bits;
  uint32_t tickstart = 0U;
 8004eee:	2300      	movs	r3, #0
 8004ef0:	617b      	str	r3, [r7, #20]

  /* Check that a Tx process is not already ongoing */
  if (huart->gState == HAL_UART_STATE_READY)
 8004ef2:	68fb      	ldr	r3, [r7, #12]
 8004ef4:	f893 303d 	ldrb.w	r3, [r3, #61]	; 0x3d
 8004ef8:	b2db      	uxtb	r3, r3
 8004efa:	2b20      	cmp	r3, #32
 8004efc:	d17c      	bne.n	8004ff8 <HAL_UART_Transmit+0x11a>
  {
    if ((pData == NULL) || (Size == 0U))
 8004efe:	68bb      	ldr	r3, [r7, #8]
 8004f00:	2b00      	cmp	r3, #0
 8004f02:	d002      	beq.n	8004f0a <HAL_UART_Transmit+0x2c>
 8004f04:	88fb      	ldrh	r3, [r7, #6]
 8004f06:	2b00      	cmp	r3, #0
 8004f08:	d101      	bne.n	8004f0e <HAL_UART_Transmit+0x30>
    {
      return  HAL_ERROR;
 8004f0a:	2301      	movs	r3, #1
 8004f0c:	e075      	b.n	8004ffa <HAL_UART_Transmit+0x11c>
    }

    /* Process Locked */
    __HAL_LOCK(huart);
 8004f0e:	68fb      	ldr	r3, [r7, #12]
 8004f10:	f893 303c 	ldrb.w	r3, [r3, #60]	; 0x3c
 8004f14:	2b01      	cmp	r3, #1
 8004f16:	d101      	bne.n	8004f1c <HAL_UART_Transmit+0x3e>
 8004f18:	2302      	movs	r3, #2
 8004f1a:	e06e      	b.n	8004ffa <HAL_UART_Transmit+0x11c>
 8004f1c:	68fb      	ldr	r3, [r7, #12]
 8004f1e:	2201      	movs	r2, #1
 8004f20:	f883 203c 	strb.w	r2, [r3, #60]	; 0x3c

    huart->ErrorCode = HAL_UART_ERROR_NONE;
 8004f24:	68fb      	ldr	r3, [r7, #12]
 8004f26:	2200      	movs	r2, #0
 8004f28:	641a      	str	r2, [r3, #64]	; 0x40
    huart->gState = HAL_UART_STATE_BUSY_TX;
 8004f2a:	68fb      	ldr	r3, [r7, #12]
 8004f2c:	2221      	movs	r2, #33	; 0x21
 8004f2e:	f883 203d 	strb.w	r2, [r3, #61]	; 0x3d

    /* Init tickstart for timeout management */
    tickstart = HAL_GetTick();
 8004f32:	f7fd fb27 	bl	8002584 <HAL_GetTick>
 8004f36:	6178      	str	r0, [r7, #20]

    huart->TxXferSize = Size;
 8004f38:	68fb      	ldr	r3, [r7, #12]
 8004f3a:	88fa      	ldrh	r2, [r7, #6]
 8004f3c:	849a      	strh	r2, [r3, #36]	; 0x24
    huart->TxXferCount = Size;
 8004f3e:	68fb      	ldr	r3, [r7, #12]
 8004f40:	88fa      	ldrh	r2, [r7, #6]
 8004f42:	84da      	strh	r2, [r3, #38]	; 0x26

    /* In case of 9bits/No Parity transfer, pData needs to be handled as a uint16_t pointer */
    if ((huart->Init.WordLength == UART_WORDLENGTH_9B) && (huart->Init.Parity == UART_PARITY_NONE))
 8004f44:	68fb      	ldr	r3, [r7, #12]
 8004f46:	689b      	ldr	r3, [r3, #8]
 8004f48:	f5b3 5f80 	cmp.w	r3, #4096	; 0x1000
 8004f4c:	d108      	bne.n	8004f60 <HAL_UART_Transmit+0x82>
 8004f4e:	68fb      	ldr	r3, [r7, #12]
 8004f50:	691b      	ldr	r3, [r3, #16]
 8004f52:	2b00      	cmp	r3, #0
 8004f54:	d104      	bne.n	8004f60 <HAL_UART_Transmit+0x82>
    {
      pdata8bits  = NULL;
 8004f56:	2300      	movs	r3, #0
 8004f58:	61fb      	str	r3, [r7, #28]
      pdata16bits = (uint16_t *) pData;
 8004f5a:	68bb      	ldr	r3, [r7, #8]
 8004f5c:	61bb      	str	r3, [r7, #24]
 8004f5e:	e003      	b.n	8004f68 <HAL_UART_Transmit+0x8a>
    }
    else
    {
      pdata8bits  = pData;
 8004f60:	68bb      	ldr	r3, [r7, #8]
 8004f62:	61fb      	str	r3, [r7, #28]
      pdata16bits = NULL;
 8004f64:	2300      	movs	r3, #0
 8004f66:	61bb      	str	r3, [r7, #24]
    }

    /* Process Unlocked */
    __HAL_UNLOCK(huart);
 8004f68:	68fb      	ldr	r3, [r7, #12]
 8004f6a:	2200      	movs	r2, #0
 8004f6c:	f883 203c 	strb.w	r2, [r3, #60]	; 0x3c

    while (huart->TxXferCount > 0U)
 8004f70:	e02a      	b.n	8004fc8 <HAL_UART_Transmit+0xea>
    {
      if (UART_WaitOnFlagUntilTimeout(huart, UART_FLAG_TXE, RESET, tickstart, Timeout) != HAL_OK)
 8004f72:	683b      	ldr	r3, [r7, #0]
 8004f74:	9300      	str	r3, [sp, #0]
 8004f76:	697b      	ldr	r3, [r7, #20]
 8004f78:	2200      	movs	r2, #0
 8004f7a:	2180      	movs	r1, #128	; 0x80
 8004f7c:	68f8      	ldr	r0, [r7, #12]
 8004f7e:	f000 f840 	bl	8005002 <UART_WaitOnFlagUntilTimeout>
 8004f82:	4603      	mov	r3, r0
 8004f84:	2b00      	cmp	r3, #0
 8004f86:	d001      	beq.n	8004f8c <HAL_UART_Transmit+0xae>
      {
        return HAL_TIMEOUT;
 8004f88:	2303      	movs	r3, #3
 8004f8a:	e036      	b.n	8004ffa <HAL_UART_Transmit+0x11c>
      }
      if (pdata8bits == NULL)
 8004f8c:	69fb      	ldr	r3, [r7, #28]
 8004f8e:	2b00      	cmp	r3, #0
 8004f90:	d10b      	bne.n	8004faa <HAL_UART_Transmit+0xcc>
      {
        huart->Instance->DR = (uint16_t)(*pdata16bits & 0x01FFU);
 8004f92:	69bb      	ldr	r3, [r7, #24]
 8004f94:	881b      	ldrh	r3, [r3, #0]
 8004f96:	461a      	mov	r2, r3
 8004f98:	68fb      	ldr	r3, [r7, #12]
 8004f9a:	681b      	ldr	r3, [r3, #0]
 8004f9c:	f3c2 0208 	ubfx	r2, r2, #0, #9
 8004fa0:	605a      	str	r2, [r3, #4]
        pdata16bits++;
 8004fa2:	69bb      	ldr	r3, [r7, #24]
 8004fa4:	3302      	adds	r3, #2
 8004fa6:	61bb      	str	r3, [r7, #24]
 8004fa8:	e007      	b.n	8004fba <HAL_UART_Transmit+0xdc>
      }
      else
      {
        huart->Instance->DR = (uint8_t)(*pdata8bits & 0xFFU);
 8004faa:	69fb      	ldr	r3, [r7, #28]
 8004fac:	781a      	ldrb	r2, [r3, #0]
 8004fae:	68fb      	ldr	r3, [r7, #12]
 8004fb0:	681b      	ldr	r3, [r3, #0]
 8004fb2:	605a      	str	r2, [r3, #4]
        pdata8bits++;
 8004fb4:	69fb      	ldr	r3, [r7, #28]
 8004fb6:	3301      	adds	r3, #1
 8004fb8:	61fb      	str	r3, [r7, #28]
      }
      huart->TxXferCount--;
 8004fba:	68fb      	ldr	r3, [r7, #12]
 8004fbc:	8cdb      	ldrh	r3, [r3, #38]	; 0x26
 8004fbe:	b29b      	uxth	r3, r3
 8004fc0:	3b01      	subs	r3, #1
 8004fc2:	b29a      	uxth	r2, r3
 8004fc4:	68fb      	ldr	r3, [r7, #12]
 8004fc6:	84da      	strh	r2, [r3, #38]	; 0x26
    while (huart->TxXferCount > 0U)
 8004fc8:	68fb      	ldr	r3, [r7, #12]
 8004fca:	8cdb      	ldrh	r3, [r3, #38]	; 0x26
 8004fcc:	b29b      	uxth	r3, r3
 8004fce:	2b00      	cmp	r3, #0
 8004fd0:	d1cf      	bne.n	8004f72 <HAL_UART_Transmit+0x94>
    }

    if (UART_WaitOnFlagUntilTimeout(huart, UART_FLAG_TC, RESET, tickstart, Timeout) != HAL_OK)
 8004fd2:	683b      	ldr	r3, [r7, #0]
 8004fd4:	9300      	str	r3, [sp, #0]
 8004fd6:	697b      	ldr	r3, [r7, #20]
 8004fd8:	2200      	movs	r2, #0
 8004fda:	2140      	movs	r1, #64	; 0x40
 8004fdc:	68f8      	ldr	r0, [r7, #12]
 8004fde:	f000 f810 	bl	8005002 <UART_WaitOnFlagUntilTimeout>
 8004fe2:	4603      	mov	r3, r0
 8004fe4:	2b00      	cmp	r3, #0
 8004fe6:	d001      	beq.n	8004fec <HAL_UART_Transmit+0x10e>
    {
      return HAL_TIMEOUT;
 8004fe8:	2303      	movs	r3, #3
 8004fea:	e006      	b.n	8004ffa <HAL_UART_Transmit+0x11c>
    }

    /* At end of Tx process, restore huart->gState to Ready */
    huart->gState = HAL_UART_STATE_READY;
 8004fec:	68fb      	ldr	r3, [r7, #12]
 8004fee:	2220      	movs	r2, #32
 8004ff0:	f883 203d 	strb.w	r2, [r3, #61]	; 0x3d

    return HAL_OK;
 8004ff4:	2300      	movs	r3, #0
 8004ff6:	e000      	b.n	8004ffa <HAL_UART_Transmit+0x11c>
  }
  else
  {
    return HAL_BUSY;
 8004ff8:	2302      	movs	r3, #2
  }
}
 8004ffa:	4618      	mov	r0, r3
 8004ffc:	3720      	adds	r7, #32
 8004ffe:	46bd      	mov	sp, r7
 8005000:	bd80      	pop	{r7, pc}

08005002 <UART_WaitOnFlagUntilTimeout>:
  * @param  Timeout Timeout duration
  * @retval HAL status
  */
static HAL_StatusTypeDef UART_WaitOnFlagUntilTimeout(UART_HandleTypeDef *huart, uint32_t Flag, FlagStatus Status,
                                                     uint32_t Tickstart, uint32_t Timeout)
{
 8005002:	b580      	push	{r7, lr}
 8005004:	b090      	sub	sp, #64	; 0x40
 8005006:	af00      	add	r7, sp, #0
 8005008:	60f8      	str	r0, [r7, #12]
 800500a:	60b9      	str	r1, [r7, #8]
 800500c:	603b      	str	r3, [r7, #0]
 800500e:	4613      	mov	r3, r2
 8005010:	71fb      	strb	r3, [r7, #7]
  /* Wait until flag is set */
  while ((__HAL_UART_GET_FLAG(huart, Flag) ? SET : RESET) == Status)
 8005012:	e050      	b.n	80050b6 <UART_WaitOnFlagUntilTimeout+0xb4>
  {
    /* Check for the Timeout */
    if (Timeout != HAL_MAX_DELAY)
 8005014:	6cbb      	ldr	r3, [r7, #72]	; 0x48
 8005016:	f1b3 3fff 	cmp.w	r3, #4294967295	; 0xffffffff
 800501a:	d04c      	beq.n	80050b6 <UART_WaitOnFlagUntilTimeout+0xb4>
    {
      if ((Timeout == 0U) || ((HAL_GetTick() - Tickstart) > Timeout))
 800501c:	6cbb      	ldr	r3, [r7, #72]	; 0x48
 800501e:	2b00      	cmp	r3, #0
 8005020:	d007      	beq.n	8005032 <UART_WaitOnFlagUntilTimeout+0x30>
 8005022:	f7fd faaf 	bl	8002584 <HAL_GetTick>
 8005026:	4602      	mov	r2, r0
 8005028:	683b      	ldr	r3, [r7, #0]
 800502a:	1ad3      	subs	r3, r2, r3
 800502c:	6cba      	ldr	r2, [r7, #72]	; 0x48
 800502e:	429a      	cmp	r2, r3
 8005030:	d241      	bcs.n	80050b6 <UART_WaitOnFlagUntilTimeout+0xb4>
      {
        /* Disable TXE, RXNE, PE and ERR (Frame error, noise error, overrun error) interrupts for the interrupt process */
        ATOMIC_CLEAR_BIT(huart->Instance->CR1, (USART_CR1_RXNEIE | USART_CR1_PEIE | USART_CR1_TXEIE));
 8005032:	68fb      	ldr	r3, [r7, #12]
 8005034:	681b      	ldr	r3, [r3, #0]
 8005036:	330c      	adds	r3, #12
 8005038:	62bb      	str	r3, [r7, #40]	; 0x28
 */
__STATIC_FORCEINLINE uint32_t __LDREXW(volatile uint32_t *addr)
{
    uint32_t result;

   __ASM volatile ("ldrex %0, %1" : "=r" (result) : "Q" (*addr) );
 800503a:	6abb      	ldr	r3, [r7, #40]	; 0x28
 800503c:	e853 3f00 	ldrex	r3, [r3]
 8005040:	627b      	str	r3, [r7, #36]	; 0x24
   return(result);
 8005042:	6a7b      	ldr	r3, [r7, #36]	; 0x24
 8005044:	f423 73d0 	bic.w	r3, r3, #416	; 0x1a0
 8005048:	63fb      	str	r3, [r7, #60]	; 0x3c
 800504a:	68fb      	ldr	r3, [r7, #12]
 800504c:	681b      	ldr	r3, [r3, #0]
 800504e:	330c      	adds	r3, #12
 8005050:	6bfa      	ldr	r2, [r7, #60]	; 0x3c
 8005052:	637a      	str	r2, [r7, #52]	; 0x34
 8005054:	633b      	str	r3, [r7, #48]	; 0x30
 */
__STATIC_FORCEINLINE uint32_t __STREXW(uint32_t value, volatile uint32_t *addr)
{
   uint32_t result;

   __ASM volatile ("strex %0, %2, %1" : "=&r" (result), "=Q" (*addr) : "r" (value) );
 8005056:	6b39      	ldr	r1, [r7, #48]	; 0x30
 8005058:	6b7a      	ldr	r2, [r7, #52]	; 0x34
 800505a:	e841 2300 	strex	r3, r2, [r1]
 800505e:	62fb      	str	r3, [r7, #44]	; 0x2c
   return(result);
 8005060:	6afb      	ldr	r3, [r7, #44]	; 0x2c
 8005062:	2b00      	cmp	r3, #0
 8005064:	d1e5      	bne.n	8005032 <UART_WaitOnFlagUntilTimeout+0x30>
        ATOMIC_CLEAR_BIT(huart->Instance->CR3, USART_CR3_EIE);
 8005066:	68fb      	ldr	r3, [r7, #12]
 8005068:	681b      	ldr	r3, [r3, #0]
 800506a:	3314      	adds	r3, #20
 800506c:	617b      	str	r3, [r7, #20]
   __ASM volatile ("ldrex %0, %1" : "=r" (result) : "Q" (*addr) );
 800506e:	697b      	ldr	r3, [r7, #20]
 8005070:	e853 3f00 	ldrex	r3, [r3]
 8005074:	613b      	str	r3, [r7, #16]
   return(result);
 8005076:	693b      	ldr	r3, [r7, #16]
 8005078:	f023 0301 	bic.w	r3, r3, #1
 800507c:	63bb      	str	r3, [r7, #56]	; 0x38
 800507e:	68fb      	ldr	r3, [r7, #12]
 8005080:	681b      	ldr	r3, [r3, #0]
 8005082:	3314      	adds	r3, #20
 8005084:	6bba      	ldr	r2, [r7, #56]	; 0x38
 8005086:	623a      	str	r2, [r7, #32]
 8005088:	61fb      	str	r3, [r7, #28]
   __ASM volatile ("strex %0, %2, %1" : "=&r" (result), "=Q" (*addr) : "r" (value) );
 800508a:	69f9      	ldr	r1, [r7, #28]
 800508c:	6a3a      	ldr	r2, [r7, #32]
 800508e:	e841 2300 	strex	r3, r2, [r1]
 8005092:	61bb      	str	r3, [r7, #24]
   return(result);
 8005094:	69bb      	ldr	r3, [r7, #24]
 8005096:	2b00      	cmp	r3, #0
 8005098:	d1e5      	bne.n	8005066 <UART_WaitOnFlagUntilTimeout+0x64>

        huart->gState  = HAL_UART_STATE_READY;
 800509a:	68fb      	ldr	r3, [r7, #12]
 800509c:	2220      	movs	r2, #32
 800509e:	f883 203d 	strb.w	r2, [r3, #61]	; 0x3d
        huart->RxState = HAL_UART_STATE_READY;
 80050a2:	68fb      	ldr	r3, [r7, #12]
 80050a4:	2220      	movs	r2, #32
 80050a6:	f883 203e 	strb.w	r2, [r3, #62]	; 0x3e

        /* Process Unlocked */
        __HAL_UNLOCK(huart);
 80050aa:	68fb      	ldr	r3, [r7, #12]
 80050ac:	2200      	movs	r2, #0
 80050ae:	f883 203c 	strb.w	r2, [r3, #60]	; 0x3c

        return HAL_TIMEOUT;
 80050b2:	2303      	movs	r3, #3
 80050b4:	e00f      	b.n	80050d6 <UART_WaitOnFlagUntilTimeout+0xd4>
  while ((__HAL_UART_GET_FLAG(huart, Flag) ? SET : RESET) == Status)
 80050b6:	68fb      	ldr	r3, [r7, #12]
 80050b8:	681b      	ldr	r3, [r3, #0]
 80050ba:	681a      	ldr	r2, [r3, #0]
 80050bc:	68bb      	ldr	r3, [r7, #8]
 80050be:	4013      	ands	r3, r2
 80050c0:	68ba      	ldr	r2, [r7, #8]
 80050c2:	429a      	cmp	r2, r3
 80050c4:	bf0c      	ite	eq
 80050c6:	2301      	moveq	r3, #1
 80050c8:	2300      	movne	r3, #0
 80050ca:	b2db      	uxtb	r3, r3
 80050cc:	461a      	mov	r2, r3
 80050ce:	79fb      	ldrb	r3, [r7, #7]
 80050d0:	429a      	cmp	r2, r3
 80050d2:	d09f      	beq.n	8005014 <UART_WaitOnFlagUntilTimeout+0x12>
      }
    }
  }
  return HAL_OK;
 80050d4:	2300      	movs	r3, #0
}
 80050d6:	4618      	mov	r0, r3
 80050d8:	3740      	adds	r7, #64	; 0x40
 80050da:	46bd      	mov	sp, r7
 80050dc:	bd80      	pop	{r7, pc}
	...

080050e0 <UART_SetConfig>:
  * @param  huart  Pointer to a UART_HandleTypeDef structure that contains
  *                the configuration information for the specified UART module.
  * @retval None
  */
static void UART_SetConfig(UART_HandleTypeDef *huart)
{
 80050e0:	e92d 4ff0 	stmdb	sp!, {r4, r5, r6, r7, r8, r9, sl, fp, lr}
 80050e4:	b09f      	sub	sp, #124	; 0x7c
 80050e6:	af00      	add	r7, sp, #0
 80050e8:	66f8      	str	r0, [r7, #108]	; 0x6c
  assert_param(IS_UART_MODE(huart->Init.Mode));

  /*-------------------------- USART CR2 Configuration -----------------------*/
  /* Configure the UART Stop Bits: Set STOP[13:12] bits
     according to huart->Init.StopBits value */
  MODIFY_REG(huart->Instance->CR2, USART_CR2_STOP, huart->Init.StopBits);
 80050ea:	6efb      	ldr	r3, [r7, #108]	; 0x6c
 80050ec:	681b      	ldr	r3, [r3, #0]
 80050ee:	691b      	ldr	r3, [r3, #16]
 80050f0:	f423 5040 	bic.w	r0, r3, #12288	; 0x3000
 80050f4:	6efb      	ldr	r3, [r7, #108]	; 0x6c
 80050f6:	68d9      	ldr	r1, [r3, #12]
 80050f8:	6efb      	ldr	r3, [r7, #108]	; 0x6c
 80050fa:	681a      	ldr	r2, [r3, #0]
 80050fc:	ea40 0301 	orr.w	r3, r0, r1
 8005100:	6113      	str	r3, [r2, #16]
     Set the M bits according to huart->Init.WordLength value
     Set PCE and PS bits according to huart->Init.Parity value
     Set TE and RE bits according to huart->Init.Mode value
     Set OVER8 bit according to huart->Init.OverSampling value */

  tmpreg = (uint32_t)huart->Init.WordLength | huart->Init.Parity | huart->Init.Mode | huart->Init.OverSampling;
 8005102:	6efb      	ldr	r3, [r7, #108]	; 0x6c
 8005104:	689a      	ldr	r2, [r3, #8]
 8005106:	6efb      	ldr	r3, [r7, #108]	; 0x6c
 8005108:	691b      	ldr	r3, [r3, #16]
 800510a:	431a      	orrs	r2, r3
 800510c:	6efb      	ldr	r3, [r7, #108]	; 0x6c
 800510e:	695b      	ldr	r3, [r3, #20]
 8005110:	431a      	orrs	r2, r3
 8005112:	6efb      	ldr	r3, [r7, #108]	; 0x6c
 8005114:	69db      	ldr	r3, [r3, #28]
 8005116:	4313      	orrs	r3, r2
 8005118:	673b      	str	r3, [r7, #112]	; 0x70
  MODIFY_REG(huart->Instance->CR1,
 800511a:	6efb      	ldr	r3, [r7, #108]	; 0x6c
 800511c:	681b      	ldr	r3, [r3, #0]
 800511e:	68db      	ldr	r3, [r3, #12]
 8005120:	f423 4116 	bic.w	r1, r3, #38400	; 0x9600
 8005124:	f021 010c 	bic.w	r1, r1, #12
 8005128:	6efb      	ldr	r3, [r7, #108]	; 0x6c
 800512a:	681a      	ldr	r2, [r3, #0]
 800512c:	6f3b      	ldr	r3, [r7, #112]	; 0x70
 800512e:	430b      	orrs	r3, r1
 8005130:	60d3      	str	r3, [r2, #12]
             (uint32_t)(USART_CR1_M | USART_CR1_PCE | USART_CR1_PS | USART_CR1_TE | USART_CR1_RE | USART_CR1_OVER8),
             tmpreg);

  /*-------------------------- USART CR3 Configuration -----------------------*/
  /* Configure the UART HFC: Set CTSE and RTSE bits according to huart->Init.HwFlowCtl value */
  MODIFY_REG(huart->Instance->CR3, (USART_CR3_RTSE | USART_CR3_CTSE), huart->Init.HwFlowCtl);
 8005132:	6efb      	ldr	r3, [r7, #108]	; 0x6c
 8005134:	681b      	ldr	r3, [r3, #0]
 8005136:	695b      	ldr	r3, [r3, #20]
 8005138:	f423 7040 	bic.w	r0, r3, #768	; 0x300
 800513c:	6efb      	ldr	r3, [r7, #108]	; 0x6c
 800513e:	6999      	ldr	r1, [r3, #24]
 8005140:	6efb      	ldr	r3, [r7, #108]	; 0x6c
 8005142:	681a      	ldr	r2, [r3, #0]
 8005144:	ea40 0301 	orr.w	r3, r0, r1
 8005148:	6153      	str	r3, [r2, #20]
    if ((huart->Instance == USART1) || (huart->Instance == USART6) || (huart->Instance == UART9) || (huart->Instance == UART10))
    {
      pclk = HAL_RCC_GetPCLK2Freq();
    }
#elif defined(USART6)
    if ((huart->Instance == USART1) || (huart->Instance == USART6))
 800514a:	6efb      	ldr	r3, [r7, #108]	; 0x6c
 800514c:	681a      	ldr	r2, [r3, #0]
 800514e:	4bc5      	ldr	r3, [pc, #788]	; (8005464 <UART_SetConfig+0x384>)
 8005150:	429a      	cmp	r2, r3
 8005152:	d004      	beq.n	800515e <UART_SetConfig+0x7e>
 8005154:	6efb      	ldr	r3, [r7, #108]	; 0x6c
 8005156:	681a      	ldr	r2, [r3, #0]
 8005158:	4bc3      	ldr	r3, [pc, #780]	; (8005468 <UART_SetConfig+0x388>)
 800515a:	429a      	cmp	r2, r3
 800515c:	d103      	bne.n	8005166 <UART_SetConfig+0x86>
    {
      pclk = HAL_RCC_GetPCLK2Freq();
 800515e:	f7fd fe07 	bl	8002d70 <HAL_RCC_GetPCLK2Freq>
 8005162:	6778      	str	r0, [r7, #116]	; 0x74
 8005164:	e002      	b.n	800516c <UART_SetConfig+0x8c>
      pclk = HAL_RCC_GetPCLK2Freq();
    }
#endif /* USART6 */
    else
    {
      pclk = HAL_RCC_GetPCLK1Freq();
 8005166:	f7fd fdef 	bl	8002d48 <HAL_RCC_GetPCLK1Freq>
 800516a:	6778      	str	r0, [r7, #116]	; 0x74
    }
  /*-------------------------- USART BRR Configuration ---------------------*/
  if (huart->Init.OverSampling == UART_OVERSAMPLING_8)
 800516c:	6efb      	ldr	r3, [r7, #108]	; 0x6c
 800516e:	69db      	ldr	r3, [r3, #28]
 8005170:	f5b3 4f00 	cmp.w	r3, #32768	; 0x8000
 8005174:	f040 80b6 	bne.w	80052e4 <UART_SetConfig+0x204>
  {
    huart->Instance->BRR = UART_BRR_SAMPLING8(pclk, huart->Init.BaudRate);
 8005178:	6f7b      	ldr	r3, [r7, #116]	; 0x74
 800517a:	461c      	mov	r4, r3
 800517c:	f04f 0500 	mov.w	r5, #0
 8005180:	4622      	mov	r2, r4
 8005182:	462b      	mov	r3, r5
 8005184:	1891      	adds	r1, r2, r2
 8005186:	6439      	str	r1, [r7, #64]	; 0x40
 8005188:	415b      	adcs	r3, r3
 800518a:	647b      	str	r3, [r7, #68]	; 0x44
 800518c:	e9d7 2310 	ldrd	r2, r3, [r7, #64]	; 0x40
 8005190:	1912      	adds	r2, r2, r4
 8005192:	eb45 0303 	adc.w	r3, r5, r3
 8005196:	f04f 0000 	mov.w	r0, #0
 800519a:	f04f 0100 	mov.w	r1, #0
 800519e:	00d9      	lsls	r1, r3, #3
 80051a0:	ea41 7152 	orr.w	r1, r1, r2, lsr #29
 80051a4:	00d0      	lsls	r0, r2, #3
 80051a6:	4602      	mov	r2, r0
 80051a8:	460b      	mov	r3, r1
 80051aa:	1911      	adds	r1, r2, r4
 80051ac:	6639      	str	r1, [r7, #96]	; 0x60
 80051ae:	416b      	adcs	r3, r5
 80051b0:	667b      	str	r3, [r7, #100]	; 0x64
 80051b2:	6efb      	ldr	r3, [r7, #108]	; 0x6c
 80051b4:	685b      	ldr	r3, [r3, #4]
 80051b6:	461a      	mov	r2, r3
 80051b8:	f04f 0300 	mov.w	r3, #0
 80051bc:	1891      	adds	r1, r2, r2
 80051be:	63b9      	str	r1, [r7, #56]	; 0x38
 80051c0:	415b      	adcs	r3, r3
 80051c2:	63fb      	str	r3, [r7, #60]	; 0x3c
 80051c4:	e9d7 230e 	ldrd	r2, r3, [r7, #56]	; 0x38
 80051c8:	e9d7 0118 	ldrd	r0, r1, [r7, #96]	; 0x60
 80051cc:	f7fb fd5c 	bl	8000c88 <__aeabi_uldivmod>
 80051d0:	4602      	mov	r2, r0
 80051d2:	460b      	mov	r3, r1
 80051d4:	4ba5      	ldr	r3, [pc, #660]	; (800546c <UART_SetConfig+0x38c>)
 80051d6:	fba3 2302 	umull	r2, r3, r3, r2
 80051da:	095b      	lsrs	r3, r3, #5
 80051dc:	011e      	lsls	r6, r3, #4
 80051de:	6f7b      	ldr	r3, [r7, #116]	; 0x74
 80051e0:	461c      	mov	r4, r3
 80051e2:	f04f 0500 	mov.w	r5, #0
 80051e6:	4622      	mov	r2, r4
 80051e8:	462b      	mov	r3, r5
 80051ea:	1891      	adds	r1, r2, r2
 80051ec:	6339      	str	r1, [r7, #48]	; 0x30
 80051ee:	415b      	adcs	r3, r3
 80051f0:	637b      	str	r3, [r7, #52]	; 0x34
 80051f2:	e9d7 230c 	ldrd	r2, r3, [r7, #48]	; 0x30
 80051f6:	1912      	adds	r2, r2, r4
 80051f8:	eb45 0303 	adc.w	r3, r5, r3
 80051fc:	f04f 0000 	mov.w	r0, #0
 8005200:	f04f 0100 	mov.w	r1, #0
 8005204:	00d9      	lsls	r1, r3, #3
 8005206:	ea41 7152 	orr.w	r1, r1, r2, lsr #29
 800520a:	00d0      	lsls	r0, r2, #3
 800520c:	4602      	mov	r2, r0
 800520e:	460b      	mov	r3, r1
 8005210:	1911      	adds	r1, r2, r4
 8005212:	65b9      	str	r1, [r7, #88]	; 0x58
 8005214:	416b      	adcs	r3, r5
 8005216:	65fb      	str	r3, [r7, #92]	; 0x5c
 8005218:	6efb      	ldr	r3, [r7, #108]	; 0x6c
 800521a:	685b      	ldr	r3, [r3, #4]
 800521c:	461a      	mov	r2, r3
 800521e:	f04f 0300 	mov.w	r3, #0
 8005222:	1891      	adds	r1, r2, r2
 8005224:	62b9      	str	r1, [r7, #40]	; 0x28
 8005226:	415b      	adcs	r3, r3
 8005228:	62fb      	str	r3, [r7, #44]	; 0x2c
 800522a:	e9d7 230a 	ldrd	r2, r3, [r7, #40]	; 0x28
 800522e:	e9d7 0116 	ldrd	r0, r1, [r7, #88]	; 0x58
 8005232:	f7fb fd29 	bl	8000c88 <__aeabi_uldivmod>
 8005236:	4602      	mov	r2, r0
 8005238:	460b      	mov	r3, r1
 800523a:	4b8c      	ldr	r3, [pc, #560]	; (800546c <UART_SetConfig+0x38c>)
 800523c:	fba3 1302 	umull	r1, r3, r3, r2
 8005240:	095b      	lsrs	r3, r3, #5
 8005242:	2164      	movs	r1, #100	; 0x64
 8005244:	fb01 f303 	mul.w	r3, r1, r3
 8005248:	1ad3      	subs	r3, r2, r3
 800524a:	00db      	lsls	r3, r3, #3
 800524c:	3332      	adds	r3, #50	; 0x32
 800524e:	4a87      	ldr	r2, [pc, #540]	; (800546c <UART_SetConfig+0x38c>)
 8005250:	fba2 2303 	umull	r2, r3, r2, r3
 8005254:	095b      	lsrs	r3, r3, #5
 8005256:	005b      	lsls	r3, r3, #1
 8005258:	f403 73f8 	and.w	r3, r3, #496	; 0x1f0
 800525c:	441e      	add	r6, r3
 800525e:	6f7b      	ldr	r3, [r7, #116]	; 0x74
 8005260:	4618      	mov	r0, r3
 8005262:	f04f 0100 	mov.w	r1, #0
 8005266:	4602      	mov	r2, r0
 8005268:	460b      	mov	r3, r1
 800526a:	1894      	adds	r4, r2, r2
 800526c:	623c      	str	r4, [r7, #32]
 800526e:	415b      	adcs	r3, r3
 8005270:	627b      	str	r3, [r7, #36]	; 0x24
 8005272:	e9d7 2308 	ldrd	r2, r3, [r7, #32]
 8005276:	1812      	adds	r2, r2, r0
 8005278:	eb41 0303 	adc.w	r3, r1, r3
 800527c:	f04f 0400 	mov.w	r4, #0
 8005280:	f04f 0500 	mov.w	r5, #0
 8005284:	00dd      	lsls	r5, r3, #3
 8005286:	ea45 7552 	orr.w	r5, r5, r2, lsr #29
 800528a:	00d4      	lsls	r4, r2, #3
 800528c:	4622      	mov	r2, r4
 800528e:	462b      	mov	r3, r5
 8005290:	1814      	adds	r4, r2, r0
 8005292:	653c      	str	r4, [r7, #80]	; 0x50
 8005294:	414b      	adcs	r3, r1
 8005296:	657b      	str	r3, [r7, #84]	; 0x54
 8005298:	6efb      	ldr	r3, [r7, #108]	; 0x6c
 800529a:	685b      	ldr	r3, [r3, #4]
 800529c:	461a      	mov	r2, r3
 800529e:	f04f 0300 	mov.w	r3, #0
 80052a2:	1891      	adds	r1, r2, r2
 80052a4:	61b9      	str	r1, [r7, #24]
 80052a6:	415b      	adcs	r3, r3
 80052a8:	61fb      	str	r3, [r7, #28]
 80052aa:	e9d7 2306 	ldrd	r2, r3, [r7, #24]
 80052ae:	e9d7 0114 	ldrd	r0, r1, [r7, #80]	; 0x50
 80052b2:	f7fb fce9 	bl	8000c88 <__aeabi_uldivmod>
 80052b6:	4602      	mov	r2, r0
 80052b8:	460b      	mov	r3, r1
 80052ba:	4b6c      	ldr	r3, [pc, #432]	; (800546c <UART_SetConfig+0x38c>)
 80052bc:	fba3 1302 	umull	r1, r3, r3, r2
 80052c0:	095b      	lsrs	r3, r3, #5
 80052c2:	2164      	movs	r1, #100	; 0x64
 80052c4:	fb01 f303 	mul.w	r3, r1, r3
 80052c8:	1ad3      	subs	r3, r2, r3
 80052ca:	00db      	lsls	r3, r3, #3
 80052cc:	3332      	adds	r3, #50	; 0x32
 80052ce:	4a67      	ldr	r2, [pc, #412]	; (800546c <UART_SetConfig+0x38c>)
 80052d0:	fba2 2303 	umull	r2, r3, r2, r3
 80052d4:	095b      	lsrs	r3, r3, #5
 80052d6:	f003 0207 	and.w	r2, r3, #7
 80052da:	6efb      	ldr	r3, [r7, #108]	; 0x6c
 80052dc:	681b      	ldr	r3, [r3, #0]
 80052de:	4432      	add	r2, r6
 80052e0:	609a      	str	r2, [r3, #8]
  }
  else
  {
    huart->Instance->BRR = UART_BRR_SAMPLING16(pclk, huart->Init.BaudRate);
  }
}
 80052e2:	e0b9      	b.n	8005458 <UART_SetConfig+0x378>
    huart->Instance->BRR = UART_BRR_SAMPLING16(pclk, huart->Init.BaudRate);
 80052e4:	6f7b      	ldr	r3, [r7, #116]	; 0x74
 80052e6:	461c      	mov	r4, r3
 80052e8:	f04f 0500 	mov.w	r5, #0
 80052ec:	4622      	mov	r2, r4
 80052ee:	462b      	mov	r3, r5
 80052f0:	1891      	adds	r1, r2, r2
 80052f2:	6139      	str	r1, [r7, #16]
 80052f4:	415b      	adcs	r3, r3
 80052f6:	617b      	str	r3, [r7, #20]
 80052f8:	e9d7 2304 	ldrd	r2, r3, [r7, #16]
 80052fc:	1912      	adds	r2, r2, r4
 80052fe:	eb45 0303 	adc.w	r3, r5, r3
 8005302:	f04f 0000 	mov.w	r0, #0
 8005306:	f04f 0100 	mov.w	r1, #0
 800530a:	00d9      	lsls	r1, r3, #3
 800530c:	ea41 7152 	orr.w	r1, r1, r2, lsr #29
 8005310:	00d0      	lsls	r0, r2, #3
 8005312:	4602      	mov	r2, r0
 8005314:	460b      	mov	r3, r1
 8005316:	eb12 0804 	adds.w	r8, r2, r4
 800531a:	eb43 0905 	adc.w	r9, r3, r5
 800531e:	6efb      	ldr	r3, [r7, #108]	; 0x6c
 8005320:	685b      	ldr	r3, [r3, #4]
 8005322:	4618      	mov	r0, r3
 8005324:	f04f 0100 	mov.w	r1, #0
 8005328:	f04f 0200 	mov.w	r2, #0
 800532c:	f04f 0300 	mov.w	r3, #0
 8005330:	008b      	lsls	r3, r1, #2
 8005332:	ea43 7390 	orr.w	r3, r3, r0, lsr #30
 8005336:	0082      	lsls	r2, r0, #2
 8005338:	4640      	mov	r0, r8
 800533a:	4649      	mov	r1, r9
 800533c:	f7fb fca4 	bl	8000c88 <__aeabi_uldivmod>
 8005340:	4602      	mov	r2, r0
 8005342:	460b      	mov	r3, r1
 8005344:	4b49      	ldr	r3, [pc, #292]	; (800546c <UART_SetConfig+0x38c>)
 8005346:	fba3 2302 	umull	r2, r3, r3, r2
 800534a:	095b      	lsrs	r3, r3, #5
 800534c:	011e      	lsls	r6, r3, #4
 800534e:	6f7b      	ldr	r3, [r7, #116]	; 0x74
 8005350:	4618      	mov	r0, r3
 8005352:	f04f 0100 	mov.w	r1, #0
 8005356:	4602      	mov	r2, r0
 8005358:	460b      	mov	r3, r1
 800535a:	1894      	adds	r4, r2, r2
 800535c:	60bc      	str	r4, [r7, #8]
 800535e:	415b      	adcs	r3, r3
 8005360:	60fb      	str	r3, [r7, #12]
 8005362:	e9d7 2302 	ldrd	r2, r3, [r7, #8]
 8005366:	1812      	adds	r2, r2, r0
 8005368:	eb41 0303 	adc.w	r3, r1, r3
 800536c:	f04f 0400 	mov.w	r4, #0
 8005370:	f04f 0500 	mov.w	r5, #0
 8005374:	00dd      	lsls	r5, r3, #3
 8005376:	ea45 7552 	orr.w	r5, r5, r2, lsr #29
 800537a:	00d4      	lsls	r4, r2, #3
 800537c:	4622      	mov	r2, r4
 800537e:	462b      	mov	r3, r5
 8005380:	1814      	adds	r4, r2, r0
 8005382:	64bc      	str	r4, [r7, #72]	; 0x48
 8005384:	414b      	adcs	r3, r1
 8005386:	64fb      	str	r3, [r7, #76]	; 0x4c
 8005388:	6efb      	ldr	r3, [r7, #108]	; 0x6c
 800538a:	685b      	ldr	r3, [r3, #4]
 800538c:	4618      	mov	r0, r3
 800538e:	f04f 0100 	mov.w	r1, #0
 8005392:	f04f 0200 	mov.w	r2, #0
 8005396:	f04f 0300 	mov.w	r3, #0
 800539a:	008b      	lsls	r3, r1, #2
 800539c:	ea43 7390 	orr.w	r3, r3, r0, lsr #30
 80053a0:	0082      	lsls	r2, r0, #2
 80053a2:	e9d7 0112 	ldrd	r0, r1, [r7, #72]	; 0x48
 80053a6:	f7fb fc6f 	bl	8000c88 <__aeabi_uldivmod>
 80053aa:	4602      	mov	r2, r0
 80053ac:	460b      	mov	r3, r1
 80053ae:	4b2f      	ldr	r3, [pc, #188]	; (800546c <UART_SetConfig+0x38c>)
 80053b0:	fba3 1302 	umull	r1, r3, r3, r2
 80053b4:	095b      	lsrs	r3, r3, #5
 80053b6:	2164      	movs	r1, #100	; 0x64
 80053b8:	fb01 f303 	mul.w	r3, r1, r3
 80053bc:	1ad3      	subs	r3, r2, r3
 80053be:	011b      	lsls	r3, r3, #4
 80053c0:	3332      	adds	r3, #50	; 0x32
 80053c2:	4a2a      	ldr	r2, [pc, #168]	; (800546c <UART_SetConfig+0x38c>)
 80053c4:	fba2 2303 	umull	r2, r3, r2, r3
 80053c8:	095b      	lsrs	r3, r3, #5
 80053ca:	f003 03f0 	and.w	r3, r3, #240	; 0xf0
 80053ce:	441e      	add	r6, r3
 80053d0:	6f7b      	ldr	r3, [r7, #116]	; 0x74
 80053d2:	4618      	mov	r0, r3
 80053d4:	f04f 0100 	mov.w	r1, #0
 80053d8:	4602      	mov	r2, r0
 80053da:	460b      	mov	r3, r1
 80053dc:	1894      	adds	r4, r2, r2
 80053de:	603c      	str	r4, [r7, #0]
 80053e0:	415b      	adcs	r3, r3
 80053e2:	607b      	str	r3, [r7, #4]
 80053e4:	e9d7 2300 	ldrd	r2, r3, [r7]
 80053e8:	1812      	adds	r2, r2, r0
 80053ea:	eb41 0303 	adc.w	r3, r1, r3
 80053ee:	f04f 0400 	mov.w	r4, #0
 80053f2:	f04f 0500 	mov.w	r5, #0
 80053f6:	00dd      	lsls	r5, r3, #3
 80053f8:	ea45 7552 	orr.w	r5, r5, r2, lsr #29
 80053fc:	00d4      	lsls	r4, r2, #3
 80053fe:	4622      	mov	r2, r4
 8005400:	462b      	mov	r3, r5
 8005402:	eb12 0a00 	adds.w	sl, r2, r0
 8005406:	eb43 0b01 	adc.w	fp, r3, r1
 800540a:	6efb      	ldr	r3, [r7, #108]	; 0x6c
 800540c:	685b      	ldr	r3, [r3, #4]
 800540e:	4618      	mov	r0, r3
 8005410:	f04f 0100 	mov.w	r1, #0
 8005414:	f04f 0200 	mov.w	r2, #0
 8005418:	f04f 0300 	mov.w	r3, #0
 800541c:	008b      	lsls	r3, r1, #2
 800541e:	ea43 7390 	orr.w	r3, r3, r0, lsr #30
 8005422:	0082      	lsls	r2, r0, #2
 8005424:	4650      	mov	r0, sl
 8005426:	4659      	mov	r1, fp
 8005428:	f7fb fc2e 	bl	8000c88 <__aeabi_uldivmod>
 800542c:	4602      	mov	r2, r0
 800542e:	460b      	mov	r3, r1
 8005430:	4b0e      	ldr	r3, [pc, #56]	; (800546c <UART_SetConfig+0x38c>)
 8005432:	fba3 1302 	umull	r1, r3, r3, r2
 8005436:	095b      	lsrs	r3, r3, #5
 8005438:	2164      	movs	r1, #100	; 0x64
 800543a:	fb01 f303 	mul.w	r3, r1, r3
 800543e:	1ad3      	subs	r3, r2, r3
 8005440:	011b      	lsls	r3, r3, #4
 8005442:	3332      	adds	r3, #50	; 0x32
 8005444:	4a09      	ldr	r2, [pc, #36]	; (800546c <UART_SetConfig+0x38c>)
 8005446:	fba2 2303 	umull	r2, r3, r2, r3
 800544a:	095b      	lsrs	r3, r3, #5
 800544c:	f003 020f 	and.w	r2, r3, #15
 8005450:	6efb      	ldr	r3, [r7, #108]	; 0x6c
 8005452:	681b      	ldr	r3, [r3, #0]
 8005454:	4432      	add	r2, r6
 8005456:	609a      	str	r2, [r3, #8]
}
 8005458:	bf00      	nop
 800545a:	377c      	adds	r7, #124	; 0x7c
 800545c:	46bd      	mov	sp, r7
 800545e:	e8bd 8ff0 	ldmia.w	sp!, {r4, r5, r6, r7, r8, r9, sl, fp, pc}
 8005462:	bf00      	nop
 8005464:	40011000 	.word	0x40011000
 8005468:	40011400 	.word	0x40011400
 800546c:	51eb851f 	.word	0x51eb851f

08005470 <DWT_Delay_us>:
uint32_t DWT_Delay_Init(void);


// This Function Provides Delay In Microseconds Using DWT
__STATIC_INLINE void DWT_Delay_us(volatile uint32_t au32_microseconds)
{
 8005470:	b580      	push	{r7, lr}
 8005472:	b084      	sub	sp, #16
 8005474:	af00      	add	r7, sp, #0
 8005476:	6078      	str	r0, [r7, #4]
  uint32_t au32_initial_ticks = DWT->CYCCNT;
 8005478:	4b0f      	ldr	r3, [pc, #60]	; (80054b8 <DWT_Delay_us+0x48>)
 800547a:	685b      	ldr	r3, [r3, #4]
 800547c:	60fb      	str	r3, [r7, #12]
  uint32_t au32_ticks = (HAL_RCC_GetHCLKFreq() / 1000000);
 800547e:	f7fd fc57 	bl	8002d30 <HAL_RCC_GetHCLKFreq>
 8005482:	4603      	mov	r3, r0
 8005484:	4a0d      	ldr	r2, [pc, #52]	; (80054bc <DWT_Delay_us+0x4c>)
 8005486:	fba2 2303 	umull	r2, r3, r2, r3
 800548a:	0c9b      	lsrs	r3, r3, #18
 800548c:	60bb      	str	r3, [r7, #8]
  au32_microseconds *= au32_ticks;
 800548e:	687b      	ldr	r3, [r7, #4]
 8005490:	68ba      	ldr	r2, [r7, #8]
 8005492:	fb02 f303 	mul.w	r3, r2, r3
 8005496:	607b      	str	r3, [r7, #4]
  while ((DWT->CYCCNT - au32_initial_ticks) < au32_microseconds-au32_ticks);
 8005498:	bf00      	nop
 800549a:	4b07      	ldr	r3, [pc, #28]	; (80054b8 <DWT_Delay_us+0x48>)
 800549c:	685a      	ldr	r2, [r3, #4]
 800549e:	68fb      	ldr	r3, [r7, #12]
 80054a0:	1ad2      	subs	r2, r2, r3
 80054a2:	6879      	ldr	r1, [r7, #4]
 80054a4:	68bb      	ldr	r3, [r7, #8]
 80054a6:	1acb      	subs	r3, r1, r3
 80054a8:	429a      	cmp	r2, r3
 80054aa:	d3f6      	bcc.n	800549a <DWT_Delay_us+0x2a>
}
 80054ac:	bf00      	nop
 80054ae:	bf00      	nop
 80054b0:	3710      	adds	r7, #16
 80054b2:	46bd      	mov	sp, r7
 80054b4:	bd80      	pop	{r7, pc}
 80054b6:	bf00      	nop
 80054b8:	e0001000 	.word	0xe0001000
 80054bc:	431bde83 	.word	0x431bde83

080054c0 <HCSR04_Init>:
static HCSR04_info gs_HCSR04_info[HCSR04_UNITS] = {0};



void HCSR04_Init(uint8_t au8_HCSR04_Instance, TIM_HandleTypeDef* TMR_Handle)
{
 80054c0:	b580      	push	{r7, lr}
 80054c2:	b096      	sub	sp, #88	; 0x58
 80054c4:	af00      	add	r7, sp, #0
 80054c6:	4603      	mov	r3, r0
 80054c8:	6039      	str	r1, [r7, #0]
 80054ca:	71fb      	strb	r3, [r7, #7]
	GPIO_InitTypeDef TRIG_GPIO_InitStruct = {0};
 80054cc:	f107 0344 	add.w	r3, r7, #68	; 0x44
 80054d0:	2200      	movs	r2, #0
 80054d2:	601a      	str	r2, [r3, #0]
 80054d4:	605a      	str	r2, [r3, #4]
 80054d6:	609a      	str	r2, [r3, #8]
 80054d8:	60da      	str	r2, [r3, #12]
 80054da:	611a      	str	r2, [r3, #16]
	TIM_ClockConfigTypeDef sClockSourceConfig = {0};
 80054dc:	f107 0334 	add.w	r3, r7, #52	; 0x34
 80054e0:	2200      	movs	r2, #0
 80054e2:	601a      	str	r2, [r3, #0]
 80054e4:	605a      	str	r2, [r3, #4]
 80054e6:	609a      	str	r2, [r3, #8]
 80054e8:	60da      	str	r2, [r3, #12]
	TIM_MasterConfigTypeDef sMasterConfig = {0};
 80054ea:	f107 032c 	add.w	r3, r7, #44	; 0x2c
 80054ee:	2200      	movs	r2, #0
 80054f0:	601a      	str	r2, [r3, #0]
 80054f2:	605a      	str	r2, [r3, #4]
	TIM_IC_InitTypeDef sConfigIC = {0};
 80054f4:	f107 031c 	add.w	r3, r7, #28
 80054f8:	2200      	movs	r2, #0
 80054fa:	601a      	str	r2, [r3, #0]
 80054fc:	605a      	str	r2, [r3, #4]
 80054fe:	609a      	str	r2, [r3, #8]
 8005500:	60da      	str	r2, [r3, #12]

    DWT_Delay_Init();
 8005502:	f000 fc9f 	bl	8005e44 <DWT_Delay_Init>

	/*--------[ Configure The HCSR04 TRIGGER GPIO Pin ]-------*/

    if(HCSR04_CfgParam[au8_HCSR04_Instance].TRIG_GPIO == GPIOA)
 8005506:	79fa      	ldrb	r2, [r7, #7]
 8005508:	4997      	ldr	r1, [pc, #604]	; (8005768 <HCSR04_Init+0x2a8>)
 800550a:	4613      	mov	r3, r2
 800550c:	009b      	lsls	r3, r3, #2
 800550e:	4413      	add	r3, r2
 8005510:	009b      	lsls	r3, r3, #2
 8005512:	440b      	add	r3, r1
 8005514:	681b      	ldr	r3, [r3, #0]
 8005516:	4a95      	ldr	r2, [pc, #596]	; (800576c <HCSR04_Init+0x2ac>)
 8005518:	4293      	cmp	r3, r2
 800551a:	d10e      	bne.n	800553a <HCSR04_Init+0x7a>
    {
    	__HAL_RCC_GPIOA_CLK_ENABLE();
 800551c:	2300      	movs	r3, #0
 800551e:	61bb      	str	r3, [r7, #24]
 8005520:	4b93      	ldr	r3, [pc, #588]	; (8005770 <HCSR04_Init+0x2b0>)
 8005522:	6b1b      	ldr	r3, [r3, #48]	; 0x30
 8005524:	4a92      	ldr	r2, [pc, #584]	; (8005770 <HCSR04_Init+0x2b0>)
 8005526:	f043 0301 	orr.w	r3, r3, #1
 800552a:	6313      	str	r3, [r2, #48]	; 0x30
 800552c:	4b90      	ldr	r3, [pc, #576]	; (8005770 <HCSR04_Init+0x2b0>)
 800552e:	6b1b      	ldr	r3, [r3, #48]	; 0x30
 8005530:	f003 0301 	and.w	r3, r3, #1
 8005534:	61bb      	str	r3, [r7, #24]
 8005536:	69bb      	ldr	r3, [r7, #24]
 8005538:	e066      	b.n	8005608 <HCSR04_Init+0x148>
    }
    else if(HCSR04_CfgParam[au8_HCSR04_Instance].TRIG_GPIO == GPIOB)
 800553a:	79fa      	ldrb	r2, [r7, #7]
 800553c:	498a      	ldr	r1, [pc, #552]	; (8005768 <HCSR04_Init+0x2a8>)
 800553e:	4613      	mov	r3, r2
 8005540:	009b      	lsls	r3, r3, #2
 8005542:	4413      	add	r3, r2
 8005544:	009b      	lsls	r3, r3, #2
 8005546:	440b      	add	r3, r1
 8005548:	681b      	ldr	r3, [r3, #0]
 800554a:	4a8a      	ldr	r2, [pc, #552]	; (8005774 <HCSR04_Init+0x2b4>)
 800554c:	4293      	cmp	r3, r2
 800554e:	d10e      	bne.n	800556e <HCSR04_Init+0xae>
    {
    	__HAL_RCC_GPIOB_CLK_ENABLE();
 8005550:	2300      	movs	r3, #0
 8005552:	617b      	str	r3, [r7, #20]
 8005554:	4b86      	ldr	r3, [pc, #536]	; (8005770 <HCSR04_Init+0x2b0>)
 8005556:	6b1b      	ldr	r3, [r3, #48]	; 0x30
 8005558:	4a85      	ldr	r2, [pc, #532]	; (8005770 <HCSR04_Init+0x2b0>)
 800555a:	f043 0302 	orr.w	r3, r3, #2
 800555e:	6313      	str	r3, [r2, #48]	; 0x30
 8005560:	4b83      	ldr	r3, [pc, #524]	; (8005770 <HCSR04_Init+0x2b0>)
 8005562:	6b1b      	ldr	r3, [r3, #48]	; 0x30
 8005564:	f003 0302 	and.w	r3, r3, #2
 8005568:	617b      	str	r3, [r7, #20]
 800556a:	697b      	ldr	r3, [r7, #20]
 800556c:	e04c      	b.n	8005608 <HCSR04_Init+0x148>
    }
    else if(HCSR04_CfgParam[au8_HCSR04_Instance].TRIG_GPIO == GPIOC)
 800556e:	79fa      	ldrb	r2, [r7, #7]
 8005570:	497d      	ldr	r1, [pc, #500]	; (8005768 <HCSR04_Init+0x2a8>)
 8005572:	4613      	mov	r3, r2
 8005574:	009b      	lsls	r3, r3, #2
 8005576:	4413      	add	r3, r2
 8005578:	009b      	lsls	r3, r3, #2
 800557a:	440b      	add	r3, r1
 800557c:	681b      	ldr	r3, [r3, #0]
 800557e:	4a7e      	ldr	r2, [pc, #504]	; (8005778 <HCSR04_Init+0x2b8>)
 8005580:	4293      	cmp	r3, r2
 8005582:	d10e      	bne.n	80055a2 <HCSR04_Init+0xe2>
    {
        __HAL_RCC_GPIOC_CLK_ENABLE();
 8005584:	2300      	movs	r3, #0
 8005586:	613b      	str	r3, [r7, #16]
 8005588:	4b79      	ldr	r3, [pc, #484]	; (8005770 <HCSR04_Init+0x2b0>)
 800558a:	6b1b      	ldr	r3, [r3, #48]	; 0x30
 800558c:	4a78      	ldr	r2, [pc, #480]	; (8005770 <HCSR04_Init+0x2b0>)
 800558e:	f043 0304 	orr.w	r3, r3, #4
 8005592:	6313      	str	r3, [r2, #48]	; 0x30
 8005594:	4b76      	ldr	r3, [pc, #472]	; (8005770 <HCSR04_Init+0x2b0>)
 8005596:	6b1b      	ldr	r3, [r3, #48]	; 0x30
 8005598:	f003 0304 	and.w	r3, r3, #4
 800559c:	613b      	str	r3, [r7, #16]
 800559e:	693b      	ldr	r3, [r7, #16]
 80055a0:	e032      	b.n	8005608 <HCSR04_Init+0x148>
    }
    else if(HCSR04_CfgParam[au8_HCSR04_Instance].TRIG_GPIO == GPIOD)
 80055a2:	79fa      	ldrb	r2, [r7, #7]
 80055a4:	4970      	ldr	r1, [pc, #448]	; (8005768 <HCSR04_Init+0x2a8>)
 80055a6:	4613      	mov	r3, r2
 80055a8:	009b      	lsls	r3, r3, #2
 80055aa:	4413      	add	r3, r2
 80055ac:	009b      	lsls	r3, r3, #2
 80055ae:	440b      	add	r3, r1
 80055b0:	681b      	ldr	r3, [r3, #0]
 80055b2:	4a72      	ldr	r2, [pc, #456]	; (800577c <HCSR04_Init+0x2bc>)
 80055b4:	4293      	cmp	r3, r2
 80055b6:	d10e      	bne.n	80055d6 <HCSR04_Init+0x116>
    {
        __HAL_RCC_GPIOD_CLK_ENABLE();
 80055b8:	2300      	movs	r3, #0
 80055ba:	60fb      	str	r3, [r7, #12]
 80055bc:	4b6c      	ldr	r3, [pc, #432]	; (8005770 <HCSR04_Init+0x2b0>)
 80055be:	6b1b      	ldr	r3, [r3, #48]	; 0x30
 80055c0:	4a6b      	ldr	r2, [pc, #428]	; (8005770 <HCSR04_Init+0x2b0>)
 80055c2:	f043 0308 	orr.w	r3, r3, #8
 80055c6:	6313      	str	r3, [r2, #48]	; 0x30
 80055c8:	4b69      	ldr	r3, [pc, #420]	; (8005770 <HCSR04_Init+0x2b0>)
 80055ca:	6b1b      	ldr	r3, [r3, #48]	; 0x30
 80055cc:	f003 0308 	and.w	r3, r3, #8
 80055d0:	60fb      	str	r3, [r7, #12]
 80055d2:	68fb      	ldr	r3, [r7, #12]
 80055d4:	e018      	b.n	8005608 <HCSR04_Init+0x148>
    }
    else if(HCSR04_CfgParam[au8_HCSR04_Instance].TRIG_GPIO == GPIOE)
 80055d6:	79fa      	ldrb	r2, [r7, #7]
 80055d8:	4963      	ldr	r1, [pc, #396]	; (8005768 <HCSR04_Init+0x2a8>)
 80055da:	4613      	mov	r3, r2
 80055dc:	009b      	lsls	r3, r3, #2
 80055de:	4413      	add	r3, r2
 80055e0:	009b      	lsls	r3, r3, #2
 80055e2:	440b      	add	r3, r1
 80055e4:	681b      	ldr	r3, [r3, #0]
 80055e6:	4a66      	ldr	r2, [pc, #408]	; (8005780 <HCSR04_Init+0x2c0>)
 80055e8:	4293      	cmp	r3, r2
 80055ea:	d10d      	bne.n	8005608 <HCSR04_Init+0x148>
    {
        __HAL_RCC_GPIOE_CLK_ENABLE();
 80055ec:	2300      	movs	r3, #0
 80055ee:	60bb      	str	r3, [r7, #8]
 80055f0:	4b5f      	ldr	r3, [pc, #380]	; (8005770 <HCSR04_Init+0x2b0>)
 80055f2:	6b1b      	ldr	r3, [r3, #48]	; 0x30
 80055f4:	4a5e      	ldr	r2, [pc, #376]	; (8005770 <HCSR04_Init+0x2b0>)
 80055f6:	f043 0310 	orr.w	r3, r3, #16
 80055fa:	6313      	str	r3, [r2, #48]	; 0x30
 80055fc:	4b5c      	ldr	r3, [pc, #368]	; (8005770 <HCSR04_Init+0x2b0>)
 80055fe:	6b1b      	ldr	r3, [r3, #48]	; 0x30
 8005600:	f003 0310 	and.w	r3, r3, #16
 8005604:	60bb      	str	r3, [r7, #8]
 8005606:	68bb      	ldr	r3, [r7, #8]
    }
    TRIG_GPIO_InitStruct.Pin = HCSR04_CfgParam[au8_HCSR04_Instance].TRIG_PIN;
 8005608:	79fa      	ldrb	r2, [r7, #7]
 800560a:	4957      	ldr	r1, [pc, #348]	; (8005768 <HCSR04_Init+0x2a8>)
 800560c:	4613      	mov	r3, r2
 800560e:	009b      	lsls	r3, r3, #2
 8005610:	4413      	add	r3, r2
 8005612:	009b      	lsls	r3, r3, #2
 8005614:	440b      	add	r3, r1
 8005616:	3304      	adds	r3, #4
 8005618:	881b      	ldrh	r3, [r3, #0]
 800561a:	647b      	str	r3, [r7, #68]	; 0x44
    TRIG_GPIO_InitStruct.Mode = GPIO_MODE_OUTPUT_PP;
 800561c:	2301      	movs	r3, #1
 800561e:	64bb      	str	r3, [r7, #72]	; 0x48
    TRIG_GPIO_InitStruct.Pull = GPIO_NOPULL;
 8005620:	2300      	movs	r3, #0
 8005622:	64fb      	str	r3, [r7, #76]	; 0x4c
    TRIG_GPIO_InitStruct.Speed = GPIO_SPEED_FREQ_LOW;
 8005624:	2300      	movs	r3, #0
 8005626:	653b      	str	r3, [r7, #80]	; 0x50
	HAL_GPIO_Init(HCSR04_CfgParam[au8_HCSR04_Instance].TRIG_GPIO, &TRIG_GPIO_InitStruct);
 8005628:	79fa      	ldrb	r2, [r7, #7]
 800562a:	494f      	ldr	r1, [pc, #316]	; (8005768 <HCSR04_Init+0x2a8>)
 800562c:	4613      	mov	r3, r2
 800562e:	009b      	lsls	r3, r3, #2
 8005630:	4413      	add	r3, r2
 8005632:	009b      	lsls	r3, r3, #2
 8005634:	440b      	add	r3, r1
 8005636:	681b      	ldr	r3, [r3, #0]
 8005638:	f107 0244 	add.w	r2, r7, #68	; 0x44
 800563c:	4611      	mov	r1, r2
 800563e:	4618      	mov	r0, r3
 8005640:	f7fd f8e2 	bl	8002808 <HAL_GPIO_Init>

	/*--------[ Initialize The HCSR04 Static Global Info ]-------*/

	gs_HCSR04_info[au8_HCSR04_Instance].TMR_PSC = HCSR04_CfgParam[au8_HCSR04_Instance].TIM_Instance->PSC;
 8005644:	79fa      	ldrb	r2, [r7, #7]
 8005646:	4948      	ldr	r1, [pc, #288]	; (8005768 <HCSR04_Init+0x2a8>)
 8005648:	4613      	mov	r3, r2
 800564a:	009b      	lsls	r3, r3, #2
 800564c:	4413      	add	r3, r2
 800564e:	009b      	lsls	r3, r3, #2
 8005650:	440b      	add	r3, r1
 8005652:	3308      	adds	r3, #8
 8005654:	681b      	ldr	r3, [r3, #0]
 8005656:	79fa      	ldrb	r2, [r7, #7]
 8005658:	6a99      	ldr	r1, [r3, #40]	; 0x28
 800565a:	484a      	ldr	r0, [pc, #296]	; (8005784 <HCSR04_Init+0x2c4>)
 800565c:	4613      	mov	r3, r2
 800565e:	00db      	lsls	r3, r3, #3
 8005660:	4413      	add	r3, r2
 8005662:	009b      	lsls	r3, r3, #2
 8005664:	4403      	add	r3, r0
 8005666:	3304      	adds	r3, #4
 8005668:	6019      	str	r1, [r3, #0]
	gs_HCSR04_info[au8_HCSR04_Instance].TMR_ARR = HCSR04_CfgParam[au8_HCSR04_Instance].TIM_Instance->ARR;
 800566a:	79fa      	ldrb	r2, [r7, #7]
 800566c:	493e      	ldr	r1, [pc, #248]	; (8005768 <HCSR04_Init+0x2a8>)
 800566e:	4613      	mov	r3, r2
 8005670:	009b      	lsls	r3, r3, #2
 8005672:	4413      	add	r3, r2
 8005674:	009b      	lsls	r3, r3, #2
 8005676:	440b      	add	r3, r1
 8005678:	3308      	adds	r3, #8
 800567a:	681b      	ldr	r3, [r3, #0]
 800567c:	79fa      	ldrb	r2, [r7, #7]
 800567e:	6ad9      	ldr	r1, [r3, #44]	; 0x2c
 8005680:	4840      	ldr	r0, [pc, #256]	; (8005784 <HCSR04_Init+0x2c4>)
 8005682:	4613      	mov	r3, r2
 8005684:	00db      	lsls	r3, r3, #3
 8005686:	4413      	add	r3, r2
 8005688:	009b      	lsls	r3, r3, #2
 800568a:	4403      	add	r3, r0
 800568c:	3308      	adds	r3, #8
 800568e:	6019      	str	r1, [r3, #0]
	gs_HCSR04_info[au8_HCSR04_Instance].TMR_OVC = 0;
 8005690:	79fa      	ldrb	r2, [r7, #7]
 8005692:	493c      	ldr	r1, [pc, #240]	; (8005784 <HCSR04_Init+0x2c4>)
 8005694:	4613      	mov	r3, r2
 8005696:	00db      	lsls	r3, r3, #3
 8005698:	4413      	add	r3, r2
 800569a:	009b      	lsls	r3, r3, #2
 800569c:	440b      	add	r3, r1
 800569e:	3302      	adds	r3, #2
 80056a0:	2200      	movs	r2, #0
 80056a2:	801a      	strh	r2, [r3, #0]
		gs_HCSR04_info[au8_HCSR04_Instance].HTIM = TMR_Handle;
 80056a4:	79fa      	ldrb	r2, [r7, #7]
 80056a6:	4937      	ldr	r1, [pc, #220]	; (8005784 <HCSR04_Init+0x2c4>)
 80056a8:	4613      	mov	r3, r2
 80056aa:	00db      	lsls	r3, r3, #3
 80056ac:	4413      	add	r3, r2
 80056ae:	009b      	lsls	r3, r3, #2
 80056b0:	440b      	add	r3, r1
 80056b2:	331c      	adds	r3, #28
 80056b4:	683a      	ldr	r2, [r7, #0]
 80056b6:	601a      	str	r2, [r3, #0]
	if(gs_HCSR04_info[au8_HCSR04_Instance].TMR_ARR == 0)
 80056b8:	79fa      	ldrb	r2, [r7, #7]
 80056ba:	4932      	ldr	r1, [pc, #200]	; (8005784 <HCSR04_Init+0x2c4>)
 80056bc:	4613      	mov	r3, r2
 80056be:	00db      	lsls	r3, r3, #3
 80056c0:	4413      	add	r3, r2
 80056c2:	009b      	lsls	r3, r3, #2
 80056c4:	440b      	add	r3, r1
 80056c6:	3308      	adds	r3, #8
 80056c8:	681b      	ldr	r3, [r3, #0]
 80056ca:	2b00      	cmp	r3, #0
 80056cc:	d10a      	bne.n	80056e4 <HCSR04_Init+0x224>
	{
		gs_HCSR04_info[au8_HCSR04_Instance].TMR_ARR = 65535;
 80056ce:	79fa      	ldrb	r2, [r7, #7]
 80056d0:	492c      	ldr	r1, [pc, #176]	; (8005784 <HCSR04_Init+0x2c4>)
 80056d2:	4613      	mov	r3, r2
 80056d4:	00db      	lsls	r3, r3, #3
 80056d6:	4413      	add	r3, r2
 80056d8:	009b      	lsls	r3, r3, #2
 80056da:	440b      	add	r3, r1
 80056dc:	3308      	adds	r3, #8
 80056de:	f64f 72ff 	movw	r2, #65535	; 0xffff
 80056e2:	601a      	str	r2, [r3, #0]
	}
	if(HCSR04_CfgParam[au8_HCSR04_Instance].IC_TIM_CH == TIM_CHANNEL_1)
 80056e4:	79fa      	ldrb	r2, [r7, #7]
 80056e6:	4920      	ldr	r1, [pc, #128]	; (8005768 <HCSR04_Init+0x2a8>)
 80056e8:	4613      	mov	r3, r2
 80056ea:	009b      	lsls	r3, r3, #2
 80056ec:	4413      	add	r3, r2
 80056ee:	009b      	lsls	r3, r3, #2
 80056f0:	440b      	add	r3, r1
 80056f2:	330c      	adds	r3, #12
 80056f4:	681b      	ldr	r3, [r3, #0]
 80056f6:	2b00      	cmp	r3, #0
 80056f8:	d10a      	bne.n	8005710 <HCSR04_Init+0x250>
	{
		gs_HCSR04_info[au8_HCSR04_Instance].ACTIV_CH = HAL_TIM_ACTIVE_CHANNEL_1;
 80056fa:	79fa      	ldrb	r2, [r7, #7]
 80056fc:	4921      	ldr	r1, [pc, #132]	; (8005784 <HCSR04_Init+0x2c4>)
 80056fe:	4613      	mov	r3, r2
 8005700:	00db      	lsls	r3, r3, #3
 8005702:	4413      	add	r3, r2
 8005704:	009b      	lsls	r3, r3, #2
 8005706:	440b      	add	r3, r1
 8005708:	3320      	adds	r3, #32
 800570a:	2201      	movs	r2, #1
 800570c:	701a      	strb	r2, [r3, #0]
 800570e:	e050      	b.n	80057b2 <HCSR04_Init+0x2f2>
	}
	else if(HCSR04_CfgParam[au8_HCSR04_Instance].IC_TIM_CH == TIM_CHANNEL_2)
 8005710:	79fa      	ldrb	r2, [r7, #7]
 8005712:	4915      	ldr	r1, [pc, #84]	; (8005768 <HCSR04_Init+0x2a8>)
 8005714:	4613      	mov	r3, r2
 8005716:	009b      	lsls	r3, r3, #2
 8005718:	4413      	add	r3, r2
 800571a:	009b      	lsls	r3, r3, #2
 800571c:	440b      	add	r3, r1
 800571e:	330c      	adds	r3, #12
 8005720:	681b      	ldr	r3, [r3, #0]
 8005722:	2b04      	cmp	r3, #4
 8005724:	d10a      	bne.n	800573c <HCSR04_Init+0x27c>
	{
		gs_HCSR04_info[au8_HCSR04_Instance].ACTIV_CH = HAL_TIM_ACTIVE_CHANNEL_2;
 8005726:	79fa      	ldrb	r2, [r7, #7]
 8005728:	4916      	ldr	r1, [pc, #88]	; (8005784 <HCSR04_Init+0x2c4>)
 800572a:	4613      	mov	r3, r2
 800572c:	00db      	lsls	r3, r3, #3
 800572e:	4413      	add	r3, r2
 8005730:	009b      	lsls	r3, r3, #2
 8005732:	440b      	add	r3, r1
 8005734:	3320      	adds	r3, #32
 8005736:	2202      	movs	r2, #2
 8005738:	701a      	strb	r2, [r3, #0]
 800573a:	e03a      	b.n	80057b2 <HCSR04_Init+0x2f2>
	}
	else if(HCSR04_CfgParam[au8_HCSR04_Instance].IC_TIM_CH == TIM_CHANNEL_3)
 800573c:	79fa      	ldrb	r2, [r7, #7]
 800573e:	490a      	ldr	r1, [pc, #40]	; (8005768 <HCSR04_Init+0x2a8>)
 8005740:	4613      	mov	r3, r2
 8005742:	009b      	lsls	r3, r3, #2
 8005744:	4413      	add	r3, r2
 8005746:	009b      	lsls	r3, r3, #2
 8005748:	440b      	add	r3, r1
 800574a:	330c      	adds	r3, #12
 800574c:	681b      	ldr	r3, [r3, #0]
 800574e:	2b08      	cmp	r3, #8
 8005750:	d11a      	bne.n	8005788 <HCSR04_Init+0x2c8>
	{
		gs_HCSR04_info[au8_HCSR04_Instance].ACTIV_CH = HAL_TIM_ACTIVE_CHANNEL_3;
 8005752:	79fa      	ldrb	r2, [r7, #7]
 8005754:	490b      	ldr	r1, [pc, #44]	; (8005784 <HCSR04_Init+0x2c4>)
 8005756:	4613      	mov	r3, r2
 8005758:	00db      	lsls	r3, r3, #3
 800575a:	4413      	add	r3, r2
 800575c:	009b      	lsls	r3, r3, #2
 800575e:	440b      	add	r3, r1
 8005760:	3320      	adds	r3, #32
 8005762:	2204      	movs	r2, #4
 8005764:	701a      	strb	r2, [r3, #0]
 8005766:	e024      	b.n	80057b2 <HCSR04_Init+0x2f2>
 8005768:	08008ce4 	.word	0x08008ce4
 800576c:	40020000 	.word	0x40020000
 8005770:	40023800 	.word	0x40023800
 8005774:	40020400 	.word	0x40020400
 8005778:	40020800 	.word	0x40020800
 800577c:	40020c00 	.word	0x40020c00
 8005780:	40021000 	.word	0x40021000
 8005784:	20000224 	.word	0x20000224
	}
	else if(HCSR04_CfgParam[au8_HCSR04_Instance].IC_TIM_CH == TIM_CHANNEL_4)
 8005788:	79fa      	ldrb	r2, [r7, #7]
 800578a:	4941      	ldr	r1, [pc, #260]	; (8005890 <HCSR04_Init+0x3d0>)
 800578c:	4613      	mov	r3, r2
 800578e:	009b      	lsls	r3, r3, #2
 8005790:	4413      	add	r3, r2
 8005792:	009b      	lsls	r3, r3, #2
 8005794:	440b      	add	r3, r1
 8005796:	330c      	adds	r3, #12
 8005798:	681b      	ldr	r3, [r3, #0]
 800579a:	2b0c      	cmp	r3, #12
 800579c:	d109      	bne.n	80057b2 <HCSR04_Init+0x2f2>
	{
		gs_HCSR04_info[au8_HCSR04_Instance].ACTIV_CH = HAL_TIM_ACTIVE_CHANNEL_4;
 800579e:	79fa      	ldrb	r2, [r7, #7]
 80057a0:	493c      	ldr	r1, [pc, #240]	; (8005894 <HCSR04_Init+0x3d4>)
 80057a2:	4613      	mov	r3, r2
 80057a4:	00db      	lsls	r3, r3, #3
 80057a6:	4413      	add	r3, r2
 80057a8:	009b      	lsls	r3, r3, #2
 80057aa:	440b      	add	r3, r1
 80057ac:	3320      	adds	r3, #32
 80057ae:	2208      	movs	r2, #8
 80057b0:	701a      	strb	r2, [r3, #0]
	}

	/*--------[ Configure The HCSR04 IC Timer Channel ]-------*/

	TMR_Handle->Instance = HCSR04_CfgParam[au8_HCSR04_Instance].TIM_Instance;
 80057b2:	79fa      	ldrb	r2, [r7, #7]
 80057b4:	4936      	ldr	r1, [pc, #216]	; (8005890 <HCSR04_Init+0x3d0>)
 80057b6:	4613      	mov	r3, r2
 80057b8:	009b      	lsls	r3, r3, #2
 80057ba:	4413      	add	r3, r2
 80057bc:	009b      	lsls	r3, r3, #2
 80057be:	440b      	add	r3, r1
 80057c0:	3308      	adds	r3, #8
 80057c2:	681a      	ldr	r2, [r3, #0]
 80057c4:	683b      	ldr	r3, [r7, #0]
 80057c6:	601a      	str	r2, [r3, #0]
	TMR_Handle->Init.Prescaler = gs_HCSR04_info[au8_HCSR04_Instance].TMR_PSC;
 80057c8:	79fa      	ldrb	r2, [r7, #7]
 80057ca:	4932      	ldr	r1, [pc, #200]	; (8005894 <HCSR04_Init+0x3d4>)
 80057cc:	4613      	mov	r3, r2
 80057ce:	00db      	lsls	r3, r3, #3
 80057d0:	4413      	add	r3, r2
 80057d2:	009b      	lsls	r3, r3, #2
 80057d4:	440b      	add	r3, r1
 80057d6:	3304      	adds	r3, #4
 80057d8:	681a      	ldr	r2, [r3, #0]
 80057da:	683b      	ldr	r3, [r7, #0]
 80057dc:	605a      	str	r2, [r3, #4]
	TMR_Handle->Init.CounterMode = TIM_COUNTERMODE_UP;
 80057de:	683b      	ldr	r3, [r7, #0]
 80057e0:	2200      	movs	r2, #0
 80057e2:	609a      	str	r2, [r3, #8]
	TMR_Handle->Init.Period = gs_HCSR04_info[au8_HCSR04_Instance].TMR_ARR;
 80057e4:	79fa      	ldrb	r2, [r7, #7]
 80057e6:	492b      	ldr	r1, [pc, #172]	; (8005894 <HCSR04_Init+0x3d4>)
 80057e8:	4613      	mov	r3, r2
 80057ea:	00db      	lsls	r3, r3, #3
 80057ec:	4413      	add	r3, r2
 80057ee:	009b      	lsls	r3, r3, #2
 80057f0:	440b      	add	r3, r1
 80057f2:	3308      	adds	r3, #8
 80057f4:	681a      	ldr	r2, [r3, #0]
 80057f6:	683b      	ldr	r3, [r7, #0]
 80057f8:	60da      	str	r2, [r3, #12]
	TMR_Handle->Init.ClockDivision = TIM_CLOCKDIVISION_DIV1;
 80057fa:	683b      	ldr	r3, [r7, #0]
 80057fc:	2200      	movs	r2, #0
 80057fe:	611a      	str	r2, [r3, #16]
	TMR_Handle->Init.AutoReloadPreload = TIM_AUTORELOAD_PRELOAD_ENABLE;
 8005800:	683b      	ldr	r3, [r7, #0]
 8005802:	2280      	movs	r2, #128	; 0x80
 8005804:	619a      	str	r2, [r3, #24]
	HAL_TIM_Base_Init(TMR_Handle);
 8005806:	6838      	ldr	r0, [r7, #0]
 8005808:	f7fd ff16 	bl	8003638 <HAL_TIM_Base_Init>
	sClockSourceConfig.ClockSource = TIM_CLOCKSOURCE_INTERNAL;
 800580c:	f44f 5380 	mov.w	r3, #4096	; 0x1000
 8005810:	637b      	str	r3, [r7, #52]	; 0x34
	HAL_TIM_ConfigClockSource(TMR_Handle, &sClockSourceConfig);
 8005812:	f107 0334 	add.w	r3, r7, #52	; 0x34
 8005816:	4619      	mov	r1, r3
 8005818:	6838      	ldr	r0, [r7, #0]
 800581a:	f7fe fccd 	bl	80041b8 <HAL_TIM_ConfigClockSource>
	HAL_TIM_IC_Init(TMR_Handle);
 800581e:	6838      	ldr	r0, [r7, #0]
 8005820:	f7fe f8e2 	bl	80039e8 <HAL_TIM_IC_Init>
	sMasterConfig.MasterOutputTrigger = TIM_TRGO_RESET;
 8005824:	2300      	movs	r3, #0
 8005826:	62fb      	str	r3, [r7, #44]	; 0x2c
	sMasterConfig.MasterSlaveMode = TIM_MASTERSLAVEMODE_DISABLE;
 8005828:	2300      	movs	r3, #0
 800582a:	633b      	str	r3, [r7, #48]	; 0x30
	HAL_TIMEx_MasterConfigSynchronization(TMR_Handle, &sMasterConfig);
 800582c:	f107 032c 	add.w	r3, r7, #44	; 0x2c
 8005830:	4619      	mov	r1, r3
 8005832:	6838      	ldr	r0, [r7, #0]
 8005834:	f7ff fa24 	bl	8004c80 <HAL_TIMEx_MasterConfigSynchronization>
	sConfigIC.ICPolarity = TIM_INPUTCHANNELPOLARITY_RISING;
 8005838:	2300      	movs	r3, #0
 800583a:	61fb      	str	r3, [r7, #28]
	sConfigIC.ICSelection = TIM_ICSELECTION_DIRECTTI;
 800583c:	2301      	movs	r3, #1
 800583e:	623b      	str	r3, [r7, #32]
	sConfigIC.ICPrescaler = TIM_ICPSC_DIV1;
 8005840:	2300      	movs	r3, #0
 8005842:	627b      	str	r3, [r7, #36]	; 0x24
	sConfigIC.ICFilter = 0;
 8005844:	2300      	movs	r3, #0
 8005846:	62bb      	str	r3, [r7, #40]	; 0x28
	HAL_TIM_IC_ConfigChannel(TMR_Handle, &sConfigIC, HCSR04_CfgParam[au8_HCSR04_Instance].IC_TIM_CH);
 8005848:	79fa      	ldrb	r2, [r7, #7]
 800584a:	4911      	ldr	r1, [pc, #68]	; (8005890 <HCSR04_Init+0x3d0>)
 800584c:	4613      	mov	r3, r2
 800584e:	009b      	lsls	r3, r3, #2
 8005850:	4413      	add	r3, r2
 8005852:	009b      	lsls	r3, r3, #2
 8005854:	440b      	add	r3, r1
 8005856:	330c      	adds	r3, #12
 8005858:	681a      	ldr	r2, [r3, #0]
 800585a:	f107 031c 	add.w	r3, r7, #28
 800585e:	4619      	mov	r1, r3
 8005860:	6838      	ldr	r0, [r7, #0]
 8005862:	f7fe fb4b 	bl	8003efc <HAL_TIM_IC_ConfigChannel>

	/*--------[ Start The ICU Channel ]-------*/

	HAL_TIM_Base_Start_IT(TMR_Handle);
 8005866:	6838      	ldr	r0, [r7, #0]
 8005868:	f7fd ff36 	bl	80036d8 <HAL_TIM_Base_Start_IT>
	HAL_TIM_IC_Start_IT(TMR_Handle, HCSR04_CfgParam[au8_HCSR04_Instance].IC_TIM_CH);
 800586c:	79fa      	ldrb	r2, [r7, #7]
 800586e:	4908      	ldr	r1, [pc, #32]	; (8005890 <HCSR04_Init+0x3d0>)
 8005870:	4613      	mov	r3, r2
 8005872:	009b      	lsls	r3, r3, #2
 8005874:	4413      	add	r3, r2
 8005876:	009b      	lsls	r3, r3, #2
 8005878:	440b      	add	r3, r1
 800587a:	330c      	adds	r3, #12
 800587c:	681b      	ldr	r3, [r3, #0]
 800587e:	4619      	mov	r1, r3
 8005880:	6838      	ldr	r0, [r7, #0]
 8005882:	f7fe f90b 	bl	8003a9c <HAL_TIM_IC_Start_IT>
}
 8005886:	bf00      	nop
 8005888:	3758      	adds	r7, #88	; 0x58
 800588a:	46bd      	mov	sp, r7
 800588c:	bd80      	pop	{r7, pc}
 800588e:	bf00      	nop
 8005890:	08008ce4 	.word	0x08008ce4
 8005894:	20000224 	.word	0x20000224

08005898 <HCSR04_TMR_OVF_ISR>:


void HCSR04_TMR_OVF_ISR(TIM_HandleTypeDef* htim)
{
 8005898:	b480      	push	{r7}
 800589a:	b085      	sub	sp, #20
 800589c:	af00      	add	r7, sp, #0
 800589e:	6078      	str	r0, [r7, #4]
	uint8_t i = 0;
 80058a0:	2300      	movs	r3, #0
 80058a2:	73fb      	strb	r3, [r7, #15]
	for(i=0; i<HCSR04_UNITS; i++)
 80058a4:	2300      	movs	r3, #0
 80058a6:	73fb      	strb	r3, [r7, #15]
 80058a8:	e023      	b.n	80058f2 <HCSR04_TMR_OVF_ISR+0x5a>
	{
		if(htim->Instance == HCSR04_CfgParam[i].TIM_Instance)
 80058aa:	687b      	ldr	r3, [r7, #4]
 80058ac:	6819      	ldr	r1, [r3, #0]
 80058ae:	7bfa      	ldrb	r2, [r7, #15]
 80058b0:	4815      	ldr	r0, [pc, #84]	; (8005908 <HCSR04_TMR_OVF_ISR+0x70>)
 80058b2:	4613      	mov	r3, r2
 80058b4:	009b      	lsls	r3, r3, #2
 80058b6:	4413      	add	r3, r2
 80058b8:	009b      	lsls	r3, r3, #2
 80058ba:	4403      	add	r3, r0
 80058bc:	3308      	adds	r3, #8
 80058be:	681b      	ldr	r3, [r3, #0]
 80058c0:	4299      	cmp	r1, r3
 80058c2:	d113      	bne.n	80058ec <HCSR04_TMR_OVF_ISR+0x54>
		{
			gs_HCSR04_info[i].TMR_OVC++;
 80058c4:	7bfa      	ldrb	r2, [r7, #15]
 80058c6:	4911      	ldr	r1, [pc, #68]	; (800590c <HCSR04_TMR_OVF_ISR+0x74>)
 80058c8:	4613      	mov	r3, r2
 80058ca:	00db      	lsls	r3, r3, #3
 80058cc:	4413      	add	r3, r2
 80058ce:	009b      	lsls	r3, r3, #2
 80058d0:	440b      	add	r3, r1
 80058d2:	3302      	adds	r3, #2
 80058d4:	881b      	ldrh	r3, [r3, #0]
 80058d6:	3301      	adds	r3, #1
 80058d8:	b298      	uxth	r0, r3
 80058da:	490c      	ldr	r1, [pc, #48]	; (800590c <HCSR04_TMR_OVF_ISR+0x74>)
 80058dc:	4613      	mov	r3, r2
 80058de:	00db      	lsls	r3, r3, #3
 80058e0:	4413      	add	r3, r2
 80058e2:	009b      	lsls	r3, r3, #2
 80058e4:	440b      	add	r3, r1
 80058e6:	3302      	adds	r3, #2
 80058e8:	4602      	mov	r2, r0
 80058ea:	801a      	strh	r2, [r3, #0]
	for(i=0; i<HCSR04_UNITS; i++)
 80058ec:	7bfb      	ldrb	r3, [r7, #15]
 80058ee:	3301      	adds	r3, #1
 80058f0:	73fb      	strb	r3, [r7, #15]
 80058f2:	7bfb      	ldrb	r3, [r7, #15]
 80058f4:	2b03      	cmp	r3, #3
 80058f6:	d9d8      	bls.n	80058aa <HCSR04_TMR_OVF_ISR+0x12>
		}
	}
}
 80058f8:	bf00      	nop
 80058fa:	bf00      	nop
 80058fc:	3714      	adds	r7, #20
 80058fe:	46bd      	mov	sp, r7
 8005900:	f85d 7b04 	ldr.w	r7, [sp], #4
 8005904:	4770      	bx	lr
 8005906:	bf00      	nop
 8005908:	08008ce4 	.word	0x08008ce4
 800590c:	20000224 	.word	0x20000224

08005910 <HCSR04_TMR_IC_ISR>:


void HCSR04_TMR_IC_ISR(TIM_HandleTypeDef* htim)
{
 8005910:	b5b0      	push	{r4, r5, r7, lr}
 8005912:	b084      	sub	sp, #16
 8005914:	af00      	add	r7, sp, #0
 8005916:	6078      	str	r0, [r7, #4]
	uint8_t i = 0;
 8005918:	2300      	movs	r3, #0
 800591a:	73fb      	strb	r3, [r7, #15]
	uint32_t PS = 0;
 800591c:	2300      	movs	r3, #0
 800591e:	60bb      	str	r3, [r7, #8]
	for(i=0; i<HCSR04_UNITS; i++)
 8005920:	2300      	movs	r3, #0
 8005922:	73fb      	strb	r3, [r7, #15]
 8005924:	e22a      	b.n	8005d7c <HCSR04_TMR_IC_ISR+0x46c>
	{
		if((htim->Instance == HCSR04_CfgParam[i].TIM_Instance) && (htim->Channel == gs_HCSR04_info[i].ACTIV_CH))
 8005926:	687b      	ldr	r3, [r7, #4]
 8005928:	6819      	ldr	r1, [r3, #0]
 800592a:	7bfa      	ldrb	r2, [r7, #15]
 800592c:	486b      	ldr	r0, [pc, #428]	; (8005adc <HCSR04_TMR_IC_ISR+0x1cc>)
 800592e:	4613      	mov	r3, r2
 8005930:	009b      	lsls	r3, r3, #2
 8005932:	4413      	add	r3, r2
 8005934:	009b      	lsls	r3, r3, #2
 8005936:	4403      	add	r3, r0
 8005938:	3308      	adds	r3, #8
 800593a:	681b      	ldr	r3, [r3, #0]
 800593c:	4299      	cmp	r1, r3
 800593e:	f040 821a 	bne.w	8005d76 <HCSR04_TMR_IC_ISR+0x466>
 8005942:	687b      	ldr	r3, [r7, #4]
 8005944:	7f19      	ldrb	r1, [r3, #28]
 8005946:	7bfa      	ldrb	r2, [r7, #15]
 8005948:	4865      	ldr	r0, [pc, #404]	; (8005ae0 <HCSR04_TMR_IC_ISR+0x1d0>)
 800594a:	4613      	mov	r3, r2
 800594c:	00db      	lsls	r3, r3, #3
 800594e:	4413      	add	r3, r2
 8005950:	009b      	lsls	r3, r3, #2
 8005952:	4403      	add	r3, r0
 8005954:	3320      	adds	r3, #32
 8005956:	781b      	ldrb	r3, [r3, #0]
 8005958:	4299      	cmp	r1, r3
 800595a:	f040 820c 	bne.w	8005d76 <HCSR04_TMR_IC_ISR+0x466>
		{
			if (gs_HCSR04_info[i].EDGE_STATE == 0)
 800595e:	7bfa      	ldrb	r2, [r7, #15]
 8005960:	495f      	ldr	r1, [pc, #380]	; (8005ae0 <HCSR04_TMR_IC_ISR+0x1d0>)
 8005962:	4613      	mov	r3, r2
 8005964:	00db      	lsls	r3, r3, #3
 8005966:	4413      	add	r3, r2
 8005968:	009b      	lsls	r3, r3, #2
 800596a:	440b      	add	r3, r1
 800596c:	781b      	ldrb	r3, [r3, #0]
 800596e:	2b00      	cmp	r3, #0
 8005970:	f040 80b8 	bne.w	8005ae4 <HCSR04_TMR_IC_ISR+0x1d4>
			{
				// Capture T1 & Reverse The ICU Edge Polarity
				gs_HCSR04_info[i].T1 = HAL_TIM_ReadCapturedValue(htim, HCSR04_CfgParam[i].IC_TIM_CH);
 8005974:	7bfa      	ldrb	r2, [r7, #15]
 8005976:	4959      	ldr	r1, [pc, #356]	; (8005adc <HCSR04_TMR_IC_ISR+0x1cc>)
 8005978:	4613      	mov	r3, r2
 800597a:	009b      	lsls	r3, r3, #2
 800597c:	4413      	add	r3, r2
 800597e:	009b      	lsls	r3, r3, #2
 8005980:	440b      	add	r3, r1
 8005982:	330c      	adds	r3, #12
 8005984:	681b      	ldr	r3, [r3, #0]
 8005986:	7bfc      	ldrb	r4, [r7, #15]
 8005988:	4619      	mov	r1, r3
 800598a:	6878      	ldr	r0, [r7, #4]
 800598c:	f7fe fcdc 	bl	8004348 <HAL_TIM_ReadCapturedValue>
 8005990:	4602      	mov	r2, r0
 8005992:	4953      	ldr	r1, [pc, #332]	; (8005ae0 <HCSR04_TMR_IC_ISR+0x1d0>)
 8005994:	4623      	mov	r3, r4
 8005996:	00db      	lsls	r3, r3, #3
 8005998:	4423      	add	r3, r4
 800599a:	009b      	lsls	r3, r3, #2
 800599c:	440b      	add	r3, r1
 800599e:	330c      	adds	r3, #12
 80059a0:	601a      	str	r2, [r3, #0]
				gs_HCSR04_info[i].EDGE_STATE = 1;
 80059a2:	7bfa      	ldrb	r2, [r7, #15]
 80059a4:	494e      	ldr	r1, [pc, #312]	; (8005ae0 <HCSR04_TMR_IC_ISR+0x1d0>)
 80059a6:	4613      	mov	r3, r2
 80059a8:	00db      	lsls	r3, r3, #3
 80059aa:	4413      	add	r3, r2
 80059ac:	009b      	lsls	r3, r3, #2
 80059ae:	440b      	add	r3, r1
 80059b0:	2201      	movs	r2, #1
 80059b2:	701a      	strb	r2, [r3, #0]
				__HAL_TIM_SET_CAPTUREPOLARITY(htim, HCSR04_CfgParam[i].IC_TIM_CH, TIM_INPUTCHANNELPOLARITY_FALLING);
 80059b4:	7bfa      	ldrb	r2, [r7, #15]
 80059b6:	4949      	ldr	r1, [pc, #292]	; (8005adc <HCSR04_TMR_IC_ISR+0x1cc>)
 80059b8:	4613      	mov	r3, r2
 80059ba:	009b      	lsls	r3, r3, #2
 80059bc:	4413      	add	r3, r2
 80059be:	009b      	lsls	r3, r3, #2
 80059c0:	440b      	add	r3, r1
 80059c2:	330c      	adds	r3, #12
 80059c4:	681b      	ldr	r3, [r3, #0]
 80059c6:	2b00      	cmp	r3, #0
 80059c8:	d108      	bne.n	80059dc <HCSR04_TMR_IC_ISR+0xcc>
 80059ca:	687b      	ldr	r3, [r7, #4]
 80059cc:	681b      	ldr	r3, [r3, #0]
 80059ce:	6a1a      	ldr	r2, [r3, #32]
 80059d0:	687b      	ldr	r3, [r7, #4]
 80059d2:	681b      	ldr	r3, [r3, #0]
 80059d4:	f022 020a 	bic.w	r2, r2, #10
 80059d8:	621a      	str	r2, [r3, #32]
 80059da:	e02f      	b.n	8005a3c <HCSR04_TMR_IC_ISR+0x12c>
 80059dc:	7bfa      	ldrb	r2, [r7, #15]
 80059de:	493f      	ldr	r1, [pc, #252]	; (8005adc <HCSR04_TMR_IC_ISR+0x1cc>)
 80059e0:	4613      	mov	r3, r2
 80059e2:	009b      	lsls	r3, r3, #2
 80059e4:	4413      	add	r3, r2
 80059e6:	009b      	lsls	r3, r3, #2
 80059e8:	440b      	add	r3, r1
 80059ea:	330c      	adds	r3, #12
 80059ec:	681b      	ldr	r3, [r3, #0]
 80059ee:	2b04      	cmp	r3, #4
 80059f0:	d108      	bne.n	8005a04 <HCSR04_TMR_IC_ISR+0xf4>
 80059f2:	687b      	ldr	r3, [r7, #4]
 80059f4:	681b      	ldr	r3, [r3, #0]
 80059f6:	6a1b      	ldr	r3, [r3, #32]
 80059f8:	687a      	ldr	r2, [r7, #4]
 80059fa:	6812      	ldr	r2, [r2, #0]
 80059fc:	f023 03a0 	bic.w	r3, r3, #160	; 0xa0
 8005a00:	6213      	str	r3, [r2, #32]
 8005a02:	e01b      	b.n	8005a3c <HCSR04_TMR_IC_ISR+0x12c>
 8005a04:	7bfa      	ldrb	r2, [r7, #15]
 8005a06:	4935      	ldr	r1, [pc, #212]	; (8005adc <HCSR04_TMR_IC_ISR+0x1cc>)
 8005a08:	4613      	mov	r3, r2
 8005a0a:	009b      	lsls	r3, r3, #2
 8005a0c:	4413      	add	r3, r2
 8005a0e:	009b      	lsls	r3, r3, #2
 8005a10:	440b      	add	r3, r1
 8005a12:	330c      	adds	r3, #12
 8005a14:	681b      	ldr	r3, [r3, #0]
 8005a16:	2b08      	cmp	r3, #8
 8005a18:	d108      	bne.n	8005a2c <HCSR04_TMR_IC_ISR+0x11c>
 8005a1a:	687b      	ldr	r3, [r7, #4]
 8005a1c:	681b      	ldr	r3, [r3, #0]
 8005a1e:	6a1b      	ldr	r3, [r3, #32]
 8005a20:	687a      	ldr	r2, [r7, #4]
 8005a22:	6812      	ldr	r2, [r2, #0]
 8005a24:	f423 6320 	bic.w	r3, r3, #2560	; 0xa00
 8005a28:	6213      	str	r3, [r2, #32]
 8005a2a:	e007      	b.n	8005a3c <HCSR04_TMR_IC_ISR+0x12c>
 8005a2c:	687b      	ldr	r3, [r7, #4]
 8005a2e:	681b      	ldr	r3, [r3, #0]
 8005a30:	6a1b      	ldr	r3, [r3, #32]
 8005a32:	687a      	ldr	r2, [r7, #4]
 8005a34:	6812      	ldr	r2, [r2, #0]
 8005a36:	f423 4320 	bic.w	r3, r3, #40960	; 0xa000
 8005a3a:	6213      	str	r3, [r2, #32]
 8005a3c:	7bfa      	ldrb	r2, [r7, #15]
 8005a3e:	4927      	ldr	r1, [pc, #156]	; (8005adc <HCSR04_TMR_IC_ISR+0x1cc>)
 8005a40:	4613      	mov	r3, r2
 8005a42:	009b      	lsls	r3, r3, #2
 8005a44:	4413      	add	r3, r2
 8005a46:	009b      	lsls	r3, r3, #2
 8005a48:	440b      	add	r3, r1
 8005a4a:	330c      	adds	r3, #12
 8005a4c:	681b      	ldr	r3, [r3, #0]
 8005a4e:	2b00      	cmp	r3, #0
 8005a50:	d108      	bne.n	8005a64 <HCSR04_TMR_IC_ISR+0x154>
 8005a52:	687b      	ldr	r3, [r7, #4]
 8005a54:	681b      	ldr	r3, [r3, #0]
 8005a56:	6a1a      	ldr	r2, [r3, #32]
 8005a58:	687b      	ldr	r3, [r7, #4]
 8005a5a:	681b      	ldr	r3, [r3, #0]
 8005a5c:	f042 0202 	orr.w	r2, r2, #2
 8005a60:	621a      	str	r2, [r3, #32]
 8005a62:	e02f      	b.n	8005ac4 <HCSR04_TMR_IC_ISR+0x1b4>
 8005a64:	7bfa      	ldrb	r2, [r7, #15]
 8005a66:	491d      	ldr	r1, [pc, #116]	; (8005adc <HCSR04_TMR_IC_ISR+0x1cc>)
 8005a68:	4613      	mov	r3, r2
 8005a6a:	009b      	lsls	r3, r3, #2
 8005a6c:	4413      	add	r3, r2
 8005a6e:	009b      	lsls	r3, r3, #2
 8005a70:	440b      	add	r3, r1
 8005a72:	330c      	adds	r3, #12
 8005a74:	681b      	ldr	r3, [r3, #0]
 8005a76:	2b04      	cmp	r3, #4
 8005a78:	d108      	bne.n	8005a8c <HCSR04_TMR_IC_ISR+0x17c>
 8005a7a:	687b      	ldr	r3, [r7, #4]
 8005a7c:	681b      	ldr	r3, [r3, #0]
 8005a7e:	6a1b      	ldr	r3, [r3, #32]
 8005a80:	687a      	ldr	r2, [r7, #4]
 8005a82:	6812      	ldr	r2, [r2, #0]
 8005a84:	f043 0320 	orr.w	r3, r3, #32
 8005a88:	6213      	str	r3, [r2, #32]
 8005a8a:	e01b      	b.n	8005ac4 <HCSR04_TMR_IC_ISR+0x1b4>
 8005a8c:	7bfa      	ldrb	r2, [r7, #15]
 8005a8e:	4913      	ldr	r1, [pc, #76]	; (8005adc <HCSR04_TMR_IC_ISR+0x1cc>)
 8005a90:	4613      	mov	r3, r2
 8005a92:	009b      	lsls	r3, r3, #2
 8005a94:	4413      	add	r3, r2
 8005a96:	009b      	lsls	r3, r3, #2
 8005a98:	440b      	add	r3, r1
 8005a9a:	330c      	adds	r3, #12
 8005a9c:	681b      	ldr	r3, [r3, #0]
 8005a9e:	2b08      	cmp	r3, #8
 8005aa0:	d108      	bne.n	8005ab4 <HCSR04_TMR_IC_ISR+0x1a4>
 8005aa2:	687b      	ldr	r3, [r7, #4]
 8005aa4:	681b      	ldr	r3, [r3, #0]
 8005aa6:	6a1b      	ldr	r3, [r3, #32]
 8005aa8:	687a      	ldr	r2, [r7, #4]
 8005aaa:	6812      	ldr	r2, [r2, #0]
 8005aac:	f443 7300 	orr.w	r3, r3, #512	; 0x200
 8005ab0:	6213      	str	r3, [r2, #32]
 8005ab2:	e007      	b.n	8005ac4 <HCSR04_TMR_IC_ISR+0x1b4>
 8005ab4:	687b      	ldr	r3, [r7, #4]
 8005ab6:	681b      	ldr	r3, [r3, #0]
 8005ab8:	6a1b      	ldr	r3, [r3, #32]
 8005aba:	687a      	ldr	r2, [r7, #4]
 8005abc:	6812      	ldr	r2, [r2, #0]
 8005abe:	f443 5300 	orr.w	r3, r3, #8192	; 0x2000
 8005ac2:	6213      	str	r3, [r2, #32]
				gs_HCSR04_info[i].TMR_OVC = 0;
 8005ac4:	7bfa      	ldrb	r2, [r7, #15]
 8005ac6:	4906      	ldr	r1, [pc, #24]	; (8005ae0 <HCSR04_TMR_IC_ISR+0x1d0>)
 8005ac8:	4613      	mov	r3, r2
 8005aca:	00db      	lsls	r3, r3, #3
 8005acc:	4413      	add	r3, r2
 8005ace:	009b      	lsls	r3, r3, #2
 8005ad0:	440b      	add	r3, r1
 8005ad2:	3302      	adds	r3, #2
 8005ad4:	2200      	movs	r2, #0
 8005ad6:	801a      	strh	r2, [r3, #0]
 8005ad8:	e14d      	b.n	8005d76 <HCSR04_TMR_IC_ISR+0x466>
 8005ada:	bf00      	nop
 8005adc:	08008ce4 	.word	0x08008ce4
 8005ae0:	20000224 	.word	0x20000224
			}
			else if (gs_HCSR04_info[i].EDGE_STATE == 1)
 8005ae4:	7bfa      	ldrb	r2, [r7, #15]
 8005ae6:	49ac      	ldr	r1, [pc, #688]	; (8005d98 <HCSR04_TMR_IC_ISR+0x488>)
 8005ae8:	4613      	mov	r3, r2
 8005aea:	00db      	lsls	r3, r3, #3
 8005aec:	4413      	add	r3, r2
 8005aee:	009b      	lsls	r3, r3, #2
 8005af0:	440b      	add	r3, r1
 8005af2:	781b      	ldrb	r3, [r3, #0]
 8005af4:	2b01      	cmp	r3, #1
 8005af6:	f040 813e 	bne.w	8005d76 <HCSR04_TMR_IC_ISR+0x466>
			{
				// Read The Current ARR & Prescaler Values For The Timer
				PS = HCSR04_CfgParam[i].TIM_Instance->PSC;
 8005afa:	7bfa      	ldrb	r2, [r7, #15]
 8005afc:	49a7      	ldr	r1, [pc, #668]	; (8005d9c <HCSR04_TMR_IC_ISR+0x48c>)
 8005afe:	4613      	mov	r3, r2
 8005b00:	009b      	lsls	r3, r3, #2
 8005b02:	4413      	add	r3, r2
 8005b04:	009b      	lsls	r3, r3, #2
 8005b06:	440b      	add	r3, r1
 8005b08:	3308      	adds	r3, #8
 8005b0a:	681b      	ldr	r3, [r3, #0]
 8005b0c:	6a9b      	ldr	r3, [r3, #40]	; 0x28
 8005b0e:	60bb      	str	r3, [r7, #8]
				gs_HCSR04_info[i].TMR_ARR = HCSR04_CfgParam[i].TIM_Instance->ARR;
 8005b10:	7bfa      	ldrb	r2, [r7, #15]
 8005b12:	49a2      	ldr	r1, [pc, #648]	; (8005d9c <HCSR04_TMR_IC_ISR+0x48c>)
 8005b14:	4613      	mov	r3, r2
 8005b16:	009b      	lsls	r3, r3, #2
 8005b18:	4413      	add	r3, r2
 8005b1a:	009b      	lsls	r3, r3, #2
 8005b1c:	440b      	add	r3, r1
 8005b1e:	3308      	adds	r3, #8
 8005b20:	681b      	ldr	r3, [r3, #0]
 8005b22:	7bfa      	ldrb	r2, [r7, #15]
 8005b24:	6ad9      	ldr	r1, [r3, #44]	; 0x2c
 8005b26:	489c      	ldr	r0, [pc, #624]	; (8005d98 <HCSR04_TMR_IC_ISR+0x488>)
 8005b28:	4613      	mov	r3, r2
 8005b2a:	00db      	lsls	r3, r3, #3
 8005b2c:	4413      	add	r3, r2
 8005b2e:	009b      	lsls	r3, r3, #2
 8005b30:	4403      	add	r3, r0
 8005b32:	3308      	adds	r3, #8
 8005b34:	6019      	str	r1, [r3, #0]
				// Capture T2 & Calculate The Distance
				gs_HCSR04_info[i].T2 = HAL_TIM_ReadCapturedValue(htim, HCSR04_CfgParam[i].IC_TIM_CH);
 8005b36:	7bfa      	ldrb	r2, [r7, #15]
 8005b38:	4998      	ldr	r1, [pc, #608]	; (8005d9c <HCSR04_TMR_IC_ISR+0x48c>)
 8005b3a:	4613      	mov	r3, r2
 8005b3c:	009b      	lsls	r3, r3, #2
 8005b3e:	4413      	add	r3, r2
 8005b40:	009b      	lsls	r3, r3, #2
 8005b42:	440b      	add	r3, r1
 8005b44:	330c      	adds	r3, #12
 8005b46:	681b      	ldr	r3, [r3, #0]
 8005b48:	7bfc      	ldrb	r4, [r7, #15]
 8005b4a:	4619      	mov	r1, r3
 8005b4c:	6878      	ldr	r0, [r7, #4]
 8005b4e:	f7fe fbfb 	bl	8004348 <HAL_TIM_ReadCapturedValue>
 8005b52:	4602      	mov	r2, r0
 8005b54:	4990      	ldr	r1, [pc, #576]	; (8005d98 <HCSR04_TMR_IC_ISR+0x488>)
 8005b56:	4623      	mov	r3, r4
 8005b58:	00db      	lsls	r3, r3, #3
 8005b5a:	4423      	add	r3, r4
 8005b5c:	009b      	lsls	r3, r3, #2
 8005b5e:	440b      	add	r3, r1
 8005b60:	3310      	adds	r3, #16
 8005b62:	601a      	str	r2, [r3, #0]
				gs_HCSR04_info[i].T2 += (gs_HCSR04_info[i].TMR_OVC * (gs_HCSR04_info[i].TMR_ARR+1));
 8005b64:	7bfa      	ldrb	r2, [r7, #15]
 8005b66:	498c      	ldr	r1, [pc, #560]	; (8005d98 <HCSR04_TMR_IC_ISR+0x488>)
 8005b68:	4613      	mov	r3, r2
 8005b6a:	00db      	lsls	r3, r3, #3
 8005b6c:	4413      	add	r3, r2
 8005b6e:	009b      	lsls	r3, r3, #2
 8005b70:	440b      	add	r3, r1
 8005b72:	3310      	adds	r3, #16
 8005b74:	6819      	ldr	r1, [r3, #0]
 8005b76:	7bfa      	ldrb	r2, [r7, #15]
 8005b78:	4887      	ldr	r0, [pc, #540]	; (8005d98 <HCSR04_TMR_IC_ISR+0x488>)
 8005b7a:	4613      	mov	r3, r2
 8005b7c:	00db      	lsls	r3, r3, #3
 8005b7e:	4413      	add	r3, r2
 8005b80:	009b      	lsls	r3, r3, #2
 8005b82:	4403      	add	r3, r0
 8005b84:	3302      	adds	r3, #2
 8005b86:	881b      	ldrh	r3, [r3, #0]
 8005b88:	461c      	mov	r4, r3
 8005b8a:	7bfa      	ldrb	r2, [r7, #15]
 8005b8c:	4882      	ldr	r0, [pc, #520]	; (8005d98 <HCSR04_TMR_IC_ISR+0x488>)
 8005b8e:	4613      	mov	r3, r2
 8005b90:	00db      	lsls	r3, r3, #3
 8005b92:	4413      	add	r3, r2
 8005b94:	009b      	lsls	r3, r3, #2
 8005b96:	4403      	add	r3, r0
 8005b98:	3308      	adds	r3, #8
 8005b9a:	681b      	ldr	r3, [r3, #0]
 8005b9c:	3301      	adds	r3, #1
 8005b9e:	fb03 f304 	mul.w	r3, r3, r4
 8005ba2:	7bfa      	ldrb	r2, [r7, #15]
 8005ba4:	4419      	add	r1, r3
 8005ba6:	487c      	ldr	r0, [pc, #496]	; (8005d98 <HCSR04_TMR_IC_ISR+0x488>)
 8005ba8:	4613      	mov	r3, r2
 8005baa:	00db      	lsls	r3, r3, #3
 8005bac:	4413      	add	r3, r2
 8005bae:	009b      	lsls	r3, r3, #2
 8005bb0:	4403      	add	r3, r0
 8005bb2:	3310      	adds	r3, #16
 8005bb4:	6019      	str	r1, [r3, #0]
				gs_HCSR04_info[i].DIFF = gs_HCSR04_info[i].T2 - gs_HCSR04_info[i].T1;
 8005bb6:	7bfa      	ldrb	r2, [r7, #15]
 8005bb8:	4977      	ldr	r1, [pc, #476]	; (8005d98 <HCSR04_TMR_IC_ISR+0x488>)
 8005bba:	4613      	mov	r3, r2
 8005bbc:	00db      	lsls	r3, r3, #3
 8005bbe:	4413      	add	r3, r2
 8005bc0:	009b      	lsls	r3, r3, #2
 8005bc2:	440b      	add	r3, r1
 8005bc4:	3310      	adds	r3, #16
 8005bc6:	6819      	ldr	r1, [r3, #0]
 8005bc8:	7bfa      	ldrb	r2, [r7, #15]
 8005bca:	4873      	ldr	r0, [pc, #460]	; (8005d98 <HCSR04_TMR_IC_ISR+0x488>)
 8005bcc:	4613      	mov	r3, r2
 8005bce:	00db      	lsls	r3, r3, #3
 8005bd0:	4413      	add	r3, r2
 8005bd2:	009b      	lsls	r3, r3, #2
 8005bd4:	4403      	add	r3, r0
 8005bd6:	330c      	adds	r3, #12
 8005bd8:	681b      	ldr	r3, [r3, #0]
 8005bda:	7bfa      	ldrb	r2, [r7, #15]
 8005bdc:	1ac9      	subs	r1, r1, r3
 8005bde:	486e      	ldr	r0, [pc, #440]	; (8005d98 <HCSR04_TMR_IC_ISR+0x488>)
 8005be0:	4613      	mov	r3, r2
 8005be2:	00db      	lsls	r3, r3, #3
 8005be4:	4413      	add	r3, r2
 8005be6:	009b      	lsls	r3, r3, #2
 8005be8:	4403      	add	r3, r0
 8005bea:	3314      	adds	r3, #20
 8005bec:	6019      	str	r1, [r3, #0]
				// Write The Distance Value To The Global Struct & Reverse The ICU Edge
				gs_HCSR04_info[i].DISTANCE = (gs_HCSR04_info[i].DIFF * 0.017)/(HCSR04_CfgParam[i].TIM_CLK_MHz/(PS+1));
 8005bee:	7bfa      	ldrb	r2, [r7, #15]
 8005bf0:	4969      	ldr	r1, [pc, #420]	; (8005d98 <HCSR04_TMR_IC_ISR+0x488>)
 8005bf2:	4613      	mov	r3, r2
 8005bf4:	00db      	lsls	r3, r3, #3
 8005bf6:	4413      	add	r3, r2
 8005bf8:	009b      	lsls	r3, r3, #2
 8005bfa:	440b      	add	r3, r1
 8005bfc:	3314      	adds	r3, #20
 8005bfe:	681b      	ldr	r3, [r3, #0]
 8005c00:	4618      	mov	r0, r3
 8005c02:	f7fa fc9f 	bl	8000544 <__aeabi_ui2d>
 8005c06:	a362      	add	r3, pc, #392	; (adr r3, 8005d90 <HCSR04_TMR_IC_ISR+0x480>)
 8005c08:	e9d3 2300 	ldrd	r2, r3, [r3]
 8005c0c:	f7fa fd14 	bl	8000638 <__aeabi_dmul>
 8005c10:	4602      	mov	r2, r0
 8005c12:	460b      	mov	r3, r1
 8005c14:	4614      	mov	r4, r2
 8005c16:	461d      	mov	r5, r3
 8005c18:	7bfa      	ldrb	r2, [r7, #15]
 8005c1a:	4960      	ldr	r1, [pc, #384]	; (8005d9c <HCSR04_TMR_IC_ISR+0x48c>)
 8005c1c:	4613      	mov	r3, r2
 8005c1e:	009b      	lsls	r3, r3, #2
 8005c20:	4413      	add	r3, r2
 8005c22:	009b      	lsls	r3, r3, #2
 8005c24:	440b      	add	r3, r1
 8005c26:	3310      	adds	r3, #16
 8005c28:	681a      	ldr	r2, [r3, #0]
 8005c2a:	68bb      	ldr	r3, [r7, #8]
 8005c2c:	3301      	adds	r3, #1
 8005c2e:	fbb2 f3f3 	udiv	r3, r2, r3
 8005c32:	4618      	mov	r0, r3
 8005c34:	f7fa fc86 	bl	8000544 <__aeabi_ui2d>
 8005c38:	4602      	mov	r2, r0
 8005c3a:	460b      	mov	r3, r1
 8005c3c:	4620      	mov	r0, r4
 8005c3e:	4629      	mov	r1, r5
 8005c40:	f7fa fe24 	bl	800088c <__aeabi_ddiv>
 8005c44:	4602      	mov	r2, r0
 8005c46:	460b      	mov	r3, r1
 8005c48:	7bfc      	ldrb	r4, [r7, #15]
 8005c4a:	4610      	mov	r0, r2
 8005c4c:	4619      	mov	r1, r3
 8005c4e:	f7fa ffcb 	bl	8000be8 <__aeabi_d2f>
 8005c52:	4602      	mov	r2, r0
 8005c54:	4950      	ldr	r1, [pc, #320]	; (8005d98 <HCSR04_TMR_IC_ISR+0x488>)
 8005c56:	4623      	mov	r3, r4
 8005c58:	00db      	lsls	r3, r3, #3
 8005c5a:	4423      	add	r3, r4
 8005c5c:	009b      	lsls	r3, r3, #2
 8005c5e:	440b      	add	r3, r1
 8005c60:	3318      	adds	r3, #24
 8005c62:	601a      	str	r2, [r3, #0]
				gs_HCSR04_info[i].EDGE_STATE = 0;
 8005c64:	7bfa      	ldrb	r2, [r7, #15]
 8005c66:	494c      	ldr	r1, [pc, #304]	; (8005d98 <HCSR04_TMR_IC_ISR+0x488>)
 8005c68:	4613      	mov	r3, r2
 8005c6a:	00db      	lsls	r3, r3, #3
 8005c6c:	4413      	add	r3, r2
 8005c6e:	009b      	lsls	r3, r3, #2
 8005c70:	440b      	add	r3, r1
 8005c72:	2200      	movs	r2, #0
 8005c74:	701a      	strb	r2, [r3, #0]
				__HAL_TIM_SET_CAPTUREPOLARITY(htim, HCSR04_CfgParam[i].IC_TIM_CH, TIM_INPUTCHANNELPOLARITY_RISING);
 8005c76:	7bfa      	ldrb	r2, [r7, #15]
 8005c78:	4948      	ldr	r1, [pc, #288]	; (8005d9c <HCSR04_TMR_IC_ISR+0x48c>)
 8005c7a:	4613      	mov	r3, r2
 8005c7c:	009b      	lsls	r3, r3, #2
 8005c7e:	4413      	add	r3, r2
 8005c80:	009b      	lsls	r3, r3, #2
 8005c82:	440b      	add	r3, r1
 8005c84:	330c      	adds	r3, #12
 8005c86:	681b      	ldr	r3, [r3, #0]
 8005c88:	2b00      	cmp	r3, #0
 8005c8a:	d108      	bne.n	8005c9e <HCSR04_TMR_IC_ISR+0x38e>
 8005c8c:	687b      	ldr	r3, [r7, #4]
 8005c8e:	681b      	ldr	r3, [r3, #0]
 8005c90:	6a1a      	ldr	r2, [r3, #32]
 8005c92:	687b      	ldr	r3, [r7, #4]
 8005c94:	681b      	ldr	r3, [r3, #0]
 8005c96:	f022 020a 	bic.w	r2, r2, #10
 8005c9a:	621a      	str	r2, [r3, #32]
 8005c9c:	e02f      	b.n	8005cfe <HCSR04_TMR_IC_ISR+0x3ee>
 8005c9e:	7bfa      	ldrb	r2, [r7, #15]
 8005ca0:	493e      	ldr	r1, [pc, #248]	; (8005d9c <HCSR04_TMR_IC_ISR+0x48c>)
 8005ca2:	4613      	mov	r3, r2
 8005ca4:	009b      	lsls	r3, r3, #2
 8005ca6:	4413      	add	r3, r2
 8005ca8:	009b      	lsls	r3, r3, #2
 8005caa:	440b      	add	r3, r1
 8005cac:	330c      	adds	r3, #12
 8005cae:	681b      	ldr	r3, [r3, #0]
 8005cb0:	2b04      	cmp	r3, #4
 8005cb2:	d108      	bne.n	8005cc6 <HCSR04_TMR_IC_ISR+0x3b6>
 8005cb4:	687b      	ldr	r3, [r7, #4]
 8005cb6:	681b      	ldr	r3, [r3, #0]
 8005cb8:	6a1b      	ldr	r3, [r3, #32]
 8005cba:	687a      	ldr	r2, [r7, #4]
 8005cbc:	6812      	ldr	r2, [r2, #0]
 8005cbe:	f023 03a0 	bic.w	r3, r3, #160	; 0xa0
 8005cc2:	6213      	str	r3, [r2, #32]
 8005cc4:	e01b      	b.n	8005cfe <HCSR04_TMR_IC_ISR+0x3ee>
 8005cc6:	7bfa      	ldrb	r2, [r7, #15]
 8005cc8:	4934      	ldr	r1, [pc, #208]	; (8005d9c <HCSR04_TMR_IC_ISR+0x48c>)
 8005cca:	4613      	mov	r3, r2
 8005ccc:	009b      	lsls	r3, r3, #2
 8005cce:	4413      	add	r3, r2
 8005cd0:	009b      	lsls	r3, r3, #2
 8005cd2:	440b      	add	r3, r1
 8005cd4:	330c      	adds	r3, #12
 8005cd6:	681b      	ldr	r3, [r3, #0]
 8005cd8:	2b08      	cmp	r3, #8
 8005cda:	d108      	bne.n	8005cee <HCSR04_TMR_IC_ISR+0x3de>
 8005cdc:	687b      	ldr	r3, [r7, #4]
 8005cde:	681b      	ldr	r3, [r3, #0]
 8005ce0:	6a1b      	ldr	r3, [r3, #32]
 8005ce2:	687a      	ldr	r2, [r7, #4]
 8005ce4:	6812      	ldr	r2, [r2, #0]
 8005ce6:	f423 6320 	bic.w	r3, r3, #2560	; 0xa00
 8005cea:	6213      	str	r3, [r2, #32]
 8005cec:	e007      	b.n	8005cfe <HCSR04_TMR_IC_ISR+0x3ee>
 8005cee:	687b      	ldr	r3, [r7, #4]
 8005cf0:	681b      	ldr	r3, [r3, #0]
 8005cf2:	6a1b      	ldr	r3, [r3, #32]
 8005cf4:	687a      	ldr	r2, [r7, #4]
 8005cf6:	6812      	ldr	r2, [r2, #0]
 8005cf8:	f423 4320 	bic.w	r3, r3, #40960	; 0xa000
 8005cfc:	6213      	str	r3, [r2, #32]
 8005cfe:	7bfa      	ldrb	r2, [r7, #15]
 8005d00:	4926      	ldr	r1, [pc, #152]	; (8005d9c <HCSR04_TMR_IC_ISR+0x48c>)
 8005d02:	4613      	mov	r3, r2
 8005d04:	009b      	lsls	r3, r3, #2
 8005d06:	4413      	add	r3, r2
 8005d08:	009b      	lsls	r3, r3, #2
 8005d0a:	440b      	add	r3, r1
 8005d0c:	330c      	adds	r3, #12
 8005d0e:	681b      	ldr	r3, [r3, #0]
 8005d10:	2b00      	cmp	r3, #0
 8005d12:	d106      	bne.n	8005d22 <HCSR04_TMR_IC_ISR+0x412>
 8005d14:	687b      	ldr	r3, [r7, #4]
 8005d16:	681a      	ldr	r2, [r3, #0]
 8005d18:	687b      	ldr	r3, [r7, #4]
 8005d1a:	681b      	ldr	r3, [r3, #0]
 8005d1c:	6a12      	ldr	r2, [r2, #32]
 8005d1e:	621a      	str	r2, [r3, #32]
 8005d20:	e029      	b.n	8005d76 <HCSR04_TMR_IC_ISR+0x466>
 8005d22:	7bfa      	ldrb	r2, [r7, #15]
 8005d24:	491d      	ldr	r1, [pc, #116]	; (8005d9c <HCSR04_TMR_IC_ISR+0x48c>)
 8005d26:	4613      	mov	r3, r2
 8005d28:	009b      	lsls	r3, r3, #2
 8005d2a:	4413      	add	r3, r2
 8005d2c:	009b      	lsls	r3, r3, #2
 8005d2e:	440b      	add	r3, r1
 8005d30:	330c      	adds	r3, #12
 8005d32:	681b      	ldr	r3, [r3, #0]
 8005d34:	2b04      	cmp	r3, #4
 8005d36:	d106      	bne.n	8005d46 <HCSR04_TMR_IC_ISR+0x436>
 8005d38:	687b      	ldr	r3, [r7, #4]
 8005d3a:	681b      	ldr	r3, [r3, #0]
 8005d3c:	687a      	ldr	r2, [r7, #4]
 8005d3e:	6812      	ldr	r2, [r2, #0]
 8005d40:	6a1b      	ldr	r3, [r3, #32]
 8005d42:	6213      	str	r3, [r2, #32]
 8005d44:	e017      	b.n	8005d76 <HCSR04_TMR_IC_ISR+0x466>
 8005d46:	7bfa      	ldrb	r2, [r7, #15]
 8005d48:	4914      	ldr	r1, [pc, #80]	; (8005d9c <HCSR04_TMR_IC_ISR+0x48c>)
 8005d4a:	4613      	mov	r3, r2
 8005d4c:	009b      	lsls	r3, r3, #2
 8005d4e:	4413      	add	r3, r2
 8005d50:	009b      	lsls	r3, r3, #2
 8005d52:	440b      	add	r3, r1
 8005d54:	330c      	adds	r3, #12
 8005d56:	681b      	ldr	r3, [r3, #0]
 8005d58:	2b08      	cmp	r3, #8
 8005d5a:	d106      	bne.n	8005d6a <HCSR04_TMR_IC_ISR+0x45a>
 8005d5c:	687b      	ldr	r3, [r7, #4]
 8005d5e:	681b      	ldr	r3, [r3, #0]
 8005d60:	687a      	ldr	r2, [r7, #4]
 8005d62:	6812      	ldr	r2, [r2, #0]
 8005d64:	6a1b      	ldr	r3, [r3, #32]
 8005d66:	6213      	str	r3, [r2, #32]
 8005d68:	e005      	b.n	8005d76 <HCSR04_TMR_IC_ISR+0x466>
 8005d6a:	687b      	ldr	r3, [r7, #4]
 8005d6c:	681b      	ldr	r3, [r3, #0]
 8005d6e:	687a      	ldr	r2, [r7, #4]
 8005d70:	6812      	ldr	r2, [r2, #0]
 8005d72:	6a1b      	ldr	r3, [r3, #32]
 8005d74:	6213      	str	r3, [r2, #32]
	for(i=0; i<HCSR04_UNITS; i++)
 8005d76:	7bfb      	ldrb	r3, [r7, #15]
 8005d78:	3301      	adds	r3, #1
 8005d7a:	73fb      	strb	r3, [r7, #15]
 8005d7c:	7bfb      	ldrb	r3, [r7, #15]
 8005d7e:	2b03      	cmp	r3, #3
 8005d80:	f67f add1 	bls.w	8005926 <HCSR04_TMR_IC_ISR+0x16>
			}
		}
	}
}
 8005d84:	bf00      	nop
 8005d86:	bf00      	nop
 8005d88:	3710      	adds	r7, #16
 8005d8a:	46bd      	mov	sp, r7
 8005d8c:	bdb0      	pop	{r4, r5, r7, pc}
 8005d8e:	bf00      	nop
 8005d90:	b020c49c 	.word	0xb020c49c
 8005d94:	3f916872 	.word	0x3f916872
 8005d98:	20000224 	.word	0x20000224
 8005d9c:	08008ce4 	.word	0x08008ce4

08005da0 <HCSR04_Read>:

float HCSR04_Read(uint8_t au8_HCSR04_Instance)
{
 8005da0:	b480      	push	{r7}
 8005da2:	b083      	sub	sp, #12
 8005da4:	af00      	add	r7, sp, #0
 8005da6:	4603      	mov	r3, r0
 8005da8:	71fb      	strb	r3, [r7, #7]
	return gs_HCSR04_info[au8_HCSR04_Instance].DISTANCE;
 8005daa:	79fa      	ldrb	r2, [r7, #7]
 8005dac:	4908      	ldr	r1, [pc, #32]	; (8005dd0 <HCSR04_Read+0x30>)
 8005dae:	4613      	mov	r3, r2
 8005db0:	00db      	lsls	r3, r3, #3
 8005db2:	4413      	add	r3, r2
 8005db4:	009b      	lsls	r3, r3, #2
 8005db6:	440b      	add	r3, r1
 8005db8:	3318      	adds	r3, #24
 8005dba:	681b      	ldr	r3, [r3, #0]
 8005dbc:	ee07 3a90 	vmov	s15, r3
}
 8005dc0:	eeb0 0a67 	vmov.f32	s0, s15
 8005dc4:	370c      	adds	r7, #12
 8005dc6:	46bd      	mov	sp, r7
 8005dc8:	f85d 7b04 	ldr.w	r7, [sp], #4
 8005dcc:	4770      	bx	lr
 8005dce:	bf00      	nop
 8005dd0:	20000224 	.word	0x20000224

08005dd4 <HCSR04_Trigger>:

void HCSR04_Trigger(uint8_t au8_HCSR04_Instance)
{
 8005dd4:	b580      	push	{r7, lr}
 8005dd6:	b082      	sub	sp, #8
 8005dd8:	af00      	add	r7, sp, #0
 8005dda:	4603      	mov	r3, r0
 8005ddc:	71fb      	strb	r3, [r7, #7]
	HAL_GPIO_WritePin(HCSR04_CfgParam[au8_HCSR04_Instance].TRIG_GPIO, HCSR04_CfgParam[au8_HCSR04_Instance].TRIG_PIN, 1);
 8005dde:	79fa      	ldrb	r2, [r7, #7]
 8005de0:	4917      	ldr	r1, [pc, #92]	; (8005e40 <HCSR04_Trigger+0x6c>)
 8005de2:	4613      	mov	r3, r2
 8005de4:	009b      	lsls	r3, r3, #2
 8005de6:	4413      	add	r3, r2
 8005de8:	009b      	lsls	r3, r3, #2
 8005dea:	440b      	add	r3, r1
 8005dec:	6818      	ldr	r0, [r3, #0]
 8005dee:	79fa      	ldrb	r2, [r7, #7]
 8005df0:	4913      	ldr	r1, [pc, #76]	; (8005e40 <HCSR04_Trigger+0x6c>)
 8005df2:	4613      	mov	r3, r2
 8005df4:	009b      	lsls	r3, r3, #2
 8005df6:	4413      	add	r3, r2
 8005df8:	009b      	lsls	r3, r3, #2
 8005dfa:	440b      	add	r3, r1
 8005dfc:	3304      	adds	r3, #4
 8005dfe:	881b      	ldrh	r3, [r3, #0]
 8005e00:	2201      	movs	r2, #1
 8005e02:	4619      	mov	r1, r3
 8005e04:	f7fc fe94 	bl	8002b30 <HAL_GPIO_WritePin>
	DWT_Delay_us(2);
 8005e08:	2002      	movs	r0, #2
 8005e0a:	f7ff fb31 	bl	8005470 <DWT_Delay_us>
	HAL_GPIO_WritePin(HCSR04_CfgParam[au8_HCSR04_Instance].TRIG_GPIO, HCSR04_CfgParam[au8_HCSR04_Instance].TRIG_PIN, 0);
 8005e0e:	79fa      	ldrb	r2, [r7, #7]
 8005e10:	490b      	ldr	r1, [pc, #44]	; (8005e40 <HCSR04_Trigger+0x6c>)
 8005e12:	4613      	mov	r3, r2
 8005e14:	009b      	lsls	r3, r3, #2
 8005e16:	4413      	add	r3, r2
 8005e18:	009b      	lsls	r3, r3, #2
 8005e1a:	440b      	add	r3, r1
 8005e1c:	6818      	ldr	r0, [r3, #0]
 8005e1e:	79fa      	ldrb	r2, [r7, #7]
 8005e20:	4907      	ldr	r1, [pc, #28]	; (8005e40 <HCSR04_Trigger+0x6c>)
 8005e22:	4613      	mov	r3, r2
 8005e24:	009b      	lsls	r3, r3, #2
 8005e26:	4413      	add	r3, r2
 8005e28:	009b      	lsls	r3, r3, #2
 8005e2a:	440b      	add	r3, r1
 8005e2c:	3304      	adds	r3, #4
 8005e2e:	881b      	ldrh	r3, [r3, #0]
 8005e30:	2200      	movs	r2, #0
 8005e32:	4619      	mov	r1, r3
 8005e34:	f7fc fe7c 	bl	8002b30 <HAL_GPIO_WritePin>
}
 8005e38:	bf00      	nop
 8005e3a:	3708      	adds	r7, #8
 8005e3c:	46bd      	mov	sp, r7
 8005e3e:	bd80      	pop	{r7, pc}
 8005e40:	08008ce4 	.word	0x08008ce4

08005e44 <DWT_Delay_Init>:

#include "DWT_Delay.h"


uint32_t DWT_Delay_Init(void)
{
 8005e44:	b480      	push	{r7}
 8005e46:	af00      	add	r7, sp, #0
    /* Disable TRC */
    CoreDebug->DEMCR &= ~CoreDebug_DEMCR_TRCENA_Msk; // ~0x01000000;
 8005e48:	4b14      	ldr	r3, [pc, #80]	; (8005e9c <DWT_Delay_Init+0x58>)
 8005e4a:	68db      	ldr	r3, [r3, #12]
 8005e4c:	4a13      	ldr	r2, [pc, #76]	; (8005e9c <DWT_Delay_Init+0x58>)
 8005e4e:	f023 7380 	bic.w	r3, r3, #16777216	; 0x1000000
 8005e52:	60d3      	str	r3, [r2, #12]
    /* Enable TRC */
    CoreDebug->DEMCR |=  CoreDebug_DEMCR_TRCENA_Msk; // 0x01000000;
 8005e54:	4b11      	ldr	r3, [pc, #68]	; (8005e9c <DWT_Delay_Init+0x58>)
 8005e56:	68db      	ldr	r3, [r3, #12]
 8005e58:	4a10      	ldr	r2, [pc, #64]	; (8005e9c <DWT_Delay_Init+0x58>)
 8005e5a:	f043 7380 	orr.w	r3, r3, #16777216	; 0x1000000
 8005e5e:	60d3      	str	r3, [r2, #12]

    /* Disable clock cycle counter */
    DWT->CTRL &= ~DWT_CTRL_CYCCNTENA_Msk; //~0x00000001;
 8005e60:	4b0f      	ldr	r3, [pc, #60]	; (8005ea0 <DWT_Delay_Init+0x5c>)
 8005e62:	681b      	ldr	r3, [r3, #0]
 8005e64:	4a0e      	ldr	r2, [pc, #56]	; (8005ea0 <DWT_Delay_Init+0x5c>)
 8005e66:	f023 0301 	bic.w	r3, r3, #1
 8005e6a:	6013      	str	r3, [r2, #0]
    /* Enable  clock cycle counter */
    DWT->CTRL |=  DWT_CTRL_CYCCNTENA_Msk; //0x00000001;
 8005e6c:	4b0c      	ldr	r3, [pc, #48]	; (8005ea0 <DWT_Delay_Init+0x5c>)
 8005e6e:	681b      	ldr	r3, [r3, #0]
 8005e70:	4a0b      	ldr	r2, [pc, #44]	; (8005ea0 <DWT_Delay_Init+0x5c>)
 8005e72:	f043 0301 	orr.w	r3, r3, #1
 8005e76:	6013      	str	r3, [r2, #0]

    /* Reset the clock cycle counter value */
    DWT->CYCCNT = 0;
 8005e78:	4b09      	ldr	r3, [pc, #36]	; (8005ea0 <DWT_Delay_Init+0x5c>)
 8005e7a:	2200      	movs	r2, #0
 8005e7c:	605a      	str	r2, [r3, #4]

    /* 3 NO OPERATION instructions */
    __ASM volatile ("NOP");
 8005e7e:	bf00      	nop
    __ASM volatile ("NOP");
 8005e80:	bf00      	nop
    __ASM volatile ("NOP");
 8005e82:	bf00      	nop

    /* Check if clock cycle counter has started */
    if(DWT->CYCCNT)
 8005e84:	4b06      	ldr	r3, [pc, #24]	; (8005ea0 <DWT_Delay_Init+0x5c>)
 8005e86:	685b      	ldr	r3, [r3, #4]
 8005e88:	2b00      	cmp	r3, #0
 8005e8a:	d001      	beq.n	8005e90 <DWT_Delay_Init+0x4c>
    {
       return 0; /*clock cycle counter started*/
 8005e8c:	2300      	movs	r3, #0
 8005e8e:	e000      	b.n	8005e92 <DWT_Delay_Init+0x4e>
    }
    else
    {
      return 1; /*clock cycle counter not started*/
 8005e90:	2301      	movs	r3, #1
    }
}
 8005e92:	4618      	mov	r0, r3
 8005e94:	46bd      	mov	sp, r7
 8005e96:	f85d 7b04 	ldr.w	r7, [sp], #4
 8005e9a:	4770      	bx	lr
 8005e9c:	e000edf0 	.word	0xe000edf0
 8005ea0:	e0001000 	.word	0xe0001000

08005ea4 <__errno>:
 8005ea4:	4b01      	ldr	r3, [pc, #4]	; (8005eac <__errno+0x8>)
 8005ea6:	6818      	ldr	r0, [r3, #0]
 8005ea8:	4770      	bx	lr
 8005eaa:	bf00      	nop
 8005eac:	20000024 	.word	0x20000024

08005eb0 <__libc_init_array>:
 8005eb0:	b570      	push	{r4, r5, r6, lr}
 8005eb2:	4d0d      	ldr	r5, [pc, #52]	; (8005ee8 <__libc_init_array+0x38>)
 8005eb4:	4c0d      	ldr	r4, [pc, #52]	; (8005eec <__libc_init_array+0x3c>)
 8005eb6:	1b64      	subs	r4, r4, r5
 8005eb8:	10a4      	asrs	r4, r4, #2
 8005eba:	2600      	movs	r6, #0
 8005ebc:	42a6      	cmp	r6, r4
 8005ebe:	d109      	bne.n	8005ed4 <__libc_init_array+0x24>
 8005ec0:	4d0b      	ldr	r5, [pc, #44]	; (8005ef0 <__libc_init_array+0x40>)
 8005ec2:	4c0c      	ldr	r4, [pc, #48]	; (8005ef4 <__libc_init_array+0x44>)
 8005ec4:	f002 feb6 	bl	8008c34 <_init>
 8005ec8:	1b64      	subs	r4, r4, r5
 8005eca:	10a4      	asrs	r4, r4, #2
 8005ecc:	2600      	movs	r6, #0
 8005ece:	42a6      	cmp	r6, r4
 8005ed0:	d105      	bne.n	8005ede <__libc_init_array+0x2e>
 8005ed2:	bd70      	pop	{r4, r5, r6, pc}
 8005ed4:	f855 3b04 	ldr.w	r3, [r5], #4
 8005ed8:	4798      	blx	r3
 8005eda:	3601      	adds	r6, #1
 8005edc:	e7ee      	b.n	8005ebc <__libc_init_array+0xc>
 8005ede:	f855 3b04 	ldr.w	r3, [r5], #4
 8005ee2:	4798      	blx	r3
 8005ee4:	3601      	adds	r6, #1
 8005ee6:	e7f2      	b.n	8005ece <__libc_init_array+0x1e>
 8005ee8:	0800911c 	.word	0x0800911c
 8005eec:	0800911c 	.word	0x0800911c
 8005ef0:	0800911c 	.word	0x0800911c
 8005ef4:	08009120 	.word	0x08009120

08005ef8 <memset>:
 8005ef8:	4402      	add	r2, r0
 8005efa:	4603      	mov	r3, r0
 8005efc:	4293      	cmp	r3, r2
 8005efe:	d100      	bne.n	8005f02 <memset+0xa>
 8005f00:	4770      	bx	lr
 8005f02:	f803 1b01 	strb.w	r1, [r3], #1
 8005f06:	e7f9      	b.n	8005efc <memset+0x4>

08005f08 <__cvt>:
 8005f08:	e92d 47ff 	stmdb	sp!, {r0, r1, r2, r3, r4, r5, r6, r7, r8, r9, sl, lr}
 8005f0c:	ec55 4b10 	vmov	r4, r5, d0
 8005f10:	2d00      	cmp	r5, #0
 8005f12:	460e      	mov	r6, r1
 8005f14:	4619      	mov	r1, r3
 8005f16:	462b      	mov	r3, r5
 8005f18:	bfbb      	ittet	lt
 8005f1a:	f105 4300 	addlt.w	r3, r5, #2147483648	; 0x80000000
 8005f1e:	461d      	movlt	r5, r3
 8005f20:	2300      	movge	r3, #0
 8005f22:	232d      	movlt	r3, #45	; 0x2d
 8005f24:	700b      	strb	r3, [r1, #0]
 8005f26:	9b0d      	ldr	r3, [sp, #52]	; 0x34
 8005f28:	f8dd a030 	ldr.w	sl, [sp, #48]	; 0x30
 8005f2c:	4691      	mov	r9, r2
 8005f2e:	f023 0820 	bic.w	r8, r3, #32
 8005f32:	bfbc      	itt	lt
 8005f34:	4622      	movlt	r2, r4
 8005f36:	4614      	movlt	r4, r2
 8005f38:	f1b8 0f46 	cmp.w	r8, #70	; 0x46
 8005f3c:	d005      	beq.n	8005f4a <__cvt+0x42>
 8005f3e:	f1b8 0f45 	cmp.w	r8, #69	; 0x45
 8005f42:	d100      	bne.n	8005f46 <__cvt+0x3e>
 8005f44:	3601      	adds	r6, #1
 8005f46:	2102      	movs	r1, #2
 8005f48:	e000      	b.n	8005f4c <__cvt+0x44>
 8005f4a:	2103      	movs	r1, #3
 8005f4c:	ab03      	add	r3, sp, #12
 8005f4e:	9301      	str	r3, [sp, #4]
 8005f50:	ab02      	add	r3, sp, #8
 8005f52:	9300      	str	r3, [sp, #0]
 8005f54:	ec45 4b10 	vmov	d0, r4, r5
 8005f58:	4653      	mov	r3, sl
 8005f5a:	4632      	mov	r2, r6
 8005f5c:	f000 fcec 	bl	8006938 <_dtoa_r>
 8005f60:	f1b8 0f47 	cmp.w	r8, #71	; 0x47
 8005f64:	4607      	mov	r7, r0
 8005f66:	d102      	bne.n	8005f6e <__cvt+0x66>
 8005f68:	f019 0f01 	tst.w	r9, #1
 8005f6c:	d022      	beq.n	8005fb4 <__cvt+0xac>
 8005f6e:	f1b8 0f46 	cmp.w	r8, #70	; 0x46
 8005f72:	eb07 0906 	add.w	r9, r7, r6
 8005f76:	d110      	bne.n	8005f9a <__cvt+0x92>
 8005f78:	783b      	ldrb	r3, [r7, #0]
 8005f7a:	2b30      	cmp	r3, #48	; 0x30
 8005f7c:	d10a      	bne.n	8005f94 <__cvt+0x8c>
 8005f7e:	2200      	movs	r2, #0
 8005f80:	2300      	movs	r3, #0
 8005f82:	4620      	mov	r0, r4
 8005f84:	4629      	mov	r1, r5
 8005f86:	f7fa fdbf 	bl	8000b08 <__aeabi_dcmpeq>
 8005f8a:	b918      	cbnz	r0, 8005f94 <__cvt+0x8c>
 8005f8c:	f1c6 0601 	rsb	r6, r6, #1
 8005f90:	f8ca 6000 	str.w	r6, [sl]
 8005f94:	f8da 3000 	ldr.w	r3, [sl]
 8005f98:	4499      	add	r9, r3
 8005f9a:	2200      	movs	r2, #0
 8005f9c:	2300      	movs	r3, #0
 8005f9e:	4620      	mov	r0, r4
 8005fa0:	4629      	mov	r1, r5
 8005fa2:	f7fa fdb1 	bl	8000b08 <__aeabi_dcmpeq>
 8005fa6:	b108      	cbz	r0, 8005fac <__cvt+0xa4>
 8005fa8:	f8cd 900c 	str.w	r9, [sp, #12]
 8005fac:	2230      	movs	r2, #48	; 0x30
 8005fae:	9b03      	ldr	r3, [sp, #12]
 8005fb0:	454b      	cmp	r3, r9
 8005fb2:	d307      	bcc.n	8005fc4 <__cvt+0xbc>
 8005fb4:	9b03      	ldr	r3, [sp, #12]
 8005fb6:	9a0e      	ldr	r2, [sp, #56]	; 0x38
 8005fb8:	1bdb      	subs	r3, r3, r7
 8005fba:	4638      	mov	r0, r7
 8005fbc:	6013      	str	r3, [r2, #0]
 8005fbe:	b004      	add	sp, #16
 8005fc0:	e8bd 87f0 	ldmia.w	sp!, {r4, r5, r6, r7, r8, r9, sl, pc}
 8005fc4:	1c59      	adds	r1, r3, #1
 8005fc6:	9103      	str	r1, [sp, #12]
 8005fc8:	701a      	strb	r2, [r3, #0]
 8005fca:	e7f0      	b.n	8005fae <__cvt+0xa6>

08005fcc <__exponent>:
 8005fcc:	b5f7      	push	{r0, r1, r2, r4, r5, r6, r7, lr}
 8005fce:	4603      	mov	r3, r0
 8005fd0:	2900      	cmp	r1, #0
 8005fd2:	bfb8      	it	lt
 8005fd4:	4249      	neglt	r1, r1
 8005fd6:	f803 2b02 	strb.w	r2, [r3], #2
 8005fda:	bfb4      	ite	lt
 8005fdc:	222d      	movlt	r2, #45	; 0x2d
 8005fde:	222b      	movge	r2, #43	; 0x2b
 8005fe0:	2909      	cmp	r1, #9
 8005fe2:	7042      	strb	r2, [r0, #1]
 8005fe4:	dd2a      	ble.n	800603c <__exponent+0x70>
 8005fe6:	f10d 0407 	add.w	r4, sp, #7
 8005fea:	46a4      	mov	ip, r4
 8005fec:	270a      	movs	r7, #10
 8005fee:	46a6      	mov	lr, r4
 8005ff0:	460a      	mov	r2, r1
 8005ff2:	fb91 f6f7 	sdiv	r6, r1, r7
 8005ff6:	fb07 1516 	mls	r5, r7, r6, r1
 8005ffa:	3530      	adds	r5, #48	; 0x30
 8005ffc:	2a63      	cmp	r2, #99	; 0x63
 8005ffe:	f104 34ff 	add.w	r4, r4, #4294967295	; 0xffffffff
 8006002:	f80e 5c01 	strb.w	r5, [lr, #-1]
 8006006:	4631      	mov	r1, r6
 8006008:	dcf1      	bgt.n	8005fee <__exponent+0x22>
 800600a:	3130      	adds	r1, #48	; 0x30
 800600c:	f1ae 0502 	sub.w	r5, lr, #2
 8006010:	f804 1c01 	strb.w	r1, [r4, #-1]
 8006014:	1c44      	adds	r4, r0, #1
 8006016:	4629      	mov	r1, r5
 8006018:	4561      	cmp	r1, ip
 800601a:	d30a      	bcc.n	8006032 <__exponent+0x66>
 800601c:	f10d 0209 	add.w	r2, sp, #9
 8006020:	eba2 020e 	sub.w	r2, r2, lr
 8006024:	4565      	cmp	r5, ip
 8006026:	bf88      	it	hi
 8006028:	2200      	movhi	r2, #0
 800602a:	4413      	add	r3, r2
 800602c:	1a18      	subs	r0, r3, r0
 800602e:	b003      	add	sp, #12
 8006030:	bdf0      	pop	{r4, r5, r6, r7, pc}
 8006032:	f811 2b01 	ldrb.w	r2, [r1], #1
 8006036:	f804 2f01 	strb.w	r2, [r4, #1]!
 800603a:	e7ed      	b.n	8006018 <__exponent+0x4c>
 800603c:	2330      	movs	r3, #48	; 0x30
 800603e:	3130      	adds	r1, #48	; 0x30
 8006040:	7083      	strb	r3, [r0, #2]
 8006042:	70c1      	strb	r1, [r0, #3]
 8006044:	1d03      	adds	r3, r0, #4
 8006046:	e7f1      	b.n	800602c <__exponent+0x60>

08006048 <_printf_float>:
 8006048:	e92d 4ff0 	stmdb	sp!, {r4, r5, r6, r7, r8, r9, sl, fp, lr}
 800604c:	ed2d 8b02 	vpush	{d8}
 8006050:	b08d      	sub	sp, #52	; 0x34
 8006052:	460c      	mov	r4, r1
 8006054:	f8dd 8060 	ldr.w	r8, [sp, #96]	; 0x60
 8006058:	4616      	mov	r6, r2
 800605a:	461f      	mov	r7, r3
 800605c:	4605      	mov	r5, r0
 800605e:	f001 fa57 	bl	8007510 <_localeconv_r>
 8006062:	f8d0 a000 	ldr.w	sl, [r0]
 8006066:	4650      	mov	r0, sl
 8006068:	f7fa f8d2 	bl	8000210 <strlen>
 800606c:	2300      	movs	r3, #0
 800606e:	930a      	str	r3, [sp, #40]	; 0x28
 8006070:	6823      	ldr	r3, [r4, #0]
 8006072:	9305      	str	r3, [sp, #20]
 8006074:	f8d8 3000 	ldr.w	r3, [r8]
 8006078:	f894 b018 	ldrb.w	fp, [r4, #24]
 800607c:	3307      	adds	r3, #7
 800607e:	f023 0307 	bic.w	r3, r3, #7
 8006082:	f103 0208 	add.w	r2, r3, #8
 8006086:	f8c8 2000 	str.w	r2, [r8]
 800608a:	e9d3 2300 	ldrd	r2, r3, [r3]
 800608e:	e9c4 2312 	strd	r2, r3, [r4, #72]	; 0x48
 8006092:	e9d4 8912 	ldrd	r8, r9, [r4, #72]	; 0x48
 8006096:	f029 4300 	bic.w	r3, r9, #2147483648	; 0x80000000
 800609a:	9307      	str	r3, [sp, #28]
 800609c:	f8cd 8018 	str.w	r8, [sp, #24]
 80060a0:	ee08 0a10 	vmov	s16, r0
 80060a4:	4b9f      	ldr	r3, [pc, #636]	; (8006324 <_printf_float+0x2dc>)
 80060a6:	e9dd 0106 	ldrd	r0, r1, [sp, #24]
 80060aa:	f04f 32ff 	mov.w	r2, #4294967295	; 0xffffffff
 80060ae:	f7fa fd5d 	bl	8000b6c <__aeabi_dcmpun>
 80060b2:	bb88      	cbnz	r0, 8006118 <_printf_float+0xd0>
 80060b4:	e9dd 0106 	ldrd	r0, r1, [sp, #24]
 80060b8:	4b9a      	ldr	r3, [pc, #616]	; (8006324 <_printf_float+0x2dc>)
 80060ba:	f04f 32ff 	mov.w	r2, #4294967295	; 0xffffffff
 80060be:	f7fa fd37 	bl	8000b30 <__aeabi_dcmple>
 80060c2:	bb48      	cbnz	r0, 8006118 <_printf_float+0xd0>
 80060c4:	2200      	movs	r2, #0
 80060c6:	2300      	movs	r3, #0
 80060c8:	4640      	mov	r0, r8
 80060ca:	4649      	mov	r1, r9
 80060cc:	f7fa fd26 	bl	8000b1c <__aeabi_dcmplt>
 80060d0:	b110      	cbz	r0, 80060d8 <_printf_float+0x90>
 80060d2:	232d      	movs	r3, #45	; 0x2d
 80060d4:	f884 3043 	strb.w	r3, [r4, #67]	; 0x43
 80060d8:	4b93      	ldr	r3, [pc, #588]	; (8006328 <_printf_float+0x2e0>)
 80060da:	4894      	ldr	r0, [pc, #592]	; (800632c <_printf_float+0x2e4>)
 80060dc:	f1bb 0f47 	cmp.w	fp, #71	; 0x47
 80060e0:	bf94      	ite	ls
 80060e2:	4698      	movls	r8, r3
 80060e4:	4680      	movhi	r8, r0
 80060e6:	2303      	movs	r3, #3
 80060e8:	6123      	str	r3, [r4, #16]
 80060ea:	9b05      	ldr	r3, [sp, #20]
 80060ec:	f023 0204 	bic.w	r2, r3, #4
 80060f0:	6022      	str	r2, [r4, #0]
 80060f2:	f04f 0900 	mov.w	r9, #0
 80060f6:	9700      	str	r7, [sp, #0]
 80060f8:	4633      	mov	r3, r6
 80060fa:	aa0b      	add	r2, sp, #44	; 0x2c
 80060fc:	4621      	mov	r1, r4
 80060fe:	4628      	mov	r0, r5
 8006100:	f000 f9d8 	bl	80064b4 <_printf_common>
 8006104:	3001      	adds	r0, #1
 8006106:	f040 8090 	bne.w	800622a <_printf_float+0x1e2>
 800610a:	f04f 30ff 	mov.w	r0, #4294967295	; 0xffffffff
 800610e:	b00d      	add	sp, #52	; 0x34
 8006110:	ecbd 8b02 	vpop	{d8}
 8006114:	e8bd 8ff0 	ldmia.w	sp!, {r4, r5, r6, r7, r8, r9, sl, fp, pc}
 8006118:	4642      	mov	r2, r8
 800611a:	464b      	mov	r3, r9
 800611c:	4640      	mov	r0, r8
 800611e:	4649      	mov	r1, r9
 8006120:	f7fa fd24 	bl	8000b6c <__aeabi_dcmpun>
 8006124:	b140      	cbz	r0, 8006138 <_printf_float+0xf0>
 8006126:	464b      	mov	r3, r9
 8006128:	2b00      	cmp	r3, #0
 800612a:	bfbc      	itt	lt
 800612c:	232d      	movlt	r3, #45	; 0x2d
 800612e:	f884 3043 	strblt.w	r3, [r4, #67]	; 0x43
 8006132:	487f      	ldr	r0, [pc, #508]	; (8006330 <_printf_float+0x2e8>)
 8006134:	4b7f      	ldr	r3, [pc, #508]	; (8006334 <_printf_float+0x2ec>)
 8006136:	e7d1      	b.n	80060dc <_printf_float+0x94>
 8006138:	6863      	ldr	r3, [r4, #4]
 800613a:	f00b 02df 	and.w	r2, fp, #223	; 0xdf
 800613e:	9206      	str	r2, [sp, #24]
 8006140:	1c5a      	adds	r2, r3, #1
 8006142:	d13f      	bne.n	80061c4 <_printf_float+0x17c>
 8006144:	2306      	movs	r3, #6
 8006146:	6063      	str	r3, [r4, #4]
 8006148:	9b05      	ldr	r3, [sp, #20]
 800614a:	6861      	ldr	r1, [r4, #4]
 800614c:	f443 6280 	orr.w	r2, r3, #1024	; 0x400
 8006150:	2300      	movs	r3, #0
 8006152:	9303      	str	r3, [sp, #12]
 8006154:	ab0a      	add	r3, sp, #40	; 0x28
 8006156:	e9cd b301 	strd	fp, r3, [sp, #4]
 800615a:	ab09      	add	r3, sp, #36	; 0x24
 800615c:	ec49 8b10 	vmov	d0, r8, r9
 8006160:	9300      	str	r3, [sp, #0]
 8006162:	6022      	str	r2, [r4, #0]
 8006164:	f10d 0323 	add.w	r3, sp, #35	; 0x23
 8006168:	4628      	mov	r0, r5
 800616a:	f7ff fecd 	bl	8005f08 <__cvt>
 800616e:	9b06      	ldr	r3, [sp, #24]
 8006170:	9909      	ldr	r1, [sp, #36]	; 0x24
 8006172:	2b47      	cmp	r3, #71	; 0x47
 8006174:	4680      	mov	r8, r0
 8006176:	d108      	bne.n	800618a <_printf_float+0x142>
 8006178:	1cc8      	adds	r0, r1, #3
 800617a:	db02      	blt.n	8006182 <_printf_float+0x13a>
 800617c:	6863      	ldr	r3, [r4, #4]
 800617e:	4299      	cmp	r1, r3
 8006180:	dd41      	ble.n	8006206 <_printf_float+0x1be>
 8006182:	f1ab 0b02 	sub.w	fp, fp, #2
 8006186:	fa5f fb8b 	uxtb.w	fp, fp
 800618a:	f1bb 0f65 	cmp.w	fp, #101	; 0x65
 800618e:	d820      	bhi.n	80061d2 <_printf_float+0x18a>
 8006190:	3901      	subs	r1, #1
 8006192:	465a      	mov	r2, fp
 8006194:	f104 0050 	add.w	r0, r4, #80	; 0x50
 8006198:	9109      	str	r1, [sp, #36]	; 0x24
 800619a:	f7ff ff17 	bl	8005fcc <__exponent>
 800619e:	9a0a      	ldr	r2, [sp, #40]	; 0x28
 80061a0:	1813      	adds	r3, r2, r0
 80061a2:	2a01      	cmp	r2, #1
 80061a4:	4681      	mov	r9, r0
 80061a6:	6123      	str	r3, [r4, #16]
 80061a8:	dc02      	bgt.n	80061b0 <_printf_float+0x168>
 80061aa:	6822      	ldr	r2, [r4, #0]
 80061ac:	07d2      	lsls	r2, r2, #31
 80061ae:	d501      	bpl.n	80061b4 <_printf_float+0x16c>
 80061b0:	3301      	adds	r3, #1
 80061b2:	6123      	str	r3, [r4, #16]
 80061b4:	f89d 3023 	ldrb.w	r3, [sp, #35]	; 0x23
 80061b8:	2b00      	cmp	r3, #0
 80061ba:	d09c      	beq.n	80060f6 <_printf_float+0xae>
 80061bc:	232d      	movs	r3, #45	; 0x2d
 80061be:	f884 3043 	strb.w	r3, [r4, #67]	; 0x43
 80061c2:	e798      	b.n	80060f6 <_printf_float+0xae>
 80061c4:	9a06      	ldr	r2, [sp, #24]
 80061c6:	2a47      	cmp	r2, #71	; 0x47
 80061c8:	d1be      	bne.n	8006148 <_printf_float+0x100>
 80061ca:	2b00      	cmp	r3, #0
 80061cc:	d1bc      	bne.n	8006148 <_printf_float+0x100>
 80061ce:	2301      	movs	r3, #1
 80061d0:	e7b9      	b.n	8006146 <_printf_float+0xfe>
 80061d2:	f1bb 0f66 	cmp.w	fp, #102	; 0x66
 80061d6:	d118      	bne.n	800620a <_printf_float+0x1c2>
 80061d8:	2900      	cmp	r1, #0
 80061da:	6863      	ldr	r3, [r4, #4]
 80061dc:	dd0b      	ble.n	80061f6 <_printf_float+0x1ae>
 80061de:	6121      	str	r1, [r4, #16]
 80061e0:	b913      	cbnz	r3, 80061e8 <_printf_float+0x1a0>
 80061e2:	6822      	ldr	r2, [r4, #0]
 80061e4:	07d0      	lsls	r0, r2, #31
 80061e6:	d502      	bpl.n	80061ee <_printf_float+0x1a6>
 80061e8:	3301      	adds	r3, #1
 80061ea:	440b      	add	r3, r1
 80061ec:	6123      	str	r3, [r4, #16]
 80061ee:	65a1      	str	r1, [r4, #88]	; 0x58
 80061f0:	f04f 0900 	mov.w	r9, #0
 80061f4:	e7de      	b.n	80061b4 <_printf_float+0x16c>
 80061f6:	b913      	cbnz	r3, 80061fe <_printf_float+0x1b6>
 80061f8:	6822      	ldr	r2, [r4, #0]
 80061fa:	07d2      	lsls	r2, r2, #31
 80061fc:	d501      	bpl.n	8006202 <_printf_float+0x1ba>
 80061fe:	3302      	adds	r3, #2
 8006200:	e7f4      	b.n	80061ec <_printf_float+0x1a4>
 8006202:	2301      	movs	r3, #1
 8006204:	e7f2      	b.n	80061ec <_printf_float+0x1a4>
 8006206:	f04f 0b67 	mov.w	fp, #103	; 0x67
 800620a:	9b0a      	ldr	r3, [sp, #40]	; 0x28
 800620c:	4299      	cmp	r1, r3
 800620e:	db05      	blt.n	800621c <_printf_float+0x1d4>
 8006210:	6823      	ldr	r3, [r4, #0]
 8006212:	6121      	str	r1, [r4, #16]
 8006214:	07d8      	lsls	r0, r3, #31
 8006216:	d5ea      	bpl.n	80061ee <_printf_float+0x1a6>
 8006218:	1c4b      	adds	r3, r1, #1
 800621a:	e7e7      	b.n	80061ec <_printf_float+0x1a4>
 800621c:	2900      	cmp	r1, #0
 800621e:	bfd4      	ite	le
 8006220:	f1c1 0202 	rsble	r2, r1, #2
 8006224:	2201      	movgt	r2, #1
 8006226:	4413      	add	r3, r2
 8006228:	e7e0      	b.n	80061ec <_printf_float+0x1a4>
 800622a:	6823      	ldr	r3, [r4, #0]
 800622c:	055a      	lsls	r2, r3, #21
 800622e:	d407      	bmi.n	8006240 <_printf_float+0x1f8>
 8006230:	6923      	ldr	r3, [r4, #16]
 8006232:	4642      	mov	r2, r8
 8006234:	4631      	mov	r1, r6
 8006236:	4628      	mov	r0, r5
 8006238:	47b8      	blx	r7
 800623a:	3001      	adds	r0, #1
 800623c:	d12c      	bne.n	8006298 <_printf_float+0x250>
 800623e:	e764      	b.n	800610a <_printf_float+0xc2>
 8006240:	f1bb 0f65 	cmp.w	fp, #101	; 0x65
 8006244:	f240 80e0 	bls.w	8006408 <_printf_float+0x3c0>
 8006248:	e9d4 0112 	ldrd	r0, r1, [r4, #72]	; 0x48
 800624c:	2200      	movs	r2, #0
 800624e:	2300      	movs	r3, #0
 8006250:	f7fa fc5a 	bl	8000b08 <__aeabi_dcmpeq>
 8006254:	2800      	cmp	r0, #0
 8006256:	d034      	beq.n	80062c2 <_printf_float+0x27a>
 8006258:	4a37      	ldr	r2, [pc, #220]	; (8006338 <_printf_float+0x2f0>)
 800625a:	2301      	movs	r3, #1
 800625c:	4631      	mov	r1, r6
 800625e:	4628      	mov	r0, r5
 8006260:	47b8      	blx	r7
 8006262:	3001      	adds	r0, #1
 8006264:	f43f af51 	beq.w	800610a <_printf_float+0xc2>
 8006268:	e9dd 2309 	ldrd	r2, r3, [sp, #36]	; 0x24
 800626c:	429a      	cmp	r2, r3
 800626e:	db02      	blt.n	8006276 <_printf_float+0x22e>
 8006270:	6823      	ldr	r3, [r4, #0]
 8006272:	07d8      	lsls	r0, r3, #31
 8006274:	d510      	bpl.n	8006298 <_printf_float+0x250>
 8006276:	ee18 3a10 	vmov	r3, s16
 800627a:	4652      	mov	r2, sl
 800627c:	4631      	mov	r1, r6
 800627e:	4628      	mov	r0, r5
 8006280:	47b8      	blx	r7
 8006282:	3001      	adds	r0, #1
 8006284:	f43f af41 	beq.w	800610a <_printf_float+0xc2>
 8006288:	f04f 0800 	mov.w	r8, #0
 800628c:	f104 091a 	add.w	r9, r4, #26
 8006290:	9b0a      	ldr	r3, [sp, #40]	; 0x28
 8006292:	3b01      	subs	r3, #1
 8006294:	4543      	cmp	r3, r8
 8006296:	dc09      	bgt.n	80062ac <_printf_float+0x264>
 8006298:	6823      	ldr	r3, [r4, #0]
 800629a:	079b      	lsls	r3, r3, #30
 800629c:	f100 8105 	bmi.w	80064aa <_printf_float+0x462>
 80062a0:	68e0      	ldr	r0, [r4, #12]
 80062a2:	9b0b      	ldr	r3, [sp, #44]	; 0x2c
 80062a4:	4298      	cmp	r0, r3
 80062a6:	bfb8      	it	lt
 80062a8:	4618      	movlt	r0, r3
 80062aa:	e730      	b.n	800610e <_printf_float+0xc6>
 80062ac:	2301      	movs	r3, #1
 80062ae:	464a      	mov	r2, r9
 80062b0:	4631      	mov	r1, r6
 80062b2:	4628      	mov	r0, r5
 80062b4:	47b8      	blx	r7
 80062b6:	3001      	adds	r0, #1
 80062b8:	f43f af27 	beq.w	800610a <_printf_float+0xc2>
 80062bc:	f108 0801 	add.w	r8, r8, #1
 80062c0:	e7e6      	b.n	8006290 <_printf_float+0x248>
 80062c2:	9b09      	ldr	r3, [sp, #36]	; 0x24
 80062c4:	2b00      	cmp	r3, #0
 80062c6:	dc39      	bgt.n	800633c <_printf_float+0x2f4>
 80062c8:	4a1b      	ldr	r2, [pc, #108]	; (8006338 <_printf_float+0x2f0>)
 80062ca:	2301      	movs	r3, #1
 80062cc:	4631      	mov	r1, r6
 80062ce:	4628      	mov	r0, r5
 80062d0:	47b8      	blx	r7
 80062d2:	3001      	adds	r0, #1
 80062d4:	f43f af19 	beq.w	800610a <_printf_float+0xc2>
 80062d8:	e9dd 2309 	ldrd	r2, r3, [sp, #36]	; 0x24
 80062dc:	4313      	orrs	r3, r2
 80062de:	d102      	bne.n	80062e6 <_printf_float+0x29e>
 80062e0:	6823      	ldr	r3, [r4, #0]
 80062e2:	07d9      	lsls	r1, r3, #31
 80062e4:	d5d8      	bpl.n	8006298 <_printf_float+0x250>
 80062e6:	ee18 3a10 	vmov	r3, s16
 80062ea:	4652      	mov	r2, sl
 80062ec:	4631      	mov	r1, r6
 80062ee:	4628      	mov	r0, r5
 80062f0:	47b8      	blx	r7
 80062f2:	3001      	adds	r0, #1
 80062f4:	f43f af09 	beq.w	800610a <_printf_float+0xc2>
 80062f8:	f04f 0900 	mov.w	r9, #0
 80062fc:	f104 0a1a 	add.w	sl, r4, #26
 8006300:	9b09      	ldr	r3, [sp, #36]	; 0x24
 8006302:	425b      	negs	r3, r3
 8006304:	454b      	cmp	r3, r9
 8006306:	dc01      	bgt.n	800630c <_printf_float+0x2c4>
 8006308:	9b0a      	ldr	r3, [sp, #40]	; 0x28
 800630a:	e792      	b.n	8006232 <_printf_float+0x1ea>
 800630c:	2301      	movs	r3, #1
 800630e:	4652      	mov	r2, sl
 8006310:	4631      	mov	r1, r6
 8006312:	4628      	mov	r0, r5
 8006314:	47b8      	blx	r7
 8006316:	3001      	adds	r0, #1
 8006318:	f43f aef7 	beq.w	800610a <_printf_float+0xc2>
 800631c:	f109 0901 	add.w	r9, r9, #1
 8006320:	e7ee      	b.n	8006300 <_printf_float+0x2b8>
 8006322:	bf00      	nop
 8006324:	7fefffff 	.word	0x7fefffff
 8006328:	08008d38 	.word	0x08008d38
 800632c:	08008d3c 	.word	0x08008d3c
 8006330:	08008d44 	.word	0x08008d44
 8006334:	08008d40 	.word	0x08008d40
 8006338:	08008d48 	.word	0x08008d48
 800633c:	9a0a      	ldr	r2, [sp, #40]	; 0x28
 800633e:	6da3      	ldr	r3, [r4, #88]	; 0x58
 8006340:	429a      	cmp	r2, r3
 8006342:	bfa8      	it	ge
 8006344:	461a      	movge	r2, r3
 8006346:	2a00      	cmp	r2, #0
 8006348:	4691      	mov	r9, r2
 800634a:	dc37      	bgt.n	80063bc <_printf_float+0x374>
 800634c:	f04f 0b00 	mov.w	fp, #0
 8006350:	ea29 79e9 	bic.w	r9, r9, r9, asr #31
 8006354:	f104 021a 	add.w	r2, r4, #26
 8006358:	6da3      	ldr	r3, [r4, #88]	; 0x58
 800635a:	9305      	str	r3, [sp, #20]
 800635c:	eba3 0309 	sub.w	r3, r3, r9
 8006360:	455b      	cmp	r3, fp
 8006362:	dc33      	bgt.n	80063cc <_printf_float+0x384>
 8006364:	e9dd 2309 	ldrd	r2, r3, [sp, #36]	; 0x24
 8006368:	429a      	cmp	r2, r3
 800636a:	db3b      	blt.n	80063e4 <_printf_float+0x39c>
 800636c:	6823      	ldr	r3, [r4, #0]
 800636e:	07da      	lsls	r2, r3, #31
 8006370:	d438      	bmi.n	80063e4 <_printf_float+0x39c>
 8006372:	9a0a      	ldr	r2, [sp, #40]	; 0x28
 8006374:	9b05      	ldr	r3, [sp, #20]
 8006376:	9909      	ldr	r1, [sp, #36]	; 0x24
 8006378:	1ad3      	subs	r3, r2, r3
 800637a:	eba2 0901 	sub.w	r9, r2, r1
 800637e:	4599      	cmp	r9, r3
 8006380:	bfa8      	it	ge
 8006382:	4699      	movge	r9, r3
 8006384:	f1b9 0f00 	cmp.w	r9, #0
 8006388:	dc35      	bgt.n	80063f6 <_printf_float+0x3ae>
 800638a:	f04f 0800 	mov.w	r8, #0
 800638e:	ea29 79e9 	bic.w	r9, r9, r9, asr #31
 8006392:	f104 0a1a 	add.w	sl, r4, #26
 8006396:	e9dd 2309 	ldrd	r2, r3, [sp, #36]	; 0x24
 800639a:	1a9b      	subs	r3, r3, r2
 800639c:	eba3 0309 	sub.w	r3, r3, r9
 80063a0:	4543      	cmp	r3, r8
 80063a2:	f77f af79 	ble.w	8006298 <_printf_float+0x250>
 80063a6:	2301      	movs	r3, #1
 80063a8:	4652      	mov	r2, sl
 80063aa:	4631      	mov	r1, r6
 80063ac:	4628      	mov	r0, r5
 80063ae:	47b8      	blx	r7
 80063b0:	3001      	adds	r0, #1
 80063b2:	f43f aeaa 	beq.w	800610a <_printf_float+0xc2>
 80063b6:	f108 0801 	add.w	r8, r8, #1
 80063ba:	e7ec      	b.n	8006396 <_printf_float+0x34e>
 80063bc:	4613      	mov	r3, r2
 80063be:	4631      	mov	r1, r6
 80063c0:	4642      	mov	r2, r8
 80063c2:	4628      	mov	r0, r5
 80063c4:	47b8      	blx	r7
 80063c6:	3001      	adds	r0, #1
 80063c8:	d1c0      	bne.n	800634c <_printf_float+0x304>
 80063ca:	e69e      	b.n	800610a <_printf_float+0xc2>
 80063cc:	2301      	movs	r3, #1
 80063ce:	4631      	mov	r1, r6
 80063d0:	4628      	mov	r0, r5
 80063d2:	9205      	str	r2, [sp, #20]
 80063d4:	47b8      	blx	r7
 80063d6:	3001      	adds	r0, #1
 80063d8:	f43f ae97 	beq.w	800610a <_printf_float+0xc2>
 80063dc:	9a05      	ldr	r2, [sp, #20]
 80063de:	f10b 0b01 	add.w	fp, fp, #1
 80063e2:	e7b9      	b.n	8006358 <_printf_float+0x310>
 80063e4:	ee18 3a10 	vmov	r3, s16
 80063e8:	4652      	mov	r2, sl
 80063ea:	4631      	mov	r1, r6
 80063ec:	4628      	mov	r0, r5
 80063ee:	47b8      	blx	r7
 80063f0:	3001      	adds	r0, #1
 80063f2:	d1be      	bne.n	8006372 <_printf_float+0x32a>
 80063f4:	e689      	b.n	800610a <_printf_float+0xc2>
 80063f6:	9a05      	ldr	r2, [sp, #20]
 80063f8:	464b      	mov	r3, r9
 80063fa:	4442      	add	r2, r8
 80063fc:	4631      	mov	r1, r6
 80063fe:	4628      	mov	r0, r5
 8006400:	47b8      	blx	r7
 8006402:	3001      	adds	r0, #1
 8006404:	d1c1      	bne.n	800638a <_printf_float+0x342>
 8006406:	e680      	b.n	800610a <_printf_float+0xc2>
 8006408:	9a0a      	ldr	r2, [sp, #40]	; 0x28
 800640a:	2a01      	cmp	r2, #1
 800640c:	dc01      	bgt.n	8006412 <_printf_float+0x3ca>
 800640e:	07db      	lsls	r3, r3, #31
 8006410:	d538      	bpl.n	8006484 <_printf_float+0x43c>
 8006412:	2301      	movs	r3, #1
 8006414:	4642      	mov	r2, r8
 8006416:	4631      	mov	r1, r6
 8006418:	4628      	mov	r0, r5
 800641a:	47b8      	blx	r7
 800641c:	3001      	adds	r0, #1
 800641e:	f43f ae74 	beq.w	800610a <_printf_float+0xc2>
 8006422:	ee18 3a10 	vmov	r3, s16
 8006426:	4652      	mov	r2, sl
 8006428:	4631      	mov	r1, r6
 800642a:	4628      	mov	r0, r5
 800642c:	47b8      	blx	r7
 800642e:	3001      	adds	r0, #1
 8006430:	f43f ae6b 	beq.w	800610a <_printf_float+0xc2>
 8006434:	e9d4 0112 	ldrd	r0, r1, [r4, #72]	; 0x48
 8006438:	2200      	movs	r2, #0
 800643a:	2300      	movs	r3, #0
 800643c:	f7fa fb64 	bl	8000b08 <__aeabi_dcmpeq>
 8006440:	b9d8      	cbnz	r0, 800647a <_printf_float+0x432>
 8006442:	9b0a      	ldr	r3, [sp, #40]	; 0x28
 8006444:	f108 0201 	add.w	r2, r8, #1
 8006448:	3b01      	subs	r3, #1
 800644a:	4631      	mov	r1, r6
 800644c:	4628      	mov	r0, r5
 800644e:	47b8      	blx	r7
 8006450:	3001      	adds	r0, #1
 8006452:	d10e      	bne.n	8006472 <_printf_float+0x42a>
 8006454:	e659      	b.n	800610a <_printf_float+0xc2>
 8006456:	2301      	movs	r3, #1
 8006458:	4652      	mov	r2, sl
 800645a:	4631      	mov	r1, r6
 800645c:	4628      	mov	r0, r5
 800645e:	47b8      	blx	r7
 8006460:	3001      	adds	r0, #1
 8006462:	f43f ae52 	beq.w	800610a <_printf_float+0xc2>
 8006466:	f108 0801 	add.w	r8, r8, #1
 800646a:	9b0a      	ldr	r3, [sp, #40]	; 0x28
 800646c:	3b01      	subs	r3, #1
 800646e:	4543      	cmp	r3, r8
 8006470:	dcf1      	bgt.n	8006456 <_printf_float+0x40e>
 8006472:	464b      	mov	r3, r9
 8006474:	f104 0250 	add.w	r2, r4, #80	; 0x50
 8006478:	e6dc      	b.n	8006234 <_printf_float+0x1ec>
 800647a:	f04f 0800 	mov.w	r8, #0
 800647e:	f104 0a1a 	add.w	sl, r4, #26
 8006482:	e7f2      	b.n	800646a <_printf_float+0x422>
 8006484:	2301      	movs	r3, #1
 8006486:	4642      	mov	r2, r8
 8006488:	e7df      	b.n	800644a <_printf_float+0x402>
 800648a:	2301      	movs	r3, #1
 800648c:	464a      	mov	r2, r9
 800648e:	4631      	mov	r1, r6
 8006490:	4628      	mov	r0, r5
 8006492:	47b8      	blx	r7
 8006494:	3001      	adds	r0, #1
 8006496:	f43f ae38 	beq.w	800610a <_printf_float+0xc2>
 800649a:	f108 0801 	add.w	r8, r8, #1
 800649e:	68e3      	ldr	r3, [r4, #12]
 80064a0:	990b      	ldr	r1, [sp, #44]	; 0x2c
 80064a2:	1a5b      	subs	r3, r3, r1
 80064a4:	4543      	cmp	r3, r8
 80064a6:	dcf0      	bgt.n	800648a <_printf_float+0x442>
 80064a8:	e6fa      	b.n	80062a0 <_printf_float+0x258>
 80064aa:	f04f 0800 	mov.w	r8, #0
 80064ae:	f104 0919 	add.w	r9, r4, #25
 80064b2:	e7f4      	b.n	800649e <_printf_float+0x456>

080064b4 <_printf_common>:
 80064b4:	e92d 47f0 	stmdb	sp!, {r4, r5, r6, r7, r8, r9, sl, lr}
 80064b8:	4616      	mov	r6, r2
 80064ba:	4699      	mov	r9, r3
 80064bc:	688a      	ldr	r2, [r1, #8]
 80064be:	690b      	ldr	r3, [r1, #16]
 80064c0:	f8dd 8020 	ldr.w	r8, [sp, #32]
 80064c4:	4293      	cmp	r3, r2
 80064c6:	bfb8      	it	lt
 80064c8:	4613      	movlt	r3, r2
 80064ca:	6033      	str	r3, [r6, #0]
 80064cc:	f891 2043 	ldrb.w	r2, [r1, #67]	; 0x43
 80064d0:	4607      	mov	r7, r0
 80064d2:	460c      	mov	r4, r1
 80064d4:	b10a      	cbz	r2, 80064da <_printf_common+0x26>
 80064d6:	3301      	adds	r3, #1
 80064d8:	6033      	str	r3, [r6, #0]
 80064da:	6823      	ldr	r3, [r4, #0]
 80064dc:	0699      	lsls	r1, r3, #26
 80064de:	bf42      	ittt	mi
 80064e0:	6833      	ldrmi	r3, [r6, #0]
 80064e2:	3302      	addmi	r3, #2
 80064e4:	6033      	strmi	r3, [r6, #0]
 80064e6:	6825      	ldr	r5, [r4, #0]
 80064e8:	f015 0506 	ands.w	r5, r5, #6
 80064ec:	d106      	bne.n	80064fc <_printf_common+0x48>
 80064ee:	f104 0a19 	add.w	sl, r4, #25
 80064f2:	68e3      	ldr	r3, [r4, #12]
 80064f4:	6832      	ldr	r2, [r6, #0]
 80064f6:	1a9b      	subs	r3, r3, r2
 80064f8:	42ab      	cmp	r3, r5
 80064fa:	dc26      	bgt.n	800654a <_printf_common+0x96>
 80064fc:	f894 2043 	ldrb.w	r2, [r4, #67]	; 0x43
 8006500:	1e13      	subs	r3, r2, #0
 8006502:	6822      	ldr	r2, [r4, #0]
 8006504:	bf18      	it	ne
 8006506:	2301      	movne	r3, #1
 8006508:	0692      	lsls	r2, r2, #26
 800650a:	d42b      	bmi.n	8006564 <_printf_common+0xb0>
 800650c:	f104 0243 	add.w	r2, r4, #67	; 0x43
 8006510:	4649      	mov	r1, r9
 8006512:	4638      	mov	r0, r7
 8006514:	47c0      	blx	r8
 8006516:	3001      	adds	r0, #1
 8006518:	d01e      	beq.n	8006558 <_printf_common+0xa4>
 800651a:	6823      	ldr	r3, [r4, #0]
 800651c:	68e5      	ldr	r5, [r4, #12]
 800651e:	6832      	ldr	r2, [r6, #0]
 8006520:	f003 0306 	and.w	r3, r3, #6
 8006524:	2b04      	cmp	r3, #4
 8006526:	bf08      	it	eq
 8006528:	1aad      	subeq	r5, r5, r2
 800652a:	68a3      	ldr	r3, [r4, #8]
 800652c:	6922      	ldr	r2, [r4, #16]
 800652e:	bf0c      	ite	eq
 8006530:	ea25 75e5 	biceq.w	r5, r5, r5, asr #31
 8006534:	2500      	movne	r5, #0
 8006536:	4293      	cmp	r3, r2
 8006538:	bfc4      	itt	gt
 800653a:	1a9b      	subgt	r3, r3, r2
 800653c:	18ed      	addgt	r5, r5, r3
 800653e:	2600      	movs	r6, #0
 8006540:	341a      	adds	r4, #26
 8006542:	42b5      	cmp	r5, r6
 8006544:	d11a      	bne.n	800657c <_printf_common+0xc8>
 8006546:	2000      	movs	r0, #0
 8006548:	e008      	b.n	800655c <_printf_common+0xa8>
 800654a:	2301      	movs	r3, #1
 800654c:	4652      	mov	r2, sl
 800654e:	4649      	mov	r1, r9
 8006550:	4638      	mov	r0, r7
 8006552:	47c0      	blx	r8
 8006554:	3001      	adds	r0, #1
 8006556:	d103      	bne.n	8006560 <_printf_common+0xac>
 8006558:	f04f 30ff 	mov.w	r0, #4294967295	; 0xffffffff
 800655c:	e8bd 87f0 	ldmia.w	sp!, {r4, r5, r6, r7, r8, r9, sl, pc}
 8006560:	3501      	adds	r5, #1
 8006562:	e7c6      	b.n	80064f2 <_printf_common+0x3e>
 8006564:	18e1      	adds	r1, r4, r3
 8006566:	1c5a      	adds	r2, r3, #1
 8006568:	2030      	movs	r0, #48	; 0x30
 800656a:	f881 0043 	strb.w	r0, [r1, #67]	; 0x43
 800656e:	4422      	add	r2, r4
 8006570:	f894 1045 	ldrb.w	r1, [r4, #69]	; 0x45
 8006574:	f882 1043 	strb.w	r1, [r2, #67]	; 0x43
 8006578:	3302      	adds	r3, #2
 800657a:	e7c7      	b.n	800650c <_printf_common+0x58>
 800657c:	2301      	movs	r3, #1
 800657e:	4622      	mov	r2, r4
 8006580:	4649      	mov	r1, r9
 8006582:	4638      	mov	r0, r7
 8006584:	47c0      	blx	r8
 8006586:	3001      	adds	r0, #1
 8006588:	d0e6      	beq.n	8006558 <_printf_common+0xa4>
 800658a:	3601      	adds	r6, #1
 800658c:	e7d9      	b.n	8006542 <_printf_common+0x8e>
	...

08006590 <_printf_i>:
 8006590:	e92d 47ff 	stmdb	sp!, {r0, r1, r2, r3, r4, r5, r6, r7, r8, r9, sl, lr}
 8006594:	460c      	mov	r4, r1
 8006596:	4691      	mov	r9, r2
 8006598:	7e27      	ldrb	r7, [r4, #24]
 800659a:	990c      	ldr	r1, [sp, #48]	; 0x30
 800659c:	2f78      	cmp	r7, #120	; 0x78
 800659e:	4680      	mov	r8, r0
 80065a0:	469a      	mov	sl, r3
 80065a2:	f104 0243 	add.w	r2, r4, #67	; 0x43
 80065a6:	d807      	bhi.n	80065b8 <_printf_i+0x28>
 80065a8:	2f62      	cmp	r7, #98	; 0x62
 80065aa:	d80a      	bhi.n	80065c2 <_printf_i+0x32>
 80065ac:	2f00      	cmp	r7, #0
 80065ae:	f000 80d8 	beq.w	8006762 <_printf_i+0x1d2>
 80065b2:	2f58      	cmp	r7, #88	; 0x58
 80065b4:	f000 80a3 	beq.w	80066fe <_printf_i+0x16e>
 80065b8:	f104 0642 	add.w	r6, r4, #66	; 0x42
 80065bc:	f884 7042 	strb.w	r7, [r4, #66]	; 0x42
 80065c0:	e03a      	b.n	8006638 <_printf_i+0xa8>
 80065c2:	f1a7 0363 	sub.w	r3, r7, #99	; 0x63
 80065c6:	2b15      	cmp	r3, #21
 80065c8:	d8f6      	bhi.n	80065b8 <_printf_i+0x28>
 80065ca:	a001      	add	r0, pc, #4	; (adr r0, 80065d0 <_printf_i+0x40>)
 80065cc:	f850 f023 	ldr.w	pc, [r0, r3, lsl #2]
 80065d0:	08006629 	.word	0x08006629
 80065d4:	0800663d 	.word	0x0800663d
 80065d8:	080065b9 	.word	0x080065b9
 80065dc:	080065b9 	.word	0x080065b9
 80065e0:	080065b9 	.word	0x080065b9
 80065e4:	080065b9 	.word	0x080065b9
 80065e8:	0800663d 	.word	0x0800663d
 80065ec:	080065b9 	.word	0x080065b9
 80065f0:	080065b9 	.word	0x080065b9
 80065f4:	080065b9 	.word	0x080065b9
 80065f8:	080065b9 	.word	0x080065b9
 80065fc:	08006749 	.word	0x08006749
 8006600:	0800666d 	.word	0x0800666d
 8006604:	0800672b 	.word	0x0800672b
 8006608:	080065b9 	.word	0x080065b9
 800660c:	080065b9 	.word	0x080065b9
 8006610:	0800676b 	.word	0x0800676b
 8006614:	080065b9 	.word	0x080065b9
 8006618:	0800666d 	.word	0x0800666d
 800661c:	080065b9 	.word	0x080065b9
 8006620:	080065b9 	.word	0x080065b9
 8006624:	08006733 	.word	0x08006733
 8006628:	680b      	ldr	r3, [r1, #0]
 800662a:	1d1a      	adds	r2, r3, #4
 800662c:	681b      	ldr	r3, [r3, #0]
 800662e:	600a      	str	r2, [r1, #0]
 8006630:	f104 0642 	add.w	r6, r4, #66	; 0x42
 8006634:	f884 3042 	strb.w	r3, [r4, #66]	; 0x42
 8006638:	2301      	movs	r3, #1
 800663a:	e0a3      	b.n	8006784 <_printf_i+0x1f4>
 800663c:	6825      	ldr	r5, [r4, #0]
 800663e:	6808      	ldr	r0, [r1, #0]
 8006640:	062e      	lsls	r6, r5, #24
 8006642:	f100 0304 	add.w	r3, r0, #4
 8006646:	d50a      	bpl.n	800665e <_printf_i+0xce>
 8006648:	6805      	ldr	r5, [r0, #0]
 800664a:	600b      	str	r3, [r1, #0]
 800664c:	2d00      	cmp	r5, #0
 800664e:	da03      	bge.n	8006658 <_printf_i+0xc8>
 8006650:	232d      	movs	r3, #45	; 0x2d
 8006652:	426d      	negs	r5, r5
 8006654:	f884 3043 	strb.w	r3, [r4, #67]	; 0x43
 8006658:	485e      	ldr	r0, [pc, #376]	; (80067d4 <_printf_i+0x244>)
 800665a:	230a      	movs	r3, #10
 800665c:	e019      	b.n	8006692 <_printf_i+0x102>
 800665e:	f015 0f40 	tst.w	r5, #64	; 0x40
 8006662:	6805      	ldr	r5, [r0, #0]
 8006664:	600b      	str	r3, [r1, #0]
 8006666:	bf18      	it	ne
 8006668:	b22d      	sxthne	r5, r5
 800666a:	e7ef      	b.n	800664c <_printf_i+0xbc>
 800666c:	680b      	ldr	r3, [r1, #0]
 800666e:	6825      	ldr	r5, [r4, #0]
 8006670:	1d18      	adds	r0, r3, #4
 8006672:	6008      	str	r0, [r1, #0]
 8006674:	0628      	lsls	r0, r5, #24
 8006676:	d501      	bpl.n	800667c <_printf_i+0xec>
 8006678:	681d      	ldr	r5, [r3, #0]
 800667a:	e002      	b.n	8006682 <_printf_i+0xf2>
 800667c:	0669      	lsls	r1, r5, #25
 800667e:	d5fb      	bpl.n	8006678 <_printf_i+0xe8>
 8006680:	881d      	ldrh	r5, [r3, #0]
 8006682:	4854      	ldr	r0, [pc, #336]	; (80067d4 <_printf_i+0x244>)
 8006684:	2f6f      	cmp	r7, #111	; 0x6f
 8006686:	bf0c      	ite	eq
 8006688:	2308      	moveq	r3, #8
 800668a:	230a      	movne	r3, #10
 800668c:	2100      	movs	r1, #0
 800668e:	f884 1043 	strb.w	r1, [r4, #67]	; 0x43
 8006692:	6866      	ldr	r6, [r4, #4]
 8006694:	60a6      	str	r6, [r4, #8]
 8006696:	2e00      	cmp	r6, #0
 8006698:	bfa2      	ittt	ge
 800669a:	6821      	ldrge	r1, [r4, #0]
 800669c:	f021 0104 	bicge.w	r1, r1, #4
 80066a0:	6021      	strge	r1, [r4, #0]
 80066a2:	b90d      	cbnz	r5, 80066a8 <_printf_i+0x118>
 80066a4:	2e00      	cmp	r6, #0
 80066a6:	d04d      	beq.n	8006744 <_printf_i+0x1b4>
 80066a8:	4616      	mov	r6, r2
 80066aa:	fbb5 f1f3 	udiv	r1, r5, r3
 80066ae:	fb03 5711 	mls	r7, r3, r1, r5
 80066b2:	5dc7      	ldrb	r7, [r0, r7]
 80066b4:	f806 7d01 	strb.w	r7, [r6, #-1]!
 80066b8:	462f      	mov	r7, r5
 80066ba:	42bb      	cmp	r3, r7
 80066bc:	460d      	mov	r5, r1
 80066be:	d9f4      	bls.n	80066aa <_printf_i+0x11a>
 80066c0:	2b08      	cmp	r3, #8
 80066c2:	d10b      	bne.n	80066dc <_printf_i+0x14c>
 80066c4:	6823      	ldr	r3, [r4, #0]
 80066c6:	07df      	lsls	r7, r3, #31
 80066c8:	d508      	bpl.n	80066dc <_printf_i+0x14c>
 80066ca:	6923      	ldr	r3, [r4, #16]
 80066cc:	6861      	ldr	r1, [r4, #4]
 80066ce:	4299      	cmp	r1, r3
 80066d0:	bfde      	ittt	le
 80066d2:	2330      	movle	r3, #48	; 0x30
 80066d4:	f806 3c01 	strble.w	r3, [r6, #-1]
 80066d8:	f106 36ff 	addle.w	r6, r6, #4294967295	; 0xffffffff
 80066dc:	1b92      	subs	r2, r2, r6
 80066de:	6122      	str	r2, [r4, #16]
 80066e0:	f8cd a000 	str.w	sl, [sp]
 80066e4:	464b      	mov	r3, r9
 80066e6:	aa03      	add	r2, sp, #12
 80066e8:	4621      	mov	r1, r4
 80066ea:	4640      	mov	r0, r8
 80066ec:	f7ff fee2 	bl	80064b4 <_printf_common>
 80066f0:	3001      	adds	r0, #1
 80066f2:	d14c      	bne.n	800678e <_printf_i+0x1fe>
 80066f4:	f04f 30ff 	mov.w	r0, #4294967295	; 0xffffffff
 80066f8:	b004      	add	sp, #16
 80066fa:	e8bd 87f0 	ldmia.w	sp!, {r4, r5, r6, r7, r8, r9, sl, pc}
 80066fe:	4835      	ldr	r0, [pc, #212]	; (80067d4 <_printf_i+0x244>)
 8006700:	f884 7045 	strb.w	r7, [r4, #69]	; 0x45
 8006704:	6823      	ldr	r3, [r4, #0]
 8006706:	680e      	ldr	r6, [r1, #0]
 8006708:	061f      	lsls	r7, r3, #24
 800670a:	f856 5b04 	ldr.w	r5, [r6], #4
 800670e:	600e      	str	r6, [r1, #0]
 8006710:	d514      	bpl.n	800673c <_printf_i+0x1ac>
 8006712:	07d9      	lsls	r1, r3, #31
 8006714:	bf44      	itt	mi
 8006716:	f043 0320 	orrmi.w	r3, r3, #32
 800671a:	6023      	strmi	r3, [r4, #0]
 800671c:	b91d      	cbnz	r5, 8006726 <_printf_i+0x196>
 800671e:	6823      	ldr	r3, [r4, #0]
 8006720:	f023 0320 	bic.w	r3, r3, #32
 8006724:	6023      	str	r3, [r4, #0]
 8006726:	2310      	movs	r3, #16
 8006728:	e7b0      	b.n	800668c <_printf_i+0xfc>
 800672a:	6823      	ldr	r3, [r4, #0]
 800672c:	f043 0320 	orr.w	r3, r3, #32
 8006730:	6023      	str	r3, [r4, #0]
 8006732:	2378      	movs	r3, #120	; 0x78
 8006734:	4828      	ldr	r0, [pc, #160]	; (80067d8 <_printf_i+0x248>)
 8006736:	f884 3045 	strb.w	r3, [r4, #69]	; 0x45
 800673a:	e7e3      	b.n	8006704 <_printf_i+0x174>
 800673c:	065e      	lsls	r6, r3, #25
 800673e:	bf48      	it	mi
 8006740:	b2ad      	uxthmi	r5, r5
 8006742:	e7e6      	b.n	8006712 <_printf_i+0x182>
 8006744:	4616      	mov	r6, r2
 8006746:	e7bb      	b.n	80066c0 <_printf_i+0x130>
 8006748:	680b      	ldr	r3, [r1, #0]
 800674a:	6826      	ldr	r6, [r4, #0]
 800674c:	6960      	ldr	r0, [r4, #20]
 800674e:	1d1d      	adds	r5, r3, #4
 8006750:	600d      	str	r5, [r1, #0]
 8006752:	0635      	lsls	r5, r6, #24
 8006754:	681b      	ldr	r3, [r3, #0]
 8006756:	d501      	bpl.n	800675c <_printf_i+0x1cc>
 8006758:	6018      	str	r0, [r3, #0]
 800675a:	e002      	b.n	8006762 <_printf_i+0x1d2>
 800675c:	0671      	lsls	r1, r6, #25
 800675e:	d5fb      	bpl.n	8006758 <_printf_i+0x1c8>
 8006760:	8018      	strh	r0, [r3, #0]
 8006762:	2300      	movs	r3, #0
 8006764:	6123      	str	r3, [r4, #16]
 8006766:	4616      	mov	r6, r2
 8006768:	e7ba      	b.n	80066e0 <_printf_i+0x150>
 800676a:	680b      	ldr	r3, [r1, #0]
 800676c:	1d1a      	adds	r2, r3, #4
 800676e:	600a      	str	r2, [r1, #0]
 8006770:	681e      	ldr	r6, [r3, #0]
 8006772:	6862      	ldr	r2, [r4, #4]
 8006774:	2100      	movs	r1, #0
 8006776:	4630      	mov	r0, r6
 8006778:	f7f9 fd52 	bl	8000220 <memchr>
 800677c:	b108      	cbz	r0, 8006782 <_printf_i+0x1f2>
 800677e:	1b80      	subs	r0, r0, r6
 8006780:	6060      	str	r0, [r4, #4]
 8006782:	6863      	ldr	r3, [r4, #4]
 8006784:	6123      	str	r3, [r4, #16]
 8006786:	2300      	movs	r3, #0
 8006788:	f884 3043 	strb.w	r3, [r4, #67]	; 0x43
 800678c:	e7a8      	b.n	80066e0 <_printf_i+0x150>
 800678e:	6923      	ldr	r3, [r4, #16]
 8006790:	4632      	mov	r2, r6
 8006792:	4649      	mov	r1, r9
 8006794:	4640      	mov	r0, r8
 8006796:	47d0      	blx	sl
 8006798:	3001      	adds	r0, #1
 800679a:	d0ab      	beq.n	80066f4 <_printf_i+0x164>
 800679c:	6823      	ldr	r3, [r4, #0]
 800679e:	079b      	lsls	r3, r3, #30
 80067a0:	d413      	bmi.n	80067ca <_printf_i+0x23a>
 80067a2:	68e0      	ldr	r0, [r4, #12]
 80067a4:	9b03      	ldr	r3, [sp, #12]
 80067a6:	4298      	cmp	r0, r3
 80067a8:	bfb8      	it	lt
 80067aa:	4618      	movlt	r0, r3
 80067ac:	e7a4      	b.n	80066f8 <_printf_i+0x168>
 80067ae:	2301      	movs	r3, #1
 80067b0:	4632      	mov	r2, r6
 80067b2:	4649      	mov	r1, r9
 80067b4:	4640      	mov	r0, r8
 80067b6:	47d0      	blx	sl
 80067b8:	3001      	adds	r0, #1
 80067ba:	d09b      	beq.n	80066f4 <_printf_i+0x164>
 80067bc:	3501      	adds	r5, #1
 80067be:	68e3      	ldr	r3, [r4, #12]
 80067c0:	9903      	ldr	r1, [sp, #12]
 80067c2:	1a5b      	subs	r3, r3, r1
 80067c4:	42ab      	cmp	r3, r5
 80067c6:	dcf2      	bgt.n	80067ae <_printf_i+0x21e>
 80067c8:	e7eb      	b.n	80067a2 <_printf_i+0x212>
 80067ca:	2500      	movs	r5, #0
 80067cc:	f104 0619 	add.w	r6, r4, #25
 80067d0:	e7f5      	b.n	80067be <_printf_i+0x22e>
 80067d2:	bf00      	nop
 80067d4:	08008d4a 	.word	0x08008d4a
 80067d8:	08008d5b 	.word	0x08008d5b

080067dc <siprintf>:
 80067dc:	b40e      	push	{r1, r2, r3}
 80067de:	b500      	push	{lr}
 80067e0:	b09c      	sub	sp, #112	; 0x70
 80067e2:	ab1d      	add	r3, sp, #116	; 0x74
 80067e4:	9002      	str	r0, [sp, #8]
 80067e6:	9006      	str	r0, [sp, #24]
 80067e8:	f06f 4100 	mvn.w	r1, #2147483648	; 0x80000000
 80067ec:	4809      	ldr	r0, [pc, #36]	; (8006814 <siprintf+0x38>)
 80067ee:	9107      	str	r1, [sp, #28]
 80067f0:	9104      	str	r1, [sp, #16]
 80067f2:	4909      	ldr	r1, [pc, #36]	; (8006818 <siprintf+0x3c>)
 80067f4:	f853 2b04 	ldr.w	r2, [r3], #4
 80067f8:	9105      	str	r1, [sp, #20]
 80067fa:	6800      	ldr	r0, [r0, #0]
 80067fc:	9301      	str	r3, [sp, #4]
 80067fe:	a902      	add	r1, sp, #8
 8006800:	f001 fb34 	bl	8007e6c <_svfiprintf_r>
 8006804:	9b02      	ldr	r3, [sp, #8]
 8006806:	2200      	movs	r2, #0
 8006808:	701a      	strb	r2, [r3, #0]
 800680a:	b01c      	add	sp, #112	; 0x70
 800680c:	f85d eb04 	ldr.w	lr, [sp], #4
 8006810:	b003      	add	sp, #12
 8006812:	4770      	bx	lr
 8006814:	20000024 	.word	0x20000024
 8006818:	ffff0208 	.word	0xffff0208

0800681c <quorem>:
 800681c:	e92d 4ff7 	stmdb	sp!, {r0, r1, r2, r4, r5, r6, r7, r8, r9, sl, fp, lr}
 8006820:	6903      	ldr	r3, [r0, #16]
 8006822:	690c      	ldr	r4, [r1, #16]
 8006824:	42a3      	cmp	r3, r4
 8006826:	4607      	mov	r7, r0
 8006828:	f2c0 8081 	blt.w	800692e <quorem+0x112>
 800682c:	3c01      	subs	r4, #1
 800682e:	f101 0814 	add.w	r8, r1, #20
 8006832:	f100 0514 	add.w	r5, r0, #20
 8006836:	eb05 0384 	add.w	r3, r5, r4, lsl #2
 800683a:	9301      	str	r3, [sp, #4]
 800683c:	f858 3024 	ldr.w	r3, [r8, r4, lsl #2]
 8006840:	f855 2024 	ldr.w	r2, [r5, r4, lsl #2]
 8006844:	3301      	adds	r3, #1
 8006846:	429a      	cmp	r2, r3
 8006848:	ea4f 0b84 	mov.w	fp, r4, lsl #2
 800684c:	eb08 0984 	add.w	r9, r8, r4, lsl #2
 8006850:	fbb2 f6f3 	udiv	r6, r2, r3
 8006854:	d331      	bcc.n	80068ba <quorem+0x9e>
 8006856:	f04f 0e00 	mov.w	lr, #0
 800685a:	4640      	mov	r0, r8
 800685c:	46ac      	mov	ip, r5
 800685e:	46f2      	mov	sl, lr
 8006860:	f850 2b04 	ldr.w	r2, [r0], #4
 8006864:	b293      	uxth	r3, r2
 8006866:	fb06 e303 	mla	r3, r6, r3, lr
 800686a:	ea4f 4e13 	mov.w	lr, r3, lsr #16
 800686e:	b29b      	uxth	r3, r3
 8006870:	ebaa 0303 	sub.w	r3, sl, r3
 8006874:	0c12      	lsrs	r2, r2, #16
 8006876:	f8dc a000 	ldr.w	sl, [ip]
 800687a:	fb06 e202 	mla	r2, r6, r2, lr
 800687e:	fa13 f38a 	uxtah	r3, r3, sl
 8006882:	ea4f 4e12 	mov.w	lr, r2, lsr #16
 8006886:	fa1f fa82 	uxth.w	sl, r2
 800688a:	f8dc 2000 	ldr.w	r2, [ip]
 800688e:	ebca 4212 	rsb	r2, sl, r2, lsr #16
 8006892:	eb02 4223 	add.w	r2, r2, r3, asr #16
 8006896:	b29b      	uxth	r3, r3
 8006898:	ea43 4302 	orr.w	r3, r3, r2, lsl #16
 800689c:	4581      	cmp	r9, r0
 800689e:	f84c 3b04 	str.w	r3, [ip], #4
 80068a2:	ea4f 4a22 	mov.w	sl, r2, asr #16
 80068a6:	d2db      	bcs.n	8006860 <quorem+0x44>
 80068a8:	f855 300b 	ldr.w	r3, [r5, fp]
 80068ac:	b92b      	cbnz	r3, 80068ba <quorem+0x9e>
 80068ae:	9b01      	ldr	r3, [sp, #4]
 80068b0:	3b04      	subs	r3, #4
 80068b2:	429d      	cmp	r5, r3
 80068b4:	461a      	mov	r2, r3
 80068b6:	d32e      	bcc.n	8006916 <quorem+0xfa>
 80068b8:	613c      	str	r4, [r7, #16]
 80068ba:	4638      	mov	r0, r7
 80068bc:	f001 f8c0 	bl	8007a40 <__mcmp>
 80068c0:	2800      	cmp	r0, #0
 80068c2:	db24      	blt.n	800690e <quorem+0xf2>
 80068c4:	3601      	adds	r6, #1
 80068c6:	4628      	mov	r0, r5
 80068c8:	f04f 0c00 	mov.w	ip, #0
 80068cc:	f858 2b04 	ldr.w	r2, [r8], #4
 80068d0:	f8d0 e000 	ldr.w	lr, [r0]
 80068d4:	b293      	uxth	r3, r2
 80068d6:	ebac 0303 	sub.w	r3, ip, r3
 80068da:	0c12      	lsrs	r2, r2, #16
 80068dc:	fa13 f38e 	uxtah	r3, r3, lr
 80068e0:	ebc2 421e 	rsb	r2, r2, lr, lsr #16
 80068e4:	eb02 4223 	add.w	r2, r2, r3, asr #16
 80068e8:	b29b      	uxth	r3, r3
 80068ea:	ea43 4302 	orr.w	r3, r3, r2, lsl #16
 80068ee:	45c1      	cmp	r9, r8
 80068f0:	f840 3b04 	str.w	r3, [r0], #4
 80068f4:	ea4f 4c22 	mov.w	ip, r2, asr #16
 80068f8:	d2e8      	bcs.n	80068cc <quorem+0xb0>
 80068fa:	f855 2024 	ldr.w	r2, [r5, r4, lsl #2]
 80068fe:	eb05 0384 	add.w	r3, r5, r4, lsl #2
 8006902:	b922      	cbnz	r2, 800690e <quorem+0xf2>
 8006904:	3b04      	subs	r3, #4
 8006906:	429d      	cmp	r5, r3
 8006908:	461a      	mov	r2, r3
 800690a:	d30a      	bcc.n	8006922 <quorem+0x106>
 800690c:	613c      	str	r4, [r7, #16]
 800690e:	4630      	mov	r0, r6
 8006910:	b003      	add	sp, #12
 8006912:	e8bd 8ff0 	ldmia.w	sp!, {r4, r5, r6, r7, r8, r9, sl, fp, pc}
 8006916:	6812      	ldr	r2, [r2, #0]
 8006918:	3b04      	subs	r3, #4
 800691a:	2a00      	cmp	r2, #0
 800691c:	d1cc      	bne.n	80068b8 <quorem+0x9c>
 800691e:	3c01      	subs	r4, #1
 8006920:	e7c7      	b.n	80068b2 <quorem+0x96>
 8006922:	6812      	ldr	r2, [r2, #0]
 8006924:	3b04      	subs	r3, #4
 8006926:	2a00      	cmp	r2, #0
 8006928:	d1f0      	bne.n	800690c <quorem+0xf0>
 800692a:	3c01      	subs	r4, #1
 800692c:	e7eb      	b.n	8006906 <quorem+0xea>
 800692e:	2000      	movs	r0, #0
 8006930:	e7ee      	b.n	8006910 <quorem+0xf4>
 8006932:	0000      	movs	r0, r0
 8006934:	0000      	movs	r0, r0
	...

08006938 <_dtoa_r>:
 8006938:	e92d 4ff0 	stmdb	sp!, {r4, r5, r6, r7, r8, r9, sl, fp, lr}
 800693c:	ed2d 8b02 	vpush	{d8}
 8006940:	ec57 6b10 	vmov	r6, r7, d0
 8006944:	b095      	sub	sp, #84	; 0x54
 8006946:	6a45      	ldr	r5, [r0, #36]	; 0x24
 8006948:	f8dd 8080 	ldr.w	r8, [sp, #128]	; 0x80
 800694c:	9105      	str	r1, [sp, #20]
 800694e:	e9cd 6702 	strd	r6, r7, [sp, #8]
 8006952:	4604      	mov	r4, r0
 8006954:	9209      	str	r2, [sp, #36]	; 0x24
 8006956:	930f      	str	r3, [sp, #60]	; 0x3c
 8006958:	b975      	cbnz	r5, 8006978 <_dtoa_r+0x40>
 800695a:	2010      	movs	r0, #16
 800695c:	f000 fddc 	bl	8007518 <malloc>
 8006960:	4602      	mov	r2, r0
 8006962:	6260      	str	r0, [r4, #36]	; 0x24
 8006964:	b920      	cbnz	r0, 8006970 <_dtoa_r+0x38>
 8006966:	4bb2      	ldr	r3, [pc, #712]	; (8006c30 <_dtoa_r+0x2f8>)
 8006968:	21ea      	movs	r1, #234	; 0xea
 800696a:	48b2      	ldr	r0, [pc, #712]	; (8006c34 <_dtoa_r+0x2fc>)
 800696c:	f001 fb8e 	bl	800808c <__assert_func>
 8006970:	e9c0 5501 	strd	r5, r5, [r0, #4]
 8006974:	6005      	str	r5, [r0, #0]
 8006976:	60c5      	str	r5, [r0, #12]
 8006978:	6a63      	ldr	r3, [r4, #36]	; 0x24
 800697a:	6819      	ldr	r1, [r3, #0]
 800697c:	b151      	cbz	r1, 8006994 <_dtoa_r+0x5c>
 800697e:	685a      	ldr	r2, [r3, #4]
 8006980:	604a      	str	r2, [r1, #4]
 8006982:	2301      	movs	r3, #1
 8006984:	4093      	lsls	r3, r2
 8006986:	608b      	str	r3, [r1, #8]
 8006988:	4620      	mov	r0, r4
 800698a:	f000 fe1b 	bl	80075c4 <_Bfree>
 800698e:	6a63      	ldr	r3, [r4, #36]	; 0x24
 8006990:	2200      	movs	r2, #0
 8006992:	601a      	str	r2, [r3, #0]
 8006994:	1e3b      	subs	r3, r7, #0
 8006996:	bfb9      	ittee	lt
 8006998:	f023 4300 	biclt.w	r3, r3, #2147483648	; 0x80000000
 800699c:	9303      	strlt	r3, [sp, #12]
 800699e:	2300      	movge	r3, #0
 80069a0:	f8c8 3000 	strge.w	r3, [r8]
 80069a4:	f8dd 900c 	ldr.w	r9, [sp, #12]
 80069a8:	4ba3      	ldr	r3, [pc, #652]	; (8006c38 <_dtoa_r+0x300>)
 80069aa:	bfbc      	itt	lt
 80069ac:	2201      	movlt	r2, #1
 80069ae:	f8c8 2000 	strlt.w	r2, [r8]
 80069b2:	ea33 0309 	bics.w	r3, r3, r9
 80069b6:	d11b      	bne.n	80069f0 <_dtoa_r+0xb8>
 80069b8:	9a0f      	ldr	r2, [sp, #60]	; 0x3c
 80069ba:	f242 730f 	movw	r3, #9999	; 0x270f
 80069be:	6013      	str	r3, [r2, #0]
 80069c0:	f3c9 0313 	ubfx	r3, r9, #0, #20
 80069c4:	4333      	orrs	r3, r6
 80069c6:	f000 857a 	beq.w	80074be <_dtoa_r+0xb86>
 80069ca:	9b21      	ldr	r3, [sp, #132]	; 0x84
 80069cc:	b963      	cbnz	r3, 80069e8 <_dtoa_r+0xb0>
 80069ce:	4b9b      	ldr	r3, [pc, #620]	; (8006c3c <_dtoa_r+0x304>)
 80069d0:	e024      	b.n	8006a1c <_dtoa_r+0xe4>
 80069d2:	4b9b      	ldr	r3, [pc, #620]	; (8006c40 <_dtoa_r+0x308>)
 80069d4:	9300      	str	r3, [sp, #0]
 80069d6:	3308      	adds	r3, #8
 80069d8:	9a21      	ldr	r2, [sp, #132]	; 0x84
 80069da:	6013      	str	r3, [r2, #0]
 80069dc:	9800      	ldr	r0, [sp, #0]
 80069de:	b015      	add	sp, #84	; 0x54
 80069e0:	ecbd 8b02 	vpop	{d8}
 80069e4:	e8bd 8ff0 	ldmia.w	sp!, {r4, r5, r6, r7, r8, r9, sl, fp, pc}
 80069e8:	4b94      	ldr	r3, [pc, #592]	; (8006c3c <_dtoa_r+0x304>)
 80069ea:	9300      	str	r3, [sp, #0]
 80069ec:	3303      	adds	r3, #3
 80069ee:	e7f3      	b.n	80069d8 <_dtoa_r+0xa0>
 80069f0:	ed9d 7b02 	vldr	d7, [sp, #8]
 80069f4:	2200      	movs	r2, #0
 80069f6:	ec51 0b17 	vmov	r0, r1, d7
 80069fa:	2300      	movs	r3, #0
 80069fc:	ed8d 7b0a 	vstr	d7, [sp, #40]	; 0x28
 8006a00:	f7fa f882 	bl	8000b08 <__aeabi_dcmpeq>
 8006a04:	4680      	mov	r8, r0
 8006a06:	b158      	cbz	r0, 8006a20 <_dtoa_r+0xe8>
 8006a08:	9a0f      	ldr	r2, [sp, #60]	; 0x3c
 8006a0a:	2301      	movs	r3, #1
 8006a0c:	6013      	str	r3, [r2, #0]
 8006a0e:	9b21      	ldr	r3, [sp, #132]	; 0x84
 8006a10:	2b00      	cmp	r3, #0
 8006a12:	f000 8551 	beq.w	80074b8 <_dtoa_r+0xb80>
 8006a16:	488b      	ldr	r0, [pc, #556]	; (8006c44 <_dtoa_r+0x30c>)
 8006a18:	6018      	str	r0, [r3, #0]
 8006a1a:	1e43      	subs	r3, r0, #1
 8006a1c:	9300      	str	r3, [sp, #0]
 8006a1e:	e7dd      	b.n	80069dc <_dtoa_r+0xa4>
 8006a20:	ed9d 0b0a 	vldr	d0, [sp, #40]	; 0x28
 8006a24:	aa12      	add	r2, sp, #72	; 0x48
 8006a26:	a913      	add	r1, sp, #76	; 0x4c
 8006a28:	4620      	mov	r0, r4
 8006a2a:	f001 f8ad 	bl	8007b88 <__d2b>
 8006a2e:	f3c9 550a 	ubfx	r5, r9, #20, #11
 8006a32:	4683      	mov	fp, r0
 8006a34:	2d00      	cmp	r5, #0
 8006a36:	d07c      	beq.n	8006b32 <_dtoa_r+0x1fa>
 8006a38:	9b0b      	ldr	r3, [sp, #44]	; 0x2c
 8006a3a:	f8cd 8040 	str.w	r8, [sp, #64]	; 0x40
 8006a3e:	f3c3 0313 	ubfx	r3, r3, #0, #20
 8006a42:	e9dd 670a 	ldrd	r6, r7, [sp, #40]	; 0x28
 8006a46:	f043 577f 	orr.w	r7, r3, #1069547520	; 0x3fc00000
 8006a4a:	f447 1740 	orr.w	r7, r7, #3145728	; 0x300000
 8006a4e:	f2a5 35ff 	subw	r5, r5, #1023	; 0x3ff
 8006a52:	4b7d      	ldr	r3, [pc, #500]	; (8006c48 <_dtoa_r+0x310>)
 8006a54:	2200      	movs	r2, #0
 8006a56:	4630      	mov	r0, r6
 8006a58:	4639      	mov	r1, r7
 8006a5a:	f7f9 fc35 	bl	80002c8 <__aeabi_dsub>
 8006a5e:	a36e      	add	r3, pc, #440	; (adr r3, 8006c18 <_dtoa_r+0x2e0>)
 8006a60:	e9d3 2300 	ldrd	r2, r3, [r3]
 8006a64:	f7f9 fde8 	bl	8000638 <__aeabi_dmul>
 8006a68:	a36d      	add	r3, pc, #436	; (adr r3, 8006c20 <_dtoa_r+0x2e8>)
 8006a6a:	e9d3 2300 	ldrd	r2, r3, [r3]
 8006a6e:	f7f9 fc2d 	bl	80002cc <__adddf3>
 8006a72:	4606      	mov	r6, r0
 8006a74:	4628      	mov	r0, r5
 8006a76:	460f      	mov	r7, r1
 8006a78:	f7f9 fd74 	bl	8000564 <__aeabi_i2d>
 8006a7c:	a36a      	add	r3, pc, #424	; (adr r3, 8006c28 <_dtoa_r+0x2f0>)
 8006a7e:	e9d3 2300 	ldrd	r2, r3, [r3]
 8006a82:	f7f9 fdd9 	bl	8000638 <__aeabi_dmul>
 8006a86:	4602      	mov	r2, r0
 8006a88:	460b      	mov	r3, r1
 8006a8a:	4630      	mov	r0, r6
 8006a8c:	4639      	mov	r1, r7
 8006a8e:	f7f9 fc1d 	bl	80002cc <__adddf3>
 8006a92:	4606      	mov	r6, r0
 8006a94:	460f      	mov	r7, r1
 8006a96:	f7fa f87f 	bl	8000b98 <__aeabi_d2iz>
 8006a9a:	2200      	movs	r2, #0
 8006a9c:	4682      	mov	sl, r0
 8006a9e:	2300      	movs	r3, #0
 8006aa0:	4630      	mov	r0, r6
 8006aa2:	4639      	mov	r1, r7
 8006aa4:	f7fa f83a 	bl	8000b1c <__aeabi_dcmplt>
 8006aa8:	b148      	cbz	r0, 8006abe <_dtoa_r+0x186>
 8006aaa:	4650      	mov	r0, sl
 8006aac:	f7f9 fd5a 	bl	8000564 <__aeabi_i2d>
 8006ab0:	4632      	mov	r2, r6
 8006ab2:	463b      	mov	r3, r7
 8006ab4:	f7fa f828 	bl	8000b08 <__aeabi_dcmpeq>
 8006ab8:	b908      	cbnz	r0, 8006abe <_dtoa_r+0x186>
 8006aba:	f10a 3aff 	add.w	sl, sl, #4294967295	; 0xffffffff
 8006abe:	f1ba 0f16 	cmp.w	sl, #22
 8006ac2:	d854      	bhi.n	8006b6e <_dtoa_r+0x236>
 8006ac4:	4b61      	ldr	r3, [pc, #388]	; (8006c4c <_dtoa_r+0x314>)
 8006ac6:	eb03 03ca 	add.w	r3, r3, sl, lsl #3
 8006aca:	e9d3 2300 	ldrd	r2, r3, [r3]
 8006ace:	e9dd 010a 	ldrd	r0, r1, [sp, #40]	; 0x28
 8006ad2:	f7fa f823 	bl	8000b1c <__aeabi_dcmplt>
 8006ad6:	2800      	cmp	r0, #0
 8006ad8:	d04b      	beq.n	8006b72 <_dtoa_r+0x23a>
 8006ada:	f10a 3aff 	add.w	sl, sl, #4294967295	; 0xffffffff
 8006ade:	2300      	movs	r3, #0
 8006ae0:	930e      	str	r3, [sp, #56]	; 0x38
 8006ae2:	9b12      	ldr	r3, [sp, #72]	; 0x48
 8006ae4:	1b5d      	subs	r5, r3, r5
 8006ae6:	1e6b      	subs	r3, r5, #1
 8006ae8:	9304      	str	r3, [sp, #16]
 8006aea:	bf43      	ittte	mi
 8006aec:	2300      	movmi	r3, #0
 8006aee:	f1c5 0801 	rsbmi	r8, r5, #1
 8006af2:	9304      	strmi	r3, [sp, #16]
 8006af4:	f04f 0800 	movpl.w	r8, #0
 8006af8:	f1ba 0f00 	cmp.w	sl, #0
 8006afc:	db3b      	blt.n	8006b76 <_dtoa_r+0x23e>
 8006afe:	9b04      	ldr	r3, [sp, #16]
 8006b00:	f8cd a034 	str.w	sl, [sp, #52]	; 0x34
 8006b04:	4453      	add	r3, sl
 8006b06:	9304      	str	r3, [sp, #16]
 8006b08:	2300      	movs	r3, #0
 8006b0a:	9306      	str	r3, [sp, #24]
 8006b0c:	9b05      	ldr	r3, [sp, #20]
 8006b0e:	2b09      	cmp	r3, #9
 8006b10:	d869      	bhi.n	8006be6 <_dtoa_r+0x2ae>
 8006b12:	2b05      	cmp	r3, #5
 8006b14:	bfc4      	itt	gt
 8006b16:	3b04      	subgt	r3, #4
 8006b18:	9305      	strgt	r3, [sp, #20]
 8006b1a:	9b05      	ldr	r3, [sp, #20]
 8006b1c:	f1a3 0302 	sub.w	r3, r3, #2
 8006b20:	bfcc      	ite	gt
 8006b22:	2500      	movgt	r5, #0
 8006b24:	2501      	movle	r5, #1
 8006b26:	2b03      	cmp	r3, #3
 8006b28:	d869      	bhi.n	8006bfe <_dtoa_r+0x2c6>
 8006b2a:	e8df f003 	tbb	[pc, r3]
 8006b2e:	4e2c      	.short	0x4e2c
 8006b30:	5a4c      	.short	0x5a4c
 8006b32:	e9dd 5312 	ldrd	r5, r3, [sp, #72]	; 0x48
 8006b36:	441d      	add	r5, r3
 8006b38:	f205 4332 	addw	r3, r5, #1074	; 0x432
 8006b3c:	2b20      	cmp	r3, #32
 8006b3e:	bfc1      	itttt	gt
 8006b40:	f1c3 0340 	rsbgt	r3, r3, #64	; 0x40
 8006b44:	f205 4012 	addwgt	r0, r5, #1042	; 0x412
 8006b48:	fa09 f303 	lslgt.w	r3, r9, r3
 8006b4c:	fa26 f000 	lsrgt.w	r0, r6, r0
 8006b50:	bfda      	itte	le
 8006b52:	f1c3 0320 	rsble	r3, r3, #32
 8006b56:	fa06 f003 	lslle.w	r0, r6, r3
 8006b5a:	4318      	orrgt	r0, r3
 8006b5c:	f7f9 fcf2 	bl	8000544 <__aeabi_ui2d>
 8006b60:	2301      	movs	r3, #1
 8006b62:	4606      	mov	r6, r0
 8006b64:	f1a1 77f8 	sub.w	r7, r1, #32505856	; 0x1f00000
 8006b68:	3d01      	subs	r5, #1
 8006b6a:	9310      	str	r3, [sp, #64]	; 0x40
 8006b6c:	e771      	b.n	8006a52 <_dtoa_r+0x11a>
 8006b6e:	2301      	movs	r3, #1
 8006b70:	e7b6      	b.n	8006ae0 <_dtoa_r+0x1a8>
 8006b72:	900e      	str	r0, [sp, #56]	; 0x38
 8006b74:	e7b5      	b.n	8006ae2 <_dtoa_r+0x1aa>
 8006b76:	f1ca 0300 	rsb	r3, sl, #0
 8006b7a:	9306      	str	r3, [sp, #24]
 8006b7c:	2300      	movs	r3, #0
 8006b7e:	eba8 080a 	sub.w	r8, r8, sl
 8006b82:	930d      	str	r3, [sp, #52]	; 0x34
 8006b84:	e7c2      	b.n	8006b0c <_dtoa_r+0x1d4>
 8006b86:	2300      	movs	r3, #0
 8006b88:	9308      	str	r3, [sp, #32]
 8006b8a:	9b09      	ldr	r3, [sp, #36]	; 0x24
 8006b8c:	2b00      	cmp	r3, #0
 8006b8e:	dc39      	bgt.n	8006c04 <_dtoa_r+0x2cc>
 8006b90:	f04f 0901 	mov.w	r9, #1
 8006b94:	f8cd 9004 	str.w	r9, [sp, #4]
 8006b98:	464b      	mov	r3, r9
 8006b9a:	f8cd 9024 	str.w	r9, [sp, #36]	; 0x24
 8006b9e:	6a60      	ldr	r0, [r4, #36]	; 0x24
 8006ba0:	2200      	movs	r2, #0
 8006ba2:	6042      	str	r2, [r0, #4]
 8006ba4:	2204      	movs	r2, #4
 8006ba6:	f102 0614 	add.w	r6, r2, #20
 8006baa:	429e      	cmp	r6, r3
 8006bac:	6841      	ldr	r1, [r0, #4]
 8006bae:	d92f      	bls.n	8006c10 <_dtoa_r+0x2d8>
 8006bb0:	4620      	mov	r0, r4
 8006bb2:	f000 fcc7 	bl	8007544 <_Balloc>
 8006bb6:	9000      	str	r0, [sp, #0]
 8006bb8:	2800      	cmp	r0, #0
 8006bba:	d14b      	bne.n	8006c54 <_dtoa_r+0x31c>
 8006bbc:	4b24      	ldr	r3, [pc, #144]	; (8006c50 <_dtoa_r+0x318>)
 8006bbe:	4602      	mov	r2, r0
 8006bc0:	f44f 71d5 	mov.w	r1, #426	; 0x1aa
 8006bc4:	e6d1      	b.n	800696a <_dtoa_r+0x32>
 8006bc6:	2301      	movs	r3, #1
 8006bc8:	e7de      	b.n	8006b88 <_dtoa_r+0x250>
 8006bca:	2300      	movs	r3, #0
 8006bcc:	9308      	str	r3, [sp, #32]
 8006bce:	9b09      	ldr	r3, [sp, #36]	; 0x24
 8006bd0:	eb0a 0903 	add.w	r9, sl, r3
 8006bd4:	f109 0301 	add.w	r3, r9, #1
 8006bd8:	2b01      	cmp	r3, #1
 8006bda:	9301      	str	r3, [sp, #4]
 8006bdc:	bfb8      	it	lt
 8006bde:	2301      	movlt	r3, #1
 8006be0:	e7dd      	b.n	8006b9e <_dtoa_r+0x266>
 8006be2:	2301      	movs	r3, #1
 8006be4:	e7f2      	b.n	8006bcc <_dtoa_r+0x294>
 8006be6:	2501      	movs	r5, #1
 8006be8:	2300      	movs	r3, #0
 8006bea:	9305      	str	r3, [sp, #20]
 8006bec:	9508      	str	r5, [sp, #32]
 8006bee:	f04f 39ff 	mov.w	r9, #4294967295	; 0xffffffff
 8006bf2:	2200      	movs	r2, #0
 8006bf4:	f8cd 9004 	str.w	r9, [sp, #4]
 8006bf8:	2312      	movs	r3, #18
 8006bfa:	9209      	str	r2, [sp, #36]	; 0x24
 8006bfc:	e7cf      	b.n	8006b9e <_dtoa_r+0x266>
 8006bfe:	2301      	movs	r3, #1
 8006c00:	9308      	str	r3, [sp, #32]
 8006c02:	e7f4      	b.n	8006bee <_dtoa_r+0x2b6>
 8006c04:	f8dd 9024 	ldr.w	r9, [sp, #36]	; 0x24
 8006c08:	f8cd 9004 	str.w	r9, [sp, #4]
 8006c0c:	464b      	mov	r3, r9
 8006c0e:	e7c6      	b.n	8006b9e <_dtoa_r+0x266>
 8006c10:	3101      	adds	r1, #1
 8006c12:	6041      	str	r1, [r0, #4]
 8006c14:	0052      	lsls	r2, r2, #1
 8006c16:	e7c6      	b.n	8006ba6 <_dtoa_r+0x26e>
 8006c18:	636f4361 	.word	0x636f4361
 8006c1c:	3fd287a7 	.word	0x3fd287a7
 8006c20:	8b60c8b3 	.word	0x8b60c8b3
 8006c24:	3fc68a28 	.word	0x3fc68a28
 8006c28:	509f79fb 	.word	0x509f79fb
 8006c2c:	3fd34413 	.word	0x3fd34413
 8006c30:	08008d79 	.word	0x08008d79
 8006c34:	08008d90 	.word	0x08008d90
 8006c38:	7ff00000 	.word	0x7ff00000
 8006c3c:	08008d75 	.word	0x08008d75
 8006c40:	08008d6c 	.word	0x08008d6c
 8006c44:	08008d49 	.word	0x08008d49
 8006c48:	3ff80000 	.word	0x3ff80000
 8006c4c:	08008e88 	.word	0x08008e88
 8006c50:	08008def 	.word	0x08008def
 8006c54:	6a63      	ldr	r3, [r4, #36]	; 0x24
 8006c56:	9a00      	ldr	r2, [sp, #0]
 8006c58:	601a      	str	r2, [r3, #0]
 8006c5a:	9b01      	ldr	r3, [sp, #4]
 8006c5c:	2b0e      	cmp	r3, #14
 8006c5e:	f200 80ad 	bhi.w	8006dbc <_dtoa_r+0x484>
 8006c62:	2d00      	cmp	r5, #0
 8006c64:	f000 80aa 	beq.w	8006dbc <_dtoa_r+0x484>
 8006c68:	f1ba 0f00 	cmp.w	sl, #0
 8006c6c:	dd36      	ble.n	8006cdc <_dtoa_r+0x3a4>
 8006c6e:	4ac3      	ldr	r2, [pc, #780]	; (8006f7c <_dtoa_r+0x644>)
 8006c70:	f00a 030f 	and.w	r3, sl, #15
 8006c74:	eb02 03c3 	add.w	r3, r2, r3, lsl #3
 8006c78:	ed93 7b00 	vldr	d7, [r3]
 8006c7c:	f41a 7f80 	tst.w	sl, #256	; 0x100
 8006c80:	ea4f 172a 	mov.w	r7, sl, asr #4
 8006c84:	eeb0 8a47 	vmov.f32	s16, s14
 8006c88:	eef0 8a67 	vmov.f32	s17, s15
 8006c8c:	d016      	beq.n	8006cbc <_dtoa_r+0x384>
 8006c8e:	4bbc      	ldr	r3, [pc, #752]	; (8006f80 <_dtoa_r+0x648>)
 8006c90:	e9dd 010a 	ldrd	r0, r1, [sp, #40]	; 0x28
 8006c94:	e9d3 2308 	ldrd	r2, r3, [r3, #32]
 8006c98:	f7f9 fdf8 	bl	800088c <__aeabi_ddiv>
 8006c9c:	e9cd 0102 	strd	r0, r1, [sp, #8]
 8006ca0:	f007 070f 	and.w	r7, r7, #15
 8006ca4:	2503      	movs	r5, #3
 8006ca6:	4eb6      	ldr	r6, [pc, #728]	; (8006f80 <_dtoa_r+0x648>)
 8006ca8:	b957      	cbnz	r7, 8006cc0 <_dtoa_r+0x388>
 8006caa:	e9dd 0102 	ldrd	r0, r1, [sp, #8]
 8006cae:	ec53 2b18 	vmov	r2, r3, d8
 8006cb2:	f7f9 fdeb 	bl	800088c <__aeabi_ddiv>
 8006cb6:	e9cd 0102 	strd	r0, r1, [sp, #8]
 8006cba:	e029      	b.n	8006d10 <_dtoa_r+0x3d8>
 8006cbc:	2502      	movs	r5, #2
 8006cbe:	e7f2      	b.n	8006ca6 <_dtoa_r+0x36e>
 8006cc0:	07f9      	lsls	r1, r7, #31
 8006cc2:	d508      	bpl.n	8006cd6 <_dtoa_r+0x39e>
 8006cc4:	ec51 0b18 	vmov	r0, r1, d8
 8006cc8:	e9d6 2300 	ldrd	r2, r3, [r6]
 8006ccc:	f7f9 fcb4 	bl	8000638 <__aeabi_dmul>
 8006cd0:	ec41 0b18 	vmov	d8, r0, r1
 8006cd4:	3501      	adds	r5, #1
 8006cd6:	107f      	asrs	r7, r7, #1
 8006cd8:	3608      	adds	r6, #8
 8006cda:	e7e5      	b.n	8006ca8 <_dtoa_r+0x370>
 8006cdc:	f000 80a6 	beq.w	8006e2c <_dtoa_r+0x4f4>
 8006ce0:	f1ca 0600 	rsb	r6, sl, #0
 8006ce4:	4ba5      	ldr	r3, [pc, #660]	; (8006f7c <_dtoa_r+0x644>)
 8006ce6:	4fa6      	ldr	r7, [pc, #664]	; (8006f80 <_dtoa_r+0x648>)
 8006ce8:	f006 020f 	and.w	r2, r6, #15
 8006cec:	eb03 03c2 	add.w	r3, r3, r2, lsl #3
 8006cf0:	e9d3 2300 	ldrd	r2, r3, [r3]
 8006cf4:	e9dd 010a 	ldrd	r0, r1, [sp, #40]	; 0x28
 8006cf8:	f7f9 fc9e 	bl	8000638 <__aeabi_dmul>
 8006cfc:	e9cd 0102 	strd	r0, r1, [sp, #8]
 8006d00:	1136      	asrs	r6, r6, #4
 8006d02:	2300      	movs	r3, #0
 8006d04:	2502      	movs	r5, #2
 8006d06:	2e00      	cmp	r6, #0
 8006d08:	f040 8085 	bne.w	8006e16 <_dtoa_r+0x4de>
 8006d0c:	2b00      	cmp	r3, #0
 8006d0e:	d1d2      	bne.n	8006cb6 <_dtoa_r+0x37e>
 8006d10:	9b0e      	ldr	r3, [sp, #56]	; 0x38
 8006d12:	2b00      	cmp	r3, #0
 8006d14:	f000 808c 	beq.w	8006e30 <_dtoa_r+0x4f8>
 8006d18:	e9dd 6702 	ldrd	r6, r7, [sp, #8]
 8006d1c:	4b99      	ldr	r3, [pc, #612]	; (8006f84 <_dtoa_r+0x64c>)
 8006d1e:	2200      	movs	r2, #0
 8006d20:	4630      	mov	r0, r6
 8006d22:	4639      	mov	r1, r7
 8006d24:	f7f9 fefa 	bl	8000b1c <__aeabi_dcmplt>
 8006d28:	2800      	cmp	r0, #0
 8006d2a:	f000 8081 	beq.w	8006e30 <_dtoa_r+0x4f8>
 8006d2e:	9b01      	ldr	r3, [sp, #4]
 8006d30:	2b00      	cmp	r3, #0
 8006d32:	d07d      	beq.n	8006e30 <_dtoa_r+0x4f8>
 8006d34:	f1b9 0f00 	cmp.w	r9, #0
 8006d38:	dd3c      	ble.n	8006db4 <_dtoa_r+0x47c>
 8006d3a:	f10a 33ff 	add.w	r3, sl, #4294967295	; 0xffffffff
 8006d3e:	9307      	str	r3, [sp, #28]
 8006d40:	2200      	movs	r2, #0
 8006d42:	4b91      	ldr	r3, [pc, #580]	; (8006f88 <_dtoa_r+0x650>)
 8006d44:	4630      	mov	r0, r6
 8006d46:	4639      	mov	r1, r7
 8006d48:	f7f9 fc76 	bl	8000638 <__aeabi_dmul>
 8006d4c:	e9cd 0102 	strd	r0, r1, [sp, #8]
 8006d50:	3501      	adds	r5, #1
 8006d52:	f8cd 9030 	str.w	r9, [sp, #48]	; 0x30
 8006d56:	e9dd 6702 	ldrd	r6, r7, [sp, #8]
 8006d5a:	4628      	mov	r0, r5
 8006d5c:	f7f9 fc02 	bl	8000564 <__aeabi_i2d>
 8006d60:	4632      	mov	r2, r6
 8006d62:	463b      	mov	r3, r7
 8006d64:	f7f9 fc68 	bl	8000638 <__aeabi_dmul>
 8006d68:	4b88      	ldr	r3, [pc, #544]	; (8006f8c <_dtoa_r+0x654>)
 8006d6a:	2200      	movs	r2, #0
 8006d6c:	f7f9 faae 	bl	80002cc <__adddf3>
 8006d70:	f1a1 7350 	sub.w	r3, r1, #54525952	; 0x3400000
 8006d74:	e9cd 0102 	strd	r0, r1, [sp, #8]
 8006d78:	9303      	str	r3, [sp, #12]
 8006d7a:	9b0c      	ldr	r3, [sp, #48]	; 0x30
 8006d7c:	2b00      	cmp	r3, #0
 8006d7e:	d15c      	bne.n	8006e3a <_dtoa_r+0x502>
 8006d80:	4b83      	ldr	r3, [pc, #524]	; (8006f90 <_dtoa_r+0x658>)
 8006d82:	2200      	movs	r2, #0
 8006d84:	4630      	mov	r0, r6
 8006d86:	4639      	mov	r1, r7
 8006d88:	f7f9 fa9e 	bl	80002c8 <__aeabi_dsub>
 8006d8c:	e9dd 2302 	ldrd	r2, r3, [sp, #8]
 8006d90:	4606      	mov	r6, r0
 8006d92:	460f      	mov	r7, r1
 8006d94:	f7f9 fee0 	bl	8000b58 <__aeabi_dcmpgt>
 8006d98:	2800      	cmp	r0, #0
 8006d9a:	f040 8296 	bne.w	80072ca <_dtoa_r+0x992>
 8006d9e:	e9dd 2102 	ldrd	r2, r1, [sp, #8]
 8006da2:	4630      	mov	r0, r6
 8006da4:	f101 4300 	add.w	r3, r1, #2147483648	; 0x80000000
 8006da8:	4639      	mov	r1, r7
 8006daa:	f7f9 feb7 	bl	8000b1c <__aeabi_dcmplt>
 8006dae:	2800      	cmp	r0, #0
 8006db0:	f040 8288 	bne.w	80072c4 <_dtoa_r+0x98c>
 8006db4:	e9dd 230a 	ldrd	r2, r3, [sp, #40]	; 0x28
 8006db8:	e9cd 2302 	strd	r2, r3, [sp, #8]
 8006dbc:	9b13      	ldr	r3, [sp, #76]	; 0x4c
 8006dbe:	2b00      	cmp	r3, #0
 8006dc0:	f2c0 8158 	blt.w	8007074 <_dtoa_r+0x73c>
 8006dc4:	f1ba 0f0e 	cmp.w	sl, #14
 8006dc8:	f300 8154 	bgt.w	8007074 <_dtoa_r+0x73c>
 8006dcc:	4b6b      	ldr	r3, [pc, #428]	; (8006f7c <_dtoa_r+0x644>)
 8006dce:	eb03 03ca 	add.w	r3, r3, sl, lsl #3
 8006dd2:	e9d3 8900 	ldrd	r8, r9, [r3]
 8006dd6:	9b09      	ldr	r3, [sp, #36]	; 0x24
 8006dd8:	2b00      	cmp	r3, #0
 8006dda:	f280 80e3 	bge.w	8006fa4 <_dtoa_r+0x66c>
 8006dde:	9b01      	ldr	r3, [sp, #4]
 8006de0:	2b00      	cmp	r3, #0
 8006de2:	f300 80df 	bgt.w	8006fa4 <_dtoa_r+0x66c>
 8006de6:	f040 826d 	bne.w	80072c4 <_dtoa_r+0x98c>
 8006dea:	4b69      	ldr	r3, [pc, #420]	; (8006f90 <_dtoa_r+0x658>)
 8006dec:	2200      	movs	r2, #0
 8006dee:	4640      	mov	r0, r8
 8006df0:	4649      	mov	r1, r9
 8006df2:	f7f9 fc21 	bl	8000638 <__aeabi_dmul>
 8006df6:	e9dd 2302 	ldrd	r2, r3, [sp, #8]
 8006dfa:	f7f9 fea3 	bl	8000b44 <__aeabi_dcmpge>
 8006dfe:	9e01      	ldr	r6, [sp, #4]
 8006e00:	4637      	mov	r7, r6
 8006e02:	2800      	cmp	r0, #0
 8006e04:	f040 8243 	bne.w	800728e <_dtoa_r+0x956>
 8006e08:	9d00      	ldr	r5, [sp, #0]
 8006e0a:	2331      	movs	r3, #49	; 0x31
 8006e0c:	f805 3b01 	strb.w	r3, [r5], #1
 8006e10:	f10a 0a01 	add.w	sl, sl, #1
 8006e14:	e23f      	b.n	8007296 <_dtoa_r+0x95e>
 8006e16:	07f2      	lsls	r2, r6, #31
 8006e18:	d505      	bpl.n	8006e26 <_dtoa_r+0x4ee>
 8006e1a:	e9d7 2300 	ldrd	r2, r3, [r7]
 8006e1e:	f7f9 fc0b 	bl	8000638 <__aeabi_dmul>
 8006e22:	3501      	adds	r5, #1
 8006e24:	2301      	movs	r3, #1
 8006e26:	1076      	asrs	r6, r6, #1
 8006e28:	3708      	adds	r7, #8
 8006e2a:	e76c      	b.n	8006d06 <_dtoa_r+0x3ce>
 8006e2c:	2502      	movs	r5, #2
 8006e2e:	e76f      	b.n	8006d10 <_dtoa_r+0x3d8>
 8006e30:	9b01      	ldr	r3, [sp, #4]
 8006e32:	f8cd a01c 	str.w	sl, [sp, #28]
 8006e36:	930c      	str	r3, [sp, #48]	; 0x30
 8006e38:	e78d      	b.n	8006d56 <_dtoa_r+0x41e>
 8006e3a:	9900      	ldr	r1, [sp, #0]
 8006e3c:	980c      	ldr	r0, [sp, #48]	; 0x30
 8006e3e:	9a0c      	ldr	r2, [sp, #48]	; 0x30
 8006e40:	4b4e      	ldr	r3, [pc, #312]	; (8006f7c <_dtoa_r+0x644>)
 8006e42:	ed9d 7b02 	vldr	d7, [sp, #8]
 8006e46:	4401      	add	r1, r0
 8006e48:	9102      	str	r1, [sp, #8]
 8006e4a:	9908      	ldr	r1, [sp, #32]
 8006e4c:	eeb0 8a47 	vmov.f32	s16, s14
 8006e50:	eef0 8a67 	vmov.f32	s17, s15
 8006e54:	eb03 03c2 	add.w	r3, r3, r2, lsl #3
 8006e58:	e953 2302 	ldrd	r2, r3, [r3, #-8]
 8006e5c:	2900      	cmp	r1, #0
 8006e5e:	d045      	beq.n	8006eec <_dtoa_r+0x5b4>
 8006e60:	494c      	ldr	r1, [pc, #304]	; (8006f94 <_dtoa_r+0x65c>)
 8006e62:	2000      	movs	r0, #0
 8006e64:	f7f9 fd12 	bl	800088c <__aeabi_ddiv>
 8006e68:	ec53 2b18 	vmov	r2, r3, d8
 8006e6c:	f7f9 fa2c 	bl	80002c8 <__aeabi_dsub>
 8006e70:	9d00      	ldr	r5, [sp, #0]
 8006e72:	ec41 0b18 	vmov	d8, r0, r1
 8006e76:	4639      	mov	r1, r7
 8006e78:	4630      	mov	r0, r6
 8006e7a:	f7f9 fe8d 	bl	8000b98 <__aeabi_d2iz>
 8006e7e:	900c      	str	r0, [sp, #48]	; 0x30
 8006e80:	f7f9 fb70 	bl	8000564 <__aeabi_i2d>
 8006e84:	4602      	mov	r2, r0
 8006e86:	460b      	mov	r3, r1
 8006e88:	4630      	mov	r0, r6
 8006e8a:	4639      	mov	r1, r7
 8006e8c:	f7f9 fa1c 	bl	80002c8 <__aeabi_dsub>
 8006e90:	9b0c      	ldr	r3, [sp, #48]	; 0x30
 8006e92:	3330      	adds	r3, #48	; 0x30
 8006e94:	f805 3b01 	strb.w	r3, [r5], #1
 8006e98:	ec53 2b18 	vmov	r2, r3, d8
 8006e9c:	4606      	mov	r6, r0
 8006e9e:	460f      	mov	r7, r1
 8006ea0:	f7f9 fe3c 	bl	8000b1c <__aeabi_dcmplt>
 8006ea4:	2800      	cmp	r0, #0
 8006ea6:	d165      	bne.n	8006f74 <_dtoa_r+0x63c>
 8006ea8:	4632      	mov	r2, r6
 8006eaa:	463b      	mov	r3, r7
 8006eac:	4935      	ldr	r1, [pc, #212]	; (8006f84 <_dtoa_r+0x64c>)
 8006eae:	2000      	movs	r0, #0
 8006eb0:	f7f9 fa0a 	bl	80002c8 <__aeabi_dsub>
 8006eb4:	ec53 2b18 	vmov	r2, r3, d8
 8006eb8:	f7f9 fe30 	bl	8000b1c <__aeabi_dcmplt>
 8006ebc:	2800      	cmp	r0, #0
 8006ebe:	f040 80b9 	bne.w	8007034 <_dtoa_r+0x6fc>
 8006ec2:	9b02      	ldr	r3, [sp, #8]
 8006ec4:	429d      	cmp	r5, r3
 8006ec6:	f43f af75 	beq.w	8006db4 <_dtoa_r+0x47c>
 8006eca:	4b2f      	ldr	r3, [pc, #188]	; (8006f88 <_dtoa_r+0x650>)
 8006ecc:	ec51 0b18 	vmov	r0, r1, d8
 8006ed0:	2200      	movs	r2, #0
 8006ed2:	f7f9 fbb1 	bl	8000638 <__aeabi_dmul>
 8006ed6:	4b2c      	ldr	r3, [pc, #176]	; (8006f88 <_dtoa_r+0x650>)
 8006ed8:	ec41 0b18 	vmov	d8, r0, r1
 8006edc:	2200      	movs	r2, #0
 8006ede:	4630      	mov	r0, r6
 8006ee0:	4639      	mov	r1, r7
 8006ee2:	f7f9 fba9 	bl	8000638 <__aeabi_dmul>
 8006ee6:	4606      	mov	r6, r0
 8006ee8:	460f      	mov	r7, r1
 8006eea:	e7c4      	b.n	8006e76 <_dtoa_r+0x53e>
 8006eec:	ec51 0b17 	vmov	r0, r1, d7
 8006ef0:	f7f9 fba2 	bl	8000638 <__aeabi_dmul>
 8006ef4:	9b02      	ldr	r3, [sp, #8]
 8006ef6:	9d00      	ldr	r5, [sp, #0]
 8006ef8:	930c      	str	r3, [sp, #48]	; 0x30
 8006efa:	ec41 0b18 	vmov	d8, r0, r1
 8006efe:	4639      	mov	r1, r7
 8006f00:	4630      	mov	r0, r6
 8006f02:	f7f9 fe49 	bl	8000b98 <__aeabi_d2iz>
 8006f06:	9011      	str	r0, [sp, #68]	; 0x44
 8006f08:	f7f9 fb2c 	bl	8000564 <__aeabi_i2d>
 8006f0c:	4602      	mov	r2, r0
 8006f0e:	460b      	mov	r3, r1
 8006f10:	4630      	mov	r0, r6
 8006f12:	4639      	mov	r1, r7
 8006f14:	f7f9 f9d8 	bl	80002c8 <__aeabi_dsub>
 8006f18:	9b11      	ldr	r3, [sp, #68]	; 0x44
 8006f1a:	3330      	adds	r3, #48	; 0x30
 8006f1c:	f805 3b01 	strb.w	r3, [r5], #1
 8006f20:	9b02      	ldr	r3, [sp, #8]
 8006f22:	429d      	cmp	r5, r3
 8006f24:	4606      	mov	r6, r0
 8006f26:	460f      	mov	r7, r1
 8006f28:	f04f 0200 	mov.w	r2, #0
 8006f2c:	d134      	bne.n	8006f98 <_dtoa_r+0x660>
 8006f2e:	4b19      	ldr	r3, [pc, #100]	; (8006f94 <_dtoa_r+0x65c>)
 8006f30:	ec51 0b18 	vmov	r0, r1, d8
 8006f34:	f7f9 f9ca 	bl	80002cc <__adddf3>
 8006f38:	4602      	mov	r2, r0
 8006f3a:	460b      	mov	r3, r1
 8006f3c:	4630      	mov	r0, r6
 8006f3e:	4639      	mov	r1, r7
 8006f40:	f7f9 fe0a 	bl	8000b58 <__aeabi_dcmpgt>
 8006f44:	2800      	cmp	r0, #0
 8006f46:	d175      	bne.n	8007034 <_dtoa_r+0x6fc>
 8006f48:	ec53 2b18 	vmov	r2, r3, d8
 8006f4c:	4911      	ldr	r1, [pc, #68]	; (8006f94 <_dtoa_r+0x65c>)
 8006f4e:	2000      	movs	r0, #0
 8006f50:	f7f9 f9ba 	bl	80002c8 <__aeabi_dsub>
 8006f54:	4602      	mov	r2, r0
 8006f56:	460b      	mov	r3, r1
 8006f58:	4630      	mov	r0, r6
 8006f5a:	4639      	mov	r1, r7
 8006f5c:	f7f9 fdde 	bl	8000b1c <__aeabi_dcmplt>
 8006f60:	2800      	cmp	r0, #0
 8006f62:	f43f af27 	beq.w	8006db4 <_dtoa_r+0x47c>
 8006f66:	9d0c      	ldr	r5, [sp, #48]	; 0x30
 8006f68:	1e6b      	subs	r3, r5, #1
 8006f6a:	930c      	str	r3, [sp, #48]	; 0x30
 8006f6c:	f815 3c01 	ldrb.w	r3, [r5, #-1]
 8006f70:	2b30      	cmp	r3, #48	; 0x30
 8006f72:	d0f8      	beq.n	8006f66 <_dtoa_r+0x62e>
 8006f74:	f8dd a01c 	ldr.w	sl, [sp, #28]
 8006f78:	e04a      	b.n	8007010 <_dtoa_r+0x6d8>
 8006f7a:	bf00      	nop
 8006f7c:	08008e88 	.word	0x08008e88
 8006f80:	08008e60 	.word	0x08008e60
 8006f84:	3ff00000 	.word	0x3ff00000
 8006f88:	40240000 	.word	0x40240000
 8006f8c:	401c0000 	.word	0x401c0000
 8006f90:	40140000 	.word	0x40140000
 8006f94:	3fe00000 	.word	0x3fe00000
 8006f98:	4baf      	ldr	r3, [pc, #700]	; (8007258 <_dtoa_r+0x920>)
 8006f9a:	f7f9 fb4d 	bl	8000638 <__aeabi_dmul>
 8006f9e:	4606      	mov	r6, r0
 8006fa0:	460f      	mov	r7, r1
 8006fa2:	e7ac      	b.n	8006efe <_dtoa_r+0x5c6>
 8006fa4:	e9dd 6702 	ldrd	r6, r7, [sp, #8]
 8006fa8:	9d00      	ldr	r5, [sp, #0]
 8006faa:	4642      	mov	r2, r8
 8006fac:	464b      	mov	r3, r9
 8006fae:	4630      	mov	r0, r6
 8006fb0:	4639      	mov	r1, r7
 8006fb2:	f7f9 fc6b 	bl	800088c <__aeabi_ddiv>
 8006fb6:	f7f9 fdef 	bl	8000b98 <__aeabi_d2iz>
 8006fba:	9002      	str	r0, [sp, #8]
 8006fbc:	f7f9 fad2 	bl	8000564 <__aeabi_i2d>
 8006fc0:	4642      	mov	r2, r8
 8006fc2:	464b      	mov	r3, r9
 8006fc4:	f7f9 fb38 	bl	8000638 <__aeabi_dmul>
 8006fc8:	4602      	mov	r2, r0
 8006fca:	460b      	mov	r3, r1
 8006fcc:	4630      	mov	r0, r6
 8006fce:	4639      	mov	r1, r7
 8006fd0:	f7f9 f97a 	bl	80002c8 <__aeabi_dsub>
 8006fd4:	9e02      	ldr	r6, [sp, #8]
 8006fd6:	9f01      	ldr	r7, [sp, #4]
 8006fd8:	3630      	adds	r6, #48	; 0x30
 8006fda:	f805 6b01 	strb.w	r6, [r5], #1
 8006fde:	9e00      	ldr	r6, [sp, #0]
 8006fe0:	1bae      	subs	r6, r5, r6
 8006fe2:	42b7      	cmp	r7, r6
 8006fe4:	4602      	mov	r2, r0
 8006fe6:	460b      	mov	r3, r1
 8006fe8:	d137      	bne.n	800705a <_dtoa_r+0x722>
 8006fea:	f7f9 f96f 	bl	80002cc <__adddf3>
 8006fee:	4642      	mov	r2, r8
 8006ff0:	464b      	mov	r3, r9
 8006ff2:	4606      	mov	r6, r0
 8006ff4:	460f      	mov	r7, r1
 8006ff6:	f7f9 fdaf 	bl	8000b58 <__aeabi_dcmpgt>
 8006ffa:	b9c8      	cbnz	r0, 8007030 <_dtoa_r+0x6f8>
 8006ffc:	4642      	mov	r2, r8
 8006ffe:	464b      	mov	r3, r9
 8007000:	4630      	mov	r0, r6
 8007002:	4639      	mov	r1, r7
 8007004:	f7f9 fd80 	bl	8000b08 <__aeabi_dcmpeq>
 8007008:	b110      	cbz	r0, 8007010 <_dtoa_r+0x6d8>
 800700a:	9b02      	ldr	r3, [sp, #8]
 800700c:	07d9      	lsls	r1, r3, #31
 800700e:	d40f      	bmi.n	8007030 <_dtoa_r+0x6f8>
 8007010:	4620      	mov	r0, r4
 8007012:	4659      	mov	r1, fp
 8007014:	f000 fad6 	bl	80075c4 <_Bfree>
 8007018:	2300      	movs	r3, #0
 800701a:	702b      	strb	r3, [r5, #0]
 800701c:	9b0f      	ldr	r3, [sp, #60]	; 0x3c
 800701e:	f10a 0001 	add.w	r0, sl, #1
 8007022:	6018      	str	r0, [r3, #0]
 8007024:	9b21      	ldr	r3, [sp, #132]	; 0x84
 8007026:	2b00      	cmp	r3, #0
 8007028:	f43f acd8 	beq.w	80069dc <_dtoa_r+0xa4>
 800702c:	601d      	str	r5, [r3, #0]
 800702e:	e4d5      	b.n	80069dc <_dtoa_r+0xa4>
 8007030:	f8cd a01c 	str.w	sl, [sp, #28]
 8007034:	462b      	mov	r3, r5
 8007036:	461d      	mov	r5, r3
 8007038:	f813 2d01 	ldrb.w	r2, [r3, #-1]!
 800703c:	2a39      	cmp	r2, #57	; 0x39
 800703e:	d108      	bne.n	8007052 <_dtoa_r+0x71a>
 8007040:	9a00      	ldr	r2, [sp, #0]
 8007042:	429a      	cmp	r2, r3
 8007044:	d1f7      	bne.n	8007036 <_dtoa_r+0x6fe>
 8007046:	9a07      	ldr	r2, [sp, #28]
 8007048:	9900      	ldr	r1, [sp, #0]
 800704a:	3201      	adds	r2, #1
 800704c:	9207      	str	r2, [sp, #28]
 800704e:	2230      	movs	r2, #48	; 0x30
 8007050:	700a      	strb	r2, [r1, #0]
 8007052:	781a      	ldrb	r2, [r3, #0]
 8007054:	3201      	adds	r2, #1
 8007056:	701a      	strb	r2, [r3, #0]
 8007058:	e78c      	b.n	8006f74 <_dtoa_r+0x63c>
 800705a:	4b7f      	ldr	r3, [pc, #508]	; (8007258 <_dtoa_r+0x920>)
 800705c:	2200      	movs	r2, #0
 800705e:	f7f9 faeb 	bl	8000638 <__aeabi_dmul>
 8007062:	2200      	movs	r2, #0
 8007064:	2300      	movs	r3, #0
 8007066:	4606      	mov	r6, r0
 8007068:	460f      	mov	r7, r1
 800706a:	f7f9 fd4d 	bl	8000b08 <__aeabi_dcmpeq>
 800706e:	2800      	cmp	r0, #0
 8007070:	d09b      	beq.n	8006faa <_dtoa_r+0x672>
 8007072:	e7cd      	b.n	8007010 <_dtoa_r+0x6d8>
 8007074:	9a08      	ldr	r2, [sp, #32]
 8007076:	2a00      	cmp	r2, #0
 8007078:	f000 80c4 	beq.w	8007204 <_dtoa_r+0x8cc>
 800707c:	9a05      	ldr	r2, [sp, #20]
 800707e:	2a01      	cmp	r2, #1
 8007080:	f300 80a8 	bgt.w	80071d4 <_dtoa_r+0x89c>
 8007084:	9a10      	ldr	r2, [sp, #64]	; 0x40
 8007086:	2a00      	cmp	r2, #0
 8007088:	f000 80a0 	beq.w	80071cc <_dtoa_r+0x894>
 800708c:	f203 4333 	addw	r3, r3, #1075	; 0x433
 8007090:	9e06      	ldr	r6, [sp, #24]
 8007092:	4645      	mov	r5, r8
 8007094:	9a04      	ldr	r2, [sp, #16]
 8007096:	2101      	movs	r1, #1
 8007098:	441a      	add	r2, r3
 800709a:	4620      	mov	r0, r4
 800709c:	4498      	add	r8, r3
 800709e:	9204      	str	r2, [sp, #16]
 80070a0:	f000 fb4c 	bl	800773c <__i2b>
 80070a4:	4607      	mov	r7, r0
 80070a6:	2d00      	cmp	r5, #0
 80070a8:	dd0b      	ble.n	80070c2 <_dtoa_r+0x78a>
 80070aa:	9b04      	ldr	r3, [sp, #16]
 80070ac:	2b00      	cmp	r3, #0
 80070ae:	dd08      	ble.n	80070c2 <_dtoa_r+0x78a>
 80070b0:	42ab      	cmp	r3, r5
 80070b2:	9a04      	ldr	r2, [sp, #16]
 80070b4:	bfa8      	it	ge
 80070b6:	462b      	movge	r3, r5
 80070b8:	eba8 0803 	sub.w	r8, r8, r3
 80070bc:	1aed      	subs	r5, r5, r3
 80070be:	1ad3      	subs	r3, r2, r3
 80070c0:	9304      	str	r3, [sp, #16]
 80070c2:	9b06      	ldr	r3, [sp, #24]
 80070c4:	b1fb      	cbz	r3, 8007106 <_dtoa_r+0x7ce>
 80070c6:	9b08      	ldr	r3, [sp, #32]
 80070c8:	2b00      	cmp	r3, #0
 80070ca:	f000 809f 	beq.w	800720c <_dtoa_r+0x8d4>
 80070ce:	2e00      	cmp	r6, #0
 80070d0:	dd11      	ble.n	80070f6 <_dtoa_r+0x7be>
 80070d2:	4639      	mov	r1, r7
 80070d4:	4632      	mov	r2, r6
 80070d6:	4620      	mov	r0, r4
 80070d8:	f000 fbec 	bl	80078b4 <__pow5mult>
 80070dc:	465a      	mov	r2, fp
 80070de:	4601      	mov	r1, r0
 80070e0:	4607      	mov	r7, r0
 80070e2:	4620      	mov	r0, r4
 80070e4:	f000 fb40 	bl	8007768 <__multiply>
 80070e8:	4659      	mov	r1, fp
 80070ea:	9007      	str	r0, [sp, #28]
 80070ec:	4620      	mov	r0, r4
 80070ee:	f000 fa69 	bl	80075c4 <_Bfree>
 80070f2:	9b07      	ldr	r3, [sp, #28]
 80070f4:	469b      	mov	fp, r3
 80070f6:	9b06      	ldr	r3, [sp, #24]
 80070f8:	1b9a      	subs	r2, r3, r6
 80070fa:	d004      	beq.n	8007106 <_dtoa_r+0x7ce>
 80070fc:	4659      	mov	r1, fp
 80070fe:	4620      	mov	r0, r4
 8007100:	f000 fbd8 	bl	80078b4 <__pow5mult>
 8007104:	4683      	mov	fp, r0
 8007106:	2101      	movs	r1, #1
 8007108:	4620      	mov	r0, r4
 800710a:	f000 fb17 	bl	800773c <__i2b>
 800710e:	9b0d      	ldr	r3, [sp, #52]	; 0x34
 8007110:	2b00      	cmp	r3, #0
 8007112:	4606      	mov	r6, r0
 8007114:	dd7c      	ble.n	8007210 <_dtoa_r+0x8d8>
 8007116:	461a      	mov	r2, r3
 8007118:	4601      	mov	r1, r0
 800711a:	4620      	mov	r0, r4
 800711c:	f000 fbca 	bl	80078b4 <__pow5mult>
 8007120:	9b05      	ldr	r3, [sp, #20]
 8007122:	2b01      	cmp	r3, #1
 8007124:	4606      	mov	r6, r0
 8007126:	dd76      	ble.n	8007216 <_dtoa_r+0x8de>
 8007128:	2300      	movs	r3, #0
 800712a:	9306      	str	r3, [sp, #24]
 800712c:	6933      	ldr	r3, [r6, #16]
 800712e:	eb06 0383 	add.w	r3, r6, r3, lsl #2
 8007132:	6918      	ldr	r0, [r3, #16]
 8007134:	f000 fab2 	bl	800769c <__hi0bits>
 8007138:	f1c0 0020 	rsb	r0, r0, #32
 800713c:	9b04      	ldr	r3, [sp, #16]
 800713e:	4418      	add	r0, r3
 8007140:	f010 001f 	ands.w	r0, r0, #31
 8007144:	f000 8086 	beq.w	8007254 <_dtoa_r+0x91c>
 8007148:	f1c0 0320 	rsb	r3, r0, #32
 800714c:	2b04      	cmp	r3, #4
 800714e:	dd7f      	ble.n	8007250 <_dtoa_r+0x918>
 8007150:	f1c0 001c 	rsb	r0, r0, #28
 8007154:	9b04      	ldr	r3, [sp, #16]
 8007156:	4403      	add	r3, r0
 8007158:	4480      	add	r8, r0
 800715a:	4405      	add	r5, r0
 800715c:	9304      	str	r3, [sp, #16]
 800715e:	f1b8 0f00 	cmp.w	r8, #0
 8007162:	dd05      	ble.n	8007170 <_dtoa_r+0x838>
 8007164:	4659      	mov	r1, fp
 8007166:	4642      	mov	r2, r8
 8007168:	4620      	mov	r0, r4
 800716a:	f000 fbfd 	bl	8007968 <__lshift>
 800716e:	4683      	mov	fp, r0
 8007170:	9b04      	ldr	r3, [sp, #16]
 8007172:	2b00      	cmp	r3, #0
 8007174:	dd05      	ble.n	8007182 <_dtoa_r+0x84a>
 8007176:	4631      	mov	r1, r6
 8007178:	461a      	mov	r2, r3
 800717a:	4620      	mov	r0, r4
 800717c:	f000 fbf4 	bl	8007968 <__lshift>
 8007180:	4606      	mov	r6, r0
 8007182:	9b0e      	ldr	r3, [sp, #56]	; 0x38
 8007184:	2b00      	cmp	r3, #0
 8007186:	d069      	beq.n	800725c <_dtoa_r+0x924>
 8007188:	4631      	mov	r1, r6
 800718a:	4658      	mov	r0, fp
 800718c:	f000 fc58 	bl	8007a40 <__mcmp>
 8007190:	2800      	cmp	r0, #0
 8007192:	da63      	bge.n	800725c <_dtoa_r+0x924>
 8007194:	2300      	movs	r3, #0
 8007196:	4659      	mov	r1, fp
 8007198:	220a      	movs	r2, #10
 800719a:	4620      	mov	r0, r4
 800719c:	f000 fa34 	bl	8007608 <__multadd>
 80071a0:	9b08      	ldr	r3, [sp, #32]
 80071a2:	f10a 3aff 	add.w	sl, sl, #4294967295	; 0xffffffff
 80071a6:	4683      	mov	fp, r0
 80071a8:	2b00      	cmp	r3, #0
 80071aa:	f000 818f 	beq.w	80074cc <_dtoa_r+0xb94>
 80071ae:	4639      	mov	r1, r7
 80071b0:	2300      	movs	r3, #0
 80071b2:	220a      	movs	r2, #10
 80071b4:	4620      	mov	r0, r4
 80071b6:	f000 fa27 	bl	8007608 <__multadd>
 80071ba:	f1b9 0f00 	cmp.w	r9, #0
 80071be:	4607      	mov	r7, r0
 80071c0:	f300 808e 	bgt.w	80072e0 <_dtoa_r+0x9a8>
 80071c4:	9b05      	ldr	r3, [sp, #20]
 80071c6:	2b02      	cmp	r3, #2
 80071c8:	dc50      	bgt.n	800726c <_dtoa_r+0x934>
 80071ca:	e089      	b.n	80072e0 <_dtoa_r+0x9a8>
 80071cc:	9b12      	ldr	r3, [sp, #72]	; 0x48
 80071ce:	f1c3 0336 	rsb	r3, r3, #54	; 0x36
 80071d2:	e75d      	b.n	8007090 <_dtoa_r+0x758>
 80071d4:	9b01      	ldr	r3, [sp, #4]
 80071d6:	1e5e      	subs	r6, r3, #1
 80071d8:	9b06      	ldr	r3, [sp, #24]
 80071da:	42b3      	cmp	r3, r6
 80071dc:	bfbf      	itttt	lt
 80071de:	9b06      	ldrlt	r3, [sp, #24]
 80071e0:	9606      	strlt	r6, [sp, #24]
 80071e2:	1af2      	sublt	r2, r6, r3
 80071e4:	9b0d      	ldrlt	r3, [sp, #52]	; 0x34
 80071e6:	bfb6      	itet	lt
 80071e8:	189b      	addlt	r3, r3, r2
 80071ea:	1b9e      	subge	r6, r3, r6
 80071ec:	930d      	strlt	r3, [sp, #52]	; 0x34
 80071ee:	9b01      	ldr	r3, [sp, #4]
 80071f0:	bfb8      	it	lt
 80071f2:	2600      	movlt	r6, #0
 80071f4:	2b00      	cmp	r3, #0
 80071f6:	bfb5      	itete	lt
 80071f8:	eba8 0503 	sublt.w	r5, r8, r3
 80071fc:	9b01      	ldrge	r3, [sp, #4]
 80071fe:	2300      	movlt	r3, #0
 8007200:	4645      	movge	r5, r8
 8007202:	e747      	b.n	8007094 <_dtoa_r+0x75c>
 8007204:	9e06      	ldr	r6, [sp, #24]
 8007206:	9f08      	ldr	r7, [sp, #32]
 8007208:	4645      	mov	r5, r8
 800720a:	e74c      	b.n	80070a6 <_dtoa_r+0x76e>
 800720c:	9a06      	ldr	r2, [sp, #24]
 800720e:	e775      	b.n	80070fc <_dtoa_r+0x7c4>
 8007210:	9b05      	ldr	r3, [sp, #20]
 8007212:	2b01      	cmp	r3, #1
 8007214:	dc18      	bgt.n	8007248 <_dtoa_r+0x910>
 8007216:	9b02      	ldr	r3, [sp, #8]
 8007218:	b9b3      	cbnz	r3, 8007248 <_dtoa_r+0x910>
 800721a:	9b03      	ldr	r3, [sp, #12]
 800721c:	f3c3 0313 	ubfx	r3, r3, #0, #20
 8007220:	b9a3      	cbnz	r3, 800724c <_dtoa_r+0x914>
 8007222:	9b03      	ldr	r3, [sp, #12]
 8007224:	f023 4300 	bic.w	r3, r3, #2147483648	; 0x80000000
 8007228:	0d1b      	lsrs	r3, r3, #20
 800722a:	051b      	lsls	r3, r3, #20
 800722c:	b12b      	cbz	r3, 800723a <_dtoa_r+0x902>
 800722e:	9b04      	ldr	r3, [sp, #16]
 8007230:	3301      	adds	r3, #1
 8007232:	9304      	str	r3, [sp, #16]
 8007234:	f108 0801 	add.w	r8, r8, #1
 8007238:	2301      	movs	r3, #1
 800723a:	9306      	str	r3, [sp, #24]
 800723c:	9b0d      	ldr	r3, [sp, #52]	; 0x34
 800723e:	2b00      	cmp	r3, #0
 8007240:	f47f af74 	bne.w	800712c <_dtoa_r+0x7f4>
 8007244:	2001      	movs	r0, #1
 8007246:	e779      	b.n	800713c <_dtoa_r+0x804>
 8007248:	2300      	movs	r3, #0
 800724a:	e7f6      	b.n	800723a <_dtoa_r+0x902>
 800724c:	9b02      	ldr	r3, [sp, #8]
 800724e:	e7f4      	b.n	800723a <_dtoa_r+0x902>
 8007250:	d085      	beq.n	800715e <_dtoa_r+0x826>
 8007252:	4618      	mov	r0, r3
 8007254:	301c      	adds	r0, #28
 8007256:	e77d      	b.n	8007154 <_dtoa_r+0x81c>
 8007258:	40240000 	.word	0x40240000
 800725c:	9b01      	ldr	r3, [sp, #4]
 800725e:	2b00      	cmp	r3, #0
 8007260:	dc38      	bgt.n	80072d4 <_dtoa_r+0x99c>
 8007262:	9b05      	ldr	r3, [sp, #20]
 8007264:	2b02      	cmp	r3, #2
 8007266:	dd35      	ble.n	80072d4 <_dtoa_r+0x99c>
 8007268:	f8dd 9004 	ldr.w	r9, [sp, #4]
 800726c:	f1b9 0f00 	cmp.w	r9, #0
 8007270:	d10d      	bne.n	800728e <_dtoa_r+0x956>
 8007272:	4631      	mov	r1, r6
 8007274:	464b      	mov	r3, r9
 8007276:	2205      	movs	r2, #5
 8007278:	4620      	mov	r0, r4
 800727a:	f000 f9c5 	bl	8007608 <__multadd>
 800727e:	4601      	mov	r1, r0
 8007280:	4606      	mov	r6, r0
 8007282:	4658      	mov	r0, fp
 8007284:	f000 fbdc 	bl	8007a40 <__mcmp>
 8007288:	2800      	cmp	r0, #0
 800728a:	f73f adbd 	bgt.w	8006e08 <_dtoa_r+0x4d0>
 800728e:	9b09      	ldr	r3, [sp, #36]	; 0x24
 8007290:	9d00      	ldr	r5, [sp, #0]
 8007292:	ea6f 0a03 	mvn.w	sl, r3
 8007296:	f04f 0800 	mov.w	r8, #0
 800729a:	4631      	mov	r1, r6
 800729c:	4620      	mov	r0, r4
 800729e:	f000 f991 	bl	80075c4 <_Bfree>
 80072a2:	2f00      	cmp	r7, #0
 80072a4:	f43f aeb4 	beq.w	8007010 <_dtoa_r+0x6d8>
 80072a8:	f1b8 0f00 	cmp.w	r8, #0
 80072ac:	d005      	beq.n	80072ba <_dtoa_r+0x982>
 80072ae:	45b8      	cmp	r8, r7
 80072b0:	d003      	beq.n	80072ba <_dtoa_r+0x982>
 80072b2:	4641      	mov	r1, r8
 80072b4:	4620      	mov	r0, r4
 80072b6:	f000 f985 	bl	80075c4 <_Bfree>
 80072ba:	4639      	mov	r1, r7
 80072bc:	4620      	mov	r0, r4
 80072be:	f000 f981 	bl	80075c4 <_Bfree>
 80072c2:	e6a5      	b.n	8007010 <_dtoa_r+0x6d8>
 80072c4:	2600      	movs	r6, #0
 80072c6:	4637      	mov	r7, r6
 80072c8:	e7e1      	b.n	800728e <_dtoa_r+0x956>
 80072ca:	9e0c      	ldr	r6, [sp, #48]	; 0x30
 80072cc:	f8dd a01c 	ldr.w	sl, [sp, #28]
 80072d0:	4637      	mov	r7, r6
 80072d2:	e599      	b.n	8006e08 <_dtoa_r+0x4d0>
 80072d4:	9b08      	ldr	r3, [sp, #32]
 80072d6:	f8dd 9004 	ldr.w	r9, [sp, #4]
 80072da:	2b00      	cmp	r3, #0
 80072dc:	f000 80fd 	beq.w	80074da <_dtoa_r+0xba2>
 80072e0:	2d00      	cmp	r5, #0
 80072e2:	dd05      	ble.n	80072f0 <_dtoa_r+0x9b8>
 80072e4:	4639      	mov	r1, r7
 80072e6:	462a      	mov	r2, r5
 80072e8:	4620      	mov	r0, r4
 80072ea:	f000 fb3d 	bl	8007968 <__lshift>
 80072ee:	4607      	mov	r7, r0
 80072f0:	9b06      	ldr	r3, [sp, #24]
 80072f2:	2b00      	cmp	r3, #0
 80072f4:	d05c      	beq.n	80073b0 <_dtoa_r+0xa78>
 80072f6:	6879      	ldr	r1, [r7, #4]
 80072f8:	4620      	mov	r0, r4
 80072fa:	f000 f923 	bl	8007544 <_Balloc>
 80072fe:	4605      	mov	r5, r0
 8007300:	b928      	cbnz	r0, 800730e <_dtoa_r+0x9d6>
 8007302:	4b80      	ldr	r3, [pc, #512]	; (8007504 <_dtoa_r+0xbcc>)
 8007304:	4602      	mov	r2, r0
 8007306:	f240 21ea 	movw	r1, #746	; 0x2ea
 800730a:	f7ff bb2e 	b.w	800696a <_dtoa_r+0x32>
 800730e:	693a      	ldr	r2, [r7, #16]
 8007310:	3202      	adds	r2, #2
 8007312:	0092      	lsls	r2, r2, #2
 8007314:	f107 010c 	add.w	r1, r7, #12
 8007318:	300c      	adds	r0, #12
 800731a:	f000 f905 	bl	8007528 <memcpy>
 800731e:	2201      	movs	r2, #1
 8007320:	4629      	mov	r1, r5
 8007322:	4620      	mov	r0, r4
 8007324:	f000 fb20 	bl	8007968 <__lshift>
 8007328:	9b00      	ldr	r3, [sp, #0]
 800732a:	3301      	adds	r3, #1
 800732c:	9301      	str	r3, [sp, #4]
 800732e:	9b00      	ldr	r3, [sp, #0]
 8007330:	444b      	add	r3, r9
 8007332:	9307      	str	r3, [sp, #28]
 8007334:	9b02      	ldr	r3, [sp, #8]
 8007336:	f003 0301 	and.w	r3, r3, #1
 800733a:	46b8      	mov	r8, r7
 800733c:	9306      	str	r3, [sp, #24]
 800733e:	4607      	mov	r7, r0
 8007340:	9b01      	ldr	r3, [sp, #4]
 8007342:	4631      	mov	r1, r6
 8007344:	3b01      	subs	r3, #1
 8007346:	4658      	mov	r0, fp
 8007348:	9302      	str	r3, [sp, #8]
 800734a:	f7ff fa67 	bl	800681c <quorem>
 800734e:	4603      	mov	r3, r0
 8007350:	3330      	adds	r3, #48	; 0x30
 8007352:	9004      	str	r0, [sp, #16]
 8007354:	4641      	mov	r1, r8
 8007356:	4658      	mov	r0, fp
 8007358:	9308      	str	r3, [sp, #32]
 800735a:	f000 fb71 	bl	8007a40 <__mcmp>
 800735e:	463a      	mov	r2, r7
 8007360:	4681      	mov	r9, r0
 8007362:	4631      	mov	r1, r6
 8007364:	4620      	mov	r0, r4
 8007366:	f000 fb87 	bl	8007a78 <__mdiff>
 800736a:	68c2      	ldr	r2, [r0, #12]
 800736c:	9b08      	ldr	r3, [sp, #32]
 800736e:	4605      	mov	r5, r0
 8007370:	bb02      	cbnz	r2, 80073b4 <_dtoa_r+0xa7c>
 8007372:	4601      	mov	r1, r0
 8007374:	4658      	mov	r0, fp
 8007376:	f000 fb63 	bl	8007a40 <__mcmp>
 800737a:	9b08      	ldr	r3, [sp, #32]
 800737c:	4602      	mov	r2, r0
 800737e:	4629      	mov	r1, r5
 8007380:	4620      	mov	r0, r4
 8007382:	e9cd 3208 	strd	r3, r2, [sp, #32]
 8007386:	f000 f91d 	bl	80075c4 <_Bfree>
 800738a:	9b05      	ldr	r3, [sp, #20]
 800738c:	9a09      	ldr	r2, [sp, #36]	; 0x24
 800738e:	9d01      	ldr	r5, [sp, #4]
 8007390:	ea43 0102 	orr.w	r1, r3, r2
 8007394:	9b06      	ldr	r3, [sp, #24]
 8007396:	430b      	orrs	r3, r1
 8007398:	9b08      	ldr	r3, [sp, #32]
 800739a:	d10d      	bne.n	80073b8 <_dtoa_r+0xa80>
 800739c:	2b39      	cmp	r3, #57	; 0x39
 800739e:	d029      	beq.n	80073f4 <_dtoa_r+0xabc>
 80073a0:	f1b9 0f00 	cmp.w	r9, #0
 80073a4:	dd01      	ble.n	80073aa <_dtoa_r+0xa72>
 80073a6:	9b04      	ldr	r3, [sp, #16]
 80073a8:	3331      	adds	r3, #49	; 0x31
 80073aa:	9a02      	ldr	r2, [sp, #8]
 80073ac:	7013      	strb	r3, [r2, #0]
 80073ae:	e774      	b.n	800729a <_dtoa_r+0x962>
 80073b0:	4638      	mov	r0, r7
 80073b2:	e7b9      	b.n	8007328 <_dtoa_r+0x9f0>
 80073b4:	2201      	movs	r2, #1
 80073b6:	e7e2      	b.n	800737e <_dtoa_r+0xa46>
 80073b8:	f1b9 0f00 	cmp.w	r9, #0
 80073bc:	db06      	blt.n	80073cc <_dtoa_r+0xa94>
 80073be:	9905      	ldr	r1, [sp, #20]
 80073c0:	ea41 0909 	orr.w	r9, r1, r9
 80073c4:	9906      	ldr	r1, [sp, #24]
 80073c6:	ea59 0101 	orrs.w	r1, r9, r1
 80073ca:	d120      	bne.n	800740e <_dtoa_r+0xad6>
 80073cc:	2a00      	cmp	r2, #0
 80073ce:	ddec      	ble.n	80073aa <_dtoa_r+0xa72>
 80073d0:	4659      	mov	r1, fp
 80073d2:	2201      	movs	r2, #1
 80073d4:	4620      	mov	r0, r4
 80073d6:	9301      	str	r3, [sp, #4]
 80073d8:	f000 fac6 	bl	8007968 <__lshift>
 80073dc:	4631      	mov	r1, r6
 80073de:	4683      	mov	fp, r0
 80073e0:	f000 fb2e 	bl	8007a40 <__mcmp>
 80073e4:	2800      	cmp	r0, #0
 80073e6:	9b01      	ldr	r3, [sp, #4]
 80073e8:	dc02      	bgt.n	80073f0 <_dtoa_r+0xab8>
 80073ea:	d1de      	bne.n	80073aa <_dtoa_r+0xa72>
 80073ec:	07da      	lsls	r2, r3, #31
 80073ee:	d5dc      	bpl.n	80073aa <_dtoa_r+0xa72>
 80073f0:	2b39      	cmp	r3, #57	; 0x39
 80073f2:	d1d8      	bne.n	80073a6 <_dtoa_r+0xa6e>
 80073f4:	9a02      	ldr	r2, [sp, #8]
 80073f6:	2339      	movs	r3, #57	; 0x39
 80073f8:	7013      	strb	r3, [r2, #0]
 80073fa:	462b      	mov	r3, r5
 80073fc:	461d      	mov	r5, r3
 80073fe:	3b01      	subs	r3, #1
 8007400:	f815 2c01 	ldrb.w	r2, [r5, #-1]
 8007404:	2a39      	cmp	r2, #57	; 0x39
 8007406:	d050      	beq.n	80074aa <_dtoa_r+0xb72>
 8007408:	3201      	adds	r2, #1
 800740a:	701a      	strb	r2, [r3, #0]
 800740c:	e745      	b.n	800729a <_dtoa_r+0x962>
 800740e:	2a00      	cmp	r2, #0
 8007410:	dd03      	ble.n	800741a <_dtoa_r+0xae2>
 8007412:	2b39      	cmp	r3, #57	; 0x39
 8007414:	d0ee      	beq.n	80073f4 <_dtoa_r+0xabc>
 8007416:	3301      	adds	r3, #1
 8007418:	e7c7      	b.n	80073aa <_dtoa_r+0xa72>
 800741a:	9a01      	ldr	r2, [sp, #4]
 800741c:	9907      	ldr	r1, [sp, #28]
 800741e:	f802 3c01 	strb.w	r3, [r2, #-1]
 8007422:	428a      	cmp	r2, r1
 8007424:	d02a      	beq.n	800747c <_dtoa_r+0xb44>
 8007426:	4659      	mov	r1, fp
 8007428:	2300      	movs	r3, #0
 800742a:	220a      	movs	r2, #10
 800742c:	4620      	mov	r0, r4
 800742e:	f000 f8eb 	bl	8007608 <__multadd>
 8007432:	45b8      	cmp	r8, r7
 8007434:	4683      	mov	fp, r0
 8007436:	f04f 0300 	mov.w	r3, #0
 800743a:	f04f 020a 	mov.w	r2, #10
 800743e:	4641      	mov	r1, r8
 8007440:	4620      	mov	r0, r4
 8007442:	d107      	bne.n	8007454 <_dtoa_r+0xb1c>
 8007444:	f000 f8e0 	bl	8007608 <__multadd>
 8007448:	4680      	mov	r8, r0
 800744a:	4607      	mov	r7, r0
 800744c:	9b01      	ldr	r3, [sp, #4]
 800744e:	3301      	adds	r3, #1
 8007450:	9301      	str	r3, [sp, #4]
 8007452:	e775      	b.n	8007340 <_dtoa_r+0xa08>
 8007454:	f000 f8d8 	bl	8007608 <__multadd>
 8007458:	4639      	mov	r1, r7
 800745a:	4680      	mov	r8, r0
 800745c:	2300      	movs	r3, #0
 800745e:	220a      	movs	r2, #10
 8007460:	4620      	mov	r0, r4
 8007462:	f000 f8d1 	bl	8007608 <__multadd>
 8007466:	4607      	mov	r7, r0
 8007468:	e7f0      	b.n	800744c <_dtoa_r+0xb14>
 800746a:	f1b9 0f00 	cmp.w	r9, #0
 800746e:	9a00      	ldr	r2, [sp, #0]
 8007470:	bfcc      	ite	gt
 8007472:	464d      	movgt	r5, r9
 8007474:	2501      	movle	r5, #1
 8007476:	4415      	add	r5, r2
 8007478:	f04f 0800 	mov.w	r8, #0
 800747c:	4659      	mov	r1, fp
 800747e:	2201      	movs	r2, #1
 8007480:	4620      	mov	r0, r4
 8007482:	9301      	str	r3, [sp, #4]
 8007484:	f000 fa70 	bl	8007968 <__lshift>
 8007488:	4631      	mov	r1, r6
 800748a:	4683      	mov	fp, r0
 800748c:	f000 fad8 	bl	8007a40 <__mcmp>
 8007490:	2800      	cmp	r0, #0
 8007492:	dcb2      	bgt.n	80073fa <_dtoa_r+0xac2>
 8007494:	d102      	bne.n	800749c <_dtoa_r+0xb64>
 8007496:	9b01      	ldr	r3, [sp, #4]
 8007498:	07db      	lsls	r3, r3, #31
 800749a:	d4ae      	bmi.n	80073fa <_dtoa_r+0xac2>
 800749c:	462b      	mov	r3, r5
 800749e:	461d      	mov	r5, r3
 80074a0:	f813 2d01 	ldrb.w	r2, [r3, #-1]!
 80074a4:	2a30      	cmp	r2, #48	; 0x30
 80074a6:	d0fa      	beq.n	800749e <_dtoa_r+0xb66>
 80074a8:	e6f7      	b.n	800729a <_dtoa_r+0x962>
 80074aa:	9a00      	ldr	r2, [sp, #0]
 80074ac:	429a      	cmp	r2, r3
 80074ae:	d1a5      	bne.n	80073fc <_dtoa_r+0xac4>
 80074b0:	f10a 0a01 	add.w	sl, sl, #1
 80074b4:	2331      	movs	r3, #49	; 0x31
 80074b6:	e779      	b.n	80073ac <_dtoa_r+0xa74>
 80074b8:	4b13      	ldr	r3, [pc, #76]	; (8007508 <_dtoa_r+0xbd0>)
 80074ba:	f7ff baaf 	b.w	8006a1c <_dtoa_r+0xe4>
 80074be:	9b21      	ldr	r3, [sp, #132]	; 0x84
 80074c0:	2b00      	cmp	r3, #0
 80074c2:	f47f aa86 	bne.w	80069d2 <_dtoa_r+0x9a>
 80074c6:	4b11      	ldr	r3, [pc, #68]	; (800750c <_dtoa_r+0xbd4>)
 80074c8:	f7ff baa8 	b.w	8006a1c <_dtoa_r+0xe4>
 80074cc:	f1b9 0f00 	cmp.w	r9, #0
 80074d0:	dc03      	bgt.n	80074da <_dtoa_r+0xba2>
 80074d2:	9b05      	ldr	r3, [sp, #20]
 80074d4:	2b02      	cmp	r3, #2
 80074d6:	f73f aec9 	bgt.w	800726c <_dtoa_r+0x934>
 80074da:	9d00      	ldr	r5, [sp, #0]
 80074dc:	4631      	mov	r1, r6
 80074de:	4658      	mov	r0, fp
 80074e0:	f7ff f99c 	bl	800681c <quorem>
 80074e4:	f100 0330 	add.w	r3, r0, #48	; 0x30
 80074e8:	f805 3b01 	strb.w	r3, [r5], #1
 80074ec:	9a00      	ldr	r2, [sp, #0]
 80074ee:	1aaa      	subs	r2, r5, r2
 80074f0:	4591      	cmp	r9, r2
 80074f2:	ddba      	ble.n	800746a <_dtoa_r+0xb32>
 80074f4:	4659      	mov	r1, fp
 80074f6:	2300      	movs	r3, #0
 80074f8:	220a      	movs	r2, #10
 80074fa:	4620      	mov	r0, r4
 80074fc:	f000 f884 	bl	8007608 <__multadd>
 8007500:	4683      	mov	fp, r0
 8007502:	e7eb      	b.n	80074dc <_dtoa_r+0xba4>
 8007504:	08008def 	.word	0x08008def
 8007508:	08008d48 	.word	0x08008d48
 800750c:	08008d6c 	.word	0x08008d6c

08007510 <_localeconv_r>:
 8007510:	4800      	ldr	r0, [pc, #0]	; (8007514 <_localeconv_r+0x4>)
 8007512:	4770      	bx	lr
 8007514:	20000178 	.word	0x20000178

08007518 <malloc>:
 8007518:	4b02      	ldr	r3, [pc, #8]	; (8007524 <malloc+0xc>)
 800751a:	4601      	mov	r1, r0
 800751c:	6818      	ldr	r0, [r3, #0]
 800751e:	f000 bbef 	b.w	8007d00 <_malloc_r>
 8007522:	bf00      	nop
 8007524:	20000024 	.word	0x20000024

08007528 <memcpy>:
 8007528:	440a      	add	r2, r1
 800752a:	4291      	cmp	r1, r2
 800752c:	f100 33ff 	add.w	r3, r0, #4294967295	; 0xffffffff
 8007530:	d100      	bne.n	8007534 <memcpy+0xc>
 8007532:	4770      	bx	lr
 8007534:	b510      	push	{r4, lr}
 8007536:	f811 4b01 	ldrb.w	r4, [r1], #1
 800753a:	f803 4f01 	strb.w	r4, [r3, #1]!
 800753e:	4291      	cmp	r1, r2
 8007540:	d1f9      	bne.n	8007536 <memcpy+0xe>
 8007542:	bd10      	pop	{r4, pc}

08007544 <_Balloc>:
 8007544:	b570      	push	{r4, r5, r6, lr}
 8007546:	6a46      	ldr	r6, [r0, #36]	; 0x24
 8007548:	4604      	mov	r4, r0
 800754a:	460d      	mov	r5, r1
 800754c:	b976      	cbnz	r6, 800756c <_Balloc+0x28>
 800754e:	2010      	movs	r0, #16
 8007550:	f7ff ffe2 	bl	8007518 <malloc>
 8007554:	4602      	mov	r2, r0
 8007556:	6260      	str	r0, [r4, #36]	; 0x24
 8007558:	b920      	cbnz	r0, 8007564 <_Balloc+0x20>
 800755a:	4b18      	ldr	r3, [pc, #96]	; (80075bc <_Balloc+0x78>)
 800755c:	4818      	ldr	r0, [pc, #96]	; (80075c0 <_Balloc+0x7c>)
 800755e:	2166      	movs	r1, #102	; 0x66
 8007560:	f000 fd94 	bl	800808c <__assert_func>
 8007564:	e9c0 6601 	strd	r6, r6, [r0, #4]
 8007568:	6006      	str	r6, [r0, #0]
 800756a:	60c6      	str	r6, [r0, #12]
 800756c:	6a66      	ldr	r6, [r4, #36]	; 0x24
 800756e:	68f3      	ldr	r3, [r6, #12]
 8007570:	b183      	cbz	r3, 8007594 <_Balloc+0x50>
 8007572:	6a63      	ldr	r3, [r4, #36]	; 0x24
 8007574:	68db      	ldr	r3, [r3, #12]
 8007576:	f853 0025 	ldr.w	r0, [r3, r5, lsl #2]
 800757a:	b9b8      	cbnz	r0, 80075ac <_Balloc+0x68>
 800757c:	2101      	movs	r1, #1
 800757e:	fa01 f605 	lsl.w	r6, r1, r5
 8007582:	1d72      	adds	r2, r6, #5
 8007584:	0092      	lsls	r2, r2, #2
 8007586:	4620      	mov	r0, r4
 8007588:	f000 fb5a 	bl	8007c40 <_calloc_r>
 800758c:	b160      	cbz	r0, 80075a8 <_Balloc+0x64>
 800758e:	e9c0 5601 	strd	r5, r6, [r0, #4]
 8007592:	e00e      	b.n	80075b2 <_Balloc+0x6e>
 8007594:	2221      	movs	r2, #33	; 0x21
 8007596:	2104      	movs	r1, #4
 8007598:	4620      	mov	r0, r4
 800759a:	f000 fb51 	bl	8007c40 <_calloc_r>
 800759e:	6a63      	ldr	r3, [r4, #36]	; 0x24
 80075a0:	60f0      	str	r0, [r6, #12]
 80075a2:	68db      	ldr	r3, [r3, #12]
 80075a4:	2b00      	cmp	r3, #0
 80075a6:	d1e4      	bne.n	8007572 <_Balloc+0x2e>
 80075a8:	2000      	movs	r0, #0
 80075aa:	bd70      	pop	{r4, r5, r6, pc}
 80075ac:	6802      	ldr	r2, [r0, #0]
 80075ae:	f843 2025 	str.w	r2, [r3, r5, lsl #2]
 80075b2:	2300      	movs	r3, #0
 80075b4:	e9c0 3303 	strd	r3, r3, [r0, #12]
 80075b8:	e7f7      	b.n	80075aa <_Balloc+0x66>
 80075ba:	bf00      	nop
 80075bc:	08008d79 	.word	0x08008d79
 80075c0:	08008e00 	.word	0x08008e00

080075c4 <_Bfree>:
 80075c4:	b570      	push	{r4, r5, r6, lr}
 80075c6:	6a46      	ldr	r6, [r0, #36]	; 0x24
 80075c8:	4605      	mov	r5, r0
 80075ca:	460c      	mov	r4, r1
 80075cc:	b976      	cbnz	r6, 80075ec <_Bfree+0x28>
 80075ce:	2010      	movs	r0, #16
 80075d0:	f7ff ffa2 	bl	8007518 <malloc>
 80075d4:	4602      	mov	r2, r0
 80075d6:	6268      	str	r0, [r5, #36]	; 0x24
 80075d8:	b920      	cbnz	r0, 80075e4 <_Bfree+0x20>
 80075da:	4b09      	ldr	r3, [pc, #36]	; (8007600 <_Bfree+0x3c>)
 80075dc:	4809      	ldr	r0, [pc, #36]	; (8007604 <_Bfree+0x40>)
 80075de:	218a      	movs	r1, #138	; 0x8a
 80075e0:	f000 fd54 	bl	800808c <__assert_func>
 80075e4:	e9c0 6601 	strd	r6, r6, [r0, #4]
 80075e8:	6006      	str	r6, [r0, #0]
 80075ea:	60c6      	str	r6, [r0, #12]
 80075ec:	b13c      	cbz	r4, 80075fe <_Bfree+0x3a>
 80075ee:	6a6b      	ldr	r3, [r5, #36]	; 0x24
 80075f0:	6862      	ldr	r2, [r4, #4]
 80075f2:	68db      	ldr	r3, [r3, #12]
 80075f4:	f853 1022 	ldr.w	r1, [r3, r2, lsl #2]
 80075f8:	6021      	str	r1, [r4, #0]
 80075fa:	f843 4022 	str.w	r4, [r3, r2, lsl #2]
 80075fe:	bd70      	pop	{r4, r5, r6, pc}
 8007600:	08008d79 	.word	0x08008d79
 8007604:	08008e00 	.word	0x08008e00

08007608 <__multadd>:
 8007608:	e92d 41f0 	stmdb	sp!, {r4, r5, r6, r7, r8, lr}
 800760c:	690e      	ldr	r6, [r1, #16]
 800760e:	4607      	mov	r7, r0
 8007610:	4698      	mov	r8, r3
 8007612:	460c      	mov	r4, r1
 8007614:	f101 0014 	add.w	r0, r1, #20
 8007618:	2300      	movs	r3, #0
 800761a:	6805      	ldr	r5, [r0, #0]
 800761c:	b2a9      	uxth	r1, r5
 800761e:	fb02 8101 	mla	r1, r2, r1, r8
 8007622:	ea4f 4c11 	mov.w	ip, r1, lsr #16
 8007626:	0c2d      	lsrs	r5, r5, #16
 8007628:	fb02 c505 	mla	r5, r2, r5, ip
 800762c:	b289      	uxth	r1, r1
 800762e:	3301      	adds	r3, #1
 8007630:	eb01 4105 	add.w	r1, r1, r5, lsl #16
 8007634:	429e      	cmp	r6, r3
 8007636:	f840 1b04 	str.w	r1, [r0], #4
 800763a:	ea4f 4815 	mov.w	r8, r5, lsr #16
 800763e:	dcec      	bgt.n	800761a <__multadd+0x12>
 8007640:	f1b8 0f00 	cmp.w	r8, #0
 8007644:	d022      	beq.n	800768c <__multadd+0x84>
 8007646:	68a3      	ldr	r3, [r4, #8]
 8007648:	42b3      	cmp	r3, r6
 800764a:	dc19      	bgt.n	8007680 <__multadd+0x78>
 800764c:	6861      	ldr	r1, [r4, #4]
 800764e:	4638      	mov	r0, r7
 8007650:	3101      	adds	r1, #1
 8007652:	f7ff ff77 	bl	8007544 <_Balloc>
 8007656:	4605      	mov	r5, r0
 8007658:	b928      	cbnz	r0, 8007666 <__multadd+0x5e>
 800765a:	4602      	mov	r2, r0
 800765c:	4b0d      	ldr	r3, [pc, #52]	; (8007694 <__multadd+0x8c>)
 800765e:	480e      	ldr	r0, [pc, #56]	; (8007698 <__multadd+0x90>)
 8007660:	21b5      	movs	r1, #181	; 0xb5
 8007662:	f000 fd13 	bl	800808c <__assert_func>
 8007666:	6922      	ldr	r2, [r4, #16]
 8007668:	3202      	adds	r2, #2
 800766a:	f104 010c 	add.w	r1, r4, #12
 800766e:	0092      	lsls	r2, r2, #2
 8007670:	300c      	adds	r0, #12
 8007672:	f7ff ff59 	bl	8007528 <memcpy>
 8007676:	4621      	mov	r1, r4
 8007678:	4638      	mov	r0, r7
 800767a:	f7ff ffa3 	bl	80075c4 <_Bfree>
 800767e:	462c      	mov	r4, r5
 8007680:	eb04 0386 	add.w	r3, r4, r6, lsl #2
 8007684:	3601      	adds	r6, #1
 8007686:	f8c3 8014 	str.w	r8, [r3, #20]
 800768a:	6126      	str	r6, [r4, #16]
 800768c:	4620      	mov	r0, r4
 800768e:	e8bd 81f0 	ldmia.w	sp!, {r4, r5, r6, r7, r8, pc}
 8007692:	bf00      	nop
 8007694:	08008def 	.word	0x08008def
 8007698:	08008e00 	.word	0x08008e00

0800769c <__hi0bits>:
 800769c:	0c03      	lsrs	r3, r0, #16
 800769e:	041b      	lsls	r3, r3, #16
 80076a0:	b9d3      	cbnz	r3, 80076d8 <__hi0bits+0x3c>
 80076a2:	0400      	lsls	r0, r0, #16
 80076a4:	2310      	movs	r3, #16
 80076a6:	f010 4f7f 	tst.w	r0, #4278190080	; 0xff000000
 80076aa:	bf04      	itt	eq
 80076ac:	0200      	lsleq	r0, r0, #8
 80076ae:	3308      	addeq	r3, #8
 80076b0:	f010 4f70 	tst.w	r0, #4026531840	; 0xf0000000
 80076b4:	bf04      	itt	eq
 80076b6:	0100      	lsleq	r0, r0, #4
 80076b8:	3304      	addeq	r3, #4
 80076ba:	f010 4f40 	tst.w	r0, #3221225472	; 0xc0000000
 80076be:	bf04      	itt	eq
 80076c0:	0080      	lsleq	r0, r0, #2
 80076c2:	3302      	addeq	r3, #2
 80076c4:	2800      	cmp	r0, #0
 80076c6:	db05      	blt.n	80076d4 <__hi0bits+0x38>
 80076c8:	f010 4f80 	tst.w	r0, #1073741824	; 0x40000000
 80076cc:	f103 0301 	add.w	r3, r3, #1
 80076d0:	bf08      	it	eq
 80076d2:	2320      	moveq	r3, #32
 80076d4:	4618      	mov	r0, r3
 80076d6:	4770      	bx	lr
 80076d8:	2300      	movs	r3, #0
 80076da:	e7e4      	b.n	80076a6 <__hi0bits+0xa>

080076dc <__lo0bits>:
 80076dc:	6803      	ldr	r3, [r0, #0]
 80076de:	f013 0207 	ands.w	r2, r3, #7
 80076e2:	4601      	mov	r1, r0
 80076e4:	d00b      	beq.n	80076fe <__lo0bits+0x22>
 80076e6:	07da      	lsls	r2, r3, #31
 80076e8:	d424      	bmi.n	8007734 <__lo0bits+0x58>
 80076ea:	0798      	lsls	r0, r3, #30
 80076ec:	bf49      	itett	mi
 80076ee:	085b      	lsrmi	r3, r3, #1
 80076f0:	089b      	lsrpl	r3, r3, #2
 80076f2:	2001      	movmi	r0, #1
 80076f4:	600b      	strmi	r3, [r1, #0]
 80076f6:	bf5c      	itt	pl
 80076f8:	600b      	strpl	r3, [r1, #0]
 80076fa:	2002      	movpl	r0, #2
 80076fc:	4770      	bx	lr
 80076fe:	b298      	uxth	r0, r3
 8007700:	b9b0      	cbnz	r0, 8007730 <__lo0bits+0x54>
 8007702:	0c1b      	lsrs	r3, r3, #16
 8007704:	2010      	movs	r0, #16
 8007706:	f013 0fff 	tst.w	r3, #255	; 0xff
 800770a:	bf04      	itt	eq
 800770c:	0a1b      	lsreq	r3, r3, #8
 800770e:	3008      	addeq	r0, #8
 8007710:	071a      	lsls	r2, r3, #28
 8007712:	bf04      	itt	eq
 8007714:	091b      	lsreq	r3, r3, #4
 8007716:	3004      	addeq	r0, #4
 8007718:	079a      	lsls	r2, r3, #30
 800771a:	bf04      	itt	eq
 800771c:	089b      	lsreq	r3, r3, #2
 800771e:	3002      	addeq	r0, #2
 8007720:	07da      	lsls	r2, r3, #31
 8007722:	d403      	bmi.n	800772c <__lo0bits+0x50>
 8007724:	085b      	lsrs	r3, r3, #1
 8007726:	f100 0001 	add.w	r0, r0, #1
 800772a:	d005      	beq.n	8007738 <__lo0bits+0x5c>
 800772c:	600b      	str	r3, [r1, #0]
 800772e:	4770      	bx	lr
 8007730:	4610      	mov	r0, r2
 8007732:	e7e8      	b.n	8007706 <__lo0bits+0x2a>
 8007734:	2000      	movs	r0, #0
 8007736:	4770      	bx	lr
 8007738:	2020      	movs	r0, #32
 800773a:	4770      	bx	lr

0800773c <__i2b>:
 800773c:	b510      	push	{r4, lr}
 800773e:	460c      	mov	r4, r1
 8007740:	2101      	movs	r1, #1
 8007742:	f7ff feff 	bl	8007544 <_Balloc>
 8007746:	4602      	mov	r2, r0
 8007748:	b928      	cbnz	r0, 8007756 <__i2b+0x1a>
 800774a:	4b05      	ldr	r3, [pc, #20]	; (8007760 <__i2b+0x24>)
 800774c:	4805      	ldr	r0, [pc, #20]	; (8007764 <__i2b+0x28>)
 800774e:	f44f 71a0 	mov.w	r1, #320	; 0x140
 8007752:	f000 fc9b 	bl	800808c <__assert_func>
 8007756:	2301      	movs	r3, #1
 8007758:	6144      	str	r4, [r0, #20]
 800775a:	6103      	str	r3, [r0, #16]
 800775c:	bd10      	pop	{r4, pc}
 800775e:	bf00      	nop
 8007760:	08008def 	.word	0x08008def
 8007764:	08008e00 	.word	0x08008e00

08007768 <__multiply>:
 8007768:	e92d 4ff0 	stmdb	sp!, {r4, r5, r6, r7, r8, r9, sl, fp, lr}
 800776c:	4614      	mov	r4, r2
 800776e:	690a      	ldr	r2, [r1, #16]
 8007770:	6923      	ldr	r3, [r4, #16]
 8007772:	429a      	cmp	r2, r3
 8007774:	bfb8      	it	lt
 8007776:	460b      	movlt	r3, r1
 8007778:	460d      	mov	r5, r1
 800777a:	bfbc      	itt	lt
 800777c:	4625      	movlt	r5, r4
 800777e:	461c      	movlt	r4, r3
 8007780:	f8d5 a010 	ldr.w	sl, [r5, #16]
 8007784:	f8d4 9010 	ldr.w	r9, [r4, #16]
 8007788:	68ab      	ldr	r3, [r5, #8]
 800778a:	6869      	ldr	r1, [r5, #4]
 800778c:	eb0a 0709 	add.w	r7, sl, r9
 8007790:	42bb      	cmp	r3, r7
 8007792:	b085      	sub	sp, #20
 8007794:	bfb8      	it	lt
 8007796:	3101      	addlt	r1, #1
 8007798:	f7ff fed4 	bl	8007544 <_Balloc>
 800779c:	b930      	cbnz	r0, 80077ac <__multiply+0x44>
 800779e:	4602      	mov	r2, r0
 80077a0:	4b42      	ldr	r3, [pc, #264]	; (80078ac <__multiply+0x144>)
 80077a2:	4843      	ldr	r0, [pc, #268]	; (80078b0 <__multiply+0x148>)
 80077a4:	f240 115d 	movw	r1, #349	; 0x15d
 80077a8:	f000 fc70 	bl	800808c <__assert_func>
 80077ac:	f100 0614 	add.w	r6, r0, #20
 80077b0:	eb06 0887 	add.w	r8, r6, r7, lsl #2
 80077b4:	4633      	mov	r3, r6
 80077b6:	2200      	movs	r2, #0
 80077b8:	4543      	cmp	r3, r8
 80077ba:	d31e      	bcc.n	80077fa <__multiply+0x92>
 80077bc:	f105 0c14 	add.w	ip, r5, #20
 80077c0:	f104 0314 	add.w	r3, r4, #20
 80077c4:	eb0c 0c8a 	add.w	ip, ip, sl, lsl #2
 80077c8:	eb03 0289 	add.w	r2, r3, r9, lsl #2
 80077cc:	9202      	str	r2, [sp, #8]
 80077ce:	ebac 0205 	sub.w	r2, ip, r5
 80077d2:	3a15      	subs	r2, #21
 80077d4:	f022 0203 	bic.w	r2, r2, #3
 80077d8:	3204      	adds	r2, #4
 80077da:	f105 0115 	add.w	r1, r5, #21
 80077de:	458c      	cmp	ip, r1
 80077e0:	bf38      	it	cc
 80077e2:	2204      	movcc	r2, #4
 80077e4:	9201      	str	r2, [sp, #4]
 80077e6:	9a02      	ldr	r2, [sp, #8]
 80077e8:	9303      	str	r3, [sp, #12]
 80077ea:	429a      	cmp	r2, r3
 80077ec:	d808      	bhi.n	8007800 <__multiply+0x98>
 80077ee:	2f00      	cmp	r7, #0
 80077f0:	dc55      	bgt.n	800789e <__multiply+0x136>
 80077f2:	6107      	str	r7, [r0, #16]
 80077f4:	b005      	add	sp, #20
 80077f6:	e8bd 8ff0 	ldmia.w	sp!, {r4, r5, r6, r7, r8, r9, sl, fp, pc}
 80077fa:	f843 2b04 	str.w	r2, [r3], #4
 80077fe:	e7db      	b.n	80077b8 <__multiply+0x50>
 8007800:	f8b3 a000 	ldrh.w	sl, [r3]
 8007804:	f1ba 0f00 	cmp.w	sl, #0
 8007808:	d020      	beq.n	800784c <__multiply+0xe4>
 800780a:	f105 0e14 	add.w	lr, r5, #20
 800780e:	46b1      	mov	r9, r6
 8007810:	2200      	movs	r2, #0
 8007812:	f85e 4b04 	ldr.w	r4, [lr], #4
 8007816:	f8d9 b000 	ldr.w	fp, [r9]
 800781a:	b2a1      	uxth	r1, r4
 800781c:	fa1f fb8b 	uxth.w	fp, fp
 8007820:	fb0a b101 	mla	r1, sl, r1, fp
 8007824:	4411      	add	r1, r2
 8007826:	f8d9 2000 	ldr.w	r2, [r9]
 800782a:	0c24      	lsrs	r4, r4, #16
 800782c:	0c12      	lsrs	r2, r2, #16
 800782e:	fb0a 2404 	mla	r4, sl, r4, r2
 8007832:	eb04 4411 	add.w	r4, r4, r1, lsr #16
 8007836:	b289      	uxth	r1, r1
 8007838:	ea41 4104 	orr.w	r1, r1, r4, lsl #16
 800783c:	45f4      	cmp	ip, lr
 800783e:	f849 1b04 	str.w	r1, [r9], #4
 8007842:	ea4f 4214 	mov.w	r2, r4, lsr #16
 8007846:	d8e4      	bhi.n	8007812 <__multiply+0xaa>
 8007848:	9901      	ldr	r1, [sp, #4]
 800784a:	5072      	str	r2, [r6, r1]
 800784c:	9a03      	ldr	r2, [sp, #12]
 800784e:	f8b2 9002 	ldrh.w	r9, [r2, #2]
 8007852:	3304      	adds	r3, #4
 8007854:	f1b9 0f00 	cmp.w	r9, #0
 8007858:	d01f      	beq.n	800789a <__multiply+0x132>
 800785a:	6834      	ldr	r4, [r6, #0]
 800785c:	f105 0114 	add.w	r1, r5, #20
 8007860:	46b6      	mov	lr, r6
 8007862:	f04f 0a00 	mov.w	sl, #0
 8007866:	880a      	ldrh	r2, [r1, #0]
 8007868:	f8be b002 	ldrh.w	fp, [lr, #2]
 800786c:	fb09 b202 	mla	r2, r9, r2, fp
 8007870:	4492      	add	sl, r2
 8007872:	b2a4      	uxth	r4, r4
 8007874:	ea44 440a 	orr.w	r4, r4, sl, lsl #16
 8007878:	f84e 4b04 	str.w	r4, [lr], #4
 800787c:	f851 4b04 	ldr.w	r4, [r1], #4
 8007880:	f8be 2000 	ldrh.w	r2, [lr]
 8007884:	0c24      	lsrs	r4, r4, #16
 8007886:	fb09 2404 	mla	r4, r9, r4, r2
 800788a:	eb04 441a 	add.w	r4, r4, sl, lsr #16
 800788e:	458c      	cmp	ip, r1
 8007890:	ea4f 4a14 	mov.w	sl, r4, lsr #16
 8007894:	d8e7      	bhi.n	8007866 <__multiply+0xfe>
 8007896:	9a01      	ldr	r2, [sp, #4]
 8007898:	50b4      	str	r4, [r6, r2]
 800789a:	3604      	adds	r6, #4
 800789c:	e7a3      	b.n	80077e6 <__multiply+0x7e>
 800789e:	f858 3d04 	ldr.w	r3, [r8, #-4]!
 80078a2:	2b00      	cmp	r3, #0
 80078a4:	d1a5      	bne.n	80077f2 <__multiply+0x8a>
 80078a6:	3f01      	subs	r7, #1
 80078a8:	e7a1      	b.n	80077ee <__multiply+0x86>
 80078aa:	bf00      	nop
 80078ac:	08008def 	.word	0x08008def
 80078b0:	08008e00 	.word	0x08008e00

080078b4 <__pow5mult>:
 80078b4:	e92d 43f8 	stmdb	sp!, {r3, r4, r5, r6, r7, r8, r9, lr}
 80078b8:	4615      	mov	r5, r2
 80078ba:	f012 0203 	ands.w	r2, r2, #3
 80078be:	4606      	mov	r6, r0
 80078c0:	460f      	mov	r7, r1
 80078c2:	d007      	beq.n	80078d4 <__pow5mult+0x20>
 80078c4:	4c25      	ldr	r4, [pc, #148]	; (800795c <__pow5mult+0xa8>)
 80078c6:	3a01      	subs	r2, #1
 80078c8:	2300      	movs	r3, #0
 80078ca:	f854 2022 	ldr.w	r2, [r4, r2, lsl #2]
 80078ce:	f7ff fe9b 	bl	8007608 <__multadd>
 80078d2:	4607      	mov	r7, r0
 80078d4:	10ad      	asrs	r5, r5, #2
 80078d6:	d03d      	beq.n	8007954 <__pow5mult+0xa0>
 80078d8:	6a74      	ldr	r4, [r6, #36]	; 0x24
 80078da:	b97c      	cbnz	r4, 80078fc <__pow5mult+0x48>
 80078dc:	2010      	movs	r0, #16
 80078de:	f7ff fe1b 	bl	8007518 <malloc>
 80078e2:	4602      	mov	r2, r0
 80078e4:	6270      	str	r0, [r6, #36]	; 0x24
 80078e6:	b928      	cbnz	r0, 80078f4 <__pow5mult+0x40>
 80078e8:	4b1d      	ldr	r3, [pc, #116]	; (8007960 <__pow5mult+0xac>)
 80078ea:	481e      	ldr	r0, [pc, #120]	; (8007964 <__pow5mult+0xb0>)
 80078ec:	f44f 71d7 	mov.w	r1, #430	; 0x1ae
 80078f0:	f000 fbcc 	bl	800808c <__assert_func>
 80078f4:	e9c0 4401 	strd	r4, r4, [r0, #4]
 80078f8:	6004      	str	r4, [r0, #0]
 80078fa:	60c4      	str	r4, [r0, #12]
 80078fc:	f8d6 8024 	ldr.w	r8, [r6, #36]	; 0x24
 8007900:	f8d8 4008 	ldr.w	r4, [r8, #8]
 8007904:	b94c      	cbnz	r4, 800791a <__pow5mult+0x66>
 8007906:	f240 2171 	movw	r1, #625	; 0x271
 800790a:	4630      	mov	r0, r6
 800790c:	f7ff ff16 	bl	800773c <__i2b>
 8007910:	2300      	movs	r3, #0
 8007912:	f8c8 0008 	str.w	r0, [r8, #8]
 8007916:	4604      	mov	r4, r0
 8007918:	6003      	str	r3, [r0, #0]
 800791a:	f04f 0900 	mov.w	r9, #0
 800791e:	07eb      	lsls	r3, r5, #31
 8007920:	d50a      	bpl.n	8007938 <__pow5mult+0x84>
 8007922:	4639      	mov	r1, r7
 8007924:	4622      	mov	r2, r4
 8007926:	4630      	mov	r0, r6
 8007928:	f7ff ff1e 	bl	8007768 <__multiply>
 800792c:	4639      	mov	r1, r7
 800792e:	4680      	mov	r8, r0
 8007930:	4630      	mov	r0, r6
 8007932:	f7ff fe47 	bl	80075c4 <_Bfree>
 8007936:	4647      	mov	r7, r8
 8007938:	106d      	asrs	r5, r5, #1
 800793a:	d00b      	beq.n	8007954 <__pow5mult+0xa0>
 800793c:	6820      	ldr	r0, [r4, #0]
 800793e:	b938      	cbnz	r0, 8007950 <__pow5mult+0x9c>
 8007940:	4622      	mov	r2, r4
 8007942:	4621      	mov	r1, r4
 8007944:	4630      	mov	r0, r6
 8007946:	f7ff ff0f 	bl	8007768 <__multiply>
 800794a:	6020      	str	r0, [r4, #0]
 800794c:	f8c0 9000 	str.w	r9, [r0]
 8007950:	4604      	mov	r4, r0
 8007952:	e7e4      	b.n	800791e <__pow5mult+0x6a>
 8007954:	4638      	mov	r0, r7
 8007956:	e8bd 83f8 	ldmia.w	sp!, {r3, r4, r5, r6, r7, r8, r9, pc}
 800795a:	bf00      	nop
 800795c:	08008f50 	.word	0x08008f50
 8007960:	08008d79 	.word	0x08008d79
 8007964:	08008e00 	.word	0x08008e00

08007968 <__lshift>:
 8007968:	e92d 47f0 	stmdb	sp!, {r4, r5, r6, r7, r8, r9, sl, lr}
 800796c:	460c      	mov	r4, r1
 800796e:	6849      	ldr	r1, [r1, #4]
 8007970:	6923      	ldr	r3, [r4, #16]
 8007972:	eb03 1862 	add.w	r8, r3, r2, asr #5
 8007976:	68a3      	ldr	r3, [r4, #8]
 8007978:	4607      	mov	r7, r0
 800797a:	4691      	mov	r9, r2
 800797c:	ea4f 1a62 	mov.w	sl, r2, asr #5
 8007980:	f108 0601 	add.w	r6, r8, #1
 8007984:	42b3      	cmp	r3, r6
 8007986:	db0b      	blt.n	80079a0 <__lshift+0x38>
 8007988:	4638      	mov	r0, r7
 800798a:	f7ff fddb 	bl	8007544 <_Balloc>
 800798e:	4605      	mov	r5, r0
 8007990:	b948      	cbnz	r0, 80079a6 <__lshift+0x3e>
 8007992:	4602      	mov	r2, r0
 8007994:	4b28      	ldr	r3, [pc, #160]	; (8007a38 <__lshift+0xd0>)
 8007996:	4829      	ldr	r0, [pc, #164]	; (8007a3c <__lshift+0xd4>)
 8007998:	f240 11d9 	movw	r1, #473	; 0x1d9
 800799c:	f000 fb76 	bl	800808c <__assert_func>
 80079a0:	3101      	adds	r1, #1
 80079a2:	005b      	lsls	r3, r3, #1
 80079a4:	e7ee      	b.n	8007984 <__lshift+0x1c>
 80079a6:	2300      	movs	r3, #0
 80079a8:	f100 0114 	add.w	r1, r0, #20
 80079ac:	f100 0210 	add.w	r2, r0, #16
 80079b0:	4618      	mov	r0, r3
 80079b2:	4553      	cmp	r3, sl
 80079b4:	db33      	blt.n	8007a1e <__lshift+0xb6>
 80079b6:	6920      	ldr	r0, [r4, #16]
 80079b8:	ea2a 7aea 	bic.w	sl, sl, sl, asr #31
 80079bc:	f104 0314 	add.w	r3, r4, #20
 80079c0:	f019 091f 	ands.w	r9, r9, #31
 80079c4:	eb01 018a 	add.w	r1, r1, sl, lsl #2
 80079c8:	eb03 0c80 	add.w	ip, r3, r0, lsl #2
 80079cc:	d02b      	beq.n	8007a26 <__lshift+0xbe>
 80079ce:	f1c9 0e20 	rsb	lr, r9, #32
 80079d2:	468a      	mov	sl, r1
 80079d4:	2200      	movs	r2, #0
 80079d6:	6818      	ldr	r0, [r3, #0]
 80079d8:	fa00 f009 	lsl.w	r0, r0, r9
 80079dc:	4302      	orrs	r2, r0
 80079de:	f84a 2b04 	str.w	r2, [sl], #4
 80079e2:	f853 2b04 	ldr.w	r2, [r3], #4
 80079e6:	459c      	cmp	ip, r3
 80079e8:	fa22 f20e 	lsr.w	r2, r2, lr
 80079ec:	d8f3      	bhi.n	80079d6 <__lshift+0x6e>
 80079ee:	ebac 0304 	sub.w	r3, ip, r4
 80079f2:	3b15      	subs	r3, #21
 80079f4:	f023 0303 	bic.w	r3, r3, #3
 80079f8:	3304      	adds	r3, #4
 80079fa:	f104 0015 	add.w	r0, r4, #21
 80079fe:	4584      	cmp	ip, r0
 8007a00:	bf38      	it	cc
 8007a02:	2304      	movcc	r3, #4
 8007a04:	50ca      	str	r2, [r1, r3]
 8007a06:	b10a      	cbz	r2, 8007a0c <__lshift+0xa4>
 8007a08:	f108 0602 	add.w	r6, r8, #2
 8007a0c:	3e01      	subs	r6, #1
 8007a0e:	4638      	mov	r0, r7
 8007a10:	612e      	str	r6, [r5, #16]
 8007a12:	4621      	mov	r1, r4
 8007a14:	f7ff fdd6 	bl	80075c4 <_Bfree>
 8007a18:	4628      	mov	r0, r5
 8007a1a:	e8bd 87f0 	ldmia.w	sp!, {r4, r5, r6, r7, r8, r9, sl, pc}
 8007a1e:	f842 0f04 	str.w	r0, [r2, #4]!
 8007a22:	3301      	adds	r3, #1
 8007a24:	e7c5      	b.n	80079b2 <__lshift+0x4a>
 8007a26:	3904      	subs	r1, #4
 8007a28:	f853 2b04 	ldr.w	r2, [r3], #4
 8007a2c:	f841 2f04 	str.w	r2, [r1, #4]!
 8007a30:	459c      	cmp	ip, r3
 8007a32:	d8f9      	bhi.n	8007a28 <__lshift+0xc0>
 8007a34:	e7ea      	b.n	8007a0c <__lshift+0xa4>
 8007a36:	bf00      	nop
 8007a38:	08008def 	.word	0x08008def
 8007a3c:	08008e00 	.word	0x08008e00

08007a40 <__mcmp>:
 8007a40:	b530      	push	{r4, r5, lr}
 8007a42:	6902      	ldr	r2, [r0, #16]
 8007a44:	690c      	ldr	r4, [r1, #16]
 8007a46:	1b12      	subs	r2, r2, r4
 8007a48:	d10e      	bne.n	8007a68 <__mcmp+0x28>
 8007a4a:	f100 0314 	add.w	r3, r0, #20
 8007a4e:	3114      	adds	r1, #20
 8007a50:	eb03 0084 	add.w	r0, r3, r4, lsl #2
 8007a54:	eb01 0184 	add.w	r1, r1, r4, lsl #2
 8007a58:	f850 5d04 	ldr.w	r5, [r0, #-4]!
 8007a5c:	f851 4d04 	ldr.w	r4, [r1, #-4]!
 8007a60:	42a5      	cmp	r5, r4
 8007a62:	d003      	beq.n	8007a6c <__mcmp+0x2c>
 8007a64:	d305      	bcc.n	8007a72 <__mcmp+0x32>
 8007a66:	2201      	movs	r2, #1
 8007a68:	4610      	mov	r0, r2
 8007a6a:	bd30      	pop	{r4, r5, pc}
 8007a6c:	4283      	cmp	r3, r0
 8007a6e:	d3f3      	bcc.n	8007a58 <__mcmp+0x18>
 8007a70:	e7fa      	b.n	8007a68 <__mcmp+0x28>
 8007a72:	f04f 32ff 	mov.w	r2, #4294967295	; 0xffffffff
 8007a76:	e7f7      	b.n	8007a68 <__mcmp+0x28>

08007a78 <__mdiff>:
 8007a78:	e92d 4ff8 	stmdb	sp!, {r3, r4, r5, r6, r7, r8, r9, sl, fp, lr}
 8007a7c:	460c      	mov	r4, r1
 8007a7e:	4606      	mov	r6, r0
 8007a80:	4611      	mov	r1, r2
 8007a82:	4620      	mov	r0, r4
 8007a84:	4617      	mov	r7, r2
 8007a86:	f7ff ffdb 	bl	8007a40 <__mcmp>
 8007a8a:	1e05      	subs	r5, r0, #0
 8007a8c:	d110      	bne.n	8007ab0 <__mdiff+0x38>
 8007a8e:	4629      	mov	r1, r5
 8007a90:	4630      	mov	r0, r6
 8007a92:	f7ff fd57 	bl	8007544 <_Balloc>
 8007a96:	b930      	cbnz	r0, 8007aa6 <__mdiff+0x2e>
 8007a98:	4b39      	ldr	r3, [pc, #228]	; (8007b80 <__mdiff+0x108>)
 8007a9a:	4602      	mov	r2, r0
 8007a9c:	f240 2132 	movw	r1, #562	; 0x232
 8007aa0:	4838      	ldr	r0, [pc, #224]	; (8007b84 <__mdiff+0x10c>)
 8007aa2:	f000 faf3 	bl	800808c <__assert_func>
 8007aa6:	2301      	movs	r3, #1
 8007aa8:	e9c0 3504 	strd	r3, r5, [r0, #16]
 8007aac:	e8bd 8ff8 	ldmia.w	sp!, {r3, r4, r5, r6, r7, r8, r9, sl, fp, pc}
 8007ab0:	bfa4      	itt	ge
 8007ab2:	463b      	movge	r3, r7
 8007ab4:	4627      	movge	r7, r4
 8007ab6:	4630      	mov	r0, r6
 8007ab8:	6879      	ldr	r1, [r7, #4]
 8007aba:	bfa6      	itte	ge
 8007abc:	461c      	movge	r4, r3
 8007abe:	2500      	movge	r5, #0
 8007ac0:	2501      	movlt	r5, #1
 8007ac2:	f7ff fd3f 	bl	8007544 <_Balloc>
 8007ac6:	b920      	cbnz	r0, 8007ad2 <__mdiff+0x5a>
 8007ac8:	4b2d      	ldr	r3, [pc, #180]	; (8007b80 <__mdiff+0x108>)
 8007aca:	4602      	mov	r2, r0
 8007acc:	f44f 7110 	mov.w	r1, #576	; 0x240
 8007ad0:	e7e6      	b.n	8007aa0 <__mdiff+0x28>
 8007ad2:	693e      	ldr	r6, [r7, #16]
 8007ad4:	60c5      	str	r5, [r0, #12]
 8007ad6:	6925      	ldr	r5, [r4, #16]
 8007ad8:	f107 0114 	add.w	r1, r7, #20
 8007adc:	f104 0914 	add.w	r9, r4, #20
 8007ae0:	f100 0e14 	add.w	lr, r0, #20
 8007ae4:	f107 0210 	add.w	r2, r7, #16
 8007ae8:	eb01 0c86 	add.w	ip, r1, r6, lsl #2
 8007aec:	eb09 0585 	add.w	r5, r9, r5, lsl #2
 8007af0:	46f2      	mov	sl, lr
 8007af2:	2700      	movs	r7, #0
 8007af4:	f859 3b04 	ldr.w	r3, [r9], #4
 8007af8:	f852 bf04 	ldr.w	fp, [r2, #4]!
 8007afc:	fa1f f883 	uxth.w	r8, r3
 8007b00:	fa17 f78b 	uxtah	r7, r7, fp
 8007b04:	0c1b      	lsrs	r3, r3, #16
 8007b06:	eba7 0808 	sub.w	r8, r7, r8
 8007b0a:	ebc3 431b 	rsb	r3, r3, fp, lsr #16
 8007b0e:	eb03 4328 	add.w	r3, r3, r8, asr #16
 8007b12:	fa1f f888 	uxth.w	r8, r8
 8007b16:	141f      	asrs	r7, r3, #16
 8007b18:	454d      	cmp	r5, r9
 8007b1a:	ea48 4303 	orr.w	r3, r8, r3, lsl #16
 8007b1e:	f84a 3b04 	str.w	r3, [sl], #4
 8007b22:	d8e7      	bhi.n	8007af4 <__mdiff+0x7c>
 8007b24:	1b2b      	subs	r3, r5, r4
 8007b26:	3b15      	subs	r3, #21
 8007b28:	f023 0303 	bic.w	r3, r3, #3
 8007b2c:	3304      	adds	r3, #4
 8007b2e:	3415      	adds	r4, #21
 8007b30:	42a5      	cmp	r5, r4
 8007b32:	bf38      	it	cc
 8007b34:	2304      	movcc	r3, #4
 8007b36:	4419      	add	r1, r3
 8007b38:	4473      	add	r3, lr
 8007b3a:	469e      	mov	lr, r3
 8007b3c:	460d      	mov	r5, r1
 8007b3e:	4565      	cmp	r5, ip
 8007b40:	d30e      	bcc.n	8007b60 <__mdiff+0xe8>
 8007b42:	f10c 0203 	add.w	r2, ip, #3
 8007b46:	1a52      	subs	r2, r2, r1
 8007b48:	f022 0203 	bic.w	r2, r2, #3
 8007b4c:	3903      	subs	r1, #3
 8007b4e:	458c      	cmp	ip, r1
 8007b50:	bf38      	it	cc
 8007b52:	2200      	movcc	r2, #0
 8007b54:	441a      	add	r2, r3
 8007b56:	f852 3d04 	ldr.w	r3, [r2, #-4]!
 8007b5a:	b17b      	cbz	r3, 8007b7c <__mdiff+0x104>
 8007b5c:	6106      	str	r6, [r0, #16]
 8007b5e:	e7a5      	b.n	8007aac <__mdiff+0x34>
 8007b60:	f855 8b04 	ldr.w	r8, [r5], #4
 8007b64:	fa17 f488 	uxtah	r4, r7, r8
 8007b68:	1422      	asrs	r2, r4, #16
 8007b6a:	eb02 4218 	add.w	r2, r2, r8, lsr #16
 8007b6e:	b2a4      	uxth	r4, r4
 8007b70:	ea44 4402 	orr.w	r4, r4, r2, lsl #16
 8007b74:	f84e 4b04 	str.w	r4, [lr], #4
 8007b78:	1417      	asrs	r7, r2, #16
 8007b7a:	e7e0      	b.n	8007b3e <__mdiff+0xc6>
 8007b7c:	3e01      	subs	r6, #1
 8007b7e:	e7ea      	b.n	8007b56 <__mdiff+0xde>
 8007b80:	08008def 	.word	0x08008def
 8007b84:	08008e00 	.word	0x08008e00

08007b88 <__d2b>:
 8007b88:	e92d 43f7 	stmdb	sp!, {r0, r1, r2, r4, r5, r6, r7, r8, r9, lr}
 8007b8c:	4689      	mov	r9, r1
 8007b8e:	2101      	movs	r1, #1
 8007b90:	ec57 6b10 	vmov	r6, r7, d0
 8007b94:	4690      	mov	r8, r2
 8007b96:	f7ff fcd5 	bl	8007544 <_Balloc>
 8007b9a:	4604      	mov	r4, r0
 8007b9c:	b930      	cbnz	r0, 8007bac <__d2b+0x24>
 8007b9e:	4602      	mov	r2, r0
 8007ba0:	4b25      	ldr	r3, [pc, #148]	; (8007c38 <__d2b+0xb0>)
 8007ba2:	4826      	ldr	r0, [pc, #152]	; (8007c3c <__d2b+0xb4>)
 8007ba4:	f240 310a 	movw	r1, #778	; 0x30a
 8007ba8:	f000 fa70 	bl	800808c <__assert_func>
 8007bac:	f3c7 550a 	ubfx	r5, r7, #20, #11
 8007bb0:	f3c7 0313 	ubfx	r3, r7, #0, #20
 8007bb4:	bb35      	cbnz	r5, 8007c04 <__d2b+0x7c>
 8007bb6:	2e00      	cmp	r6, #0
 8007bb8:	9301      	str	r3, [sp, #4]
 8007bba:	d028      	beq.n	8007c0e <__d2b+0x86>
 8007bbc:	4668      	mov	r0, sp
 8007bbe:	9600      	str	r6, [sp, #0]
 8007bc0:	f7ff fd8c 	bl	80076dc <__lo0bits>
 8007bc4:	9900      	ldr	r1, [sp, #0]
 8007bc6:	b300      	cbz	r0, 8007c0a <__d2b+0x82>
 8007bc8:	9a01      	ldr	r2, [sp, #4]
 8007bca:	f1c0 0320 	rsb	r3, r0, #32
 8007bce:	fa02 f303 	lsl.w	r3, r2, r3
 8007bd2:	430b      	orrs	r3, r1
 8007bd4:	40c2      	lsrs	r2, r0
 8007bd6:	6163      	str	r3, [r4, #20]
 8007bd8:	9201      	str	r2, [sp, #4]
 8007bda:	9b01      	ldr	r3, [sp, #4]
 8007bdc:	61a3      	str	r3, [r4, #24]
 8007bde:	2b00      	cmp	r3, #0
 8007be0:	bf14      	ite	ne
 8007be2:	2202      	movne	r2, #2
 8007be4:	2201      	moveq	r2, #1
 8007be6:	6122      	str	r2, [r4, #16]
 8007be8:	b1d5      	cbz	r5, 8007c20 <__d2b+0x98>
 8007bea:	f2a5 4533 	subw	r5, r5, #1075	; 0x433
 8007bee:	4405      	add	r5, r0
 8007bf0:	f8c9 5000 	str.w	r5, [r9]
 8007bf4:	f1c0 0035 	rsb	r0, r0, #53	; 0x35
 8007bf8:	f8c8 0000 	str.w	r0, [r8]
 8007bfc:	4620      	mov	r0, r4
 8007bfe:	b003      	add	sp, #12
 8007c00:	e8bd 83f0 	ldmia.w	sp!, {r4, r5, r6, r7, r8, r9, pc}
 8007c04:	f443 1380 	orr.w	r3, r3, #1048576	; 0x100000
 8007c08:	e7d5      	b.n	8007bb6 <__d2b+0x2e>
 8007c0a:	6161      	str	r1, [r4, #20]
 8007c0c:	e7e5      	b.n	8007bda <__d2b+0x52>
 8007c0e:	a801      	add	r0, sp, #4
 8007c10:	f7ff fd64 	bl	80076dc <__lo0bits>
 8007c14:	9b01      	ldr	r3, [sp, #4]
 8007c16:	6163      	str	r3, [r4, #20]
 8007c18:	2201      	movs	r2, #1
 8007c1a:	6122      	str	r2, [r4, #16]
 8007c1c:	3020      	adds	r0, #32
 8007c1e:	e7e3      	b.n	8007be8 <__d2b+0x60>
 8007c20:	eb04 0382 	add.w	r3, r4, r2, lsl #2
 8007c24:	f2a0 4032 	subw	r0, r0, #1074	; 0x432
 8007c28:	f8c9 0000 	str.w	r0, [r9]
 8007c2c:	6918      	ldr	r0, [r3, #16]
 8007c2e:	f7ff fd35 	bl	800769c <__hi0bits>
 8007c32:	ebc0 1042 	rsb	r0, r0, r2, lsl #5
 8007c36:	e7df      	b.n	8007bf8 <__d2b+0x70>
 8007c38:	08008def 	.word	0x08008def
 8007c3c:	08008e00 	.word	0x08008e00

08007c40 <_calloc_r>:
 8007c40:	b513      	push	{r0, r1, r4, lr}
 8007c42:	434a      	muls	r2, r1
 8007c44:	4611      	mov	r1, r2
 8007c46:	9201      	str	r2, [sp, #4]
 8007c48:	f000 f85a 	bl	8007d00 <_malloc_r>
 8007c4c:	4604      	mov	r4, r0
 8007c4e:	b118      	cbz	r0, 8007c58 <_calloc_r+0x18>
 8007c50:	9a01      	ldr	r2, [sp, #4]
 8007c52:	2100      	movs	r1, #0
 8007c54:	f7fe f950 	bl	8005ef8 <memset>
 8007c58:	4620      	mov	r0, r4
 8007c5a:	b002      	add	sp, #8
 8007c5c:	bd10      	pop	{r4, pc}
	...

08007c60 <_free_r>:
 8007c60:	b537      	push	{r0, r1, r2, r4, r5, lr}
 8007c62:	2900      	cmp	r1, #0
 8007c64:	d048      	beq.n	8007cf8 <_free_r+0x98>
 8007c66:	f851 3c04 	ldr.w	r3, [r1, #-4]
 8007c6a:	9001      	str	r0, [sp, #4]
 8007c6c:	2b00      	cmp	r3, #0
 8007c6e:	f1a1 0404 	sub.w	r4, r1, #4
 8007c72:	bfb8      	it	lt
 8007c74:	18e4      	addlt	r4, r4, r3
 8007c76:	f000 fa65 	bl	8008144 <__malloc_lock>
 8007c7a:	4a20      	ldr	r2, [pc, #128]	; (8007cfc <_free_r+0x9c>)
 8007c7c:	9801      	ldr	r0, [sp, #4]
 8007c7e:	6813      	ldr	r3, [r2, #0]
 8007c80:	4615      	mov	r5, r2
 8007c82:	b933      	cbnz	r3, 8007c92 <_free_r+0x32>
 8007c84:	6063      	str	r3, [r4, #4]
 8007c86:	6014      	str	r4, [r2, #0]
 8007c88:	b003      	add	sp, #12
 8007c8a:	e8bd 4030 	ldmia.w	sp!, {r4, r5, lr}
 8007c8e:	f000 ba5f 	b.w	8008150 <__malloc_unlock>
 8007c92:	42a3      	cmp	r3, r4
 8007c94:	d90b      	bls.n	8007cae <_free_r+0x4e>
 8007c96:	6821      	ldr	r1, [r4, #0]
 8007c98:	1862      	adds	r2, r4, r1
 8007c9a:	4293      	cmp	r3, r2
 8007c9c:	bf04      	itt	eq
 8007c9e:	681a      	ldreq	r2, [r3, #0]
 8007ca0:	685b      	ldreq	r3, [r3, #4]
 8007ca2:	6063      	str	r3, [r4, #4]
 8007ca4:	bf04      	itt	eq
 8007ca6:	1852      	addeq	r2, r2, r1
 8007ca8:	6022      	streq	r2, [r4, #0]
 8007caa:	602c      	str	r4, [r5, #0]
 8007cac:	e7ec      	b.n	8007c88 <_free_r+0x28>
 8007cae:	461a      	mov	r2, r3
 8007cb0:	685b      	ldr	r3, [r3, #4]
 8007cb2:	b10b      	cbz	r3, 8007cb8 <_free_r+0x58>
 8007cb4:	42a3      	cmp	r3, r4
 8007cb6:	d9fa      	bls.n	8007cae <_free_r+0x4e>
 8007cb8:	6811      	ldr	r1, [r2, #0]
 8007cba:	1855      	adds	r5, r2, r1
 8007cbc:	42a5      	cmp	r5, r4
 8007cbe:	d10b      	bne.n	8007cd8 <_free_r+0x78>
 8007cc0:	6824      	ldr	r4, [r4, #0]
 8007cc2:	4421      	add	r1, r4
 8007cc4:	1854      	adds	r4, r2, r1
 8007cc6:	42a3      	cmp	r3, r4
 8007cc8:	6011      	str	r1, [r2, #0]
 8007cca:	d1dd      	bne.n	8007c88 <_free_r+0x28>
 8007ccc:	681c      	ldr	r4, [r3, #0]
 8007cce:	685b      	ldr	r3, [r3, #4]
 8007cd0:	6053      	str	r3, [r2, #4]
 8007cd2:	4421      	add	r1, r4
 8007cd4:	6011      	str	r1, [r2, #0]
 8007cd6:	e7d7      	b.n	8007c88 <_free_r+0x28>
 8007cd8:	d902      	bls.n	8007ce0 <_free_r+0x80>
 8007cda:	230c      	movs	r3, #12
 8007cdc:	6003      	str	r3, [r0, #0]
 8007cde:	e7d3      	b.n	8007c88 <_free_r+0x28>
 8007ce0:	6825      	ldr	r5, [r4, #0]
 8007ce2:	1961      	adds	r1, r4, r5
 8007ce4:	428b      	cmp	r3, r1
 8007ce6:	bf04      	itt	eq
 8007ce8:	6819      	ldreq	r1, [r3, #0]
 8007cea:	685b      	ldreq	r3, [r3, #4]
 8007cec:	6063      	str	r3, [r4, #4]
 8007cee:	bf04      	itt	eq
 8007cf0:	1949      	addeq	r1, r1, r5
 8007cf2:	6021      	streq	r1, [r4, #0]
 8007cf4:	6054      	str	r4, [r2, #4]
 8007cf6:	e7c7      	b.n	8007c88 <_free_r+0x28>
 8007cf8:	b003      	add	sp, #12
 8007cfa:	bd30      	pop	{r4, r5, pc}
 8007cfc:	200002b4 	.word	0x200002b4

08007d00 <_malloc_r>:
 8007d00:	b5f8      	push	{r3, r4, r5, r6, r7, lr}
 8007d02:	1ccd      	adds	r5, r1, #3
 8007d04:	f025 0503 	bic.w	r5, r5, #3
 8007d08:	3508      	adds	r5, #8
 8007d0a:	2d0c      	cmp	r5, #12
 8007d0c:	bf38      	it	cc
 8007d0e:	250c      	movcc	r5, #12
 8007d10:	2d00      	cmp	r5, #0
 8007d12:	4606      	mov	r6, r0
 8007d14:	db01      	blt.n	8007d1a <_malloc_r+0x1a>
 8007d16:	42a9      	cmp	r1, r5
 8007d18:	d903      	bls.n	8007d22 <_malloc_r+0x22>
 8007d1a:	230c      	movs	r3, #12
 8007d1c:	6033      	str	r3, [r6, #0]
 8007d1e:	2000      	movs	r0, #0
 8007d20:	bdf8      	pop	{r3, r4, r5, r6, r7, pc}
 8007d22:	f000 fa0f 	bl	8008144 <__malloc_lock>
 8007d26:	4921      	ldr	r1, [pc, #132]	; (8007dac <_malloc_r+0xac>)
 8007d28:	680a      	ldr	r2, [r1, #0]
 8007d2a:	4614      	mov	r4, r2
 8007d2c:	b99c      	cbnz	r4, 8007d56 <_malloc_r+0x56>
 8007d2e:	4f20      	ldr	r7, [pc, #128]	; (8007db0 <_malloc_r+0xb0>)
 8007d30:	683b      	ldr	r3, [r7, #0]
 8007d32:	b923      	cbnz	r3, 8007d3e <_malloc_r+0x3e>
 8007d34:	4621      	mov	r1, r4
 8007d36:	4630      	mov	r0, r6
 8007d38:	f000 f998 	bl	800806c <_sbrk_r>
 8007d3c:	6038      	str	r0, [r7, #0]
 8007d3e:	4629      	mov	r1, r5
 8007d40:	4630      	mov	r0, r6
 8007d42:	f000 f993 	bl	800806c <_sbrk_r>
 8007d46:	1c43      	adds	r3, r0, #1
 8007d48:	d123      	bne.n	8007d92 <_malloc_r+0x92>
 8007d4a:	230c      	movs	r3, #12
 8007d4c:	6033      	str	r3, [r6, #0]
 8007d4e:	4630      	mov	r0, r6
 8007d50:	f000 f9fe 	bl	8008150 <__malloc_unlock>
 8007d54:	e7e3      	b.n	8007d1e <_malloc_r+0x1e>
 8007d56:	6823      	ldr	r3, [r4, #0]
 8007d58:	1b5b      	subs	r3, r3, r5
 8007d5a:	d417      	bmi.n	8007d8c <_malloc_r+0x8c>
 8007d5c:	2b0b      	cmp	r3, #11
 8007d5e:	d903      	bls.n	8007d68 <_malloc_r+0x68>
 8007d60:	6023      	str	r3, [r4, #0]
 8007d62:	441c      	add	r4, r3
 8007d64:	6025      	str	r5, [r4, #0]
 8007d66:	e004      	b.n	8007d72 <_malloc_r+0x72>
 8007d68:	6863      	ldr	r3, [r4, #4]
 8007d6a:	42a2      	cmp	r2, r4
 8007d6c:	bf0c      	ite	eq
 8007d6e:	600b      	streq	r3, [r1, #0]
 8007d70:	6053      	strne	r3, [r2, #4]
 8007d72:	4630      	mov	r0, r6
 8007d74:	f000 f9ec 	bl	8008150 <__malloc_unlock>
 8007d78:	f104 000b 	add.w	r0, r4, #11
 8007d7c:	1d23      	adds	r3, r4, #4
 8007d7e:	f020 0007 	bic.w	r0, r0, #7
 8007d82:	1ac2      	subs	r2, r0, r3
 8007d84:	d0cc      	beq.n	8007d20 <_malloc_r+0x20>
 8007d86:	1a1b      	subs	r3, r3, r0
 8007d88:	50a3      	str	r3, [r4, r2]
 8007d8a:	e7c9      	b.n	8007d20 <_malloc_r+0x20>
 8007d8c:	4622      	mov	r2, r4
 8007d8e:	6864      	ldr	r4, [r4, #4]
 8007d90:	e7cc      	b.n	8007d2c <_malloc_r+0x2c>
 8007d92:	1cc4      	adds	r4, r0, #3
 8007d94:	f024 0403 	bic.w	r4, r4, #3
 8007d98:	42a0      	cmp	r0, r4
 8007d9a:	d0e3      	beq.n	8007d64 <_malloc_r+0x64>
 8007d9c:	1a21      	subs	r1, r4, r0
 8007d9e:	4630      	mov	r0, r6
 8007da0:	f000 f964 	bl	800806c <_sbrk_r>
 8007da4:	3001      	adds	r0, #1
 8007da6:	d1dd      	bne.n	8007d64 <_malloc_r+0x64>
 8007da8:	e7cf      	b.n	8007d4a <_malloc_r+0x4a>
 8007daa:	bf00      	nop
 8007dac:	200002b4 	.word	0x200002b4
 8007db0:	200002b8 	.word	0x200002b8

08007db4 <__ssputs_r>:
 8007db4:	e92d 47f0 	stmdb	sp!, {r4, r5, r6, r7, r8, r9, sl, lr}
 8007db8:	688e      	ldr	r6, [r1, #8]
 8007dba:	429e      	cmp	r6, r3
 8007dbc:	4682      	mov	sl, r0
 8007dbe:	460c      	mov	r4, r1
 8007dc0:	4690      	mov	r8, r2
 8007dc2:	461f      	mov	r7, r3
 8007dc4:	d838      	bhi.n	8007e38 <__ssputs_r+0x84>
 8007dc6:	898a      	ldrh	r2, [r1, #12]
 8007dc8:	f412 6f90 	tst.w	r2, #1152	; 0x480
 8007dcc:	d032      	beq.n	8007e34 <__ssputs_r+0x80>
 8007dce:	6825      	ldr	r5, [r4, #0]
 8007dd0:	6909      	ldr	r1, [r1, #16]
 8007dd2:	eba5 0901 	sub.w	r9, r5, r1
 8007dd6:	6965      	ldr	r5, [r4, #20]
 8007dd8:	eb05 0545 	add.w	r5, r5, r5, lsl #1
 8007ddc:	eb05 75d5 	add.w	r5, r5, r5, lsr #31
 8007de0:	3301      	adds	r3, #1
 8007de2:	444b      	add	r3, r9
 8007de4:	106d      	asrs	r5, r5, #1
 8007de6:	429d      	cmp	r5, r3
 8007de8:	bf38      	it	cc
 8007dea:	461d      	movcc	r5, r3
 8007dec:	0553      	lsls	r3, r2, #21
 8007dee:	d531      	bpl.n	8007e54 <__ssputs_r+0xa0>
 8007df0:	4629      	mov	r1, r5
 8007df2:	f7ff ff85 	bl	8007d00 <_malloc_r>
 8007df6:	4606      	mov	r6, r0
 8007df8:	b950      	cbnz	r0, 8007e10 <__ssputs_r+0x5c>
 8007dfa:	230c      	movs	r3, #12
 8007dfc:	f8ca 3000 	str.w	r3, [sl]
 8007e00:	89a3      	ldrh	r3, [r4, #12]
 8007e02:	f043 0340 	orr.w	r3, r3, #64	; 0x40
 8007e06:	81a3      	strh	r3, [r4, #12]
 8007e08:	f04f 30ff 	mov.w	r0, #4294967295	; 0xffffffff
 8007e0c:	e8bd 87f0 	ldmia.w	sp!, {r4, r5, r6, r7, r8, r9, sl, pc}
 8007e10:	6921      	ldr	r1, [r4, #16]
 8007e12:	464a      	mov	r2, r9
 8007e14:	f7ff fb88 	bl	8007528 <memcpy>
 8007e18:	89a3      	ldrh	r3, [r4, #12]
 8007e1a:	f423 6390 	bic.w	r3, r3, #1152	; 0x480
 8007e1e:	f043 0380 	orr.w	r3, r3, #128	; 0x80
 8007e22:	81a3      	strh	r3, [r4, #12]
 8007e24:	6126      	str	r6, [r4, #16]
 8007e26:	6165      	str	r5, [r4, #20]
 8007e28:	444e      	add	r6, r9
 8007e2a:	eba5 0509 	sub.w	r5, r5, r9
 8007e2e:	6026      	str	r6, [r4, #0]
 8007e30:	60a5      	str	r5, [r4, #8]
 8007e32:	463e      	mov	r6, r7
 8007e34:	42be      	cmp	r6, r7
 8007e36:	d900      	bls.n	8007e3a <__ssputs_r+0x86>
 8007e38:	463e      	mov	r6, r7
 8007e3a:	4632      	mov	r2, r6
 8007e3c:	6820      	ldr	r0, [r4, #0]
 8007e3e:	4641      	mov	r1, r8
 8007e40:	f000 f966 	bl	8008110 <memmove>
 8007e44:	68a3      	ldr	r3, [r4, #8]
 8007e46:	6822      	ldr	r2, [r4, #0]
 8007e48:	1b9b      	subs	r3, r3, r6
 8007e4a:	4432      	add	r2, r6
 8007e4c:	60a3      	str	r3, [r4, #8]
 8007e4e:	6022      	str	r2, [r4, #0]
 8007e50:	2000      	movs	r0, #0
 8007e52:	e7db      	b.n	8007e0c <__ssputs_r+0x58>
 8007e54:	462a      	mov	r2, r5
 8007e56:	f000 f981 	bl	800815c <_realloc_r>
 8007e5a:	4606      	mov	r6, r0
 8007e5c:	2800      	cmp	r0, #0
 8007e5e:	d1e1      	bne.n	8007e24 <__ssputs_r+0x70>
 8007e60:	6921      	ldr	r1, [r4, #16]
 8007e62:	4650      	mov	r0, sl
 8007e64:	f7ff fefc 	bl	8007c60 <_free_r>
 8007e68:	e7c7      	b.n	8007dfa <__ssputs_r+0x46>
	...

08007e6c <_svfiprintf_r>:
 8007e6c:	e92d 4ff0 	stmdb	sp!, {r4, r5, r6, r7, r8, r9, sl, fp, lr}
 8007e70:	4698      	mov	r8, r3
 8007e72:	898b      	ldrh	r3, [r1, #12]
 8007e74:	061b      	lsls	r3, r3, #24
 8007e76:	b09d      	sub	sp, #116	; 0x74
 8007e78:	4607      	mov	r7, r0
 8007e7a:	460d      	mov	r5, r1
 8007e7c:	4614      	mov	r4, r2
 8007e7e:	d50e      	bpl.n	8007e9e <_svfiprintf_r+0x32>
 8007e80:	690b      	ldr	r3, [r1, #16]
 8007e82:	b963      	cbnz	r3, 8007e9e <_svfiprintf_r+0x32>
 8007e84:	2140      	movs	r1, #64	; 0x40
 8007e86:	f7ff ff3b 	bl	8007d00 <_malloc_r>
 8007e8a:	6028      	str	r0, [r5, #0]
 8007e8c:	6128      	str	r0, [r5, #16]
 8007e8e:	b920      	cbnz	r0, 8007e9a <_svfiprintf_r+0x2e>
 8007e90:	230c      	movs	r3, #12
 8007e92:	603b      	str	r3, [r7, #0]
 8007e94:	f04f 30ff 	mov.w	r0, #4294967295	; 0xffffffff
 8007e98:	e0d1      	b.n	800803e <_svfiprintf_r+0x1d2>
 8007e9a:	2340      	movs	r3, #64	; 0x40
 8007e9c:	616b      	str	r3, [r5, #20]
 8007e9e:	2300      	movs	r3, #0
 8007ea0:	9309      	str	r3, [sp, #36]	; 0x24
 8007ea2:	2320      	movs	r3, #32
 8007ea4:	f88d 3029 	strb.w	r3, [sp, #41]	; 0x29
 8007ea8:	f8cd 800c 	str.w	r8, [sp, #12]
 8007eac:	2330      	movs	r3, #48	; 0x30
 8007eae:	f8df 81a8 	ldr.w	r8, [pc, #424]	; 8008058 <_svfiprintf_r+0x1ec>
 8007eb2:	f88d 302a 	strb.w	r3, [sp, #42]	; 0x2a
 8007eb6:	f04f 0901 	mov.w	r9, #1
 8007eba:	4623      	mov	r3, r4
 8007ebc:	469a      	mov	sl, r3
 8007ebe:	f813 2b01 	ldrb.w	r2, [r3], #1
 8007ec2:	b10a      	cbz	r2, 8007ec8 <_svfiprintf_r+0x5c>
 8007ec4:	2a25      	cmp	r2, #37	; 0x25
 8007ec6:	d1f9      	bne.n	8007ebc <_svfiprintf_r+0x50>
 8007ec8:	ebba 0b04 	subs.w	fp, sl, r4
 8007ecc:	d00b      	beq.n	8007ee6 <_svfiprintf_r+0x7a>
 8007ece:	465b      	mov	r3, fp
 8007ed0:	4622      	mov	r2, r4
 8007ed2:	4629      	mov	r1, r5
 8007ed4:	4638      	mov	r0, r7
 8007ed6:	f7ff ff6d 	bl	8007db4 <__ssputs_r>
 8007eda:	3001      	adds	r0, #1
 8007edc:	f000 80aa 	beq.w	8008034 <_svfiprintf_r+0x1c8>
 8007ee0:	9a09      	ldr	r2, [sp, #36]	; 0x24
 8007ee2:	445a      	add	r2, fp
 8007ee4:	9209      	str	r2, [sp, #36]	; 0x24
 8007ee6:	f89a 3000 	ldrb.w	r3, [sl]
 8007eea:	2b00      	cmp	r3, #0
 8007eec:	f000 80a2 	beq.w	8008034 <_svfiprintf_r+0x1c8>
 8007ef0:	2300      	movs	r3, #0
 8007ef2:	f04f 32ff 	mov.w	r2, #4294967295	; 0xffffffff
 8007ef6:	e9cd 2305 	strd	r2, r3, [sp, #20]
 8007efa:	f10a 0a01 	add.w	sl, sl, #1
 8007efe:	9304      	str	r3, [sp, #16]
 8007f00:	9307      	str	r3, [sp, #28]
 8007f02:	f88d 3053 	strb.w	r3, [sp, #83]	; 0x53
 8007f06:	931a      	str	r3, [sp, #104]	; 0x68
 8007f08:	4654      	mov	r4, sl
 8007f0a:	2205      	movs	r2, #5
 8007f0c:	f814 1b01 	ldrb.w	r1, [r4], #1
 8007f10:	4851      	ldr	r0, [pc, #324]	; (8008058 <_svfiprintf_r+0x1ec>)
 8007f12:	f7f8 f985 	bl	8000220 <memchr>
 8007f16:	9a04      	ldr	r2, [sp, #16]
 8007f18:	b9d8      	cbnz	r0, 8007f52 <_svfiprintf_r+0xe6>
 8007f1a:	06d0      	lsls	r0, r2, #27
 8007f1c:	bf44      	itt	mi
 8007f1e:	2320      	movmi	r3, #32
 8007f20:	f88d 3053 	strbmi.w	r3, [sp, #83]	; 0x53
 8007f24:	0711      	lsls	r1, r2, #28
 8007f26:	bf44      	itt	mi
 8007f28:	232b      	movmi	r3, #43	; 0x2b
 8007f2a:	f88d 3053 	strbmi.w	r3, [sp, #83]	; 0x53
 8007f2e:	f89a 3000 	ldrb.w	r3, [sl]
 8007f32:	2b2a      	cmp	r3, #42	; 0x2a
 8007f34:	d015      	beq.n	8007f62 <_svfiprintf_r+0xf6>
 8007f36:	9a07      	ldr	r2, [sp, #28]
 8007f38:	4654      	mov	r4, sl
 8007f3a:	2000      	movs	r0, #0
 8007f3c:	f04f 0c0a 	mov.w	ip, #10
 8007f40:	4621      	mov	r1, r4
 8007f42:	f811 3b01 	ldrb.w	r3, [r1], #1
 8007f46:	3b30      	subs	r3, #48	; 0x30
 8007f48:	2b09      	cmp	r3, #9
 8007f4a:	d94e      	bls.n	8007fea <_svfiprintf_r+0x17e>
 8007f4c:	b1b0      	cbz	r0, 8007f7c <_svfiprintf_r+0x110>
 8007f4e:	9207      	str	r2, [sp, #28]
 8007f50:	e014      	b.n	8007f7c <_svfiprintf_r+0x110>
 8007f52:	eba0 0308 	sub.w	r3, r0, r8
 8007f56:	fa09 f303 	lsl.w	r3, r9, r3
 8007f5a:	4313      	orrs	r3, r2
 8007f5c:	9304      	str	r3, [sp, #16]
 8007f5e:	46a2      	mov	sl, r4
 8007f60:	e7d2      	b.n	8007f08 <_svfiprintf_r+0x9c>
 8007f62:	9b03      	ldr	r3, [sp, #12]
 8007f64:	1d19      	adds	r1, r3, #4
 8007f66:	681b      	ldr	r3, [r3, #0]
 8007f68:	9103      	str	r1, [sp, #12]
 8007f6a:	2b00      	cmp	r3, #0
 8007f6c:	bfbb      	ittet	lt
 8007f6e:	425b      	neglt	r3, r3
 8007f70:	f042 0202 	orrlt.w	r2, r2, #2
 8007f74:	9307      	strge	r3, [sp, #28]
 8007f76:	9307      	strlt	r3, [sp, #28]
 8007f78:	bfb8      	it	lt
 8007f7a:	9204      	strlt	r2, [sp, #16]
 8007f7c:	7823      	ldrb	r3, [r4, #0]
 8007f7e:	2b2e      	cmp	r3, #46	; 0x2e
 8007f80:	d10c      	bne.n	8007f9c <_svfiprintf_r+0x130>
 8007f82:	7863      	ldrb	r3, [r4, #1]
 8007f84:	2b2a      	cmp	r3, #42	; 0x2a
 8007f86:	d135      	bne.n	8007ff4 <_svfiprintf_r+0x188>
 8007f88:	9b03      	ldr	r3, [sp, #12]
 8007f8a:	1d1a      	adds	r2, r3, #4
 8007f8c:	681b      	ldr	r3, [r3, #0]
 8007f8e:	9203      	str	r2, [sp, #12]
 8007f90:	2b00      	cmp	r3, #0
 8007f92:	bfb8      	it	lt
 8007f94:	f04f 33ff 	movlt.w	r3, #4294967295	; 0xffffffff
 8007f98:	3402      	adds	r4, #2
 8007f9a:	9305      	str	r3, [sp, #20]
 8007f9c:	f8df a0c8 	ldr.w	sl, [pc, #200]	; 8008068 <_svfiprintf_r+0x1fc>
 8007fa0:	7821      	ldrb	r1, [r4, #0]
 8007fa2:	2203      	movs	r2, #3
 8007fa4:	4650      	mov	r0, sl
 8007fa6:	f7f8 f93b 	bl	8000220 <memchr>
 8007faa:	b140      	cbz	r0, 8007fbe <_svfiprintf_r+0x152>
 8007fac:	2340      	movs	r3, #64	; 0x40
 8007fae:	eba0 000a 	sub.w	r0, r0, sl
 8007fb2:	fa03 f000 	lsl.w	r0, r3, r0
 8007fb6:	9b04      	ldr	r3, [sp, #16]
 8007fb8:	4303      	orrs	r3, r0
 8007fba:	3401      	adds	r4, #1
 8007fbc:	9304      	str	r3, [sp, #16]
 8007fbe:	f814 1b01 	ldrb.w	r1, [r4], #1
 8007fc2:	4826      	ldr	r0, [pc, #152]	; (800805c <_svfiprintf_r+0x1f0>)
 8007fc4:	f88d 1028 	strb.w	r1, [sp, #40]	; 0x28
 8007fc8:	2206      	movs	r2, #6
 8007fca:	f7f8 f929 	bl	8000220 <memchr>
 8007fce:	2800      	cmp	r0, #0
 8007fd0:	d038      	beq.n	8008044 <_svfiprintf_r+0x1d8>
 8007fd2:	4b23      	ldr	r3, [pc, #140]	; (8008060 <_svfiprintf_r+0x1f4>)
 8007fd4:	bb1b      	cbnz	r3, 800801e <_svfiprintf_r+0x1b2>
 8007fd6:	9b03      	ldr	r3, [sp, #12]
 8007fd8:	3307      	adds	r3, #7
 8007fda:	f023 0307 	bic.w	r3, r3, #7
 8007fde:	3308      	adds	r3, #8
 8007fe0:	9303      	str	r3, [sp, #12]
 8007fe2:	9b09      	ldr	r3, [sp, #36]	; 0x24
 8007fe4:	4433      	add	r3, r6
 8007fe6:	9309      	str	r3, [sp, #36]	; 0x24
 8007fe8:	e767      	b.n	8007eba <_svfiprintf_r+0x4e>
 8007fea:	fb0c 3202 	mla	r2, ip, r2, r3
 8007fee:	460c      	mov	r4, r1
 8007ff0:	2001      	movs	r0, #1
 8007ff2:	e7a5      	b.n	8007f40 <_svfiprintf_r+0xd4>
 8007ff4:	2300      	movs	r3, #0
 8007ff6:	3401      	adds	r4, #1
 8007ff8:	9305      	str	r3, [sp, #20]
 8007ffa:	4619      	mov	r1, r3
 8007ffc:	f04f 0c0a 	mov.w	ip, #10
 8008000:	4620      	mov	r0, r4
 8008002:	f810 2b01 	ldrb.w	r2, [r0], #1
 8008006:	3a30      	subs	r2, #48	; 0x30
 8008008:	2a09      	cmp	r2, #9
 800800a:	d903      	bls.n	8008014 <_svfiprintf_r+0x1a8>
 800800c:	2b00      	cmp	r3, #0
 800800e:	d0c5      	beq.n	8007f9c <_svfiprintf_r+0x130>
 8008010:	9105      	str	r1, [sp, #20]
 8008012:	e7c3      	b.n	8007f9c <_svfiprintf_r+0x130>
 8008014:	fb0c 2101 	mla	r1, ip, r1, r2
 8008018:	4604      	mov	r4, r0
 800801a:	2301      	movs	r3, #1
 800801c:	e7f0      	b.n	8008000 <_svfiprintf_r+0x194>
 800801e:	ab03      	add	r3, sp, #12
 8008020:	9300      	str	r3, [sp, #0]
 8008022:	462a      	mov	r2, r5
 8008024:	4b0f      	ldr	r3, [pc, #60]	; (8008064 <_svfiprintf_r+0x1f8>)
 8008026:	a904      	add	r1, sp, #16
 8008028:	4638      	mov	r0, r7
 800802a:	f7fe f80d 	bl	8006048 <_printf_float>
 800802e:	1c42      	adds	r2, r0, #1
 8008030:	4606      	mov	r6, r0
 8008032:	d1d6      	bne.n	8007fe2 <_svfiprintf_r+0x176>
 8008034:	89ab      	ldrh	r3, [r5, #12]
 8008036:	065b      	lsls	r3, r3, #25
 8008038:	f53f af2c 	bmi.w	8007e94 <_svfiprintf_r+0x28>
 800803c:	9809      	ldr	r0, [sp, #36]	; 0x24
 800803e:	b01d      	add	sp, #116	; 0x74
 8008040:	e8bd 8ff0 	ldmia.w	sp!, {r4, r5, r6, r7, r8, r9, sl, fp, pc}
 8008044:	ab03      	add	r3, sp, #12
 8008046:	9300      	str	r3, [sp, #0]
 8008048:	462a      	mov	r2, r5
 800804a:	4b06      	ldr	r3, [pc, #24]	; (8008064 <_svfiprintf_r+0x1f8>)
 800804c:	a904      	add	r1, sp, #16
 800804e:	4638      	mov	r0, r7
 8008050:	f7fe fa9e 	bl	8006590 <_printf_i>
 8008054:	e7eb      	b.n	800802e <_svfiprintf_r+0x1c2>
 8008056:	bf00      	nop
 8008058:	08008f5c 	.word	0x08008f5c
 800805c:	08008f66 	.word	0x08008f66
 8008060:	08006049 	.word	0x08006049
 8008064:	08007db5 	.word	0x08007db5
 8008068:	08008f62 	.word	0x08008f62

0800806c <_sbrk_r>:
 800806c:	b538      	push	{r3, r4, r5, lr}
 800806e:	4d06      	ldr	r5, [pc, #24]	; (8008088 <_sbrk_r+0x1c>)
 8008070:	2300      	movs	r3, #0
 8008072:	4604      	mov	r4, r0
 8008074:	4608      	mov	r0, r1
 8008076:	602b      	str	r3, [r5, #0]
 8008078:	f7fa f9ac 	bl	80023d4 <_sbrk>
 800807c:	1c43      	adds	r3, r0, #1
 800807e:	d102      	bne.n	8008086 <_sbrk_r+0x1a>
 8008080:	682b      	ldr	r3, [r5, #0]
 8008082:	b103      	cbz	r3, 8008086 <_sbrk_r+0x1a>
 8008084:	6023      	str	r3, [r4, #0]
 8008086:	bd38      	pop	{r3, r4, r5, pc}
 8008088:	20000548 	.word	0x20000548

0800808c <__assert_func>:
 800808c:	b51f      	push	{r0, r1, r2, r3, r4, lr}
 800808e:	4614      	mov	r4, r2
 8008090:	461a      	mov	r2, r3
 8008092:	4b09      	ldr	r3, [pc, #36]	; (80080b8 <__assert_func+0x2c>)
 8008094:	681b      	ldr	r3, [r3, #0]
 8008096:	4605      	mov	r5, r0
 8008098:	68d8      	ldr	r0, [r3, #12]
 800809a:	b14c      	cbz	r4, 80080b0 <__assert_func+0x24>
 800809c:	4b07      	ldr	r3, [pc, #28]	; (80080bc <__assert_func+0x30>)
 800809e:	9100      	str	r1, [sp, #0]
 80080a0:	e9cd 3401 	strd	r3, r4, [sp, #4]
 80080a4:	4906      	ldr	r1, [pc, #24]	; (80080c0 <__assert_func+0x34>)
 80080a6:	462b      	mov	r3, r5
 80080a8:	f000 f80e 	bl	80080c8 <fiprintf>
 80080ac:	f000 faa4 	bl	80085f8 <abort>
 80080b0:	4b04      	ldr	r3, [pc, #16]	; (80080c4 <__assert_func+0x38>)
 80080b2:	461c      	mov	r4, r3
 80080b4:	e7f3      	b.n	800809e <__assert_func+0x12>
 80080b6:	bf00      	nop
 80080b8:	20000024 	.word	0x20000024
 80080bc:	08008f6d 	.word	0x08008f6d
 80080c0:	08008f7a 	.word	0x08008f7a
 80080c4:	08008fa8 	.word	0x08008fa8

080080c8 <fiprintf>:
 80080c8:	b40e      	push	{r1, r2, r3}
 80080ca:	b503      	push	{r0, r1, lr}
 80080cc:	4601      	mov	r1, r0
 80080ce:	ab03      	add	r3, sp, #12
 80080d0:	4805      	ldr	r0, [pc, #20]	; (80080e8 <fiprintf+0x20>)
 80080d2:	f853 2b04 	ldr.w	r2, [r3], #4
 80080d6:	6800      	ldr	r0, [r0, #0]
 80080d8:	9301      	str	r3, [sp, #4]
 80080da:	f000 f88f 	bl	80081fc <_vfiprintf_r>
 80080de:	b002      	add	sp, #8
 80080e0:	f85d eb04 	ldr.w	lr, [sp], #4
 80080e4:	b003      	add	sp, #12
 80080e6:	4770      	bx	lr
 80080e8:	20000024 	.word	0x20000024

080080ec <__ascii_mbtowc>:
 80080ec:	b082      	sub	sp, #8
 80080ee:	b901      	cbnz	r1, 80080f2 <__ascii_mbtowc+0x6>
 80080f0:	a901      	add	r1, sp, #4
 80080f2:	b142      	cbz	r2, 8008106 <__ascii_mbtowc+0x1a>
 80080f4:	b14b      	cbz	r3, 800810a <__ascii_mbtowc+0x1e>
 80080f6:	7813      	ldrb	r3, [r2, #0]
 80080f8:	600b      	str	r3, [r1, #0]
 80080fa:	7812      	ldrb	r2, [r2, #0]
 80080fc:	1e10      	subs	r0, r2, #0
 80080fe:	bf18      	it	ne
 8008100:	2001      	movne	r0, #1
 8008102:	b002      	add	sp, #8
 8008104:	4770      	bx	lr
 8008106:	4610      	mov	r0, r2
 8008108:	e7fb      	b.n	8008102 <__ascii_mbtowc+0x16>
 800810a:	f06f 0001 	mvn.w	r0, #1
 800810e:	e7f8      	b.n	8008102 <__ascii_mbtowc+0x16>

08008110 <memmove>:
 8008110:	4288      	cmp	r0, r1
 8008112:	b510      	push	{r4, lr}
 8008114:	eb01 0402 	add.w	r4, r1, r2
 8008118:	d902      	bls.n	8008120 <memmove+0x10>
 800811a:	4284      	cmp	r4, r0
 800811c:	4623      	mov	r3, r4
 800811e:	d807      	bhi.n	8008130 <memmove+0x20>
 8008120:	1e43      	subs	r3, r0, #1
 8008122:	42a1      	cmp	r1, r4
 8008124:	d008      	beq.n	8008138 <memmove+0x28>
 8008126:	f811 2b01 	ldrb.w	r2, [r1], #1
 800812a:	f803 2f01 	strb.w	r2, [r3, #1]!
 800812e:	e7f8      	b.n	8008122 <memmove+0x12>
 8008130:	4402      	add	r2, r0
 8008132:	4601      	mov	r1, r0
 8008134:	428a      	cmp	r2, r1
 8008136:	d100      	bne.n	800813a <memmove+0x2a>
 8008138:	bd10      	pop	{r4, pc}
 800813a:	f813 4d01 	ldrb.w	r4, [r3, #-1]!
 800813e:	f802 4d01 	strb.w	r4, [r2, #-1]!
 8008142:	e7f7      	b.n	8008134 <memmove+0x24>

08008144 <__malloc_lock>:
 8008144:	4801      	ldr	r0, [pc, #4]	; (800814c <__malloc_lock+0x8>)
 8008146:	f000 bc17 	b.w	8008978 <__retarget_lock_acquire_recursive>
 800814a:	bf00      	nop
 800814c:	20000550 	.word	0x20000550

08008150 <__malloc_unlock>:
 8008150:	4801      	ldr	r0, [pc, #4]	; (8008158 <__malloc_unlock+0x8>)
 8008152:	f000 bc12 	b.w	800897a <__retarget_lock_release_recursive>
 8008156:	bf00      	nop
 8008158:	20000550 	.word	0x20000550

0800815c <_realloc_r>:
 800815c:	b5f8      	push	{r3, r4, r5, r6, r7, lr}
 800815e:	4607      	mov	r7, r0
 8008160:	4614      	mov	r4, r2
 8008162:	460e      	mov	r6, r1
 8008164:	b921      	cbnz	r1, 8008170 <_realloc_r+0x14>
 8008166:	e8bd 40f8 	ldmia.w	sp!, {r3, r4, r5, r6, r7, lr}
 800816a:	4611      	mov	r1, r2
 800816c:	f7ff bdc8 	b.w	8007d00 <_malloc_r>
 8008170:	b922      	cbnz	r2, 800817c <_realloc_r+0x20>
 8008172:	f7ff fd75 	bl	8007c60 <_free_r>
 8008176:	4625      	mov	r5, r4
 8008178:	4628      	mov	r0, r5
 800817a:	bdf8      	pop	{r3, r4, r5, r6, r7, pc}
 800817c:	f000 fc62 	bl	8008a44 <_malloc_usable_size_r>
 8008180:	42a0      	cmp	r0, r4
 8008182:	d20f      	bcs.n	80081a4 <_realloc_r+0x48>
 8008184:	4621      	mov	r1, r4
 8008186:	4638      	mov	r0, r7
 8008188:	f7ff fdba 	bl	8007d00 <_malloc_r>
 800818c:	4605      	mov	r5, r0
 800818e:	2800      	cmp	r0, #0
 8008190:	d0f2      	beq.n	8008178 <_realloc_r+0x1c>
 8008192:	4631      	mov	r1, r6
 8008194:	4622      	mov	r2, r4
 8008196:	f7ff f9c7 	bl	8007528 <memcpy>
 800819a:	4631      	mov	r1, r6
 800819c:	4638      	mov	r0, r7
 800819e:	f7ff fd5f 	bl	8007c60 <_free_r>
 80081a2:	e7e9      	b.n	8008178 <_realloc_r+0x1c>
 80081a4:	4635      	mov	r5, r6
 80081a6:	e7e7      	b.n	8008178 <_realloc_r+0x1c>

080081a8 <__sfputc_r>:
 80081a8:	6893      	ldr	r3, [r2, #8]
 80081aa:	3b01      	subs	r3, #1
 80081ac:	2b00      	cmp	r3, #0
 80081ae:	b410      	push	{r4}
 80081b0:	6093      	str	r3, [r2, #8]
 80081b2:	da08      	bge.n	80081c6 <__sfputc_r+0x1e>
 80081b4:	6994      	ldr	r4, [r2, #24]
 80081b6:	42a3      	cmp	r3, r4
 80081b8:	db01      	blt.n	80081be <__sfputc_r+0x16>
 80081ba:	290a      	cmp	r1, #10
 80081bc:	d103      	bne.n	80081c6 <__sfputc_r+0x1e>
 80081be:	f85d 4b04 	ldr.w	r4, [sp], #4
 80081c2:	f000 b94b 	b.w	800845c <__swbuf_r>
 80081c6:	6813      	ldr	r3, [r2, #0]
 80081c8:	1c58      	adds	r0, r3, #1
 80081ca:	6010      	str	r0, [r2, #0]
 80081cc:	7019      	strb	r1, [r3, #0]
 80081ce:	4608      	mov	r0, r1
 80081d0:	f85d 4b04 	ldr.w	r4, [sp], #4
 80081d4:	4770      	bx	lr

080081d6 <__sfputs_r>:
 80081d6:	b5f8      	push	{r3, r4, r5, r6, r7, lr}
 80081d8:	4606      	mov	r6, r0
 80081da:	460f      	mov	r7, r1
 80081dc:	4614      	mov	r4, r2
 80081de:	18d5      	adds	r5, r2, r3
 80081e0:	42ac      	cmp	r4, r5
 80081e2:	d101      	bne.n	80081e8 <__sfputs_r+0x12>
 80081e4:	2000      	movs	r0, #0
 80081e6:	e007      	b.n	80081f8 <__sfputs_r+0x22>
 80081e8:	f814 1b01 	ldrb.w	r1, [r4], #1
 80081ec:	463a      	mov	r2, r7
 80081ee:	4630      	mov	r0, r6
 80081f0:	f7ff ffda 	bl	80081a8 <__sfputc_r>
 80081f4:	1c43      	adds	r3, r0, #1
 80081f6:	d1f3      	bne.n	80081e0 <__sfputs_r+0xa>
 80081f8:	bdf8      	pop	{r3, r4, r5, r6, r7, pc}
	...

080081fc <_vfiprintf_r>:
 80081fc:	e92d 4ff0 	stmdb	sp!, {r4, r5, r6, r7, r8, r9, sl, fp, lr}
 8008200:	460d      	mov	r5, r1
 8008202:	b09d      	sub	sp, #116	; 0x74
 8008204:	4614      	mov	r4, r2
 8008206:	4698      	mov	r8, r3
 8008208:	4606      	mov	r6, r0
 800820a:	b118      	cbz	r0, 8008214 <_vfiprintf_r+0x18>
 800820c:	6983      	ldr	r3, [r0, #24]
 800820e:	b90b      	cbnz	r3, 8008214 <_vfiprintf_r+0x18>
 8008210:	f000 fb14 	bl	800883c <__sinit>
 8008214:	4b89      	ldr	r3, [pc, #548]	; (800843c <_vfiprintf_r+0x240>)
 8008216:	429d      	cmp	r5, r3
 8008218:	d11b      	bne.n	8008252 <_vfiprintf_r+0x56>
 800821a:	6875      	ldr	r5, [r6, #4]
 800821c:	6e6b      	ldr	r3, [r5, #100]	; 0x64
 800821e:	07d9      	lsls	r1, r3, #31
 8008220:	d405      	bmi.n	800822e <_vfiprintf_r+0x32>
 8008222:	89ab      	ldrh	r3, [r5, #12]
 8008224:	059a      	lsls	r2, r3, #22
 8008226:	d402      	bmi.n	800822e <_vfiprintf_r+0x32>
 8008228:	6da8      	ldr	r0, [r5, #88]	; 0x58
 800822a:	f000 fba5 	bl	8008978 <__retarget_lock_acquire_recursive>
 800822e:	89ab      	ldrh	r3, [r5, #12]
 8008230:	071b      	lsls	r3, r3, #28
 8008232:	d501      	bpl.n	8008238 <_vfiprintf_r+0x3c>
 8008234:	692b      	ldr	r3, [r5, #16]
 8008236:	b9eb      	cbnz	r3, 8008274 <_vfiprintf_r+0x78>
 8008238:	4629      	mov	r1, r5
 800823a:	4630      	mov	r0, r6
 800823c:	f000 f96e 	bl	800851c <__swsetup_r>
 8008240:	b1c0      	cbz	r0, 8008274 <_vfiprintf_r+0x78>
 8008242:	6e6b      	ldr	r3, [r5, #100]	; 0x64
 8008244:	07dc      	lsls	r4, r3, #31
 8008246:	d50e      	bpl.n	8008266 <_vfiprintf_r+0x6a>
 8008248:	f04f 30ff 	mov.w	r0, #4294967295	; 0xffffffff
 800824c:	b01d      	add	sp, #116	; 0x74
 800824e:	e8bd 8ff0 	ldmia.w	sp!, {r4, r5, r6, r7, r8, r9, sl, fp, pc}
 8008252:	4b7b      	ldr	r3, [pc, #492]	; (8008440 <_vfiprintf_r+0x244>)
 8008254:	429d      	cmp	r5, r3
 8008256:	d101      	bne.n	800825c <_vfiprintf_r+0x60>
 8008258:	68b5      	ldr	r5, [r6, #8]
 800825a:	e7df      	b.n	800821c <_vfiprintf_r+0x20>
 800825c:	4b79      	ldr	r3, [pc, #484]	; (8008444 <_vfiprintf_r+0x248>)
 800825e:	429d      	cmp	r5, r3
 8008260:	bf08      	it	eq
 8008262:	68f5      	ldreq	r5, [r6, #12]
 8008264:	e7da      	b.n	800821c <_vfiprintf_r+0x20>
 8008266:	89ab      	ldrh	r3, [r5, #12]
 8008268:	0598      	lsls	r0, r3, #22
 800826a:	d4ed      	bmi.n	8008248 <_vfiprintf_r+0x4c>
 800826c:	6da8      	ldr	r0, [r5, #88]	; 0x58
 800826e:	f000 fb84 	bl	800897a <__retarget_lock_release_recursive>
 8008272:	e7e9      	b.n	8008248 <_vfiprintf_r+0x4c>
 8008274:	2300      	movs	r3, #0
 8008276:	9309      	str	r3, [sp, #36]	; 0x24
 8008278:	2320      	movs	r3, #32
 800827a:	f88d 3029 	strb.w	r3, [sp, #41]	; 0x29
 800827e:	f8cd 800c 	str.w	r8, [sp, #12]
 8008282:	2330      	movs	r3, #48	; 0x30
 8008284:	f8df 81c0 	ldr.w	r8, [pc, #448]	; 8008448 <_vfiprintf_r+0x24c>
 8008288:	f88d 302a 	strb.w	r3, [sp, #42]	; 0x2a
 800828c:	f04f 0901 	mov.w	r9, #1
 8008290:	4623      	mov	r3, r4
 8008292:	469a      	mov	sl, r3
 8008294:	f813 2b01 	ldrb.w	r2, [r3], #1
 8008298:	b10a      	cbz	r2, 800829e <_vfiprintf_r+0xa2>
 800829a:	2a25      	cmp	r2, #37	; 0x25
 800829c:	d1f9      	bne.n	8008292 <_vfiprintf_r+0x96>
 800829e:	ebba 0b04 	subs.w	fp, sl, r4
 80082a2:	d00b      	beq.n	80082bc <_vfiprintf_r+0xc0>
 80082a4:	465b      	mov	r3, fp
 80082a6:	4622      	mov	r2, r4
 80082a8:	4629      	mov	r1, r5
 80082aa:	4630      	mov	r0, r6
 80082ac:	f7ff ff93 	bl	80081d6 <__sfputs_r>
 80082b0:	3001      	adds	r0, #1
 80082b2:	f000 80aa 	beq.w	800840a <_vfiprintf_r+0x20e>
 80082b6:	9a09      	ldr	r2, [sp, #36]	; 0x24
 80082b8:	445a      	add	r2, fp
 80082ba:	9209      	str	r2, [sp, #36]	; 0x24
 80082bc:	f89a 3000 	ldrb.w	r3, [sl]
 80082c0:	2b00      	cmp	r3, #0
 80082c2:	f000 80a2 	beq.w	800840a <_vfiprintf_r+0x20e>
 80082c6:	2300      	movs	r3, #0
 80082c8:	f04f 32ff 	mov.w	r2, #4294967295	; 0xffffffff
 80082cc:	e9cd 2305 	strd	r2, r3, [sp, #20]
 80082d0:	f10a 0a01 	add.w	sl, sl, #1
 80082d4:	9304      	str	r3, [sp, #16]
 80082d6:	9307      	str	r3, [sp, #28]
 80082d8:	f88d 3053 	strb.w	r3, [sp, #83]	; 0x53
 80082dc:	931a      	str	r3, [sp, #104]	; 0x68
 80082de:	4654      	mov	r4, sl
 80082e0:	2205      	movs	r2, #5
 80082e2:	f814 1b01 	ldrb.w	r1, [r4], #1
 80082e6:	4858      	ldr	r0, [pc, #352]	; (8008448 <_vfiprintf_r+0x24c>)
 80082e8:	f7f7 ff9a 	bl	8000220 <memchr>
 80082ec:	9a04      	ldr	r2, [sp, #16]
 80082ee:	b9d8      	cbnz	r0, 8008328 <_vfiprintf_r+0x12c>
 80082f0:	06d1      	lsls	r1, r2, #27
 80082f2:	bf44      	itt	mi
 80082f4:	2320      	movmi	r3, #32
 80082f6:	f88d 3053 	strbmi.w	r3, [sp, #83]	; 0x53
 80082fa:	0713      	lsls	r3, r2, #28
 80082fc:	bf44      	itt	mi
 80082fe:	232b      	movmi	r3, #43	; 0x2b
 8008300:	f88d 3053 	strbmi.w	r3, [sp, #83]	; 0x53
 8008304:	f89a 3000 	ldrb.w	r3, [sl]
 8008308:	2b2a      	cmp	r3, #42	; 0x2a
 800830a:	d015      	beq.n	8008338 <_vfiprintf_r+0x13c>
 800830c:	9a07      	ldr	r2, [sp, #28]
 800830e:	4654      	mov	r4, sl
 8008310:	2000      	movs	r0, #0
 8008312:	f04f 0c0a 	mov.w	ip, #10
 8008316:	4621      	mov	r1, r4
 8008318:	f811 3b01 	ldrb.w	r3, [r1], #1
 800831c:	3b30      	subs	r3, #48	; 0x30
 800831e:	2b09      	cmp	r3, #9
 8008320:	d94e      	bls.n	80083c0 <_vfiprintf_r+0x1c4>
 8008322:	b1b0      	cbz	r0, 8008352 <_vfiprintf_r+0x156>
 8008324:	9207      	str	r2, [sp, #28]
 8008326:	e014      	b.n	8008352 <_vfiprintf_r+0x156>
 8008328:	eba0 0308 	sub.w	r3, r0, r8
 800832c:	fa09 f303 	lsl.w	r3, r9, r3
 8008330:	4313      	orrs	r3, r2
 8008332:	9304      	str	r3, [sp, #16]
 8008334:	46a2      	mov	sl, r4
 8008336:	e7d2      	b.n	80082de <_vfiprintf_r+0xe2>
 8008338:	9b03      	ldr	r3, [sp, #12]
 800833a:	1d19      	adds	r1, r3, #4
 800833c:	681b      	ldr	r3, [r3, #0]
 800833e:	9103      	str	r1, [sp, #12]
 8008340:	2b00      	cmp	r3, #0
 8008342:	bfbb      	ittet	lt
 8008344:	425b      	neglt	r3, r3
 8008346:	f042 0202 	orrlt.w	r2, r2, #2
 800834a:	9307      	strge	r3, [sp, #28]
 800834c:	9307      	strlt	r3, [sp, #28]
 800834e:	bfb8      	it	lt
 8008350:	9204      	strlt	r2, [sp, #16]
 8008352:	7823      	ldrb	r3, [r4, #0]
 8008354:	2b2e      	cmp	r3, #46	; 0x2e
 8008356:	d10c      	bne.n	8008372 <_vfiprintf_r+0x176>
 8008358:	7863      	ldrb	r3, [r4, #1]
 800835a:	2b2a      	cmp	r3, #42	; 0x2a
 800835c:	d135      	bne.n	80083ca <_vfiprintf_r+0x1ce>
 800835e:	9b03      	ldr	r3, [sp, #12]
 8008360:	1d1a      	adds	r2, r3, #4
 8008362:	681b      	ldr	r3, [r3, #0]
 8008364:	9203      	str	r2, [sp, #12]
 8008366:	2b00      	cmp	r3, #0
 8008368:	bfb8      	it	lt
 800836a:	f04f 33ff 	movlt.w	r3, #4294967295	; 0xffffffff
 800836e:	3402      	adds	r4, #2
 8008370:	9305      	str	r3, [sp, #20]
 8008372:	f8df a0e4 	ldr.w	sl, [pc, #228]	; 8008458 <_vfiprintf_r+0x25c>
 8008376:	7821      	ldrb	r1, [r4, #0]
 8008378:	2203      	movs	r2, #3
 800837a:	4650      	mov	r0, sl
 800837c:	f7f7 ff50 	bl	8000220 <memchr>
 8008380:	b140      	cbz	r0, 8008394 <_vfiprintf_r+0x198>
 8008382:	2340      	movs	r3, #64	; 0x40
 8008384:	eba0 000a 	sub.w	r0, r0, sl
 8008388:	fa03 f000 	lsl.w	r0, r3, r0
 800838c:	9b04      	ldr	r3, [sp, #16]
 800838e:	4303      	orrs	r3, r0
 8008390:	3401      	adds	r4, #1
 8008392:	9304      	str	r3, [sp, #16]
 8008394:	f814 1b01 	ldrb.w	r1, [r4], #1
 8008398:	482c      	ldr	r0, [pc, #176]	; (800844c <_vfiprintf_r+0x250>)
 800839a:	f88d 1028 	strb.w	r1, [sp, #40]	; 0x28
 800839e:	2206      	movs	r2, #6
 80083a0:	f7f7 ff3e 	bl	8000220 <memchr>
 80083a4:	2800      	cmp	r0, #0
 80083a6:	d03f      	beq.n	8008428 <_vfiprintf_r+0x22c>
 80083a8:	4b29      	ldr	r3, [pc, #164]	; (8008450 <_vfiprintf_r+0x254>)
 80083aa:	bb1b      	cbnz	r3, 80083f4 <_vfiprintf_r+0x1f8>
 80083ac:	9b03      	ldr	r3, [sp, #12]
 80083ae:	3307      	adds	r3, #7
 80083b0:	f023 0307 	bic.w	r3, r3, #7
 80083b4:	3308      	adds	r3, #8
 80083b6:	9303      	str	r3, [sp, #12]
 80083b8:	9b09      	ldr	r3, [sp, #36]	; 0x24
 80083ba:	443b      	add	r3, r7
 80083bc:	9309      	str	r3, [sp, #36]	; 0x24
 80083be:	e767      	b.n	8008290 <_vfiprintf_r+0x94>
 80083c0:	fb0c 3202 	mla	r2, ip, r2, r3
 80083c4:	460c      	mov	r4, r1
 80083c6:	2001      	movs	r0, #1
 80083c8:	e7a5      	b.n	8008316 <_vfiprintf_r+0x11a>
 80083ca:	2300      	movs	r3, #0
 80083cc:	3401      	adds	r4, #1
 80083ce:	9305      	str	r3, [sp, #20]
 80083d0:	4619      	mov	r1, r3
 80083d2:	f04f 0c0a 	mov.w	ip, #10
 80083d6:	4620      	mov	r0, r4
 80083d8:	f810 2b01 	ldrb.w	r2, [r0], #1
 80083dc:	3a30      	subs	r2, #48	; 0x30
 80083de:	2a09      	cmp	r2, #9
 80083e0:	d903      	bls.n	80083ea <_vfiprintf_r+0x1ee>
 80083e2:	2b00      	cmp	r3, #0
 80083e4:	d0c5      	beq.n	8008372 <_vfiprintf_r+0x176>
 80083e6:	9105      	str	r1, [sp, #20]
 80083e8:	e7c3      	b.n	8008372 <_vfiprintf_r+0x176>
 80083ea:	fb0c 2101 	mla	r1, ip, r1, r2
 80083ee:	4604      	mov	r4, r0
 80083f0:	2301      	movs	r3, #1
 80083f2:	e7f0      	b.n	80083d6 <_vfiprintf_r+0x1da>
 80083f4:	ab03      	add	r3, sp, #12
 80083f6:	9300      	str	r3, [sp, #0]
 80083f8:	462a      	mov	r2, r5
 80083fa:	4b16      	ldr	r3, [pc, #88]	; (8008454 <_vfiprintf_r+0x258>)
 80083fc:	a904      	add	r1, sp, #16
 80083fe:	4630      	mov	r0, r6
 8008400:	f7fd fe22 	bl	8006048 <_printf_float>
 8008404:	4607      	mov	r7, r0
 8008406:	1c78      	adds	r0, r7, #1
 8008408:	d1d6      	bne.n	80083b8 <_vfiprintf_r+0x1bc>
 800840a:	6e6b      	ldr	r3, [r5, #100]	; 0x64
 800840c:	07d9      	lsls	r1, r3, #31
 800840e:	d405      	bmi.n	800841c <_vfiprintf_r+0x220>
 8008410:	89ab      	ldrh	r3, [r5, #12]
 8008412:	059a      	lsls	r2, r3, #22
 8008414:	d402      	bmi.n	800841c <_vfiprintf_r+0x220>
 8008416:	6da8      	ldr	r0, [r5, #88]	; 0x58
 8008418:	f000 faaf 	bl	800897a <__retarget_lock_release_recursive>
 800841c:	89ab      	ldrh	r3, [r5, #12]
 800841e:	065b      	lsls	r3, r3, #25
 8008420:	f53f af12 	bmi.w	8008248 <_vfiprintf_r+0x4c>
 8008424:	9809      	ldr	r0, [sp, #36]	; 0x24
 8008426:	e711      	b.n	800824c <_vfiprintf_r+0x50>
 8008428:	ab03      	add	r3, sp, #12
 800842a:	9300      	str	r3, [sp, #0]
 800842c:	462a      	mov	r2, r5
 800842e:	4b09      	ldr	r3, [pc, #36]	; (8008454 <_vfiprintf_r+0x258>)
 8008430:	a904      	add	r1, sp, #16
 8008432:	4630      	mov	r0, r6
 8008434:	f7fe f8ac 	bl	8006590 <_printf_i>
 8008438:	e7e4      	b.n	8008404 <_vfiprintf_r+0x208>
 800843a:	bf00      	nop
 800843c:	080090d4 	.word	0x080090d4
 8008440:	080090f4 	.word	0x080090f4
 8008444:	080090b4 	.word	0x080090b4
 8008448:	08008f5c 	.word	0x08008f5c
 800844c:	08008f66 	.word	0x08008f66
 8008450:	08006049 	.word	0x08006049
 8008454:	080081d7 	.word	0x080081d7
 8008458:	08008f62 	.word	0x08008f62

0800845c <__swbuf_r>:
 800845c:	b5f8      	push	{r3, r4, r5, r6, r7, lr}
 800845e:	460e      	mov	r6, r1
 8008460:	4614      	mov	r4, r2
 8008462:	4605      	mov	r5, r0
 8008464:	b118      	cbz	r0, 800846e <__swbuf_r+0x12>
 8008466:	6983      	ldr	r3, [r0, #24]
 8008468:	b90b      	cbnz	r3, 800846e <__swbuf_r+0x12>
 800846a:	f000 f9e7 	bl	800883c <__sinit>
 800846e:	4b21      	ldr	r3, [pc, #132]	; (80084f4 <__swbuf_r+0x98>)
 8008470:	429c      	cmp	r4, r3
 8008472:	d12b      	bne.n	80084cc <__swbuf_r+0x70>
 8008474:	686c      	ldr	r4, [r5, #4]
 8008476:	69a3      	ldr	r3, [r4, #24]
 8008478:	60a3      	str	r3, [r4, #8]
 800847a:	89a3      	ldrh	r3, [r4, #12]
 800847c:	071a      	lsls	r2, r3, #28
 800847e:	d52f      	bpl.n	80084e0 <__swbuf_r+0x84>
 8008480:	6923      	ldr	r3, [r4, #16]
 8008482:	b36b      	cbz	r3, 80084e0 <__swbuf_r+0x84>
 8008484:	6923      	ldr	r3, [r4, #16]
 8008486:	6820      	ldr	r0, [r4, #0]
 8008488:	1ac0      	subs	r0, r0, r3
 800848a:	6963      	ldr	r3, [r4, #20]
 800848c:	b2f6      	uxtb	r6, r6
 800848e:	4283      	cmp	r3, r0
 8008490:	4637      	mov	r7, r6
 8008492:	dc04      	bgt.n	800849e <__swbuf_r+0x42>
 8008494:	4621      	mov	r1, r4
 8008496:	4628      	mov	r0, r5
 8008498:	f000 f93c 	bl	8008714 <_fflush_r>
 800849c:	bb30      	cbnz	r0, 80084ec <__swbuf_r+0x90>
 800849e:	68a3      	ldr	r3, [r4, #8]
 80084a0:	3b01      	subs	r3, #1
 80084a2:	60a3      	str	r3, [r4, #8]
 80084a4:	6823      	ldr	r3, [r4, #0]
 80084a6:	1c5a      	adds	r2, r3, #1
 80084a8:	6022      	str	r2, [r4, #0]
 80084aa:	701e      	strb	r6, [r3, #0]
 80084ac:	6963      	ldr	r3, [r4, #20]
 80084ae:	3001      	adds	r0, #1
 80084b0:	4283      	cmp	r3, r0
 80084b2:	d004      	beq.n	80084be <__swbuf_r+0x62>
 80084b4:	89a3      	ldrh	r3, [r4, #12]
 80084b6:	07db      	lsls	r3, r3, #31
 80084b8:	d506      	bpl.n	80084c8 <__swbuf_r+0x6c>
 80084ba:	2e0a      	cmp	r6, #10
 80084bc:	d104      	bne.n	80084c8 <__swbuf_r+0x6c>
 80084be:	4621      	mov	r1, r4
 80084c0:	4628      	mov	r0, r5
 80084c2:	f000 f927 	bl	8008714 <_fflush_r>
 80084c6:	b988      	cbnz	r0, 80084ec <__swbuf_r+0x90>
 80084c8:	4638      	mov	r0, r7
 80084ca:	bdf8      	pop	{r3, r4, r5, r6, r7, pc}
 80084cc:	4b0a      	ldr	r3, [pc, #40]	; (80084f8 <__swbuf_r+0x9c>)
 80084ce:	429c      	cmp	r4, r3
 80084d0:	d101      	bne.n	80084d6 <__swbuf_r+0x7a>
 80084d2:	68ac      	ldr	r4, [r5, #8]
 80084d4:	e7cf      	b.n	8008476 <__swbuf_r+0x1a>
 80084d6:	4b09      	ldr	r3, [pc, #36]	; (80084fc <__swbuf_r+0xa0>)
 80084d8:	429c      	cmp	r4, r3
 80084da:	bf08      	it	eq
 80084dc:	68ec      	ldreq	r4, [r5, #12]
 80084de:	e7ca      	b.n	8008476 <__swbuf_r+0x1a>
 80084e0:	4621      	mov	r1, r4
 80084e2:	4628      	mov	r0, r5
 80084e4:	f000 f81a 	bl	800851c <__swsetup_r>
 80084e8:	2800      	cmp	r0, #0
 80084ea:	d0cb      	beq.n	8008484 <__swbuf_r+0x28>
 80084ec:	f04f 37ff 	mov.w	r7, #4294967295	; 0xffffffff
 80084f0:	e7ea      	b.n	80084c8 <__swbuf_r+0x6c>
 80084f2:	bf00      	nop
 80084f4:	080090d4 	.word	0x080090d4
 80084f8:	080090f4 	.word	0x080090f4
 80084fc:	080090b4 	.word	0x080090b4

08008500 <__ascii_wctomb>:
 8008500:	b149      	cbz	r1, 8008516 <__ascii_wctomb+0x16>
 8008502:	2aff      	cmp	r2, #255	; 0xff
 8008504:	bf85      	ittet	hi
 8008506:	238a      	movhi	r3, #138	; 0x8a
 8008508:	6003      	strhi	r3, [r0, #0]
 800850a:	700a      	strbls	r2, [r1, #0]
 800850c:	f04f 30ff 	movhi.w	r0, #4294967295	; 0xffffffff
 8008510:	bf98      	it	ls
 8008512:	2001      	movls	r0, #1
 8008514:	4770      	bx	lr
 8008516:	4608      	mov	r0, r1
 8008518:	4770      	bx	lr
	...

0800851c <__swsetup_r>:
 800851c:	4b32      	ldr	r3, [pc, #200]	; (80085e8 <__swsetup_r+0xcc>)
 800851e:	b570      	push	{r4, r5, r6, lr}
 8008520:	681d      	ldr	r5, [r3, #0]
 8008522:	4606      	mov	r6, r0
 8008524:	460c      	mov	r4, r1
 8008526:	b125      	cbz	r5, 8008532 <__swsetup_r+0x16>
 8008528:	69ab      	ldr	r3, [r5, #24]
 800852a:	b913      	cbnz	r3, 8008532 <__swsetup_r+0x16>
 800852c:	4628      	mov	r0, r5
 800852e:	f000 f985 	bl	800883c <__sinit>
 8008532:	4b2e      	ldr	r3, [pc, #184]	; (80085ec <__swsetup_r+0xd0>)
 8008534:	429c      	cmp	r4, r3
 8008536:	d10f      	bne.n	8008558 <__swsetup_r+0x3c>
 8008538:	686c      	ldr	r4, [r5, #4]
 800853a:	89a3      	ldrh	r3, [r4, #12]
 800853c:	f9b4 200c 	ldrsh.w	r2, [r4, #12]
 8008540:	0719      	lsls	r1, r3, #28
 8008542:	d42c      	bmi.n	800859e <__swsetup_r+0x82>
 8008544:	06dd      	lsls	r5, r3, #27
 8008546:	d411      	bmi.n	800856c <__swsetup_r+0x50>
 8008548:	2309      	movs	r3, #9
 800854a:	6033      	str	r3, [r6, #0]
 800854c:	f042 0340 	orr.w	r3, r2, #64	; 0x40
 8008550:	81a3      	strh	r3, [r4, #12]
 8008552:	f04f 30ff 	mov.w	r0, #4294967295	; 0xffffffff
 8008556:	e03e      	b.n	80085d6 <__swsetup_r+0xba>
 8008558:	4b25      	ldr	r3, [pc, #148]	; (80085f0 <__swsetup_r+0xd4>)
 800855a:	429c      	cmp	r4, r3
 800855c:	d101      	bne.n	8008562 <__swsetup_r+0x46>
 800855e:	68ac      	ldr	r4, [r5, #8]
 8008560:	e7eb      	b.n	800853a <__swsetup_r+0x1e>
 8008562:	4b24      	ldr	r3, [pc, #144]	; (80085f4 <__swsetup_r+0xd8>)
 8008564:	429c      	cmp	r4, r3
 8008566:	bf08      	it	eq
 8008568:	68ec      	ldreq	r4, [r5, #12]
 800856a:	e7e6      	b.n	800853a <__swsetup_r+0x1e>
 800856c:	0758      	lsls	r0, r3, #29
 800856e:	d512      	bpl.n	8008596 <__swsetup_r+0x7a>
 8008570:	6b61      	ldr	r1, [r4, #52]	; 0x34
 8008572:	b141      	cbz	r1, 8008586 <__swsetup_r+0x6a>
 8008574:	f104 0344 	add.w	r3, r4, #68	; 0x44
 8008578:	4299      	cmp	r1, r3
 800857a:	d002      	beq.n	8008582 <__swsetup_r+0x66>
 800857c:	4630      	mov	r0, r6
 800857e:	f7ff fb6f 	bl	8007c60 <_free_r>
 8008582:	2300      	movs	r3, #0
 8008584:	6363      	str	r3, [r4, #52]	; 0x34
 8008586:	89a3      	ldrh	r3, [r4, #12]
 8008588:	f023 0324 	bic.w	r3, r3, #36	; 0x24
 800858c:	81a3      	strh	r3, [r4, #12]
 800858e:	2300      	movs	r3, #0
 8008590:	6063      	str	r3, [r4, #4]
 8008592:	6923      	ldr	r3, [r4, #16]
 8008594:	6023      	str	r3, [r4, #0]
 8008596:	89a3      	ldrh	r3, [r4, #12]
 8008598:	f043 0308 	orr.w	r3, r3, #8
 800859c:	81a3      	strh	r3, [r4, #12]
 800859e:	6923      	ldr	r3, [r4, #16]
 80085a0:	b94b      	cbnz	r3, 80085b6 <__swsetup_r+0x9a>
 80085a2:	89a3      	ldrh	r3, [r4, #12]
 80085a4:	f403 7320 	and.w	r3, r3, #640	; 0x280
 80085a8:	f5b3 7f00 	cmp.w	r3, #512	; 0x200
 80085ac:	d003      	beq.n	80085b6 <__swsetup_r+0x9a>
 80085ae:	4621      	mov	r1, r4
 80085b0:	4630      	mov	r0, r6
 80085b2:	f000 fa07 	bl	80089c4 <__smakebuf_r>
 80085b6:	89a0      	ldrh	r0, [r4, #12]
 80085b8:	f9b4 200c 	ldrsh.w	r2, [r4, #12]
 80085bc:	f010 0301 	ands.w	r3, r0, #1
 80085c0:	d00a      	beq.n	80085d8 <__swsetup_r+0xbc>
 80085c2:	2300      	movs	r3, #0
 80085c4:	60a3      	str	r3, [r4, #8]
 80085c6:	6963      	ldr	r3, [r4, #20]
 80085c8:	425b      	negs	r3, r3
 80085ca:	61a3      	str	r3, [r4, #24]
 80085cc:	6923      	ldr	r3, [r4, #16]
 80085ce:	b943      	cbnz	r3, 80085e2 <__swsetup_r+0xc6>
 80085d0:	f010 0080 	ands.w	r0, r0, #128	; 0x80
 80085d4:	d1ba      	bne.n	800854c <__swsetup_r+0x30>
 80085d6:	bd70      	pop	{r4, r5, r6, pc}
 80085d8:	0781      	lsls	r1, r0, #30
 80085da:	bf58      	it	pl
 80085dc:	6963      	ldrpl	r3, [r4, #20]
 80085de:	60a3      	str	r3, [r4, #8]
 80085e0:	e7f4      	b.n	80085cc <__swsetup_r+0xb0>
 80085e2:	2000      	movs	r0, #0
 80085e4:	e7f7      	b.n	80085d6 <__swsetup_r+0xba>
 80085e6:	bf00      	nop
 80085e8:	20000024 	.word	0x20000024
 80085ec:	080090d4 	.word	0x080090d4
 80085f0:	080090f4 	.word	0x080090f4
 80085f4:	080090b4 	.word	0x080090b4

080085f8 <abort>:
 80085f8:	b508      	push	{r3, lr}
 80085fa:	2006      	movs	r0, #6
 80085fc:	f000 fa52 	bl	8008aa4 <raise>
 8008600:	2001      	movs	r0, #1
 8008602:	f7f9 fe6f 	bl	80022e4 <_exit>
	...

08008608 <__sflush_r>:
 8008608:	898a      	ldrh	r2, [r1, #12]
 800860a:	e92d 41f0 	stmdb	sp!, {r4, r5, r6, r7, r8, lr}
 800860e:	4605      	mov	r5, r0
 8008610:	0710      	lsls	r0, r2, #28
 8008612:	460c      	mov	r4, r1
 8008614:	d458      	bmi.n	80086c8 <__sflush_r+0xc0>
 8008616:	684b      	ldr	r3, [r1, #4]
 8008618:	2b00      	cmp	r3, #0
 800861a:	dc05      	bgt.n	8008628 <__sflush_r+0x20>
 800861c:	6c0b      	ldr	r3, [r1, #64]	; 0x40
 800861e:	2b00      	cmp	r3, #0
 8008620:	dc02      	bgt.n	8008628 <__sflush_r+0x20>
 8008622:	2000      	movs	r0, #0
 8008624:	e8bd 81f0 	ldmia.w	sp!, {r4, r5, r6, r7, r8, pc}
 8008628:	6ae6      	ldr	r6, [r4, #44]	; 0x2c
 800862a:	2e00      	cmp	r6, #0
 800862c:	d0f9      	beq.n	8008622 <__sflush_r+0x1a>
 800862e:	2300      	movs	r3, #0
 8008630:	f412 5280 	ands.w	r2, r2, #4096	; 0x1000
 8008634:	682f      	ldr	r7, [r5, #0]
 8008636:	602b      	str	r3, [r5, #0]
 8008638:	d032      	beq.n	80086a0 <__sflush_r+0x98>
 800863a:	6d60      	ldr	r0, [r4, #84]	; 0x54
 800863c:	89a3      	ldrh	r3, [r4, #12]
 800863e:	075a      	lsls	r2, r3, #29
 8008640:	d505      	bpl.n	800864e <__sflush_r+0x46>
 8008642:	6863      	ldr	r3, [r4, #4]
 8008644:	1ac0      	subs	r0, r0, r3
 8008646:	6b63      	ldr	r3, [r4, #52]	; 0x34
 8008648:	b10b      	cbz	r3, 800864e <__sflush_r+0x46>
 800864a:	6c23      	ldr	r3, [r4, #64]	; 0x40
 800864c:	1ac0      	subs	r0, r0, r3
 800864e:	2300      	movs	r3, #0
 8008650:	4602      	mov	r2, r0
 8008652:	6ae6      	ldr	r6, [r4, #44]	; 0x2c
 8008654:	6a21      	ldr	r1, [r4, #32]
 8008656:	4628      	mov	r0, r5
 8008658:	47b0      	blx	r6
 800865a:	1c43      	adds	r3, r0, #1
 800865c:	89a3      	ldrh	r3, [r4, #12]
 800865e:	d106      	bne.n	800866e <__sflush_r+0x66>
 8008660:	6829      	ldr	r1, [r5, #0]
 8008662:	291d      	cmp	r1, #29
 8008664:	d82c      	bhi.n	80086c0 <__sflush_r+0xb8>
 8008666:	4a2a      	ldr	r2, [pc, #168]	; (8008710 <__sflush_r+0x108>)
 8008668:	40ca      	lsrs	r2, r1
 800866a:	07d6      	lsls	r6, r2, #31
 800866c:	d528      	bpl.n	80086c0 <__sflush_r+0xb8>
 800866e:	2200      	movs	r2, #0
 8008670:	6062      	str	r2, [r4, #4]
 8008672:	04d9      	lsls	r1, r3, #19
 8008674:	6922      	ldr	r2, [r4, #16]
 8008676:	6022      	str	r2, [r4, #0]
 8008678:	d504      	bpl.n	8008684 <__sflush_r+0x7c>
 800867a:	1c42      	adds	r2, r0, #1
 800867c:	d101      	bne.n	8008682 <__sflush_r+0x7a>
 800867e:	682b      	ldr	r3, [r5, #0]
 8008680:	b903      	cbnz	r3, 8008684 <__sflush_r+0x7c>
 8008682:	6560      	str	r0, [r4, #84]	; 0x54
 8008684:	6b61      	ldr	r1, [r4, #52]	; 0x34
 8008686:	602f      	str	r7, [r5, #0]
 8008688:	2900      	cmp	r1, #0
 800868a:	d0ca      	beq.n	8008622 <__sflush_r+0x1a>
 800868c:	f104 0344 	add.w	r3, r4, #68	; 0x44
 8008690:	4299      	cmp	r1, r3
 8008692:	d002      	beq.n	800869a <__sflush_r+0x92>
 8008694:	4628      	mov	r0, r5
 8008696:	f7ff fae3 	bl	8007c60 <_free_r>
 800869a:	2000      	movs	r0, #0
 800869c:	6360      	str	r0, [r4, #52]	; 0x34
 800869e:	e7c1      	b.n	8008624 <__sflush_r+0x1c>
 80086a0:	6a21      	ldr	r1, [r4, #32]
 80086a2:	2301      	movs	r3, #1
 80086a4:	4628      	mov	r0, r5
 80086a6:	47b0      	blx	r6
 80086a8:	1c41      	adds	r1, r0, #1
 80086aa:	d1c7      	bne.n	800863c <__sflush_r+0x34>
 80086ac:	682b      	ldr	r3, [r5, #0]
 80086ae:	2b00      	cmp	r3, #0
 80086b0:	d0c4      	beq.n	800863c <__sflush_r+0x34>
 80086b2:	2b1d      	cmp	r3, #29
 80086b4:	d001      	beq.n	80086ba <__sflush_r+0xb2>
 80086b6:	2b16      	cmp	r3, #22
 80086b8:	d101      	bne.n	80086be <__sflush_r+0xb6>
 80086ba:	602f      	str	r7, [r5, #0]
 80086bc:	e7b1      	b.n	8008622 <__sflush_r+0x1a>
 80086be:	89a3      	ldrh	r3, [r4, #12]
 80086c0:	f043 0340 	orr.w	r3, r3, #64	; 0x40
 80086c4:	81a3      	strh	r3, [r4, #12]
 80086c6:	e7ad      	b.n	8008624 <__sflush_r+0x1c>
 80086c8:	690f      	ldr	r7, [r1, #16]
 80086ca:	2f00      	cmp	r7, #0
 80086cc:	d0a9      	beq.n	8008622 <__sflush_r+0x1a>
 80086ce:	0793      	lsls	r3, r2, #30
 80086d0:	680e      	ldr	r6, [r1, #0]
 80086d2:	bf08      	it	eq
 80086d4:	694b      	ldreq	r3, [r1, #20]
 80086d6:	600f      	str	r7, [r1, #0]
 80086d8:	bf18      	it	ne
 80086da:	2300      	movne	r3, #0
 80086dc:	eba6 0807 	sub.w	r8, r6, r7
 80086e0:	608b      	str	r3, [r1, #8]
 80086e2:	f1b8 0f00 	cmp.w	r8, #0
 80086e6:	dd9c      	ble.n	8008622 <__sflush_r+0x1a>
 80086e8:	6a21      	ldr	r1, [r4, #32]
 80086ea:	6aa6      	ldr	r6, [r4, #40]	; 0x28
 80086ec:	4643      	mov	r3, r8
 80086ee:	463a      	mov	r2, r7
 80086f0:	4628      	mov	r0, r5
 80086f2:	47b0      	blx	r6
 80086f4:	2800      	cmp	r0, #0
 80086f6:	dc06      	bgt.n	8008706 <__sflush_r+0xfe>
 80086f8:	89a3      	ldrh	r3, [r4, #12]
 80086fa:	f043 0340 	orr.w	r3, r3, #64	; 0x40
 80086fe:	81a3      	strh	r3, [r4, #12]
 8008700:	f04f 30ff 	mov.w	r0, #4294967295	; 0xffffffff
 8008704:	e78e      	b.n	8008624 <__sflush_r+0x1c>
 8008706:	4407      	add	r7, r0
 8008708:	eba8 0800 	sub.w	r8, r8, r0
 800870c:	e7e9      	b.n	80086e2 <__sflush_r+0xda>
 800870e:	bf00      	nop
 8008710:	20400001 	.word	0x20400001

08008714 <_fflush_r>:
 8008714:	b538      	push	{r3, r4, r5, lr}
 8008716:	690b      	ldr	r3, [r1, #16]
 8008718:	4605      	mov	r5, r0
 800871a:	460c      	mov	r4, r1
 800871c:	b913      	cbnz	r3, 8008724 <_fflush_r+0x10>
 800871e:	2500      	movs	r5, #0
 8008720:	4628      	mov	r0, r5
 8008722:	bd38      	pop	{r3, r4, r5, pc}
 8008724:	b118      	cbz	r0, 800872e <_fflush_r+0x1a>
 8008726:	6983      	ldr	r3, [r0, #24]
 8008728:	b90b      	cbnz	r3, 800872e <_fflush_r+0x1a>
 800872a:	f000 f887 	bl	800883c <__sinit>
 800872e:	4b14      	ldr	r3, [pc, #80]	; (8008780 <_fflush_r+0x6c>)
 8008730:	429c      	cmp	r4, r3
 8008732:	d11b      	bne.n	800876c <_fflush_r+0x58>
 8008734:	686c      	ldr	r4, [r5, #4]
 8008736:	f9b4 300c 	ldrsh.w	r3, [r4, #12]
 800873a:	2b00      	cmp	r3, #0
 800873c:	d0ef      	beq.n	800871e <_fflush_r+0xa>
 800873e:	6e62      	ldr	r2, [r4, #100]	; 0x64
 8008740:	07d0      	lsls	r0, r2, #31
 8008742:	d404      	bmi.n	800874e <_fflush_r+0x3a>
 8008744:	0599      	lsls	r1, r3, #22
 8008746:	d402      	bmi.n	800874e <_fflush_r+0x3a>
 8008748:	6da0      	ldr	r0, [r4, #88]	; 0x58
 800874a:	f000 f915 	bl	8008978 <__retarget_lock_acquire_recursive>
 800874e:	4628      	mov	r0, r5
 8008750:	4621      	mov	r1, r4
 8008752:	f7ff ff59 	bl	8008608 <__sflush_r>
 8008756:	6e63      	ldr	r3, [r4, #100]	; 0x64
 8008758:	07da      	lsls	r2, r3, #31
 800875a:	4605      	mov	r5, r0
 800875c:	d4e0      	bmi.n	8008720 <_fflush_r+0xc>
 800875e:	89a3      	ldrh	r3, [r4, #12]
 8008760:	059b      	lsls	r3, r3, #22
 8008762:	d4dd      	bmi.n	8008720 <_fflush_r+0xc>
 8008764:	6da0      	ldr	r0, [r4, #88]	; 0x58
 8008766:	f000 f908 	bl	800897a <__retarget_lock_release_recursive>
 800876a:	e7d9      	b.n	8008720 <_fflush_r+0xc>
 800876c:	4b05      	ldr	r3, [pc, #20]	; (8008784 <_fflush_r+0x70>)
 800876e:	429c      	cmp	r4, r3
 8008770:	d101      	bne.n	8008776 <_fflush_r+0x62>
 8008772:	68ac      	ldr	r4, [r5, #8]
 8008774:	e7df      	b.n	8008736 <_fflush_r+0x22>
 8008776:	4b04      	ldr	r3, [pc, #16]	; (8008788 <_fflush_r+0x74>)
 8008778:	429c      	cmp	r4, r3
 800877a:	bf08      	it	eq
 800877c:	68ec      	ldreq	r4, [r5, #12]
 800877e:	e7da      	b.n	8008736 <_fflush_r+0x22>
 8008780:	080090d4 	.word	0x080090d4
 8008784:	080090f4 	.word	0x080090f4
 8008788:	080090b4 	.word	0x080090b4

0800878c <std>:
 800878c:	2300      	movs	r3, #0
 800878e:	b510      	push	{r4, lr}
 8008790:	4604      	mov	r4, r0
 8008792:	e9c0 3300 	strd	r3, r3, [r0]
 8008796:	e9c0 3304 	strd	r3, r3, [r0, #16]
 800879a:	6083      	str	r3, [r0, #8]
 800879c:	8181      	strh	r1, [r0, #12]
 800879e:	6643      	str	r3, [r0, #100]	; 0x64
 80087a0:	81c2      	strh	r2, [r0, #14]
 80087a2:	6183      	str	r3, [r0, #24]
 80087a4:	4619      	mov	r1, r3
 80087a6:	2208      	movs	r2, #8
 80087a8:	305c      	adds	r0, #92	; 0x5c
 80087aa:	f7fd fba5 	bl	8005ef8 <memset>
 80087ae:	4b05      	ldr	r3, [pc, #20]	; (80087c4 <std+0x38>)
 80087b0:	6263      	str	r3, [r4, #36]	; 0x24
 80087b2:	4b05      	ldr	r3, [pc, #20]	; (80087c8 <std+0x3c>)
 80087b4:	62a3      	str	r3, [r4, #40]	; 0x28
 80087b6:	4b05      	ldr	r3, [pc, #20]	; (80087cc <std+0x40>)
 80087b8:	62e3      	str	r3, [r4, #44]	; 0x2c
 80087ba:	4b05      	ldr	r3, [pc, #20]	; (80087d0 <std+0x44>)
 80087bc:	6224      	str	r4, [r4, #32]
 80087be:	6323      	str	r3, [r4, #48]	; 0x30
 80087c0:	bd10      	pop	{r4, pc}
 80087c2:	bf00      	nop
 80087c4:	08008add 	.word	0x08008add
 80087c8:	08008aff 	.word	0x08008aff
 80087cc:	08008b37 	.word	0x08008b37
 80087d0:	08008b5b 	.word	0x08008b5b

080087d4 <_cleanup_r>:
 80087d4:	4901      	ldr	r1, [pc, #4]	; (80087dc <_cleanup_r+0x8>)
 80087d6:	f000 b8af 	b.w	8008938 <_fwalk_reent>
 80087da:	bf00      	nop
 80087dc:	08008715 	.word	0x08008715

080087e0 <__sfmoreglue>:
 80087e0:	b570      	push	{r4, r5, r6, lr}
 80087e2:	1e4a      	subs	r2, r1, #1
 80087e4:	2568      	movs	r5, #104	; 0x68
 80087e6:	4355      	muls	r5, r2
 80087e8:	460e      	mov	r6, r1
 80087ea:	f105 0174 	add.w	r1, r5, #116	; 0x74
 80087ee:	f7ff fa87 	bl	8007d00 <_malloc_r>
 80087f2:	4604      	mov	r4, r0
 80087f4:	b140      	cbz	r0, 8008808 <__sfmoreglue+0x28>
 80087f6:	2100      	movs	r1, #0
 80087f8:	e9c0 1600 	strd	r1, r6, [r0]
 80087fc:	300c      	adds	r0, #12
 80087fe:	60a0      	str	r0, [r4, #8]
 8008800:	f105 0268 	add.w	r2, r5, #104	; 0x68
 8008804:	f7fd fb78 	bl	8005ef8 <memset>
 8008808:	4620      	mov	r0, r4
 800880a:	bd70      	pop	{r4, r5, r6, pc}

0800880c <__sfp_lock_acquire>:
 800880c:	4801      	ldr	r0, [pc, #4]	; (8008814 <__sfp_lock_acquire+0x8>)
 800880e:	f000 b8b3 	b.w	8008978 <__retarget_lock_acquire_recursive>
 8008812:	bf00      	nop
 8008814:	20000554 	.word	0x20000554

08008818 <__sfp_lock_release>:
 8008818:	4801      	ldr	r0, [pc, #4]	; (8008820 <__sfp_lock_release+0x8>)
 800881a:	f000 b8ae 	b.w	800897a <__retarget_lock_release_recursive>
 800881e:	bf00      	nop
 8008820:	20000554 	.word	0x20000554

08008824 <__sinit_lock_acquire>:
 8008824:	4801      	ldr	r0, [pc, #4]	; (800882c <__sinit_lock_acquire+0x8>)
 8008826:	f000 b8a7 	b.w	8008978 <__retarget_lock_acquire_recursive>
 800882a:	bf00      	nop
 800882c:	2000054f 	.word	0x2000054f

08008830 <__sinit_lock_release>:
 8008830:	4801      	ldr	r0, [pc, #4]	; (8008838 <__sinit_lock_release+0x8>)
 8008832:	f000 b8a2 	b.w	800897a <__retarget_lock_release_recursive>
 8008836:	bf00      	nop
 8008838:	2000054f 	.word	0x2000054f

0800883c <__sinit>:
 800883c:	b510      	push	{r4, lr}
 800883e:	4604      	mov	r4, r0
 8008840:	f7ff fff0 	bl	8008824 <__sinit_lock_acquire>
 8008844:	69a3      	ldr	r3, [r4, #24]
 8008846:	b11b      	cbz	r3, 8008850 <__sinit+0x14>
 8008848:	e8bd 4010 	ldmia.w	sp!, {r4, lr}
 800884c:	f7ff bff0 	b.w	8008830 <__sinit_lock_release>
 8008850:	e9c4 3312 	strd	r3, r3, [r4, #72]	; 0x48
 8008854:	6523      	str	r3, [r4, #80]	; 0x50
 8008856:	4b13      	ldr	r3, [pc, #76]	; (80088a4 <__sinit+0x68>)
 8008858:	4a13      	ldr	r2, [pc, #76]	; (80088a8 <__sinit+0x6c>)
 800885a:	681b      	ldr	r3, [r3, #0]
 800885c:	62a2      	str	r2, [r4, #40]	; 0x28
 800885e:	42a3      	cmp	r3, r4
 8008860:	bf04      	itt	eq
 8008862:	2301      	moveq	r3, #1
 8008864:	61a3      	streq	r3, [r4, #24]
 8008866:	4620      	mov	r0, r4
 8008868:	f000 f820 	bl	80088ac <__sfp>
 800886c:	6060      	str	r0, [r4, #4]
 800886e:	4620      	mov	r0, r4
 8008870:	f000 f81c 	bl	80088ac <__sfp>
 8008874:	60a0      	str	r0, [r4, #8]
 8008876:	4620      	mov	r0, r4
 8008878:	f000 f818 	bl	80088ac <__sfp>
 800887c:	2200      	movs	r2, #0
 800887e:	60e0      	str	r0, [r4, #12]
 8008880:	2104      	movs	r1, #4
 8008882:	6860      	ldr	r0, [r4, #4]
 8008884:	f7ff ff82 	bl	800878c <std>
 8008888:	68a0      	ldr	r0, [r4, #8]
 800888a:	2201      	movs	r2, #1
 800888c:	2109      	movs	r1, #9
 800888e:	f7ff ff7d 	bl	800878c <std>
 8008892:	68e0      	ldr	r0, [r4, #12]
 8008894:	2202      	movs	r2, #2
 8008896:	2112      	movs	r1, #18
 8008898:	f7ff ff78 	bl	800878c <std>
 800889c:	2301      	movs	r3, #1
 800889e:	61a3      	str	r3, [r4, #24]
 80088a0:	e7d2      	b.n	8008848 <__sinit+0xc>
 80088a2:	bf00      	nop
 80088a4:	08008d34 	.word	0x08008d34
 80088a8:	080087d5 	.word	0x080087d5

080088ac <__sfp>:
 80088ac:	b5f8      	push	{r3, r4, r5, r6, r7, lr}
 80088ae:	4607      	mov	r7, r0
 80088b0:	f7ff ffac 	bl	800880c <__sfp_lock_acquire>
 80088b4:	4b1e      	ldr	r3, [pc, #120]	; (8008930 <__sfp+0x84>)
 80088b6:	681e      	ldr	r6, [r3, #0]
 80088b8:	69b3      	ldr	r3, [r6, #24]
 80088ba:	b913      	cbnz	r3, 80088c2 <__sfp+0x16>
 80088bc:	4630      	mov	r0, r6
 80088be:	f7ff ffbd 	bl	800883c <__sinit>
 80088c2:	3648      	adds	r6, #72	; 0x48
 80088c4:	e9d6 3401 	ldrd	r3, r4, [r6, #4]
 80088c8:	3b01      	subs	r3, #1
 80088ca:	d503      	bpl.n	80088d4 <__sfp+0x28>
 80088cc:	6833      	ldr	r3, [r6, #0]
 80088ce:	b30b      	cbz	r3, 8008914 <__sfp+0x68>
 80088d0:	6836      	ldr	r6, [r6, #0]
 80088d2:	e7f7      	b.n	80088c4 <__sfp+0x18>
 80088d4:	f9b4 500c 	ldrsh.w	r5, [r4, #12]
 80088d8:	b9d5      	cbnz	r5, 8008910 <__sfp+0x64>
 80088da:	4b16      	ldr	r3, [pc, #88]	; (8008934 <__sfp+0x88>)
 80088dc:	60e3      	str	r3, [r4, #12]
 80088de:	f104 0058 	add.w	r0, r4, #88	; 0x58
 80088e2:	6665      	str	r5, [r4, #100]	; 0x64
 80088e4:	f000 f847 	bl	8008976 <__retarget_lock_init_recursive>
 80088e8:	f7ff ff96 	bl	8008818 <__sfp_lock_release>
 80088ec:	e9c4 5501 	strd	r5, r5, [r4, #4]
 80088f0:	e9c4 5504 	strd	r5, r5, [r4, #16]
 80088f4:	6025      	str	r5, [r4, #0]
 80088f6:	61a5      	str	r5, [r4, #24]
 80088f8:	2208      	movs	r2, #8
 80088fa:	4629      	mov	r1, r5
 80088fc:	f104 005c 	add.w	r0, r4, #92	; 0x5c
 8008900:	f7fd fafa 	bl	8005ef8 <memset>
 8008904:	e9c4 550d 	strd	r5, r5, [r4, #52]	; 0x34
 8008908:	e9c4 5512 	strd	r5, r5, [r4, #72]	; 0x48
 800890c:	4620      	mov	r0, r4
 800890e:	bdf8      	pop	{r3, r4, r5, r6, r7, pc}
 8008910:	3468      	adds	r4, #104	; 0x68
 8008912:	e7d9      	b.n	80088c8 <__sfp+0x1c>
 8008914:	2104      	movs	r1, #4
 8008916:	4638      	mov	r0, r7
 8008918:	f7ff ff62 	bl	80087e0 <__sfmoreglue>
 800891c:	4604      	mov	r4, r0
 800891e:	6030      	str	r0, [r6, #0]
 8008920:	2800      	cmp	r0, #0
 8008922:	d1d5      	bne.n	80088d0 <__sfp+0x24>
 8008924:	f7ff ff78 	bl	8008818 <__sfp_lock_release>
 8008928:	230c      	movs	r3, #12
 800892a:	603b      	str	r3, [r7, #0]
 800892c:	e7ee      	b.n	800890c <__sfp+0x60>
 800892e:	bf00      	nop
 8008930:	08008d34 	.word	0x08008d34
 8008934:	ffff0001 	.word	0xffff0001

08008938 <_fwalk_reent>:
 8008938:	e92d 43f8 	stmdb	sp!, {r3, r4, r5, r6, r7, r8, r9, lr}
 800893c:	4606      	mov	r6, r0
 800893e:	4688      	mov	r8, r1
 8008940:	f100 0448 	add.w	r4, r0, #72	; 0x48
 8008944:	2700      	movs	r7, #0
 8008946:	e9d4 9501 	ldrd	r9, r5, [r4, #4]
 800894a:	f1b9 0901 	subs.w	r9, r9, #1
 800894e:	d505      	bpl.n	800895c <_fwalk_reent+0x24>
 8008950:	6824      	ldr	r4, [r4, #0]
 8008952:	2c00      	cmp	r4, #0
 8008954:	d1f7      	bne.n	8008946 <_fwalk_reent+0xe>
 8008956:	4638      	mov	r0, r7
 8008958:	e8bd 83f8 	ldmia.w	sp!, {r3, r4, r5, r6, r7, r8, r9, pc}
 800895c:	89ab      	ldrh	r3, [r5, #12]
 800895e:	2b01      	cmp	r3, #1
 8008960:	d907      	bls.n	8008972 <_fwalk_reent+0x3a>
 8008962:	f9b5 300e 	ldrsh.w	r3, [r5, #14]
 8008966:	3301      	adds	r3, #1
 8008968:	d003      	beq.n	8008972 <_fwalk_reent+0x3a>
 800896a:	4629      	mov	r1, r5
 800896c:	4630      	mov	r0, r6
 800896e:	47c0      	blx	r8
 8008970:	4307      	orrs	r7, r0
 8008972:	3568      	adds	r5, #104	; 0x68
 8008974:	e7e9      	b.n	800894a <_fwalk_reent+0x12>

08008976 <__retarget_lock_init_recursive>:
 8008976:	4770      	bx	lr

08008978 <__retarget_lock_acquire_recursive>:
 8008978:	4770      	bx	lr

0800897a <__retarget_lock_release_recursive>:
 800897a:	4770      	bx	lr

0800897c <__swhatbuf_r>:
 800897c:	b570      	push	{r4, r5, r6, lr}
 800897e:	460e      	mov	r6, r1
 8008980:	f9b1 100e 	ldrsh.w	r1, [r1, #14]
 8008984:	2900      	cmp	r1, #0
 8008986:	b096      	sub	sp, #88	; 0x58
 8008988:	4614      	mov	r4, r2
 800898a:	461d      	mov	r5, r3
 800898c:	da07      	bge.n	800899e <__swhatbuf_r+0x22>
 800898e:	2300      	movs	r3, #0
 8008990:	602b      	str	r3, [r5, #0]
 8008992:	89b3      	ldrh	r3, [r6, #12]
 8008994:	061a      	lsls	r2, r3, #24
 8008996:	d410      	bmi.n	80089ba <__swhatbuf_r+0x3e>
 8008998:	f44f 6380 	mov.w	r3, #1024	; 0x400
 800899c:	e00e      	b.n	80089bc <__swhatbuf_r+0x40>
 800899e:	466a      	mov	r2, sp
 80089a0:	f000 f902 	bl	8008ba8 <_fstat_r>
 80089a4:	2800      	cmp	r0, #0
 80089a6:	dbf2      	blt.n	800898e <__swhatbuf_r+0x12>
 80089a8:	9a01      	ldr	r2, [sp, #4]
 80089aa:	f402 4270 	and.w	r2, r2, #61440	; 0xf000
 80089ae:	f5a2 5300 	sub.w	r3, r2, #8192	; 0x2000
 80089b2:	425a      	negs	r2, r3
 80089b4:	415a      	adcs	r2, r3
 80089b6:	602a      	str	r2, [r5, #0]
 80089b8:	e7ee      	b.n	8008998 <__swhatbuf_r+0x1c>
 80089ba:	2340      	movs	r3, #64	; 0x40
 80089bc:	2000      	movs	r0, #0
 80089be:	6023      	str	r3, [r4, #0]
 80089c0:	b016      	add	sp, #88	; 0x58
 80089c2:	bd70      	pop	{r4, r5, r6, pc}

080089c4 <__smakebuf_r>:
 80089c4:	898b      	ldrh	r3, [r1, #12]
 80089c6:	b573      	push	{r0, r1, r4, r5, r6, lr}
 80089c8:	079d      	lsls	r5, r3, #30
 80089ca:	4606      	mov	r6, r0
 80089cc:	460c      	mov	r4, r1
 80089ce:	d507      	bpl.n	80089e0 <__smakebuf_r+0x1c>
 80089d0:	f104 0347 	add.w	r3, r4, #71	; 0x47
 80089d4:	6023      	str	r3, [r4, #0]
 80089d6:	6123      	str	r3, [r4, #16]
 80089d8:	2301      	movs	r3, #1
 80089da:	6163      	str	r3, [r4, #20]
 80089dc:	b002      	add	sp, #8
 80089de:	bd70      	pop	{r4, r5, r6, pc}
 80089e0:	ab01      	add	r3, sp, #4
 80089e2:	466a      	mov	r2, sp
 80089e4:	f7ff ffca 	bl	800897c <__swhatbuf_r>
 80089e8:	9900      	ldr	r1, [sp, #0]
 80089ea:	4605      	mov	r5, r0
 80089ec:	4630      	mov	r0, r6
 80089ee:	f7ff f987 	bl	8007d00 <_malloc_r>
 80089f2:	b948      	cbnz	r0, 8008a08 <__smakebuf_r+0x44>
 80089f4:	f9b4 300c 	ldrsh.w	r3, [r4, #12]
 80089f8:	059a      	lsls	r2, r3, #22
 80089fa:	d4ef      	bmi.n	80089dc <__smakebuf_r+0x18>
 80089fc:	f023 0303 	bic.w	r3, r3, #3
 8008a00:	f043 0302 	orr.w	r3, r3, #2
 8008a04:	81a3      	strh	r3, [r4, #12]
 8008a06:	e7e3      	b.n	80089d0 <__smakebuf_r+0xc>
 8008a08:	4b0d      	ldr	r3, [pc, #52]	; (8008a40 <__smakebuf_r+0x7c>)
 8008a0a:	62b3      	str	r3, [r6, #40]	; 0x28
 8008a0c:	89a3      	ldrh	r3, [r4, #12]
 8008a0e:	6020      	str	r0, [r4, #0]
 8008a10:	f043 0380 	orr.w	r3, r3, #128	; 0x80
 8008a14:	81a3      	strh	r3, [r4, #12]
 8008a16:	9b00      	ldr	r3, [sp, #0]
 8008a18:	6163      	str	r3, [r4, #20]
 8008a1a:	9b01      	ldr	r3, [sp, #4]
 8008a1c:	6120      	str	r0, [r4, #16]
 8008a1e:	b15b      	cbz	r3, 8008a38 <__smakebuf_r+0x74>
 8008a20:	f9b4 100e 	ldrsh.w	r1, [r4, #14]
 8008a24:	4630      	mov	r0, r6
 8008a26:	f000 f8d1 	bl	8008bcc <_isatty_r>
 8008a2a:	b128      	cbz	r0, 8008a38 <__smakebuf_r+0x74>
 8008a2c:	89a3      	ldrh	r3, [r4, #12]
 8008a2e:	f023 0303 	bic.w	r3, r3, #3
 8008a32:	f043 0301 	orr.w	r3, r3, #1
 8008a36:	81a3      	strh	r3, [r4, #12]
 8008a38:	89a0      	ldrh	r0, [r4, #12]
 8008a3a:	4305      	orrs	r5, r0
 8008a3c:	81a5      	strh	r5, [r4, #12]
 8008a3e:	e7cd      	b.n	80089dc <__smakebuf_r+0x18>
 8008a40:	080087d5 	.word	0x080087d5

08008a44 <_malloc_usable_size_r>:
 8008a44:	f851 3c04 	ldr.w	r3, [r1, #-4]
 8008a48:	1f18      	subs	r0, r3, #4
 8008a4a:	2b00      	cmp	r3, #0
 8008a4c:	bfbc      	itt	lt
 8008a4e:	580b      	ldrlt	r3, [r1, r0]
 8008a50:	18c0      	addlt	r0, r0, r3
 8008a52:	4770      	bx	lr

08008a54 <_raise_r>:
 8008a54:	291f      	cmp	r1, #31
 8008a56:	b538      	push	{r3, r4, r5, lr}
 8008a58:	4604      	mov	r4, r0
 8008a5a:	460d      	mov	r5, r1
 8008a5c:	d904      	bls.n	8008a68 <_raise_r+0x14>
 8008a5e:	2316      	movs	r3, #22
 8008a60:	6003      	str	r3, [r0, #0]
 8008a62:	f04f 30ff 	mov.w	r0, #4294967295	; 0xffffffff
 8008a66:	bd38      	pop	{r3, r4, r5, pc}
 8008a68:	6c42      	ldr	r2, [r0, #68]	; 0x44
 8008a6a:	b112      	cbz	r2, 8008a72 <_raise_r+0x1e>
 8008a6c:	f852 3021 	ldr.w	r3, [r2, r1, lsl #2]
 8008a70:	b94b      	cbnz	r3, 8008a86 <_raise_r+0x32>
 8008a72:	4620      	mov	r0, r4
 8008a74:	f000 f830 	bl	8008ad8 <_getpid_r>
 8008a78:	462a      	mov	r2, r5
 8008a7a:	4601      	mov	r1, r0
 8008a7c:	4620      	mov	r0, r4
 8008a7e:	e8bd 4038 	ldmia.w	sp!, {r3, r4, r5, lr}
 8008a82:	f000 b817 	b.w	8008ab4 <_kill_r>
 8008a86:	2b01      	cmp	r3, #1
 8008a88:	d00a      	beq.n	8008aa0 <_raise_r+0x4c>
 8008a8a:	1c59      	adds	r1, r3, #1
 8008a8c:	d103      	bne.n	8008a96 <_raise_r+0x42>
 8008a8e:	2316      	movs	r3, #22
 8008a90:	6003      	str	r3, [r0, #0]
 8008a92:	2001      	movs	r0, #1
 8008a94:	e7e7      	b.n	8008a66 <_raise_r+0x12>
 8008a96:	2400      	movs	r4, #0
 8008a98:	f842 4025 	str.w	r4, [r2, r5, lsl #2]
 8008a9c:	4628      	mov	r0, r5
 8008a9e:	4798      	blx	r3
 8008aa0:	2000      	movs	r0, #0
 8008aa2:	e7e0      	b.n	8008a66 <_raise_r+0x12>

08008aa4 <raise>:
 8008aa4:	4b02      	ldr	r3, [pc, #8]	; (8008ab0 <raise+0xc>)
 8008aa6:	4601      	mov	r1, r0
 8008aa8:	6818      	ldr	r0, [r3, #0]
 8008aaa:	f7ff bfd3 	b.w	8008a54 <_raise_r>
 8008aae:	bf00      	nop
 8008ab0:	20000024 	.word	0x20000024

08008ab4 <_kill_r>:
 8008ab4:	b538      	push	{r3, r4, r5, lr}
 8008ab6:	4d07      	ldr	r5, [pc, #28]	; (8008ad4 <_kill_r+0x20>)
 8008ab8:	2300      	movs	r3, #0
 8008aba:	4604      	mov	r4, r0
 8008abc:	4608      	mov	r0, r1
 8008abe:	4611      	mov	r1, r2
 8008ac0:	602b      	str	r3, [r5, #0]
 8008ac2:	f7f9 fbff 	bl	80022c4 <_kill>
 8008ac6:	1c43      	adds	r3, r0, #1
 8008ac8:	d102      	bne.n	8008ad0 <_kill_r+0x1c>
 8008aca:	682b      	ldr	r3, [r5, #0]
 8008acc:	b103      	cbz	r3, 8008ad0 <_kill_r+0x1c>
 8008ace:	6023      	str	r3, [r4, #0]
 8008ad0:	bd38      	pop	{r3, r4, r5, pc}
 8008ad2:	bf00      	nop
 8008ad4:	20000548 	.word	0x20000548

08008ad8 <_getpid_r>:
 8008ad8:	f7f9 bbec 	b.w	80022b4 <_getpid>

08008adc <__sread>:
 8008adc:	b510      	push	{r4, lr}
 8008ade:	460c      	mov	r4, r1
 8008ae0:	f9b1 100e 	ldrsh.w	r1, [r1, #14]
 8008ae4:	f000 f894 	bl	8008c10 <_read_r>
 8008ae8:	2800      	cmp	r0, #0
 8008aea:	bfab      	itete	ge
 8008aec:	6d63      	ldrge	r3, [r4, #84]	; 0x54
 8008aee:	89a3      	ldrhlt	r3, [r4, #12]
 8008af0:	181b      	addge	r3, r3, r0
 8008af2:	f423 5380 	biclt.w	r3, r3, #4096	; 0x1000
 8008af6:	bfac      	ite	ge
 8008af8:	6563      	strge	r3, [r4, #84]	; 0x54
 8008afa:	81a3      	strhlt	r3, [r4, #12]
 8008afc:	bd10      	pop	{r4, pc}

08008afe <__swrite>:
 8008afe:	e92d 41f0 	stmdb	sp!, {r4, r5, r6, r7, r8, lr}
 8008b02:	461f      	mov	r7, r3
 8008b04:	898b      	ldrh	r3, [r1, #12]
 8008b06:	05db      	lsls	r3, r3, #23
 8008b08:	4605      	mov	r5, r0
 8008b0a:	460c      	mov	r4, r1
 8008b0c:	4616      	mov	r6, r2
 8008b0e:	d505      	bpl.n	8008b1c <__swrite+0x1e>
 8008b10:	f9b1 100e 	ldrsh.w	r1, [r1, #14]
 8008b14:	2302      	movs	r3, #2
 8008b16:	2200      	movs	r2, #0
 8008b18:	f000 f868 	bl	8008bec <_lseek_r>
 8008b1c:	89a3      	ldrh	r3, [r4, #12]
 8008b1e:	f9b4 100e 	ldrsh.w	r1, [r4, #14]
 8008b22:	f423 5380 	bic.w	r3, r3, #4096	; 0x1000
 8008b26:	81a3      	strh	r3, [r4, #12]
 8008b28:	4632      	mov	r2, r6
 8008b2a:	463b      	mov	r3, r7
 8008b2c:	4628      	mov	r0, r5
 8008b2e:	e8bd 41f0 	ldmia.w	sp!, {r4, r5, r6, r7, r8, lr}
 8008b32:	f000 b817 	b.w	8008b64 <_write_r>

08008b36 <__sseek>:
 8008b36:	b510      	push	{r4, lr}
 8008b38:	460c      	mov	r4, r1
 8008b3a:	f9b1 100e 	ldrsh.w	r1, [r1, #14]
 8008b3e:	f000 f855 	bl	8008bec <_lseek_r>
 8008b42:	1c43      	adds	r3, r0, #1
 8008b44:	89a3      	ldrh	r3, [r4, #12]
 8008b46:	bf15      	itete	ne
 8008b48:	6560      	strne	r0, [r4, #84]	; 0x54
 8008b4a:	f423 5380 	biceq.w	r3, r3, #4096	; 0x1000
 8008b4e:	f443 5380 	orrne.w	r3, r3, #4096	; 0x1000
 8008b52:	81a3      	strheq	r3, [r4, #12]
 8008b54:	bf18      	it	ne
 8008b56:	81a3      	strhne	r3, [r4, #12]
 8008b58:	bd10      	pop	{r4, pc}

08008b5a <__sclose>:
 8008b5a:	f9b1 100e 	ldrsh.w	r1, [r1, #14]
 8008b5e:	f000 b813 	b.w	8008b88 <_close_r>
	...

08008b64 <_write_r>:
 8008b64:	b538      	push	{r3, r4, r5, lr}
 8008b66:	4d07      	ldr	r5, [pc, #28]	; (8008b84 <_write_r+0x20>)
 8008b68:	4604      	mov	r4, r0
 8008b6a:	4608      	mov	r0, r1
 8008b6c:	4611      	mov	r1, r2
 8008b6e:	2200      	movs	r2, #0
 8008b70:	602a      	str	r2, [r5, #0]
 8008b72:	461a      	mov	r2, r3
 8008b74:	f7f9 fbdd 	bl	8002332 <_write>
 8008b78:	1c43      	adds	r3, r0, #1
 8008b7a:	d102      	bne.n	8008b82 <_write_r+0x1e>
 8008b7c:	682b      	ldr	r3, [r5, #0]
 8008b7e:	b103      	cbz	r3, 8008b82 <_write_r+0x1e>
 8008b80:	6023      	str	r3, [r4, #0]
 8008b82:	bd38      	pop	{r3, r4, r5, pc}
 8008b84:	20000548 	.word	0x20000548

08008b88 <_close_r>:
 8008b88:	b538      	push	{r3, r4, r5, lr}
 8008b8a:	4d06      	ldr	r5, [pc, #24]	; (8008ba4 <_close_r+0x1c>)
 8008b8c:	2300      	movs	r3, #0
 8008b8e:	4604      	mov	r4, r0
 8008b90:	4608      	mov	r0, r1
 8008b92:	602b      	str	r3, [r5, #0]
 8008b94:	f7f9 fbe9 	bl	800236a <_close>
 8008b98:	1c43      	adds	r3, r0, #1
 8008b9a:	d102      	bne.n	8008ba2 <_close_r+0x1a>
 8008b9c:	682b      	ldr	r3, [r5, #0]
 8008b9e:	b103      	cbz	r3, 8008ba2 <_close_r+0x1a>
 8008ba0:	6023      	str	r3, [r4, #0]
 8008ba2:	bd38      	pop	{r3, r4, r5, pc}
 8008ba4:	20000548 	.word	0x20000548

08008ba8 <_fstat_r>:
 8008ba8:	b538      	push	{r3, r4, r5, lr}
 8008baa:	4d07      	ldr	r5, [pc, #28]	; (8008bc8 <_fstat_r+0x20>)
 8008bac:	2300      	movs	r3, #0
 8008bae:	4604      	mov	r4, r0
 8008bb0:	4608      	mov	r0, r1
 8008bb2:	4611      	mov	r1, r2
 8008bb4:	602b      	str	r3, [r5, #0]
 8008bb6:	f7f9 fbe4 	bl	8002382 <_fstat>
 8008bba:	1c43      	adds	r3, r0, #1
 8008bbc:	d102      	bne.n	8008bc4 <_fstat_r+0x1c>
 8008bbe:	682b      	ldr	r3, [r5, #0]
 8008bc0:	b103      	cbz	r3, 8008bc4 <_fstat_r+0x1c>
 8008bc2:	6023      	str	r3, [r4, #0]
 8008bc4:	bd38      	pop	{r3, r4, r5, pc}
 8008bc6:	bf00      	nop
 8008bc8:	20000548 	.word	0x20000548

08008bcc <_isatty_r>:
 8008bcc:	b538      	push	{r3, r4, r5, lr}
 8008bce:	4d06      	ldr	r5, [pc, #24]	; (8008be8 <_isatty_r+0x1c>)
 8008bd0:	2300      	movs	r3, #0
 8008bd2:	4604      	mov	r4, r0
 8008bd4:	4608      	mov	r0, r1
 8008bd6:	602b      	str	r3, [r5, #0]
 8008bd8:	f7f9 fbe3 	bl	80023a2 <_isatty>
 8008bdc:	1c43      	adds	r3, r0, #1
 8008bde:	d102      	bne.n	8008be6 <_isatty_r+0x1a>
 8008be0:	682b      	ldr	r3, [r5, #0]
 8008be2:	b103      	cbz	r3, 8008be6 <_isatty_r+0x1a>
 8008be4:	6023      	str	r3, [r4, #0]
 8008be6:	bd38      	pop	{r3, r4, r5, pc}
 8008be8:	20000548 	.word	0x20000548

08008bec <_lseek_r>:
 8008bec:	b538      	push	{r3, r4, r5, lr}
 8008bee:	4d07      	ldr	r5, [pc, #28]	; (8008c0c <_lseek_r+0x20>)
 8008bf0:	4604      	mov	r4, r0
 8008bf2:	4608      	mov	r0, r1
 8008bf4:	4611      	mov	r1, r2
 8008bf6:	2200      	movs	r2, #0
 8008bf8:	602a      	str	r2, [r5, #0]
 8008bfa:	461a      	mov	r2, r3
 8008bfc:	f7f9 fbdc 	bl	80023b8 <_lseek>
 8008c00:	1c43      	adds	r3, r0, #1
 8008c02:	d102      	bne.n	8008c0a <_lseek_r+0x1e>
 8008c04:	682b      	ldr	r3, [r5, #0]
 8008c06:	b103      	cbz	r3, 8008c0a <_lseek_r+0x1e>
 8008c08:	6023      	str	r3, [r4, #0]
 8008c0a:	bd38      	pop	{r3, r4, r5, pc}
 8008c0c:	20000548 	.word	0x20000548

08008c10 <_read_r>:
 8008c10:	b538      	push	{r3, r4, r5, lr}
 8008c12:	4d07      	ldr	r5, [pc, #28]	; (8008c30 <_read_r+0x20>)
 8008c14:	4604      	mov	r4, r0
 8008c16:	4608      	mov	r0, r1
 8008c18:	4611      	mov	r1, r2
 8008c1a:	2200      	movs	r2, #0
 8008c1c:	602a      	str	r2, [r5, #0]
 8008c1e:	461a      	mov	r2, r3
 8008c20:	f7f9 fb6a 	bl	80022f8 <_read>
 8008c24:	1c43      	adds	r3, r0, #1
 8008c26:	d102      	bne.n	8008c2e <_read_r+0x1e>
 8008c28:	682b      	ldr	r3, [r5, #0]
 8008c2a:	b103      	cbz	r3, 8008c2e <_read_r+0x1e>
 8008c2c:	6023      	str	r3, [r4, #0]
 8008c2e:	bd38      	pop	{r3, r4, r5, pc}
 8008c30:	20000548 	.word	0x20000548

08008c34 <_init>:
 8008c34:	b5f8      	push	{r3, r4, r5, r6, r7, lr}
 8008c36:	bf00      	nop
 8008c38:	bcf8      	pop	{r3, r4, r5, r6, r7}
 8008c3a:	bc08      	pop	{r3}
 8008c3c:	469e      	mov	lr, r3
 8008c3e:	4770      	bx	lr

08008c40 <_fini>:
 8008c40:	b5f8      	push	{r3, r4, r5, r6, r7, lr}
 8008c42:	bf00      	nop
 8008c44:	bcf8      	pop	{r3, r4, r5, r6, r7}
 8008c46:	bc08      	pop	{r3}
 8008c48:	469e      	mov	lr, r3
 8008c4a:	4770      	bx	lr
