
UltrasonicVest.elf:     file format elf32-littlearm

Sections:
Idx Name          Size      VMA       LMA       File off  Algn
  0 .isr_vector   000001c4  08000000  08000000  00010000  2**0
                  CONTENTS, ALLOC, LOAD, READONLY, DATA
  1 .text         00008abc  080001d0  080001d0  000101d0  2**4
                  CONTENTS, ALLOC, LOAD, READONLY, CODE
  2 .rodata       00000484  08008c90  08008c90  00018c90  2**3
                  CONTENTS, ALLOC, LOAD, READONLY, DATA
  3 .ARM.extab    00000000  08009114  08009114  000201f8  2**0
                  CONTENTS
  4 .ARM          00000008  08009114  08009114  00019114  2**2
                  CONTENTS, ALLOC, LOAD, READONLY, DATA
  5 .preinit_array 00000000  0800911c  0800911c  000201f8  2**0
                  CONTENTS, ALLOC, LOAD, DATA
  6 .init_array   00000004  0800911c  0800911c  0001911c  2**2
                  CONTENTS, ALLOC, LOAD, DATA
  7 .fini_array   00000004  08009120  08009120  00019120  2**2
                  CONTENTS, ALLOC, LOAD, DATA
  8 .data         000001f8  20000000  08009124  00020000  2**2
                  CONTENTS, ALLOC, LOAD, DATA
  9 .bss          00000364  200001f8  0800931c  000201f8  2**2
                  ALLOC
 10 ._user_heap_stack 00000604  2000055c  0800931c  0002055c  2**0
                  ALLOC
 11 .ARM.attributes 00000030  00000000  00000000  000201f8  2**0
                  CONTENTS, READONLY
 12 .debug_info   00011bab  00000000  00000000  00020228  2**0
                  CONTENTS, READONLY, DEBUGGING, OCTETS
 13 .debug_abbrev 00002420  00000000  00000000  00031dd3  2**0
                  CONTENTS, READONLY, DEBUGGING, OCTETS
 14 .debug_aranges 00000d98  00000000  00000000  000341f8  2**3
                  CONTENTS, READONLY, DEBUGGING, OCTETS
 15 .debug_ranges 00000ca8  00000000  00000000  00034f90  2**3
                  CONTENTS, READONLY, DEBUGGING, OCTETS
 16 .debug_macro  000232be  00000000  00000000  00035c38  2**0
                  CONTENTS, READONLY, DEBUGGING, OCTETS
 17 .debug_line   00010c6a  00000000  00000000  00058ef6  2**0
                  CONTENTS, READONLY, DEBUGGING, OCTETS
 18 .debug_str    000d2dbe  00000000  00000000  00069b60  2**0
                  CONTENTS, READONLY, DEBUGGING, OCTETS
 19 .comment      00000053  00000000  00000000  0013c91e  2**0
                  CONTENTS, READONLY
 20 .debug_frame  00004a0c  00000000  00000000  0013c974  2**2
                  CONTENTS, READONLY, DEBUGGING, OCTETS

Disassembly of section .text:

080001d0 <__do_global_dtors_aux>:
 80001d0:	b510      	push	{r4, lr}
 80001d2:	4c05      	ldr	r4, [pc, #20]	; (80001e8 <__do_global_dtors_aux+0x18>)
 80001d4:	7823      	ldrb	r3, [r4, #0]
 80001d6:	b933      	cbnz	r3, 80001e6 <__do_global_dtors_aux+0x16>
 80001d8:	4b04      	ldr	r3, [pc, #16]	; (80001ec <__do_global_dtors_aux+0x1c>)
 80001da:	b113      	cbz	r3, 80001e2 <__do_global_dtors_aux+0x12>
 80001dc:	4804      	ldr	r0, [pc, #16]	; (80001f0 <__do_global_dtors_aux+0x20>)
 80001de:	f3af 8000 	nop.w
 80001e2:	2301      	movs	r3, #1
 80001e4:	7023      	strb	r3, [r4, #0]
 80001e6:	bd10      	pop	{r4, pc}
 80001e8:	200001f8 	.word	0x200001f8
 80001ec:	00000000 	.word	0x00000000
 80001f0:	08008c74 	.word	0x08008c74

080001f4 <frame_dummy>:
 80001f4:	b508      	push	{r3, lr}
 80001f6:	4b03      	ldr	r3, [pc, #12]	; (8000204 <frame_dummy+0x10>)
 80001f8:	b11b      	cbz	r3, 8000202 <frame_dummy+0xe>
 80001fa:	4903      	ldr	r1, [pc, #12]	; (8000208 <frame_dummy+0x14>)
 80001fc:	4803      	ldr	r0, [pc, #12]	; (800020c <frame_dummy+0x18>)
 80001fe:	f3af 8000 	nop.w
 8000202:	bd08      	pop	{r3, pc}
 8000204:	00000000 	.word	0x00000000
 8000208:	200001fc 	.word	0x200001fc
 800020c:	08008c74 	.word	0x08008c74

08000210 <strlen>:
 8000210:	4603      	mov	r3, r0
 8000212:	f813 2b01 	ldrb.w	r2, [r3], #1
 8000216:	2a00      	cmp	r2, #0
 8000218:	d1fb      	bne.n	8000212 <strlen+0x2>
 800021a:	1a18      	subs	r0, r3, r0
 800021c:	3801      	subs	r0, #1
 800021e:	4770      	bx	lr

08000220 <memchr>:
 8000220:	f001 01ff 	and.w	r1, r1, #255	; 0xff
 8000224:	2a10      	cmp	r2, #16
 8000226:	db2b      	blt.n	8000280 <memchr+0x60>
 8000228:	f010 0f07 	tst.w	r0, #7
 800022c:	d008      	beq.n	8000240 <memchr+0x20>
 800022e:	f810 3b01 	ldrb.w	r3, [r0], #1
 8000232:	3a01      	subs	r2, #1
 8000234:	428b      	cmp	r3, r1
 8000236:	d02d      	beq.n	8000294 <memchr+0x74>
 8000238:	f010 0f07 	tst.w	r0, #7
 800023c:	b342      	cbz	r2, 8000290 <memchr+0x70>
 800023e:	d1f6      	bne.n	800022e <memchr+0xe>
 8000240:	b4f0      	push	{r4, r5, r6, r7}
 8000242:	ea41 2101 	orr.w	r1, r1, r1, lsl #8
 8000246:	ea41 4101 	orr.w	r1, r1, r1, lsl #16
 800024a:	f022 0407 	bic.w	r4, r2, #7
 800024e:	f07f 0700 	mvns.w	r7, #0
 8000252:	2300      	movs	r3, #0
 8000254:	e8f0 5602 	ldrd	r5, r6, [r0], #8
 8000258:	3c08      	subs	r4, #8
 800025a:	ea85 0501 	eor.w	r5, r5, r1
 800025e:	ea86 0601 	eor.w	r6, r6, r1
 8000262:	fa85 f547 	uadd8	r5, r5, r7
 8000266:	faa3 f587 	sel	r5, r3, r7
 800026a:	fa86 f647 	uadd8	r6, r6, r7
 800026e:	faa5 f687 	sel	r6, r5, r7
 8000272:	b98e      	cbnz	r6, 8000298 <memchr+0x78>
 8000274:	d1ee      	bne.n	8000254 <memchr+0x34>
 8000276:	bcf0      	pop	{r4, r5, r6, r7}
 8000278:	f001 01ff 	and.w	r1, r1, #255	; 0xff
 800027c:	f002 0207 	and.w	r2, r2, #7
 8000280:	b132      	cbz	r2, 8000290 <memchr+0x70>
 8000282:	f810 3b01 	ldrb.w	r3, [r0], #1
 8000286:	3a01      	subs	r2, #1
 8000288:	ea83 0301 	eor.w	r3, r3, r1
 800028c:	b113      	cbz	r3, 8000294 <memchr+0x74>
 800028e:	d1f8      	bne.n	8000282 <memchr+0x62>
 8000290:	2000      	movs	r0, #0
 8000292:	4770      	bx	lr
 8000294:	3801      	subs	r0, #1
 8000296:	4770      	bx	lr
 8000298:	2d00      	cmp	r5, #0
 800029a:	bf06      	itte	eq
 800029c:	4635      	moveq	r5, r6
 800029e:	3803      	subeq	r0, #3
 80002a0:	3807      	subne	r0, #7
 80002a2:	f015 0f01 	tst.w	r5, #1
 80002a6:	d107      	bne.n	80002b8 <memchr+0x98>
 80002a8:	3001      	adds	r0, #1
 80002aa:	f415 7f80 	tst.w	r5, #256	; 0x100
 80002ae:	bf02      	ittt	eq
 80002b0:	3001      	addeq	r0, #1
 80002b2:	f415 3fc0 	tsteq.w	r5, #98304	; 0x18000
 80002b6:	3001      	addeq	r0, #1
 80002b8:	bcf0      	pop	{r4, r5, r6, r7}
 80002ba:	3801      	subs	r0, #1
 80002bc:	4770      	bx	lr
 80002be:	bf00      	nop

080002c0 <__aeabi_drsub>:
 80002c0:	f081 4100 	eor.w	r1, r1, #2147483648	; 0x80000000
 80002c4:	e002      	b.n	80002cc <__adddf3>
 80002c6:	bf00      	nop

080002c8 <__aeabi_dsub>:
 80002c8:	f083 4300 	eor.w	r3, r3, #2147483648	; 0x80000000

080002cc <__adddf3>:
 80002cc:	b530      	push	{r4, r5, lr}
 80002ce:	ea4f 0441 	mov.w	r4, r1, lsl #1
 80002d2:	ea4f 0543 	mov.w	r5, r3, lsl #1
 80002d6:	ea94 0f05 	teq	r4, r5
 80002da:	bf08      	it	eq
 80002dc:	ea90 0f02 	teqeq	r0, r2
 80002e0:	bf1f      	itttt	ne
 80002e2:	ea54 0c00 	orrsne.w	ip, r4, r0
 80002e6:	ea55 0c02 	orrsne.w	ip, r5, r2
 80002ea:	ea7f 5c64 	mvnsne.w	ip, r4, asr #21
 80002ee:	ea7f 5c65 	mvnsne.w	ip, r5, asr #21
 80002f2:	f000 80e2 	beq.w	80004ba <__adddf3+0x1ee>
 80002f6:	ea4f 5454 	mov.w	r4, r4, lsr #21
 80002fa:	ebd4 5555 	rsbs	r5, r4, r5, lsr #21
 80002fe:	bfb8      	it	lt
 8000300:	426d      	neglt	r5, r5
 8000302:	dd0c      	ble.n	800031e <__adddf3+0x52>
 8000304:	442c      	add	r4, r5
 8000306:	ea80 0202 	eor.w	r2, r0, r2
 800030a:	ea81 0303 	eor.w	r3, r1, r3
 800030e:	ea82 0000 	eor.w	r0, r2, r0
 8000312:	ea83 0101 	eor.w	r1, r3, r1
 8000316:	ea80 0202 	eor.w	r2, r0, r2
 800031a:	ea81 0303 	eor.w	r3, r1, r3
 800031e:	2d36      	cmp	r5, #54	; 0x36
 8000320:	bf88      	it	hi
 8000322:	bd30      	pophi	{r4, r5, pc}
 8000324:	f011 4f00 	tst.w	r1, #2147483648	; 0x80000000
 8000328:	ea4f 3101 	mov.w	r1, r1, lsl #12
 800032c:	f44f 1c80 	mov.w	ip, #1048576	; 0x100000
 8000330:	ea4c 3111 	orr.w	r1, ip, r1, lsr #12
 8000334:	d002      	beq.n	800033c <__adddf3+0x70>
 8000336:	4240      	negs	r0, r0
 8000338:	eb61 0141 	sbc.w	r1, r1, r1, lsl #1
 800033c:	f013 4f00 	tst.w	r3, #2147483648	; 0x80000000
 8000340:	ea4f 3303 	mov.w	r3, r3, lsl #12
 8000344:	ea4c 3313 	orr.w	r3, ip, r3, lsr #12
 8000348:	d002      	beq.n	8000350 <__adddf3+0x84>
 800034a:	4252      	negs	r2, r2
 800034c:	eb63 0343 	sbc.w	r3, r3, r3, lsl #1
 8000350:	ea94 0f05 	teq	r4, r5
 8000354:	f000 80a7 	beq.w	80004a6 <__adddf3+0x1da>
 8000358:	f1a4 0401 	sub.w	r4, r4, #1
 800035c:	f1d5 0e20 	rsbs	lr, r5, #32
 8000360:	db0d      	blt.n	800037e <__adddf3+0xb2>
 8000362:	fa02 fc0e 	lsl.w	ip, r2, lr
 8000366:	fa22 f205 	lsr.w	r2, r2, r5
 800036a:	1880      	adds	r0, r0, r2
 800036c:	f141 0100 	adc.w	r1, r1, #0
 8000370:	fa03 f20e 	lsl.w	r2, r3, lr
 8000374:	1880      	adds	r0, r0, r2
 8000376:	fa43 f305 	asr.w	r3, r3, r5
 800037a:	4159      	adcs	r1, r3
 800037c:	e00e      	b.n	800039c <__adddf3+0xd0>
 800037e:	f1a5 0520 	sub.w	r5, r5, #32
 8000382:	f10e 0e20 	add.w	lr, lr, #32
 8000386:	2a01      	cmp	r2, #1
 8000388:	fa03 fc0e 	lsl.w	ip, r3, lr
 800038c:	bf28      	it	cs
 800038e:	f04c 0c02 	orrcs.w	ip, ip, #2
 8000392:	fa43 f305 	asr.w	r3, r3, r5
 8000396:	18c0      	adds	r0, r0, r3
 8000398:	eb51 71e3 	adcs.w	r1, r1, r3, asr #31
 800039c:	f001 4500 	and.w	r5, r1, #2147483648	; 0x80000000
 80003a0:	d507      	bpl.n	80003b2 <__adddf3+0xe6>
 80003a2:	f04f 0e00 	mov.w	lr, #0
 80003a6:	f1dc 0c00 	rsbs	ip, ip, #0
 80003aa:	eb7e 0000 	sbcs.w	r0, lr, r0
 80003ae:	eb6e 0101 	sbc.w	r1, lr, r1
 80003b2:	f5b1 1f80 	cmp.w	r1, #1048576	; 0x100000
 80003b6:	d31b      	bcc.n	80003f0 <__adddf3+0x124>
 80003b8:	f5b1 1f00 	cmp.w	r1, #2097152	; 0x200000
 80003bc:	d30c      	bcc.n	80003d8 <__adddf3+0x10c>
 80003be:	0849      	lsrs	r1, r1, #1
 80003c0:	ea5f 0030 	movs.w	r0, r0, rrx
 80003c4:	ea4f 0c3c 	mov.w	ip, ip, rrx
 80003c8:	f104 0401 	add.w	r4, r4, #1
 80003cc:	ea4f 5244 	mov.w	r2, r4, lsl #21
 80003d0:	f512 0f80 	cmn.w	r2, #4194304	; 0x400000
 80003d4:	f080 809a 	bcs.w	800050c <__adddf3+0x240>
 80003d8:	f1bc 4f00 	cmp.w	ip, #2147483648	; 0x80000000
 80003dc:	bf08      	it	eq
 80003de:	ea5f 0c50 	movseq.w	ip, r0, lsr #1
 80003e2:	f150 0000 	adcs.w	r0, r0, #0
 80003e6:	eb41 5104 	adc.w	r1, r1, r4, lsl #20
 80003ea:	ea41 0105 	orr.w	r1, r1, r5
 80003ee:	bd30      	pop	{r4, r5, pc}
 80003f0:	ea5f 0c4c 	movs.w	ip, ip, lsl #1
 80003f4:	4140      	adcs	r0, r0
 80003f6:	eb41 0101 	adc.w	r1, r1, r1
 80003fa:	3c01      	subs	r4, #1
 80003fc:	bf28      	it	cs
 80003fe:	f5b1 1f80 	cmpcs.w	r1, #1048576	; 0x100000
 8000402:	d2e9      	bcs.n	80003d8 <__adddf3+0x10c>
 8000404:	f091 0f00 	teq	r1, #0
 8000408:	bf04      	itt	eq
 800040a:	4601      	moveq	r1, r0
 800040c:	2000      	moveq	r0, #0
 800040e:	fab1 f381 	clz	r3, r1
 8000412:	bf08      	it	eq
 8000414:	3320      	addeq	r3, #32
 8000416:	f1a3 030b 	sub.w	r3, r3, #11
 800041a:	f1b3 0220 	subs.w	r2, r3, #32
 800041e:	da0c      	bge.n	800043a <__adddf3+0x16e>
 8000420:	320c      	adds	r2, #12
 8000422:	dd08      	ble.n	8000436 <__adddf3+0x16a>
 8000424:	f102 0c14 	add.w	ip, r2, #20
 8000428:	f1c2 020c 	rsb	r2, r2, #12
 800042c:	fa01 f00c 	lsl.w	r0, r1, ip
 8000430:	fa21 f102 	lsr.w	r1, r1, r2
 8000434:	e00c      	b.n	8000450 <__adddf3+0x184>
 8000436:	f102 0214 	add.w	r2, r2, #20
 800043a:	bfd8      	it	le
 800043c:	f1c2 0c20 	rsble	ip, r2, #32
 8000440:	fa01 f102 	lsl.w	r1, r1, r2
 8000444:	fa20 fc0c 	lsr.w	ip, r0, ip
 8000448:	bfdc      	itt	le
 800044a:	ea41 010c 	orrle.w	r1, r1, ip
 800044e:	4090      	lslle	r0, r2
 8000450:	1ae4      	subs	r4, r4, r3
 8000452:	bfa2      	ittt	ge
 8000454:	eb01 5104 	addge.w	r1, r1, r4, lsl #20
 8000458:	4329      	orrge	r1, r5
 800045a:	bd30      	popge	{r4, r5, pc}
 800045c:	ea6f 0404 	mvn.w	r4, r4
 8000460:	3c1f      	subs	r4, #31
 8000462:	da1c      	bge.n	800049e <__adddf3+0x1d2>
 8000464:	340c      	adds	r4, #12
 8000466:	dc0e      	bgt.n	8000486 <__adddf3+0x1ba>
 8000468:	f104 0414 	add.w	r4, r4, #20
 800046c:	f1c4 0220 	rsb	r2, r4, #32
 8000470:	fa20 f004 	lsr.w	r0, r0, r4
 8000474:	fa01 f302 	lsl.w	r3, r1, r2
 8000478:	ea40 0003 	orr.w	r0, r0, r3
 800047c:	fa21 f304 	lsr.w	r3, r1, r4
 8000480:	ea45 0103 	orr.w	r1, r5, r3
 8000484:	bd30      	pop	{r4, r5, pc}
 8000486:	f1c4 040c 	rsb	r4, r4, #12
 800048a:	f1c4 0220 	rsb	r2, r4, #32
 800048e:	fa20 f002 	lsr.w	r0, r0, r2
 8000492:	fa01 f304 	lsl.w	r3, r1, r4
 8000496:	ea40 0003 	orr.w	r0, r0, r3
 800049a:	4629      	mov	r1, r5
 800049c:	bd30      	pop	{r4, r5, pc}
 800049e:	fa21 f004 	lsr.w	r0, r1, r4
 80004a2:	4629      	mov	r1, r5
 80004a4:	bd30      	pop	{r4, r5, pc}
 80004a6:	f094 0f00 	teq	r4, #0
 80004aa:	f483 1380 	eor.w	r3, r3, #1048576	; 0x100000
 80004ae:	bf06      	itte	eq
 80004b0:	f481 1180 	eoreq.w	r1, r1, #1048576	; 0x100000
 80004b4:	3401      	addeq	r4, #1
 80004b6:	3d01      	subne	r5, #1
 80004b8:	e74e      	b.n	8000358 <__adddf3+0x8c>
 80004ba:	ea7f 5c64 	mvns.w	ip, r4, asr #21
 80004be:	bf18      	it	ne
 80004c0:	ea7f 5c65 	mvnsne.w	ip, r5, asr #21
 80004c4:	d029      	beq.n	800051a <__adddf3+0x24e>
 80004c6:	ea94 0f05 	teq	r4, r5
 80004ca:	bf08      	it	eq
 80004cc:	ea90 0f02 	teqeq	r0, r2
 80004d0:	d005      	beq.n	80004de <__adddf3+0x212>
 80004d2:	ea54 0c00 	orrs.w	ip, r4, r0
 80004d6:	bf04      	itt	eq
 80004d8:	4619      	moveq	r1, r3
 80004da:	4610      	moveq	r0, r2
 80004dc:	bd30      	pop	{r4, r5, pc}
 80004de:	ea91 0f03 	teq	r1, r3
 80004e2:	bf1e      	ittt	ne
 80004e4:	2100      	movne	r1, #0
 80004e6:	2000      	movne	r0, #0
 80004e8:	bd30      	popne	{r4, r5, pc}
 80004ea:	ea5f 5c54 	movs.w	ip, r4, lsr #21
 80004ee:	d105      	bne.n	80004fc <__adddf3+0x230>
 80004f0:	0040      	lsls	r0, r0, #1
 80004f2:	4149      	adcs	r1, r1
 80004f4:	bf28      	it	cs
 80004f6:	f041 4100 	orrcs.w	r1, r1, #2147483648	; 0x80000000
 80004fa:	bd30      	pop	{r4, r5, pc}
 80004fc:	f514 0480 	adds.w	r4, r4, #4194304	; 0x400000
 8000500:	bf3c      	itt	cc
 8000502:	f501 1180 	addcc.w	r1, r1, #1048576	; 0x100000
 8000506:	bd30      	popcc	{r4, r5, pc}
 8000508:	f001 4500 	and.w	r5, r1, #2147483648	; 0x80000000
 800050c:	f045 41fe 	orr.w	r1, r5, #2130706432	; 0x7f000000
 8000510:	f441 0170 	orr.w	r1, r1, #15728640	; 0xf00000
 8000514:	f04f 0000 	mov.w	r0, #0
 8000518:	bd30      	pop	{r4, r5, pc}
 800051a:	ea7f 5c64 	mvns.w	ip, r4, asr #21
 800051e:	bf1a      	itte	ne
 8000520:	4619      	movne	r1, r3
 8000522:	4610      	movne	r0, r2
 8000524:	ea7f 5c65 	mvnseq.w	ip, r5, asr #21
 8000528:	bf1c      	itt	ne
 800052a:	460b      	movne	r3, r1
 800052c:	4602      	movne	r2, r0
 800052e:	ea50 3401 	orrs.w	r4, r0, r1, lsl #12
 8000532:	bf06      	itte	eq
 8000534:	ea52 3503 	orrseq.w	r5, r2, r3, lsl #12
 8000538:	ea91 0f03 	teqeq	r1, r3
 800053c:	f441 2100 	orrne.w	r1, r1, #524288	; 0x80000
 8000540:	bd30      	pop	{r4, r5, pc}
 8000542:	bf00      	nop

08000544 <__aeabi_ui2d>:
 8000544:	f090 0f00 	teq	r0, #0
 8000548:	bf04      	itt	eq
 800054a:	2100      	moveq	r1, #0
 800054c:	4770      	bxeq	lr
 800054e:	b530      	push	{r4, r5, lr}
 8000550:	f44f 6480 	mov.w	r4, #1024	; 0x400
 8000554:	f104 0432 	add.w	r4, r4, #50	; 0x32
 8000558:	f04f 0500 	mov.w	r5, #0
 800055c:	f04f 0100 	mov.w	r1, #0
 8000560:	e750      	b.n	8000404 <__adddf3+0x138>
 8000562:	bf00      	nop

08000564 <__aeabi_i2d>:
 8000564:	f090 0f00 	teq	r0, #0
 8000568:	bf04      	itt	eq
 800056a:	2100      	moveq	r1, #0
 800056c:	4770      	bxeq	lr
 800056e:	b530      	push	{r4, r5, lr}
 8000570:	f44f 6480 	mov.w	r4, #1024	; 0x400
 8000574:	f104 0432 	add.w	r4, r4, #50	; 0x32
 8000578:	f010 4500 	ands.w	r5, r0, #2147483648	; 0x80000000
 800057c:	bf48      	it	mi
 800057e:	4240      	negmi	r0, r0
 8000580:	f04f 0100 	mov.w	r1, #0
 8000584:	e73e      	b.n	8000404 <__adddf3+0x138>
 8000586:	bf00      	nop

08000588 <__aeabi_f2d>:
 8000588:	0042      	lsls	r2, r0, #1
 800058a:	ea4f 01e2 	mov.w	r1, r2, asr #3
 800058e:	ea4f 0131 	mov.w	r1, r1, rrx
 8000592:	ea4f 7002 	mov.w	r0, r2, lsl #28
 8000596:	bf1f      	itttt	ne
 8000598:	f012 437f 	andsne.w	r3, r2, #4278190080	; 0xff000000
 800059c:	f093 4f7f 	teqne	r3, #4278190080	; 0xff000000
 80005a0:	f081 5160 	eorne.w	r1, r1, #939524096	; 0x38000000
 80005a4:	4770      	bxne	lr
 80005a6:	f032 427f 	bics.w	r2, r2, #4278190080	; 0xff000000
 80005aa:	bf08      	it	eq
 80005ac:	4770      	bxeq	lr
 80005ae:	f093 4f7f 	teq	r3, #4278190080	; 0xff000000
 80005b2:	bf04      	itt	eq
 80005b4:	f441 2100 	orreq.w	r1, r1, #524288	; 0x80000
 80005b8:	4770      	bxeq	lr
 80005ba:	b530      	push	{r4, r5, lr}
 80005bc:	f44f 7460 	mov.w	r4, #896	; 0x380
 80005c0:	f001 4500 	and.w	r5, r1, #2147483648	; 0x80000000
 80005c4:	f021 4100 	bic.w	r1, r1, #2147483648	; 0x80000000
 80005c8:	e71c      	b.n	8000404 <__adddf3+0x138>
 80005ca:	bf00      	nop

080005cc <__aeabi_ul2d>:
 80005cc:	ea50 0201 	orrs.w	r2, r0, r1
 80005d0:	bf08      	it	eq
 80005d2:	4770      	bxeq	lr
 80005d4:	b530      	push	{r4, r5, lr}
 80005d6:	f04f 0500 	mov.w	r5, #0
 80005da:	e00a      	b.n	80005f2 <__aeabi_l2d+0x16>

080005dc <__aeabi_l2d>:
 80005dc:	ea50 0201 	orrs.w	r2, r0, r1
 80005e0:	bf08      	it	eq
 80005e2:	4770      	bxeq	lr
 80005e4:	b530      	push	{r4, r5, lr}
 80005e6:	f011 4500 	ands.w	r5, r1, #2147483648	; 0x80000000
 80005ea:	d502      	bpl.n	80005f2 <__aeabi_l2d+0x16>
 80005ec:	4240      	negs	r0, r0
 80005ee:	eb61 0141 	sbc.w	r1, r1, r1, lsl #1
 80005f2:	f44f 6480 	mov.w	r4, #1024	; 0x400
 80005f6:	f104 0432 	add.w	r4, r4, #50	; 0x32
 80005fa:	ea5f 5c91 	movs.w	ip, r1, lsr #22
 80005fe:	f43f aed8 	beq.w	80003b2 <__adddf3+0xe6>
 8000602:	f04f 0203 	mov.w	r2, #3
 8000606:	ea5f 0cdc 	movs.w	ip, ip, lsr #3
 800060a:	bf18      	it	ne
 800060c:	3203      	addne	r2, #3
 800060e:	ea5f 0cdc 	movs.w	ip, ip, lsr #3
 8000612:	bf18      	it	ne
 8000614:	3203      	addne	r2, #3
 8000616:	eb02 02dc 	add.w	r2, r2, ip, lsr #3
 800061a:	f1c2 0320 	rsb	r3, r2, #32
 800061e:	fa00 fc03 	lsl.w	ip, r0, r3
 8000622:	fa20 f002 	lsr.w	r0, r0, r2
 8000626:	fa01 fe03 	lsl.w	lr, r1, r3
 800062a:	ea40 000e 	orr.w	r0, r0, lr
 800062e:	fa21 f102 	lsr.w	r1, r1, r2
 8000632:	4414      	add	r4, r2
 8000634:	e6bd      	b.n	80003b2 <__adddf3+0xe6>
 8000636:	bf00      	nop

08000638 <__aeabi_dmul>:
 8000638:	b570      	push	{r4, r5, r6, lr}
 800063a:	f04f 0cff 	mov.w	ip, #255	; 0xff
 800063e:	f44c 6ce0 	orr.w	ip, ip, #1792	; 0x700
 8000642:	ea1c 5411 	ands.w	r4, ip, r1, lsr #20
 8000646:	bf1d      	ittte	ne
 8000648:	ea1c 5513 	andsne.w	r5, ip, r3, lsr #20
 800064c:	ea94 0f0c 	teqne	r4, ip
 8000650:	ea95 0f0c 	teqne	r5, ip
 8000654:	f000 f8de 	bleq	8000814 <__aeabi_dmul+0x1dc>
 8000658:	442c      	add	r4, r5
 800065a:	ea81 0603 	eor.w	r6, r1, r3
 800065e:	ea21 514c 	bic.w	r1, r1, ip, lsl #21
 8000662:	ea23 534c 	bic.w	r3, r3, ip, lsl #21
 8000666:	ea50 3501 	orrs.w	r5, r0, r1, lsl #12
 800066a:	bf18      	it	ne
 800066c:	ea52 3503 	orrsne.w	r5, r2, r3, lsl #12
 8000670:	f441 1180 	orr.w	r1, r1, #1048576	; 0x100000
 8000674:	f443 1380 	orr.w	r3, r3, #1048576	; 0x100000
 8000678:	d038      	beq.n	80006ec <__aeabi_dmul+0xb4>
 800067a:	fba0 ce02 	umull	ip, lr, r0, r2
 800067e:	f04f 0500 	mov.w	r5, #0
 8000682:	fbe1 e502 	umlal	lr, r5, r1, r2
 8000686:	f006 4200 	and.w	r2, r6, #2147483648	; 0x80000000
 800068a:	fbe0 e503 	umlal	lr, r5, r0, r3
 800068e:	f04f 0600 	mov.w	r6, #0
 8000692:	fbe1 5603 	umlal	r5, r6, r1, r3
 8000696:	f09c 0f00 	teq	ip, #0
 800069a:	bf18      	it	ne
 800069c:	f04e 0e01 	orrne.w	lr, lr, #1
 80006a0:	f1a4 04ff 	sub.w	r4, r4, #255	; 0xff
 80006a4:	f5b6 7f00 	cmp.w	r6, #512	; 0x200
 80006a8:	f564 7440 	sbc.w	r4, r4, #768	; 0x300
 80006ac:	d204      	bcs.n	80006b8 <__aeabi_dmul+0x80>
 80006ae:	ea5f 0e4e 	movs.w	lr, lr, lsl #1
 80006b2:	416d      	adcs	r5, r5
 80006b4:	eb46 0606 	adc.w	r6, r6, r6
 80006b8:	ea42 21c6 	orr.w	r1, r2, r6, lsl #11
 80006bc:	ea41 5155 	orr.w	r1, r1, r5, lsr #21
 80006c0:	ea4f 20c5 	mov.w	r0, r5, lsl #11
 80006c4:	ea40 505e 	orr.w	r0, r0, lr, lsr #21
 80006c8:	ea4f 2ece 	mov.w	lr, lr, lsl #11
 80006cc:	f1b4 0cfd 	subs.w	ip, r4, #253	; 0xfd
 80006d0:	bf88      	it	hi
 80006d2:	f5bc 6fe0 	cmphi.w	ip, #1792	; 0x700
 80006d6:	d81e      	bhi.n	8000716 <__aeabi_dmul+0xde>
 80006d8:	f1be 4f00 	cmp.w	lr, #2147483648	; 0x80000000
 80006dc:	bf08      	it	eq
 80006de:	ea5f 0e50 	movseq.w	lr, r0, lsr #1
 80006e2:	f150 0000 	adcs.w	r0, r0, #0
 80006e6:	eb41 5104 	adc.w	r1, r1, r4, lsl #20
 80006ea:	bd70      	pop	{r4, r5, r6, pc}
 80006ec:	f006 4600 	and.w	r6, r6, #2147483648	; 0x80000000
 80006f0:	ea46 0101 	orr.w	r1, r6, r1
 80006f4:	ea40 0002 	orr.w	r0, r0, r2
 80006f8:	ea81 0103 	eor.w	r1, r1, r3
 80006fc:	ebb4 045c 	subs.w	r4, r4, ip, lsr #1
 8000700:	bfc2      	ittt	gt
 8000702:	ebd4 050c 	rsbsgt	r5, r4, ip
 8000706:	ea41 5104 	orrgt.w	r1, r1, r4, lsl #20
 800070a:	bd70      	popgt	{r4, r5, r6, pc}
 800070c:	f441 1180 	orr.w	r1, r1, #1048576	; 0x100000
 8000710:	f04f 0e00 	mov.w	lr, #0
 8000714:	3c01      	subs	r4, #1
 8000716:	f300 80ab 	bgt.w	8000870 <__aeabi_dmul+0x238>
 800071a:	f114 0f36 	cmn.w	r4, #54	; 0x36
 800071e:	bfde      	ittt	le
 8000720:	2000      	movle	r0, #0
 8000722:	f001 4100 	andle.w	r1, r1, #2147483648	; 0x80000000
 8000726:	bd70      	pople	{r4, r5, r6, pc}
 8000728:	f1c4 0400 	rsb	r4, r4, #0
 800072c:	3c20      	subs	r4, #32
 800072e:	da35      	bge.n	800079c <__aeabi_dmul+0x164>
 8000730:	340c      	adds	r4, #12
 8000732:	dc1b      	bgt.n	800076c <__aeabi_dmul+0x134>
 8000734:	f104 0414 	add.w	r4, r4, #20
 8000738:	f1c4 0520 	rsb	r5, r4, #32
 800073c:	fa00 f305 	lsl.w	r3, r0, r5
 8000740:	fa20 f004 	lsr.w	r0, r0, r4
 8000744:	fa01 f205 	lsl.w	r2, r1, r5
 8000748:	ea40 0002 	orr.w	r0, r0, r2
 800074c:	f001 4200 	and.w	r2, r1, #2147483648	; 0x80000000
 8000750:	f021 4100 	bic.w	r1, r1, #2147483648	; 0x80000000
 8000754:	eb10 70d3 	adds.w	r0, r0, r3, lsr #31
 8000758:	fa21 f604 	lsr.w	r6, r1, r4
 800075c:	eb42 0106 	adc.w	r1, r2, r6
 8000760:	ea5e 0e43 	orrs.w	lr, lr, r3, lsl #1
 8000764:	bf08      	it	eq
 8000766:	ea20 70d3 	biceq.w	r0, r0, r3, lsr #31
 800076a:	bd70      	pop	{r4, r5, r6, pc}
 800076c:	f1c4 040c 	rsb	r4, r4, #12
 8000770:	f1c4 0520 	rsb	r5, r4, #32
 8000774:	fa00 f304 	lsl.w	r3, r0, r4
 8000778:	fa20 f005 	lsr.w	r0, r0, r5
 800077c:	fa01 f204 	lsl.w	r2, r1, r4
 8000780:	ea40 0002 	orr.w	r0, r0, r2
 8000784:	f001 4100 	and.w	r1, r1, #2147483648	; 0x80000000
 8000788:	eb10 70d3 	adds.w	r0, r0, r3, lsr #31
 800078c:	f141 0100 	adc.w	r1, r1, #0
 8000790:	ea5e 0e43 	orrs.w	lr, lr, r3, lsl #1
 8000794:	bf08      	it	eq
 8000796:	ea20 70d3 	biceq.w	r0, r0, r3, lsr #31
 800079a:	bd70      	pop	{r4, r5, r6, pc}
 800079c:	f1c4 0520 	rsb	r5, r4, #32
 80007a0:	fa00 f205 	lsl.w	r2, r0, r5
 80007a4:	ea4e 0e02 	orr.w	lr, lr, r2
 80007a8:	fa20 f304 	lsr.w	r3, r0, r4
 80007ac:	fa01 f205 	lsl.w	r2, r1, r5
 80007b0:	ea43 0302 	orr.w	r3, r3, r2
 80007b4:	fa21 f004 	lsr.w	r0, r1, r4
 80007b8:	f001 4100 	and.w	r1, r1, #2147483648	; 0x80000000
 80007bc:	fa21 f204 	lsr.w	r2, r1, r4
 80007c0:	ea20 0002 	bic.w	r0, r0, r2
 80007c4:	eb00 70d3 	add.w	r0, r0, r3, lsr #31
 80007c8:	ea5e 0e43 	orrs.w	lr, lr, r3, lsl #1
 80007cc:	bf08      	it	eq
 80007ce:	ea20 70d3 	biceq.w	r0, r0, r3, lsr #31
 80007d2:	bd70      	pop	{r4, r5, r6, pc}
 80007d4:	f094 0f00 	teq	r4, #0
 80007d8:	d10f      	bne.n	80007fa <__aeabi_dmul+0x1c2>
 80007da:	f001 4600 	and.w	r6, r1, #2147483648	; 0x80000000
 80007de:	0040      	lsls	r0, r0, #1
 80007e0:	eb41 0101 	adc.w	r1, r1, r1
 80007e4:	f411 1f80 	tst.w	r1, #1048576	; 0x100000
 80007e8:	bf08      	it	eq
 80007ea:	3c01      	subeq	r4, #1
 80007ec:	d0f7      	beq.n	80007de <__aeabi_dmul+0x1a6>
 80007ee:	ea41 0106 	orr.w	r1, r1, r6
 80007f2:	f095 0f00 	teq	r5, #0
 80007f6:	bf18      	it	ne
 80007f8:	4770      	bxne	lr
 80007fa:	f003 4600 	and.w	r6, r3, #2147483648	; 0x80000000
 80007fe:	0052      	lsls	r2, r2, #1
 8000800:	eb43 0303 	adc.w	r3, r3, r3
 8000804:	f413 1f80 	tst.w	r3, #1048576	; 0x100000
 8000808:	bf08      	it	eq
 800080a:	3d01      	subeq	r5, #1
 800080c:	d0f7      	beq.n	80007fe <__aeabi_dmul+0x1c6>
 800080e:	ea43 0306 	orr.w	r3, r3, r6
 8000812:	4770      	bx	lr
 8000814:	ea94 0f0c 	teq	r4, ip
 8000818:	ea0c 5513 	and.w	r5, ip, r3, lsr #20
 800081c:	bf18      	it	ne
 800081e:	ea95 0f0c 	teqne	r5, ip
 8000822:	d00c      	beq.n	800083e <__aeabi_dmul+0x206>
 8000824:	ea50 0641 	orrs.w	r6, r0, r1, lsl #1
 8000828:	bf18      	it	ne
 800082a:	ea52 0643 	orrsne.w	r6, r2, r3, lsl #1
 800082e:	d1d1      	bne.n	80007d4 <__aeabi_dmul+0x19c>
 8000830:	ea81 0103 	eor.w	r1, r1, r3
 8000834:	f001 4100 	and.w	r1, r1, #2147483648	; 0x80000000
 8000838:	f04f 0000 	mov.w	r0, #0
 800083c:	bd70      	pop	{r4, r5, r6, pc}
 800083e:	ea50 0641 	orrs.w	r6, r0, r1, lsl #1
 8000842:	bf06      	itte	eq
 8000844:	4610      	moveq	r0, r2
 8000846:	4619      	moveq	r1, r3
 8000848:	ea52 0643 	orrsne.w	r6, r2, r3, lsl #1
 800084c:	d019      	beq.n	8000882 <__aeabi_dmul+0x24a>
 800084e:	ea94 0f0c 	teq	r4, ip
 8000852:	d102      	bne.n	800085a <__aeabi_dmul+0x222>
 8000854:	ea50 3601 	orrs.w	r6, r0, r1, lsl #12
 8000858:	d113      	bne.n	8000882 <__aeabi_dmul+0x24a>
 800085a:	ea95 0f0c 	teq	r5, ip
 800085e:	d105      	bne.n	800086c <__aeabi_dmul+0x234>
 8000860:	ea52 3603 	orrs.w	r6, r2, r3, lsl #12
 8000864:	bf1c      	itt	ne
 8000866:	4610      	movne	r0, r2
 8000868:	4619      	movne	r1, r3
 800086a:	d10a      	bne.n	8000882 <__aeabi_dmul+0x24a>
 800086c:	ea81 0103 	eor.w	r1, r1, r3
 8000870:	f001 4100 	and.w	r1, r1, #2147483648	; 0x80000000
 8000874:	f041 41fe 	orr.w	r1, r1, #2130706432	; 0x7f000000
 8000878:	f441 0170 	orr.w	r1, r1, #15728640	; 0xf00000
 800087c:	f04f 0000 	mov.w	r0, #0
 8000880:	bd70      	pop	{r4, r5, r6, pc}
 8000882:	f041 41fe 	orr.w	r1, r1, #2130706432	; 0x7f000000
 8000886:	f441 0178 	orr.w	r1, r1, #16252928	; 0xf80000
 800088a:	bd70      	pop	{r4, r5, r6, pc}

0800088c <__aeabi_ddiv>:
 800088c:	b570      	push	{r4, r5, r6, lr}
 800088e:	f04f 0cff 	mov.w	ip, #255	; 0xff
 8000892:	f44c 6ce0 	orr.w	ip, ip, #1792	; 0x700
 8000896:	ea1c 5411 	ands.w	r4, ip, r1, lsr #20
 800089a:	bf1d      	ittte	ne
 800089c:	ea1c 5513 	andsne.w	r5, ip, r3, lsr #20
 80008a0:	ea94 0f0c 	teqne	r4, ip
 80008a4:	ea95 0f0c 	teqne	r5, ip
 80008a8:	f000 f8a7 	bleq	80009fa <__aeabi_ddiv+0x16e>
 80008ac:	eba4 0405 	sub.w	r4, r4, r5
 80008b0:	ea81 0e03 	eor.w	lr, r1, r3
 80008b4:	ea52 3503 	orrs.w	r5, r2, r3, lsl #12
 80008b8:	ea4f 3101 	mov.w	r1, r1, lsl #12
 80008bc:	f000 8088 	beq.w	80009d0 <__aeabi_ddiv+0x144>
 80008c0:	ea4f 3303 	mov.w	r3, r3, lsl #12
 80008c4:	f04f 5580 	mov.w	r5, #268435456	; 0x10000000
 80008c8:	ea45 1313 	orr.w	r3, r5, r3, lsr #4
 80008cc:	ea43 6312 	orr.w	r3, r3, r2, lsr #24
 80008d0:	ea4f 2202 	mov.w	r2, r2, lsl #8
 80008d4:	ea45 1511 	orr.w	r5, r5, r1, lsr #4
 80008d8:	ea45 6510 	orr.w	r5, r5, r0, lsr #24
 80008dc:	ea4f 2600 	mov.w	r6, r0, lsl #8
 80008e0:	f00e 4100 	and.w	r1, lr, #2147483648	; 0x80000000
 80008e4:	429d      	cmp	r5, r3
 80008e6:	bf08      	it	eq
 80008e8:	4296      	cmpeq	r6, r2
 80008ea:	f144 04fd 	adc.w	r4, r4, #253	; 0xfd
 80008ee:	f504 7440 	add.w	r4, r4, #768	; 0x300
 80008f2:	d202      	bcs.n	80008fa <__aeabi_ddiv+0x6e>
 80008f4:	085b      	lsrs	r3, r3, #1
 80008f6:	ea4f 0232 	mov.w	r2, r2, rrx
 80008fa:	1ab6      	subs	r6, r6, r2
 80008fc:	eb65 0503 	sbc.w	r5, r5, r3
 8000900:	085b      	lsrs	r3, r3, #1
 8000902:	ea4f 0232 	mov.w	r2, r2, rrx
 8000906:	f44f 1080 	mov.w	r0, #1048576	; 0x100000
 800090a:	f44f 2c00 	mov.w	ip, #524288	; 0x80000
 800090e:	ebb6 0e02 	subs.w	lr, r6, r2
 8000912:	eb75 0e03 	sbcs.w	lr, r5, r3
 8000916:	bf22      	ittt	cs
 8000918:	1ab6      	subcs	r6, r6, r2
 800091a:	4675      	movcs	r5, lr
 800091c:	ea40 000c 	orrcs.w	r0, r0, ip
 8000920:	085b      	lsrs	r3, r3, #1
 8000922:	ea4f 0232 	mov.w	r2, r2, rrx
 8000926:	ebb6 0e02 	subs.w	lr, r6, r2
 800092a:	eb75 0e03 	sbcs.w	lr, r5, r3
 800092e:	bf22      	ittt	cs
 8000930:	1ab6      	subcs	r6, r6, r2
 8000932:	4675      	movcs	r5, lr
 8000934:	ea40 005c 	orrcs.w	r0, r0, ip, lsr #1
 8000938:	085b      	lsrs	r3, r3, #1
 800093a:	ea4f 0232 	mov.w	r2, r2, rrx
 800093e:	ebb6 0e02 	subs.w	lr, r6, r2
 8000942:	eb75 0e03 	sbcs.w	lr, r5, r3
 8000946:	bf22      	ittt	cs
 8000948:	1ab6      	subcs	r6, r6, r2
 800094a:	4675      	movcs	r5, lr
 800094c:	ea40 009c 	orrcs.w	r0, r0, ip, lsr #2
 8000950:	085b      	lsrs	r3, r3, #1
 8000952:	ea4f 0232 	mov.w	r2, r2, rrx
 8000956:	ebb6 0e02 	subs.w	lr, r6, r2
 800095a:	eb75 0e03 	sbcs.w	lr, r5, r3
 800095e:	bf22      	ittt	cs
 8000960:	1ab6      	subcs	r6, r6, r2
 8000962:	4675      	movcs	r5, lr
 8000964:	ea40 00dc 	orrcs.w	r0, r0, ip, lsr #3
 8000968:	ea55 0e06 	orrs.w	lr, r5, r6
 800096c:	d018      	beq.n	80009a0 <__aeabi_ddiv+0x114>
 800096e:	ea4f 1505 	mov.w	r5, r5, lsl #4
 8000972:	ea45 7516 	orr.w	r5, r5, r6, lsr #28
 8000976:	ea4f 1606 	mov.w	r6, r6, lsl #4
 800097a:	ea4f 03c3 	mov.w	r3, r3, lsl #3
 800097e:	ea43 7352 	orr.w	r3, r3, r2, lsr #29
 8000982:	ea4f 02c2 	mov.w	r2, r2, lsl #3
 8000986:	ea5f 1c1c 	movs.w	ip, ip, lsr #4
 800098a:	d1c0      	bne.n	800090e <__aeabi_ddiv+0x82>
 800098c:	f411 1f80 	tst.w	r1, #1048576	; 0x100000
 8000990:	d10b      	bne.n	80009aa <__aeabi_ddiv+0x11e>
 8000992:	ea41 0100 	orr.w	r1, r1, r0
 8000996:	f04f 0000 	mov.w	r0, #0
 800099a:	f04f 4c00 	mov.w	ip, #2147483648	; 0x80000000
 800099e:	e7b6      	b.n	800090e <__aeabi_ddiv+0x82>
 80009a0:	f411 1f80 	tst.w	r1, #1048576	; 0x100000
 80009a4:	bf04      	itt	eq
 80009a6:	4301      	orreq	r1, r0
 80009a8:	2000      	moveq	r0, #0
 80009aa:	f1b4 0cfd 	subs.w	ip, r4, #253	; 0xfd
 80009ae:	bf88      	it	hi
 80009b0:	f5bc 6fe0 	cmphi.w	ip, #1792	; 0x700
 80009b4:	f63f aeaf 	bhi.w	8000716 <__aeabi_dmul+0xde>
 80009b8:	ebb5 0c03 	subs.w	ip, r5, r3
 80009bc:	bf04      	itt	eq
 80009be:	ebb6 0c02 	subseq.w	ip, r6, r2
 80009c2:	ea5f 0c50 	movseq.w	ip, r0, lsr #1
 80009c6:	f150 0000 	adcs.w	r0, r0, #0
 80009ca:	eb41 5104 	adc.w	r1, r1, r4, lsl #20
 80009ce:	bd70      	pop	{r4, r5, r6, pc}
 80009d0:	f00e 4e00 	and.w	lr, lr, #2147483648	; 0x80000000
 80009d4:	ea4e 3111 	orr.w	r1, lr, r1, lsr #12
 80009d8:	eb14 045c 	adds.w	r4, r4, ip, lsr #1
 80009dc:	bfc2      	ittt	gt
 80009de:	ebd4 050c 	rsbsgt	r5, r4, ip
 80009e2:	ea41 5104 	orrgt.w	r1, r1, r4, lsl #20
 80009e6:	bd70      	popgt	{r4, r5, r6, pc}
 80009e8:	f441 1180 	orr.w	r1, r1, #1048576	; 0x100000
 80009ec:	f04f 0e00 	mov.w	lr, #0
 80009f0:	3c01      	subs	r4, #1
 80009f2:	e690      	b.n	8000716 <__aeabi_dmul+0xde>
 80009f4:	ea45 0e06 	orr.w	lr, r5, r6
 80009f8:	e68d      	b.n	8000716 <__aeabi_dmul+0xde>
 80009fa:	ea0c 5513 	and.w	r5, ip, r3, lsr #20
 80009fe:	ea94 0f0c 	teq	r4, ip
 8000a02:	bf08      	it	eq
 8000a04:	ea95 0f0c 	teqeq	r5, ip
 8000a08:	f43f af3b 	beq.w	8000882 <__aeabi_dmul+0x24a>
 8000a0c:	ea94 0f0c 	teq	r4, ip
 8000a10:	d10a      	bne.n	8000a28 <__aeabi_ddiv+0x19c>
 8000a12:	ea50 3401 	orrs.w	r4, r0, r1, lsl #12
 8000a16:	f47f af34 	bne.w	8000882 <__aeabi_dmul+0x24a>
 8000a1a:	ea95 0f0c 	teq	r5, ip
 8000a1e:	f47f af25 	bne.w	800086c <__aeabi_dmul+0x234>
 8000a22:	4610      	mov	r0, r2
 8000a24:	4619      	mov	r1, r3
 8000a26:	e72c      	b.n	8000882 <__aeabi_dmul+0x24a>
 8000a28:	ea95 0f0c 	teq	r5, ip
 8000a2c:	d106      	bne.n	8000a3c <__aeabi_ddiv+0x1b0>
 8000a2e:	ea52 3503 	orrs.w	r5, r2, r3, lsl #12
 8000a32:	f43f aefd 	beq.w	8000830 <__aeabi_dmul+0x1f8>
 8000a36:	4610      	mov	r0, r2
 8000a38:	4619      	mov	r1, r3
 8000a3a:	e722      	b.n	8000882 <__aeabi_dmul+0x24a>
 8000a3c:	ea50 0641 	orrs.w	r6, r0, r1, lsl #1
 8000a40:	bf18      	it	ne
 8000a42:	ea52 0643 	orrsne.w	r6, r2, r3, lsl #1
 8000a46:	f47f aec5 	bne.w	80007d4 <__aeabi_dmul+0x19c>
 8000a4a:	ea50 0441 	orrs.w	r4, r0, r1, lsl #1
 8000a4e:	f47f af0d 	bne.w	800086c <__aeabi_dmul+0x234>
 8000a52:	ea52 0543 	orrs.w	r5, r2, r3, lsl #1
 8000a56:	f47f aeeb 	bne.w	8000830 <__aeabi_dmul+0x1f8>
 8000a5a:	e712      	b.n	8000882 <__aeabi_dmul+0x24a>

08000a5c <__gedf2>:
 8000a5c:	f04f 3cff 	mov.w	ip, #4294967295	; 0xffffffff
 8000a60:	e006      	b.n	8000a70 <__cmpdf2+0x4>
 8000a62:	bf00      	nop

08000a64 <__ledf2>:
 8000a64:	f04f 0c01 	mov.w	ip, #1
 8000a68:	e002      	b.n	8000a70 <__cmpdf2+0x4>
 8000a6a:	bf00      	nop

08000a6c <__cmpdf2>:
 8000a6c:	f04f 0c01 	mov.w	ip, #1
 8000a70:	f84d cd04 	str.w	ip, [sp, #-4]!
 8000a74:	ea4f 0c41 	mov.w	ip, r1, lsl #1
 8000a78:	ea7f 5c6c 	mvns.w	ip, ip, asr #21
 8000a7c:	ea4f 0c43 	mov.w	ip, r3, lsl #1
 8000a80:	bf18      	it	ne
 8000a82:	ea7f 5c6c 	mvnsne.w	ip, ip, asr #21
 8000a86:	d01b      	beq.n	8000ac0 <__cmpdf2+0x54>
 8000a88:	b001      	add	sp, #4
 8000a8a:	ea50 0c41 	orrs.w	ip, r0, r1, lsl #1
 8000a8e:	bf0c      	ite	eq
 8000a90:	ea52 0c43 	orrseq.w	ip, r2, r3, lsl #1
 8000a94:	ea91 0f03 	teqne	r1, r3
 8000a98:	bf02      	ittt	eq
 8000a9a:	ea90 0f02 	teqeq	r0, r2
 8000a9e:	2000      	moveq	r0, #0
 8000aa0:	4770      	bxeq	lr
 8000aa2:	f110 0f00 	cmn.w	r0, #0
 8000aa6:	ea91 0f03 	teq	r1, r3
 8000aaa:	bf58      	it	pl
 8000aac:	4299      	cmppl	r1, r3
 8000aae:	bf08      	it	eq
 8000ab0:	4290      	cmpeq	r0, r2
 8000ab2:	bf2c      	ite	cs
 8000ab4:	17d8      	asrcs	r0, r3, #31
 8000ab6:	ea6f 70e3 	mvncc.w	r0, r3, asr #31
 8000aba:	f040 0001 	orr.w	r0, r0, #1
 8000abe:	4770      	bx	lr
 8000ac0:	ea4f 0c41 	mov.w	ip, r1, lsl #1
 8000ac4:	ea7f 5c6c 	mvns.w	ip, ip, asr #21
 8000ac8:	d102      	bne.n	8000ad0 <__cmpdf2+0x64>
 8000aca:	ea50 3c01 	orrs.w	ip, r0, r1, lsl #12
 8000ace:	d107      	bne.n	8000ae0 <__cmpdf2+0x74>
 8000ad0:	ea4f 0c43 	mov.w	ip, r3, lsl #1
 8000ad4:	ea7f 5c6c 	mvns.w	ip, ip, asr #21
 8000ad8:	d1d6      	bne.n	8000a88 <__cmpdf2+0x1c>
 8000ada:	ea52 3c03 	orrs.w	ip, r2, r3, lsl #12
 8000ade:	d0d3      	beq.n	8000a88 <__cmpdf2+0x1c>
 8000ae0:	f85d 0b04 	ldr.w	r0, [sp], #4
 8000ae4:	4770      	bx	lr
 8000ae6:	bf00      	nop

08000ae8 <__aeabi_cdrcmple>:
 8000ae8:	4684      	mov	ip, r0
 8000aea:	4610      	mov	r0, r2
 8000aec:	4662      	mov	r2, ip
 8000aee:	468c      	mov	ip, r1
 8000af0:	4619      	mov	r1, r3
 8000af2:	4663      	mov	r3, ip
 8000af4:	e000      	b.n	8000af8 <__aeabi_cdcmpeq>
 8000af6:	bf00      	nop

08000af8 <__aeabi_cdcmpeq>:
 8000af8:	b501      	push	{r0, lr}
 8000afa:	f7ff ffb7 	bl	8000a6c <__cmpdf2>
 8000afe:	2800      	cmp	r0, #0
 8000b00:	bf48      	it	mi
 8000b02:	f110 0f00 	cmnmi.w	r0, #0
 8000b06:	bd01      	pop	{r0, pc}

08000b08 <__aeabi_dcmpeq>:
 8000b08:	f84d ed08 	str.w	lr, [sp, #-8]!
 8000b0c:	f7ff fff4 	bl	8000af8 <__aeabi_cdcmpeq>
 8000b10:	bf0c      	ite	eq
 8000b12:	2001      	moveq	r0, #1
 8000b14:	2000      	movne	r0, #0
 8000b16:	f85d fb08 	ldr.w	pc, [sp], #8
 8000b1a:	bf00      	nop

08000b1c <__aeabi_dcmplt>:
 8000b1c:	f84d ed08 	str.w	lr, [sp, #-8]!
 8000b20:	f7ff ffea 	bl	8000af8 <__aeabi_cdcmpeq>
 8000b24:	bf34      	ite	cc
 8000b26:	2001      	movcc	r0, #1
 8000b28:	2000      	movcs	r0, #0
 8000b2a:	f85d fb08 	ldr.w	pc, [sp], #8
 8000b2e:	bf00      	nop

08000b30 <__aeabi_dcmple>:
 8000b30:	f84d ed08 	str.w	lr, [sp, #-8]!
 8000b34:	f7ff ffe0 	bl	8000af8 <__aeabi_cdcmpeq>
 8000b38:	bf94      	ite	ls
 8000b3a:	2001      	movls	r0, #1
 8000b3c:	2000      	movhi	r0, #0
 8000b3e:	f85d fb08 	ldr.w	pc, [sp], #8
 8000b42:	bf00      	nop

08000b44 <__aeabi_dcmpge>:
 8000b44:	f84d ed08 	str.w	lr, [sp, #-8]!
 8000b48:	f7ff ffce 	bl	8000ae8 <__aeabi_cdrcmple>
 8000b4c:	bf94      	ite	ls
 8000b4e:	2001      	movls	r0, #1
 8000b50:	2000      	movhi	r0, #0
 8000b52:	f85d fb08 	ldr.w	pc, [sp], #8
 8000b56:	bf00      	nop

08000b58 <__aeabi_dcmpgt>:
 8000b58:	f84d ed08 	str.w	lr, [sp, #-8]!
 8000b5c:	f7ff ffc4 	bl	8000ae8 <__aeabi_cdrcmple>
 8000b60:	bf34      	ite	cc
 8000b62:	2001      	movcc	r0, #1
 8000b64:	2000      	movcs	r0, #0
 8000b66:	f85d fb08 	ldr.w	pc, [sp], #8
 8000b6a:	bf00      	nop

08000b6c <__aeabi_dcmpun>:
 8000b6c:	ea4f 0c41 	mov.w	ip, r1, lsl #1
 8000b70:	ea7f 5c6c 	mvns.w	ip, ip, asr #21
 8000b74:	d102      	bne.n	8000b7c <__aeabi_dcmpun+0x10>
 8000b76:	ea50 3c01 	orrs.w	ip, r0, r1, lsl #12
 8000b7a:	d10a      	bne.n	8000b92 <__aeabi_dcmpun+0x26>
 8000b7c:	ea4f 0c43 	mov.w	ip, r3, lsl #1
 8000b80:	ea7f 5c6c 	mvns.w	ip, ip, asr #21
 8000b84:	d102      	bne.n	8000b8c <__aeabi_dcmpun+0x20>
 8000b86:	ea52 3c03 	orrs.w	ip, r2, r3, lsl #12
 8000b8a:	d102      	bne.n	8000b92 <__aeabi_dcmpun+0x26>
 8000b8c:	f04f 0000 	mov.w	r0, #0
 8000b90:	4770      	bx	lr
 8000b92:	f04f 0001 	mov.w	r0, #1
 8000b96:	4770      	bx	lr

08000b98 <__aeabi_d2iz>:
 8000b98:	ea4f 0241 	mov.w	r2, r1, lsl #1
 8000b9c:	f512 1200 	adds.w	r2, r2, #2097152	; 0x200000
 8000ba0:	d215      	bcs.n	8000bce <__aeabi_d2iz+0x36>
 8000ba2:	d511      	bpl.n	8000bc8 <__aeabi_d2iz+0x30>
 8000ba4:	f46f 7378 	mvn.w	r3, #992	; 0x3e0
 8000ba8:	ebb3 5262 	subs.w	r2, r3, r2, asr #21
 8000bac:	d912      	bls.n	8000bd4 <__aeabi_d2iz+0x3c>
 8000bae:	ea4f 23c1 	mov.w	r3, r1, lsl #11
 8000bb2:	f043 4300 	orr.w	r3, r3, #2147483648	; 0x80000000
 8000bb6:	ea43 5350 	orr.w	r3, r3, r0, lsr #21
 8000bba:	f011 4f00 	tst.w	r1, #2147483648	; 0x80000000
 8000bbe:	fa23 f002 	lsr.w	r0, r3, r2
 8000bc2:	bf18      	it	ne
 8000bc4:	4240      	negne	r0, r0
 8000bc6:	4770      	bx	lr
 8000bc8:	f04f 0000 	mov.w	r0, #0
 8000bcc:	4770      	bx	lr
 8000bce:	ea50 3001 	orrs.w	r0, r0, r1, lsl #12
 8000bd2:	d105      	bne.n	8000be0 <__aeabi_d2iz+0x48>
 8000bd4:	f011 4000 	ands.w	r0, r1, #2147483648	; 0x80000000
 8000bd8:	bf08      	it	eq
 8000bda:	f06f 4000 	mvneq.w	r0, #2147483648	; 0x80000000
 8000bde:	4770      	bx	lr
 8000be0:	f04f 0000 	mov.w	r0, #0
 8000be4:	4770      	bx	lr
 8000be6:	bf00      	nop

08000be8 <__aeabi_d2f>:
 8000be8:	ea4f 0241 	mov.w	r2, r1, lsl #1
 8000bec:	f1b2 43e0 	subs.w	r3, r2, #1879048192	; 0x70000000
 8000bf0:	bf24      	itt	cs
 8000bf2:	f5b3 1c00 	subscs.w	ip, r3, #2097152	; 0x200000
 8000bf6:	f1dc 5cfe 	rsbscs	ip, ip, #532676608	; 0x1fc00000
 8000bfa:	d90d      	bls.n	8000c18 <__aeabi_d2f+0x30>
 8000bfc:	f001 4c00 	and.w	ip, r1, #2147483648	; 0x80000000
 8000c00:	ea4f 02c0 	mov.w	r2, r0, lsl #3
 8000c04:	ea4c 7050 	orr.w	r0, ip, r0, lsr #29
 8000c08:	f1b2 4f00 	cmp.w	r2, #2147483648	; 0x80000000
 8000c0c:	eb40 0083 	adc.w	r0, r0, r3, lsl #2
 8000c10:	bf08      	it	eq
 8000c12:	f020 0001 	biceq.w	r0, r0, #1
 8000c16:	4770      	bx	lr
 8000c18:	f011 4f80 	tst.w	r1, #1073741824	; 0x40000000
 8000c1c:	d121      	bne.n	8000c62 <__aeabi_d2f+0x7a>
 8000c1e:	f113 7238 	adds.w	r2, r3, #48234496	; 0x2e00000
 8000c22:	bfbc      	itt	lt
 8000c24:	f001 4000 	andlt.w	r0, r1, #2147483648	; 0x80000000
 8000c28:	4770      	bxlt	lr
 8000c2a:	f441 1180 	orr.w	r1, r1, #1048576	; 0x100000
 8000c2e:	ea4f 5252 	mov.w	r2, r2, lsr #21
 8000c32:	f1c2 0218 	rsb	r2, r2, #24
 8000c36:	f1c2 0c20 	rsb	ip, r2, #32
 8000c3a:	fa10 f30c 	lsls.w	r3, r0, ip
 8000c3e:	fa20 f002 	lsr.w	r0, r0, r2
 8000c42:	bf18      	it	ne
 8000c44:	f040 0001 	orrne.w	r0, r0, #1
 8000c48:	ea4f 23c1 	mov.w	r3, r1, lsl #11
 8000c4c:	ea4f 23d3 	mov.w	r3, r3, lsr #11
 8000c50:	fa03 fc0c 	lsl.w	ip, r3, ip
 8000c54:	ea40 000c 	orr.w	r0, r0, ip
 8000c58:	fa23 f302 	lsr.w	r3, r3, r2
 8000c5c:	ea4f 0343 	mov.w	r3, r3, lsl #1
 8000c60:	e7cc      	b.n	8000bfc <__aeabi_d2f+0x14>
 8000c62:	ea7f 5362 	mvns.w	r3, r2, asr #21
 8000c66:	d107      	bne.n	8000c78 <__aeabi_d2f+0x90>
 8000c68:	ea50 3301 	orrs.w	r3, r0, r1, lsl #12
 8000c6c:	bf1e      	ittt	ne
 8000c6e:	f04f 40fe 	movne.w	r0, #2130706432	; 0x7f000000
 8000c72:	f440 0040 	orrne.w	r0, r0, #12582912	; 0xc00000
 8000c76:	4770      	bxne	lr
 8000c78:	f001 4000 	and.w	r0, r1, #2147483648	; 0x80000000
 8000c7c:	f040 40fe 	orr.w	r0, r0, #2130706432	; 0x7f000000
 8000c80:	f440 0000 	orr.w	r0, r0, #8388608	; 0x800000
 8000c84:	4770      	bx	lr
 8000c86:	bf00      	nop

08000c88 <__aeabi_uldivmod>:
 8000c88:	b953      	cbnz	r3, 8000ca0 <__aeabi_uldivmod+0x18>
 8000c8a:	b94a      	cbnz	r2, 8000ca0 <__aeabi_uldivmod+0x18>
 8000c8c:	2900      	cmp	r1, #0
 8000c8e:	bf08      	it	eq
 8000c90:	2800      	cmpeq	r0, #0
 8000c92:	bf1c      	itt	ne
 8000c94:	f04f 31ff 	movne.w	r1, #4294967295	; 0xffffffff
 8000c98:	f04f 30ff 	movne.w	r0, #4294967295	; 0xffffffff
 8000c9c:	f000 b96e 	b.w	8000f7c <__aeabi_idiv0>
 8000ca0:	f1ad 0c08 	sub.w	ip, sp, #8
 8000ca4:	e96d ce04 	strd	ip, lr, [sp, #-16]!
 8000ca8:	f000 f806 	bl	8000cb8 <__udivmoddi4>
 8000cac:	f8dd e004 	ldr.w	lr, [sp, #4]
 8000cb0:	e9dd 2302 	ldrd	r2, r3, [sp, #8]
 8000cb4:	b004      	add	sp, #16
 8000cb6:	4770      	bx	lr

08000cb8 <__udivmoddi4>:
 8000cb8:	e92d 47f0 	stmdb	sp!, {r4, r5, r6, r7, r8, r9, sl, lr}
 8000cbc:	9d08      	ldr	r5, [sp, #32]
 8000cbe:	4604      	mov	r4, r0
 8000cc0:	468c      	mov	ip, r1
 8000cc2:	2b00      	cmp	r3, #0
 8000cc4:	f040 8083 	bne.w	8000dce <__udivmoddi4+0x116>
 8000cc8:	428a      	cmp	r2, r1
 8000cca:	4617      	mov	r7, r2
 8000ccc:	d947      	bls.n	8000d5e <__udivmoddi4+0xa6>
 8000cce:	fab2 f282 	clz	r2, r2
 8000cd2:	b142      	cbz	r2, 8000ce6 <__udivmoddi4+0x2e>
 8000cd4:	f1c2 0020 	rsb	r0, r2, #32
 8000cd8:	fa24 f000 	lsr.w	r0, r4, r0
 8000cdc:	4091      	lsls	r1, r2
 8000cde:	4097      	lsls	r7, r2
 8000ce0:	ea40 0c01 	orr.w	ip, r0, r1
 8000ce4:	4094      	lsls	r4, r2
 8000ce6:	ea4f 4817 	mov.w	r8, r7, lsr #16
 8000cea:	0c23      	lsrs	r3, r4, #16
 8000cec:	fbbc f6f8 	udiv	r6, ip, r8
 8000cf0:	fa1f fe87 	uxth.w	lr, r7
 8000cf4:	fb08 c116 	mls	r1, r8, r6, ip
 8000cf8:	ea43 4301 	orr.w	r3, r3, r1, lsl #16
 8000cfc:	fb06 f10e 	mul.w	r1, r6, lr
 8000d00:	4299      	cmp	r1, r3
 8000d02:	d909      	bls.n	8000d18 <__udivmoddi4+0x60>
 8000d04:	18fb      	adds	r3, r7, r3
 8000d06:	f106 30ff 	add.w	r0, r6, #4294967295	; 0xffffffff
 8000d0a:	f080 8119 	bcs.w	8000f40 <__udivmoddi4+0x288>
 8000d0e:	4299      	cmp	r1, r3
 8000d10:	f240 8116 	bls.w	8000f40 <__udivmoddi4+0x288>
 8000d14:	3e02      	subs	r6, #2
 8000d16:	443b      	add	r3, r7
 8000d18:	1a5b      	subs	r3, r3, r1
 8000d1a:	b2a4      	uxth	r4, r4
 8000d1c:	fbb3 f0f8 	udiv	r0, r3, r8
 8000d20:	fb08 3310 	mls	r3, r8, r0, r3
 8000d24:	ea44 4403 	orr.w	r4, r4, r3, lsl #16
 8000d28:	fb00 fe0e 	mul.w	lr, r0, lr
 8000d2c:	45a6      	cmp	lr, r4
 8000d2e:	d909      	bls.n	8000d44 <__udivmoddi4+0x8c>
 8000d30:	193c      	adds	r4, r7, r4
 8000d32:	f100 33ff 	add.w	r3, r0, #4294967295	; 0xffffffff
 8000d36:	f080 8105 	bcs.w	8000f44 <__udivmoddi4+0x28c>
 8000d3a:	45a6      	cmp	lr, r4
 8000d3c:	f240 8102 	bls.w	8000f44 <__udivmoddi4+0x28c>
 8000d40:	3802      	subs	r0, #2
 8000d42:	443c      	add	r4, r7
 8000d44:	ea40 4006 	orr.w	r0, r0, r6, lsl #16
 8000d48:	eba4 040e 	sub.w	r4, r4, lr
 8000d4c:	2600      	movs	r6, #0
 8000d4e:	b11d      	cbz	r5, 8000d58 <__udivmoddi4+0xa0>
 8000d50:	40d4      	lsrs	r4, r2
 8000d52:	2300      	movs	r3, #0
 8000d54:	e9c5 4300 	strd	r4, r3, [r5]
 8000d58:	4631      	mov	r1, r6
 8000d5a:	e8bd 87f0 	ldmia.w	sp!, {r4, r5, r6, r7, r8, r9, sl, pc}
 8000d5e:	b902      	cbnz	r2, 8000d62 <__udivmoddi4+0xaa>
 8000d60:	deff      	udf	#255	; 0xff
 8000d62:	fab2 f282 	clz	r2, r2
 8000d66:	2a00      	cmp	r2, #0
 8000d68:	d150      	bne.n	8000e0c <__udivmoddi4+0x154>
 8000d6a:	1bcb      	subs	r3, r1, r7
 8000d6c:	ea4f 4e17 	mov.w	lr, r7, lsr #16
 8000d70:	fa1f f887 	uxth.w	r8, r7
 8000d74:	2601      	movs	r6, #1
 8000d76:	fbb3 fcfe 	udiv	ip, r3, lr
 8000d7a:	0c21      	lsrs	r1, r4, #16
 8000d7c:	fb0e 331c 	mls	r3, lr, ip, r3
 8000d80:	ea41 4103 	orr.w	r1, r1, r3, lsl #16
 8000d84:	fb08 f30c 	mul.w	r3, r8, ip
 8000d88:	428b      	cmp	r3, r1
 8000d8a:	d907      	bls.n	8000d9c <__udivmoddi4+0xe4>
 8000d8c:	1879      	adds	r1, r7, r1
 8000d8e:	f10c 30ff 	add.w	r0, ip, #4294967295	; 0xffffffff
 8000d92:	d202      	bcs.n	8000d9a <__udivmoddi4+0xe2>
 8000d94:	428b      	cmp	r3, r1
 8000d96:	f200 80e9 	bhi.w	8000f6c <__udivmoddi4+0x2b4>
 8000d9a:	4684      	mov	ip, r0
 8000d9c:	1ac9      	subs	r1, r1, r3
 8000d9e:	b2a3      	uxth	r3, r4
 8000da0:	fbb1 f0fe 	udiv	r0, r1, lr
 8000da4:	fb0e 1110 	mls	r1, lr, r0, r1
 8000da8:	ea43 4401 	orr.w	r4, r3, r1, lsl #16
 8000dac:	fb08 f800 	mul.w	r8, r8, r0
 8000db0:	45a0      	cmp	r8, r4
 8000db2:	d907      	bls.n	8000dc4 <__udivmoddi4+0x10c>
 8000db4:	193c      	adds	r4, r7, r4
 8000db6:	f100 33ff 	add.w	r3, r0, #4294967295	; 0xffffffff
 8000dba:	d202      	bcs.n	8000dc2 <__udivmoddi4+0x10a>
 8000dbc:	45a0      	cmp	r8, r4
 8000dbe:	f200 80d9 	bhi.w	8000f74 <__udivmoddi4+0x2bc>
 8000dc2:	4618      	mov	r0, r3
 8000dc4:	eba4 0408 	sub.w	r4, r4, r8
 8000dc8:	ea40 400c 	orr.w	r0, r0, ip, lsl #16
 8000dcc:	e7bf      	b.n	8000d4e <__udivmoddi4+0x96>
 8000dce:	428b      	cmp	r3, r1
 8000dd0:	d909      	bls.n	8000de6 <__udivmoddi4+0x12e>
 8000dd2:	2d00      	cmp	r5, #0
 8000dd4:	f000 80b1 	beq.w	8000f3a <__udivmoddi4+0x282>
 8000dd8:	2600      	movs	r6, #0
 8000dda:	e9c5 0100 	strd	r0, r1, [r5]
 8000dde:	4630      	mov	r0, r6
 8000de0:	4631      	mov	r1, r6
 8000de2:	e8bd 87f0 	ldmia.w	sp!, {r4, r5, r6, r7, r8, r9, sl, pc}
 8000de6:	fab3 f683 	clz	r6, r3
 8000dea:	2e00      	cmp	r6, #0
 8000dec:	d14a      	bne.n	8000e84 <__udivmoddi4+0x1cc>
 8000dee:	428b      	cmp	r3, r1
 8000df0:	d302      	bcc.n	8000df8 <__udivmoddi4+0x140>
 8000df2:	4282      	cmp	r2, r0
 8000df4:	f200 80b8 	bhi.w	8000f68 <__udivmoddi4+0x2b0>
 8000df8:	1a84      	subs	r4, r0, r2
 8000dfa:	eb61 0103 	sbc.w	r1, r1, r3
 8000dfe:	2001      	movs	r0, #1
 8000e00:	468c      	mov	ip, r1
 8000e02:	2d00      	cmp	r5, #0
 8000e04:	d0a8      	beq.n	8000d58 <__udivmoddi4+0xa0>
 8000e06:	e9c5 4c00 	strd	r4, ip, [r5]
 8000e0a:	e7a5      	b.n	8000d58 <__udivmoddi4+0xa0>
 8000e0c:	f1c2 0320 	rsb	r3, r2, #32
 8000e10:	fa20 f603 	lsr.w	r6, r0, r3
 8000e14:	4097      	lsls	r7, r2
 8000e16:	fa01 f002 	lsl.w	r0, r1, r2
 8000e1a:	ea4f 4e17 	mov.w	lr, r7, lsr #16
 8000e1e:	40d9      	lsrs	r1, r3
 8000e20:	4330      	orrs	r0, r6
 8000e22:	0c03      	lsrs	r3, r0, #16
 8000e24:	fbb1 f6fe 	udiv	r6, r1, lr
 8000e28:	fa1f f887 	uxth.w	r8, r7
 8000e2c:	fb0e 1116 	mls	r1, lr, r6, r1
 8000e30:	ea43 4301 	orr.w	r3, r3, r1, lsl #16
 8000e34:	fb06 f108 	mul.w	r1, r6, r8
 8000e38:	4299      	cmp	r1, r3
 8000e3a:	fa04 f402 	lsl.w	r4, r4, r2
 8000e3e:	d909      	bls.n	8000e54 <__udivmoddi4+0x19c>
 8000e40:	18fb      	adds	r3, r7, r3
 8000e42:	f106 3cff 	add.w	ip, r6, #4294967295	; 0xffffffff
 8000e46:	f080 808d 	bcs.w	8000f64 <__udivmoddi4+0x2ac>
 8000e4a:	4299      	cmp	r1, r3
 8000e4c:	f240 808a 	bls.w	8000f64 <__udivmoddi4+0x2ac>
 8000e50:	3e02      	subs	r6, #2
 8000e52:	443b      	add	r3, r7
 8000e54:	1a5b      	subs	r3, r3, r1
 8000e56:	b281      	uxth	r1, r0
 8000e58:	fbb3 f0fe 	udiv	r0, r3, lr
 8000e5c:	fb0e 3310 	mls	r3, lr, r0, r3
 8000e60:	ea41 4103 	orr.w	r1, r1, r3, lsl #16
 8000e64:	fb00 f308 	mul.w	r3, r0, r8
 8000e68:	428b      	cmp	r3, r1
 8000e6a:	d907      	bls.n	8000e7c <__udivmoddi4+0x1c4>
 8000e6c:	1879      	adds	r1, r7, r1
 8000e6e:	f100 3cff 	add.w	ip, r0, #4294967295	; 0xffffffff
 8000e72:	d273      	bcs.n	8000f5c <__udivmoddi4+0x2a4>
 8000e74:	428b      	cmp	r3, r1
 8000e76:	d971      	bls.n	8000f5c <__udivmoddi4+0x2a4>
 8000e78:	3802      	subs	r0, #2
 8000e7a:	4439      	add	r1, r7
 8000e7c:	1acb      	subs	r3, r1, r3
 8000e7e:	ea40 4606 	orr.w	r6, r0, r6, lsl #16
 8000e82:	e778      	b.n	8000d76 <__udivmoddi4+0xbe>
 8000e84:	f1c6 0c20 	rsb	ip, r6, #32
 8000e88:	fa03 f406 	lsl.w	r4, r3, r6
 8000e8c:	fa22 f30c 	lsr.w	r3, r2, ip
 8000e90:	431c      	orrs	r4, r3
 8000e92:	fa20 f70c 	lsr.w	r7, r0, ip
 8000e96:	fa01 f306 	lsl.w	r3, r1, r6
 8000e9a:	ea4f 4e14 	mov.w	lr, r4, lsr #16
 8000e9e:	fa21 f10c 	lsr.w	r1, r1, ip
 8000ea2:	431f      	orrs	r7, r3
 8000ea4:	0c3b      	lsrs	r3, r7, #16
 8000ea6:	fbb1 f9fe 	udiv	r9, r1, lr
 8000eaa:	fa1f f884 	uxth.w	r8, r4
 8000eae:	fb0e 1119 	mls	r1, lr, r9, r1
 8000eb2:	ea43 4101 	orr.w	r1, r3, r1, lsl #16
 8000eb6:	fb09 fa08 	mul.w	sl, r9, r8
 8000eba:	458a      	cmp	sl, r1
 8000ebc:	fa02 f206 	lsl.w	r2, r2, r6
 8000ec0:	fa00 f306 	lsl.w	r3, r0, r6
 8000ec4:	d908      	bls.n	8000ed8 <__udivmoddi4+0x220>
 8000ec6:	1861      	adds	r1, r4, r1
 8000ec8:	f109 30ff 	add.w	r0, r9, #4294967295	; 0xffffffff
 8000ecc:	d248      	bcs.n	8000f60 <__udivmoddi4+0x2a8>
 8000ece:	458a      	cmp	sl, r1
 8000ed0:	d946      	bls.n	8000f60 <__udivmoddi4+0x2a8>
 8000ed2:	f1a9 0902 	sub.w	r9, r9, #2
 8000ed6:	4421      	add	r1, r4
 8000ed8:	eba1 010a 	sub.w	r1, r1, sl
 8000edc:	b2bf      	uxth	r7, r7
 8000ede:	fbb1 f0fe 	udiv	r0, r1, lr
 8000ee2:	fb0e 1110 	mls	r1, lr, r0, r1
 8000ee6:	ea47 4701 	orr.w	r7, r7, r1, lsl #16
 8000eea:	fb00 f808 	mul.w	r8, r0, r8
 8000eee:	45b8      	cmp	r8, r7
 8000ef0:	d907      	bls.n	8000f02 <__udivmoddi4+0x24a>
 8000ef2:	19e7      	adds	r7, r4, r7
 8000ef4:	f100 31ff 	add.w	r1, r0, #4294967295	; 0xffffffff
 8000ef8:	d22e      	bcs.n	8000f58 <__udivmoddi4+0x2a0>
 8000efa:	45b8      	cmp	r8, r7
 8000efc:	d92c      	bls.n	8000f58 <__udivmoddi4+0x2a0>
 8000efe:	3802      	subs	r0, #2
 8000f00:	4427      	add	r7, r4
 8000f02:	ea40 4009 	orr.w	r0, r0, r9, lsl #16
 8000f06:	eba7 0708 	sub.w	r7, r7, r8
 8000f0a:	fba0 8902 	umull	r8, r9, r0, r2
 8000f0e:	454f      	cmp	r7, r9
 8000f10:	46c6      	mov	lr, r8
 8000f12:	4649      	mov	r1, r9
 8000f14:	d31a      	bcc.n	8000f4c <__udivmoddi4+0x294>
 8000f16:	d017      	beq.n	8000f48 <__udivmoddi4+0x290>
 8000f18:	b15d      	cbz	r5, 8000f32 <__udivmoddi4+0x27a>
 8000f1a:	ebb3 020e 	subs.w	r2, r3, lr
 8000f1e:	eb67 0701 	sbc.w	r7, r7, r1
 8000f22:	fa07 fc0c 	lsl.w	ip, r7, ip
 8000f26:	40f2      	lsrs	r2, r6
 8000f28:	ea4c 0202 	orr.w	r2, ip, r2
 8000f2c:	40f7      	lsrs	r7, r6
 8000f2e:	e9c5 2700 	strd	r2, r7, [r5]
 8000f32:	2600      	movs	r6, #0
 8000f34:	4631      	mov	r1, r6
 8000f36:	e8bd 87f0 	ldmia.w	sp!, {r4, r5, r6, r7, r8, r9, sl, pc}
 8000f3a:	462e      	mov	r6, r5
 8000f3c:	4628      	mov	r0, r5
 8000f3e:	e70b      	b.n	8000d58 <__udivmoddi4+0xa0>
 8000f40:	4606      	mov	r6, r0
 8000f42:	e6e9      	b.n	8000d18 <__udivmoddi4+0x60>
 8000f44:	4618      	mov	r0, r3
 8000f46:	e6fd      	b.n	8000d44 <__udivmoddi4+0x8c>
 8000f48:	4543      	cmp	r3, r8
 8000f4a:	d2e5      	bcs.n	8000f18 <__udivmoddi4+0x260>
 8000f4c:	ebb8 0e02 	subs.w	lr, r8, r2
 8000f50:	eb69 0104 	sbc.w	r1, r9, r4
 8000f54:	3801      	subs	r0, #1
 8000f56:	e7df      	b.n	8000f18 <__udivmoddi4+0x260>
 8000f58:	4608      	mov	r0, r1
 8000f5a:	e7d2      	b.n	8000f02 <__udivmoddi4+0x24a>
 8000f5c:	4660      	mov	r0, ip
 8000f5e:	e78d      	b.n	8000e7c <__udivmoddi4+0x1c4>
 8000f60:	4681      	mov	r9, r0
 8000f62:	e7b9      	b.n	8000ed8 <__udivmoddi4+0x220>
 8000f64:	4666      	mov	r6, ip
 8000f66:	e775      	b.n	8000e54 <__udivmoddi4+0x19c>
 8000f68:	4630      	mov	r0, r6
 8000f6a:	e74a      	b.n	8000e02 <__udivmoddi4+0x14a>
 8000f6c:	f1ac 0c02 	sub.w	ip, ip, #2
 8000f70:	4439      	add	r1, r7
 8000f72:	e713      	b.n	8000d9c <__udivmoddi4+0xe4>
 8000f74:	3802      	subs	r0, #2
 8000f76:	443c      	add	r4, r7
 8000f78:	e724      	b.n	8000dc4 <__udivmoddi4+0x10c>
 8000f7a:	bf00      	nop

08000f7c <__aeabi_idiv0>:
 8000f7c:	4770      	bx	lr
 8000f7e:	bf00      	nop

08000f80 <GET_TIMER_CLK>:
/* USER CODE END PFP */

/* Private user code ---------------------------------------------------------*/
/* USER CODE BEGIN 0 */
uint32_t GET_TIMER_CLK(uint8_t timer)
{
 8000f80:	b580      	push	{r7, lr}
 8000f82:	b086      	sub	sp, #24
 8000f84:	af00      	add	r7, sp, #0
 8000f86:	4603      	mov	r3, r0
 8000f88:	71fb      	strb	r3, [r7, #7]
  uint8_t sel = 0;
 8000f8a:	2300      	movs	r3, #0
 8000f8c:	75fb      	strb	r3, [r7, #23]
  switch (timer)
 8000f8e:	79fb      	ldrb	r3, [r7, #7]
 8000f90:	2b07      	cmp	r3, #7
 8000f92:	dc02      	bgt.n	8000f9a <GET_TIMER_CLK+0x1a>
 8000f94:	2b02      	cmp	r3, #2
 8000f96:	da03      	bge.n	8000fa0 <GET_TIMER_CLK+0x20>
 8000f98:	e005      	b.n	8000fa6 <GET_TIMER_CLK+0x26>
 8000f9a:	3b0c      	subs	r3, #12
 8000f9c:	2b02      	cmp	r3, #2
 8000f9e:	d802      	bhi.n	8000fa6 <GET_TIMER_CLK+0x26>
  case 6:
  case 7:
  case 12:
  case 13:
  case 14:
    sel = 1;
 8000fa0:	2301      	movs	r3, #1
 8000fa2:	75fb      	strb	r3, [r7, #23]
    break;
 8000fa4:	e002      	b.n	8000fac <GET_TIMER_CLK+0x2c>
  default:
    sel = 2;
 8000fa6:	2302      	movs	r3, #2
 8000fa8:	75fb      	strb	r3, [r7, #23]
    break;
 8000faa:	bf00      	nop
  }
  if(sel == 1){
 8000fac:	7dfb      	ldrb	r3, [r7, #23]
 8000fae:	2b01      	cmp	r3, #1
 8000fb0:	d10d      	bne.n	8000fce <GET_TIMER_CLK+0x4e>
    /* Get PCLK1 frequency */
    uint32_t pclk1 = HAL_RCC_GetPCLK1Freq();
 8000fb2:	f001 fee9 	bl	8002d88 <HAL_RCC_GetPCLK1Freq>
 8000fb6:	60f8      	str	r0, [r7, #12]
  
    /* Get PCLK1 prescaler */
    if((RCC->CFGR & RCC_CFGR_PPRE1) == 0)
 8000fb8:	4b0d      	ldr	r3, [pc, #52]	; (8000ff0 <GET_TIMER_CLK+0x70>)
 8000fba:	689b      	ldr	r3, [r3, #8]
 8000fbc:	f403 53e0 	and.w	r3, r3, #7168	; 0x1c00
 8000fc0:	2b00      	cmp	r3, #0
 8000fc2:	d101      	bne.n	8000fc8 <GET_TIMER_CLK+0x48>
    {
      /* PCLK1 prescaler equal to 1 => TIMCLK = PCLK1 */
      return (pclk1);
 8000fc4:	68fb      	ldr	r3, [r7, #12]
 8000fc6:	e00f      	b.n	8000fe8 <GET_TIMER_CLK+0x68>
    }
    else
    {
      /* PCLK1 prescaler different from 1 => TIMCLK = 2 * PCLK1 */
      return(2 * pclk1);
 8000fc8:	68fb      	ldr	r3, [r7, #12]
 8000fca:	005b      	lsls	r3, r3, #1
 8000fcc:	e00c      	b.n	8000fe8 <GET_TIMER_CLK+0x68>
    }
  } else {
    /* Get PCLK2 frequency */
    uint32_t pclk2 = HAL_RCC_GetPCLK2Freq();
 8000fce:	f001 feef 	bl	8002db0 <HAL_RCC_GetPCLK2Freq>
 8000fd2:	6138      	str	r0, [r7, #16]
  
    /* Get PCLK1 prescaler */
    if((RCC->CFGR & RCC_CFGR_PPRE2) == 0)
 8000fd4:	4b06      	ldr	r3, [pc, #24]	; (8000ff0 <GET_TIMER_CLK+0x70>)
 8000fd6:	689b      	ldr	r3, [r3, #8]
 8000fd8:	f403 4360 	and.w	r3, r3, #57344	; 0xe000
 8000fdc:	2b00      	cmp	r3, #0
 8000fde:	d101      	bne.n	8000fe4 <GET_TIMER_CLK+0x64>
    {
      /* PCLK1 prescaler equal to 1 => TIMCLK = PCLK1 */
      return (pclk2);
 8000fe0:	693b      	ldr	r3, [r7, #16]
 8000fe2:	e001      	b.n	8000fe8 <GET_TIMER_CLK+0x68>
    }
    else
    {
      /* PCLK1 prescaler different from 1 => TIMCLK = 2 * PCLK1 */
      return(2 * pclk2);
 8000fe4:	693b      	ldr	r3, [r7, #16]
 8000fe6:	005b      	lsls	r3, r3, #1
    }
  }
}
 8000fe8:	4618      	mov	r0, r3
 8000fea:	3718      	adds	r7, #24
 8000fec:	46bd      	mov	sp, r7
 8000fee:	bd80      	pop	{r7, pc}
 8000ff0:	40023800 	.word	0x40023800

08000ff4 <changeTimerFrequency>:

uint8_t first = 1;
int changeTimerFrequency(TIM_HandleTypeDef *timer, int timer_num, int channel, float frequency, int32_t pulseWidth_ms){
 8000ff4:	b5b0      	push	{r4, r5, r7, lr}
 8000ff6:	b08e      	sub	sp, #56	; 0x38
 8000ff8:	af00      	add	r7, sp, #0
 8000ffa:	6178      	str	r0, [r7, #20]
 8000ffc:	6139      	str	r1, [r7, #16]
 8000ffe:	60fa      	str	r2, [r7, #12]
 8001000:	ed87 0a02 	vstr	s0, [r7, #8]
 8001004:	607b      	str	r3, [r7, #4]
  //Get the clock frequency going to this timer (scaled by the timer prescaler)
  float clk_freq = (float)(GET_TIMER_CLK(timer_num) / (PRESCALER - 1));
 8001006:	693b      	ldr	r3, [r7, #16]
 8001008:	b2db      	uxtb	r3, r3
 800100a:	4618      	mov	r0, r3
 800100c:	f7ff ffb8 	bl	8000f80 <GET_TIMER_CLK>
 8001010:	4603      	mov	r3, r0
 8001012:	4a57      	ldr	r2, [pc, #348]	; (8001170 <changeTimerFrequency+0x17c>)
 8001014:	fba2 2303 	umull	r2, r3, r2, r3
 8001018:	0adb      	lsrs	r3, r3, #11
 800101a:	ee07 3a90 	vmov	s15, r3
 800101e:	eef8 7a67 	vcvt.f32.u32	s15, s15
 8001022:	edc7 7a0d 	vstr	s15, [r7, #52]	; 0x34
  int clk_freq_int = (int)clk_freq;
 8001026:	edd7 7a0d 	vldr	s15, [r7, #52]	; 0x34
 800102a:	eefd 7ae7 	vcvt.s32.f32	s15, s15
 800102e:	ee17 3a90 	vmov	r3, s15
 8001032:	633b      	str	r3, [r7, #48]	; 0x30
  //DEBUG
  // sprintf(buff, "TIMER CLK FREQ: %d\n", clk_freq_int);
  // HAL_UART_Transmit(&huart2, buff, 50, 1000);

  //Calculate period and set it
  uint32_t prev_ARR = timer->Instance->ARR;
 8001034:	697b      	ldr	r3, [r7, #20]
 8001036:	681b      	ldr	r3, [r3, #0]
 8001038:	6adb      	ldr	r3, [r3, #44]	; 0x2c
 800103a:	62fb      	str	r3, [r7, #44]	; 0x2c
  uint32_t curr_count = __HAL_TIM_GET_COUNTER(timer);
 800103c:	697b      	ldr	r3, [r7, #20]
 800103e:	681b      	ldr	r3, [r3, #0]
 8001040:	6a5b      	ldr	r3, [r3, #36]	; 0x24
 8001042:	62bb      	str	r3, [r7, #40]	; 0x28
  uint32_t new_ARR = clk_freq / frequency - 1;
 8001044:	edd7 6a0d 	vldr	s13, [r7, #52]	; 0x34
 8001048:	ed97 7a02 	vldr	s14, [r7, #8]
 800104c:	eec6 7a87 	vdiv.f32	s15, s13, s14
 8001050:	eeb7 7a00 	vmov.f32	s14, #112	; 0x3f800000  1.0
 8001054:	ee77 7ac7 	vsub.f32	s15, s15, s14
 8001058:	eefc 7ae7 	vcvt.u32.f32	s15, s15
 800105c:	ee17 3a90 	vmov	r3, s15
 8001060:	627b      	str	r3, [r7, #36]	; 0x24
  timer->Instance->ARR = new_ARR;
 8001062:	697b      	ldr	r3, [r7, #20]
 8001064:	681b      	ldr	r3, [r3, #0]
 8001066:	6a7a      	ldr	r2, [r7, #36]	; 0x24
 8001068:	62da      	str	r2, [r3, #44]	; 0x2c
  uint32_t new_counter = ((float)curr_count / (float)prev_ARR) * new_ARR;
 800106a:	6abb      	ldr	r3, [r7, #40]	; 0x28
 800106c:	ee07 3a90 	vmov	s15, r3
 8001070:	eef8 6a67 	vcvt.f32.u32	s13, s15
 8001074:	6afb      	ldr	r3, [r7, #44]	; 0x2c
 8001076:	ee07 3a90 	vmov	s15, r3
 800107a:	eef8 7a67 	vcvt.f32.u32	s15, s15
 800107e:	ee86 7aa7 	vdiv.f32	s14, s13, s15
 8001082:	6a7b      	ldr	r3, [r7, #36]	; 0x24
 8001084:	ee07 3a90 	vmov	s15, r3
 8001088:	eef8 7a67 	vcvt.f32.u32	s15, s15
 800108c:	ee67 7a27 	vmul.f32	s15, s14, s15
 8001090:	eefc 7ae7 	vcvt.u32.f32	s15, s15
 8001094:	ee17 3a90 	vmov	r3, s15
 8001098:	623b      	str	r3, [r7, #32]
  if(new_counter >= new_ARR){
 800109a:	6a3a      	ldr	r2, [r7, #32]
 800109c:	6a7b      	ldr	r3, [r7, #36]	; 0x24
 800109e:	429a      	cmp	r2, r3
 80010a0:	d323      	bcc.n	80010ea <changeTimerFrequency+0xf6>
    if(first){
 80010a2:	4b34      	ldr	r3, [pc, #208]	; (8001174 <changeTimerFrequency+0x180>)
 80010a4:	781b      	ldrb	r3, [r3, #0]
 80010a6:	2b00      	cmp	r3, #0
 80010a8:	d007      	beq.n	80010ba <changeTimerFrequency+0xc6>
      first = 0;
 80010aa:	4b32      	ldr	r3, [pc, #200]	; (8001174 <changeTimerFrequency+0x180>)
 80010ac:	2200      	movs	r2, #0
 80010ae:	701a      	strb	r2, [r3, #0]
      sprintf(buff, "FIRST BIG!\n");
 80010b0:	4931      	ldr	r1, [pc, #196]	; (8001178 <changeTimerFrequency+0x184>)
 80010b2:	4832      	ldr	r0, [pc, #200]	; (800117c <changeTimerFrequency+0x188>)
 80010b4:	f005 fbb2 	bl	800681c <siprintf>
 80010b8:	e003      	b.n	80010c2 <changeTimerFrequency+0xce>
    } else {
      sprintf(buff, "TOO BIG!\n");
 80010ba:	4931      	ldr	r1, [pc, #196]	; (8001180 <changeTimerFrequency+0x18c>)
 80010bc:	482f      	ldr	r0, [pc, #188]	; (800117c <changeTimerFrequency+0x188>)
 80010be:	f005 fbad 	bl	800681c <siprintf>
    }
    HAL_UART_Transmit(&huart2, buff, strlen(buff), 1000);
 80010c2:	482e      	ldr	r0, [pc, #184]	; (800117c <changeTimerFrequency+0x188>)
 80010c4:	f7ff f8a4 	bl	8000210 <strlen>
 80010c8:	4603      	mov	r3, r0
 80010ca:	b29a      	uxth	r2, r3
 80010cc:	f44f 737a 	mov.w	r3, #1000	; 0x3e8
 80010d0:	492a      	ldr	r1, [pc, #168]	; (800117c <changeTimerFrequency+0x188>)
 80010d2:	482c      	ldr	r0, [pc, #176]	; (8001184 <changeTimerFrequency+0x190>)
 80010d4:	f003 ff23 	bl	8004f1e <HAL_UART_Transmit>
    __HAL_TIM_SET_COUNTER(timer, new_ARR-1);
 80010d8:	697b      	ldr	r3, [r7, #20]
 80010da:	681b      	ldr	r3, [r3, #0]
 80010dc:	6a7a      	ldr	r2, [r7, #36]	; 0x24
 80010de:	3a01      	subs	r2, #1
 80010e0:	625a      	str	r2, [r3, #36]	; 0x24
    new_counter = new_ARR-1;
 80010e2:	6a7b      	ldr	r3, [r7, #36]	; 0x24
 80010e4:	3b01      	subs	r3, #1
 80010e6:	623b      	str	r3, [r7, #32]
 80010e8:	e003      	b.n	80010f2 <changeTimerFrequency+0xfe>
  }
  else{
    __HAL_TIM_SET_COUNTER(timer, new_counter);
 80010ea:	697b      	ldr	r3, [r7, #20]
 80010ec:	681b      	ldr	r3, [r3, #0]
 80010ee:	6a3a      	ldr	r2, [r7, #32]
 80010f0:	625a      	str	r2, [r3, #36]	; 0x24
  //DEBUG
  // sprintf(buff, "TIMER AUTO RELOAD VAL: %d\n", timer->Instance->ARR);
  // HAL_UART_Transmit(&huart2, buff, 50, 1000);
  //Set pulse width if it's valid ie. smaller than the period
  //Calculate the value for CCRx
  int ccr = (float)pulseWidth_ms * (clk_freq/1000.0);
 80010f2:	687b      	ldr	r3, [r7, #4]
 80010f4:	ee07 3a90 	vmov	s15, r3
 80010f8:	eef8 7ae7 	vcvt.f32.s32	s15, s15
 80010fc:	ee17 0a90 	vmov	r0, s15
 8001100:	f7ff fa42 	bl	8000588 <__aeabi_f2d>
 8001104:	4604      	mov	r4, r0
 8001106:	460d      	mov	r5, r1
 8001108:	6b78      	ldr	r0, [r7, #52]	; 0x34
 800110a:	f7ff fa3d 	bl	8000588 <__aeabi_f2d>
 800110e:	f04f 0200 	mov.w	r2, #0
 8001112:	4b1d      	ldr	r3, [pc, #116]	; (8001188 <changeTimerFrequency+0x194>)
 8001114:	f7ff fbba 	bl	800088c <__aeabi_ddiv>
 8001118:	4602      	mov	r2, r0
 800111a:	460b      	mov	r3, r1
 800111c:	4620      	mov	r0, r4
 800111e:	4629      	mov	r1, r5
 8001120:	f7ff fa8a 	bl	8000638 <__aeabi_dmul>
 8001124:	4602      	mov	r2, r0
 8001126:	460b      	mov	r3, r1
 8001128:	4610      	mov	r0, r2
 800112a:	4619      	mov	r1, r3
 800112c:	f7ff fd34 	bl	8000b98 <__aeabi_d2iz>
 8001130:	4603      	mov	r3, r0
 8001132:	61fb      	str	r3, [r7, #28]
  if(ccr <= timer->Instance->ARR)
 8001134:	697b      	ldr	r3, [r7, #20]
 8001136:	681b      	ldr	r3, [r3, #0]
 8001138:	6ada      	ldr	r2, [r3, #44]	; 0x2c
 800113a:	69fb      	ldr	r3, [r7, #28]
 800113c:	429a      	cmp	r2, r3
 800113e:	d30c      	bcc.n	800115a <changeTimerFrequency+0x166>
  {
    if(channel == 1){
 8001140:	68fb      	ldr	r3, [r7, #12]
 8001142:	2b01      	cmp	r3, #1
 8001144:	d104      	bne.n	8001150 <changeTimerFrequency+0x15c>
      timer->Instance->CCR1 = ccr;
 8001146:	697b      	ldr	r3, [r7, #20]
 8001148:	681b      	ldr	r3, [r3, #0]
 800114a:	69fa      	ldr	r2, [r7, #28]
 800114c:	635a      	str	r2, [r3, #52]	; 0x34
 800114e:	e00a      	b.n	8001166 <changeTimerFrequency+0x172>
      //DEBUG
      // sprintf(buff, "TIMER CCR1 VAL: %d\n", timer->Instance->CCR1);
      // HAL_UART_Transmit(&huart2, buff, 50, 1000);
    } else {
      timer->Instance->CCR2 = ccr;
 8001150:	697b      	ldr	r3, [r7, #20]
 8001152:	681b      	ldr	r3, [r3, #0]
 8001154:	69fa      	ldr	r2, [r7, #28]
 8001156:	639a      	str	r2, [r3, #56]	; 0x38
 8001158:	e005      	b.n	8001166 <changeTimerFrequency+0x172>
    }

  }
  else
  {
    timer->Instance->CCR1 = timer->Instance->ARR;
 800115a:	697b      	ldr	r3, [r7, #20]
 800115c:	681a      	ldr	r2, [r3, #0]
 800115e:	697b      	ldr	r3, [r7, #20]
 8001160:	681b      	ldr	r3, [r3, #0]
 8001162:	6ad2      	ldr	r2, [r2, #44]	; 0x2c
 8001164:	635a      	str	r2, [r3, #52]	; 0x34
  }
  return 0;
 8001166:	2300      	movs	r3, #0
}
 8001168:	4618      	mov	r0, r3
 800116a:	3738      	adds	r7, #56	; 0x38
 800116c:	46bd      	mov	sp, r7
 800116e:	bdb0      	pop	{r4, r5, r7, pc}
 8001170:	aed22925 	.word	0xaed22925
 8001174:	20000018 	.word	0x20000018
 8001178:	08008c90 	.word	0x08008c90
 800117c:	20000350 	.word	0x20000350
 8001180:	08008c9c 	.word	0x08008c9c
 8001184:	200004a8 	.word	0x200004a8
 8001188:	408f4000 	.word	0x408f4000

0800118c <map_clamped>:

float map_clamped(float x, float in_min, float in_max, float out_min, float out_max) {
 800118c:	b5b0      	push	{r4, r5, r7, lr}
 800118e:	b08a      	sub	sp, #40	; 0x28
 8001190:	af00      	add	r7, sp, #0
 8001192:	ed87 0a05 	vstr	s0, [r7, #20]
 8001196:	edc7 0a04 	vstr	s1, [r7, #16]
 800119a:	ed87 1a03 	vstr	s2, [r7, #12]
 800119e:	edc7 1a02 	vstr	s3, [r7, #8]
 80011a2:	ed87 2a01 	vstr	s4, [r7, #4]
  //Clip output
  if(x > in_max)
 80011a6:	ed97 7a05 	vldr	s14, [r7, #20]
 80011aa:	edd7 7a03 	vldr	s15, [r7, #12]
 80011ae:	eeb4 7ae7 	vcmpe.f32	s14, s15
 80011b2:	eef1 fa10 	vmrs	APSR_nzcv, fpscr
 80011b6:	dd01      	ble.n	80011bc <map_clamped+0x30>
    return out_max;
 80011b8:	687b      	ldr	r3, [r7, #4]
 80011ba:	e04c      	b.n	8001256 <map_clamped+0xca>
  else if(x < in_min)
 80011bc:	ed97 7a05 	vldr	s14, [r7, #20]
 80011c0:	edd7 7a04 	vldr	s15, [r7, #16]
 80011c4:	eeb4 7ae7 	vcmpe.f32	s14, s15
 80011c8:	eef1 fa10 	vmrs	APSR_nzcv, fpscr
 80011cc:	d501      	bpl.n	80011d2 <map_clamped+0x46>
    return out_min;
 80011ce:	68bb      	ldr	r3, [r7, #8]
 80011d0:	e041      	b.n	8001256 <map_clamped+0xca>
  else
  {
    double slope = 1.0 * (out_max - out_min) / (in_max - in_min);
 80011d2:	ed97 7a01 	vldr	s14, [r7, #4]
 80011d6:	edd7 7a02 	vldr	s15, [r7, #8]
 80011da:	ee77 7a67 	vsub.f32	s15, s14, s15
 80011de:	ee17 0a90 	vmov	r0, s15
 80011e2:	f7ff f9d1 	bl	8000588 <__aeabi_f2d>
 80011e6:	4604      	mov	r4, r0
 80011e8:	460d      	mov	r5, r1
 80011ea:	ed97 7a03 	vldr	s14, [r7, #12]
 80011ee:	edd7 7a04 	vldr	s15, [r7, #16]
 80011f2:	ee77 7a67 	vsub.f32	s15, s14, s15
 80011f6:	ee17 0a90 	vmov	r0, s15
 80011fa:	f7ff f9c5 	bl	8000588 <__aeabi_f2d>
 80011fe:	4602      	mov	r2, r0
 8001200:	460b      	mov	r3, r1
 8001202:	4620      	mov	r0, r4
 8001204:	4629      	mov	r1, r5
 8001206:	f7ff fb41 	bl	800088c <__aeabi_ddiv>
 800120a:	4602      	mov	r2, r0
 800120c:	460b      	mov	r3, r1
 800120e:	e9c7 2308 	strd	r2, r3, [r7, #32]
    double output = out_min + slope * (x - in_min);
 8001212:	68b8      	ldr	r0, [r7, #8]
 8001214:	f7ff f9b8 	bl	8000588 <__aeabi_f2d>
 8001218:	4604      	mov	r4, r0
 800121a:	460d      	mov	r5, r1
 800121c:	ed97 7a05 	vldr	s14, [r7, #20]
 8001220:	edd7 7a04 	vldr	s15, [r7, #16]
 8001224:	ee77 7a67 	vsub.f32	s15, s14, s15
 8001228:	ee17 0a90 	vmov	r0, s15
 800122c:	f7ff f9ac 	bl	8000588 <__aeabi_f2d>
 8001230:	e9d7 2308 	ldrd	r2, r3, [r7, #32]
 8001234:	f7ff fa00 	bl	8000638 <__aeabi_dmul>
 8001238:	4602      	mov	r2, r0
 800123a:	460b      	mov	r3, r1
 800123c:	4620      	mov	r0, r4
 800123e:	4629      	mov	r1, r5
 8001240:	f7ff f844 	bl	80002cc <__adddf3>
 8001244:	4602      	mov	r2, r0
 8001246:	460b      	mov	r3, r1
 8001248:	e9c7 2306 	strd	r2, r3, [r7, #24]
    return output;
 800124c:	e9d7 0106 	ldrd	r0, r1, [r7, #24]
 8001250:	f7ff fcca 	bl	8000be8 <__aeabi_d2f>
 8001254:	4603      	mov	r3, r0
 8001256:	ee07 3a90 	vmov	s15, r3
  }
}
 800125a:	eeb0 0a67 	vmov.f32	s0, s15
 800125e:	3728      	adds	r7, #40	; 0x28
 8001260:	46bd      	mov	sp, r7
 8001262:	bdb0      	pop	{r4, r5, r7, pc}

08001264 <UpdateMotorsFreq>:

void UpdateMotorsFreq(TIM_HandleTypeDef** motors, uint8_t* motors_num, uint8_t* motors_channel, float* distances, float min_dist, float max_dist){
 8001264:	b580      	push	{r7, lr}
 8001266:	b08a      	sub	sp, #40	; 0x28
 8001268:	af00      	add	r7, sp, #0
 800126a:	6178      	str	r0, [r7, #20]
 800126c:	6139      	str	r1, [r7, #16]
 800126e:	60fa      	str	r2, [r7, #12]
 8001270:	60bb      	str	r3, [r7, #8]
 8001272:	ed87 0a01 	vstr	s0, [r7, #4]
 8001276:	edc7 0a00 	vstr	s1, [r7]
  float freq = 0.0;
 800127a:	f04f 0300 	mov.w	r3, #0
 800127e:	627b      	str	r3, [r7, #36]	; 0x24
  uint32_t pulse_width_ms = 0;
 8001280:	2300      	movs	r3, #0
 8001282:	623b      	str	r3, [r7, #32]
  for(int i = 0; i < 4; i++){
 8001284:	2300      	movs	r3, #0
 8001286:	61fb      	str	r3, [r7, #28]
 8001288:	e051      	b.n	800132e <UpdateMotorsFreq+0xca>
    if(distances[i] < min_dist)
 800128a:	69fb      	ldr	r3, [r7, #28]
 800128c:	009b      	lsls	r3, r3, #2
 800128e:	68ba      	ldr	r2, [r7, #8]
 8001290:	4413      	add	r3, r2
 8001292:	edd3 7a00 	vldr	s15, [r3]
 8001296:	ed97 7a01 	vldr	s14, [r7, #4]
 800129a:	eeb4 7ae7 	vcmpe.f32	s14, s15
 800129e:	eef1 fa10 	vmrs	APSR_nzcv, fpscr
 80012a2:	dd04      	ble.n	80012ae <UpdateMotorsFreq+0x4a>
    {
      freq = 5.0;
 80012a4:	4b26      	ldr	r3, [pc, #152]	; (8001340 <UpdateMotorsFreq+0xdc>)
 80012a6:	627b      	str	r3, [r7, #36]	; 0x24
      pulse_width_ms = 200;
 80012a8:	23c8      	movs	r3, #200	; 0xc8
 80012aa:	623b      	str	r3, [r7, #32]
 80012ac:	e028      	b.n	8001300 <UpdateMotorsFreq+0x9c>
    }
    else if(distances[i] > max_dist)
 80012ae:	69fb      	ldr	r3, [r7, #28]
 80012b0:	009b      	lsls	r3, r3, #2
 80012b2:	68ba      	ldr	r2, [r7, #8]
 80012b4:	4413      	add	r3, r2
 80012b6:	edd3 7a00 	vldr	s15, [r3]
 80012ba:	ed97 7a00 	vldr	s14, [r7]
 80012be:	eeb4 7ae7 	vcmpe.f32	s14, s15
 80012c2:	eef1 fa10 	vmrs	APSR_nzcv, fpscr
 80012c6:	d505      	bpl.n	80012d4 <UpdateMotorsFreq+0x70>
    {
      freq = 1.0;
 80012c8:	f04f 537e 	mov.w	r3, #1065353216	; 0x3f800000
 80012cc:	627b      	str	r3, [r7, #36]	; 0x24
      pulse_width_ms = 1;
 80012ce:	2301      	movs	r3, #1
 80012d0:	623b      	str	r3, [r7, #32]
 80012d2:	e015      	b.n	8001300 <UpdateMotorsFreq+0x9c>
    }
    else
    {
      freq = map_clamped(distances[i], min_dist, max_dist, 5.0, 1.0);
 80012d4:	69fb      	ldr	r3, [r7, #28]
 80012d6:	009b      	lsls	r3, r3, #2
 80012d8:	68ba      	ldr	r2, [r7, #8]
 80012da:	4413      	add	r3, r2
 80012dc:	edd3 7a00 	vldr	s15, [r3]
 80012e0:	eeb7 2a00 	vmov.f32	s4, #112	; 0x3f800000  1.0
 80012e4:	eef1 1a04 	vmov.f32	s3, #20	; 0x40a00000  5.0
 80012e8:	ed97 1a00 	vldr	s2, [r7]
 80012ec:	edd7 0a01 	vldr	s1, [r7, #4]
 80012f0:	eeb0 0a67 	vmov.f32	s0, s15
 80012f4:	f7ff ff4a 	bl	800118c <map_clamped>
 80012f8:	ed87 0a09 	vstr	s0, [r7, #36]	; 0x24
      pulse_width_ms = 200;
 80012fc:	23c8      	movs	r3, #200	; 0xc8
 80012fe:	623b      	str	r3, [r7, #32]
    }
    // sprintf(buff, "MOTOR: %d\tDIST %d: %.2f\tFREQ %d: %.2f\t PULSE WIDTH:%d\n", motors_num[i], i, distances[i], i, freq, pulse_width_ms);
    // HAL_UART_Transmit(&huart2, buff, strlen(buff), 10000);
    changeTimerFrequency(motors[i], motors_num[i], motors_channel[i], freq, pulse_width_ms);
 8001300:	69fb      	ldr	r3, [r7, #28]
 8001302:	009b      	lsls	r3, r3, #2
 8001304:	697a      	ldr	r2, [r7, #20]
 8001306:	4413      	add	r3, r2
 8001308:	6818      	ldr	r0, [r3, #0]
 800130a:	69fb      	ldr	r3, [r7, #28]
 800130c:	693a      	ldr	r2, [r7, #16]
 800130e:	4413      	add	r3, r2
 8001310:	781b      	ldrb	r3, [r3, #0]
 8001312:	4619      	mov	r1, r3
 8001314:	69fb      	ldr	r3, [r7, #28]
 8001316:	68fa      	ldr	r2, [r7, #12]
 8001318:	4413      	add	r3, r2
 800131a:	781b      	ldrb	r3, [r3, #0]
 800131c:	461a      	mov	r2, r3
 800131e:	6a3b      	ldr	r3, [r7, #32]
 8001320:	ed97 0a09 	vldr	s0, [r7, #36]	; 0x24
 8001324:	f7ff fe66 	bl	8000ff4 <changeTimerFrequency>
  for(int i = 0; i < 4; i++){
 8001328:	69fb      	ldr	r3, [r7, #28]
 800132a:	3301      	adds	r3, #1
 800132c:	61fb      	str	r3, [r7, #28]
 800132e:	69fb      	ldr	r3, [r7, #28]
 8001330:	2b03      	cmp	r3, #3
 8001332:	ddaa      	ble.n	800128a <UpdateMotorsFreq+0x26>
  }
}
 8001334:	bf00      	nop
 8001336:	bf00      	nop
 8001338:	3728      	adds	r7, #40	; 0x28
 800133a:	46bd      	mov	sp, r7
 800133c:	bd80      	pop	{r7, pc}
 800133e:	bf00      	nop
 8001340:	40a00000 	.word	0x40a00000

08001344 <main>:
/**
  * @brief  The application entry point.
  * @retval int
  */
int main(void)
{
 8001344:	b580      	push	{r7, lr}
 8001346:	af00      	add	r7, sp, #0
  /* USER CODE END 1 */

  /* MCU Configuration--------------------------------------------------------*/

  /* Reset of all peripherals, Initializes the Flash interface and the Systick. */
  HAL_Init();
 8001348:	f001 f8d6 	bl	80024f8 <HAL_Init>
  /* USER CODE BEGIN Init */

  /* USER CODE END Init */

  /* Configure the system clock */
  SystemClock_Config();
 800134c:	f000 f8d8 	bl	8001500 <SystemClock_Config>
  /* USER CODE BEGIN SysInit */

  /* USER CODE END SysInit */

  /* Initialize all configured peripherals */
  MX_GPIO_Init();
 8001350:	f000 fc60 	bl	8001c14 <MX_GPIO_Init>
  MX_USART2_UART_Init();
 8001354:	f000 fc34 	bl	8001bc0 <MX_USART2_UART_Init>
  MX_TIM1_Init();
 8001358:	f000 f940 	bl	80015dc <MX_TIM1_Init>
  MX_TIM3_Init();
 800135c:	f000 f9e0 	bl	8001720 <MX_TIM3_Init>
  MX_TIM4_Init();
 8001360:	f000 fa56 	bl	8001810 <MX_TIM4_Init>
  MX_TIM5_Init();
 8001364:	f000 facc 	bl	8001900 <MX_TIM5_Init>
  MX_TIM8_Init();
 8001368:	f000 fb24 	bl	80019b4 <MX_TIM8_Init>
  MX_TIM12_Init();
 800136c:	f000 fbc4 	bl	8001af8 <MX_TIM12_Init>
  /* USER CODE BEGIN 2 */
  HCSR04_Init(HCSR04_SENSOR1, &htim2);
 8001370:	4955      	ldr	r1, [pc, #340]	; (80014c8 <main+0x184>)
 8001372:	2000      	movs	r0, #0
 8001374:	f004 f8c4 	bl	8005500 <HCSR04_Init>
  HCSR04_Init(HCSR04_SENSOR2, &htim2);
 8001378:	4953      	ldr	r1, [pc, #332]	; (80014c8 <main+0x184>)
 800137a:	2001      	movs	r0, #1
 800137c:	f004 f8c0 	bl	8005500 <HCSR04_Init>
  HCSR04_Init(HCSR04_SENSOR3, &htim2);
 8001380:	4951      	ldr	r1, [pc, #324]	; (80014c8 <main+0x184>)
 8001382:	2002      	movs	r0, #2
 8001384:	f004 f8bc 	bl	8005500 <HCSR04_Init>
  HCSR04_Init(HCSR04_SENSOR4, &htim2);
 8001388:	494f      	ldr	r1, [pc, #316]	; (80014c8 <main+0x184>)
 800138a:	2003      	movs	r0, #3
 800138c:	f004 f8b8 	bl	8005500 <HCSR04_Init>
  //START MOTOR TIMER 1,2,5,6 (middle 3 and 4 are not used)
  //1->TIM1, 2->TIM3, 3->TIM4, 4->TIM5, 5->TIM8, 6->TIM12
  HAL_TIM_PWM_Start(&htim1, TIM_CHANNEL_1);
 8001390:	2100      	movs	r1, #0
 8001392:	484e      	ldr	r0, [pc, #312]	; (80014cc <main+0x188>)
 8001394:	f002 fa80 	bl	8003898 <HAL_TIM_PWM_Start>
  HAL_TIM_PWM_Start(&htim3, TIM_CHANNEL_1);
 8001398:	2100      	movs	r1, #0
 800139a:	484d      	ldr	r0, [pc, #308]	; (80014d0 <main+0x18c>)
 800139c:	f002 fa7c 	bl	8003898 <HAL_TIM_PWM_Start>
  HAL_TIM_PWM_Start(&htim8, TIM_CHANNEL_1);
 80013a0:	2100      	movs	r1, #0
 80013a2:	484c      	ldr	r0, [pc, #304]	; (80014d4 <main+0x190>)
 80013a4:	f002 fa78 	bl	8003898 <HAL_TIM_PWM_Start>
  HAL_TIM_PWM_Start(&htim12, TIM_CHANNEL_1);
 80013a8:	2100      	movs	r1, #0
 80013aa:	484b      	ldr	r0, [pc, #300]	; (80014d8 <main+0x194>)
 80013ac:	f002 fa74 	bl	8003898 <HAL_TIM_PWM_Start>
  while (1)
  {
    /* USER CODE END WHILE */

    /* USER CODE BEGIN 3 */
	  Distance1 = HCSR04_Read(HCSR04_SENSOR1);
 80013b0:	2000      	movs	r0, #0
 80013b2:	f004 fd15 	bl	8005de0 <HCSR04_Read>
 80013b6:	eef0 7a40 	vmov.f32	s15, s0
 80013ba:	4b48      	ldr	r3, [pc, #288]	; (80014dc <main+0x198>)
 80013bc:	edc3 7a00 	vstr	s15, [r3]
	  Distance2 = HCSR04_Read(HCSR04_SENSOR2);
 80013c0:	2001      	movs	r0, #1
 80013c2:	f004 fd0d 	bl	8005de0 <HCSR04_Read>
 80013c6:	eef0 7a40 	vmov.f32	s15, s0
 80013ca:	4b45      	ldr	r3, [pc, #276]	; (80014e0 <main+0x19c>)
 80013cc:	edc3 7a00 	vstr	s15, [r3]
	  Distance3 = HCSR04_Read(HCSR04_SENSOR3);
 80013d0:	2002      	movs	r0, #2
 80013d2:	f004 fd05 	bl	8005de0 <HCSR04_Read>
 80013d6:	eef0 7a40 	vmov.f32	s15, s0
 80013da:	4b42      	ldr	r3, [pc, #264]	; (80014e4 <main+0x1a0>)
 80013dc:	edc3 7a00 	vstr	s15, [r3]
	  Distance4 = HCSR04_Read(HCSR04_SENSOR4);
 80013e0:	2003      	movs	r0, #3
 80013e2:	f004 fcfd 	bl	8005de0 <HCSR04_Read>
 80013e6:	eef0 7a40 	vmov.f32	s15, s0
 80013ea:	4b3f      	ldr	r3, [pc, #252]	; (80014e8 <main+0x1a4>)
 80013ec:	edc3 7a00 	vstr	s15, [r3]
    distances[0] = Distance1;
 80013f0:	4b3a      	ldr	r3, [pc, #232]	; (80014dc <main+0x198>)
 80013f2:	681b      	ldr	r3, [r3, #0]
 80013f4:	4a3d      	ldr	r2, [pc, #244]	; (80014ec <main+0x1a8>)
 80013f6:	6013      	str	r3, [r2, #0]
    distances[1] = Distance2;
 80013f8:	4b39      	ldr	r3, [pc, #228]	; (80014e0 <main+0x19c>)
 80013fa:	681b      	ldr	r3, [r3, #0]
 80013fc:	4a3b      	ldr	r2, [pc, #236]	; (80014ec <main+0x1a8>)
 80013fe:	6053      	str	r3, [r2, #4]
    distances[2] = Distance3;
 8001400:	4b38      	ldr	r3, [pc, #224]	; (80014e4 <main+0x1a0>)
 8001402:	681b      	ldr	r3, [r3, #0]
 8001404:	4a39      	ldr	r2, [pc, #228]	; (80014ec <main+0x1a8>)
 8001406:	6093      	str	r3, [r2, #8]
    distances[3] = Distance4;
 8001408:	4b37      	ldr	r3, [pc, #220]	; (80014e8 <main+0x1a4>)
 800140a:	681b      	ldr	r3, [r3, #0]
 800140c:	4a37      	ldr	r2, [pc, #220]	; (80014ec <main+0x1a8>)
 800140e:	60d3      	str	r3, [r2, #12]
	  sprintf(buff, "Dist= %5.2f cm\t", Distance1);
 8001410:	4b32      	ldr	r3, [pc, #200]	; (80014dc <main+0x198>)
 8001412:	681b      	ldr	r3, [r3, #0]
 8001414:	4618      	mov	r0, r3
 8001416:	f7ff f8b7 	bl	8000588 <__aeabi_f2d>
 800141a:	4602      	mov	r2, r0
 800141c:	460b      	mov	r3, r1
 800141e:	4934      	ldr	r1, [pc, #208]	; (80014f0 <main+0x1ac>)
 8001420:	4834      	ldr	r0, [pc, #208]	; (80014f4 <main+0x1b0>)
 8001422:	f005 f9fb 	bl	800681c <siprintf>
	  HAL_UART_Transmit(&huart2, buff, strlen(buff), 1000);
 8001426:	4833      	ldr	r0, [pc, #204]	; (80014f4 <main+0x1b0>)
 8001428:	f7fe fef2 	bl	8000210 <strlen>
 800142c:	4603      	mov	r3, r0
 800142e:	b29a      	uxth	r2, r3
 8001430:	f44f 737a 	mov.w	r3, #1000	; 0x3e8
 8001434:	492f      	ldr	r1, [pc, #188]	; (80014f4 <main+0x1b0>)
 8001436:	4830      	ldr	r0, [pc, #192]	; (80014f8 <main+0x1b4>)
 8001438:	f003 fd71 	bl	8004f1e <HAL_UART_Transmit>
	  sprintf(buff, "Dist= %5.2f cm\t", Distance2);
 800143c:	4b28      	ldr	r3, [pc, #160]	; (80014e0 <main+0x19c>)
 800143e:	681b      	ldr	r3, [r3, #0]
 8001440:	4618      	mov	r0, r3
 8001442:	f7ff f8a1 	bl	8000588 <__aeabi_f2d>
 8001446:	4602      	mov	r2, r0
 8001448:	460b      	mov	r3, r1
 800144a:	4929      	ldr	r1, [pc, #164]	; (80014f0 <main+0x1ac>)
 800144c:	4829      	ldr	r0, [pc, #164]	; (80014f4 <main+0x1b0>)
 800144e:	f005 f9e5 	bl	800681c <siprintf>
	  HAL_UART_Transmit(&huart2, buff, strlen(buff), 1000);
 8001452:	4828      	ldr	r0, [pc, #160]	; (80014f4 <main+0x1b0>)
 8001454:	f7fe fedc 	bl	8000210 <strlen>
 8001458:	4603      	mov	r3, r0
 800145a:	b29a      	uxth	r2, r3
 800145c:	f44f 737a 	mov.w	r3, #1000	; 0x3e8
 8001460:	4924      	ldr	r1, [pc, #144]	; (80014f4 <main+0x1b0>)
 8001462:	4825      	ldr	r0, [pc, #148]	; (80014f8 <main+0x1b4>)
 8001464:	f003 fd5b 	bl	8004f1e <HAL_UART_Transmit>
	  sprintf(buff, "Dist= %5.2f cm\t", Distance3);
 8001468:	4b1e      	ldr	r3, [pc, #120]	; (80014e4 <main+0x1a0>)
 800146a:	681b      	ldr	r3, [r3, #0]
 800146c:	4618      	mov	r0, r3
 800146e:	f7ff f88b 	bl	8000588 <__aeabi_f2d>
 8001472:	4602      	mov	r2, r0
 8001474:	460b      	mov	r3, r1
 8001476:	491e      	ldr	r1, [pc, #120]	; (80014f0 <main+0x1ac>)
 8001478:	481e      	ldr	r0, [pc, #120]	; (80014f4 <main+0x1b0>)
 800147a:	f005 f9cf 	bl	800681c <siprintf>
	  HAL_UART_Transmit(&huart2, buff, strlen(buff), 1000);
 800147e:	481d      	ldr	r0, [pc, #116]	; (80014f4 <main+0x1b0>)
 8001480:	f7fe fec6 	bl	8000210 <strlen>
 8001484:	4603      	mov	r3, r0
 8001486:	b29a      	uxth	r2, r3
 8001488:	f44f 737a 	mov.w	r3, #1000	; 0x3e8
 800148c:	4919      	ldr	r1, [pc, #100]	; (80014f4 <main+0x1b0>)
 800148e:	481a      	ldr	r0, [pc, #104]	; (80014f8 <main+0x1b4>)
 8001490:	f003 fd45 	bl	8004f1e <HAL_UART_Transmit>
	  sprintf(buff, "Dist= %5.2f cm\n", Distance4);
 8001494:	4b14      	ldr	r3, [pc, #80]	; (80014e8 <main+0x1a4>)
 8001496:	681b      	ldr	r3, [r3, #0]
 8001498:	4618      	mov	r0, r3
 800149a:	f7ff f875 	bl	8000588 <__aeabi_f2d>
 800149e:	4602      	mov	r2, r0
 80014a0:	460b      	mov	r3, r1
 80014a2:	4916      	ldr	r1, [pc, #88]	; (80014fc <main+0x1b8>)
 80014a4:	4813      	ldr	r0, [pc, #76]	; (80014f4 <main+0x1b0>)
 80014a6:	f005 f9b9 	bl	800681c <siprintf>
	  HAL_UART_Transmit(&huart2, buff, strlen(buff), 1000);
 80014aa:	4812      	ldr	r0, [pc, #72]	; (80014f4 <main+0x1b0>)
 80014ac:	f7fe feb0 	bl	8000210 <strlen>
 80014b0:	4603      	mov	r3, r0
 80014b2:	b29a      	uxth	r2, r3
 80014b4:	f44f 737a 	mov.w	r3, #1000	; 0x3e8
 80014b8:	490e      	ldr	r1, [pc, #56]	; (80014f4 <main+0x1b0>)
 80014ba:	480f      	ldr	r0, [pc, #60]	; (80014f8 <main+0x1b4>)
 80014bc:	f003 fd2f 	bl	8004f1e <HAL_UART_Transmit>
	  HAL_Delay(10);
 80014c0:	200a      	movs	r0, #10
 80014c2:	f001 f88b 	bl	80025dc <HAL_Delay>
  {
 80014c6:	e773      	b.n	80013b0 <main+0x6c>
 80014c8:	20000460 	.word	0x20000460
 80014cc:	20000418 	.word	0x20000418
 80014d0:	200003cc 	.word	0x200003cc
 80014d4:	200002c0 	.word	0x200002c0
 80014d8:	20000500 	.word	0x20000500
 80014dc:	20000214 	.word	0x20000214
 80014e0:	20000218 	.word	0x20000218
 80014e4:	2000021c 	.word	0x2000021c
 80014e8:	20000220 	.word	0x20000220
 80014ec:	200004ec 	.word	0x200004ec
 80014f0:	08008ca8 	.word	0x08008ca8
 80014f4:	20000350 	.word	0x20000350
 80014f8:	200004a8 	.word	0x200004a8
 80014fc:	08008cb8 	.word	0x08008cb8

08001500 <SystemClock_Config>:
/**
  * @brief System Clock Configuration
  * @retval None
  */
void SystemClock_Config(void)
{
 8001500:	b580      	push	{r7, lr}
 8001502:	b094      	sub	sp, #80	; 0x50
 8001504:	af00      	add	r7, sp, #0
  RCC_OscInitTypeDef RCC_OscInitStruct = {0};
 8001506:	f107 031c 	add.w	r3, r7, #28
 800150a:	2234      	movs	r2, #52	; 0x34
 800150c:	2100      	movs	r1, #0
 800150e:	4618      	mov	r0, r3
 8001510:	f004 fd12 	bl	8005f38 <memset>
  RCC_ClkInitTypeDef RCC_ClkInitStruct = {0};
 8001514:	f107 0308 	add.w	r3, r7, #8
 8001518:	2200      	movs	r2, #0
 800151a:	601a      	str	r2, [r3, #0]
 800151c:	605a      	str	r2, [r3, #4]
 800151e:	609a      	str	r2, [r3, #8]
 8001520:	60da      	str	r2, [r3, #12]
 8001522:	611a      	str	r2, [r3, #16]

  /** Configure the main internal regulator output voltage
  */
  __HAL_RCC_PWR_CLK_ENABLE();
 8001524:	2300      	movs	r3, #0
 8001526:	607b      	str	r3, [r7, #4]
 8001528:	4b2a      	ldr	r3, [pc, #168]	; (80015d4 <SystemClock_Config+0xd4>)
 800152a:	6c1b      	ldr	r3, [r3, #64]	; 0x40
 800152c:	4a29      	ldr	r2, [pc, #164]	; (80015d4 <SystemClock_Config+0xd4>)
 800152e:	f043 5380 	orr.w	r3, r3, #268435456	; 0x10000000
 8001532:	6413      	str	r3, [r2, #64]	; 0x40
 8001534:	4b27      	ldr	r3, [pc, #156]	; (80015d4 <SystemClock_Config+0xd4>)
 8001536:	6c1b      	ldr	r3, [r3, #64]	; 0x40
 8001538:	f003 5380 	and.w	r3, r3, #268435456	; 0x10000000
 800153c:	607b      	str	r3, [r7, #4]
 800153e:	687b      	ldr	r3, [r7, #4]
  __HAL_PWR_VOLTAGESCALING_CONFIG(PWR_REGULATOR_VOLTAGE_SCALE3);
 8001540:	2300      	movs	r3, #0
 8001542:	603b      	str	r3, [r7, #0]
 8001544:	4b24      	ldr	r3, [pc, #144]	; (80015d8 <SystemClock_Config+0xd8>)
 8001546:	681b      	ldr	r3, [r3, #0]
 8001548:	f423 4340 	bic.w	r3, r3, #49152	; 0xc000
 800154c:	4a22      	ldr	r2, [pc, #136]	; (80015d8 <SystemClock_Config+0xd8>)
 800154e:	f443 4380 	orr.w	r3, r3, #16384	; 0x4000
 8001552:	6013      	str	r3, [r2, #0]
 8001554:	4b20      	ldr	r3, [pc, #128]	; (80015d8 <SystemClock_Config+0xd8>)
 8001556:	681b      	ldr	r3, [r3, #0]
 8001558:	f403 4340 	and.w	r3, r3, #49152	; 0xc000
 800155c:	603b      	str	r3, [r7, #0]
 800155e:	683b      	ldr	r3, [r7, #0]
  /** Initializes the RCC Oscillators according to the specified parameters
  * in the RCC_OscInitTypeDef structure.
  */
  RCC_OscInitStruct.OscillatorType = RCC_OSCILLATORTYPE_HSI;
 8001560:	2302      	movs	r3, #2
 8001562:	61fb      	str	r3, [r7, #28]
  RCC_OscInitStruct.HSIState = RCC_HSI_ON;
 8001564:	2301      	movs	r3, #1
 8001566:	62bb      	str	r3, [r7, #40]	; 0x28
  RCC_OscInitStruct.HSICalibrationValue = RCC_HSICALIBRATION_DEFAULT;
 8001568:	2310      	movs	r3, #16
 800156a:	62fb      	str	r3, [r7, #44]	; 0x2c
  RCC_OscInitStruct.PLL.PLLState = RCC_PLL_ON;
 800156c:	2302      	movs	r3, #2
 800156e:	637b      	str	r3, [r7, #52]	; 0x34
  RCC_OscInitStruct.PLL.PLLSource = RCC_PLLSOURCE_HSI;
 8001570:	2300      	movs	r3, #0
 8001572:	63bb      	str	r3, [r7, #56]	; 0x38
  RCC_OscInitStruct.PLL.PLLM = 16;
 8001574:	2310      	movs	r3, #16
 8001576:	63fb      	str	r3, [r7, #60]	; 0x3c
  RCC_OscInitStruct.PLL.PLLN = 336;
 8001578:	f44f 73a8 	mov.w	r3, #336	; 0x150
 800157c:	643b      	str	r3, [r7, #64]	; 0x40
  RCC_OscInitStruct.PLL.PLLP = RCC_PLLP_DIV4;
 800157e:	2304      	movs	r3, #4
 8001580:	647b      	str	r3, [r7, #68]	; 0x44
  RCC_OscInitStruct.PLL.PLLQ = 2;
 8001582:	2302      	movs	r3, #2
 8001584:	64bb      	str	r3, [r7, #72]	; 0x48
  RCC_OscInitStruct.PLL.PLLR = 2;
 8001586:	2302      	movs	r3, #2
 8001588:	64fb      	str	r3, [r7, #76]	; 0x4c
  if (HAL_RCC_OscConfig(&RCC_OscInitStruct) != HAL_OK)
 800158a:	f107 031c 	add.w	r3, r7, #28
 800158e:	4618      	mov	r0, r3
 8001590:	f001 fdd4 	bl	800313c <HAL_RCC_OscConfig>
 8001594:	4603      	mov	r3, r0
 8001596:	2b00      	cmp	r3, #0
 8001598:	d001      	beq.n	800159e <SystemClock_Config+0x9e>
  {
    Error_Handler();
 800159a:	f000 fc01 	bl	8001da0 <Error_Handler>
  }
  /** Initializes the CPU, AHB and APB buses clocks
  */
  RCC_ClkInitStruct.ClockType = RCC_CLOCKTYPE_HCLK|RCC_CLOCKTYPE_SYSCLK
 800159e:	230f      	movs	r3, #15
 80015a0:	60bb      	str	r3, [r7, #8]
                              |RCC_CLOCKTYPE_PCLK1|RCC_CLOCKTYPE_PCLK2;
  RCC_ClkInitStruct.SYSCLKSource = RCC_SYSCLKSOURCE_PLLCLK;
 80015a2:	2302      	movs	r3, #2
 80015a4:	60fb      	str	r3, [r7, #12]
  RCC_ClkInitStruct.AHBCLKDivider = RCC_SYSCLK_DIV1;
 80015a6:	2300      	movs	r3, #0
 80015a8:	613b      	str	r3, [r7, #16]
  RCC_ClkInitStruct.APB1CLKDivider = RCC_HCLK_DIV2;
 80015aa:	f44f 5380 	mov.w	r3, #4096	; 0x1000
 80015ae:	617b      	str	r3, [r7, #20]
  RCC_ClkInitStruct.APB2CLKDivider = RCC_HCLK_DIV1;
 80015b0:	2300      	movs	r3, #0
 80015b2:	61bb      	str	r3, [r7, #24]

  if (HAL_RCC_ClockConfig(&RCC_ClkInitStruct, FLASH_LATENCY_2) != HAL_OK)
 80015b4:	f107 0308 	add.w	r3, r7, #8
 80015b8:	2102      	movs	r1, #2
 80015ba:	4618      	mov	r0, r3
 80015bc:	f001 faf2 	bl	8002ba4 <HAL_RCC_ClockConfig>
 80015c0:	4603      	mov	r3, r0
 80015c2:	2b00      	cmp	r3, #0
 80015c4:	d001      	beq.n	80015ca <SystemClock_Config+0xca>
  {
    Error_Handler();
 80015c6:	f000 fbeb 	bl	8001da0 <Error_Handler>
  }
}
 80015ca:	bf00      	nop
 80015cc:	3750      	adds	r7, #80	; 0x50
 80015ce:	46bd      	mov	sp, r7
 80015d0:	bd80      	pop	{r7, pc}
 80015d2:	bf00      	nop
 80015d4:	40023800 	.word	0x40023800
 80015d8:	40007000 	.word	0x40007000

080015dc <MX_TIM1_Init>:
  * @brief TIM1 Initialization Function
  * @param None
  * @retval None
  */
static void MX_TIM1_Init(void)
{
 80015dc:	b580      	push	{r7, lr}
 80015de:	b096      	sub	sp, #88	; 0x58
 80015e0:	af00      	add	r7, sp, #0

  /* USER CODE BEGIN TIM1_Init 0 */

  /* USER CODE END TIM1_Init 0 */

  TIM_ClockConfigTypeDef sClockSourceConfig = {0};
 80015e2:	f107 0348 	add.w	r3, r7, #72	; 0x48
 80015e6:	2200      	movs	r2, #0
 80015e8:	601a      	str	r2, [r3, #0]
 80015ea:	605a      	str	r2, [r3, #4]
 80015ec:	609a      	str	r2, [r3, #8]
 80015ee:	60da      	str	r2, [r3, #12]
  TIM_MasterConfigTypeDef sMasterConfig = {0};
 80015f0:	f107 0340 	add.w	r3, r7, #64	; 0x40
 80015f4:	2200      	movs	r2, #0
 80015f6:	601a      	str	r2, [r3, #0]
 80015f8:	605a      	str	r2, [r3, #4]
  TIM_OC_InitTypeDef sConfigOC = {0};
 80015fa:	f107 0324 	add.w	r3, r7, #36	; 0x24
 80015fe:	2200      	movs	r2, #0
 8001600:	601a      	str	r2, [r3, #0]
 8001602:	605a      	str	r2, [r3, #4]
 8001604:	609a      	str	r2, [r3, #8]
 8001606:	60da      	str	r2, [r3, #12]
 8001608:	611a      	str	r2, [r3, #16]
 800160a:	615a      	str	r2, [r3, #20]
 800160c:	619a      	str	r2, [r3, #24]
  TIM_BreakDeadTimeConfigTypeDef sBreakDeadTimeConfig = {0};
 800160e:	1d3b      	adds	r3, r7, #4
 8001610:	2220      	movs	r2, #32
 8001612:	2100      	movs	r1, #0
 8001614:	4618      	mov	r0, r3
 8001616:	f004 fc8f 	bl	8005f38 <memset>

  /* USER CODE BEGIN TIM1_Init 1 */

  /* USER CODE END TIM1_Init 1 */
  htim1.Instance = TIM1;
 800161a:	4b3f      	ldr	r3, [pc, #252]	; (8001718 <MX_TIM1_Init+0x13c>)
 800161c:	4a3f      	ldr	r2, [pc, #252]	; (800171c <MX_TIM1_Init+0x140>)
 800161e:	601a      	str	r2, [r3, #0]
  htim1.Init.Prescaler = 3000-1;
 8001620:	4b3d      	ldr	r3, [pc, #244]	; (8001718 <MX_TIM1_Init+0x13c>)
 8001622:	f640 32b7 	movw	r2, #2999	; 0xbb7
 8001626:	605a      	str	r2, [r3, #4]
  htim1.Init.CounterMode = TIM_COUNTERMODE_UP;
 8001628:	4b3b      	ldr	r3, [pc, #236]	; (8001718 <MX_TIM1_Init+0x13c>)
 800162a:	2200      	movs	r2, #0
 800162c:	609a      	str	r2, [r3, #8]
  htim1.Init.Period = 65535;
 800162e:	4b3a      	ldr	r3, [pc, #232]	; (8001718 <MX_TIM1_Init+0x13c>)
 8001630:	f64f 72ff 	movw	r2, #65535	; 0xffff
 8001634:	60da      	str	r2, [r3, #12]
  htim1.Init.ClockDivision = TIM_CLOCKDIVISION_DIV1;
 8001636:	4b38      	ldr	r3, [pc, #224]	; (8001718 <MX_TIM1_Init+0x13c>)
 8001638:	2200      	movs	r2, #0
 800163a:	611a      	str	r2, [r3, #16]
  htim1.Init.RepetitionCounter = 0;
 800163c:	4b36      	ldr	r3, [pc, #216]	; (8001718 <MX_TIM1_Init+0x13c>)
 800163e:	2200      	movs	r2, #0
 8001640:	615a      	str	r2, [r3, #20]
  htim1.Init.AutoReloadPreload = TIM_AUTORELOAD_PRELOAD_DISABLE;
 8001642:	4b35      	ldr	r3, [pc, #212]	; (8001718 <MX_TIM1_Init+0x13c>)
 8001644:	2200      	movs	r2, #0
 8001646:	619a      	str	r2, [r3, #24]
  if (HAL_TIM_Base_Init(&htim1) != HAL_OK)
 8001648:	4833      	ldr	r0, [pc, #204]	; (8001718 <MX_TIM1_Init+0x13c>)
 800164a:	f002 f815 	bl	8003678 <HAL_TIM_Base_Init>
 800164e:	4603      	mov	r3, r0
 8001650:	2b00      	cmp	r3, #0
 8001652:	d001      	beq.n	8001658 <MX_TIM1_Init+0x7c>
  {
    Error_Handler();
 8001654:	f000 fba4 	bl	8001da0 <Error_Handler>
  }
  sClockSourceConfig.ClockSource = TIM_CLOCKSOURCE_INTERNAL;
 8001658:	f44f 5380 	mov.w	r3, #4096	; 0x1000
 800165c:	64bb      	str	r3, [r7, #72]	; 0x48
  if (HAL_TIM_ConfigClockSource(&htim1, &sClockSourceConfig) != HAL_OK)
 800165e:	f107 0348 	add.w	r3, r7, #72	; 0x48
 8001662:	4619      	mov	r1, r3
 8001664:	482c      	ldr	r0, [pc, #176]	; (8001718 <MX_TIM1_Init+0x13c>)
 8001666:	f002 fdc7 	bl	80041f8 <HAL_TIM_ConfigClockSource>
 800166a:	4603      	mov	r3, r0
 800166c:	2b00      	cmp	r3, #0
 800166e:	d001      	beq.n	8001674 <MX_TIM1_Init+0x98>
  {
    Error_Handler();
 8001670:	f000 fb96 	bl	8001da0 <Error_Handler>
  }
  if (HAL_TIM_PWM_Init(&htim1) != HAL_OK)
 8001674:	4828      	ldr	r0, [pc, #160]	; (8001718 <MX_TIM1_Init+0x13c>)
 8001676:	f002 f8bf 	bl	80037f8 <HAL_TIM_PWM_Init>
 800167a:	4603      	mov	r3, r0
 800167c:	2b00      	cmp	r3, #0
 800167e:	d001      	beq.n	8001684 <MX_TIM1_Init+0xa8>
  {
    Error_Handler();
 8001680:	f000 fb8e 	bl	8001da0 <Error_Handler>
  }
  sMasterConfig.MasterOutputTrigger = TIM_TRGO_RESET;
 8001684:	2300      	movs	r3, #0
 8001686:	643b      	str	r3, [r7, #64]	; 0x40
  sMasterConfig.MasterSlaveMode = TIM_MASTERSLAVEMODE_DISABLE;
 8001688:	2300      	movs	r3, #0
 800168a:	647b      	str	r3, [r7, #68]	; 0x44
  if (HAL_TIMEx_MasterConfigSynchronization(&htim1, &sMasterConfig) != HAL_OK)
 800168c:	f107 0340 	add.w	r3, r7, #64	; 0x40
 8001690:	4619      	mov	r1, r3
 8001692:	4821      	ldr	r0, [pc, #132]	; (8001718 <MX_TIM1_Init+0x13c>)
 8001694:	f003 fb14 	bl	8004cc0 <HAL_TIMEx_MasterConfigSynchronization>
 8001698:	4603      	mov	r3, r0
 800169a:	2b00      	cmp	r3, #0
 800169c:	d001      	beq.n	80016a2 <MX_TIM1_Init+0xc6>
  {
    Error_Handler();
 800169e:	f000 fb7f 	bl	8001da0 <Error_Handler>
  }
  sConfigOC.OCMode = TIM_OCMODE_PWM1;
 80016a2:	2360      	movs	r3, #96	; 0x60
 80016a4:	627b      	str	r3, [r7, #36]	; 0x24
  sConfigOC.Pulse = 100;
 80016a6:	2364      	movs	r3, #100	; 0x64
 80016a8:	62bb      	str	r3, [r7, #40]	; 0x28
  sConfigOC.OCPolarity = TIM_OCPOLARITY_HIGH;
 80016aa:	2300      	movs	r3, #0
 80016ac:	62fb      	str	r3, [r7, #44]	; 0x2c
  sConfigOC.OCNPolarity = TIM_OCNPOLARITY_HIGH;
 80016ae:	2300      	movs	r3, #0
 80016b0:	633b      	str	r3, [r7, #48]	; 0x30
  sConfigOC.OCFastMode = TIM_OCFAST_DISABLE;
 80016b2:	2300      	movs	r3, #0
 80016b4:	637b      	str	r3, [r7, #52]	; 0x34
  sConfigOC.OCIdleState = TIM_OCIDLESTATE_RESET;
 80016b6:	2300      	movs	r3, #0
 80016b8:	63bb      	str	r3, [r7, #56]	; 0x38
  sConfigOC.OCNIdleState = TIM_OCNIDLESTATE_RESET;
 80016ba:	2300      	movs	r3, #0
 80016bc:	63fb      	str	r3, [r7, #60]	; 0x3c
  if (HAL_TIM_PWM_ConfigChannel(&htim1, &sConfigOC, TIM_CHANNEL_1) != HAL_OK)
 80016be:	f107 0324 	add.w	r3, r7, #36	; 0x24
 80016c2:	2200      	movs	r2, #0
 80016c4:	4619      	mov	r1, r3
 80016c6:	4814      	ldr	r0, [pc, #80]	; (8001718 <MX_TIM1_Init+0x13c>)
 80016c8:	f002 fcd4 	bl	8004074 <HAL_TIM_PWM_ConfigChannel>
 80016cc:	4603      	mov	r3, r0
 80016ce:	2b00      	cmp	r3, #0
 80016d0:	d001      	beq.n	80016d6 <MX_TIM1_Init+0xfa>
  {
    Error_Handler();
 80016d2:	f000 fb65 	bl	8001da0 <Error_Handler>
  }
  sBreakDeadTimeConfig.OffStateRunMode = TIM_OSSR_DISABLE;
 80016d6:	2300      	movs	r3, #0
 80016d8:	607b      	str	r3, [r7, #4]
  sBreakDeadTimeConfig.OffStateIDLEMode = TIM_OSSI_DISABLE;
 80016da:	2300      	movs	r3, #0
 80016dc:	60bb      	str	r3, [r7, #8]
  sBreakDeadTimeConfig.LockLevel = TIM_LOCKLEVEL_OFF;
 80016de:	2300      	movs	r3, #0
 80016e0:	60fb      	str	r3, [r7, #12]
  sBreakDeadTimeConfig.DeadTime = 0;
 80016e2:	2300      	movs	r3, #0
 80016e4:	613b      	str	r3, [r7, #16]
  sBreakDeadTimeConfig.BreakState = TIM_BREAK_DISABLE;
 80016e6:	2300      	movs	r3, #0
 80016e8:	617b      	str	r3, [r7, #20]
  sBreakDeadTimeConfig.BreakPolarity = TIM_BREAKPOLARITY_HIGH;
 80016ea:	f44f 5300 	mov.w	r3, #8192	; 0x2000
 80016ee:	61bb      	str	r3, [r7, #24]
  sBreakDeadTimeConfig.AutomaticOutput = TIM_AUTOMATICOUTPUT_DISABLE;
 80016f0:	2300      	movs	r3, #0
 80016f2:	623b      	str	r3, [r7, #32]
  if (HAL_TIMEx_ConfigBreakDeadTime(&htim1, &sBreakDeadTimeConfig) != HAL_OK)
 80016f4:	1d3b      	adds	r3, r7, #4
 80016f6:	4619      	mov	r1, r3
 80016f8:	4807      	ldr	r0, [pc, #28]	; (8001718 <MX_TIM1_Init+0x13c>)
 80016fa:	f003 fb5d 	bl	8004db8 <HAL_TIMEx_ConfigBreakDeadTime>
 80016fe:	4603      	mov	r3, r0
 8001700:	2b00      	cmp	r3, #0
 8001702:	d001      	beq.n	8001708 <MX_TIM1_Init+0x12c>
  {
    Error_Handler();
 8001704:	f000 fb4c 	bl	8001da0 <Error_Handler>
  }
  /* USER CODE BEGIN TIM1_Init 2 */

  /* USER CODE END TIM1_Init 2 */
  HAL_TIM_MspPostInit(&htim1);
 8001708:	4803      	ldr	r0, [pc, #12]	; (8001718 <MX_TIM1_Init+0x13c>)
 800170a:	f000 fc77 	bl	8001ffc <HAL_TIM_MspPostInit>

}
 800170e:	bf00      	nop
 8001710:	3758      	adds	r7, #88	; 0x58
 8001712:	46bd      	mov	sp, r7
 8001714:	bd80      	pop	{r7, pc}
 8001716:	bf00      	nop
 8001718:	20000418 	.word	0x20000418
 800171c:	40010000 	.word	0x40010000

08001720 <MX_TIM3_Init>:
  * @brief TIM3 Initialization Function
  * @param None
  * @retval None
  */
static void MX_TIM3_Init(void)
{
 8001720:	b580      	push	{r7, lr}
 8001722:	b08e      	sub	sp, #56	; 0x38
 8001724:	af00      	add	r7, sp, #0

  /* USER CODE BEGIN TIM3_Init 0 */

  /* USER CODE END TIM3_Init 0 */

  TIM_ClockConfigTypeDef sClockSourceConfig = {0};
 8001726:	f107 0328 	add.w	r3, r7, #40	; 0x28
 800172a:	2200      	movs	r2, #0
 800172c:	601a      	str	r2, [r3, #0]
 800172e:	605a      	str	r2, [r3, #4]
 8001730:	609a      	str	r2, [r3, #8]
 8001732:	60da      	str	r2, [r3, #12]
  TIM_MasterConfigTypeDef sMasterConfig = {0};
 8001734:	f107 0320 	add.w	r3, r7, #32
 8001738:	2200      	movs	r2, #0
 800173a:	601a      	str	r2, [r3, #0]
 800173c:	605a      	str	r2, [r3, #4]
  TIM_OC_InitTypeDef sConfigOC = {0};
 800173e:	1d3b      	adds	r3, r7, #4
 8001740:	2200      	movs	r2, #0
 8001742:	601a      	str	r2, [r3, #0]
 8001744:	605a      	str	r2, [r3, #4]
 8001746:	609a      	str	r2, [r3, #8]
 8001748:	60da      	str	r2, [r3, #12]
 800174a:	611a      	str	r2, [r3, #16]
 800174c:	615a      	str	r2, [r3, #20]
 800174e:	619a      	str	r2, [r3, #24]

  /* USER CODE BEGIN TIM3_Init 1 */

  /* USER CODE END TIM3_Init 1 */
  htim3.Instance = TIM3;
 8001750:	4b2d      	ldr	r3, [pc, #180]	; (8001808 <MX_TIM3_Init+0xe8>)
 8001752:	4a2e      	ldr	r2, [pc, #184]	; (800180c <MX_TIM3_Init+0xec>)
 8001754:	601a      	str	r2, [r3, #0]
  htim3.Init.Prescaler = 3000-1;
 8001756:	4b2c      	ldr	r3, [pc, #176]	; (8001808 <MX_TIM3_Init+0xe8>)
 8001758:	f640 32b7 	movw	r2, #2999	; 0xbb7
 800175c:	605a      	str	r2, [r3, #4]
  htim3.Init.CounterMode = TIM_COUNTERMODE_UP;
 800175e:	4b2a      	ldr	r3, [pc, #168]	; (8001808 <MX_TIM3_Init+0xe8>)
 8001760:	2200      	movs	r2, #0
 8001762:	609a      	str	r2, [r3, #8]
  htim3.Init.Period = 65535;
 8001764:	4b28      	ldr	r3, [pc, #160]	; (8001808 <MX_TIM3_Init+0xe8>)
 8001766:	f64f 72ff 	movw	r2, #65535	; 0xffff
 800176a:	60da      	str	r2, [r3, #12]
  htim3.Init.ClockDivision = TIM_CLOCKDIVISION_DIV1;
 800176c:	4b26      	ldr	r3, [pc, #152]	; (8001808 <MX_TIM3_Init+0xe8>)
 800176e:	2200      	movs	r2, #0
 8001770:	611a      	str	r2, [r3, #16]
  htim3.Init.AutoReloadPreload = TIM_AUTORELOAD_PRELOAD_DISABLE;
 8001772:	4b25      	ldr	r3, [pc, #148]	; (8001808 <MX_TIM3_Init+0xe8>)
 8001774:	2200      	movs	r2, #0
 8001776:	619a      	str	r2, [r3, #24]
  if (HAL_TIM_Base_Init(&htim3) != HAL_OK)
 8001778:	4823      	ldr	r0, [pc, #140]	; (8001808 <MX_TIM3_Init+0xe8>)
 800177a:	f001 ff7d 	bl	8003678 <HAL_TIM_Base_Init>
 800177e:	4603      	mov	r3, r0
 8001780:	2b00      	cmp	r3, #0
 8001782:	d001      	beq.n	8001788 <MX_TIM3_Init+0x68>
  {
    Error_Handler();
 8001784:	f000 fb0c 	bl	8001da0 <Error_Handler>
  }
  sClockSourceConfig.ClockSource = TIM_CLOCKSOURCE_INTERNAL;
 8001788:	f44f 5380 	mov.w	r3, #4096	; 0x1000
 800178c:	62bb      	str	r3, [r7, #40]	; 0x28
  if (HAL_TIM_ConfigClockSource(&htim3, &sClockSourceConfig) != HAL_OK)
 800178e:	f107 0328 	add.w	r3, r7, #40	; 0x28
 8001792:	4619      	mov	r1, r3
 8001794:	481c      	ldr	r0, [pc, #112]	; (8001808 <MX_TIM3_Init+0xe8>)
 8001796:	f002 fd2f 	bl	80041f8 <HAL_TIM_ConfigClockSource>
 800179a:	4603      	mov	r3, r0
 800179c:	2b00      	cmp	r3, #0
 800179e:	d001      	beq.n	80017a4 <MX_TIM3_Init+0x84>
  {
    Error_Handler();
 80017a0:	f000 fafe 	bl	8001da0 <Error_Handler>
  }
  if (HAL_TIM_PWM_Init(&htim3) != HAL_OK)
 80017a4:	4818      	ldr	r0, [pc, #96]	; (8001808 <MX_TIM3_Init+0xe8>)
 80017a6:	f002 f827 	bl	80037f8 <HAL_TIM_PWM_Init>
 80017aa:	4603      	mov	r3, r0
 80017ac:	2b00      	cmp	r3, #0
 80017ae:	d001      	beq.n	80017b4 <MX_TIM3_Init+0x94>
  {
    Error_Handler();
 80017b0:	f000 faf6 	bl	8001da0 <Error_Handler>
  }
  sMasterConfig.MasterOutputTrigger = TIM_TRGO_RESET;
 80017b4:	2300      	movs	r3, #0
 80017b6:	623b      	str	r3, [r7, #32]
  sMasterConfig.MasterSlaveMode = TIM_MASTERSLAVEMODE_DISABLE;
 80017b8:	2300      	movs	r3, #0
 80017ba:	627b      	str	r3, [r7, #36]	; 0x24
  if (HAL_TIMEx_MasterConfigSynchronization(&htim3, &sMasterConfig) != HAL_OK)
 80017bc:	f107 0320 	add.w	r3, r7, #32
 80017c0:	4619      	mov	r1, r3
 80017c2:	4811      	ldr	r0, [pc, #68]	; (8001808 <MX_TIM3_Init+0xe8>)
 80017c4:	f003 fa7c 	bl	8004cc0 <HAL_TIMEx_MasterConfigSynchronization>
 80017c8:	4603      	mov	r3, r0
 80017ca:	2b00      	cmp	r3, #0
 80017cc:	d001      	beq.n	80017d2 <MX_TIM3_Init+0xb2>
  {
    Error_Handler();
 80017ce:	f000 fae7 	bl	8001da0 <Error_Handler>
  }
  sConfigOC.OCMode = TIM_OCMODE_PWM1;
 80017d2:	2360      	movs	r3, #96	; 0x60
 80017d4:	607b      	str	r3, [r7, #4]
  sConfigOC.Pulse = 100;
 80017d6:	2364      	movs	r3, #100	; 0x64
 80017d8:	60bb      	str	r3, [r7, #8]
  sConfigOC.OCPolarity = TIM_OCPOLARITY_HIGH;
 80017da:	2300      	movs	r3, #0
 80017dc:	60fb      	str	r3, [r7, #12]
  sConfigOC.OCFastMode = TIM_OCFAST_DISABLE;
 80017de:	2300      	movs	r3, #0
 80017e0:	617b      	str	r3, [r7, #20]
  if (HAL_TIM_PWM_ConfigChannel(&htim3, &sConfigOC, TIM_CHANNEL_1) != HAL_OK)
 80017e2:	1d3b      	adds	r3, r7, #4
 80017e4:	2200      	movs	r2, #0
 80017e6:	4619      	mov	r1, r3
 80017e8:	4807      	ldr	r0, [pc, #28]	; (8001808 <MX_TIM3_Init+0xe8>)
 80017ea:	f002 fc43 	bl	8004074 <HAL_TIM_PWM_ConfigChannel>
 80017ee:	4603      	mov	r3, r0
 80017f0:	2b00      	cmp	r3, #0
 80017f2:	d001      	beq.n	80017f8 <MX_TIM3_Init+0xd8>
  {
    Error_Handler();
 80017f4:	f000 fad4 	bl	8001da0 <Error_Handler>
  }
  /* USER CODE BEGIN TIM3_Init 2 */

  /* USER CODE END TIM3_Init 2 */
  HAL_TIM_MspPostInit(&htim3);
 80017f8:	4803      	ldr	r0, [pc, #12]	; (8001808 <MX_TIM3_Init+0xe8>)
 80017fa:	f000 fbff 	bl	8001ffc <HAL_TIM_MspPostInit>

}
 80017fe:	bf00      	nop
 8001800:	3738      	adds	r7, #56	; 0x38
 8001802:	46bd      	mov	sp, r7
 8001804:	bd80      	pop	{r7, pc}
 8001806:	bf00      	nop
 8001808:	200003cc 	.word	0x200003cc
 800180c:	40000400 	.word	0x40000400

08001810 <MX_TIM4_Init>:
  * @brief TIM4 Initialization Function
  * @param None
  * @retval None
  */
static void MX_TIM4_Init(void)
{
 8001810:	b580      	push	{r7, lr}
 8001812:	b08e      	sub	sp, #56	; 0x38
 8001814:	af00      	add	r7, sp, #0

  /* USER CODE BEGIN TIM4_Init 0 */

  /* USER CODE END TIM4_Init 0 */

  TIM_ClockConfigTypeDef sClockSourceConfig = {0};
 8001816:	f107 0328 	add.w	r3, r7, #40	; 0x28
 800181a:	2200      	movs	r2, #0
 800181c:	601a      	str	r2, [r3, #0]
 800181e:	605a      	str	r2, [r3, #4]
 8001820:	609a      	str	r2, [r3, #8]
 8001822:	60da      	str	r2, [r3, #12]
  TIM_MasterConfigTypeDef sMasterConfig = {0};
 8001824:	f107 0320 	add.w	r3, r7, #32
 8001828:	2200      	movs	r2, #0
 800182a:	601a      	str	r2, [r3, #0]
 800182c:	605a      	str	r2, [r3, #4]
  TIM_OC_InitTypeDef sConfigOC = {0};
 800182e:	1d3b      	adds	r3, r7, #4
 8001830:	2200      	movs	r2, #0
 8001832:	601a      	str	r2, [r3, #0]
 8001834:	605a      	str	r2, [r3, #4]
 8001836:	609a      	str	r2, [r3, #8]
 8001838:	60da      	str	r2, [r3, #12]
 800183a:	611a      	str	r2, [r3, #16]
 800183c:	615a      	str	r2, [r3, #20]
 800183e:	619a      	str	r2, [r3, #24]

  /* USER CODE BEGIN TIM4_Init 1 */

  /* USER CODE END TIM4_Init 1 */
  htim4.Instance = TIM4;
 8001840:	4b2d      	ldr	r3, [pc, #180]	; (80018f8 <MX_TIM4_Init+0xe8>)
 8001842:	4a2e      	ldr	r2, [pc, #184]	; (80018fc <MX_TIM4_Init+0xec>)
 8001844:	601a      	str	r2, [r3, #0]
  htim4.Init.Prescaler = 3000-1;
 8001846:	4b2c      	ldr	r3, [pc, #176]	; (80018f8 <MX_TIM4_Init+0xe8>)
 8001848:	f640 32b7 	movw	r2, #2999	; 0xbb7
 800184c:	605a      	str	r2, [r3, #4]
  htim4.Init.CounterMode = TIM_COUNTERMODE_UP;
 800184e:	4b2a      	ldr	r3, [pc, #168]	; (80018f8 <MX_TIM4_Init+0xe8>)
 8001850:	2200      	movs	r2, #0
 8001852:	609a      	str	r2, [r3, #8]
  htim4.Init.Period = 65535;
 8001854:	4b28      	ldr	r3, [pc, #160]	; (80018f8 <MX_TIM4_Init+0xe8>)
 8001856:	f64f 72ff 	movw	r2, #65535	; 0xffff
 800185a:	60da      	str	r2, [r3, #12]
  htim4.Init.ClockDivision = TIM_CLOCKDIVISION_DIV1;
 800185c:	4b26      	ldr	r3, [pc, #152]	; (80018f8 <MX_TIM4_Init+0xe8>)
 800185e:	2200      	movs	r2, #0
 8001860:	611a      	str	r2, [r3, #16]
  htim4.Init.AutoReloadPreload = TIM_AUTORELOAD_PRELOAD_DISABLE;
 8001862:	4b25      	ldr	r3, [pc, #148]	; (80018f8 <MX_TIM4_Init+0xe8>)
 8001864:	2200      	movs	r2, #0
 8001866:	619a      	str	r2, [r3, #24]
  if (HAL_TIM_Base_Init(&htim4) != HAL_OK)
 8001868:	4823      	ldr	r0, [pc, #140]	; (80018f8 <MX_TIM4_Init+0xe8>)
 800186a:	f001 ff05 	bl	8003678 <HAL_TIM_Base_Init>
 800186e:	4603      	mov	r3, r0
 8001870:	2b00      	cmp	r3, #0
 8001872:	d001      	beq.n	8001878 <MX_TIM4_Init+0x68>
  {
    Error_Handler();
 8001874:	f000 fa94 	bl	8001da0 <Error_Handler>
  }
  sClockSourceConfig.ClockSource = TIM_CLOCKSOURCE_INTERNAL;
 8001878:	f44f 5380 	mov.w	r3, #4096	; 0x1000
 800187c:	62bb      	str	r3, [r7, #40]	; 0x28
  if (HAL_TIM_ConfigClockSource(&htim4, &sClockSourceConfig) != HAL_OK)
 800187e:	f107 0328 	add.w	r3, r7, #40	; 0x28
 8001882:	4619      	mov	r1, r3
 8001884:	481c      	ldr	r0, [pc, #112]	; (80018f8 <MX_TIM4_Init+0xe8>)
 8001886:	f002 fcb7 	bl	80041f8 <HAL_TIM_ConfigClockSource>
 800188a:	4603      	mov	r3, r0
 800188c:	2b00      	cmp	r3, #0
 800188e:	d001      	beq.n	8001894 <MX_TIM4_Init+0x84>
  {
    Error_Handler();
 8001890:	f000 fa86 	bl	8001da0 <Error_Handler>
  }
  if (HAL_TIM_PWM_Init(&htim4) != HAL_OK)
 8001894:	4818      	ldr	r0, [pc, #96]	; (80018f8 <MX_TIM4_Init+0xe8>)
 8001896:	f001 ffaf 	bl	80037f8 <HAL_TIM_PWM_Init>
 800189a:	4603      	mov	r3, r0
 800189c:	2b00      	cmp	r3, #0
 800189e:	d001      	beq.n	80018a4 <MX_TIM4_Init+0x94>
  {
    Error_Handler();
 80018a0:	f000 fa7e 	bl	8001da0 <Error_Handler>
  }
  sMasterConfig.MasterOutputTrigger = TIM_TRGO_RESET;
 80018a4:	2300      	movs	r3, #0
 80018a6:	623b      	str	r3, [r7, #32]
  sMasterConfig.MasterSlaveMode = TIM_MASTERSLAVEMODE_DISABLE;
 80018a8:	2300      	movs	r3, #0
 80018aa:	627b      	str	r3, [r7, #36]	; 0x24
  if (HAL_TIMEx_MasterConfigSynchronization(&htim4, &sMasterConfig) != HAL_OK)
 80018ac:	f107 0320 	add.w	r3, r7, #32
 80018b0:	4619      	mov	r1, r3
 80018b2:	4811      	ldr	r0, [pc, #68]	; (80018f8 <MX_TIM4_Init+0xe8>)
 80018b4:	f003 fa04 	bl	8004cc0 <HAL_TIMEx_MasterConfigSynchronization>
 80018b8:	4603      	mov	r3, r0
 80018ba:	2b00      	cmp	r3, #0
 80018bc:	d001      	beq.n	80018c2 <MX_TIM4_Init+0xb2>
  {
    Error_Handler();
 80018be:	f000 fa6f 	bl	8001da0 <Error_Handler>
  }
  sConfigOC.OCMode = TIM_OCMODE_PWM1;
 80018c2:	2360      	movs	r3, #96	; 0x60
 80018c4:	607b      	str	r3, [r7, #4]
  sConfigOC.Pulse = 100;
 80018c6:	2364      	movs	r3, #100	; 0x64
 80018c8:	60bb      	str	r3, [r7, #8]
  sConfigOC.OCPolarity = TIM_OCPOLARITY_HIGH;
 80018ca:	2300      	movs	r3, #0
 80018cc:	60fb      	str	r3, [r7, #12]
  sConfigOC.OCFastMode = TIM_OCFAST_DISABLE;
 80018ce:	2300      	movs	r3, #0
 80018d0:	617b      	str	r3, [r7, #20]
  if (HAL_TIM_PWM_ConfigChannel(&htim4, &sConfigOC, TIM_CHANNEL_1) != HAL_OK)
 80018d2:	1d3b      	adds	r3, r7, #4
 80018d4:	2200      	movs	r2, #0
 80018d6:	4619      	mov	r1, r3
 80018d8:	4807      	ldr	r0, [pc, #28]	; (80018f8 <MX_TIM4_Init+0xe8>)
 80018da:	f002 fbcb 	bl	8004074 <HAL_TIM_PWM_ConfigChannel>
 80018de:	4603      	mov	r3, r0
 80018e0:	2b00      	cmp	r3, #0
 80018e2:	d001      	beq.n	80018e8 <MX_TIM4_Init+0xd8>
  {
    Error_Handler();
 80018e4:	f000 fa5c 	bl	8001da0 <Error_Handler>
  }
  /* USER CODE BEGIN TIM4_Init 2 */

  /* USER CODE END TIM4_Init 2 */
  HAL_TIM_MspPostInit(&htim4);
 80018e8:	4803      	ldr	r0, [pc, #12]	; (80018f8 <MX_TIM4_Init+0xe8>)
 80018ea:	f000 fb87 	bl	8001ffc <HAL_TIM_MspPostInit>

}
 80018ee:	bf00      	nop
 80018f0:	3738      	adds	r7, #56	; 0x38
 80018f2:	46bd      	mov	sp, r7
 80018f4:	bd80      	pop	{r7, pc}
 80018f6:	bf00      	nop
 80018f8:	20000308 	.word	0x20000308
 80018fc:	40000800 	.word	0x40000800

08001900 <MX_TIM5_Init>:
  * @brief TIM5 Initialization Function
  * @param None
  * @retval None
  */
static void MX_TIM5_Init(void)
{
 8001900:	b580      	push	{r7, lr}
 8001902:	b08a      	sub	sp, #40	; 0x28
 8001904:	af00      	add	r7, sp, #0

  /* USER CODE BEGIN TIM5_Init 0 */

  /* USER CODE END TIM5_Init 0 */

  TIM_MasterConfigTypeDef sMasterConfig = {0};
 8001906:	f107 0320 	add.w	r3, r7, #32
 800190a:	2200      	movs	r2, #0
 800190c:	601a      	str	r2, [r3, #0]
 800190e:	605a      	str	r2, [r3, #4]
  TIM_OC_InitTypeDef sConfigOC = {0};
 8001910:	1d3b      	adds	r3, r7, #4
 8001912:	2200      	movs	r2, #0
 8001914:	601a      	str	r2, [r3, #0]
 8001916:	605a      	str	r2, [r3, #4]
 8001918:	609a      	str	r2, [r3, #8]
 800191a:	60da      	str	r2, [r3, #12]
 800191c:	611a      	str	r2, [r3, #16]
 800191e:	615a      	str	r2, [r3, #20]
 8001920:	619a      	str	r2, [r3, #24]

  /* USER CODE BEGIN TIM5_Init 1 */

  /* USER CODE END TIM5_Init 1 */
  htim5.Instance = TIM5;
 8001922:	4b22      	ldr	r3, [pc, #136]	; (80019ac <MX_TIM5_Init+0xac>)
 8001924:	4a22      	ldr	r2, [pc, #136]	; (80019b0 <MX_TIM5_Init+0xb0>)
 8001926:	601a      	str	r2, [r3, #0]
  htim5.Init.Prescaler = 3000-1;
 8001928:	4b20      	ldr	r3, [pc, #128]	; (80019ac <MX_TIM5_Init+0xac>)
 800192a:	f640 32b7 	movw	r2, #2999	; 0xbb7
 800192e:	605a      	str	r2, [r3, #4]
  htim5.Init.CounterMode = TIM_COUNTERMODE_UP;
 8001930:	4b1e      	ldr	r3, [pc, #120]	; (80019ac <MX_TIM5_Init+0xac>)
 8001932:	2200      	movs	r2, #0
 8001934:	609a      	str	r2, [r3, #8]
  htim5.Init.Period = 4294967295;
 8001936:	4b1d      	ldr	r3, [pc, #116]	; (80019ac <MX_TIM5_Init+0xac>)
 8001938:	f04f 32ff 	mov.w	r2, #4294967295	; 0xffffffff
 800193c:	60da      	str	r2, [r3, #12]
  htim5.Init.ClockDivision = TIM_CLOCKDIVISION_DIV1;
 800193e:	4b1b      	ldr	r3, [pc, #108]	; (80019ac <MX_TIM5_Init+0xac>)
 8001940:	2200      	movs	r2, #0
 8001942:	611a      	str	r2, [r3, #16]
  htim5.Init.AutoReloadPreload = TIM_AUTORELOAD_PRELOAD_DISABLE;
 8001944:	4b19      	ldr	r3, [pc, #100]	; (80019ac <MX_TIM5_Init+0xac>)
 8001946:	2200      	movs	r2, #0
 8001948:	619a      	str	r2, [r3, #24]
  if (HAL_TIM_PWM_Init(&htim5) != HAL_OK)
 800194a:	4818      	ldr	r0, [pc, #96]	; (80019ac <MX_TIM5_Init+0xac>)
 800194c:	f001 ff54 	bl	80037f8 <HAL_TIM_PWM_Init>
 8001950:	4603      	mov	r3, r0
 8001952:	2b00      	cmp	r3, #0
 8001954:	d001      	beq.n	800195a <MX_TIM5_Init+0x5a>
  {
    Error_Handler();
 8001956:	f000 fa23 	bl	8001da0 <Error_Handler>
  }
  sMasterConfig.MasterOutputTrigger = TIM_TRGO_RESET;
 800195a:	2300      	movs	r3, #0
 800195c:	623b      	str	r3, [r7, #32]
  sMasterConfig.MasterSlaveMode = TIM_MASTERSLAVEMODE_DISABLE;
 800195e:	2300      	movs	r3, #0
 8001960:	627b      	str	r3, [r7, #36]	; 0x24
  if (HAL_TIMEx_MasterConfigSynchronization(&htim5, &sMasterConfig) != HAL_OK)
 8001962:	f107 0320 	add.w	r3, r7, #32
 8001966:	4619      	mov	r1, r3
 8001968:	4810      	ldr	r0, [pc, #64]	; (80019ac <MX_TIM5_Init+0xac>)
 800196a:	f003 f9a9 	bl	8004cc0 <HAL_TIMEx_MasterConfigSynchronization>
 800196e:	4603      	mov	r3, r0
 8001970:	2b00      	cmp	r3, #0
 8001972:	d001      	beq.n	8001978 <MX_TIM5_Init+0x78>
  {
    Error_Handler();
 8001974:	f000 fa14 	bl	8001da0 <Error_Handler>
  }
  sConfigOC.OCMode = TIM_OCMODE_PWM1;
 8001978:	2360      	movs	r3, #96	; 0x60
 800197a:	607b      	str	r3, [r7, #4]
  sConfigOC.Pulse = 100;
 800197c:	2364      	movs	r3, #100	; 0x64
 800197e:	60bb      	str	r3, [r7, #8]
  sConfigOC.OCPolarity = TIM_OCPOLARITY_HIGH;
 8001980:	2300      	movs	r3, #0
 8001982:	60fb      	str	r3, [r7, #12]
  sConfigOC.OCFastMode = TIM_OCFAST_DISABLE;
 8001984:	2300      	movs	r3, #0
 8001986:	617b      	str	r3, [r7, #20]
  if (HAL_TIM_PWM_ConfigChannel(&htim5, &sConfigOC, TIM_CHANNEL_1) != HAL_OK)
 8001988:	1d3b      	adds	r3, r7, #4
 800198a:	2200      	movs	r2, #0
 800198c:	4619      	mov	r1, r3
 800198e:	4807      	ldr	r0, [pc, #28]	; (80019ac <MX_TIM5_Init+0xac>)
 8001990:	f002 fb70 	bl	8004074 <HAL_TIM_PWM_ConfigChannel>
 8001994:	4603      	mov	r3, r0
 8001996:	2b00      	cmp	r3, #0
 8001998:	d001      	beq.n	800199e <MX_TIM5_Init+0x9e>
  {
    Error_Handler();
 800199a:	f000 fa01 	bl	8001da0 <Error_Handler>
  }
  /* USER CODE BEGIN TIM5_Init 2 */

  /* USER CODE END TIM5_Init 2 */
  HAL_TIM_MspPostInit(&htim5);
 800199e:	4803      	ldr	r0, [pc, #12]	; (80019ac <MX_TIM5_Init+0xac>)
 80019a0:	f000 fb2c 	bl	8001ffc <HAL_TIM_MspPostInit>

}
 80019a4:	bf00      	nop
 80019a6:	3728      	adds	r7, #40	; 0x28
 80019a8:	46bd      	mov	sp, r7
 80019aa:	bd80      	pop	{r7, pc}
 80019ac:	20000384 	.word	0x20000384
 80019b0:	40000c00 	.word	0x40000c00

080019b4 <MX_TIM8_Init>:
  * @brief TIM8 Initialization Function
  * @param None
  * @retval None
  */
static void MX_TIM8_Init(void)
{
 80019b4:	b580      	push	{r7, lr}
 80019b6:	b096      	sub	sp, #88	; 0x58
 80019b8:	af00      	add	r7, sp, #0

  /* USER CODE BEGIN TIM8_Init 0 */

  /* USER CODE END TIM8_Init 0 */

  TIM_ClockConfigTypeDef sClockSourceConfig = {0};
 80019ba:	f107 0348 	add.w	r3, r7, #72	; 0x48
 80019be:	2200      	movs	r2, #0
 80019c0:	601a      	str	r2, [r3, #0]
 80019c2:	605a      	str	r2, [r3, #4]
 80019c4:	609a      	str	r2, [r3, #8]
 80019c6:	60da      	str	r2, [r3, #12]
  TIM_MasterConfigTypeDef sMasterConfig = {0};
 80019c8:	f107 0340 	add.w	r3, r7, #64	; 0x40
 80019cc:	2200      	movs	r2, #0
 80019ce:	601a      	str	r2, [r3, #0]
 80019d0:	605a      	str	r2, [r3, #4]
  TIM_OC_InitTypeDef sConfigOC = {0};
 80019d2:	f107 0324 	add.w	r3, r7, #36	; 0x24
 80019d6:	2200      	movs	r2, #0
 80019d8:	601a      	str	r2, [r3, #0]
 80019da:	605a      	str	r2, [r3, #4]
 80019dc:	609a      	str	r2, [r3, #8]
 80019de:	60da      	str	r2, [r3, #12]
 80019e0:	611a      	str	r2, [r3, #16]
 80019e2:	615a      	str	r2, [r3, #20]
 80019e4:	619a      	str	r2, [r3, #24]
  TIM_BreakDeadTimeConfigTypeDef sBreakDeadTimeConfig = {0};
 80019e6:	1d3b      	adds	r3, r7, #4
 80019e8:	2220      	movs	r2, #32
 80019ea:	2100      	movs	r1, #0
 80019ec:	4618      	mov	r0, r3
 80019ee:	f004 faa3 	bl	8005f38 <memset>

  /* USER CODE BEGIN TIM8_Init 1 */

  /* USER CODE END TIM8_Init 1 */
  htim8.Instance = TIM8;
 80019f2:	4b3f      	ldr	r3, [pc, #252]	; (8001af0 <MX_TIM8_Init+0x13c>)
 80019f4:	4a3f      	ldr	r2, [pc, #252]	; (8001af4 <MX_TIM8_Init+0x140>)
 80019f6:	601a      	str	r2, [r3, #0]
  htim8.Init.Prescaler = 3000-1;
 80019f8:	4b3d      	ldr	r3, [pc, #244]	; (8001af0 <MX_TIM8_Init+0x13c>)
 80019fa:	f640 32b7 	movw	r2, #2999	; 0xbb7
 80019fe:	605a      	str	r2, [r3, #4]
  htim8.Init.CounterMode = TIM_COUNTERMODE_UP;
 8001a00:	4b3b      	ldr	r3, [pc, #236]	; (8001af0 <MX_TIM8_Init+0x13c>)
 8001a02:	2200      	movs	r2, #0
 8001a04:	609a      	str	r2, [r3, #8]
  htim8.Init.Period = 65535;
 8001a06:	4b3a      	ldr	r3, [pc, #232]	; (8001af0 <MX_TIM8_Init+0x13c>)
 8001a08:	f64f 72ff 	movw	r2, #65535	; 0xffff
 8001a0c:	60da      	str	r2, [r3, #12]
  htim8.Init.ClockDivision = TIM_CLOCKDIVISION_DIV1;
 8001a0e:	4b38      	ldr	r3, [pc, #224]	; (8001af0 <MX_TIM8_Init+0x13c>)
 8001a10:	2200      	movs	r2, #0
 8001a12:	611a      	str	r2, [r3, #16]
  htim8.Init.RepetitionCounter = 0;
 8001a14:	4b36      	ldr	r3, [pc, #216]	; (8001af0 <MX_TIM8_Init+0x13c>)
 8001a16:	2200      	movs	r2, #0
 8001a18:	615a      	str	r2, [r3, #20]
  htim8.Init.AutoReloadPreload = TIM_AUTORELOAD_PRELOAD_DISABLE;
 8001a1a:	4b35      	ldr	r3, [pc, #212]	; (8001af0 <MX_TIM8_Init+0x13c>)
 8001a1c:	2200      	movs	r2, #0
 8001a1e:	619a      	str	r2, [r3, #24]
  if (HAL_TIM_Base_Init(&htim8) != HAL_OK)
 8001a20:	4833      	ldr	r0, [pc, #204]	; (8001af0 <MX_TIM8_Init+0x13c>)
 8001a22:	f001 fe29 	bl	8003678 <HAL_TIM_Base_Init>
 8001a26:	4603      	mov	r3, r0
 8001a28:	2b00      	cmp	r3, #0
 8001a2a:	d001      	beq.n	8001a30 <MX_TIM8_Init+0x7c>
  {
    Error_Handler();
 8001a2c:	f000 f9b8 	bl	8001da0 <Error_Handler>
  }
  sClockSourceConfig.ClockSource = TIM_CLOCKSOURCE_INTERNAL;
 8001a30:	f44f 5380 	mov.w	r3, #4096	; 0x1000
 8001a34:	64bb      	str	r3, [r7, #72]	; 0x48
  if (HAL_TIM_ConfigClockSource(&htim8, &sClockSourceConfig) != HAL_OK)
 8001a36:	f107 0348 	add.w	r3, r7, #72	; 0x48
 8001a3a:	4619      	mov	r1, r3
 8001a3c:	482c      	ldr	r0, [pc, #176]	; (8001af0 <MX_TIM8_Init+0x13c>)
 8001a3e:	f002 fbdb 	bl	80041f8 <HAL_TIM_ConfigClockSource>
 8001a42:	4603      	mov	r3, r0
 8001a44:	2b00      	cmp	r3, #0
 8001a46:	d001      	beq.n	8001a4c <MX_TIM8_Init+0x98>
  {
    Error_Handler();
 8001a48:	f000 f9aa 	bl	8001da0 <Error_Handler>
  }
  if (HAL_TIM_PWM_Init(&htim8) != HAL_OK)
 8001a4c:	4828      	ldr	r0, [pc, #160]	; (8001af0 <MX_TIM8_Init+0x13c>)
 8001a4e:	f001 fed3 	bl	80037f8 <HAL_TIM_PWM_Init>
 8001a52:	4603      	mov	r3, r0
 8001a54:	2b00      	cmp	r3, #0
 8001a56:	d001      	beq.n	8001a5c <MX_TIM8_Init+0xa8>
  {
    Error_Handler();
 8001a58:	f000 f9a2 	bl	8001da0 <Error_Handler>
  }
  sMasterConfig.MasterOutputTrigger = TIM_TRGO_RESET;
 8001a5c:	2300      	movs	r3, #0
 8001a5e:	643b      	str	r3, [r7, #64]	; 0x40
  sMasterConfig.MasterSlaveMode = TIM_MASTERSLAVEMODE_DISABLE;
 8001a60:	2300      	movs	r3, #0
 8001a62:	647b      	str	r3, [r7, #68]	; 0x44
  if (HAL_TIMEx_MasterConfigSynchronization(&htim8, &sMasterConfig) != HAL_OK)
 8001a64:	f107 0340 	add.w	r3, r7, #64	; 0x40
 8001a68:	4619      	mov	r1, r3
 8001a6a:	4821      	ldr	r0, [pc, #132]	; (8001af0 <MX_TIM8_Init+0x13c>)
 8001a6c:	f003 f928 	bl	8004cc0 <HAL_TIMEx_MasterConfigSynchronization>
 8001a70:	4603      	mov	r3, r0
 8001a72:	2b00      	cmp	r3, #0
 8001a74:	d001      	beq.n	8001a7a <MX_TIM8_Init+0xc6>
  {
    Error_Handler();
 8001a76:	f000 f993 	bl	8001da0 <Error_Handler>
  }
  sConfigOC.OCMode = TIM_OCMODE_PWM1;
 8001a7a:	2360      	movs	r3, #96	; 0x60
 8001a7c:	627b      	str	r3, [r7, #36]	; 0x24
  sConfigOC.Pulse = 100;
 8001a7e:	2364      	movs	r3, #100	; 0x64
 8001a80:	62bb      	str	r3, [r7, #40]	; 0x28
  sConfigOC.OCPolarity = TIM_OCPOLARITY_HIGH;
 8001a82:	2300      	movs	r3, #0
 8001a84:	62fb      	str	r3, [r7, #44]	; 0x2c
  sConfigOC.OCNPolarity = TIM_OCNPOLARITY_HIGH;
 8001a86:	2300      	movs	r3, #0
 8001a88:	633b      	str	r3, [r7, #48]	; 0x30
  sConfigOC.OCFastMode = TIM_OCFAST_DISABLE;
 8001a8a:	2300      	movs	r3, #0
 8001a8c:	637b      	str	r3, [r7, #52]	; 0x34
  sConfigOC.OCIdleState = TIM_OCIDLESTATE_RESET;
 8001a8e:	2300      	movs	r3, #0
 8001a90:	63bb      	str	r3, [r7, #56]	; 0x38
  sConfigOC.OCNIdleState = TIM_OCNIDLESTATE_RESET;
 8001a92:	2300      	movs	r3, #0
 8001a94:	63fb      	str	r3, [r7, #60]	; 0x3c
  if (HAL_TIM_PWM_ConfigChannel(&htim8, &sConfigOC, TIM_CHANNEL_1) != HAL_OK)
 8001a96:	f107 0324 	add.w	r3, r7, #36	; 0x24
 8001a9a:	2200      	movs	r2, #0
 8001a9c:	4619      	mov	r1, r3
 8001a9e:	4814      	ldr	r0, [pc, #80]	; (8001af0 <MX_TIM8_Init+0x13c>)
 8001aa0:	f002 fae8 	bl	8004074 <HAL_TIM_PWM_ConfigChannel>
 8001aa4:	4603      	mov	r3, r0
 8001aa6:	2b00      	cmp	r3, #0
 8001aa8:	d001      	beq.n	8001aae <MX_TIM8_Init+0xfa>
  {
    Error_Handler();
 8001aaa:	f000 f979 	bl	8001da0 <Error_Handler>
  }
  sBreakDeadTimeConfig.OffStateRunMode = TIM_OSSR_DISABLE;
 8001aae:	2300      	movs	r3, #0
 8001ab0:	607b      	str	r3, [r7, #4]
  sBreakDeadTimeConfig.OffStateIDLEMode = TIM_OSSI_DISABLE;
 8001ab2:	2300      	movs	r3, #0
 8001ab4:	60bb      	str	r3, [r7, #8]
  sBreakDeadTimeConfig.LockLevel = TIM_LOCKLEVEL_OFF;
 8001ab6:	2300      	movs	r3, #0
 8001ab8:	60fb      	str	r3, [r7, #12]
  sBreakDeadTimeConfig.DeadTime = 0;
 8001aba:	2300      	movs	r3, #0
 8001abc:	613b      	str	r3, [r7, #16]
  sBreakDeadTimeConfig.BreakState = TIM_BREAK_DISABLE;
 8001abe:	2300      	movs	r3, #0
 8001ac0:	617b      	str	r3, [r7, #20]
  sBreakDeadTimeConfig.BreakPolarity = TIM_BREAKPOLARITY_HIGH;
 8001ac2:	f44f 5300 	mov.w	r3, #8192	; 0x2000
 8001ac6:	61bb      	str	r3, [r7, #24]
  sBreakDeadTimeConfig.AutomaticOutput = TIM_AUTOMATICOUTPUT_DISABLE;
 8001ac8:	2300      	movs	r3, #0
 8001aca:	623b      	str	r3, [r7, #32]
  if (HAL_TIMEx_ConfigBreakDeadTime(&htim8, &sBreakDeadTimeConfig) != HAL_OK)
 8001acc:	1d3b      	adds	r3, r7, #4
 8001ace:	4619      	mov	r1, r3
 8001ad0:	4807      	ldr	r0, [pc, #28]	; (8001af0 <MX_TIM8_Init+0x13c>)
 8001ad2:	f003 f971 	bl	8004db8 <HAL_TIMEx_ConfigBreakDeadTime>
 8001ad6:	4603      	mov	r3, r0
 8001ad8:	2b00      	cmp	r3, #0
 8001ada:	d001      	beq.n	8001ae0 <MX_TIM8_Init+0x12c>
  {
    Error_Handler();
 8001adc:	f000 f960 	bl	8001da0 <Error_Handler>
  }
  /* USER CODE BEGIN TIM8_Init 2 */

  /* USER CODE END TIM8_Init 2 */
  HAL_TIM_MspPostInit(&htim8);
 8001ae0:	4803      	ldr	r0, [pc, #12]	; (8001af0 <MX_TIM8_Init+0x13c>)
 8001ae2:	f000 fa8b 	bl	8001ffc <HAL_TIM_MspPostInit>

}
 8001ae6:	bf00      	nop
 8001ae8:	3758      	adds	r7, #88	; 0x58
 8001aea:	46bd      	mov	sp, r7
 8001aec:	bd80      	pop	{r7, pc}
 8001aee:	bf00      	nop
 8001af0:	200002c0 	.word	0x200002c0
 8001af4:	40010400 	.word	0x40010400

08001af8 <MX_TIM12_Init>:
  * @brief TIM12 Initialization Function
  * @param None
  * @retval None
  */
static void MX_TIM12_Init(void)
{
 8001af8:	b580      	push	{r7, lr}
 8001afa:	b08c      	sub	sp, #48	; 0x30
 8001afc:	af00      	add	r7, sp, #0

  /* USER CODE BEGIN TIM12_Init 0 */

  /* USER CODE END TIM12_Init 0 */

  TIM_ClockConfigTypeDef sClockSourceConfig = {0};
 8001afe:	f107 0320 	add.w	r3, r7, #32
 8001b02:	2200      	movs	r2, #0
 8001b04:	601a      	str	r2, [r3, #0]
 8001b06:	605a      	str	r2, [r3, #4]
 8001b08:	609a      	str	r2, [r3, #8]
 8001b0a:	60da      	str	r2, [r3, #12]
  TIM_OC_InitTypeDef sConfigOC = {0};
 8001b0c:	1d3b      	adds	r3, r7, #4
 8001b0e:	2200      	movs	r2, #0
 8001b10:	601a      	str	r2, [r3, #0]
 8001b12:	605a      	str	r2, [r3, #4]
 8001b14:	609a      	str	r2, [r3, #8]
 8001b16:	60da      	str	r2, [r3, #12]
 8001b18:	611a      	str	r2, [r3, #16]
 8001b1a:	615a      	str	r2, [r3, #20]
 8001b1c:	619a      	str	r2, [r3, #24]

  /* USER CODE BEGIN TIM12_Init 1 */

  /* USER CODE END TIM12_Init 1 */
  htim12.Instance = TIM12;
 8001b1e:	4b26      	ldr	r3, [pc, #152]	; (8001bb8 <MX_TIM12_Init+0xc0>)
 8001b20:	4a26      	ldr	r2, [pc, #152]	; (8001bbc <MX_TIM12_Init+0xc4>)
 8001b22:	601a      	str	r2, [r3, #0]
  htim12.Init.Prescaler = 3000-1;
 8001b24:	4b24      	ldr	r3, [pc, #144]	; (8001bb8 <MX_TIM12_Init+0xc0>)
 8001b26:	f640 32b7 	movw	r2, #2999	; 0xbb7
 8001b2a:	605a      	str	r2, [r3, #4]
  htim12.Init.CounterMode = TIM_COUNTERMODE_UP;
 8001b2c:	4b22      	ldr	r3, [pc, #136]	; (8001bb8 <MX_TIM12_Init+0xc0>)
 8001b2e:	2200      	movs	r2, #0
 8001b30:	609a      	str	r2, [r3, #8]
  htim12.Init.Period = 65535;
 8001b32:	4b21      	ldr	r3, [pc, #132]	; (8001bb8 <MX_TIM12_Init+0xc0>)
 8001b34:	f64f 72ff 	movw	r2, #65535	; 0xffff
 8001b38:	60da      	str	r2, [r3, #12]
  htim12.Init.ClockDivision = TIM_CLOCKDIVISION_DIV1;
 8001b3a:	4b1f      	ldr	r3, [pc, #124]	; (8001bb8 <MX_TIM12_Init+0xc0>)
 8001b3c:	2200      	movs	r2, #0
 8001b3e:	611a      	str	r2, [r3, #16]
  htim12.Init.AutoReloadPreload = TIM_AUTORELOAD_PRELOAD_DISABLE;
 8001b40:	4b1d      	ldr	r3, [pc, #116]	; (8001bb8 <MX_TIM12_Init+0xc0>)
 8001b42:	2200      	movs	r2, #0
 8001b44:	619a      	str	r2, [r3, #24]
  if (HAL_TIM_Base_Init(&htim12) != HAL_OK)
 8001b46:	481c      	ldr	r0, [pc, #112]	; (8001bb8 <MX_TIM12_Init+0xc0>)
 8001b48:	f001 fd96 	bl	8003678 <HAL_TIM_Base_Init>
 8001b4c:	4603      	mov	r3, r0
 8001b4e:	2b00      	cmp	r3, #0
 8001b50:	d001      	beq.n	8001b56 <MX_TIM12_Init+0x5e>
  {
    Error_Handler();
 8001b52:	f000 f925 	bl	8001da0 <Error_Handler>
  }
  sClockSourceConfig.ClockSource = TIM_CLOCKSOURCE_INTERNAL;
 8001b56:	f44f 5380 	mov.w	r3, #4096	; 0x1000
 8001b5a:	623b      	str	r3, [r7, #32]
  if (HAL_TIM_ConfigClockSource(&htim12, &sClockSourceConfig) != HAL_OK)
 8001b5c:	f107 0320 	add.w	r3, r7, #32
 8001b60:	4619      	mov	r1, r3
 8001b62:	4815      	ldr	r0, [pc, #84]	; (8001bb8 <MX_TIM12_Init+0xc0>)
 8001b64:	f002 fb48 	bl	80041f8 <HAL_TIM_ConfigClockSource>
 8001b68:	4603      	mov	r3, r0
 8001b6a:	2b00      	cmp	r3, #0
 8001b6c:	d001      	beq.n	8001b72 <MX_TIM12_Init+0x7a>
  {
    Error_Handler();
 8001b6e:	f000 f917 	bl	8001da0 <Error_Handler>
  }
  if (HAL_TIM_PWM_Init(&htim12) != HAL_OK)
 8001b72:	4811      	ldr	r0, [pc, #68]	; (8001bb8 <MX_TIM12_Init+0xc0>)
 8001b74:	f001 fe40 	bl	80037f8 <HAL_TIM_PWM_Init>
 8001b78:	4603      	mov	r3, r0
 8001b7a:	2b00      	cmp	r3, #0
 8001b7c:	d001      	beq.n	8001b82 <MX_TIM12_Init+0x8a>
  {
    Error_Handler();
 8001b7e:	f000 f90f 	bl	8001da0 <Error_Handler>
  }
  sConfigOC.OCMode = TIM_OCMODE_PWM1;
 8001b82:	2360      	movs	r3, #96	; 0x60
 8001b84:	607b      	str	r3, [r7, #4]
  sConfigOC.Pulse = 100;
 8001b86:	2364      	movs	r3, #100	; 0x64
 8001b88:	60bb      	str	r3, [r7, #8]
  sConfigOC.OCPolarity = TIM_OCPOLARITY_HIGH;
 8001b8a:	2300      	movs	r3, #0
 8001b8c:	60fb      	str	r3, [r7, #12]
  sConfigOC.OCFastMode = TIM_OCFAST_DISABLE;
 8001b8e:	2300      	movs	r3, #0
 8001b90:	617b      	str	r3, [r7, #20]
  if (HAL_TIM_PWM_ConfigChannel(&htim12, &sConfigOC, TIM_CHANNEL_1) != HAL_OK)
 8001b92:	1d3b      	adds	r3, r7, #4
 8001b94:	2200      	movs	r2, #0
 8001b96:	4619      	mov	r1, r3
 8001b98:	4807      	ldr	r0, [pc, #28]	; (8001bb8 <MX_TIM12_Init+0xc0>)
 8001b9a:	f002 fa6b 	bl	8004074 <HAL_TIM_PWM_ConfigChannel>
 8001b9e:	4603      	mov	r3, r0
 8001ba0:	2b00      	cmp	r3, #0
 8001ba2:	d001      	beq.n	8001ba8 <MX_TIM12_Init+0xb0>
  {
    Error_Handler();
 8001ba4:	f000 f8fc 	bl	8001da0 <Error_Handler>
  }
  /* USER CODE BEGIN TIM12_Init 2 */

  /* USER CODE END TIM12_Init 2 */
  HAL_TIM_MspPostInit(&htim12);
 8001ba8:	4803      	ldr	r0, [pc, #12]	; (8001bb8 <MX_TIM12_Init+0xc0>)
 8001baa:	f000 fa27 	bl	8001ffc <HAL_TIM_MspPostInit>

}
 8001bae:	bf00      	nop
 8001bb0:	3730      	adds	r7, #48	; 0x30
 8001bb2:	46bd      	mov	sp, r7
 8001bb4:	bd80      	pop	{r7, pc}
 8001bb6:	bf00      	nop
 8001bb8:	20000500 	.word	0x20000500
 8001bbc:	40001800 	.word	0x40001800

08001bc0 <MX_USART2_UART_Init>:
  * @brief USART2 Initialization Function
  * @param None
  * @retval None
  */
static void MX_USART2_UART_Init(void)
{
 8001bc0:	b580      	push	{r7, lr}
 8001bc2:	af00      	add	r7, sp, #0
  /* USER CODE END USART2_Init 0 */

  /* USER CODE BEGIN USART2_Init 1 */

  /* USER CODE END USART2_Init 1 */
  huart2.Instance = USART2;
 8001bc4:	4b11      	ldr	r3, [pc, #68]	; (8001c0c <MX_USART2_UART_Init+0x4c>)
 8001bc6:	4a12      	ldr	r2, [pc, #72]	; (8001c10 <MX_USART2_UART_Init+0x50>)
 8001bc8:	601a      	str	r2, [r3, #0]
  huart2.Init.BaudRate = 115200;
 8001bca:	4b10      	ldr	r3, [pc, #64]	; (8001c0c <MX_USART2_UART_Init+0x4c>)
 8001bcc:	f44f 32e1 	mov.w	r2, #115200	; 0x1c200
 8001bd0:	605a      	str	r2, [r3, #4]
  huart2.Init.WordLength = UART_WORDLENGTH_8B;
 8001bd2:	4b0e      	ldr	r3, [pc, #56]	; (8001c0c <MX_USART2_UART_Init+0x4c>)
 8001bd4:	2200      	movs	r2, #0
 8001bd6:	609a      	str	r2, [r3, #8]
  huart2.Init.StopBits = UART_STOPBITS_1;
 8001bd8:	4b0c      	ldr	r3, [pc, #48]	; (8001c0c <MX_USART2_UART_Init+0x4c>)
 8001bda:	2200      	movs	r2, #0
 8001bdc:	60da      	str	r2, [r3, #12]
  huart2.Init.Parity = UART_PARITY_NONE;
 8001bde:	4b0b      	ldr	r3, [pc, #44]	; (8001c0c <MX_USART2_UART_Init+0x4c>)
 8001be0:	2200      	movs	r2, #0
 8001be2:	611a      	str	r2, [r3, #16]
  huart2.Init.Mode = UART_MODE_TX_RX;
 8001be4:	4b09      	ldr	r3, [pc, #36]	; (8001c0c <MX_USART2_UART_Init+0x4c>)
 8001be6:	220c      	movs	r2, #12
 8001be8:	615a      	str	r2, [r3, #20]
  huart2.Init.HwFlowCtl = UART_HWCONTROL_NONE;
 8001bea:	4b08      	ldr	r3, [pc, #32]	; (8001c0c <MX_USART2_UART_Init+0x4c>)
 8001bec:	2200      	movs	r2, #0
 8001bee:	619a      	str	r2, [r3, #24]
  huart2.Init.OverSampling = UART_OVERSAMPLING_16;
 8001bf0:	4b06      	ldr	r3, [pc, #24]	; (8001c0c <MX_USART2_UART_Init+0x4c>)
 8001bf2:	2200      	movs	r2, #0
 8001bf4:	61da      	str	r2, [r3, #28]
  if (HAL_UART_Init(&huart2) != HAL_OK)
 8001bf6:	4805      	ldr	r0, [pc, #20]	; (8001c0c <MX_USART2_UART_Init+0x4c>)
 8001bf8:	f003 f944 	bl	8004e84 <HAL_UART_Init>
 8001bfc:	4603      	mov	r3, r0
 8001bfe:	2b00      	cmp	r3, #0
 8001c00:	d001      	beq.n	8001c06 <MX_USART2_UART_Init+0x46>
  {
    Error_Handler();
 8001c02:	f000 f8cd 	bl	8001da0 <Error_Handler>
  }
  /* USER CODE BEGIN USART2_Init 2 */

  /* USER CODE END USART2_Init 2 */

}
 8001c06:	bf00      	nop
 8001c08:	bd80      	pop	{r7, pc}
 8001c0a:	bf00      	nop
 8001c0c:	200004a8 	.word	0x200004a8
 8001c10:	40004400 	.word	0x40004400

08001c14 <MX_GPIO_Init>:
  * @brief GPIO Initialization Function
  * @param None
  * @retval None
  */
static void MX_GPIO_Init(void)
{
 8001c14:	b580      	push	{r7, lr}
 8001c16:	b08a      	sub	sp, #40	; 0x28
 8001c18:	af00      	add	r7, sp, #0
  GPIO_InitTypeDef GPIO_InitStruct = {0};
 8001c1a:	f107 0314 	add.w	r3, r7, #20
 8001c1e:	2200      	movs	r2, #0
 8001c20:	601a      	str	r2, [r3, #0]
 8001c22:	605a      	str	r2, [r3, #4]
 8001c24:	609a      	str	r2, [r3, #8]
 8001c26:	60da      	str	r2, [r3, #12]
 8001c28:	611a      	str	r2, [r3, #16]

  /* GPIO Ports Clock Enable */
  __HAL_RCC_GPIOC_CLK_ENABLE();
 8001c2a:	2300      	movs	r3, #0
 8001c2c:	613b      	str	r3, [r7, #16]
 8001c2e:	4b2d      	ldr	r3, [pc, #180]	; (8001ce4 <MX_GPIO_Init+0xd0>)
 8001c30:	6b1b      	ldr	r3, [r3, #48]	; 0x30
 8001c32:	4a2c      	ldr	r2, [pc, #176]	; (8001ce4 <MX_GPIO_Init+0xd0>)
 8001c34:	f043 0304 	orr.w	r3, r3, #4
 8001c38:	6313      	str	r3, [r2, #48]	; 0x30
 8001c3a:	4b2a      	ldr	r3, [pc, #168]	; (8001ce4 <MX_GPIO_Init+0xd0>)
 8001c3c:	6b1b      	ldr	r3, [r3, #48]	; 0x30
 8001c3e:	f003 0304 	and.w	r3, r3, #4
 8001c42:	613b      	str	r3, [r7, #16]
 8001c44:	693b      	ldr	r3, [r7, #16]
  __HAL_RCC_GPIOH_CLK_ENABLE();
 8001c46:	2300      	movs	r3, #0
 8001c48:	60fb      	str	r3, [r7, #12]
 8001c4a:	4b26      	ldr	r3, [pc, #152]	; (8001ce4 <MX_GPIO_Init+0xd0>)
 8001c4c:	6b1b      	ldr	r3, [r3, #48]	; 0x30
 8001c4e:	4a25      	ldr	r2, [pc, #148]	; (8001ce4 <MX_GPIO_Init+0xd0>)
 8001c50:	f043 0380 	orr.w	r3, r3, #128	; 0x80
 8001c54:	6313      	str	r3, [r2, #48]	; 0x30
 8001c56:	4b23      	ldr	r3, [pc, #140]	; (8001ce4 <MX_GPIO_Init+0xd0>)
 8001c58:	6b1b      	ldr	r3, [r3, #48]	; 0x30
 8001c5a:	f003 0380 	and.w	r3, r3, #128	; 0x80
 8001c5e:	60fb      	str	r3, [r7, #12]
 8001c60:	68fb      	ldr	r3, [r7, #12]
  __HAL_RCC_GPIOA_CLK_ENABLE();
 8001c62:	2300      	movs	r3, #0
 8001c64:	60bb      	str	r3, [r7, #8]
 8001c66:	4b1f      	ldr	r3, [pc, #124]	; (8001ce4 <MX_GPIO_Init+0xd0>)
 8001c68:	6b1b      	ldr	r3, [r3, #48]	; 0x30
 8001c6a:	4a1e      	ldr	r2, [pc, #120]	; (8001ce4 <MX_GPIO_Init+0xd0>)
 8001c6c:	f043 0301 	orr.w	r3, r3, #1
 8001c70:	6313      	str	r3, [r2, #48]	; 0x30
 8001c72:	4b1c      	ldr	r3, [pc, #112]	; (8001ce4 <MX_GPIO_Init+0xd0>)
 8001c74:	6b1b      	ldr	r3, [r3, #48]	; 0x30
 8001c76:	f003 0301 	and.w	r3, r3, #1
 8001c7a:	60bb      	str	r3, [r7, #8]
 8001c7c:	68bb      	ldr	r3, [r7, #8]
  __HAL_RCC_GPIOB_CLK_ENABLE();
 8001c7e:	2300      	movs	r3, #0
 8001c80:	607b      	str	r3, [r7, #4]
 8001c82:	4b18      	ldr	r3, [pc, #96]	; (8001ce4 <MX_GPIO_Init+0xd0>)
 8001c84:	6b1b      	ldr	r3, [r3, #48]	; 0x30
 8001c86:	4a17      	ldr	r2, [pc, #92]	; (8001ce4 <MX_GPIO_Init+0xd0>)
 8001c88:	f043 0302 	orr.w	r3, r3, #2
 8001c8c:	6313      	str	r3, [r2, #48]	; 0x30
 8001c8e:	4b15      	ldr	r3, [pc, #84]	; (8001ce4 <MX_GPIO_Init+0xd0>)
 8001c90:	6b1b      	ldr	r3, [r3, #48]	; 0x30
 8001c92:	f003 0302 	and.w	r3, r3, #2
 8001c96:	607b      	str	r3, [r7, #4]
 8001c98:	687b      	ldr	r3, [r7, #4]

  /*Configure GPIO pin Output Level */
  HAL_GPIO_WritePin(LD2_GPIO_Port, LD2_Pin, GPIO_PIN_RESET);
 8001c9a:	2200      	movs	r2, #0
 8001c9c:	2120      	movs	r1, #32
 8001c9e:	4812      	ldr	r0, [pc, #72]	; (8001ce8 <MX_GPIO_Init+0xd4>)
 8001ca0:	f000 ff66 	bl	8002b70 <HAL_GPIO_WritePin>

  /*Configure GPIO pin : B1_Pin */
  GPIO_InitStruct.Pin = B1_Pin;
 8001ca4:	f44f 5300 	mov.w	r3, #8192	; 0x2000
 8001ca8:	617b      	str	r3, [r7, #20]
  GPIO_InitStruct.Mode = GPIO_MODE_IT_FALLING;
 8001caa:	f44f 1304 	mov.w	r3, #2162688	; 0x210000
 8001cae:	61bb      	str	r3, [r7, #24]
  GPIO_InitStruct.Pull = GPIO_NOPULL;
 8001cb0:	2300      	movs	r3, #0
 8001cb2:	61fb      	str	r3, [r7, #28]
  HAL_GPIO_Init(B1_GPIO_Port, &GPIO_InitStruct);
 8001cb4:	f107 0314 	add.w	r3, r7, #20
 8001cb8:	4619      	mov	r1, r3
 8001cba:	480c      	ldr	r0, [pc, #48]	; (8001cec <MX_GPIO_Init+0xd8>)
 8001cbc:	f000 fdc4 	bl	8002848 <HAL_GPIO_Init>

  /*Configure GPIO pin : LD2_Pin */
  GPIO_InitStruct.Pin = LD2_Pin;
 8001cc0:	2320      	movs	r3, #32
 8001cc2:	617b      	str	r3, [r7, #20]
  GPIO_InitStruct.Mode = GPIO_MODE_OUTPUT_PP;
 8001cc4:	2301      	movs	r3, #1
 8001cc6:	61bb      	str	r3, [r7, #24]
  GPIO_InitStruct.Pull = GPIO_NOPULL;
 8001cc8:	2300      	movs	r3, #0
 8001cca:	61fb      	str	r3, [r7, #28]
  GPIO_InitStruct.Speed = GPIO_SPEED_FREQ_LOW;
 8001ccc:	2300      	movs	r3, #0
 8001cce:	623b      	str	r3, [r7, #32]
  HAL_GPIO_Init(LD2_GPIO_Port, &GPIO_InitStruct);
 8001cd0:	f107 0314 	add.w	r3, r7, #20
 8001cd4:	4619      	mov	r1, r3
 8001cd6:	4804      	ldr	r0, [pc, #16]	; (8001ce8 <MX_GPIO_Init+0xd4>)
 8001cd8:	f000 fdb6 	bl	8002848 <HAL_GPIO_Init>

}
 8001cdc:	bf00      	nop
 8001cde:	3728      	adds	r7, #40	; 0x28
 8001ce0:	46bd      	mov	sp, r7
 8001ce2:	bd80      	pop	{r7, pc}
 8001ce4:	40023800 	.word	0x40023800
 8001ce8:	40020000 	.word	0x40020000
 8001cec:	40020800 	.word	0x40020800

08001cf0 <HAL_TIM_IC_CaptureCallback>:

/* USER CODE BEGIN 4 */
void HAL_TIM_IC_CaptureCallback(TIM_HandleTypeDef *htim)
{
 8001cf0:	b580      	push	{r7, lr}
 8001cf2:	b082      	sub	sp, #8
 8001cf4:	af00      	add	r7, sp, #0
 8001cf6:	6078      	str	r0, [r7, #4]
    HCSR04_TMR_IC_ISR(htim);
 8001cf8:	6878      	ldr	r0, [r7, #4]
 8001cfa:	f003 fe29 	bl	8005950 <HCSR04_TMR_IC_ISR>
}
 8001cfe:	bf00      	nop
 8001d00:	3708      	adds	r7, #8
 8001d02:	46bd      	mov	sp, r7
 8001d04:	bd80      	pop	{r7, pc}

08001d06 <HAL_TIM_PeriodElapsedCallback>:
 
void HAL_TIM_PeriodElapsedCallback(TIM_HandleTypeDef* htim)
{
 8001d06:	b580      	push	{r7, lr}
 8001d08:	b082      	sub	sp, #8
 8001d0a:	af00      	add	r7, sp, #0
 8001d0c:	6078      	str	r0, [r7, #4]
    HCSR04_TMR_OVF_ISR(htim);
 8001d0e:	6878      	ldr	r0, [r7, #4]
 8001d10:	f003 fde2 	bl	80058d8 <HCSR04_TMR_OVF_ISR>
}
 8001d14:	bf00      	nop
 8001d16:	3708      	adds	r7, #8
 8001d18:	46bd      	mov	sp, r7
 8001d1a:	bd80      	pop	{r7, pc}

08001d1c <SysTick_CallBack>:

uint8_t TRIG_Ticks;
uint16_t MOTOR_Ticks;
void SysTick_CallBack(void)
{
 8001d1c:	b580      	push	{r7, lr}
 8001d1e:	af00      	add	r7, sp, #0
    TRIG_Ticks++;
 8001d20:	4b18      	ldr	r3, [pc, #96]	; (8001d84 <SysTick_CallBack+0x68>)
 8001d22:	781b      	ldrb	r3, [r3, #0]
 8001d24:	3301      	adds	r3, #1
 8001d26:	b2da      	uxtb	r2, r3
 8001d28:	4b16      	ldr	r3, [pc, #88]	; (8001d84 <SysTick_CallBack+0x68>)
 8001d2a:	701a      	strb	r2, [r3, #0]
    MOTOR_Ticks++;
 8001d2c:	4b16      	ldr	r3, [pc, #88]	; (8001d88 <SysTick_CallBack+0x6c>)
 8001d2e:	881b      	ldrh	r3, [r3, #0]
 8001d30:	3301      	adds	r3, #1
 8001d32:	b29a      	uxth	r2, r3
 8001d34:	4b14      	ldr	r3, [pc, #80]	; (8001d88 <SysTick_CallBack+0x6c>)
 8001d36:	801a      	strh	r2, [r3, #0]
    if(TRIG_Ticks >= 15) // Each 15msec
 8001d38:	4b12      	ldr	r3, [pc, #72]	; (8001d84 <SysTick_CallBack+0x68>)
 8001d3a:	781b      	ldrb	r3, [r3, #0]
 8001d3c:	2b0e      	cmp	r3, #14
 8001d3e:	d90e      	bls.n	8001d5e <SysTick_CallBack+0x42>
    {
        HCSR04_Trigger(HCSR04_SENSOR1);
 8001d40:	2000      	movs	r0, #0
 8001d42:	f004 f867 	bl	8005e14 <HCSR04_Trigger>
        HCSR04_Trigger(HCSR04_SENSOR2);
 8001d46:	2001      	movs	r0, #1
 8001d48:	f004 f864 	bl	8005e14 <HCSR04_Trigger>
        HCSR04_Trigger(HCSR04_SENSOR3);
 8001d4c:	2002      	movs	r0, #2
 8001d4e:	f004 f861 	bl	8005e14 <HCSR04_Trigger>
        HCSR04_Trigger(HCSR04_SENSOR4);
 8001d52:	2003      	movs	r0, #3
 8001d54:	f004 f85e 	bl	8005e14 <HCSR04_Trigger>
        TRIG_Ticks = 0;
 8001d58:	4b0a      	ldr	r3, [pc, #40]	; (8001d84 <SysTick_CallBack+0x68>)
 8001d5a:	2200      	movs	r2, #0
 8001d5c:	701a      	strb	r2, [r3, #0]
    }
    if(MOTOR_Ticks >= 100){
 8001d5e:	4b0a      	ldr	r3, [pc, #40]	; (8001d88 <SysTick_CallBack+0x6c>)
 8001d60:	881b      	ldrh	r3, [r3, #0]
 8001d62:	2b63      	cmp	r3, #99	; 0x63
 8001d64:	d90c      	bls.n	8001d80 <SysTick_CallBack+0x64>
      UpdateMotorsFreq(motors, motors_num, motors_channel, distances, 30.0, 150.0);
 8001d66:	eddf 0a09 	vldr	s1, [pc, #36]	; 8001d8c <SysTick_CallBack+0x70>
 8001d6a:	eeb3 0a0e 	vmov.f32	s0, #62	; 0x41f00000  30.0
 8001d6e:	4b08      	ldr	r3, [pc, #32]	; (8001d90 <SysTick_CallBack+0x74>)
 8001d70:	4a08      	ldr	r2, [pc, #32]	; (8001d94 <SysTick_CallBack+0x78>)
 8001d72:	4909      	ldr	r1, [pc, #36]	; (8001d98 <SysTick_CallBack+0x7c>)
 8001d74:	4809      	ldr	r0, [pc, #36]	; (8001d9c <SysTick_CallBack+0x80>)
 8001d76:	f7ff fa75 	bl	8001264 <UpdateMotorsFreq>
      MOTOR_Ticks = 0;
 8001d7a:	4b03      	ldr	r3, [pc, #12]	; (8001d88 <SysTick_CallBack+0x6c>)
 8001d7c:	2200      	movs	r2, #0
 8001d7e:	801a      	strh	r2, [r3, #0]
    }
}
 8001d80:	bf00      	nop
 8001d82:	bd80      	pop	{r7, pc}
 8001d84:	200004fc 	.word	0x200004fc
 8001d88:	20000414 	.word	0x20000414
 8001d8c:	43160000 	.word	0x43160000
 8001d90:	200004ec 	.word	0x200004ec
 8001d94:	20000014 	.word	0x20000014
 8001d98:	20000010 	.word	0x20000010
 8001d9c:	20000000 	.word	0x20000000

08001da0 <Error_Handler>:
/**
  * @brief  This function is executed in case of error occurrence.
  * @retval None
  */
void Error_Handler(void)
{
 8001da0:	b480      	push	{r7}
 8001da2:	af00      	add	r7, sp, #0
  \details Disables IRQ interrupts by setting the I-bit in the CPSR.
           Can only be executed in Privileged modes.
 */
__STATIC_FORCEINLINE void __disable_irq(void)
{
  __ASM volatile ("cpsid i" : : : "memory");
 8001da4:	b672      	cpsid	i
}
 8001da6:	bf00      	nop
  /* USER CODE BEGIN Error_Handler_Debug */
  /* User can add his own implementation to report the HAL error return state */
  __disable_irq();
  while (1)
 8001da8:	e7fe      	b.n	8001da8 <Error_Handler+0x8>
	...

08001dac <HAL_MspInit>:
void HAL_TIM_MspPostInit(TIM_HandleTypeDef *htim);
                                                                                                                        /**
  * Initializes the Global MSP.
  */
void HAL_MspInit(void)
{
 8001dac:	b580      	push	{r7, lr}
 8001dae:	b082      	sub	sp, #8
 8001db0:	af00      	add	r7, sp, #0
  /* USER CODE BEGIN MspInit 0 */

  /* USER CODE END MspInit 0 */

  __HAL_RCC_SYSCFG_CLK_ENABLE();
 8001db2:	2300      	movs	r3, #0
 8001db4:	607b      	str	r3, [r7, #4]
 8001db6:	4b10      	ldr	r3, [pc, #64]	; (8001df8 <HAL_MspInit+0x4c>)
 8001db8:	6c5b      	ldr	r3, [r3, #68]	; 0x44
 8001dba:	4a0f      	ldr	r2, [pc, #60]	; (8001df8 <HAL_MspInit+0x4c>)
 8001dbc:	f443 4380 	orr.w	r3, r3, #16384	; 0x4000
 8001dc0:	6453      	str	r3, [r2, #68]	; 0x44
 8001dc2:	4b0d      	ldr	r3, [pc, #52]	; (8001df8 <HAL_MspInit+0x4c>)
 8001dc4:	6c5b      	ldr	r3, [r3, #68]	; 0x44
 8001dc6:	f403 4380 	and.w	r3, r3, #16384	; 0x4000
 8001dca:	607b      	str	r3, [r7, #4]
 8001dcc:	687b      	ldr	r3, [r7, #4]
  __HAL_RCC_PWR_CLK_ENABLE();
 8001dce:	2300      	movs	r3, #0
 8001dd0:	603b      	str	r3, [r7, #0]
 8001dd2:	4b09      	ldr	r3, [pc, #36]	; (8001df8 <HAL_MspInit+0x4c>)
 8001dd4:	6c1b      	ldr	r3, [r3, #64]	; 0x40
 8001dd6:	4a08      	ldr	r2, [pc, #32]	; (8001df8 <HAL_MspInit+0x4c>)
 8001dd8:	f043 5380 	orr.w	r3, r3, #268435456	; 0x10000000
 8001ddc:	6413      	str	r3, [r2, #64]	; 0x40
 8001dde:	4b06      	ldr	r3, [pc, #24]	; (8001df8 <HAL_MspInit+0x4c>)
 8001de0:	6c1b      	ldr	r3, [r3, #64]	; 0x40
 8001de2:	f003 5380 	and.w	r3, r3, #268435456	; 0x10000000
 8001de6:	603b      	str	r3, [r7, #0]
 8001de8:	683b      	ldr	r3, [r7, #0]

  HAL_NVIC_SetPriorityGrouping(NVIC_PRIORITYGROUP_0);
 8001dea:	2007      	movs	r0, #7
 8001dec:	f000 fcea 	bl	80027c4 <HAL_NVIC_SetPriorityGrouping>
  /* System interrupt init*/

  /* USER CODE BEGIN MspInit 1 */

  /* USER CODE END MspInit 1 */
}
 8001df0:	bf00      	nop
 8001df2:	3708      	adds	r7, #8
 8001df4:	46bd      	mov	sp, r7
 8001df6:	bd80      	pop	{r7, pc}
 8001df8:	40023800 	.word	0x40023800

08001dfc <HAL_TIM_Base_MspInit>:
* This function configures the hardware resources used in this example
* @param htim_base: TIM_Base handle pointer
* @retval None
*/
void HAL_TIM_Base_MspInit(TIM_HandleTypeDef* htim_base)
{
 8001dfc:	b580      	push	{r7, lr}
 8001dfe:	b090      	sub	sp, #64	; 0x40
 8001e00:	af00      	add	r7, sp, #0
 8001e02:	6078      	str	r0, [r7, #4]
  GPIO_InitTypeDef GPIO_InitStruct = {0};
 8001e04:	f107 032c 	add.w	r3, r7, #44	; 0x2c
 8001e08:	2200      	movs	r2, #0
 8001e0a:	601a      	str	r2, [r3, #0]
 8001e0c:	605a      	str	r2, [r3, #4]
 8001e0e:	609a      	str	r2, [r3, #8]
 8001e10:	60da      	str	r2, [r3, #12]
 8001e12:	611a      	str	r2, [r3, #16]
  if(htim_base->Instance==TIM1)
 8001e14:	687b      	ldr	r3, [r7, #4]
 8001e16:	681b      	ldr	r3, [r3, #0]
 8001e18:	4a5f      	ldr	r2, [pc, #380]	; (8001f98 <HAL_TIM_Base_MspInit+0x19c>)
 8001e1a:	4293      	cmp	r3, r2
 8001e1c:	d10e      	bne.n	8001e3c <HAL_TIM_Base_MspInit+0x40>
  {
  /* USER CODE BEGIN TIM1_MspInit 0 */

  /* USER CODE END TIM1_MspInit 0 */
    /* Peripheral clock enable */
    __HAL_RCC_TIM1_CLK_ENABLE();
 8001e1e:	2300      	movs	r3, #0
 8001e20:	62bb      	str	r3, [r7, #40]	; 0x28
 8001e22:	4b5e      	ldr	r3, [pc, #376]	; (8001f9c <HAL_TIM_Base_MspInit+0x1a0>)
 8001e24:	6c5b      	ldr	r3, [r3, #68]	; 0x44
 8001e26:	4a5d      	ldr	r2, [pc, #372]	; (8001f9c <HAL_TIM_Base_MspInit+0x1a0>)
 8001e28:	f043 0301 	orr.w	r3, r3, #1
 8001e2c:	6453      	str	r3, [r2, #68]	; 0x44
 8001e2e:	4b5b      	ldr	r3, [pc, #364]	; (8001f9c <HAL_TIM_Base_MspInit+0x1a0>)
 8001e30:	6c5b      	ldr	r3, [r3, #68]	; 0x44
 8001e32:	f003 0301 	and.w	r3, r3, #1
 8001e36:	62bb      	str	r3, [r7, #40]	; 0x28
 8001e38:	6abb      	ldr	r3, [r7, #40]	; 0x28
  /* USER CODE BEGIN TIM12_MspInit 1 */

  /* USER CODE END TIM12_MspInit 1 */
  }

}
 8001e3a:	e0a8      	b.n	8001f8e <HAL_TIM_Base_MspInit+0x192>
  else if(htim_base->Instance==TIM2)
 8001e3c:	687b      	ldr	r3, [r7, #4]
 8001e3e:	681b      	ldr	r3, [r3, #0]
 8001e40:	f1b3 4f80 	cmp.w	r3, #1073741824	; 0x40000000
 8001e44:	d154      	bne.n	8001ef0 <HAL_TIM_Base_MspInit+0xf4>
    __HAL_RCC_TIM2_CLK_ENABLE();
 8001e46:	2300      	movs	r3, #0
 8001e48:	627b      	str	r3, [r7, #36]	; 0x24
 8001e4a:	4b54      	ldr	r3, [pc, #336]	; (8001f9c <HAL_TIM_Base_MspInit+0x1a0>)
 8001e4c:	6c1b      	ldr	r3, [r3, #64]	; 0x40
 8001e4e:	4a53      	ldr	r2, [pc, #332]	; (8001f9c <HAL_TIM_Base_MspInit+0x1a0>)
 8001e50:	f043 0301 	orr.w	r3, r3, #1
 8001e54:	6413      	str	r3, [r2, #64]	; 0x40
 8001e56:	4b51      	ldr	r3, [pc, #324]	; (8001f9c <HAL_TIM_Base_MspInit+0x1a0>)
 8001e58:	6c1b      	ldr	r3, [r3, #64]	; 0x40
 8001e5a:	f003 0301 	and.w	r3, r3, #1
 8001e5e:	627b      	str	r3, [r7, #36]	; 0x24
 8001e60:	6a7b      	ldr	r3, [r7, #36]	; 0x24
    __HAL_RCC_GPIOA_CLK_ENABLE();
 8001e62:	2300      	movs	r3, #0
 8001e64:	623b      	str	r3, [r7, #32]
 8001e66:	4b4d      	ldr	r3, [pc, #308]	; (8001f9c <HAL_TIM_Base_MspInit+0x1a0>)
 8001e68:	6b1b      	ldr	r3, [r3, #48]	; 0x30
 8001e6a:	4a4c      	ldr	r2, [pc, #304]	; (8001f9c <HAL_TIM_Base_MspInit+0x1a0>)
 8001e6c:	f043 0301 	orr.w	r3, r3, #1
 8001e70:	6313      	str	r3, [r2, #48]	; 0x30
 8001e72:	4b4a      	ldr	r3, [pc, #296]	; (8001f9c <HAL_TIM_Base_MspInit+0x1a0>)
 8001e74:	6b1b      	ldr	r3, [r3, #48]	; 0x30
 8001e76:	f003 0301 	and.w	r3, r3, #1
 8001e7a:	623b      	str	r3, [r7, #32]
 8001e7c:	6a3b      	ldr	r3, [r7, #32]
    __HAL_RCC_GPIOB_CLK_ENABLE();
 8001e7e:	2300      	movs	r3, #0
 8001e80:	61fb      	str	r3, [r7, #28]
 8001e82:	4b46      	ldr	r3, [pc, #280]	; (8001f9c <HAL_TIM_Base_MspInit+0x1a0>)
 8001e84:	6b1b      	ldr	r3, [r3, #48]	; 0x30
 8001e86:	4a45      	ldr	r2, [pc, #276]	; (8001f9c <HAL_TIM_Base_MspInit+0x1a0>)
 8001e88:	f043 0302 	orr.w	r3, r3, #2
 8001e8c:	6313      	str	r3, [r2, #48]	; 0x30
 8001e8e:	4b43      	ldr	r3, [pc, #268]	; (8001f9c <HAL_TIM_Base_MspInit+0x1a0>)
 8001e90:	6b1b      	ldr	r3, [r3, #48]	; 0x30
 8001e92:	f003 0302 	and.w	r3, r3, #2
 8001e96:	61fb      	str	r3, [r7, #28]
 8001e98:	69fb      	ldr	r3, [r7, #28]
    GPIO_InitStruct.Pin = GPIO_PIN_1|GPIO_PIN_15;
 8001e9a:	f248 0302 	movw	r3, #32770	; 0x8002
 8001e9e:	62fb      	str	r3, [r7, #44]	; 0x2c
    GPIO_InitStruct.Mode = GPIO_MODE_AF_PP;
 8001ea0:	2302      	movs	r3, #2
 8001ea2:	633b      	str	r3, [r7, #48]	; 0x30
    GPIO_InitStruct.Pull = GPIO_NOPULL;
 8001ea4:	2300      	movs	r3, #0
 8001ea6:	637b      	str	r3, [r7, #52]	; 0x34
    GPIO_InitStruct.Speed = GPIO_SPEED_FREQ_LOW;
 8001ea8:	2300      	movs	r3, #0
 8001eaa:	63bb      	str	r3, [r7, #56]	; 0x38
    GPIO_InitStruct.Alternate = GPIO_AF1_TIM2;
 8001eac:	2301      	movs	r3, #1
 8001eae:	63fb      	str	r3, [r7, #60]	; 0x3c
    HAL_GPIO_Init(GPIOA, &GPIO_InitStruct);
 8001eb0:	f107 032c 	add.w	r3, r7, #44	; 0x2c
 8001eb4:	4619      	mov	r1, r3
 8001eb6:	483a      	ldr	r0, [pc, #232]	; (8001fa0 <HAL_TIM_Base_MspInit+0x1a4>)
 8001eb8:	f000 fcc6 	bl	8002848 <HAL_GPIO_Init>
    GPIO_InitStruct.Pin = GPIO_PIN_2|GPIO_PIN_10;
 8001ebc:	f240 4304 	movw	r3, #1028	; 0x404
 8001ec0:	62fb      	str	r3, [r7, #44]	; 0x2c
    GPIO_InitStruct.Mode = GPIO_MODE_AF_PP;
 8001ec2:	2302      	movs	r3, #2
 8001ec4:	633b      	str	r3, [r7, #48]	; 0x30
    GPIO_InitStruct.Pull = GPIO_NOPULL;
 8001ec6:	2300      	movs	r3, #0
 8001ec8:	637b      	str	r3, [r7, #52]	; 0x34
    GPIO_InitStruct.Speed = GPIO_SPEED_FREQ_LOW;
 8001eca:	2300      	movs	r3, #0
 8001ecc:	63bb      	str	r3, [r7, #56]	; 0x38
    GPIO_InitStruct.Alternate = GPIO_AF1_TIM2;
 8001ece:	2301      	movs	r3, #1
 8001ed0:	63fb      	str	r3, [r7, #60]	; 0x3c
    HAL_GPIO_Init(GPIOB, &GPIO_InitStruct);
 8001ed2:	f107 032c 	add.w	r3, r7, #44	; 0x2c
 8001ed6:	4619      	mov	r1, r3
 8001ed8:	4832      	ldr	r0, [pc, #200]	; (8001fa4 <HAL_TIM_Base_MspInit+0x1a8>)
 8001eda:	f000 fcb5 	bl	8002848 <HAL_GPIO_Init>
    HAL_NVIC_SetPriority(TIM2_IRQn, 0, 0);
 8001ede:	2200      	movs	r2, #0
 8001ee0:	2100      	movs	r1, #0
 8001ee2:	201c      	movs	r0, #28
 8001ee4:	f000 fc79 	bl	80027da <HAL_NVIC_SetPriority>
    HAL_NVIC_EnableIRQ(TIM2_IRQn);
 8001ee8:	201c      	movs	r0, #28
 8001eea:	f000 fc92 	bl	8002812 <HAL_NVIC_EnableIRQ>
}
 8001eee:	e04e      	b.n	8001f8e <HAL_TIM_Base_MspInit+0x192>
  else if(htim_base->Instance==TIM3)
 8001ef0:	687b      	ldr	r3, [r7, #4]
 8001ef2:	681b      	ldr	r3, [r3, #0]
 8001ef4:	4a2c      	ldr	r2, [pc, #176]	; (8001fa8 <HAL_TIM_Base_MspInit+0x1ac>)
 8001ef6:	4293      	cmp	r3, r2
 8001ef8:	d10e      	bne.n	8001f18 <HAL_TIM_Base_MspInit+0x11c>
    __HAL_RCC_TIM3_CLK_ENABLE();
 8001efa:	2300      	movs	r3, #0
 8001efc:	61bb      	str	r3, [r7, #24]
 8001efe:	4b27      	ldr	r3, [pc, #156]	; (8001f9c <HAL_TIM_Base_MspInit+0x1a0>)
 8001f00:	6c1b      	ldr	r3, [r3, #64]	; 0x40
 8001f02:	4a26      	ldr	r2, [pc, #152]	; (8001f9c <HAL_TIM_Base_MspInit+0x1a0>)
 8001f04:	f043 0302 	orr.w	r3, r3, #2
 8001f08:	6413      	str	r3, [r2, #64]	; 0x40
 8001f0a:	4b24      	ldr	r3, [pc, #144]	; (8001f9c <HAL_TIM_Base_MspInit+0x1a0>)
 8001f0c:	6c1b      	ldr	r3, [r3, #64]	; 0x40
 8001f0e:	f003 0302 	and.w	r3, r3, #2
 8001f12:	61bb      	str	r3, [r7, #24]
 8001f14:	69bb      	ldr	r3, [r7, #24]
}
 8001f16:	e03a      	b.n	8001f8e <HAL_TIM_Base_MspInit+0x192>
  else if(htim_base->Instance==TIM4)
 8001f18:	687b      	ldr	r3, [r7, #4]
 8001f1a:	681b      	ldr	r3, [r3, #0]
 8001f1c:	4a23      	ldr	r2, [pc, #140]	; (8001fac <HAL_TIM_Base_MspInit+0x1b0>)
 8001f1e:	4293      	cmp	r3, r2
 8001f20:	d10e      	bne.n	8001f40 <HAL_TIM_Base_MspInit+0x144>
    __HAL_RCC_TIM4_CLK_ENABLE();
 8001f22:	2300      	movs	r3, #0
 8001f24:	617b      	str	r3, [r7, #20]
 8001f26:	4b1d      	ldr	r3, [pc, #116]	; (8001f9c <HAL_TIM_Base_MspInit+0x1a0>)
 8001f28:	6c1b      	ldr	r3, [r3, #64]	; 0x40
 8001f2a:	4a1c      	ldr	r2, [pc, #112]	; (8001f9c <HAL_TIM_Base_MspInit+0x1a0>)
 8001f2c:	f043 0304 	orr.w	r3, r3, #4
 8001f30:	6413      	str	r3, [r2, #64]	; 0x40
 8001f32:	4b1a      	ldr	r3, [pc, #104]	; (8001f9c <HAL_TIM_Base_MspInit+0x1a0>)
 8001f34:	6c1b      	ldr	r3, [r3, #64]	; 0x40
 8001f36:	f003 0304 	and.w	r3, r3, #4
 8001f3a:	617b      	str	r3, [r7, #20]
 8001f3c:	697b      	ldr	r3, [r7, #20]
}
 8001f3e:	e026      	b.n	8001f8e <HAL_TIM_Base_MspInit+0x192>
  else if(htim_base->Instance==TIM8)
 8001f40:	687b      	ldr	r3, [r7, #4]
 8001f42:	681b      	ldr	r3, [r3, #0]
 8001f44:	4a1a      	ldr	r2, [pc, #104]	; (8001fb0 <HAL_TIM_Base_MspInit+0x1b4>)
 8001f46:	4293      	cmp	r3, r2
 8001f48:	d10e      	bne.n	8001f68 <HAL_TIM_Base_MspInit+0x16c>
    __HAL_RCC_TIM8_CLK_ENABLE();
 8001f4a:	2300      	movs	r3, #0
 8001f4c:	613b      	str	r3, [r7, #16]
 8001f4e:	4b13      	ldr	r3, [pc, #76]	; (8001f9c <HAL_TIM_Base_MspInit+0x1a0>)
 8001f50:	6c5b      	ldr	r3, [r3, #68]	; 0x44
 8001f52:	4a12      	ldr	r2, [pc, #72]	; (8001f9c <HAL_TIM_Base_MspInit+0x1a0>)
 8001f54:	f043 0302 	orr.w	r3, r3, #2
 8001f58:	6453      	str	r3, [r2, #68]	; 0x44
 8001f5a:	4b10      	ldr	r3, [pc, #64]	; (8001f9c <HAL_TIM_Base_MspInit+0x1a0>)
 8001f5c:	6c5b      	ldr	r3, [r3, #68]	; 0x44
 8001f5e:	f003 0302 	and.w	r3, r3, #2
 8001f62:	613b      	str	r3, [r7, #16]
 8001f64:	693b      	ldr	r3, [r7, #16]
}
 8001f66:	e012      	b.n	8001f8e <HAL_TIM_Base_MspInit+0x192>
  else if(htim_base->Instance==TIM12)
 8001f68:	687b      	ldr	r3, [r7, #4]
 8001f6a:	681b      	ldr	r3, [r3, #0]
 8001f6c:	4a11      	ldr	r2, [pc, #68]	; (8001fb4 <HAL_TIM_Base_MspInit+0x1b8>)
 8001f6e:	4293      	cmp	r3, r2
 8001f70:	d10d      	bne.n	8001f8e <HAL_TIM_Base_MspInit+0x192>
    __HAL_RCC_TIM12_CLK_ENABLE();
 8001f72:	2300      	movs	r3, #0
 8001f74:	60fb      	str	r3, [r7, #12]
 8001f76:	4b09      	ldr	r3, [pc, #36]	; (8001f9c <HAL_TIM_Base_MspInit+0x1a0>)
 8001f78:	6c1b      	ldr	r3, [r3, #64]	; 0x40
 8001f7a:	4a08      	ldr	r2, [pc, #32]	; (8001f9c <HAL_TIM_Base_MspInit+0x1a0>)
 8001f7c:	f043 0340 	orr.w	r3, r3, #64	; 0x40
 8001f80:	6413      	str	r3, [r2, #64]	; 0x40
 8001f82:	4b06      	ldr	r3, [pc, #24]	; (8001f9c <HAL_TIM_Base_MspInit+0x1a0>)
 8001f84:	6c1b      	ldr	r3, [r3, #64]	; 0x40
 8001f86:	f003 0340 	and.w	r3, r3, #64	; 0x40
 8001f8a:	60fb      	str	r3, [r7, #12]
 8001f8c:	68fb      	ldr	r3, [r7, #12]
}
 8001f8e:	bf00      	nop
 8001f90:	3740      	adds	r7, #64	; 0x40
 8001f92:	46bd      	mov	sp, r7
 8001f94:	bd80      	pop	{r7, pc}
 8001f96:	bf00      	nop
 8001f98:	40010000 	.word	0x40010000
 8001f9c:	40023800 	.word	0x40023800
 8001fa0:	40020000 	.word	0x40020000
 8001fa4:	40020400 	.word	0x40020400
 8001fa8:	40000400 	.word	0x40000400
 8001fac:	40000800 	.word	0x40000800
 8001fb0:	40010400 	.word	0x40010400
 8001fb4:	40001800 	.word	0x40001800

08001fb8 <HAL_TIM_PWM_MspInit>:
* This function configures the hardware resources used in this example
* @param htim_pwm: TIM_PWM handle pointer
* @retval None
*/
void HAL_TIM_PWM_MspInit(TIM_HandleTypeDef* htim_pwm)
{
 8001fb8:	b480      	push	{r7}
 8001fba:	b085      	sub	sp, #20
 8001fbc:	af00      	add	r7, sp, #0
 8001fbe:	6078      	str	r0, [r7, #4]
  if(htim_pwm->Instance==TIM5)
 8001fc0:	687b      	ldr	r3, [r7, #4]
 8001fc2:	681b      	ldr	r3, [r3, #0]
 8001fc4:	4a0b      	ldr	r2, [pc, #44]	; (8001ff4 <HAL_TIM_PWM_MspInit+0x3c>)
 8001fc6:	4293      	cmp	r3, r2
 8001fc8:	d10d      	bne.n	8001fe6 <HAL_TIM_PWM_MspInit+0x2e>
  {
  /* USER CODE BEGIN TIM5_MspInit 0 */

  /* USER CODE END TIM5_MspInit 0 */
    /* Peripheral clock enable */
    __HAL_RCC_TIM5_CLK_ENABLE();
 8001fca:	2300      	movs	r3, #0
 8001fcc:	60fb      	str	r3, [r7, #12]
 8001fce:	4b0a      	ldr	r3, [pc, #40]	; (8001ff8 <HAL_TIM_PWM_MspInit+0x40>)
 8001fd0:	6c1b      	ldr	r3, [r3, #64]	; 0x40
 8001fd2:	4a09      	ldr	r2, [pc, #36]	; (8001ff8 <HAL_TIM_PWM_MspInit+0x40>)
 8001fd4:	f043 0308 	orr.w	r3, r3, #8
 8001fd8:	6413      	str	r3, [r2, #64]	; 0x40
 8001fda:	4b07      	ldr	r3, [pc, #28]	; (8001ff8 <HAL_TIM_PWM_MspInit+0x40>)
 8001fdc:	6c1b      	ldr	r3, [r3, #64]	; 0x40
 8001fde:	f003 0308 	and.w	r3, r3, #8
 8001fe2:	60fb      	str	r3, [r7, #12]
 8001fe4:	68fb      	ldr	r3, [r7, #12]
  /* USER CODE BEGIN TIM5_MspInit 1 */

  /* USER CODE END TIM5_MspInit 1 */
  }

}
 8001fe6:	bf00      	nop
 8001fe8:	3714      	adds	r7, #20
 8001fea:	46bd      	mov	sp, r7
 8001fec:	f85d 7b04 	ldr.w	r7, [sp], #4
 8001ff0:	4770      	bx	lr
 8001ff2:	bf00      	nop
 8001ff4:	40000c00 	.word	0x40000c00
 8001ff8:	40023800 	.word	0x40023800

08001ffc <HAL_TIM_MspPostInit>:

void HAL_TIM_MspPostInit(TIM_HandleTypeDef* htim)
{
 8001ffc:	b580      	push	{r7, lr}
 8001ffe:	b08e      	sub	sp, #56	; 0x38
 8002000:	af00      	add	r7, sp, #0
 8002002:	6078      	str	r0, [r7, #4]
  GPIO_InitTypeDef GPIO_InitStruct = {0};
 8002004:	f107 0324 	add.w	r3, r7, #36	; 0x24
 8002008:	2200      	movs	r2, #0
 800200a:	601a      	str	r2, [r3, #0]
 800200c:	605a      	str	r2, [r3, #4]
 800200e:	609a      	str	r2, [r3, #8]
 8002010:	60da      	str	r2, [r3, #12]
 8002012:	611a      	str	r2, [r3, #16]
  if(htim->Instance==TIM1)
 8002014:	687b      	ldr	r3, [r7, #4]
 8002016:	681b      	ldr	r3, [r3, #0]
 8002018:	4a6d      	ldr	r2, [pc, #436]	; (80021d0 <HAL_TIM_MspPostInit+0x1d4>)
 800201a:	4293      	cmp	r3, r2
 800201c:	d11f      	bne.n	800205e <HAL_TIM_MspPostInit+0x62>
  {
  /* USER CODE BEGIN TIM1_MspPostInit 0 */

  /* USER CODE END TIM1_MspPostInit 0 */
    __HAL_RCC_GPIOA_CLK_ENABLE();
 800201e:	2300      	movs	r3, #0
 8002020:	623b      	str	r3, [r7, #32]
 8002022:	4b6c      	ldr	r3, [pc, #432]	; (80021d4 <HAL_TIM_MspPostInit+0x1d8>)
 8002024:	6b1b      	ldr	r3, [r3, #48]	; 0x30
 8002026:	4a6b      	ldr	r2, [pc, #428]	; (80021d4 <HAL_TIM_MspPostInit+0x1d8>)
 8002028:	f043 0301 	orr.w	r3, r3, #1
 800202c:	6313      	str	r3, [r2, #48]	; 0x30
 800202e:	4b69      	ldr	r3, [pc, #420]	; (80021d4 <HAL_TIM_MspPostInit+0x1d8>)
 8002030:	6b1b      	ldr	r3, [r3, #48]	; 0x30
 8002032:	f003 0301 	and.w	r3, r3, #1
 8002036:	623b      	str	r3, [r7, #32]
 8002038:	6a3b      	ldr	r3, [r7, #32]
    /**TIM1 GPIO Configuration
    PA8     ------> TIM1_CH1
    */
    GPIO_InitStruct.Pin = GPIO_PIN_8;
 800203a:	f44f 7380 	mov.w	r3, #256	; 0x100
 800203e:	627b      	str	r3, [r7, #36]	; 0x24
    GPIO_InitStruct.Mode = GPIO_MODE_AF_PP;
 8002040:	2302      	movs	r3, #2
 8002042:	62bb      	str	r3, [r7, #40]	; 0x28
    GPIO_InitStruct.Pull = GPIO_NOPULL;
 8002044:	2300      	movs	r3, #0
 8002046:	62fb      	str	r3, [r7, #44]	; 0x2c
    GPIO_InitStruct.Speed = GPIO_SPEED_FREQ_LOW;
 8002048:	2300      	movs	r3, #0
 800204a:	633b      	str	r3, [r7, #48]	; 0x30
    GPIO_InitStruct.Alternate = GPIO_AF1_TIM1;
 800204c:	2301      	movs	r3, #1
 800204e:	637b      	str	r3, [r7, #52]	; 0x34
    HAL_GPIO_Init(GPIOA, &GPIO_InitStruct);
 8002050:	f107 0324 	add.w	r3, r7, #36	; 0x24
 8002054:	4619      	mov	r1, r3
 8002056:	4860      	ldr	r0, [pc, #384]	; (80021d8 <HAL_TIM_MspPostInit+0x1dc>)
 8002058:	f000 fbf6 	bl	8002848 <HAL_GPIO_Init>
  /* USER CODE BEGIN TIM12_MspPostInit 1 */

  /* USER CODE END TIM12_MspPostInit 1 */
  }

}
 800205c:	e0b3      	b.n	80021c6 <HAL_TIM_MspPostInit+0x1ca>
  else if(htim->Instance==TIM3)
 800205e:	687b      	ldr	r3, [r7, #4]
 8002060:	681b      	ldr	r3, [r3, #0]
 8002062:	4a5e      	ldr	r2, [pc, #376]	; (80021dc <HAL_TIM_MspPostInit+0x1e0>)
 8002064:	4293      	cmp	r3, r2
 8002066:	d11e      	bne.n	80020a6 <HAL_TIM_MspPostInit+0xaa>
    __HAL_RCC_GPIOA_CLK_ENABLE();
 8002068:	2300      	movs	r3, #0
 800206a:	61fb      	str	r3, [r7, #28]
 800206c:	4b59      	ldr	r3, [pc, #356]	; (80021d4 <HAL_TIM_MspPostInit+0x1d8>)
 800206e:	6b1b      	ldr	r3, [r3, #48]	; 0x30
 8002070:	4a58      	ldr	r2, [pc, #352]	; (80021d4 <HAL_TIM_MspPostInit+0x1d8>)
 8002072:	f043 0301 	orr.w	r3, r3, #1
 8002076:	6313      	str	r3, [r2, #48]	; 0x30
 8002078:	4b56      	ldr	r3, [pc, #344]	; (80021d4 <HAL_TIM_MspPostInit+0x1d8>)
 800207a:	6b1b      	ldr	r3, [r3, #48]	; 0x30
 800207c:	f003 0301 	and.w	r3, r3, #1
 8002080:	61fb      	str	r3, [r7, #28]
 8002082:	69fb      	ldr	r3, [r7, #28]
    GPIO_InitStruct.Pin = GPIO_PIN_6;
 8002084:	2340      	movs	r3, #64	; 0x40
 8002086:	627b      	str	r3, [r7, #36]	; 0x24
    GPIO_InitStruct.Mode = GPIO_MODE_AF_PP;
 8002088:	2302      	movs	r3, #2
 800208a:	62bb      	str	r3, [r7, #40]	; 0x28
    GPIO_InitStruct.Pull = GPIO_NOPULL;
 800208c:	2300      	movs	r3, #0
 800208e:	62fb      	str	r3, [r7, #44]	; 0x2c
    GPIO_InitStruct.Speed = GPIO_SPEED_FREQ_LOW;
 8002090:	2300      	movs	r3, #0
 8002092:	633b      	str	r3, [r7, #48]	; 0x30
    GPIO_InitStruct.Alternate = GPIO_AF2_TIM3;
 8002094:	2302      	movs	r3, #2
 8002096:	637b      	str	r3, [r7, #52]	; 0x34
    HAL_GPIO_Init(GPIOA, &GPIO_InitStruct);
 8002098:	f107 0324 	add.w	r3, r7, #36	; 0x24
 800209c:	4619      	mov	r1, r3
 800209e:	484e      	ldr	r0, [pc, #312]	; (80021d8 <HAL_TIM_MspPostInit+0x1dc>)
 80020a0:	f000 fbd2 	bl	8002848 <HAL_GPIO_Init>
}
 80020a4:	e08f      	b.n	80021c6 <HAL_TIM_MspPostInit+0x1ca>
  else if(htim->Instance==TIM4)
 80020a6:	687b      	ldr	r3, [r7, #4]
 80020a8:	681b      	ldr	r3, [r3, #0]
 80020aa:	4a4d      	ldr	r2, [pc, #308]	; (80021e0 <HAL_TIM_MspPostInit+0x1e4>)
 80020ac:	4293      	cmp	r3, r2
 80020ae:	d11e      	bne.n	80020ee <HAL_TIM_MspPostInit+0xf2>
    __HAL_RCC_GPIOB_CLK_ENABLE();
 80020b0:	2300      	movs	r3, #0
 80020b2:	61bb      	str	r3, [r7, #24]
 80020b4:	4b47      	ldr	r3, [pc, #284]	; (80021d4 <HAL_TIM_MspPostInit+0x1d8>)
 80020b6:	6b1b      	ldr	r3, [r3, #48]	; 0x30
 80020b8:	4a46      	ldr	r2, [pc, #280]	; (80021d4 <HAL_TIM_MspPostInit+0x1d8>)
 80020ba:	f043 0302 	orr.w	r3, r3, #2
 80020be:	6313      	str	r3, [r2, #48]	; 0x30
 80020c0:	4b44      	ldr	r3, [pc, #272]	; (80021d4 <HAL_TIM_MspPostInit+0x1d8>)
 80020c2:	6b1b      	ldr	r3, [r3, #48]	; 0x30
 80020c4:	f003 0302 	and.w	r3, r3, #2
 80020c8:	61bb      	str	r3, [r7, #24]
 80020ca:	69bb      	ldr	r3, [r7, #24]
    GPIO_InitStruct.Pin = GPIO_PIN_6;
 80020cc:	2340      	movs	r3, #64	; 0x40
 80020ce:	627b      	str	r3, [r7, #36]	; 0x24
    GPIO_InitStruct.Mode = GPIO_MODE_AF_PP;
 80020d0:	2302      	movs	r3, #2
 80020d2:	62bb      	str	r3, [r7, #40]	; 0x28
    GPIO_InitStruct.Pull = GPIO_NOPULL;
 80020d4:	2300      	movs	r3, #0
 80020d6:	62fb      	str	r3, [r7, #44]	; 0x2c
    GPIO_InitStruct.Speed = GPIO_SPEED_FREQ_LOW;
 80020d8:	2300      	movs	r3, #0
 80020da:	633b      	str	r3, [r7, #48]	; 0x30
    GPIO_InitStruct.Alternate = GPIO_AF2_TIM4;
 80020dc:	2302      	movs	r3, #2
 80020de:	637b      	str	r3, [r7, #52]	; 0x34
    HAL_GPIO_Init(GPIOB, &GPIO_InitStruct);
 80020e0:	f107 0324 	add.w	r3, r7, #36	; 0x24
 80020e4:	4619      	mov	r1, r3
 80020e6:	483f      	ldr	r0, [pc, #252]	; (80021e4 <HAL_TIM_MspPostInit+0x1e8>)
 80020e8:	f000 fbae 	bl	8002848 <HAL_GPIO_Init>
}
 80020ec:	e06b      	b.n	80021c6 <HAL_TIM_MspPostInit+0x1ca>
  else if(htim->Instance==TIM5)
 80020ee:	687b      	ldr	r3, [r7, #4]
 80020f0:	681b      	ldr	r3, [r3, #0]
 80020f2:	4a3d      	ldr	r2, [pc, #244]	; (80021e8 <HAL_TIM_MspPostInit+0x1ec>)
 80020f4:	4293      	cmp	r3, r2
 80020f6:	d11e      	bne.n	8002136 <HAL_TIM_MspPostInit+0x13a>
    __HAL_RCC_GPIOA_CLK_ENABLE();
 80020f8:	2300      	movs	r3, #0
 80020fa:	617b      	str	r3, [r7, #20]
 80020fc:	4b35      	ldr	r3, [pc, #212]	; (80021d4 <HAL_TIM_MspPostInit+0x1d8>)
 80020fe:	6b1b      	ldr	r3, [r3, #48]	; 0x30
 8002100:	4a34      	ldr	r2, [pc, #208]	; (80021d4 <HAL_TIM_MspPostInit+0x1d8>)
 8002102:	f043 0301 	orr.w	r3, r3, #1
 8002106:	6313      	str	r3, [r2, #48]	; 0x30
 8002108:	4b32      	ldr	r3, [pc, #200]	; (80021d4 <HAL_TIM_MspPostInit+0x1d8>)
 800210a:	6b1b      	ldr	r3, [r3, #48]	; 0x30
 800210c:	f003 0301 	and.w	r3, r3, #1
 8002110:	617b      	str	r3, [r7, #20]
 8002112:	697b      	ldr	r3, [r7, #20]
    GPIO_InitStruct.Pin = GPIO_PIN_0;
 8002114:	2301      	movs	r3, #1
 8002116:	627b      	str	r3, [r7, #36]	; 0x24
    GPIO_InitStruct.Mode = GPIO_MODE_AF_PP;
 8002118:	2302      	movs	r3, #2
 800211a:	62bb      	str	r3, [r7, #40]	; 0x28
    GPIO_InitStruct.Pull = GPIO_NOPULL;
 800211c:	2300      	movs	r3, #0
 800211e:	62fb      	str	r3, [r7, #44]	; 0x2c
    GPIO_InitStruct.Speed = GPIO_SPEED_FREQ_LOW;
 8002120:	2300      	movs	r3, #0
 8002122:	633b      	str	r3, [r7, #48]	; 0x30
    GPIO_InitStruct.Alternate = GPIO_AF2_TIM5;
 8002124:	2302      	movs	r3, #2
 8002126:	637b      	str	r3, [r7, #52]	; 0x34
    HAL_GPIO_Init(GPIOA, &GPIO_InitStruct);
 8002128:	f107 0324 	add.w	r3, r7, #36	; 0x24
 800212c:	4619      	mov	r1, r3
 800212e:	482a      	ldr	r0, [pc, #168]	; (80021d8 <HAL_TIM_MspPostInit+0x1dc>)
 8002130:	f000 fb8a 	bl	8002848 <HAL_GPIO_Init>
}
 8002134:	e047      	b.n	80021c6 <HAL_TIM_MspPostInit+0x1ca>
  else if(htim->Instance==TIM8)
 8002136:	687b      	ldr	r3, [r7, #4]
 8002138:	681b      	ldr	r3, [r3, #0]
 800213a:	4a2c      	ldr	r2, [pc, #176]	; (80021ec <HAL_TIM_MspPostInit+0x1f0>)
 800213c:	4293      	cmp	r3, r2
 800213e:	d11e      	bne.n	800217e <HAL_TIM_MspPostInit+0x182>
    __HAL_RCC_GPIOC_CLK_ENABLE();
 8002140:	2300      	movs	r3, #0
 8002142:	613b      	str	r3, [r7, #16]
 8002144:	4b23      	ldr	r3, [pc, #140]	; (80021d4 <HAL_TIM_MspPostInit+0x1d8>)
 8002146:	6b1b      	ldr	r3, [r3, #48]	; 0x30
 8002148:	4a22      	ldr	r2, [pc, #136]	; (80021d4 <HAL_TIM_MspPostInit+0x1d8>)
 800214a:	f043 0304 	orr.w	r3, r3, #4
 800214e:	6313      	str	r3, [r2, #48]	; 0x30
 8002150:	4b20      	ldr	r3, [pc, #128]	; (80021d4 <HAL_TIM_MspPostInit+0x1d8>)
 8002152:	6b1b      	ldr	r3, [r3, #48]	; 0x30
 8002154:	f003 0304 	and.w	r3, r3, #4
 8002158:	613b      	str	r3, [r7, #16]
 800215a:	693b      	ldr	r3, [r7, #16]
    GPIO_InitStruct.Pin = GPIO_PIN_6;
 800215c:	2340      	movs	r3, #64	; 0x40
 800215e:	627b      	str	r3, [r7, #36]	; 0x24
    GPIO_InitStruct.Mode = GPIO_MODE_AF_PP;
 8002160:	2302      	movs	r3, #2
 8002162:	62bb      	str	r3, [r7, #40]	; 0x28
    GPIO_InitStruct.Pull = GPIO_NOPULL;
 8002164:	2300      	movs	r3, #0
 8002166:	62fb      	str	r3, [r7, #44]	; 0x2c
    GPIO_InitStruct.Speed = GPIO_SPEED_FREQ_LOW;
 8002168:	2300      	movs	r3, #0
 800216a:	633b      	str	r3, [r7, #48]	; 0x30
    GPIO_InitStruct.Alternate = GPIO_AF3_TIM8;
 800216c:	2303      	movs	r3, #3
 800216e:	637b      	str	r3, [r7, #52]	; 0x34
    HAL_GPIO_Init(GPIOC, &GPIO_InitStruct);
 8002170:	f107 0324 	add.w	r3, r7, #36	; 0x24
 8002174:	4619      	mov	r1, r3
 8002176:	481e      	ldr	r0, [pc, #120]	; (80021f0 <HAL_TIM_MspPostInit+0x1f4>)
 8002178:	f000 fb66 	bl	8002848 <HAL_GPIO_Init>
}
 800217c:	e023      	b.n	80021c6 <HAL_TIM_MspPostInit+0x1ca>
  else if(htim->Instance==TIM12)
 800217e:	687b      	ldr	r3, [r7, #4]
 8002180:	681b      	ldr	r3, [r3, #0]
 8002182:	4a1c      	ldr	r2, [pc, #112]	; (80021f4 <HAL_TIM_MspPostInit+0x1f8>)
 8002184:	4293      	cmp	r3, r2
 8002186:	d11e      	bne.n	80021c6 <HAL_TIM_MspPostInit+0x1ca>
    __HAL_RCC_GPIOB_CLK_ENABLE();
 8002188:	2300      	movs	r3, #0
 800218a:	60fb      	str	r3, [r7, #12]
 800218c:	4b11      	ldr	r3, [pc, #68]	; (80021d4 <HAL_TIM_MspPostInit+0x1d8>)
 800218e:	6b1b      	ldr	r3, [r3, #48]	; 0x30
 8002190:	4a10      	ldr	r2, [pc, #64]	; (80021d4 <HAL_TIM_MspPostInit+0x1d8>)
 8002192:	f043 0302 	orr.w	r3, r3, #2
 8002196:	6313      	str	r3, [r2, #48]	; 0x30
 8002198:	4b0e      	ldr	r3, [pc, #56]	; (80021d4 <HAL_TIM_MspPostInit+0x1d8>)
 800219a:	6b1b      	ldr	r3, [r3, #48]	; 0x30
 800219c:	f003 0302 	and.w	r3, r3, #2
 80021a0:	60fb      	str	r3, [r7, #12]
 80021a2:	68fb      	ldr	r3, [r7, #12]
    GPIO_InitStruct.Pin = GPIO_PIN_14;
 80021a4:	f44f 4380 	mov.w	r3, #16384	; 0x4000
 80021a8:	627b      	str	r3, [r7, #36]	; 0x24
    GPIO_InitStruct.Mode = GPIO_MODE_AF_PP;
 80021aa:	2302      	movs	r3, #2
 80021ac:	62bb      	str	r3, [r7, #40]	; 0x28
    GPIO_InitStruct.Pull = GPIO_NOPULL;
 80021ae:	2300      	movs	r3, #0
 80021b0:	62fb      	str	r3, [r7, #44]	; 0x2c
    GPIO_InitStruct.Speed = GPIO_SPEED_FREQ_LOW;
 80021b2:	2300      	movs	r3, #0
 80021b4:	633b      	str	r3, [r7, #48]	; 0x30
    GPIO_InitStruct.Alternate = GPIO_AF9_TIM12;
 80021b6:	2309      	movs	r3, #9
 80021b8:	637b      	str	r3, [r7, #52]	; 0x34
    HAL_GPIO_Init(GPIOB, &GPIO_InitStruct);
 80021ba:	f107 0324 	add.w	r3, r7, #36	; 0x24
 80021be:	4619      	mov	r1, r3
 80021c0:	4808      	ldr	r0, [pc, #32]	; (80021e4 <HAL_TIM_MspPostInit+0x1e8>)
 80021c2:	f000 fb41 	bl	8002848 <HAL_GPIO_Init>
}
 80021c6:	bf00      	nop
 80021c8:	3738      	adds	r7, #56	; 0x38
 80021ca:	46bd      	mov	sp, r7
 80021cc:	bd80      	pop	{r7, pc}
 80021ce:	bf00      	nop
 80021d0:	40010000 	.word	0x40010000
 80021d4:	40023800 	.word	0x40023800
 80021d8:	40020000 	.word	0x40020000
 80021dc:	40000400 	.word	0x40000400
 80021e0:	40000800 	.word	0x40000800
 80021e4:	40020400 	.word	0x40020400
 80021e8:	40000c00 	.word	0x40000c00
 80021ec:	40010400 	.word	0x40010400
 80021f0:	40020800 	.word	0x40020800
 80021f4:	40001800 	.word	0x40001800

080021f8 <HAL_UART_MspInit>:
* This function configures the hardware resources used in this example
* @param huart: UART handle pointer
* @retval None
*/
void HAL_UART_MspInit(UART_HandleTypeDef* huart)
{
 80021f8:	b580      	push	{r7, lr}
 80021fa:	b08a      	sub	sp, #40	; 0x28
 80021fc:	af00      	add	r7, sp, #0
 80021fe:	6078      	str	r0, [r7, #4]
  GPIO_InitTypeDef GPIO_InitStruct = {0};
 8002200:	f107 0314 	add.w	r3, r7, #20
 8002204:	2200      	movs	r2, #0
 8002206:	601a      	str	r2, [r3, #0]
 8002208:	605a      	str	r2, [r3, #4]
 800220a:	609a      	str	r2, [r3, #8]
 800220c:	60da      	str	r2, [r3, #12]
 800220e:	611a      	str	r2, [r3, #16]
  if(huart->Instance==USART2)
 8002210:	687b      	ldr	r3, [r7, #4]
 8002212:	681b      	ldr	r3, [r3, #0]
 8002214:	4a19      	ldr	r2, [pc, #100]	; (800227c <HAL_UART_MspInit+0x84>)
 8002216:	4293      	cmp	r3, r2
 8002218:	d12b      	bne.n	8002272 <HAL_UART_MspInit+0x7a>
  {
  /* USER CODE BEGIN USART2_MspInit 0 */

  /* USER CODE END USART2_MspInit 0 */
    /* Peripheral clock enable */
    __HAL_RCC_USART2_CLK_ENABLE();
 800221a:	2300      	movs	r3, #0
 800221c:	613b      	str	r3, [r7, #16]
 800221e:	4b18      	ldr	r3, [pc, #96]	; (8002280 <HAL_UART_MspInit+0x88>)
 8002220:	6c1b      	ldr	r3, [r3, #64]	; 0x40
 8002222:	4a17      	ldr	r2, [pc, #92]	; (8002280 <HAL_UART_MspInit+0x88>)
 8002224:	f443 3300 	orr.w	r3, r3, #131072	; 0x20000
 8002228:	6413      	str	r3, [r2, #64]	; 0x40
 800222a:	4b15      	ldr	r3, [pc, #84]	; (8002280 <HAL_UART_MspInit+0x88>)
 800222c:	6c1b      	ldr	r3, [r3, #64]	; 0x40
 800222e:	f403 3300 	and.w	r3, r3, #131072	; 0x20000
 8002232:	613b      	str	r3, [r7, #16]
 8002234:	693b      	ldr	r3, [r7, #16]

    __HAL_RCC_GPIOA_CLK_ENABLE();
 8002236:	2300      	movs	r3, #0
 8002238:	60fb      	str	r3, [r7, #12]
 800223a:	4b11      	ldr	r3, [pc, #68]	; (8002280 <HAL_UART_MspInit+0x88>)
 800223c:	6b1b      	ldr	r3, [r3, #48]	; 0x30
 800223e:	4a10      	ldr	r2, [pc, #64]	; (8002280 <HAL_UART_MspInit+0x88>)
 8002240:	f043 0301 	orr.w	r3, r3, #1
 8002244:	6313      	str	r3, [r2, #48]	; 0x30
 8002246:	4b0e      	ldr	r3, [pc, #56]	; (8002280 <HAL_UART_MspInit+0x88>)
 8002248:	6b1b      	ldr	r3, [r3, #48]	; 0x30
 800224a:	f003 0301 	and.w	r3, r3, #1
 800224e:	60fb      	str	r3, [r7, #12]
 8002250:	68fb      	ldr	r3, [r7, #12]
    /**USART2 GPIO Configuration
    PA2     ------> USART2_TX
    PA3     ------> USART2_RX
    */
    GPIO_InitStruct.Pin = USART_TX_Pin|USART_RX_Pin;
 8002252:	230c      	movs	r3, #12
 8002254:	617b      	str	r3, [r7, #20]
    GPIO_InitStruct.Mode = GPIO_MODE_AF_PP;
 8002256:	2302      	movs	r3, #2
 8002258:	61bb      	str	r3, [r7, #24]
    GPIO_InitStruct.Pull = GPIO_NOPULL;
 800225a:	2300      	movs	r3, #0
 800225c:	61fb      	str	r3, [r7, #28]
    GPIO_InitStruct.Speed = GPIO_SPEED_FREQ_VERY_HIGH;
 800225e:	2303      	movs	r3, #3
 8002260:	623b      	str	r3, [r7, #32]
    GPIO_InitStruct.Alternate = GPIO_AF7_USART2;
 8002262:	2307      	movs	r3, #7
 8002264:	627b      	str	r3, [r7, #36]	; 0x24
    HAL_GPIO_Init(GPIOA, &GPIO_InitStruct);
 8002266:	f107 0314 	add.w	r3, r7, #20
 800226a:	4619      	mov	r1, r3
 800226c:	4805      	ldr	r0, [pc, #20]	; (8002284 <HAL_UART_MspInit+0x8c>)
 800226e:	f000 faeb 	bl	8002848 <HAL_GPIO_Init>
  /* USER CODE BEGIN USART2_MspInit 1 */

  /* USER CODE END USART2_MspInit 1 */
  }

}
 8002272:	bf00      	nop
 8002274:	3728      	adds	r7, #40	; 0x28
 8002276:	46bd      	mov	sp, r7
 8002278:	bd80      	pop	{r7, pc}
 800227a:	bf00      	nop
 800227c:	40004400 	.word	0x40004400
 8002280:	40023800 	.word	0x40023800
 8002284:	40020000 	.word	0x40020000

08002288 <NMI_Handler>:
/******************************************************************************/
/**
  * @brief This function handles Non maskable interrupt.
  */
void NMI_Handler(void)
{
 8002288:	b480      	push	{r7}
 800228a:	af00      	add	r7, sp, #0
  /* USER CODE BEGIN NonMaskableInt_IRQn 0 */

  /* USER CODE END NonMaskableInt_IRQn 0 */
  /* USER CODE BEGIN NonMaskableInt_IRQn 1 */
  while (1)
 800228c:	e7fe      	b.n	800228c <NMI_Handler+0x4>

0800228e <HardFault_Handler>:

/**
  * @brief This function handles Hard fault interrupt.
  */
void HardFault_Handler(void)
{
 800228e:	b480      	push	{r7}
 8002290:	af00      	add	r7, sp, #0
  /* USER CODE BEGIN HardFault_IRQn 0 */

  /* USER CODE END HardFault_IRQn 0 */
  while (1)
 8002292:	e7fe      	b.n	8002292 <HardFault_Handler+0x4>

08002294 <MemManage_Handler>:

/**
  * @brief This function handles Memory management fault.
  */
void MemManage_Handler(void)
{
 8002294:	b480      	push	{r7}
 8002296:	af00      	add	r7, sp, #0
  /* USER CODE BEGIN MemoryManagement_IRQn 0 */

  /* USER CODE END MemoryManagement_IRQn 0 */
  while (1)
 8002298:	e7fe      	b.n	8002298 <MemManage_Handler+0x4>

0800229a <BusFault_Handler>:

/**
  * @brief This function handles Pre-fetch fault, memory access fault.
  */
void BusFault_Handler(void)
{
 800229a:	b480      	push	{r7}
 800229c:	af00      	add	r7, sp, #0
  /* USER CODE BEGIN BusFault_IRQn 0 */

  /* USER CODE END BusFault_IRQn 0 */
  while (1)
 800229e:	e7fe      	b.n	800229e <BusFault_Handler+0x4>

080022a0 <UsageFault_Handler>:

/**
  * @brief This function handles Undefined instruction or illegal state.
  */
void UsageFault_Handler(void)
{
 80022a0:	b480      	push	{r7}
 80022a2:	af00      	add	r7, sp, #0
  /* USER CODE BEGIN UsageFault_IRQn 0 */

  /* USER CODE END UsageFault_IRQn 0 */
  while (1)
 80022a4:	e7fe      	b.n	80022a4 <UsageFault_Handler+0x4>

080022a6 <SVC_Handler>:

/**
  * @brief This function handles System service call via SWI instruction.
  */
void SVC_Handler(void)
{
 80022a6:	b480      	push	{r7}
 80022a8:	af00      	add	r7, sp, #0

  /* USER CODE END SVCall_IRQn 0 */
  /* USER CODE BEGIN SVCall_IRQn 1 */

  /* USER CODE END SVCall_IRQn 1 */
}
 80022aa:	bf00      	nop
 80022ac:	46bd      	mov	sp, r7
 80022ae:	f85d 7b04 	ldr.w	r7, [sp], #4
 80022b2:	4770      	bx	lr

080022b4 <DebugMon_Handler>:

/**
  * @brief This function handles Debug monitor.
  */
void DebugMon_Handler(void)
{
 80022b4:	b480      	push	{r7}
 80022b6:	af00      	add	r7, sp, #0

  /* USER CODE END DebugMonitor_IRQn 0 */
  /* USER CODE BEGIN DebugMonitor_IRQn 1 */

  /* USER CODE END DebugMonitor_IRQn 1 */
}
 80022b8:	bf00      	nop
 80022ba:	46bd      	mov	sp, r7
 80022bc:	f85d 7b04 	ldr.w	r7, [sp], #4
 80022c0:	4770      	bx	lr

080022c2 <PendSV_Handler>:

/**
  * @brief This function handles Pendable request for system service.
  */
void PendSV_Handler(void)
{
 80022c2:	b480      	push	{r7}
 80022c4:	af00      	add	r7, sp, #0

  /* USER CODE END PendSV_IRQn 0 */
  /* USER CODE BEGIN PendSV_IRQn 1 */

  /* USER CODE END PendSV_IRQn 1 */
}
 80022c6:	bf00      	nop
 80022c8:	46bd      	mov	sp, r7
 80022ca:	f85d 7b04 	ldr.w	r7, [sp], #4
 80022ce:	4770      	bx	lr

080022d0 <SysTick_Handler>:

/**
  * @brief This function handles System tick timer.
  */
void SysTick_Handler(void)
{
 80022d0:	b580      	push	{r7, lr}
 80022d2:	af00      	add	r7, sp, #0
  /* USER CODE BEGIN SysTick_IRQn 0 */

  /* USER CODE END SysTick_IRQn 0 */
  HAL_IncTick();
 80022d4:	f000 f962 	bl	800259c <HAL_IncTick>
  /* USER CODE BEGIN SysTick_IRQn 1 */
  SysTick_CallBack();
 80022d8:	f7ff fd20 	bl	8001d1c <SysTick_CallBack>
  /* USER CODE END SysTick_IRQn 1 */
}
 80022dc:	bf00      	nop
 80022de:	bd80      	pop	{r7, pc}

080022e0 <TIM2_IRQHandler>:

/**
  * @brief This function handles TIM2 global interrupt.
  */
void TIM2_IRQHandler(void)
{
 80022e0:	b580      	push	{r7, lr}
 80022e2:	af00      	add	r7, sp, #0
  /* USER CODE BEGIN TIM2_IRQn 0 */

  /* USER CODE END TIM2_IRQn 0 */
  HAL_TIM_IRQHandler(&htim2);
 80022e4:	4802      	ldr	r0, [pc, #8]	; (80022f0 <TIM2_IRQHandler+0x10>)
 80022e6:	f001 fd21 	bl	8003d2c <HAL_TIM_IRQHandler>
  /* USER CODE BEGIN TIM2_IRQn 1 */

  /* USER CODE END TIM2_IRQn 1 */
}
 80022ea:	bf00      	nop
 80022ec:	bd80      	pop	{r7, pc}
 80022ee:	bf00      	nop
 80022f0:	20000460 	.word	0x20000460

080022f4 <_getpid>:
void initialise_monitor_handles()
{
}

int _getpid(void)
{
 80022f4:	b480      	push	{r7}
 80022f6:	af00      	add	r7, sp, #0
	return 1;
 80022f8:	2301      	movs	r3, #1
}
 80022fa:	4618      	mov	r0, r3
 80022fc:	46bd      	mov	sp, r7
 80022fe:	f85d 7b04 	ldr.w	r7, [sp], #4
 8002302:	4770      	bx	lr

08002304 <_kill>:

int _kill(int pid, int sig)
{
 8002304:	b580      	push	{r7, lr}
 8002306:	b082      	sub	sp, #8
 8002308:	af00      	add	r7, sp, #0
 800230a:	6078      	str	r0, [r7, #4]
 800230c:	6039      	str	r1, [r7, #0]
	errno = EINVAL;
 800230e:	f003 fde9 	bl	8005ee4 <__errno>
 8002312:	4603      	mov	r3, r0
 8002314:	2216      	movs	r2, #22
 8002316:	601a      	str	r2, [r3, #0]
	return -1;
 8002318:	f04f 33ff 	mov.w	r3, #4294967295	; 0xffffffff
}
 800231c:	4618      	mov	r0, r3
 800231e:	3708      	adds	r7, #8
 8002320:	46bd      	mov	sp, r7
 8002322:	bd80      	pop	{r7, pc}

08002324 <_exit>:

void _exit (int status)
{
 8002324:	b580      	push	{r7, lr}
 8002326:	b082      	sub	sp, #8
 8002328:	af00      	add	r7, sp, #0
 800232a:	6078      	str	r0, [r7, #4]
	_kill(status, -1);
 800232c:	f04f 31ff 	mov.w	r1, #4294967295	; 0xffffffff
 8002330:	6878      	ldr	r0, [r7, #4]
 8002332:	f7ff ffe7 	bl	8002304 <_kill>
	while (1) {}		/* Make sure we hang here */
 8002336:	e7fe      	b.n	8002336 <_exit+0x12>

08002338 <_read>:
}

__attribute__((weak)) int _read(int file, char *ptr, int len)
{
 8002338:	b580      	push	{r7, lr}
 800233a:	b086      	sub	sp, #24
 800233c:	af00      	add	r7, sp, #0
 800233e:	60f8      	str	r0, [r7, #12]
 8002340:	60b9      	str	r1, [r7, #8]
 8002342:	607a      	str	r2, [r7, #4]
	int DataIdx;

	for (DataIdx = 0; DataIdx < len; DataIdx++)
 8002344:	2300      	movs	r3, #0
 8002346:	617b      	str	r3, [r7, #20]
 8002348:	e00a      	b.n	8002360 <_read+0x28>
	{
		*ptr++ = __io_getchar();
 800234a:	f3af 8000 	nop.w
 800234e:	4601      	mov	r1, r0
 8002350:	68bb      	ldr	r3, [r7, #8]
 8002352:	1c5a      	adds	r2, r3, #1
 8002354:	60ba      	str	r2, [r7, #8]
 8002356:	b2ca      	uxtb	r2, r1
 8002358:	701a      	strb	r2, [r3, #0]
	for (DataIdx = 0; DataIdx < len; DataIdx++)
 800235a:	697b      	ldr	r3, [r7, #20]
 800235c:	3301      	adds	r3, #1
 800235e:	617b      	str	r3, [r7, #20]
 8002360:	697a      	ldr	r2, [r7, #20]
 8002362:	687b      	ldr	r3, [r7, #4]
 8002364:	429a      	cmp	r2, r3
 8002366:	dbf0      	blt.n	800234a <_read+0x12>
	}

return len;
 8002368:	687b      	ldr	r3, [r7, #4]
}
 800236a:	4618      	mov	r0, r3
 800236c:	3718      	adds	r7, #24
 800236e:	46bd      	mov	sp, r7
 8002370:	bd80      	pop	{r7, pc}

08002372 <_write>:

__attribute__((weak)) int _write(int file, char *ptr, int len)
{
 8002372:	b580      	push	{r7, lr}
 8002374:	b086      	sub	sp, #24
 8002376:	af00      	add	r7, sp, #0
 8002378:	60f8      	str	r0, [r7, #12]
 800237a:	60b9      	str	r1, [r7, #8]
 800237c:	607a      	str	r2, [r7, #4]
	int DataIdx;

	for (DataIdx = 0; DataIdx < len; DataIdx++)
 800237e:	2300      	movs	r3, #0
 8002380:	617b      	str	r3, [r7, #20]
 8002382:	e009      	b.n	8002398 <_write+0x26>
	{
		__io_putchar(*ptr++);
 8002384:	68bb      	ldr	r3, [r7, #8]
 8002386:	1c5a      	adds	r2, r3, #1
 8002388:	60ba      	str	r2, [r7, #8]
 800238a:	781b      	ldrb	r3, [r3, #0]
 800238c:	4618      	mov	r0, r3
 800238e:	f3af 8000 	nop.w
	for (DataIdx = 0; DataIdx < len; DataIdx++)
 8002392:	697b      	ldr	r3, [r7, #20]
 8002394:	3301      	adds	r3, #1
 8002396:	617b      	str	r3, [r7, #20]
 8002398:	697a      	ldr	r2, [r7, #20]
 800239a:	687b      	ldr	r3, [r7, #4]
 800239c:	429a      	cmp	r2, r3
 800239e:	dbf1      	blt.n	8002384 <_write+0x12>
	}
	return len;
 80023a0:	687b      	ldr	r3, [r7, #4]
}
 80023a2:	4618      	mov	r0, r3
 80023a4:	3718      	adds	r7, #24
 80023a6:	46bd      	mov	sp, r7
 80023a8:	bd80      	pop	{r7, pc}

080023aa <_close>:

int _close(int file)
{
 80023aa:	b480      	push	{r7}
 80023ac:	b083      	sub	sp, #12
 80023ae:	af00      	add	r7, sp, #0
 80023b0:	6078      	str	r0, [r7, #4]
	return -1;
 80023b2:	f04f 33ff 	mov.w	r3, #4294967295	; 0xffffffff
}
 80023b6:	4618      	mov	r0, r3
 80023b8:	370c      	adds	r7, #12
 80023ba:	46bd      	mov	sp, r7
 80023bc:	f85d 7b04 	ldr.w	r7, [sp], #4
 80023c0:	4770      	bx	lr

080023c2 <_fstat>:


int _fstat(int file, struct stat *st)
{
 80023c2:	b480      	push	{r7}
 80023c4:	b083      	sub	sp, #12
 80023c6:	af00      	add	r7, sp, #0
 80023c8:	6078      	str	r0, [r7, #4]
 80023ca:	6039      	str	r1, [r7, #0]
	st->st_mode = S_IFCHR;
 80023cc:	683b      	ldr	r3, [r7, #0]
 80023ce:	f44f 5200 	mov.w	r2, #8192	; 0x2000
 80023d2:	605a      	str	r2, [r3, #4]
	return 0;
 80023d4:	2300      	movs	r3, #0
}
 80023d6:	4618      	mov	r0, r3
 80023d8:	370c      	adds	r7, #12
 80023da:	46bd      	mov	sp, r7
 80023dc:	f85d 7b04 	ldr.w	r7, [sp], #4
 80023e0:	4770      	bx	lr

080023e2 <_isatty>:

int _isatty(int file)
{
 80023e2:	b480      	push	{r7}
 80023e4:	b083      	sub	sp, #12
 80023e6:	af00      	add	r7, sp, #0
 80023e8:	6078      	str	r0, [r7, #4]
	return 1;
 80023ea:	2301      	movs	r3, #1
}
 80023ec:	4618      	mov	r0, r3
 80023ee:	370c      	adds	r7, #12
 80023f0:	46bd      	mov	sp, r7
 80023f2:	f85d 7b04 	ldr.w	r7, [sp], #4
 80023f6:	4770      	bx	lr

080023f8 <_lseek>:

int _lseek(int file, int ptr, int dir)
{
 80023f8:	b480      	push	{r7}
 80023fa:	b085      	sub	sp, #20
 80023fc:	af00      	add	r7, sp, #0
 80023fe:	60f8      	str	r0, [r7, #12]
 8002400:	60b9      	str	r1, [r7, #8]
 8002402:	607a      	str	r2, [r7, #4]
	return 0;
 8002404:	2300      	movs	r3, #0
}
 8002406:	4618      	mov	r0, r3
 8002408:	3714      	adds	r7, #20
 800240a:	46bd      	mov	sp, r7
 800240c:	f85d 7b04 	ldr.w	r7, [sp], #4
 8002410:	4770      	bx	lr
	...

08002414 <_sbrk>:
 *
 * @param incr Memory size
 * @return Pointer to allocated memory
 */
void *_sbrk(ptrdiff_t incr)
{
 8002414:	b580      	push	{r7, lr}
 8002416:	b086      	sub	sp, #24
 8002418:	af00      	add	r7, sp, #0
 800241a:	6078      	str	r0, [r7, #4]
  extern uint8_t _end; /* Symbol defined in the linker script */
  extern uint8_t _estack; /* Symbol defined in the linker script */
  extern uint32_t _Min_Stack_Size; /* Symbol defined in the linker script */
  const uint32_t stack_limit = (uint32_t)&_estack - (uint32_t)&_Min_Stack_Size;
 800241c:	4a14      	ldr	r2, [pc, #80]	; (8002470 <_sbrk+0x5c>)
 800241e:	4b15      	ldr	r3, [pc, #84]	; (8002474 <_sbrk+0x60>)
 8002420:	1ad3      	subs	r3, r2, r3
 8002422:	617b      	str	r3, [r7, #20]
  const uint8_t *max_heap = (uint8_t *)stack_limit;
 8002424:	697b      	ldr	r3, [r7, #20]
 8002426:	613b      	str	r3, [r7, #16]
  uint8_t *prev_heap_end;

  /* Initialize heap end at first call */
  if (NULL == __sbrk_heap_end)
 8002428:	4b13      	ldr	r3, [pc, #76]	; (8002478 <_sbrk+0x64>)
 800242a:	681b      	ldr	r3, [r3, #0]
 800242c:	2b00      	cmp	r3, #0
 800242e:	d102      	bne.n	8002436 <_sbrk+0x22>
  {
    __sbrk_heap_end = &_end;
 8002430:	4b11      	ldr	r3, [pc, #68]	; (8002478 <_sbrk+0x64>)
 8002432:	4a12      	ldr	r2, [pc, #72]	; (800247c <_sbrk+0x68>)
 8002434:	601a      	str	r2, [r3, #0]
  }

  /* Protect heap from growing into the reserved MSP stack */
  if (__sbrk_heap_end + incr > max_heap)
 8002436:	4b10      	ldr	r3, [pc, #64]	; (8002478 <_sbrk+0x64>)
 8002438:	681a      	ldr	r2, [r3, #0]
 800243a:	687b      	ldr	r3, [r7, #4]
 800243c:	4413      	add	r3, r2
 800243e:	693a      	ldr	r2, [r7, #16]
 8002440:	429a      	cmp	r2, r3
 8002442:	d207      	bcs.n	8002454 <_sbrk+0x40>
  {
    errno = ENOMEM;
 8002444:	f003 fd4e 	bl	8005ee4 <__errno>
 8002448:	4603      	mov	r3, r0
 800244a:	220c      	movs	r2, #12
 800244c:	601a      	str	r2, [r3, #0]
    return (void *)-1;
 800244e:	f04f 33ff 	mov.w	r3, #4294967295	; 0xffffffff
 8002452:	e009      	b.n	8002468 <_sbrk+0x54>
  }

  prev_heap_end = __sbrk_heap_end;
 8002454:	4b08      	ldr	r3, [pc, #32]	; (8002478 <_sbrk+0x64>)
 8002456:	681b      	ldr	r3, [r3, #0]
 8002458:	60fb      	str	r3, [r7, #12]
  __sbrk_heap_end += incr;
 800245a:	4b07      	ldr	r3, [pc, #28]	; (8002478 <_sbrk+0x64>)
 800245c:	681a      	ldr	r2, [r3, #0]
 800245e:	687b      	ldr	r3, [r7, #4]
 8002460:	4413      	add	r3, r2
 8002462:	4a05      	ldr	r2, [pc, #20]	; (8002478 <_sbrk+0x64>)
 8002464:	6013      	str	r3, [r2, #0]

  return (void *)prev_heap_end;
 8002466:	68fb      	ldr	r3, [r7, #12]
}
 8002468:	4618      	mov	r0, r3
 800246a:	3718      	adds	r7, #24
 800246c:	46bd      	mov	sp, r7
 800246e:	bd80      	pop	{r7, pc}
 8002470:	20020000 	.word	0x20020000
 8002474:	00000400 	.word	0x00000400
 8002478:	20000224 	.word	0x20000224
 800247c:	20000560 	.word	0x20000560

08002480 <SystemInit>:
  *         configuration.
  * @param  None
  * @retval None
  */
void SystemInit(void)
{
 8002480:	b480      	push	{r7}
 8002482:	af00      	add	r7, sp, #0
  /* FPU settings ------------------------------------------------------------*/
  #if (__FPU_PRESENT == 1) && (__FPU_USED == 1)
    SCB->CPACR |= ((3UL << 10*2)|(3UL << 11*2));  /* set CP10 and CP11 Full Access */
 8002484:	4b06      	ldr	r3, [pc, #24]	; (80024a0 <SystemInit+0x20>)
 8002486:	f8d3 3088 	ldr.w	r3, [r3, #136]	; 0x88
 800248a:	4a05      	ldr	r2, [pc, #20]	; (80024a0 <SystemInit+0x20>)
 800248c:	f443 0370 	orr.w	r3, r3, #15728640	; 0xf00000
 8002490:	f8c2 3088 	str.w	r3, [r2, #136]	; 0x88

  /* Configure the Vector Table location -------------------------------------*/
#if defined(USER_VECT_TAB_ADDRESS)
  SCB->VTOR = VECT_TAB_BASE_ADDRESS | VECT_TAB_OFFSET; /* Vector Table Relocation in Internal SRAM */
#endif /* USER_VECT_TAB_ADDRESS */
}
 8002494:	bf00      	nop
 8002496:	46bd      	mov	sp, r7
 8002498:	f85d 7b04 	ldr.w	r7, [sp], #4
 800249c:	4770      	bx	lr
 800249e:	bf00      	nop
 80024a0:	e000ed00 	.word	0xe000ed00

080024a4 <Reset_Handler>:

    .section  .text.Reset_Handler
  .weak  Reset_Handler
  .type  Reset_Handler, %function
Reset_Handler:  
  ldr   sp, =_estack      /* set stack pointer */
 80024a4:	f8df d034 	ldr.w	sp, [pc, #52]	; 80024dc <LoopFillZerobss+0x12>

/* Copy the data segment initializers from flash to SRAM */  
  ldr r0, =_sdata
 80024a8:	480d      	ldr	r0, [pc, #52]	; (80024e0 <LoopFillZerobss+0x16>)
  ldr r1, =_edata
 80024aa:	490e      	ldr	r1, [pc, #56]	; (80024e4 <LoopFillZerobss+0x1a>)
  ldr r2, =_sidata
 80024ac:	4a0e      	ldr	r2, [pc, #56]	; (80024e8 <LoopFillZerobss+0x1e>)
  movs r3, #0
 80024ae:	2300      	movs	r3, #0
  b LoopCopyDataInit
 80024b0:	e002      	b.n	80024b8 <LoopCopyDataInit>

080024b2 <CopyDataInit>:

CopyDataInit:
  ldr r4, [r2, r3]
 80024b2:	58d4      	ldr	r4, [r2, r3]
  str r4, [r0, r3]
 80024b4:	50c4      	str	r4, [r0, r3]
  adds r3, r3, #4
 80024b6:	3304      	adds	r3, #4

080024b8 <LoopCopyDataInit>:

LoopCopyDataInit:
  adds r4, r0, r3
 80024b8:	18c4      	adds	r4, r0, r3
  cmp r4, r1
 80024ba:	428c      	cmp	r4, r1
  bcc CopyDataInit
 80024bc:	d3f9      	bcc.n	80024b2 <CopyDataInit>
  
/* Zero fill the bss segment. */
  ldr r2, =_sbss
 80024be:	4a0b      	ldr	r2, [pc, #44]	; (80024ec <LoopFillZerobss+0x22>)
  ldr r4, =_ebss
 80024c0:	4c0b      	ldr	r4, [pc, #44]	; (80024f0 <LoopFillZerobss+0x26>)
  movs r3, #0
 80024c2:	2300      	movs	r3, #0
  b LoopFillZerobss
 80024c4:	e001      	b.n	80024ca <LoopFillZerobss>

080024c6 <FillZerobss>:

FillZerobss:
  str  r3, [r2]
 80024c6:	6013      	str	r3, [r2, #0]
  adds r2, r2, #4
 80024c8:	3204      	adds	r2, #4

080024ca <LoopFillZerobss>:

LoopFillZerobss:
  cmp r2, r4
 80024ca:	42a2      	cmp	r2, r4
  bcc FillZerobss
 80024cc:	d3fb      	bcc.n	80024c6 <FillZerobss>

/* Call the clock system intitialization function.*/
  bl  SystemInit   
 80024ce:	f7ff ffd7 	bl	8002480 <SystemInit>
/* Call static constructors */
    bl __libc_init_array
 80024d2:	f003 fd0d 	bl	8005ef0 <__libc_init_array>
/* Call the application's entry point.*/
  bl  main
 80024d6:	f7fe ff35 	bl	8001344 <main>
  bx  lr    
 80024da:	4770      	bx	lr
  ldr   sp, =_estack      /* set stack pointer */
 80024dc:	20020000 	.word	0x20020000
  ldr r0, =_sdata
 80024e0:	20000000 	.word	0x20000000
  ldr r1, =_edata
 80024e4:	200001f8 	.word	0x200001f8
  ldr r2, =_sidata
 80024e8:	08009124 	.word	0x08009124
  ldr r2, =_sbss
 80024ec:	200001f8 	.word	0x200001f8
  ldr r4, =_ebss
 80024f0:	2000055c 	.word	0x2000055c

080024f4 <ADC_IRQHandler>:
 * @retval None       
*/
    .section  .text.Default_Handler,"ax",%progbits
Default_Handler:
Infinite_Loop:
  b  Infinite_Loop
 80024f4:	e7fe      	b.n	80024f4 <ADC_IRQHandler>
	...

080024f8 <HAL_Init>:
  *         need to ensure that the SysTick time base is always set to 1 millisecond
  *         to have correct HAL operation.
  * @retval HAL status
  */
HAL_StatusTypeDef HAL_Init(void)
{
 80024f8:	b580      	push	{r7, lr}
 80024fa:	af00      	add	r7, sp, #0
  /* Configure Flash prefetch, Instruction cache, Data cache */ 
#if (INSTRUCTION_CACHE_ENABLE != 0U)
  __HAL_FLASH_INSTRUCTION_CACHE_ENABLE();
 80024fc:	4b0e      	ldr	r3, [pc, #56]	; (8002538 <HAL_Init+0x40>)
 80024fe:	681b      	ldr	r3, [r3, #0]
 8002500:	4a0d      	ldr	r2, [pc, #52]	; (8002538 <HAL_Init+0x40>)
 8002502:	f443 7300 	orr.w	r3, r3, #512	; 0x200
 8002506:	6013      	str	r3, [r2, #0]
#endif /* INSTRUCTION_CACHE_ENABLE */

#if (DATA_CACHE_ENABLE != 0U)
  __HAL_FLASH_DATA_CACHE_ENABLE();
 8002508:	4b0b      	ldr	r3, [pc, #44]	; (8002538 <HAL_Init+0x40>)
 800250a:	681b      	ldr	r3, [r3, #0]
 800250c:	4a0a      	ldr	r2, [pc, #40]	; (8002538 <HAL_Init+0x40>)
 800250e:	f443 6380 	orr.w	r3, r3, #1024	; 0x400
 8002512:	6013      	str	r3, [r2, #0]
#endif /* DATA_CACHE_ENABLE */

#if (PREFETCH_ENABLE != 0U)
  __HAL_FLASH_PREFETCH_BUFFER_ENABLE();
 8002514:	4b08      	ldr	r3, [pc, #32]	; (8002538 <HAL_Init+0x40>)
 8002516:	681b      	ldr	r3, [r3, #0]
 8002518:	4a07      	ldr	r2, [pc, #28]	; (8002538 <HAL_Init+0x40>)
 800251a:	f443 7380 	orr.w	r3, r3, #256	; 0x100
 800251e:	6013      	str	r3, [r2, #0]
#endif /* PREFETCH_ENABLE */

  /* Set Interrupt Group Priority */
  HAL_NVIC_SetPriorityGrouping(NVIC_PRIORITYGROUP_4);
 8002520:	2003      	movs	r0, #3
 8002522:	f000 f94f 	bl	80027c4 <HAL_NVIC_SetPriorityGrouping>

  /* Use systick as time base source and configure 1ms tick (default clock after Reset is HSI) */
  HAL_InitTick(TICK_INT_PRIORITY);
 8002526:	2000      	movs	r0, #0
 8002528:	f000 f808 	bl	800253c <HAL_InitTick>

  /* Init the low level hardware */
  HAL_MspInit();
 800252c:	f7ff fc3e 	bl	8001dac <HAL_MspInit>

  /* Return function status */
  return HAL_OK;
 8002530:	2300      	movs	r3, #0
}
 8002532:	4618      	mov	r0, r3
 8002534:	bd80      	pop	{r7, pc}
 8002536:	bf00      	nop
 8002538:	40023c00 	.word	0x40023c00

0800253c <HAL_InitTick>:
  *       implementation  in user file.
  * @param TickPriority Tick interrupt priority.
  * @retval HAL status
  */
__weak HAL_StatusTypeDef HAL_InitTick(uint32_t TickPriority)
{
 800253c:	b580      	push	{r7, lr}
 800253e:	b082      	sub	sp, #8
 8002540:	af00      	add	r7, sp, #0
 8002542:	6078      	str	r0, [r7, #4]
  /* Configure the SysTick to have interrupt in 1ms time basis*/
  if (HAL_SYSTICK_Config(SystemCoreClock / (1000U / uwTickFreq)) > 0U)
 8002544:	4b12      	ldr	r3, [pc, #72]	; (8002590 <HAL_InitTick+0x54>)
 8002546:	681a      	ldr	r2, [r3, #0]
 8002548:	4b12      	ldr	r3, [pc, #72]	; (8002594 <HAL_InitTick+0x58>)
 800254a:	781b      	ldrb	r3, [r3, #0]
 800254c:	4619      	mov	r1, r3
 800254e:	f44f 737a 	mov.w	r3, #1000	; 0x3e8
 8002552:	fbb3 f3f1 	udiv	r3, r3, r1
 8002556:	fbb2 f3f3 	udiv	r3, r2, r3
 800255a:	4618      	mov	r0, r3
 800255c:	f000 f967 	bl	800282e <HAL_SYSTICK_Config>
 8002560:	4603      	mov	r3, r0
 8002562:	2b00      	cmp	r3, #0
 8002564:	d001      	beq.n	800256a <HAL_InitTick+0x2e>
  {
    return HAL_ERROR;
 8002566:	2301      	movs	r3, #1
 8002568:	e00e      	b.n	8002588 <HAL_InitTick+0x4c>
  }

  /* Configure the SysTick IRQ priority */
  if (TickPriority < (1UL << __NVIC_PRIO_BITS))
 800256a:	687b      	ldr	r3, [r7, #4]
 800256c:	2b0f      	cmp	r3, #15
 800256e:	d80a      	bhi.n	8002586 <HAL_InitTick+0x4a>
  {
    HAL_NVIC_SetPriority(SysTick_IRQn, TickPriority, 0U);
 8002570:	2200      	movs	r2, #0
 8002572:	6879      	ldr	r1, [r7, #4]
 8002574:	f04f 30ff 	mov.w	r0, #4294967295	; 0xffffffff
 8002578:	f000 f92f 	bl	80027da <HAL_NVIC_SetPriority>
    uwTickPrio = TickPriority;
 800257c:	4a06      	ldr	r2, [pc, #24]	; (8002598 <HAL_InitTick+0x5c>)
 800257e:	687b      	ldr	r3, [r7, #4]
 8002580:	6013      	str	r3, [r2, #0]
  {
    return HAL_ERROR;
  }

  /* Return function status */
  return HAL_OK;
 8002582:	2300      	movs	r3, #0
 8002584:	e000      	b.n	8002588 <HAL_InitTick+0x4c>
    return HAL_ERROR;
 8002586:	2301      	movs	r3, #1
}
 8002588:	4618      	mov	r0, r3
 800258a:	3708      	adds	r7, #8
 800258c:	46bd      	mov	sp, r7
 800258e:	bd80      	pop	{r7, pc}
 8002590:	2000001c 	.word	0x2000001c
 8002594:	20000024 	.word	0x20000024
 8002598:	20000020 	.word	0x20000020

0800259c <HAL_IncTick>:
 * @note This function is declared as __weak to be overwritten in case of other 
  *      implementations in user file.
  * @retval None
  */
__weak void HAL_IncTick(void)
{
 800259c:	b480      	push	{r7}
 800259e:	af00      	add	r7, sp, #0
  uwTick += uwTickFreq;
 80025a0:	4b06      	ldr	r3, [pc, #24]	; (80025bc <HAL_IncTick+0x20>)
 80025a2:	781b      	ldrb	r3, [r3, #0]
 80025a4:	461a      	mov	r2, r3
 80025a6:	4b06      	ldr	r3, [pc, #24]	; (80025c0 <HAL_IncTick+0x24>)
 80025a8:	681b      	ldr	r3, [r3, #0]
 80025aa:	4413      	add	r3, r2
 80025ac:	4a04      	ldr	r2, [pc, #16]	; (80025c0 <HAL_IncTick+0x24>)
 80025ae:	6013      	str	r3, [r2, #0]
}
 80025b0:	bf00      	nop
 80025b2:	46bd      	mov	sp, r7
 80025b4:	f85d 7b04 	ldr.w	r7, [sp], #4
 80025b8:	4770      	bx	lr
 80025ba:	bf00      	nop
 80025bc:	20000024 	.word	0x20000024
 80025c0:	20000548 	.word	0x20000548

080025c4 <HAL_GetTick>:
  * @note This function is declared as __weak to be overwritten in case of other 
  *       implementations in user file.
  * @retval tick value
  */
__weak uint32_t HAL_GetTick(void)
{
 80025c4:	b480      	push	{r7}
 80025c6:	af00      	add	r7, sp, #0
  return uwTick;
 80025c8:	4b03      	ldr	r3, [pc, #12]	; (80025d8 <HAL_GetTick+0x14>)
 80025ca:	681b      	ldr	r3, [r3, #0]
}
 80025cc:	4618      	mov	r0, r3
 80025ce:	46bd      	mov	sp, r7
 80025d0:	f85d 7b04 	ldr.w	r7, [sp], #4
 80025d4:	4770      	bx	lr
 80025d6:	bf00      	nop
 80025d8:	20000548 	.word	0x20000548

080025dc <HAL_Delay>:
  *       implementations in user file.
  * @param Delay specifies the delay time length, in milliseconds.
  * @retval None
  */
__weak void HAL_Delay(uint32_t Delay)
{
 80025dc:	b580      	push	{r7, lr}
 80025de:	b084      	sub	sp, #16
 80025e0:	af00      	add	r7, sp, #0
 80025e2:	6078      	str	r0, [r7, #4]
  uint32_t tickstart = HAL_GetTick();
 80025e4:	f7ff ffee 	bl	80025c4 <HAL_GetTick>
 80025e8:	60b8      	str	r0, [r7, #8]
  uint32_t wait = Delay;
 80025ea:	687b      	ldr	r3, [r7, #4]
 80025ec:	60fb      	str	r3, [r7, #12]

  /* Add a freq to guarantee minimum wait */
  if (wait < HAL_MAX_DELAY)
 80025ee:	68fb      	ldr	r3, [r7, #12]
 80025f0:	f1b3 3fff 	cmp.w	r3, #4294967295	; 0xffffffff
 80025f4:	d005      	beq.n	8002602 <HAL_Delay+0x26>
  {
    wait += (uint32_t)(uwTickFreq);
 80025f6:	4b0a      	ldr	r3, [pc, #40]	; (8002620 <HAL_Delay+0x44>)
 80025f8:	781b      	ldrb	r3, [r3, #0]
 80025fa:	461a      	mov	r2, r3
 80025fc:	68fb      	ldr	r3, [r7, #12]
 80025fe:	4413      	add	r3, r2
 8002600:	60fb      	str	r3, [r7, #12]
  }

  while((HAL_GetTick() - tickstart) < wait)
 8002602:	bf00      	nop
 8002604:	f7ff ffde 	bl	80025c4 <HAL_GetTick>
 8002608:	4602      	mov	r2, r0
 800260a:	68bb      	ldr	r3, [r7, #8]
 800260c:	1ad3      	subs	r3, r2, r3
 800260e:	68fa      	ldr	r2, [r7, #12]
 8002610:	429a      	cmp	r2, r3
 8002612:	d8f7      	bhi.n	8002604 <HAL_Delay+0x28>
  {
  }
}
 8002614:	bf00      	nop
 8002616:	bf00      	nop
 8002618:	3710      	adds	r7, #16
 800261a:	46bd      	mov	sp, r7
 800261c:	bd80      	pop	{r7, pc}
 800261e:	bf00      	nop
 8002620:	20000024 	.word	0x20000024

08002624 <__NVIC_SetPriorityGrouping>:
           In case of a conflict between priority grouping and available
           priority bits (__NVIC_PRIO_BITS), the smallest possible priority group is set.
  \param [in]      PriorityGroup  Priority grouping field.
 */
__STATIC_INLINE void __NVIC_SetPriorityGrouping(uint32_t PriorityGroup)
{
 8002624:	b480      	push	{r7}
 8002626:	b085      	sub	sp, #20
 8002628:	af00      	add	r7, sp, #0
 800262a:	6078      	str	r0, [r7, #4]
  uint32_t reg_value;
  uint32_t PriorityGroupTmp = (PriorityGroup & (uint32_t)0x07UL);             /* only values 0..7 are used          */
 800262c:	687b      	ldr	r3, [r7, #4]
 800262e:	f003 0307 	and.w	r3, r3, #7
 8002632:	60fb      	str	r3, [r7, #12]

  reg_value  =  SCB->AIRCR;                                                   /* read old register configuration    */
 8002634:	4b0c      	ldr	r3, [pc, #48]	; (8002668 <__NVIC_SetPriorityGrouping+0x44>)
 8002636:	68db      	ldr	r3, [r3, #12]
 8002638:	60bb      	str	r3, [r7, #8]
  reg_value &= ~((uint32_t)(SCB_AIRCR_VECTKEY_Msk | SCB_AIRCR_PRIGROUP_Msk)); /* clear bits to change               */
 800263a:	68ba      	ldr	r2, [r7, #8]
 800263c:	f64f 03ff 	movw	r3, #63743	; 0xf8ff
 8002640:	4013      	ands	r3, r2
 8002642:	60bb      	str	r3, [r7, #8]
  reg_value  =  (reg_value                                   |
                ((uint32_t)0x5FAUL << SCB_AIRCR_VECTKEY_Pos) |
                (PriorityGroupTmp << SCB_AIRCR_PRIGROUP_Pos)  );              /* Insert write key and priority group */
 8002644:	68fb      	ldr	r3, [r7, #12]
 8002646:	021a      	lsls	r2, r3, #8
                ((uint32_t)0x5FAUL << SCB_AIRCR_VECTKEY_Pos) |
 8002648:	68bb      	ldr	r3, [r7, #8]
 800264a:	4313      	orrs	r3, r2
  reg_value  =  (reg_value                                   |
 800264c:	f043 63bf 	orr.w	r3, r3, #100139008	; 0x5f80000
 8002650:	f443 3300 	orr.w	r3, r3, #131072	; 0x20000
 8002654:	60bb      	str	r3, [r7, #8]
  SCB->AIRCR =  reg_value;
 8002656:	4a04      	ldr	r2, [pc, #16]	; (8002668 <__NVIC_SetPriorityGrouping+0x44>)
 8002658:	68bb      	ldr	r3, [r7, #8]
 800265a:	60d3      	str	r3, [r2, #12]
}
 800265c:	bf00      	nop
 800265e:	3714      	adds	r7, #20
 8002660:	46bd      	mov	sp, r7
 8002662:	f85d 7b04 	ldr.w	r7, [sp], #4
 8002666:	4770      	bx	lr
 8002668:	e000ed00 	.word	0xe000ed00

0800266c <__NVIC_GetPriorityGrouping>:
  \brief   Get Priority Grouping
  \details Reads the priority grouping field from the NVIC Interrupt Controller.
  \return                Priority grouping field (SCB->AIRCR [10:8] PRIGROUP field).
 */
__STATIC_INLINE uint32_t __NVIC_GetPriorityGrouping(void)
{
 800266c:	b480      	push	{r7}
 800266e:	af00      	add	r7, sp, #0
  return ((uint32_t)((SCB->AIRCR & SCB_AIRCR_PRIGROUP_Msk) >> SCB_AIRCR_PRIGROUP_Pos));
 8002670:	4b04      	ldr	r3, [pc, #16]	; (8002684 <__NVIC_GetPriorityGrouping+0x18>)
 8002672:	68db      	ldr	r3, [r3, #12]
 8002674:	0a1b      	lsrs	r3, r3, #8
 8002676:	f003 0307 	and.w	r3, r3, #7
}
 800267a:	4618      	mov	r0, r3
 800267c:	46bd      	mov	sp, r7
 800267e:	f85d 7b04 	ldr.w	r7, [sp], #4
 8002682:	4770      	bx	lr
 8002684:	e000ed00 	.word	0xe000ed00

08002688 <__NVIC_EnableIRQ>:
  \details Enables a device specific interrupt in the NVIC interrupt controller.
  \param [in]      IRQn  Device specific interrupt number.
  \note    IRQn must not be negative.
 */
__STATIC_INLINE void __NVIC_EnableIRQ(IRQn_Type IRQn)
{
 8002688:	b480      	push	{r7}
 800268a:	b083      	sub	sp, #12
 800268c:	af00      	add	r7, sp, #0
 800268e:	4603      	mov	r3, r0
 8002690:	71fb      	strb	r3, [r7, #7]
  if ((int32_t)(IRQn) >= 0)
 8002692:	f997 3007 	ldrsb.w	r3, [r7, #7]
 8002696:	2b00      	cmp	r3, #0
 8002698:	db0b      	blt.n	80026b2 <__NVIC_EnableIRQ+0x2a>
  {
    NVIC->ISER[(((uint32_t)IRQn) >> 5UL)] = (uint32_t)(1UL << (((uint32_t)IRQn) & 0x1FUL));
 800269a:	79fb      	ldrb	r3, [r7, #7]
 800269c:	f003 021f 	and.w	r2, r3, #31
 80026a0:	4907      	ldr	r1, [pc, #28]	; (80026c0 <__NVIC_EnableIRQ+0x38>)
 80026a2:	f997 3007 	ldrsb.w	r3, [r7, #7]
 80026a6:	095b      	lsrs	r3, r3, #5
 80026a8:	2001      	movs	r0, #1
 80026aa:	fa00 f202 	lsl.w	r2, r0, r2
 80026ae:	f841 2023 	str.w	r2, [r1, r3, lsl #2]
  }
}
 80026b2:	bf00      	nop
 80026b4:	370c      	adds	r7, #12
 80026b6:	46bd      	mov	sp, r7
 80026b8:	f85d 7b04 	ldr.w	r7, [sp], #4
 80026bc:	4770      	bx	lr
 80026be:	bf00      	nop
 80026c0:	e000e100 	.word	0xe000e100

080026c4 <__NVIC_SetPriority>:
  \param [in]      IRQn  Interrupt number.
  \param [in]  priority  Priority to set.
  \note    The priority cannot be set for every processor exception.
 */
__STATIC_INLINE void __NVIC_SetPriority(IRQn_Type IRQn, uint32_t priority)
{
 80026c4:	b480      	push	{r7}
 80026c6:	b083      	sub	sp, #12
 80026c8:	af00      	add	r7, sp, #0
 80026ca:	4603      	mov	r3, r0
 80026cc:	6039      	str	r1, [r7, #0]
 80026ce:	71fb      	strb	r3, [r7, #7]
  if ((int32_t)(IRQn) >= 0)
 80026d0:	f997 3007 	ldrsb.w	r3, [r7, #7]
 80026d4:	2b00      	cmp	r3, #0
 80026d6:	db0a      	blt.n	80026ee <__NVIC_SetPriority+0x2a>
  {
    NVIC->IP[((uint32_t)IRQn)]               = (uint8_t)((priority << (8U - __NVIC_PRIO_BITS)) & (uint32_t)0xFFUL);
 80026d8:	683b      	ldr	r3, [r7, #0]
 80026da:	b2da      	uxtb	r2, r3
 80026dc:	490c      	ldr	r1, [pc, #48]	; (8002710 <__NVIC_SetPriority+0x4c>)
 80026de:	f997 3007 	ldrsb.w	r3, [r7, #7]
 80026e2:	0112      	lsls	r2, r2, #4
 80026e4:	b2d2      	uxtb	r2, r2
 80026e6:	440b      	add	r3, r1
 80026e8:	f883 2300 	strb.w	r2, [r3, #768]	; 0x300
  }
  else
  {
    SCB->SHP[(((uint32_t)IRQn) & 0xFUL)-4UL] = (uint8_t)((priority << (8U - __NVIC_PRIO_BITS)) & (uint32_t)0xFFUL);
  }
}
 80026ec:	e00a      	b.n	8002704 <__NVIC_SetPriority+0x40>
    SCB->SHP[(((uint32_t)IRQn) & 0xFUL)-4UL] = (uint8_t)((priority << (8U - __NVIC_PRIO_BITS)) & (uint32_t)0xFFUL);
 80026ee:	683b      	ldr	r3, [r7, #0]
 80026f0:	b2da      	uxtb	r2, r3
 80026f2:	4908      	ldr	r1, [pc, #32]	; (8002714 <__NVIC_SetPriority+0x50>)
 80026f4:	79fb      	ldrb	r3, [r7, #7]
 80026f6:	f003 030f 	and.w	r3, r3, #15
 80026fa:	3b04      	subs	r3, #4
 80026fc:	0112      	lsls	r2, r2, #4
 80026fe:	b2d2      	uxtb	r2, r2
 8002700:	440b      	add	r3, r1
 8002702:	761a      	strb	r2, [r3, #24]
}
 8002704:	bf00      	nop
 8002706:	370c      	adds	r7, #12
 8002708:	46bd      	mov	sp, r7
 800270a:	f85d 7b04 	ldr.w	r7, [sp], #4
 800270e:	4770      	bx	lr
 8002710:	e000e100 	.word	0xe000e100
 8002714:	e000ed00 	.word	0xe000ed00

08002718 <NVIC_EncodePriority>:
  \param [in]   PreemptPriority  Preemptive priority value (starting from 0).
  \param [in]       SubPriority  Subpriority value (starting from 0).
  \return                        Encoded priority. Value can be used in the function \ref NVIC_SetPriority().
 */
__STATIC_INLINE uint32_t NVIC_EncodePriority (uint32_t PriorityGroup, uint32_t PreemptPriority, uint32_t SubPriority)
{
 8002718:	b480      	push	{r7}
 800271a:	b089      	sub	sp, #36	; 0x24
 800271c:	af00      	add	r7, sp, #0
 800271e:	60f8      	str	r0, [r7, #12]
 8002720:	60b9      	str	r1, [r7, #8]
 8002722:	607a      	str	r2, [r7, #4]
  uint32_t PriorityGroupTmp = (PriorityGroup & (uint32_t)0x07UL);   /* only values 0..7 are used          */
 8002724:	68fb      	ldr	r3, [r7, #12]
 8002726:	f003 0307 	and.w	r3, r3, #7
 800272a:	61fb      	str	r3, [r7, #28]
  uint32_t PreemptPriorityBits;
  uint32_t SubPriorityBits;

  PreemptPriorityBits = ((7UL - PriorityGroupTmp) > (uint32_t)(__NVIC_PRIO_BITS)) ? (uint32_t)(__NVIC_PRIO_BITS) : (uint32_t)(7UL - PriorityGroupTmp);
 800272c:	69fb      	ldr	r3, [r7, #28]
 800272e:	f1c3 0307 	rsb	r3, r3, #7
 8002732:	2b04      	cmp	r3, #4
 8002734:	bf28      	it	cs
 8002736:	2304      	movcs	r3, #4
 8002738:	61bb      	str	r3, [r7, #24]
  SubPriorityBits     = ((PriorityGroupTmp + (uint32_t)(__NVIC_PRIO_BITS)) < (uint32_t)7UL) ? (uint32_t)0UL : (uint32_t)((PriorityGroupTmp - 7UL) + (uint32_t)(__NVIC_PRIO_BITS));
 800273a:	69fb      	ldr	r3, [r7, #28]
 800273c:	3304      	adds	r3, #4
 800273e:	2b06      	cmp	r3, #6
 8002740:	d902      	bls.n	8002748 <NVIC_EncodePriority+0x30>
 8002742:	69fb      	ldr	r3, [r7, #28]
 8002744:	3b03      	subs	r3, #3
 8002746:	e000      	b.n	800274a <NVIC_EncodePriority+0x32>
 8002748:	2300      	movs	r3, #0
 800274a:	617b      	str	r3, [r7, #20]

  return (
           ((PreemptPriority & (uint32_t)((1UL << (PreemptPriorityBits)) - 1UL)) << SubPriorityBits) |
 800274c:	f04f 32ff 	mov.w	r2, #4294967295	; 0xffffffff
 8002750:	69bb      	ldr	r3, [r7, #24]
 8002752:	fa02 f303 	lsl.w	r3, r2, r3
 8002756:	43da      	mvns	r2, r3
 8002758:	68bb      	ldr	r3, [r7, #8]
 800275a:	401a      	ands	r2, r3
 800275c:	697b      	ldr	r3, [r7, #20]
 800275e:	409a      	lsls	r2, r3
           ((SubPriority     & (uint32_t)((1UL << (SubPriorityBits    )) - 1UL)))
 8002760:	f04f 31ff 	mov.w	r1, #4294967295	; 0xffffffff
 8002764:	697b      	ldr	r3, [r7, #20]
 8002766:	fa01 f303 	lsl.w	r3, r1, r3
 800276a:	43d9      	mvns	r1, r3
 800276c:	687b      	ldr	r3, [r7, #4]
 800276e:	400b      	ands	r3, r1
           ((PreemptPriority & (uint32_t)((1UL << (PreemptPriorityBits)) - 1UL)) << SubPriorityBits) |
 8002770:	4313      	orrs	r3, r2
         );
}
 8002772:	4618      	mov	r0, r3
 8002774:	3724      	adds	r7, #36	; 0x24
 8002776:	46bd      	mov	sp, r7
 8002778:	f85d 7b04 	ldr.w	r7, [sp], #4
 800277c:	4770      	bx	lr
	...

08002780 <SysTick_Config>:
  \note    When the variable <b>__Vendor_SysTickConfig</b> is set to 1, then the
           function <b>SysTick_Config</b> is not included. In this case, the file <b><i>device</i>.h</b>
           must contain a vendor-specific implementation of this function.
 */
__STATIC_INLINE uint32_t SysTick_Config(uint32_t ticks)
{
 8002780:	b580      	push	{r7, lr}
 8002782:	b082      	sub	sp, #8
 8002784:	af00      	add	r7, sp, #0
 8002786:	6078      	str	r0, [r7, #4]
  if ((ticks - 1UL) > SysTick_LOAD_RELOAD_Msk)
 8002788:	687b      	ldr	r3, [r7, #4]
 800278a:	3b01      	subs	r3, #1
 800278c:	f1b3 7f80 	cmp.w	r3, #16777216	; 0x1000000
 8002790:	d301      	bcc.n	8002796 <SysTick_Config+0x16>
  {
    return (1UL);                                                   /* Reload value impossible */
 8002792:	2301      	movs	r3, #1
 8002794:	e00f      	b.n	80027b6 <SysTick_Config+0x36>
  }

  SysTick->LOAD  = (uint32_t)(ticks - 1UL);                         /* set reload register */
 8002796:	4a0a      	ldr	r2, [pc, #40]	; (80027c0 <SysTick_Config+0x40>)
 8002798:	687b      	ldr	r3, [r7, #4]
 800279a:	3b01      	subs	r3, #1
 800279c:	6053      	str	r3, [r2, #4]
  NVIC_SetPriority (SysTick_IRQn, (1UL << __NVIC_PRIO_BITS) - 1UL); /* set Priority for Systick Interrupt */
 800279e:	210f      	movs	r1, #15
 80027a0:	f04f 30ff 	mov.w	r0, #4294967295	; 0xffffffff
 80027a4:	f7ff ff8e 	bl	80026c4 <__NVIC_SetPriority>
  SysTick->VAL   = 0UL;                                             /* Load the SysTick Counter Value */
 80027a8:	4b05      	ldr	r3, [pc, #20]	; (80027c0 <SysTick_Config+0x40>)
 80027aa:	2200      	movs	r2, #0
 80027ac:	609a      	str	r2, [r3, #8]
  SysTick->CTRL  = SysTick_CTRL_CLKSOURCE_Msk |
 80027ae:	4b04      	ldr	r3, [pc, #16]	; (80027c0 <SysTick_Config+0x40>)
 80027b0:	2207      	movs	r2, #7
 80027b2:	601a      	str	r2, [r3, #0]
                   SysTick_CTRL_TICKINT_Msk   |
                   SysTick_CTRL_ENABLE_Msk;                         /* Enable SysTick IRQ and SysTick Timer */
  return (0UL);                                                     /* Function successful */
 80027b4:	2300      	movs	r3, #0
}
 80027b6:	4618      	mov	r0, r3
 80027b8:	3708      	adds	r7, #8
 80027ba:	46bd      	mov	sp, r7
 80027bc:	bd80      	pop	{r7, pc}
 80027be:	bf00      	nop
 80027c0:	e000e010 	.word	0xe000e010

080027c4 <HAL_NVIC_SetPriorityGrouping>:
  * @note   When the NVIC_PriorityGroup_0 is selected, IRQ preemption is no more possible. 
  *         The pending IRQ priority will be managed only by the subpriority. 
  * @retval None
  */
void HAL_NVIC_SetPriorityGrouping(uint32_t PriorityGroup)
{
 80027c4:	b580      	push	{r7, lr}
 80027c6:	b082      	sub	sp, #8
 80027c8:	af00      	add	r7, sp, #0
 80027ca:	6078      	str	r0, [r7, #4]
  /* Check the parameters */
  assert_param(IS_NVIC_PRIORITY_GROUP(PriorityGroup));
  
  /* Set the PRIGROUP[10:8] bits according to the PriorityGroup parameter value */
  NVIC_SetPriorityGrouping(PriorityGroup);
 80027cc:	6878      	ldr	r0, [r7, #4]
 80027ce:	f7ff ff29 	bl	8002624 <__NVIC_SetPriorityGrouping>
}
 80027d2:	bf00      	nop
 80027d4:	3708      	adds	r7, #8
 80027d6:	46bd      	mov	sp, r7
 80027d8:	bd80      	pop	{r7, pc}

080027da <HAL_NVIC_SetPriority>:
  *         This parameter can be a value between 0 and 15
  *         A lower priority value indicates a higher priority.          
  * @retval None
  */
void HAL_NVIC_SetPriority(IRQn_Type IRQn, uint32_t PreemptPriority, uint32_t SubPriority)
{ 
 80027da:	b580      	push	{r7, lr}
 80027dc:	b086      	sub	sp, #24
 80027de:	af00      	add	r7, sp, #0
 80027e0:	4603      	mov	r3, r0
 80027e2:	60b9      	str	r1, [r7, #8]
 80027e4:	607a      	str	r2, [r7, #4]
 80027e6:	73fb      	strb	r3, [r7, #15]
  uint32_t prioritygroup = 0x00U;
 80027e8:	2300      	movs	r3, #0
 80027ea:	617b      	str	r3, [r7, #20]
  
  /* Check the parameters */
  assert_param(IS_NVIC_SUB_PRIORITY(SubPriority));
  assert_param(IS_NVIC_PREEMPTION_PRIORITY(PreemptPriority));
  
  prioritygroup = NVIC_GetPriorityGrouping();
 80027ec:	f7ff ff3e 	bl	800266c <__NVIC_GetPriorityGrouping>
 80027f0:	6178      	str	r0, [r7, #20]
  
  NVIC_SetPriority(IRQn, NVIC_EncodePriority(prioritygroup, PreemptPriority, SubPriority));
 80027f2:	687a      	ldr	r2, [r7, #4]
 80027f4:	68b9      	ldr	r1, [r7, #8]
 80027f6:	6978      	ldr	r0, [r7, #20]
 80027f8:	f7ff ff8e 	bl	8002718 <NVIC_EncodePriority>
 80027fc:	4602      	mov	r2, r0
 80027fe:	f997 300f 	ldrsb.w	r3, [r7, #15]
 8002802:	4611      	mov	r1, r2
 8002804:	4618      	mov	r0, r3
 8002806:	f7ff ff5d 	bl	80026c4 <__NVIC_SetPriority>
}
 800280a:	bf00      	nop
 800280c:	3718      	adds	r7, #24
 800280e:	46bd      	mov	sp, r7
 8002810:	bd80      	pop	{r7, pc}

08002812 <HAL_NVIC_EnableIRQ>:
  *         This parameter can be an enumerator of IRQn_Type enumeration
  *         (For the complete STM32 Devices IRQ Channels list, please refer to the appropriate CMSIS device file (stm32f4xxxx.h))
  * @retval None
  */
void HAL_NVIC_EnableIRQ(IRQn_Type IRQn)
{
 8002812:	b580      	push	{r7, lr}
 8002814:	b082      	sub	sp, #8
 8002816:	af00      	add	r7, sp, #0
 8002818:	4603      	mov	r3, r0
 800281a:	71fb      	strb	r3, [r7, #7]
  /* Check the parameters */
  assert_param(IS_NVIC_DEVICE_IRQ(IRQn));
  
  /* Enable interrupt */
  NVIC_EnableIRQ(IRQn);
 800281c:	f997 3007 	ldrsb.w	r3, [r7, #7]
 8002820:	4618      	mov	r0, r3
 8002822:	f7ff ff31 	bl	8002688 <__NVIC_EnableIRQ>
}
 8002826:	bf00      	nop
 8002828:	3708      	adds	r7, #8
 800282a:	46bd      	mov	sp, r7
 800282c:	bd80      	pop	{r7, pc}

0800282e <HAL_SYSTICK_Config>:
  * @param  TicksNumb Specifies the ticks Number of ticks between two interrupts.
  * @retval status:  - 0  Function succeeded.
  *                  - 1  Function failed.
  */
uint32_t HAL_SYSTICK_Config(uint32_t TicksNumb)
{
 800282e:	b580      	push	{r7, lr}
 8002830:	b082      	sub	sp, #8
 8002832:	af00      	add	r7, sp, #0
 8002834:	6078      	str	r0, [r7, #4]
   return SysTick_Config(TicksNumb);
 8002836:	6878      	ldr	r0, [r7, #4]
 8002838:	f7ff ffa2 	bl	8002780 <SysTick_Config>
 800283c:	4603      	mov	r3, r0
}
 800283e:	4618      	mov	r0, r3
 8002840:	3708      	adds	r7, #8
 8002842:	46bd      	mov	sp, r7
 8002844:	bd80      	pop	{r7, pc}
	...

08002848 <HAL_GPIO_Init>:
  * @param  GPIO_Init pointer to a GPIO_InitTypeDef structure that contains
  *         the configuration information for the specified GPIO peripheral.
  * @retval None
  */
void HAL_GPIO_Init(GPIO_TypeDef  *GPIOx, GPIO_InitTypeDef *GPIO_Init)
{
 8002848:	b480      	push	{r7}
 800284a:	b089      	sub	sp, #36	; 0x24
 800284c:	af00      	add	r7, sp, #0
 800284e:	6078      	str	r0, [r7, #4]
 8002850:	6039      	str	r1, [r7, #0]
  uint32_t position;
  uint32_t ioposition = 0x00U;
 8002852:	2300      	movs	r3, #0
 8002854:	617b      	str	r3, [r7, #20]
  uint32_t iocurrent = 0x00U;
 8002856:	2300      	movs	r3, #0
 8002858:	613b      	str	r3, [r7, #16]
  uint32_t temp = 0x00U;
 800285a:	2300      	movs	r3, #0
 800285c:	61bb      	str	r3, [r7, #24]
  assert_param(IS_GPIO_ALL_INSTANCE(GPIOx));
  assert_param(IS_GPIO_PIN(GPIO_Init->Pin));
  assert_param(IS_GPIO_MODE(GPIO_Init->Mode));

  /* Configure the port pins */
  for(position = 0U; position < GPIO_NUMBER; position++)
 800285e:	2300      	movs	r3, #0
 8002860:	61fb      	str	r3, [r7, #28]
 8002862:	e165      	b.n	8002b30 <HAL_GPIO_Init+0x2e8>
  {
    /* Get the IO position */
    ioposition = 0x01U << position;
 8002864:	2201      	movs	r2, #1
 8002866:	69fb      	ldr	r3, [r7, #28]
 8002868:	fa02 f303 	lsl.w	r3, r2, r3
 800286c:	617b      	str	r3, [r7, #20]
    /* Get the current IO position */
    iocurrent = (uint32_t)(GPIO_Init->Pin) & ioposition;
 800286e:	683b      	ldr	r3, [r7, #0]
 8002870:	681b      	ldr	r3, [r3, #0]
 8002872:	697a      	ldr	r2, [r7, #20]
 8002874:	4013      	ands	r3, r2
 8002876:	613b      	str	r3, [r7, #16]

    if(iocurrent == ioposition)
 8002878:	693a      	ldr	r2, [r7, #16]
 800287a:	697b      	ldr	r3, [r7, #20]
 800287c:	429a      	cmp	r2, r3
 800287e:	f040 8154 	bne.w	8002b2a <HAL_GPIO_Init+0x2e2>
    {
      /*--------------------- GPIO Mode Configuration ------------------------*/
      /* In case of Output or Alternate function mode selection */
      if(((GPIO_Init->Mode & GPIO_MODE) == MODE_OUTPUT) || \
 8002882:	683b      	ldr	r3, [r7, #0]
 8002884:	685b      	ldr	r3, [r3, #4]
 8002886:	f003 0303 	and.w	r3, r3, #3
 800288a:	2b01      	cmp	r3, #1
 800288c:	d005      	beq.n	800289a <HAL_GPIO_Init+0x52>
          (GPIO_Init->Mode & GPIO_MODE) == MODE_AF)
 800288e:	683b      	ldr	r3, [r7, #0]
 8002890:	685b      	ldr	r3, [r3, #4]
 8002892:	f003 0303 	and.w	r3, r3, #3
      if(((GPIO_Init->Mode & GPIO_MODE) == MODE_OUTPUT) || \
 8002896:	2b02      	cmp	r3, #2
 8002898:	d130      	bne.n	80028fc <HAL_GPIO_Init+0xb4>
      {
        /* Check the Speed parameter */
        assert_param(IS_GPIO_SPEED(GPIO_Init->Speed));
        /* Configure the IO Speed */
        temp = GPIOx->OSPEEDR; 
 800289a:	687b      	ldr	r3, [r7, #4]
 800289c:	689b      	ldr	r3, [r3, #8]
 800289e:	61bb      	str	r3, [r7, #24]
        temp &= ~(GPIO_OSPEEDER_OSPEEDR0 << (position * 2U));
 80028a0:	69fb      	ldr	r3, [r7, #28]
 80028a2:	005b      	lsls	r3, r3, #1
 80028a4:	2203      	movs	r2, #3
 80028a6:	fa02 f303 	lsl.w	r3, r2, r3
 80028aa:	43db      	mvns	r3, r3
 80028ac:	69ba      	ldr	r2, [r7, #24]
 80028ae:	4013      	ands	r3, r2
 80028b0:	61bb      	str	r3, [r7, #24]
        temp |= (GPIO_Init->Speed << (position * 2U));
 80028b2:	683b      	ldr	r3, [r7, #0]
 80028b4:	68da      	ldr	r2, [r3, #12]
 80028b6:	69fb      	ldr	r3, [r7, #28]
 80028b8:	005b      	lsls	r3, r3, #1
 80028ba:	fa02 f303 	lsl.w	r3, r2, r3
 80028be:	69ba      	ldr	r2, [r7, #24]
 80028c0:	4313      	orrs	r3, r2
 80028c2:	61bb      	str	r3, [r7, #24]
        GPIOx->OSPEEDR = temp;
 80028c4:	687b      	ldr	r3, [r7, #4]
 80028c6:	69ba      	ldr	r2, [r7, #24]
 80028c8:	609a      	str	r2, [r3, #8]

        /* Configure the IO Output Type */
        temp = GPIOx->OTYPER;
 80028ca:	687b      	ldr	r3, [r7, #4]
 80028cc:	685b      	ldr	r3, [r3, #4]
 80028ce:	61bb      	str	r3, [r7, #24]
        temp &= ~(GPIO_OTYPER_OT_0 << position) ;
 80028d0:	2201      	movs	r2, #1
 80028d2:	69fb      	ldr	r3, [r7, #28]
 80028d4:	fa02 f303 	lsl.w	r3, r2, r3
 80028d8:	43db      	mvns	r3, r3
 80028da:	69ba      	ldr	r2, [r7, #24]
 80028dc:	4013      	ands	r3, r2
 80028de:	61bb      	str	r3, [r7, #24]
        temp |= (((GPIO_Init->Mode & OUTPUT_TYPE) >> OUTPUT_TYPE_Pos) << position);
 80028e0:	683b      	ldr	r3, [r7, #0]
 80028e2:	685b      	ldr	r3, [r3, #4]
 80028e4:	091b      	lsrs	r3, r3, #4
 80028e6:	f003 0201 	and.w	r2, r3, #1
 80028ea:	69fb      	ldr	r3, [r7, #28]
 80028ec:	fa02 f303 	lsl.w	r3, r2, r3
 80028f0:	69ba      	ldr	r2, [r7, #24]
 80028f2:	4313      	orrs	r3, r2
 80028f4:	61bb      	str	r3, [r7, #24]
        GPIOx->OTYPER = temp;
 80028f6:	687b      	ldr	r3, [r7, #4]
 80028f8:	69ba      	ldr	r2, [r7, #24]
 80028fa:	605a      	str	r2, [r3, #4]
       }

      if((GPIO_Init->Mode & GPIO_MODE) != MODE_ANALOG)
 80028fc:	683b      	ldr	r3, [r7, #0]
 80028fe:	685b      	ldr	r3, [r3, #4]
 8002900:	f003 0303 	and.w	r3, r3, #3
 8002904:	2b03      	cmp	r3, #3
 8002906:	d017      	beq.n	8002938 <HAL_GPIO_Init+0xf0>
      {
        /* Check the parameters */
        assert_param(IS_GPIO_PULL(GPIO_Init->Pull));
        
        /* Activate the Pull-up or Pull down resistor for the current IO */
        temp = GPIOx->PUPDR;
 8002908:	687b      	ldr	r3, [r7, #4]
 800290a:	68db      	ldr	r3, [r3, #12]
 800290c:	61bb      	str	r3, [r7, #24]
        temp &= ~(GPIO_PUPDR_PUPDR0 << (position * 2U));
 800290e:	69fb      	ldr	r3, [r7, #28]
 8002910:	005b      	lsls	r3, r3, #1
 8002912:	2203      	movs	r2, #3
 8002914:	fa02 f303 	lsl.w	r3, r2, r3
 8002918:	43db      	mvns	r3, r3
 800291a:	69ba      	ldr	r2, [r7, #24]
 800291c:	4013      	ands	r3, r2
 800291e:	61bb      	str	r3, [r7, #24]
        temp |= ((GPIO_Init->Pull) << (position * 2U));
 8002920:	683b      	ldr	r3, [r7, #0]
 8002922:	689a      	ldr	r2, [r3, #8]
 8002924:	69fb      	ldr	r3, [r7, #28]
 8002926:	005b      	lsls	r3, r3, #1
 8002928:	fa02 f303 	lsl.w	r3, r2, r3
 800292c:	69ba      	ldr	r2, [r7, #24]
 800292e:	4313      	orrs	r3, r2
 8002930:	61bb      	str	r3, [r7, #24]
        GPIOx->PUPDR = temp;
 8002932:	687b      	ldr	r3, [r7, #4]
 8002934:	69ba      	ldr	r2, [r7, #24]
 8002936:	60da      	str	r2, [r3, #12]
      }

      /* In case of Alternate function mode selection */
      if((GPIO_Init->Mode & GPIO_MODE) == MODE_AF)
 8002938:	683b      	ldr	r3, [r7, #0]
 800293a:	685b      	ldr	r3, [r3, #4]
 800293c:	f003 0303 	and.w	r3, r3, #3
 8002940:	2b02      	cmp	r3, #2
 8002942:	d123      	bne.n	800298c <HAL_GPIO_Init+0x144>
      {
        /* Check the Alternate function parameter */
        assert_param(IS_GPIO_AF(GPIO_Init->Alternate));
        /* Configure Alternate function mapped with the current IO */
        temp = GPIOx->AFR[position >> 3U];
 8002944:	69fb      	ldr	r3, [r7, #28]
 8002946:	08da      	lsrs	r2, r3, #3
 8002948:	687b      	ldr	r3, [r7, #4]
 800294a:	3208      	adds	r2, #8
 800294c:	f853 3022 	ldr.w	r3, [r3, r2, lsl #2]
 8002950:	61bb      	str	r3, [r7, #24]
        temp &= ~(0xFU << ((uint32_t)(position & 0x07U) * 4U)) ;
 8002952:	69fb      	ldr	r3, [r7, #28]
 8002954:	f003 0307 	and.w	r3, r3, #7
 8002958:	009b      	lsls	r3, r3, #2
 800295a:	220f      	movs	r2, #15
 800295c:	fa02 f303 	lsl.w	r3, r2, r3
 8002960:	43db      	mvns	r3, r3
 8002962:	69ba      	ldr	r2, [r7, #24]
 8002964:	4013      	ands	r3, r2
 8002966:	61bb      	str	r3, [r7, #24]
        temp |= ((uint32_t)(GPIO_Init->Alternate) << (((uint32_t)position & 0x07U) * 4U));
 8002968:	683b      	ldr	r3, [r7, #0]
 800296a:	691a      	ldr	r2, [r3, #16]
 800296c:	69fb      	ldr	r3, [r7, #28]
 800296e:	f003 0307 	and.w	r3, r3, #7
 8002972:	009b      	lsls	r3, r3, #2
 8002974:	fa02 f303 	lsl.w	r3, r2, r3
 8002978:	69ba      	ldr	r2, [r7, #24]
 800297a:	4313      	orrs	r3, r2
 800297c:	61bb      	str	r3, [r7, #24]
        GPIOx->AFR[position >> 3U] = temp;
 800297e:	69fb      	ldr	r3, [r7, #28]
 8002980:	08da      	lsrs	r2, r3, #3
 8002982:	687b      	ldr	r3, [r7, #4]
 8002984:	3208      	adds	r2, #8
 8002986:	69b9      	ldr	r1, [r7, #24]
 8002988:	f843 1022 	str.w	r1, [r3, r2, lsl #2]
      }

      /* Configure IO Direction mode (Input, Output, Alternate or Analog) */
      temp = GPIOx->MODER;
 800298c:	687b      	ldr	r3, [r7, #4]
 800298e:	681b      	ldr	r3, [r3, #0]
 8002990:	61bb      	str	r3, [r7, #24]
      temp &= ~(GPIO_MODER_MODER0 << (position * 2U));
 8002992:	69fb      	ldr	r3, [r7, #28]
 8002994:	005b      	lsls	r3, r3, #1
 8002996:	2203      	movs	r2, #3
 8002998:	fa02 f303 	lsl.w	r3, r2, r3
 800299c:	43db      	mvns	r3, r3
 800299e:	69ba      	ldr	r2, [r7, #24]
 80029a0:	4013      	ands	r3, r2
 80029a2:	61bb      	str	r3, [r7, #24]
      temp |= ((GPIO_Init->Mode & GPIO_MODE) << (position * 2U));
 80029a4:	683b      	ldr	r3, [r7, #0]
 80029a6:	685b      	ldr	r3, [r3, #4]
 80029a8:	f003 0203 	and.w	r2, r3, #3
 80029ac:	69fb      	ldr	r3, [r7, #28]
 80029ae:	005b      	lsls	r3, r3, #1
 80029b0:	fa02 f303 	lsl.w	r3, r2, r3
 80029b4:	69ba      	ldr	r2, [r7, #24]
 80029b6:	4313      	orrs	r3, r2
 80029b8:	61bb      	str	r3, [r7, #24]
      GPIOx->MODER = temp;
 80029ba:	687b      	ldr	r3, [r7, #4]
 80029bc:	69ba      	ldr	r2, [r7, #24]
 80029be:	601a      	str	r2, [r3, #0]

      /*--------------------- EXTI Mode Configuration ------------------------*/
      /* Configure the External Interrupt or event for the current IO */
      if((GPIO_Init->Mode & EXTI_MODE) != 0x00U)
 80029c0:	683b      	ldr	r3, [r7, #0]
 80029c2:	685b      	ldr	r3, [r3, #4]
 80029c4:	f403 3340 	and.w	r3, r3, #196608	; 0x30000
 80029c8:	2b00      	cmp	r3, #0
 80029ca:	f000 80ae 	beq.w	8002b2a <HAL_GPIO_Init+0x2e2>
      {
        /* Enable SYSCFG Clock */
        __HAL_RCC_SYSCFG_CLK_ENABLE();
 80029ce:	2300      	movs	r3, #0
 80029d0:	60fb      	str	r3, [r7, #12]
 80029d2:	4b5d      	ldr	r3, [pc, #372]	; (8002b48 <HAL_GPIO_Init+0x300>)
 80029d4:	6c5b      	ldr	r3, [r3, #68]	; 0x44
 80029d6:	4a5c      	ldr	r2, [pc, #368]	; (8002b48 <HAL_GPIO_Init+0x300>)
 80029d8:	f443 4380 	orr.w	r3, r3, #16384	; 0x4000
 80029dc:	6453      	str	r3, [r2, #68]	; 0x44
 80029de:	4b5a      	ldr	r3, [pc, #360]	; (8002b48 <HAL_GPIO_Init+0x300>)
 80029e0:	6c5b      	ldr	r3, [r3, #68]	; 0x44
 80029e2:	f403 4380 	and.w	r3, r3, #16384	; 0x4000
 80029e6:	60fb      	str	r3, [r7, #12]
 80029e8:	68fb      	ldr	r3, [r7, #12]

        temp = SYSCFG->EXTICR[position >> 2U];
 80029ea:	4a58      	ldr	r2, [pc, #352]	; (8002b4c <HAL_GPIO_Init+0x304>)
 80029ec:	69fb      	ldr	r3, [r7, #28]
 80029ee:	089b      	lsrs	r3, r3, #2
 80029f0:	3302      	adds	r3, #2
 80029f2:	f852 3023 	ldr.w	r3, [r2, r3, lsl #2]
 80029f6:	61bb      	str	r3, [r7, #24]
        temp &= ~(0x0FU << (4U * (position & 0x03U)));
 80029f8:	69fb      	ldr	r3, [r7, #28]
 80029fa:	f003 0303 	and.w	r3, r3, #3
 80029fe:	009b      	lsls	r3, r3, #2
 8002a00:	220f      	movs	r2, #15
 8002a02:	fa02 f303 	lsl.w	r3, r2, r3
 8002a06:	43db      	mvns	r3, r3
 8002a08:	69ba      	ldr	r2, [r7, #24]
 8002a0a:	4013      	ands	r3, r2
 8002a0c:	61bb      	str	r3, [r7, #24]
        temp |= ((uint32_t)(GPIO_GET_INDEX(GPIOx)) << (4U * (position & 0x03U)));
 8002a0e:	687b      	ldr	r3, [r7, #4]
 8002a10:	4a4f      	ldr	r2, [pc, #316]	; (8002b50 <HAL_GPIO_Init+0x308>)
 8002a12:	4293      	cmp	r3, r2
 8002a14:	d025      	beq.n	8002a62 <HAL_GPIO_Init+0x21a>
 8002a16:	687b      	ldr	r3, [r7, #4]
 8002a18:	4a4e      	ldr	r2, [pc, #312]	; (8002b54 <HAL_GPIO_Init+0x30c>)
 8002a1a:	4293      	cmp	r3, r2
 8002a1c:	d01f      	beq.n	8002a5e <HAL_GPIO_Init+0x216>
 8002a1e:	687b      	ldr	r3, [r7, #4]
 8002a20:	4a4d      	ldr	r2, [pc, #308]	; (8002b58 <HAL_GPIO_Init+0x310>)
 8002a22:	4293      	cmp	r3, r2
 8002a24:	d019      	beq.n	8002a5a <HAL_GPIO_Init+0x212>
 8002a26:	687b      	ldr	r3, [r7, #4]
 8002a28:	4a4c      	ldr	r2, [pc, #304]	; (8002b5c <HAL_GPIO_Init+0x314>)
 8002a2a:	4293      	cmp	r3, r2
 8002a2c:	d013      	beq.n	8002a56 <HAL_GPIO_Init+0x20e>
 8002a2e:	687b      	ldr	r3, [r7, #4]
 8002a30:	4a4b      	ldr	r2, [pc, #300]	; (8002b60 <HAL_GPIO_Init+0x318>)
 8002a32:	4293      	cmp	r3, r2
 8002a34:	d00d      	beq.n	8002a52 <HAL_GPIO_Init+0x20a>
 8002a36:	687b      	ldr	r3, [r7, #4]
 8002a38:	4a4a      	ldr	r2, [pc, #296]	; (8002b64 <HAL_GPIO_Init+0x31c>)
 8002a3a:	4293      	cmp	r3, r2
 8002a3c:	d007      	beq.n	8002a4e <HAL_GPIO_Init+0x206>
 8002a3e:	687b      	ldr	r3, [r7, #4]
 8002a40:	4a49      	ldr	r2, [pc, #292]	; (8002b68 <HAL_GPIO_Init+0x320>)
 8002a42:	4293      	cmp	r3, r2
 8002a44:	d101      	bne.n	8002a4a <HAL_GPIO_Init+0x202>
 8002a46:	2306      	movs	r3, #6
 8002a48:	e00c      	b.n	8002a64 <HAL_GPIO_Init+0x21c>
 8002a4a:	2307      	movs	r3, #7
 8002a4c:	e00a      	b.n	8002a64 <HAL_GPIO_Init+0x21c>
 8002a4e:	2305      	movs	r3, #5
 8002a50:	e008      	b.n	8002a64 <HAL_GPIO_Init+0x21c>
 8002a52:	2304      	movs	r3, #4
 8002a54:	e006      	b.n	8002a64 <HAL_GPIO_Init+0x21c>
 8002a56:	2303      	movs	r3, #3
 8002a58:	e004      	b.n	8002a64 <HAL_GPIO_Init+0x21c>
 8002a5a:	2302      	movs	r3, #2
 8002a5c:	e002      	b.n	8002a64 <HAL_GPIO_Init+0x21c>
 8002a5e:	2301      	movs	r3, #1
 8002a60:	e000      	b.n	8002a64 <HAL_GPIO_Init+0x21c>
 8002a62:	2300      	movs	r3, #0
 8002a64:	69fa      	ldr	r2, [r7, #28]
 8002a66:	f002 0203 	and.w	r2, r2, #3
 8002a6a:	0092      	lsls	r2, r2, #2
 8002a6c:	4093      	lsls	r3, r2
 8002a6e:	69ba      	ldr	r2, [r7, #24]
 8002a70:	4313      	orrs	r3, r2
 8002a72:	61bb      	str	r3, [r7, #24]
        SYSCFG->EXTICR[position >> 2U] = temp;
 8002a74:	4935      	ldr	r1, [pc, #212]	; (8002b4c <HAL_GPIO_Init+0x304>)
 8002a76:	69fb      	ldr	r3, [r7, #28]
 8002a78:	089b      	lsrs	r3, r3, #2
 8002a7a:	3302      	adds	r3, #2
 8002a7c:	69ba      	ldr	r2, [r7, #24]
 8002a7e:	f841 2023 	str.w	r2, [r1, r3, lsl #2]

        /* Clear EXTI line configuration */
        temp = EXTI->IMR;
 8002a82:	4b3a      	ldr	r3, [pc, #232]	; (8002b6c <HAL_GPIO_Init+0x324>)
 8002a84:	681b      	ldr	r3, [r3, #0]
 8002a86:	61bb      	str	r3, [r7, #24]
        temp &= ~((uint32_t)iocurrent);
 8002a88:	693b      	ldr	r3, [r7, #16]
 8002a8a:	43db      	mvns	r3, r3
 8002a8c:	69ba      	ldr	r2, [r7, #24]
 8002a8e:	4013      	ands	r3, r2
 8002a90:	61bb      	str	r3, [r7, #24]
        if((GPIO_Init->Mode & EXTI_IT) != 0x00U)
 8002a92:	683b      	ldr	r3, [r7, #0]
 8002a94:	685b      	ldr	r3, [r3, #4]
 8002a96:	f403 3380 	and.w	r3, r3, #65536	; 0x10000
 8002a9a:	2b00      	cmp	r3, #0
 8002a9c:	d003      	beq.n	8002aa6 <HAL_GPIO_Init+0x25e>
        {
          temp |= iocurrent;
 8002a9e:	69ba      	ldr	r2, [r7, #24]
 8002aa0:	693b      	ldr	r3, [r7, #16]
 8002aa2:	4313      	orrs	r3, r2
 8002aa4:	61bb      	str	r3, [r7, #24]
        }
        EXTI->IMR = temp;
 8002aa6:	4a31      	ldr	r2, [pc, #196]	; (8002b6c <HAL_GPIO_Init+0x324>)
 8002aa8:	69bb      	ldr	r3, [r7, #24]
 8002aaa:	6013      	str	r3, [r2, #0]

        temp = EXTI->EMR;
 8002aac:	4b2f      	ldr	r3, [pc, #188]	; (8002b6c <HAL_GPIO_Init+0x324>)
 8002aae:	685b      	ldr	r3, [r3, #4]
 8002ab0:	61bb      	str	r3, [r7, #24]
        temp &= ~((uint32_t)iocurrent);
 8002ab2:	693b      	ldr	r3, [r7, #16]
 8002ab4:	43db      	mvns	r3, r3
 8002ab6:	69ba      	ldr	r2, [r7, #24]
 8002ab8:	4013      	ands	r3, r2
 8002aba:	61bb      	str	r3, [r7, #24]
        if((GPIO_Init->Mode & EXTI_EVT) != 0x00U)
 8002abc:	683b      	ldr	r3, [r7, #0]
 8002abe:	685b      	ldr	r3, [r3, #4]
 8002ac0:	f403 3300 	and.w	r3, r3, #131072	; 0x20000
 8002ac4:	2b00      	cmp	r3, #0
 8002ac6:	d003      	beq.n	8002ad0 <HAL_GPIO_Init+0x288>
        {
          temp |= iocurrent;
 8002ac8:	69ba      	ldr	r2, [r7, #24]
 8002aca:	693b      	ldr	r3, [r7, #16]
 8002acc:	4313      	orrs	r3, r2
 8002ace:	61bb      	str	r3, [r7, #24]
        }
        EXTI->EMR = temp;
 8002ad0:	4a26      	ldr	r2, [pc, #152]	; (8002b6c <HAL_GPIO_Init+0x324>)
 8002ad2:	69bb      	ldr	r3, [r7, #24]
 8002ad4:	6053      	str	r3, [r2, #4]

        /* Clear Rising Falling edge configuration */
        temp = EXTI->RTSR;
 8002ad6:	4b25      	ldr	r3, [pc, #148]	; (8002b6c <HAL_GPIO_Init+0x324>)
 8002ad8:	689b      	ldr	r3, [r3, #8]
 8002ada:	61bb      	str	r3, [r7, #24]
        temp &= ~((uint32_t)iocurrent);
 8002adc:	693b      	ldr	r3, [r7, #16]
 8002ade:	43db      	mvns	r3, r3
 8002ae0:	69ba      	ldr	r2, [r7, #24]
 8002ae2:	4013      	ands	r3, r2
 8002ae4:	61bb      	str	r3, [r7, #24]
        if((GPIO_Init->Mode & TRIGGER_RISING) != 0x00U)
 8002ae6:	683b      	ldr	r3, [r7, #0]
 8002ae8:	685b      	ldr	r3, [r3, #4]
 8002aea:	f403 1380 	and.w	r3, r3, #1048576	; 0x100000
 8002aee:	2b00      	cmp	r3, #0
 8002af0:	d003      	beq.n	8002afa <HAL_GPIO_Init+0x2b2>
        {
          temp |= iocurrent;
 8002af2:	69ba      	ldr	r2, [r7, #24]
 8002af4:	693b      	ldr	r3, [r7, #16]
 8002af6:	4313      	orrs	r3, r2
 8002af8:	61bb      	str	r3, [r7, #24]
        }
        EXTI->RTSR = temp;
 8002afa:	4a1c      	ldr	r2, [pc, #112]	; (8002b6c <HAL_GPIO_Init+0x324>)
 8002afc:	69bb      	ldr	r3, [r7, #24]
 8002afe:	6093      	str	r3, [r2, #8]

        temp = EXTI->FTSR;
 8002b00:	4b1a      	ldr	r3, [pc, #104]	; (8002b6c <HAL_GPIO_Init+0x324>)
 8002b02:	68db      	ldr	r3, [r3, #12]
 8002b04:	61bb      	str	r3, [r7, #24]
        temp &= ~((uint32_t)iocurrent);
 8002b06:	693b      	ldr	r3, [r7, #16]
 8002b08:	43db      	mvns	r3, r3
 8002b0a:	69ba      	ldr	r2, [r7, #24]
 8002b0c:	4013      	ands	r3, r2
 8002b0e:	61bb      	str	r3, [r7, #24]
        if((GPIO_Init->Mode & TRIGGER_FALLING) != 0x00U)
 8002b10:	683b      	ldr	r3, [r7, #0]
 8002b12:	685b      	ldr	r3, [r3, #4]
 8002b14:	f403 1300 	and.w	r3, r3, #2097152	; 0x200000
 8002b18:	2b00      	cmp	r3, #0
 8002b1a:	d003      	beq.n	8002b24 <HAL_GPIO_Init+0x2dc>
        {
          temp |= iocurrent;
 8002b1c:	69ba      	ldr	r2, [r7, #24]
 8002b1e:	693b      	ldr	r3, [r7, #16]
 8002b20:	4313      	orrs	r3, r2
 8002b22:	61bb      	str	r3, [r7, #24]
        }
        EXTI->FTSR = temp;
 8002b24:	4a11      	ldr	r2, [pc, #68]	; (8002b6c <HAL_GPIO_Init+0x324>)
 8002b26:	69bb      	ldr	r3, [r7, #24]
 8002b28:	60d3      	str	r3, [r2, #12]
  for(position = 0U; position < GPIO_NUMBER; position++)
 8002b2a:	69fb      	ldr	r3, [r7, #28]
 8002b2c:	3301      	adds	r3, #1
 8002b2e:	61fb      	str	r3, [r7, #28]
 8002b30:	69fb      	ldr	r3, [r7, #28]
 8002b32:	2b0f      	cmp	r3, #15
 8002b34:	f67f ae96 	bls.w	8002864 <HAL_GPIO_Init+0x1c>
      }
    }
  }
}
 8002b38:	bf00      	nop
 8002b3a:	bf00      	nop
 8002b3c:	3724      	adds	r7, #36	; 0x24
 8002b3e:	46bd      	mov	sp, r7
 8002b40:	f85d 7b04 	ldr.w	r7, [sp], #4
 8002b44:	4770      	bx	lr
 8002b46:	bf00      	nop
 8002b48:	40023800 	.word	0x40023800
 8002b4c:	40013800 	.word	0x40013800
 8002b50:	40020000 	.word	0x40020000
 8002b54:	40020400 	.word	0x40020400
 8002b58:	40020800 	.word	0x40020800
 8002b5c:	40020c00 	.word	0x40020c00
 8002b60:	40021000 	.word	0x40021000
 8002b64:	40021400 	.word	0x40021400
 8002b68:	40021800 	.word	0x40021800
 8002b6c:	40013c00 	.word	0x40013c00

08002b70 <HAL_GPIO_WritePin>:
  *            @arg GPIO_PIN_RESET: to clear the port pin
  *            @arg GPIO_PIN_SET: to set the port pin
  * @retval None
  */
void HAL_GPIO_WritePin(GPIO_TypeDef* GPIOx, uint16_t GPIO_Pin, GPIO_PinState PinState)
{
 8002b70:	b480      	push	{r7}
 8002b72:	b083      	sub	sp, #12
 8002b74:	af00      	add	r7, sp, #0
 8002b76:	6078      	str	r0, [r7, #4]
 8002b78:	460b      	mov	r3, r1
 8002b7a:	807b      	strh	r3, [r7, #2]
 8002b7c:	4613      	mov	r3, r2
 8002b7e:	707b      	strb	r3, [r7, #1]
  /* Check the parameters */
  assert_param(IS_GPIO_PIN(GPIO_Pin));
  assert_param(IS_GPIO_PIN_ACTION(PinState));

  if(PinState != GPIO_PIN_RESET)
 8002b80:	787b      	ldrb	r3, [r7, #1]
 8002b82:	2b00      	cmp	r3, #0
 8002b84:	d003      	beq.n	8002b8e <HAL_GPIO_WritePin+0x1e>
  {
    GPIOx->BSRR = GPIO_Pin;
 8002b86:	887a      	ldrh	r2, [r7, #2]
 8002b88:	687b      	ldr	r3, [r7, #4]
 8002b8a:	619a      	str	r2, [r3, #24]
  }
  else
  {
    GPIOx->BSRR = (uint32_t)GPIO_Pin << 16U;
  }
}
 8002b8c:	e003      	b.n	8002b96 <HAL_GPIO_WritePin+0x26>
    GPIOx->BSRR = (uint32_t)GPIO_Pin << 16U;
 8002b8e:	887b      	ldrh	r3, [r7, #2]
 8002b90:	041a      	lsls	r2, r3, #16
 8002b92:	687b      	ldr	r3, [r7, #4]
 8002b94:	619a      	str	r2, [r3, #24]
}
 8002b96:	bf00      	nop
 8002b98:	370c      	adds	r7, #12
 8002b9a:	46bd      	mov	sp, r7
 8002b9c:	f85d 7b04 	ldr.w	r7, [sp], #4
 8002ba0:	4770      	bx	lr
	...

08002ba4 <HAL_RCC_ClockConfig>:
  *         HPRE[3:0] bits to ensure that HCLK not exceed the maximum allowed frequency
  *         (for more details refer to section above "Initialization/de-initialization functions")
  * @retval None
  */
HAL_StatusTypeDef HAL_RCC_ClockConfig(RCC_ClkInitTypeDef  *RCC_ClkInitStruct, uint32_t FLatency)
{
 8002ba4:	b580      	push	{r7, lr}
 8002ba6:	b084      	sub	sp, #16
 8002ba8:	af00      	add	r7, sp, #0
 8002baa:	6078      	str	r0, [r7, #4]
 8002bac:	6039      	str	r1, [r7, #0]
  uint32_t tickstart;

  /* Check Null pointer */
  if(RCC_ClkInitStruct == NULL)
 8002bae:	687b      	ldr	r3, [r7, #4]
 8002bb0:	2b00      	cmp	r3, #0
 8002bb2:	d101      	bne.n	8002bb8 <HAL_RCC_ClockConfig+0x14>
  {
    return HAL_ERROR;
 8002bb4:	2301      	movs	r3, #1
 8002bb6:	e0cc      	b.n	8002d52 <HAL_RCC_ClockConfig+0x1ae>
  /* To correctly read data from FLASH memory, the number of wait states (LATENCY)
    must be correctly programmed according to the frequency of the CPU clock
    (HCLK) and the supply voltage of the device. */

  /* Increasing the number of wait states because of higher CPU frequency */
  if(FLatency > __HAL_FLASH_GET_LATENCY())
 8002bb8:	4b68      	ldr	r3, [pc, #416]	; (8002d5c <HAL_RCC_ClockConfig+0x1b8>)
 8002bba:	681b      	ldr	r3, [r3, #0]
 8002bbc:	f003 030f 	and.w	r3, r3, #15
 8002bc0:	683a      	ldr	r2, [r7, #0]
 8002bc2:	429a      	cmp	r2, r3
 8002bc4:	d90c      	bls.n	8002be0 <HAL_RCC_ClockConfig+0x3c>
  {
    /* Program the new number of wait states to the LATENCY bits in the FLASH_ACR register */
    __HAL_FLASH_SET_LATENCY(FLatency);
 8002bc6:	4b65      	ldr	r3, [pc, #404]	; (8002d5c <HAL_RCC_ClockConfig+0x1b8>)
 8002bc8:	683a      	ldr	r2, [r7, #0]
 8002bca:	b2d2      	uxtb	r2, r2
 8002bcc:	701a      	strb	r2, [r3, #0]

    /* Check that the new number of wait states is taken into account to access the Flash
    memory by reading the FLASH_ACR register */
    if(__HAL_FLASH_GET_LATENCY() != FLatency)
 8002bce:	4b63      	ldr	r3, [pc, #396]	; (8002d5c <HAL_RCC_ClockConfig+0x1b8>)
 8002bd0:	681b      	ldr	r3, [r3, #0]
 8002bd2:	f003 030f 	and.w	r3, r3, #15
 8002bd6:	683a      	ldr	r2, [r7, #0]
 8002bd8:	429a      	cmp	r2, r3
 8002bda:	d001      	beq.n	8002be0 <HAL_RCC_ClockConfig+0x3c>
    {
      return HAL_ERROR;
 8002bdc:	2301      	movs	r3, #1
 8002bde:	e0b8      	b.n	8002d52 <HAL_RCC_ClockConfig+0x1ae>
    }
  }

  /*-------------------------- HCLK Configuration --------------------------*/
  if(((RCC_ClkInitStruct->ClockType) & RCC_CLOCKTYPE_HCLK) == RCC_CLOCKTYPE_HCLK)
 8002be0:	687b      	ldr	r3, [r7, #4]
 8002be2:	681b      	ldr	r3, [r3, #0]
 8002be4:	f003 0302 	and.w	r3, r3, #2
 8002be8:	2b00      	cmp	r3, #0
 8002bea:	d020      	beq.n	8002c2e <HAL_RCC_ClockConfig+0x8a>
  {
    /* Set the highest APBx dividers in order to ensure that we do not go through
       a non-spec phase whatever we decrease or increase HCLK. */
    if(((RCC_ClkInitStruct->ClockType) & RCC_CLOCKTYPE_PCLK1) == RCC_CLOCKTYPE_PCLK1)
 8002bec:	687b      	ldr	r3, [r7, #4]
 8002bee:	681b      	ldr	r3, [r3, #0]
 8002bf0:	f003 0304 	and.w	r3, r3, #4
 8002bf4:	2b00      	cmp	r3, #0
 8002bf6:	d005      	beq.n	8002c04 <HAL_RCC_ClockConfig+0x60>
    {
      MODIFY_REG(RCC->CFGR, RCC_CFGR_PPRE1, RCC_HCLK_DIV16);
 8002bf8:	4b59      	ldr	r3, [pc, #356]	; (8002d60 <HAL_RCC_ClockConfig+0x1bc>)
 8002bfa:	689b      	ldr	r3, [r3, #8]
 8002bfc:	4a58      	ldr	r2, [pc, #352]	; (8002d60 <HAL_RCC_ClockConfig+0x1bc>)
 8002bfe:	f443 53e0 	orr.w	r3, r3, #7168	; 0x1c00
 8002c02:	6093      	str	r3, [r2, #8]
    }

    if(((RCC_ClkInitStruct->ClockType) & RCC_CLOCKTYPE_PCLK2) == RCC_CLOCKTYPE_PCLK2)
 8002c04:	687b      	ldr	r3, [r7, #4]
 8002c06:	681b      	ldr	r3, [r3, #0]
 8002c08:	f003 0308 	and.w	r3, r3, #8
 8002c0c:	2b00      	cmp	r3, #0
 8002c0e:	d005      	beq.n	8002c1c <HAL_RCC_ClockConfig+0x78>
    {
      MODIFY_REG(RCC->CFGR, RCC_CFGR_PPRE2, (RCC_HCLK_DIV16 << 3));
 8002c10:	4b53      	ldr	r3, [pc, #332]	; (8002d60 <HAL_RCC_ClockConfig+0x1bc>)
 8002c12:	689b      	ldr	r3, [r3, #8]
 8002c14:	4a52      	ldr	r2, [pc, #328]	; (8002d60 <HAL_RCC_ClockConfig+0x1bc>)
 8002c16:	f443 4360 	orr.w	r3, r3, #57344	; 0xe000
 8002c1a:	6093      	str	r3, [r2, #8]
    }

    assert_param(IS_RCC_HCLK(RCC_ClkInitStruct->AHBCLKDivider));
    MODIFY_REG(RCC->CFGR, RCC_CFGR_HPRE, RCC_ClkInitStruct->AHBCLKDivider);
 8002c1c:	4b50      	ldr	r3, [pc, #320]	; (8002d60 <HAL_RCC_ClockConfig+0x1bc>)
 8002c1e:	689b      	ldr	r3, [r3, #8]
 8002c20:	f023 02f0 	bic.w	r2, r3, #240	; 0xf0
 8002c24:	687b      	ldr	r3, [r7, #4]
 8002c26:	689b      	ldr	r3, [r3, #8]
 8002c28:	494d      	ldr	r1, [pc, #308]	; (8002d60 <HAL_RCC_ClockConfig+0x1bc>)
 8002c2a:	4313      	orrs	r3, r2
 8002c2c:	608b      	str	r3, [r1, #8]
  }

  /*------------------------- SYSCLK Configuration ---------------------------*/
  if(((RCC_ClkInitStruct->ClockType) & RCC_CLOCKTYPE_SYSCLK) == RCC_CLOCKTYPE_SYSCLK)
 8002c2e:	687b      	ldr	r3, [r7, #4]
 8002c30:	681b      	ldr	r3, [r3, #0]
 8002c32:	f003 0301 	and.w	r3, r3, #1
 8002c36:	2b00      	cmp	r3, #0
 8002c38:	d044      	beq.n	8002cc4 <HAL_RCC_ClockConfig+0x120>
  {
    assert_param(IS_RCC_SYSCLKSOURCE(RCC_ClkInitStruct->SYSCLKSource));

    /* HSE is selected as System Clock Source */
    if(RCC_ClkInitStruct->SYSCLKSource == RCC_SYSCLKSOURCE_HSE)
 8002c3a:	687b      	ldr	r3, [r7, #4]
 8002c3c:	685b      	ldr	r3, [r3, #4]
 8002c3e:	2b01      	cmp	r3, #1
 8002c40:	d107      	bne.n	8002c52 <HAL_RCC_ClockConfig+0xae>
    {
      /* Check the HSE ready flag */
      if(__HAL_RCC_GET_FLAG(RCC_FLAG_HSERDY) == RESET)
 8002c42:	4b47      	ldr	r3, [pc, #284]	; (8002d60 <HAL_RCC_ClockConfig+0x1bc>)
 8002c44:	681b      	ldr	r3, [r3, #0]
 8002c46:	f403 3300 	and.w	r3, r3, #131072	; 0x20000
 8002c4a:	2b00      	cmp	r3, #0
 8002c4c:	d119      	bne.n	8002c82 <HAL_RCC_ClockConfig+0xde>
      {
        return HAL_ERROR;
 8002c4e:	2301      	movs	r3, #1
 8002c50:	e07f      	b.n	8002d52 <HAL_RCC_ClockConfig+0x1ae>
      }
    }
    /* PLL is selected as System Clock Source */
    else if((RCC_ClkInitStruct->SYSCLKSource == RCC_SYSCLKSOURCE_PLLCLK)   ||
 8002c52:	687b      	ldr	r3, [r7, #4]
 8002c54:	685b      	ldr	r3, [r3, #4]
 8002c56:	2b02      	cmp	r3, #2
 8002c58:	d003      	beq.n	8002c62 <HAL_RCC_ClockConfig+0xbe>
            (RCC_ClkInitStruct->SYSCLKSource == RCC_SYSCLKSOURCE_PLLRCLK))
 8002c5a:	687b      	ldr	r3, [r7, #4]
 8002c5c:	685b      	ldr	r3, [r3, #4]
    else if((RCC_ClkInitStruct->SYSCLKSource == RCC_SYSCLKSOURCE_PLLCLK)   ||
 8002c5e:	2b03      	cmp	r3, #3
 8002c60:	d107      	bne.n	8002c72 <HAL_RCC_ClockConfig+0xce>
    {
      /* Check the PLL ready flag */
      if(__HAL_RCC_GET_FLAG(RCC_FLAG_PLLRDY) == RESET)
 8002c62:	4b3f      	ldr	r3, [pc, #252]	; (8002d60 <HAL_RCC_ClockConfig+0x1bc>)
 8002c64:	681b      	ldr	r3, [r3, #0]
 8002c66:	f003 7300 	and.w	r3, r3, #33554432	; 0x2000000
 8002c6a:	2b00      	cmp	r3, #0
 8002c6c:	d109      	bne.n	8002c82 <HAL_RCC_ClockConfig+0xde>
      {
        return HAL_ERROR;
 8002c6e:	2301      	movs	r3, #1
 8002c70:	e06f      	b.n	8002d52 <HAL_RCC_ClockConfig+0x1ae>
    }
    /* HSI is selected as System Clock Source */
    else
    {
      /* Check the HSI ready flag */
      if(__HAL_RCC_GET_FLAG(RCC_FLAG_HSIRDY) == RESET)
 8002c72:	4b3b      	ldr	r3, [pc, #236]	; (8002d60 <HAL_RCC_ClockConfig+0x1bc>)
 8002c74:	681b      	ldr	r3, [r3, #0]
 8002c76:	f003 0302 	and.w	r3, r3, #2
 8002c7a:	2b00      	cmp	r3, #0
 8002c7c:	d101      	bne.n	8002c82 <HAL_RCC_ClockConfig+0xde>
      {
        return HAL_ERROR;
 8002c7e:	2301      	movs	r3, #1
 8002c80:	e067      	b.n	8002d52 <HAL_RCC_ClockConfig+0x1ae>
      }
    }

    __HAL_RCC_SYSCLK_CONFIG(RCC_ClkInitStruct->SYSCLKSource);
 8002c82:	4b37      	ldr	r3, [pc, #220]	; (8002d60 <HAL_RCC_ClockConfig+0x1bc>)
 8002c84:	689b      	ldr	r3, [r3, #8]
 8002c86:	f023 0203 	bic.w	r2, r3, #3
 8002c8a:	687b      	ldr	r3, [r7, #4]
 8002c8c:	685b      	ldr	r3, [r3, #4]
 8002c8e:	4934      	ldr	r1, [pc, #208]	; (8002d60 <HAL_RCC_ClockConfig+0x1bc>)
 8002c90:	4313      	orrs	r3, r2
 8002c92:	608b      	str	r3, [r1, #8]

    /* Get Start Tick */
    tickstart = HAL_GetTick();
 8002c94:	f7ff fc96 	bl	80025c4 <HAL_GetTick>
 8002c98:	60f8      	str	r0, [r7, #12]

    while (__HAL_RCC_GET_SYSCLK_SOURCE() != (RCC_ClkInitStruct->SYSCLKSource << RCC_CFGR_SWS_Pos))
 8002c9a:	e00a      	b.n	8002cb2 <HAL_RCC_ClockConfig+0x10e>
    {
      if ((HAL_GetTick() - tickstart) > CLOCKSWITCH_TIMEOUT_VALUE)
 8002c9c:	f7ff fc92 	bl	80025c4 <HAL_GetTick>
 8002ca0:	4602      	mov	r2, r0
 8002ca2:	68fb      	ldr	r3, [r7, #12]
 8002ca4:	1ad3      	subs	r3, r2, r3
 8002ca6:	f241 3288 	movw	r2, #5000	; 0x1388
 8002caa:	4293      	cmp	r3, r2
 8002cac:	d901      	bls.n	8002cb2 <HAL_RCC_ClockConfig+0x10e>
      {
        return HAL_TIMEOUT;
 8002cae:	2303      	movs	r3, #3
 8002cb0:	e04f      	b.n	8002d52 <HAL_RCC_ClockConfig+0x1ae>
    while (__HAL_RCC_GET_SYSCLK_SOURCE() != (RCC_ClkInitStruct->SYSCLKSource << RCC_CFGR_SWS_Pos))
 8002cb2:	4b2b      	ldr	r3, [pc, #172]	; (8002d60 <HAL_RCC_ClockConfig+0x1bc>)
 8002cb4:	689b      	ldr	r3, [r3, #8]
 8002cb6:	f003 020c 	and.w	r2, r3, #12
 8002cba:	687b      	ldr	r3, [r7, #4]
 8002cbc:	685b      	ldr	r3, [r3, #4]
 8002cbe:	009b      	lsls	r3, r3, #2
 8002cc0:	429a      	cmp	r2, r3
 8002cc2:	d1eb      	bne.n	8002c9c <HAL_RCC_ClockConfig+0xf8>
      }
    }
  }

  /* Decreasing the number of wait states because of lower CPU frequency */
  if(FLatency < __HAL_FLASH_GET_LATENCY())
 8002cc4:	4b25      	ldr	r3, [pc, #148]	; (8002d5c <HAL_RCC_ClockConfig+0x1b8>)
 8002cc6:	681b      	ldr	r3, [r3, #0]
 8002cc8:	f003 030f 	and.w	r3, r3, #15
 8002ccc:	683a      	ldr	r2, [r7, #0]
 8002cce:	429a      	cmp	r2, r3
 8002cd0:	d20c      	bcs.n	8002cec <HAL_RCC_ClockConfig+0x148>
  {
     /* Program the new number of wait states to the LATENCY bits in the FLASH_ACR register */
    __HAL_FLASH_SET_LATENCY(FLatency);
 8002cd2:	4b22      	ldr	r3, [pc, #136]	; (8002d5c <HAL_RCC_ClockConfig+0x1b8>)
 8002cd4:	683a      	ldr	r2, [r7, #0]
 8002cd6:	b2d2      	uxtb	r2, r2
 8002cd8:	701a      	strb	r2, [r3, #0]

    /* Check that the new number of wait states is taken into account to access the Flash
    memory by reading the FLASH_ACR register */
    if(__HAL_FLASH_GET_LATENCY() != FLatency)
 8002cda:	4b20      	ldr	r3, [pc, #128]	; (8002d5c <HAL_RCC_ClockConfig+0x1b8>)
 8002cdc:	681b      	ldr	r3, [r3, #0]
 8002cde:	f003 030f 	and.w	r3, r3, #15
 8002ce2:	683a      	ldr	r2, [r7, #0]
 8002ce4:	429a      	cmp	r2, r3
 8002ce6:	d001      	beq.n	8002cec <HAL_RCC_ClockConfig+0x148>
    {
      return HAL_ERROR;
 8002ce8:	2301      	movs	r3, #1
 8002cea:	e032      	b.n	8002d52 <HAL_RCC_ClockConfig+0x1ae>
    }
  }

  /*-------------------------- PCLK1 Configuration ---------------------------*/
  if(((RCC_ClkInitStruct->ClockType) & RCC_CLOCKTYPE_PCLK1) == RCC_CLOCKTYPE_PCLK1)
 8002cec:	687b      	ldr	r3, [r7, #4]
 8002cee:	681b      	ldr	r3, [r3, #0]
 8002cf0:	f003 0304 	and.w	r3, r3, #4
 8002cf4:	2b00      	cmp	r3, #0
 8002cf6:	d008      	beq.n	8002d0a <HAL_RCC_ClockConfig+0x166>
  {
    assert_param(IS_RCC_PCLK(RCC_ClkInitStruct->APB1CLKDivider));
    MODIFY_REG(RCC->CFGR, RCC_CFGR_PPRE1, RCC_ClkInitStruct->APB1CLKDivider);
 8002cf8:	4b19      	ldr	r3, [pc, #100]	; (8002d60 <HAL_RCC_ClockConfig+0x1bc>)
 8002cfa:	689b      	ldr	r3, [r3, #8]
 8002cfc:	f423 52e0 	bic.w	r2, r3, #7168	; 0x1c00
 8002d00:	687b      	ldr	r3, [r7, #4]
 8002d02:	68db      	ldr	r3, [r3, #12]
 8002d04:	4916      	ldr	r1, [pc, #88]	; (8002d60 <HAL_RCC_ClockConfig+0x1bc>)
 8002d06:	4313      	orrs	r3, r2
 8002d08:	608b      	str	r3, [r1, #8]
  }

  /*-------------------------- PCLK2 Configuration ---------------------------*/
  if(((RCC_ClkInitStruct->ClockType) & RCC_CLOCKTYPE_PCLK2) == RCC_CLOCKTYPE_PCLK2)
 8002d0a:	687b      	ldr	r3, [r7, #4]
 8002d0c:	681b      	ldr	r3, [r3, #0]
 8002d0e:	f003 0308 	and.w	r3, r3, #8
 8002d12:	2b00      	cmp	r3, #0
 8002d14:	d009      	beq.n	8002d2a <HAL_RCC_ClockConfig+0x186>
  {
    assert_param(IS_RCC_PCLK(RCC_ClkInitStruct->APB2CLKDivider));
    MODIFY_REG(RCC->CFGR, RCC_CFGR_PPRE2, ((RCC_ClkInitStruct->APB2CLKDivider) << 3U));
 8002d16:	4b12      	ldr	r3, [pc, #72]	; (8002d60 <HAL_RCC_ClockConfig+0x1bc>)
 8002d18:	689b      	ldr	r3, [r3, #8]
 8002d1a:	f423 4260 	bic.w	r2, r3, #57344	; 0xe000
 8002d1e:	687b      	ldr	r3, [r7, #4]
 8002d20:	691b      	ldr	r3, [r3, #16]
 8002d22:	00db      	lsls	r3, r3, #3
 8002d24:	490e      	ldr	r1, [pc, #56]	; (8002d60 <HAL_RCC_ClockConfig+0x1bc>)
 8002d26:	4313      	orrs	r3, r2
 8002d28:	608b      	str	r3, [r1, #8]
  }

  /* Update the SystemCoreClock global variable */
  SystemCoreClock = HAL_RCC_GetSysClockFreq() >> AHBPrescTable[(RCC->CFGR & RCC_CFGR_HPRE)>> RCC_CFGR_HPRE_Pos];
 8002d2a:	f000 f855 	bl	8002dd8 <HAL_RCC_GetSysClockFreq>
 8002d2e:	4602      	mov	r2, r0
 8002d30:	4b0b      	ldr	r3, [pc, #44]	; (8002d60 <HAL_RCC_ClockConfig+0x1bc>)
 8002d32:	689b      	ldr	r3, [r3, #8]
 8002d34:	091b      	lsrs	r3, r3, #4
 8002d36:	f003 030f 	and.w	r3, r3, #15
 8002d3a:	490a      	ldr	r1, [pc, #40]	; (8002d64 <HAL_RCC_ClockConfig+0x1c0>)
 8002d3c:	5ccb      	ldrb	r3, [r1, r3]
 8002d3e:	fa22 f303 	lsr.w	r3, r2, r3
 8002d42:	4a09      	ldr	r2, [pc, #36]	; (8002d68 <HAL_RCC_ClockConfig+0x1c4>)
 8002d44:	6013      	str	r3, [r2, #0]

  /* Configure the source of time base considering new system clocks settings */
  HAL_InitTick (uwTickPrio);
 8002d46:	4b09      	ldr	r3, [pc, #36]	; (8002d6c <HAL_RCC_ClockConfig+0x1c8>)
 8002d48:	681b      	ldr	r3, [r3, #0]
 8002d4a:	4618      	mov	r0, r3
 8002d4c:	f7ff fbf6 	bl	800253c <HAL_InitTick>

  return HAL_OK;
 8002d50:	2300      	movs	r3, #0
}
 8002d52:	4618      	mov	r0, r3
 8002d54:	3710      	adds	r7, #16
 8002d56:	46bd      	mov	sp, r7
 8002d58:	bd80      	pop	{r7, pc}
 8002d5a:	bf00      	nop
 8002d5c:	40023c00 	.word	0x40023c00
 8002d60:	40023800 	.word	0x40023800
 8002d64:	08008cc8 	.word	0x08008cc8
 8002d68:	2000001c 	.word	0x2000001c
 8002d6c:	20000020 	.word	0x20000020

08002d70 <HAL_RCC_GetHCLKFreq>:
  * @note   The SystemCoreClock CMSIS variable is used to store System Clock Frequency
  *         and updated within this function
  * @retval HCLK frequency
  */
uint32_t HAL_RCC_GetHCLKFreq(void)
{
 8002d70:	b480      	push	{r7}
 8002d72:	af00      	add	r7, sp, #0
  return SystemCoreClock;
 8002d74:	4b03      	ldr	r3, [pc, #12]	; (8002d84 <HAL_RCC_GetHCLKFreq+0x14>)
 8002d76:	681b      	ldr	r3, [r3, #0]
}
 8002d78:	4618      	mov	r0, r3
 8002d7a:	46bd      	mov	sp, r7
 8002d7c:	f85d 7b04 	ldr.w	r7, [sp], #4
 8002d80:	4770      	bx	lr
 8002d82:	bf00      	nop
 8002d84:	2000001c 	.word	0x2000001c

08002d88 <HAL_RCC_GetPCLK1Freq>:
  * @note   Each time PCLK1 changes, this function must be called to update the
  *         right PCLK1 value. Otherwise, any configuration based on this function will be incorrect.
  * @retval PCLK1 frequency
  */
uint32_t HAL_RCC_GetPCLK1Freq(void)
{
 8002d88:	b580      	push	{r7, lr}
 8002d8a:	af00      	add	r7, sp, #0
  /* Get HCLK source and Compute PCLK1 frequency ---------------------------*/
  return (HAL_RCC_GetHCLKFreq() >> APBPrescTable[(RCC->CFGR & RCC_CFGR_PPRE1)>> RCC_CFGR_PPRE1_Pos]);
 8002d8c:	f7ff fff0 	bl	8002d70 <HAL_RCC_GetHCLKFreq>
 8002d90:	4602      	mov	r2, r0
 8002d92:	4b05      	ldr	r3, [pc, #20]	; (8002da8 <HAL_RCC_GetPCLK1Freq+0x20>)
 8002d94:	689b      	ldr	r3, [r3, #8]
 8002d96:	0a9b      	lsrs	r3, r3, #10
 8002d98:	f003 0307 	and.w	r3, r3, #7
 8002d9c:	4903      	ldr	r1, [pc, #12]	; (8002dac <HAL_RCC_GetPCLK1Freq+0x24>)
 8002d9e:	5ccb      	ldrb	r3, [r1, r3]
 8002da0:	fa22 f303 	lsr.w	r3, r2, r3
}
 8002da4:	4618      	mov	r0, r3
 8002da6:	bd80      	pop	{r7, pc}
 8002da8:	40023800 	.word	0x40023800
 8002dac:	08008cd8 	.word	0x08008cd8

08002db0 <HAL_RCC_GetPCLK2Freq>:
  * @note   Each time PCLK2 changes, this function must be called to update the
  *         right PCLK2 value. Otherwise, any configuration based on this function will be incorrect.
  * @retval PCLK2 frequency
  */
uint32_t HAL_RCC_GetPCLK2Freq(void)
{
 8002db0:	b580      	push	{r7, lr}
 8002db2:	af00      	add	r7, sp, #0
  /* Get HCLK source and Compute PCLK2 frequency ---------------------------*/
  return (HAL_RCC_GetHCLKFreq()>> APBPrescTable[(RCC->CFGR & RCC_CFGR_PPRE2)>> RCC_CFGR_PPRE2_Pos]);
 8002db4:	f7ff ffdc 	bl	8002d70 <HAL_RCC_GetHCLKFreq>
 8002db8:	4602      	mov	r2, r0
 8002dba:	4b05      	ldr	r3, [pc, #20]	; (8002dd0 <HAL_RCC_GetPCLK2Freq+0x20>)
 8002dbc:	689b      	ldr	r3, [r3, #8]
 8002dbe:	0b5b      	lsrs	r3, r3, #13
 8002dc0:	f003 0307 	and.w	r3, r3, #7
 8002dc4:	4903      	ldr	r1, [pc, #12]	; (8002dd4 <HAL_RCC_GetPCLK2Freq+0x24>)
 8002dc6:	5ccb      	ldrb	r3, [r1, r3]
 8002dc8:	fa22 f303 	lsr.w	r3, r2, r3
}
 8002dcc:	4618      	mov	r0, r3
 8002dce:	bd80      	pop	{r7, pc}
 8002dd0:	40023800 	.word	0x40023800
 8002dd4:	08008cd8 	.word	0x08008cd8

08002dd8 <HAL_RCC_GetSysClockFreq>:
  *
  *
  * @retval SYSCLK frequency
  */
uint32_t HAL_RCC_GetSysClockFreq(void)
{
 8002dd8:	e92d 4fb0 	stmdb	sp!, {r4, r5, r7, r8, r9, sl, fp, lr}
 8002ddc:	b088      	sub	sp, #32
 8002dde:	af00      	add	r7, sp, #0
  uint32_t pllm = 0U;
 8002de0:	2300      	movs	r3, #0
 8002de2:	617b      	str	r3, [r7, #20]
  uint32_t pllvco = 0U;
 8002de4:	2300      	movs	r3, #0
 8002de6:	61fb      	str	r3, [r7, #28]
  uint32_t pllp = 0U;
 8002de8:	2300      	movs	r3, #0
 8002dea:	613b      	str	r3, [r7, #16]
  uint32_t pllr = 0U;
 8002dec:	2300      	movs	r3, #0
 8002dee:	60fb      	str	r3, [r7, #12]
  uint32_t sysclockfreq = 0U;
 8002df0:	2300      	movs	r3, #0
 8002df2:	61bb      	str	r3, [r7, #24]

  /* Get SYSCLK source -------------------------------------------------------*/
  switch (RCC->CFGR & RCC_CFGR_SWS)
 8002df4:	4bce      	ldr	r3, [pc, #824]	; (8003130 <HAL_RCC_GetSysClockFreq+0x358>)
 8002df6:	689b      	ldr	r3, [r3, #8]
 8002df8:	f003 030c 	and.w	r3, r3, #12
 8002dfc:	2b0c      	cmp	r3, #12
 8002dfe:	f200 818d 	bhi.w	800311c <HAL_RCC_GetSysClockFreq+0x344>
 8002e02:	a201      	add	r2, pc, #4	; (adr r2, 8002e08 <HAL_RCC_GetSysClockFreq+0x30>)
 8002e04:	f852 f023 	ldr.w	pc, [r2, r3, lsl #2]
 8002e08:	08002e3d 	.word	0x08002e3d
 8002e0c:	0800311d 	.word	0x0800311d
 8002e10:	0800311d 	.word	0x0800311d
 8002e14:	0800311d 	.word	0x0800311d
 8002e18:	08002e43 	.word	0x08002e43
 8002e1c:	0800311d 	.word	0x0800311d
 8002e20:	0800311d 	.word	0x0800311d
 8002e24:	0800311d 	.word	0x0800311d
 8002e28:	08002e49 	.word	0x08002e49
 8002e2c:	0800311d 	.word	0x0800311d
 8002e30:	0800311d 	.word	0x0800311d
 8002e34:	0800311d 	.word	0x0800311d
 8002e38:	08002fbd 	.word	0x08002fbd
  {
    case RCC_CFGR_SWS_HSI:  /* HSI used as system clock source */
    {
      sysclockfreq = HSI_VALUE;
 8002e3c:	4bbd      	ldr	r3, [pc, #756]	; (8003134 <HAL_RCC_GetSysClockFreq+0x35c>)
 8002e3e:	61bb      	str	r3, [r7, #24]
       break;
 8002e40:	e16f      	b.n	8003122 <HAL_RCC_GetSysClockFreq+0x34a>
    }
    case RCC_CFGR_SWS_HSE:  /* HSE used as system clock  source */
    {
      sysclockfreq = HSE_VALUE;
 8002e42:	4bbd      	ldr	r3, [pc, #756]	; (8003138 <HAL_RCC_GetSysClockFreq+0x360>)
 8002e44:	61bb      	str	r3, [r7, #24]
      break;
 8002e46:	e16c      	b.n	8003122 <HAL_RCC_GetSysClockFreq+0x34a>
    }
    case RCC_CFGR_SWS_PLL:  /* PLL/PLLP used as system clock  source */
    {
      /* PLL_VCO = (HSE_VALUE or HSI_VALUE / PLLM) * PLLN
      SYSCLK = PLL_VCO / PLLP */
      pllm = RCC->PLLCFGR & RCC_PLLCFGR_PLLM;
 8002e48:	4bb9      	ldr	r3, [pc, #740]	; (8003130 <HAL_RCC_GetSysClockFreq+0x358>)
 8002e4a:	685b      	ldr	r3, [r3, #4]
 8002e4c:	f003 033f 	and.w	r3, r3, #63	; 0x3f
 8002e50:	617b      	str	r3, [r7, #20]
      if(__HAL_RCC_GET_PLL_OSCSOURCE() != RCC_PLLSOURCE_HSI)
 8002e52:	4bb7      	ldr	r3, [pc, #732]	; (8003130 <HAL_RCC_GetSysClockFreq+0x358>)
 8002e54:	685b      	ldr	r3, [r3, #4]
 8002e56:	f403 0380 	and.w	r3, r3, #4194304	; 0x400000
 8002e5a:	2b00      	cmp	r3, #0
 8002e5c:	d053      	beq.n	8002f06 <HAL_RCC_GetSysClockFreq+0x12e>
      {
        /* HSE used as PLL clock source */
        pllvco = (uint32_t) ((((uint64_t) HSE_VALUE * ((uint64_t) ((RCC->PLLCFGR & RCC_PLLCFGR_PLLN) >> RCC_PLLCFGR_PLLN_Pos)))) / (uint64_t)pllm);
 8002e5e:	4bb4      	ldr	r3, [pc, #720]	; (8003130 <HAL_RCC_GetSysClockFreq+0x358>)
 8002e60:	685b      	ldr	r3, [r3, #4]
 8002e62:	099b      	lsrs	r3, r3, #6
 8002e64:	461a      	mov	r2, r3
 8002e66:	f04f 0300 	mov.w	r3, #0
 8002e6a:	f240 10ff 	movw	r0, #511	; 0x1ff
 8002e6e:	f04f 0100 	mov.w	r1, #0
 8002e72:	ea02 0400 	and.w	r4, r2, r0
 8002e76:	603c      	str	r4, [r7, #0]
 8002e78:	400b      	ands	r3, r1
 8002e7a:	607b      	str	r3, [r7, #4]
 8002e7c:	e9d7 4500 	ldrd	r4, r5, [r7]
 8002e80:	4620      	mov	r0, r4
 8002e82:	4629      	mov	r1, r5
 8002e84:	f04f 0200 	mov.w	r2, #0
 8002e88:	f04f 0300 	mov.w	r3, #0
 8002e8c:	014b      	lsls	r3, r1, #5
 8002e8e:	ea43 63d0 	orr.w	r3, r3, r0, lsr #27
 8002e92:	0142      	lsls	r2, r0, #5
 8002e94:	4610      	mov	r0, r2
 8002e96:	4619      	mov	r1, r3
 8002e98:	4623      	mov	r3, r4
 8002e9a:	1ac0      	subs	r0, r0, r3
 8002e9c:	462b      	mov	r3, r5
 8002e9e:	eb61 0103 	sbc.w	r1, r1, r3
 8002ea2:	f04f 0200 	mov.w	r2, #0
 8002ea6:	f04f 0300 	mov.w	r3, #0
 8002eaa:	018b      	lsls	r3, r1, #6
 8002eac:	ea43 6390 	orr.w	r3, r3, r0, lsr #26
 8002eb0:	0182      	lsls	r2, r0, #6
 8002eb2:	1a12      	subs	r2, r2, r0
 8002eb4:	eb63 0301 	sbc.w	r3, r3, r1
 8002eb8:	f04f 0000 	mov.w	r0, #0
 8002ebc:	f04f 0100 	mov.w	r1, #0
 8002ec0:	00d9      	lsls	r1, r3, #3
 8002ec2:	ea41 7152 	orr.w	r1, r1, r2, lsr #29
 8002ec6:	00d0      	lsls	r0, r2, #3
 8002ec8:	4602      	mov	r2, r0
 8002eca:	460b      	mov	r3, r1
 8002ecc:	4621      	mov	r1, r4
 8002ece:	1852      	adds	r2, r2, r1
 8002ed0:	4629      	mov	r1, r5
 8002ed2:	eb43 0101 	adc.w	r1, r3, r1
 8002ed6:	460b      	mov	r3, r1
 8002ed8:	f04f 0000 	mov.w	r0, #0
 8002edc:	f04f 0100 	mov.w	r1, #0
 8002ee0:	0259      	lsls	r1, r3, #9
 8002ee2:	ea41 51d2 	orr.w	r1, r1, r2, lsr #23
 8002ee6:	0250      	lsls	r0, r2, #9
 8002ee8:	4602      	mov	r2, r0
 8002eea:	460b      	mov	r3, r1
 8002eec:	4610      	mov	r0, r2
 8002eee:	4619      	mov	r1, r3
 8002ef0:	697b      	ldr	r3, [r7, #20]
 8002ef2:	461a      	mov	r2, r3
 8002ef4:	f04f 0300 	mov.w	r3, #0
 8002ef8:	f7fd fec6 	bl	8000c88 <__aeabi_uldivmod>
 8002efc:	4602      	mov	r2, r0
 8002efe:	460b      	mov	r3, r1
 8002f00:	4613      	mov	r3, r2
 8002f02:	61fb      	str	r3, [r7, #28]
 8002f04:	e04c      	b.n	8002fa0 <HAL_RCC_GetSysClockFreq+0x1c8>
      }
      else
      {
        /* HSI used as PLL clock source */
        pllvco = (uint32_t) ((((uint64_t) HSI_VALUE * ((uint64_t) ((RCC->PLLCFGR & RCC_PLLCFGR_PLLN) >> RCC_PLLCFGR_PLLN_Pos)))) / (uint64_t)pllm);
 8002f06:	4b8a      	ldr	r3, [pc, #552]	; (8003130 <HAL_RCC_GetSysClockFreq+0x358>)
 8002f08:	685b      	ldr	r3, [r3, #4]
 8002f0a:	099b      	lsrs	r3, r3, #6
 8002f0c:	461a      	mov	r2, r3
 8002f0e:	f04f 0300 	mov.w	r3, #0
 8002f12:	f240 10ff 	movw	r0, #511	; 0x1ff
 8002f16:	f04f 0100 	mov.w	r1, #0
 8002f1a:	ea02 0a00 	and.w	sl, r2, r0
 8002f1e:	ea03 0b01 	and.w	fp, r3, r1
 8002f22:	4650      	mov	r0, sl
 8002f24:	4659      	mov	r1, fp
 8002f26:	f04f 0200 	mov.w	r2, #0
 8002f2a:	f04f 0300 	mov.w	r3, #0
 8002f2e:	014b      	lsls	r3, r1, #5
 8002f30:	ea43 63d0 	orr.w	r3, r3, r0, lsr #27
 8002f34:	0142      	lsls	r2, r0, #5
 8002f36:	4610      	mov	r0, r2
 8002f38:	4619      	mov	r1, r3
 8002f3a:	ebb0 000a 	subs.w	r0, r0, sl
 8002f3e:	eb61 010b 	sbc.w	r1, r1, fp
 8002f42:	f04f 0200 	mov.w	r2, #0
 8002f46:	f04f 0300 	mov.w	r3, #0
 8002f4a:	018b      	lsls	r3, r1, #6
 8002f4c:	ea43 6390 	orr.w	r3, r3, r0, lsr #26
 8002f50:	0182      	lsls	r2, r0, #6
 8002f52:	1a12      	subs	r2, r2, r0
 8002f54:	eb63 0301 	sbc.w	r3, r3, r1
 8002f58:	f04f 0000 	mov.w	r0, #0
 8002f5c:	f04f 0100 	mov.w	r1, #0
 8002f60:	00d9      	lsls	r1, r3, #3
 8002f62:	ea41 7152 	orr.w	r1, r1, r2, lsr #29
 8002f66:	00d0      	lsls	r0, r2, #3
 8002f68:	4602      	mov	r2, r0
 8002f6a:	460b      	mov	r3, r1
 8002f6c:	eb12 020a 	adds.w	r2, r2, sl
 8002f70:	eb43 030b 	adc.w	r3, r3, fp
 8002f74:	f04f 0000 	mov.w	r0, #0
 8002f78:	f04f 0100 	mov.w	r1, #0
 8002f7c:	0299      	lsls	r1, r3, #10
 8002f7e:	ea41 5192 	orr.w	r1, r1, r2, lsr #22
 8002f82:	0290      	lsls	r0, r2, #10
 8002f84:	4602      	mov	r2, r0
 8002f86:	460b      	mov	r3, r1
 8002f88:	4610      	mov	r0, r2
 8002f8a:	4619      	mov	r1, r3
 8002f8c:	697b      	ldr	r3, [r7, #20]
 8002f8e:	461a      	mov	r2, r3
 8002f90:	f04f 0300 	mov.w	r3, #0
 8002f94:	f7fd fe78 	bl	8000c88 <__aeabi_uldivmod>
 8002f98:	4602      	mov	r2, r0
 8002f9a:	460b      	mov	r3, r1
 8002f9c:	4613      	mov	r3, r2
 8002f9e:	61fb      	str	r3, [r7, #28]
      }
      pllp = ((((RCC->PLLCFGR & RCC_PLLCFGR_PLLP) >> RCC_PLLCFGR_PLLP_Pos) + 1U) *2U);
 8002fa0:	4b63      	ldr	r3, [pc, #396]	; (8003130 <HAL_RCC_GetSysClockFreq+0x358>)
 8002fa2:	685b      	ldr	r3, [r3, #4]
 8002fa4:	0c1b      	lsrs	r3, r3, #16
 8002fa6:	f003 0303 	and.w	r3, r3, #3
 8002faa:	3301      	adds	r3, #1
 8002fac:	005b      	lsls	r3, r3, #1
 8002fae:	613b      	str	r3, [r7, #16]

      sysclockfreq = pllvco/pllp;
 8002fb0:	69fa      	ldr	r2, [r7, #28]
 8002fb2:	693b      	ldr	r3, [r7, #16]
 8002fb4:	fbb2 f3f3 	udiv	r3, r2, r3
 8002fb8:	61bb      	str	r3, [r7, #24]
      break;
 8002fba:	e0b2      	b.n	8003122 <HAL_RCC_GetSysClockFreq+0x34a>
    }
    case RCC_CFGR_SWS_PLLR:  /* PLL/PLLR used as system clock  source */
    {
      /* PLL_VCO = (HSE_VALUE or HSI_VALUE / PLLM) * PLLN
      SYSCLK = PLL_VCO / PLLR */
      pllm = RCC->PLLCFGR & RCC_PLLCFGR_PLLM;
 8002fbc:	4b5c      	ldr	r3, [pc, #368]	; (8003130 <HAL_RCC_GetSysClockFreq+0x358>)
 8002fbe:	685b      	ldr	r3, [r3, #4]
 8002fc0:	f003 033f 	and.w	r3, r3, #63	; 0x3f
 8002fc4:	617b      	str	r3, [r7, #20]
      if(__HAL_RCC_GET_PLL_OSCSOURCE() != RCC_PLLSOURCE_HSI)
 8002fc6:	4b5a      	ldr	r3, [pc, #360]	; (8003130 <HAL_RCC_GetSysClockFreq+0x358>)
 8002fc8:	685b      	ldr	r3, [r3, #4]
 8002fca:	f403 0380 	and.w	r3, r3, #4194304	; 0x400000
 8002fce:	2b00      	cmp	r3, #0
 8002fd0:	d04d      	beq.n	800306e <HAL_RCC_GetSysClockFreq+0x296>
      {
        /* HSE used as PLL clock source */
        pllvco = (uint32_t) ((((uint64_t) HSE_VALUE * ((uint64_t) ((RCC->PLLCFGR & RCC_PLLCFGR_PLLN) >> RCC_PLLCFGR_PLLN_Pos)))) / (uint64_t)pllm);
 8002fd2:	4b57      	ldr	r3, [pc, #348]	; (8003130 <HAL_RCC_GetSysClockFreq+0x358>)
 8002fd4:	685b      	ldr	r3, [r3, #4]
 8002fd6:	099b      	lsrs	r3, r3, #6
 8002fd8:	461a      	mov	r2, r3
 8002fda:	f04f 0300 	mov.w	r3, #0
 8002fde:	f240 10ff 	movw	r0, #511	; 0x1ff
 8002fe2:	f04f 0100 	mov.w	r1, #0
 8002fe6:	ea02 0800 	and.w	r8, r2, r0
 8002fea:	ea03 0901 	and.w	r9, r3, r1
 8002fee:	4640      	mov	r0, r8
 8002ff0:	4649      	mov	r1, r9
 8002ff2:	f04f 0200 	mov.w	r2, #0
 8002ff6:	f04f 0300 	mov.w	r3, #0
 8002ffa:	014b      	lsls	r3, r1, #5
 8002ffc:	ea43 63d0 	orr.w	r3, r3, r0, lsr #27
 8003000:	0142      	lsls	r2, r0, #5
 8003002:	4610      	mov	r0, r2
 8003004:	4619      	mov	r1, r3
 8003006:	ebb0 0008 	subs.w	r0, r0, r8
 800300a:	eb61 0109 	sbc.w	r1, r1, r9
 800300e:	f04f 0200 	mov.w	r2, #0
 8003012:	f04f 0300 	mov.w	r3, #0
 8003016:	018b      	lsls	r3, r1, #6
 8003018:	ea43 6390 	orr.w	r3, r3, r0, lsr #26
 800301c:	0182      	lsls	r2, r0, #6
 800301e:	1a12      	subs	r2, r2, r0
 8003020:	eb63 0301 	sbc.w	r3, r3, r1
 8003024:	f04f 0000 	mov.w	r0, #0
 8003028:	f04f 0100 	mov.w	r1, #0
 800302c:	00d9      	lsls	r1, r3, #3
 800302e:	ea41 7152 	orr.w	r1, r1, r2, lsr #29
 8003032:	00d0      	lsls	r0, r2, #3
 8003034:	4602      	mov	r2, r0
 8003036:	460b      	mov	r3, r1
 8003038:	eb12 0208 	adds.w	r2, r2, r8
 800303c:	eb43 0309 	adc.w	r3, r3, r9
 8003040:	f04f 0000 	mov.w	r0, #0
 8003044:	f04f 0100 	mov.w	r1, #0
 8003048:	0259      	lsls	r1, r3, #9
 800304a:	ea41 51d2 	orr.w	r1, r1, r2, lsr #23
 800304e:	0250      	lsls	r0, r2, #9
 8003050:	4602      	mov	r2, r0
 8003052:	460b      	mov	r3, r1
 8003054:	4610      	mov	r0, r2
 8003056:	4619      	mov	r1, r3
 8003058:	697b      	ldr	r3, [r7, #20]
 800305a:	461a      	mov	r2, r3
 800305c:	f04f 0300 	mov.w	r3, #0
 8003060:	f7fd fe12 	bl	8000c88 <__aeabi_uldivmod>
 8003064:	4602      	mov	r2, r0
 8003066:	460b      	mov	r3, r1
 8003068:	4613      	mov	r3, r2
 800306a:	61fb      	str	r3, [r7, #28]
 800306c:	e04a      	b.n	8003104 <HAL_RCC_GetSysClockFreq+0x32c>
      }
      else
      {
        /* HSI used as PLL clock source */
        pllvco = (uint32_t) ((((uint64_t) HSI_VALUE * ((uint64_t) ((RCC->PLLCFGR & RCC_PLLCFGR_PLLN) >> RCC_PLLCFGR_PLLN_Pos)))) / (uint64_t)pllm);
 800306e:	4b30      	ldr	r3, [pc, #192]	; (8003130 <HAL_RCC_GetSysClockFreq+0x358>)
 8003070:	685b      	ldr	r3, [r3, #4]
 8003072:	099b      	lsrs	r3, r3, #6
 8003074:	461a      	mov	r2, r3
 8003076:	f04f 0300 	mov.w	r3, #0
 800307a:	f240 10ff 	movw	r0, #511	; 0x1ff
 800307e:	f04f 0100 	mov.w	r1, #0
 8003082:	ea02 0400 	and.w	r4, r2, r0
 8003086:	ea03 0501 	and.w	r5, r3, r1
 800308a:	4620      	mov	r0, r4
 800308c:	4629      	mov	r1, r5
 800308e:	f04f 0200 	mov.w	r2, #0
 8003092:	f04f 0300 	mov.w	r3, #0
 8003096:	014b      	lsls	r3, r1, #5
 8003098:	ea43 63d0 	orr.w	r3, r3, r0, lsr #27
 800309c:	0142      	lsls	r2, r0, #5
 800309e:	4610      	mov	r0, r2
 80030a0:	4619      	mov	r1, r3
 80030a2:	1b00      	subs	r0, r0, r4
 80030a4:	eb61 0105 	sbc.w	r1, r1, r5
 80030a8:	f04f 0200 	mov.w	r2, #0
 80030ac:	f04f 0300 	mov.w	r3, #0
 80030b0:	018b      	lsls	r3, r1, #6
 80030b2:	ea43 6390 	orr.w	r3, r3, r0, lsr #26
 80030b6:	0182      	lsls	r2, r0, #6
 80030b8:	1a12      	subs	r2, r2, r0
 80030ba:	eb63 0301 	sbc.w	r3, r3, r1
 80030be:	f04f 0000 	mov.w	r0, #0
 80030c2:	f04f 0100 	mov.w	r1, #0
 80030c6:	00d9      	lsls	r1, r3, #3
 80030c8:	ea41 7152 	orr.w	r1, r1, r2, lsr #29
 80030cc:	00d0      	lsls	r0, r2, #3
 80030ce:	4602      	mov	r2, r0
 80030d0:	460b      	mov	r3, r1
 80030d2:	1912      	adds	r2, r2, r4
 80030d4:	eb45 0303 	adc.w	r3, r5, r3
 80030d8:	f04f 0000 	mov.w	r0, #0
 80030dc:	f04f 0100 	mov.w	r1, #0
 80030e0:	0299      	lsls	r1, r3, #10
 80030e2:	ea41 5192 	orr.w	r1, r1, r2, lsr #22
 80030e6:	0290      	lsls	r0, r2, #10
 80030e8:	4602      	mov	r2, r0
 80030ea:	460b      	mov	r3, r1
 80030ec:	4610      	mov	r0, r2
 80030ee:	4619      	mov	r1, r3
 80030f0:	697b      	ldr	r3, [r7, #20]
 80030f2:	461a      	mov	r2, r3
 80030f4:	f04f 0300 	mov.w	r3, #0
 80030f8:	f7fd fdc6 	bl	8000c88 <__aeabi_uldivmod>
 80030fc:	4602      	mov	r2, r0
 80030fe:	460b      	mov	r3, r1
 8003100:	4613      	mov	r3, r2
 8003102:	61fb      	str	r3, [r7, #28]
      }
      pllr = ((RCC->PLLCFGR & RCC_PLLCFGR_PLLR) >> RCC_PLLCFGR_PLLR_Pos);
 8003104:	4b0a      	ldr	r3, [pc, #40]	; (8003130 <HAL_RCC_GetSysClockFreq+0x358>)
 8003106:	685b      	ldr	r3, [r3, #4]
 8003108:	0f1b      	lsrs	r3, r3, #28
 800310a:	f003 0307 	and.w	r3, r3, #7
 800310e:	60fb      	str	r3, [r7, #12]

      sysclockfreq = pllvco/pllr;
 8003110:	69fa      	ldr	r2, [r7, #28]
 8003112:	68fb      	ldr	r3, [r7, #12]
 8003114:	fbb2 f3f3 	udiv	r3, r2, r3
 8003118:	61bb      	str	r3, [r7, #24]
      break;
 800311a:	e002      	b.n	8003122 <HAL_RCC_GetSysClockFreq+0x34a>
    }
    default:
    {
      sysclockfreq = HSI_VALUE;
 800311c:	4b05      	ldr	r3, [pc, #20]	; (8003134 <HAL_RCC_GetSysClockFreq+0x35c>)
 800311e:	61bb      	str	r3, [r7, #24]
      break;
 8003120:	bf00      	nop
    }
  }
  return sysclockfreq;
 8003122:	69bb      	ldr	r3, [r7, #24]
}
 8003124:	4618      	mov	r0, r3
 8003126:	3720      	adds	r7, #32
 8003128:	46bd      	mov	sp, r7
 800312a:	e8bd 8fb0 	ldmia.w	sp!, {r4, r5, r7, r8, r9, sl, fp, pc}
 800312e:	bf00      	nop
 8003130:	40023800 	.word	0x40023800
 8003134:	00f42400 	.word	0x00f42400
 8003138:	007a1200 	.word	0x007a1200

0800313c <HAL_RCC_OscConfig>:
  * @note   This function add the PLL/PLLR factor management during PLL configuration this feature
  *         is only available in STM32F410xx/STM32F446xx/STM32F469xx/STM32F479xx/STM32F412Zx/STM32F412Vx/STM32F412Rx/STM32F412Cx devices
  * @retval HAL status
  */
HAL_StatusTypeDef HAL_RCC_OscConfig(RCC_OscInitTypeDef  *RCC_OscInitStruct)
{
 800313c:	b580      	push	{r7, lr}
 800313e:	b086      	sub	sp, #24
 8003140:	af00      	add	r7, sp, #0
 8003142:	6078      	str	r0, [r7, #4]
  uint32_t tickstart, pll_config;

  /* Check Null pointer */
  if(RCC_OscInitStruct == NULL)
 8003144:	687b      	ldr	r3, [r7, #4]
 8003146:	2b00      	cmp	r3, #0
 8003148:	d101      	bne.n	800314e <HAL_RCC_OscConfig+0x12>
  {
    return HAL_ERROR;
 800314a:	2301      	movs	r3, #1
 800314c:	e28d      	b.n	800366a <HAL_RCC_OscConfig+0x52e>
  }

  /* Check the parameters */
  assert_param(IS_RCC_OSCILLATORTYPE(RCC_OscInitStruct->OscillatorType));
  /*------------------------------- HSE Configuration ------------------------*/
  if(((RCC_OscInitStruct->OscillatorType) & RCC_OSCILLATORTYPE_HSE) == RCC_OSCILLATORTYPE_HSE)
 800314e:	687b      	ldr	r3, [r7, #4]
 8003150:	681b      	ldr	r3, [r3, #0]
 8003152:	f003 0301 	and.w	r3, r3, #1
 8003156:	2b00      	cmp	r3, #0
 8003158:	f000 8083 	beq.w	8003262 <HAL_RCC_OscConfig+0x126>
  {
    /* Check the parameters */
    assert_param(IS_RCC_HSE(RCC_OscInitStruct->HSEState));
    /* When the HSE is used as system clock or clock source for PLL in these cases HSE will not disabled */
#if defined(STM32F446xx)
    if((__HAL_RCC_GET_SYSCLK_SOURCE() == RCC_CFGR_SWS_HSE)                                                                     ||\
 800315c:	4b94      	ldr	r3, [pc, #592]	; (80033b0 <HAL_RCC_OscConfig+0x274>)
 800315e:	689b      	ldr	r3, [r3, #8]
 8003160:	f003 030c 	and.w	r3, r3, #12
 8003164:	2b04      	cmp	r3, #4
 8003166:	d019      	beq.n	800319c <HAL_RCC_OscConfig+0x60>
      ((__HAL_RCC_GET_SYSCLK_SOURCE() == RCC_CFGR_SWS_PLL) && ((RCC->PLLCFGR & RCC_PLLCFGR_PLLSRC) == RCC_PLLCFGR_PLLSRC_HSE)) ||\
 8003168:	4b91      	ldr	r3, [pc, #580]	; (80033b0 <HAL_RCC_OscConfig+0x274>)
 800316a:	689b      	ldr	r3, [r3, #8]
 800316c:	f003 030c 	and.w	r3, r3, #12
    if((__HAL_RCC_GET_SYSCLK_SOURCE() == RCC_CFGR_SWS_HSE)                                                                     ||\
 8003170:	2b08      	cmp	r3, #8
 8003172:	d106      	bne.n	8003182 <HAL_RCC_OscConfig+0x46>
      ((__HAL_RCC_GET_SYSCLK_SOURCE() == RCC_CFGR_SWS_PLL) && ((RCC->PLLCFGR & RCC_PLLCFGR_PLLSRC) == RCC_PLLCFGR_PLLSRC_HSE)) ||\
 8003174:	4b8e      	ldr	r3, [pc, #568]	; (80033b0 <HAL_RCC_OscConfig+0x274>)
 8003176:	685b      	ldr	r3, [r3, #4]
 8003178:	f403 0380 	and.w	r3, r3, #4194304	; 0x400000
 800317c:	f5b3 0f80 	cmp.w	r3, #4194304	; 0x400000
 8003180:	d00c      	beq.n	800319c <HAL_RCC_OscConfig+0x60>
      ((__HAL_RCC_GET_SYSCLK_SOURCE() == RCC_CFGR_SWS_PLLR) && ((RCC->PLLCFGR & RCC_PLLCFGR_PLLSRC) == RCC_PLLCFGR_PLLSRC_HSE)))
 8003182:	4b8b      	ldr	r3, [pc, #556]	; (80033b0 <HAL_RCC_OscConfig+0x274>)
 8003184:	689b      	ldr	r3, [r3, #8]
 8003186:	f003 030c 	and.w	r3, r3, #12
      ((__HAL_RCC_GET_SYSCLK_SOURCE() == RCC_CFGR_SWS_PLL) && ((RCC->PLLCFGR & RCC_PLLCFGR_PLLSRC) == RCC_PLLCFGR_PLLSRC_HSE)) ||\
 800318a:	2b0c      	cmp	r3, #12
 800318c:	d112      	bne.n	80031b4 <HAL_RCC_OscConfig+0x78>
      ((__HAL_RCC_GET_SYSCLK_SOURCE() == RCC_CFGR_SWS_PLLR) && ((RCC->PLLCFGR & RCC_PLLCFGR_PLLSRC) == RCC_PLLCFGR_PLLSRC_HSE)))
 800318e:	4b88      	ldr	r3, [pc, #544]	; (80033b0 <HAL_RCC_OscConfig+0x274>)
 8003190:	685b      	ldr	r3, [r3, #4]
 8003192:	f403 0380 	and.w	r3, r3, #4194304	; 0x400000
 8003196:	f5b3 0f80 	cmp.w	r3, #4194304	; 0x400000
 800319a:	d10b      	bne.n	80031b4 <HAL_RCC_OscConfig+0x78>
#else
    if((__HAL_RCC_GET_SYSCLK_SOURCE() == RCC_CFGR_SWS_HSE)                                                                     ||\
      ((__HAL_RCC_GET_SYSCLK_SOURCE() == RCC_CFGR_SWS_PLL) && ((RCC->PLLCFGR & RCC_PLLCFGR_PLLSRC) == RCC_PLLCFGR_PLLSRC_HSE)))
#endif /* STM32F446xx */
    {
      if((__HAL_RCC_GET_FLAG(RCC_FLAG_HSERDY) != RESET) && (RCC_OscInitStruct->HSEState == RCC_HSE_OFF))
 800319c:	4b84      	ldr	r3, [pc, #528]	; (80033b0 <HAL_RCC_OscConfig+0x274>)
 800319e:	681b      	ldr	r3, [r3, #0]
 80031a0:	f403 3300 	and.w	r3, r3, #131072	; 0x20000
 80031a4:	2b00      	cmp	r3, #0
 80031a6:	d05b      	beq.n	8003260 <HAL_RCC_OscConfig+0x124>
 80031a8:	687b      	ldr	r3, [r7, #4]
 80031aa:	685b      	ldr	r3, [r3, #4]
 80031ac:	2b00      	cmp	r3, #0
 80031ae:	d157      	bne.n	8003260 <HAL_RCC_OscConfig+0x124>
      {
        return HAL_ERROR;
 80031b0:	2301      	movs	r3, #1
 80031b2:	e25a      	b.n	800366a <HAL_RCC_OscConfig+0x52e>
      }
    }
    else
    {
      /* Set the new HSE configuration ---------------------------------------*/
      __HAL_RCC_HSE_CONFIG(RCC_OscInitStruct->HSEState);
 80031b4:	687b      	ldr	r3, [r7, #4]
 80031b6:	685b      	ldr	r3, [r3, #4]
 80031b8:	f5b3 3f80 	cmp.w	r3, #65536	; 0x10000
 80031bc:	d106      	bne.n	80031cc <HAL_RCC_OscConfig+0x90>
 80031be:	4b7c      	ldr	r3, [pc, #496]	; (80033b0 <HAL_RCC_OscConfig+0x274>)
 80031c0:	681b      	ldr	r3, [r3, #0]
 80031c2:	4a7b      	ldr	r2, [pc, #492]	; (80033b0 <HAL_RCC_OscConfig+0x274>)
 80031c4:	f443 3380 	orr.w	r3, r3, #65536	; 0x10000
 80031c8:	6013      	str	r3, [r2, #0]
 80031ca:	e01d      	b.n	8003208 <HAL_RCC_OscConfig+0xcc>
 80031cc:	687b      	ldr	r3, [r7, #4]
 80031ce:	685b      	ldr	r3, [r3, #4]
 80031d0:	f5b3 2fa0 	cmp.w	r3, #327680	; 0x50000
 80031d4:	d10c      	bne.n	80031f0 <HAL_RCC_OscConfig+0xb4>
 80031d6:	4b76      	ldr	r3, [pc, #472]	; (80033b0 <HAL_RCC_OscConfig+0x274>)
 80031d8:	681b      	ldr	r3, [r3, #0]
 80031da:	4a75      	ldr	r2, [pc, #468]	; (80033b0 <HAL_RCC_OscConfig+0x274>)
 80031dc:	f443 2380 	orr.w	r3, r3, #262144	; 0x40000
 80031e0:	6013      	str	r3, [r2, #0]
 80031e2:	4b73      	ldr	r3, [pc, #460]	; (80033b0 <HAL_RCC_OscConfig+0x274>)
 80031e4:	681b      	ldr	r3, [r3, #0]
 80031e6:	4a72      	ldr	r2, [pc, #456]	; (80033b0 <HAL_RCC_OscConfig+0x274>)
 80031e8:	f443 3380 	orr.w	r3, r3, #65536	; 0x10000
 80031ec:	6013      	str	r3, [r2, #0]
 80031ee:	e00b      	b.n	8003208 <HAL_RCC_OscConfig+0xcc>
 80031f0:	4b6f      	ldr	r3, [pc, #444]	; (80033b0 <HAL_RCC_OscConfig+0x274>)
 80031f2:	681b      	ldr	r3, [r3, #0]
 80031f4:	4a6e      	ldr	r2, [pc, #440]	; (80033b0 <HAL_RCC_OscConfig+0x274>)
 80031f6:	f423 3380 	bic.w	r3, r3, #65536	; 0x10000
 80031fa:	6013      	str	r3, [r2, #0]
 80031fc:	4b6c      	ldr	r3, [pc, #432]	; (80033b0 <HAL_RCC_OscConfig+0x274>)
 80031fe:	681b      	ldr	r3, [r3, #0]
 8003200:	4a6b      	ldr	r2, [pc, #428]	; (80033b0 <HAL_RCC_OscConfig+0x274>)
 8003202:	f423 2380 	bic.w	r3, r3, #262144	; 0x40000
 8003206:	6013      	str	r3, [r2, #0]

      /* Check the HSE State */
      if((RCC_OscInitStruct->HSEState) != RCC_HSE_OFF)
 8003208:	687b      	ldr	r3, [r7, #4]
 800320a:	685b      	ldr	r3, [r3, #4]
 800320c:	2b00      	cmp	r3, #0
 800320e:	d013      	beq.n	8003238 <HAL_RCC_OscConfig+0xfc>
      {
        /* Get Start Tick*/
        tickstart = HAL_GetTick();
 8003210:	f7ff f9d8 	bl	80025c4 <HAL_GetTick>
 8003214:	6138      	str	r0, [r7, #16]

        /* Wait till HSE is ready */
        while(__HAL_RCC_GET_FLAG(RCC_FLAG_HSERDY) == RESET)
 8003216:	e008      	b.n	800322a <HAL_RCC_OscConfig+0xee>
        {
          if((HAL_GetTick() - tickstart ) > HSE_TIMEOUT_VALUE)
 8003218:	f7ff f9d4 	bl	80025c4 <HAL_GetTick>
 800321c:	4602      	mov	r2, r0
 800321e:	693b      	ldr	r3, [r7, #16]
 8003220:	1ad3      	subs	r3, r2, r3
 8003222:	2b64      	cmp	r3, #100	; 0x64
 8003224:	d901      	bls.n	800322a <HAL_RCC_OscConfig+0xee>
          {
            return HAL_TIMEOUT;
 8003226:	2303      	movs	r3, #3
 8003228:	e21f      	b.n	800366a <HAL_RCC_OscConfig+0x52e>
        while(__HAL_RCC_GET_FLAG(RCC_FLAG_HSERDY) == RESET)
 800322a:	4b61      	ldr	r3, [pc, #388]	; (80033b0 <HAL_RCC_OscConfig+0x274>)
 800322c:	681b      	ldr	r3, [r3, #0]
 800322e:	f403 3300 	and.w	r3, r3, #131072	; 0x20000
 8003232:	2b00      	cmp	r3, #0
 8003234:	d0f0      	beq.n	8003218 <HAL_RCC_OscConfig+0xdc>
 8003236:	e014      	b.n	8003262 <HAL_RCC_OscConfig+0x126>
        }
      }
      else
      {
        /* Get Start Tick*/
        tickstart = HAL_GetTick();
 8003238:	f7ff f9c4 	bl	80025c4 <HAL_GetTick>
 800323c:	6138      	str	r0, [r7, #16]

        /* Wait till HSE is bypassed or disabled */
        while(__HAL_RCC_GET_FLAG(RCC_FLAG_HSERDY) != RESET)
 800323e:	e008      	b.n	8003252 <HAL_RCC_OscConfig+0x116>
        {
          if((HAL_GetTick() - tickstart ) > HSE_TIMEOUT_VALUE)
 8003240:	f7ff f9c0 	bl	80025c4 <HAL_GetTick>
 8003244:	4602      	mov	r2, r0
 8003246:	693b      	ldr	r3, [r7, #16]
 8003248:	1ad3      	subs	r3, r2, r3
 800324a:	2b64      	cmp	r3, #100	; 0x64
 800324c:	d901      	bls.n	8003252 <HAL_RCC_OscConfig+0x116>
          {
            return HAL_TIMEOUT;
 800324e:	2303      	movs	r3, #3
 8003250:	e20b      	b.n	800366a <HAL_RCC_OscConfig+0x52e>
        while(__HAL_RCC_GET_FLAG(RCC_FLAG_HSERDY) != RESET)
 8003252:	4b57      	ldr	r3, [pc, #348]	; (80033b0 <HAL_RCC_OscConfig+0x274>)
 8003254:	681b      	ldr	r3, [r3, #0]
 8003256:	f403 3300 	and.w	r3, r3, #131072	; 0x20000
 800325a:	2b00      	cmp	r3, #0
 800325c:	d1f0      	bne.n	8003240 <HAL_RCC_OscConfig+0x104>
 800325e:	e000      	b.n	8003262 <HAL_RCC_OscConfig+0x126>
      if((__HAL_RCC_GET_FLAG(RCC_FLAG_HSERDY) != RESET) && (RCC_OscInitStruct->HSEState == RCC_HSE_OFF))
 8003260:	bf00      	nop
        }
      }
    }
  }
  /*----------------------------- HSI Configuration --------------------------*/
  if(((RCC_OscInitStruct->OscillatorType) & RCC_OSCILLATORTYPE_HSI) == RCC_OSCILLATORTYPE_HSI)
 8003262:	687b      	ldr	r3, [r7, #4]
 8003264:	681b      	ldr	r3, [r3, #0]
 8003266:	f003 0302 	and.w	r3, r3, #2
 800326a:	2b00      	cmp	r3, #0
 800326c:	d06f      	beq.n	800334e <HAL_RCC_OscConfig+0x212>
    assert_param(IS_RCC_HSI(RCC_OscInitStruct->HSIState));
    assert_param(IS_RCC_CALIBRATION_VALUE(RCC_OscInitStruct->HSICalibrationValue));

    /* Check if HSI is used as system clock or as PLL source when PLL is selected as system clock */
#if defined(STM32F446xx)
    if((__HAL_RCC_GET_SYSCLK_SOURCE() == RCC_CFGR_SWS_HSI)                                                                     ||\
 800326e:	4b50      	ldr	r3, [pc, #320]	; (80033b0 <HAL_RCC_OscConfig+0x274>)
 8003270:	689b      	ldr	r3, [r3, #8]
 8003272:	f003 030c 	and.w	r3, r3, #12
 8003276:	2b00      	cmp	r3, #0
 8003278:	d017      	beq.n	80032aa <HAL_RCC_OscConfig+0x16e>
      ((__HAL_RCC_GET_SYSCLK_SOURCE() == RCC_CFGR_SWS_PLL) && ((RCC->PLLCFGR & RCC_PLLCFGR_PLLSRC) == RCC_PLLCFGR_PLLSRC_HSI)) ||\
 800327a:	4b4d      	ldr	r3, [pc, #308]	; (80033b0 <HAL_RCC_OscConfig+0x274>)
 800327c:	689b      	ldr	r3, [r3, #8]
 800327e:	f003 030c 	and.w	r3, r3, #12
    if((__HAL_RCC_GET_SYSCLK_SOURCE() == RCC_CFGR_SWS_HSI)                                                                     ||\
 8003282:	2b08      	cmp	r3, #8
 8003284:	d105      	bne.n	8003292 <HAL_RCC_OscConfig+0x156>
      ((__HAL_RCC_GET_SYSCLK_SOURCE() == RCC_CFGR_SWS_PLL) && ((RCC->PLLCFGR & RCC_PLLCFGR_PLLSRC) == RCC_PLLCFGR_PLLSRC_HSI)) ||\
 8003286:	4b4a      	ldr	r3, [pc, #296]	; (80033b0 <HAL_RCC_OscConfig+0x274>)
 8003288:	685b      	ldr	r3, [r3, #4]
 800328a:	f403 0380 	and.w	r3, r3, #4194304	; 0x400000
 800328e:	2b00      	cmp	r3, #0
 8003290:	d00b      	beq.n	80032aa <HAL_RCC_OscConfig+0x16e>
      ((__HAL_RCC_GET_SYSCLK_SOURCE() == RCC_CFGR_SWS_PLLR) && ((RCC->PLLCFGR & RCC_PLLCFGR_PLLSRC) == RCC_PLLCFGR_PLLSRC_HSI)))
 8003292:	4b47      	ldr	r3, [pc, #284]	; (80033b0 <HAL_RCC_OscConfig+0x274>)
 8003294:	689b      	ldr	r3, [r3, #8]
 8003296:	f003 030c 	and.w	r3, r3, #12
      ((__HAL_RCC_GET_SYSCLK_SOURCE() == RCC_CFGR_SWS_PLL) && ((RCC->PLLCFGR & RCC_PLLCFGR_PLLSRC) == RCC_PLLCFGR_PLLSRC_HSI)) ||\
 800329a:	2b0c      	cmp	r3, #12
 800329c:	d11c      	bne.n	80032d8 <HAL_RCC_OscConfig+0x19c>
      ((__HAL_RCC_GET_SYSCLK_SOURCE() == RCC_CFGR_SWS_PLLR) && ((RCC->PLLCFGR & RCC_PLLCFGR_PLLSRC) == RCC_PLLCFGR_PLLSRC_HSI)))
 800329e:	4b44      	ldr	r3, [pc, #272]	; (80033b0 <HAL_RCC_OscConfig+0x274>)
 80032a0:	685b      	ldr	r3, [r3, #4]
 80032a2:	f403 0380 	and.w	r3, r3, #4194304	; 0x400000
 80032a6:	2b00      	cmp	r3, #0
 80032a8:	d116      	bne.n	80032d8 <HAL_RCC_OscConfig+0x19c>
    if((__HAL_RCC_GET_SYSCLK_SOURCE() == RCC_CFGR_SWS_HSI)                                                                     ||\
      ((__HAL_RCC_GET_SYSCLK_SOURCE() == RCC_CFGR_SWS_PLL) && ((RCC->PLLCFGR & RCC_PLLCFGR_PLLSRC) == RCC_PLLCFGR_PLLSRC_HSI)))
#endif /* STM32F446xx */
    {
      /* When HSI is used as system clock it will not disabled */
      if((__HAL_RCC_GET_FLAG(RCC_FLAG_HSIRDY) != RESET) && (RCC_OscInitStruct->HSIState != RCC_HSI_ON))
 80032aa:	4b41      	ldr	r3, [pc, #260]	; (80033b0 <HAL_RCC_OscConfig+0x274>)
 80032ac:	681b      	ldr	r3, [r3, #0]
 80032ae:	f003 0302 	and.w	r3, r3, #2
 80032b2:	2b00      	cmp	r3, #0
 80032b4:	d005      	beq.n	80032c2 <HAL_RCC_OscConfig+0x186>
 80032b6:	687b      	ldr	r3, [r7, #4]
 80032b8:	68db      	ldr	r3, [r3, #12]
 80032ba:	2b01      	cmp	r3, #1
 80032bc:	d001      	beq.n	80032c2 <HAL_RCC_OscConfig+0x186>
      {
        return HAL_ERROR;
 80032be:	2301      	movs	r3, #1
 80032c0:	e1d3      	b.n	800366a <HAL_RCC_OscConfig+0x52e>
      }
      /* Otherwise, just the calibration is allowed */
      else
      {
        /* Adjusts the Internal High Speed oscillator (HSI) calibration value.*/
        __HAL_RCC_HSI_CALIBRATIONVALUE_ADJUST(RCC_OscInitStruct->HSICalibrationValue);
 80032c2:	4b3b      	ldr	r3, [pc, #236]	; (80033b0 <HAL_RCC_OscConfig+0x274>)
 80032c4:	681b      	ldr	r3, [r3, #0]
 80032c6:	f023 02f8 	bic.w	r2, r3, #248	; 0xf8
 80032ca:	687b      	ldr	r3, [r7, #4]
 80032cc:	691b      	ldr	r3, [r3, #16]
 80032ce:	00db      	lsls	r3, r3, #3
 80032d0:	4937      	ldr	r1, [pc, #220]	; (80033b0 <HAL_RCC_OscConfig+0x274>)
 80032d2:	4313      	orrs	r3, r2
 80032d4:	600b      	str	r3, [r1, #0]
      if((__HAL_RCC_GET_FLAG(RCC_FLAG_HSIRDY) != RESET) && (RCC_OscInitStruct->HSIState != RCC_HSI_ON))
 80032d6:	e03a      	b.n	800334e <HAL_RCC_OscConfig+0x212>
      }
    }
    else
    {
      /* Check the HSI State */
      if((RCC_OscInitStruct->HSIState)!= RCC_HSI_OFF)
 80032d8:	687b      	ldr	r3, [r7, #4]
 80032da:	68db      	ldr	r3, [r3, #12]
 80032dc:	2b00      	cmp	r3, #0
 80032de:	d020      	beq.n	8003322 <HAL_RCC_OscConfig+0x1e6>
      {
        /* Enable the Internal High Speed oscillator (HSI). */
        __HAL_RCC_HSI_ENABLE();
 80032e0:	4b34      	ldr	r3, [pc, #208]	; (80033b4 <HAL_RCC_OscConfig+0x278>)
 80032e2:	2201      	movs	r2, #1
 80032e4:	601a      	str	r2, [r3, #0]

        /* Get Start Tick*/
        tickstart = HAL_GetTick();
 80032e6:	f7ff f96d 	bl	80025c4 <HAL_GetTick>
 80032ea:	6138      	str	r0, [r7, #16]

        /* Wait till HSI is ready */
        while(__HAL_RCC_GET_FLAG(RCC_FLAG_HSIRDY) == RESET)
 80032ec:	e008      	b.n	8003300 <HAL_RCC_OscConfig+0x1c4>
        {
          if((HAL_GetTick() - tickstart ) > HSI_TIMEOUT_VALUE)
 80032ee:	f7ff f969 	bl	80025c4 <HAL_GetTick>
 80032f2:	4602      	mov	r2, r0
 80032f4:	693b      	ldr	r3, [r7, #16]
 80032f6:	1ad3      	subs	r3, r2, r3
 80032f8:	2b02      	cmp	r3, #2
 80032fa:	d901      	bls.n	8003300 <HAL_RCC_OscConfig+0x1c4>
          {
            return HAL_TIMEOUT;
 80032fc:	2303      	movs	r3, #3
 80032fe:	e1b4      	b.n	800366a <HAL_RCC_OscConfig+0x52e>
        while(__HAL_RCC_GET_FLAG(RCC_FLAG_HSIRDY) == RESET)
 8003300:	4b2b      	ldr	r3, [pc, #172]	; (80033b0 <HAL_RCC_OscConfig+0x274>)
 8003302:	681b      	ldr	r3, [r3, #0]
 8003304:	f003 0302 	and.w	r3, r3, #2
 8003308:	2b00      	cmp	r3, #0
 800330a:	d0f0      	beq.n	80032ee <HAL_RCC_OscConfig+0x1b2>
          }
        }

        /* Adjusts the Internal High Speed oscillator (HSI) calibration value.*/
        __HAL_RCC_HSI_CALIBRATIONVALUE_ADJUST(RCC_OscInitStruct->HSICalibrationValue);
 800330c:	4b28      	ldr	r3, [pc, #160]	; (80033b0 <HAL_RCC_OscConfig+0x274>)
 800330e:	681b      	ldr	r3, [r3, #0]
 8003310:	f023 02f8 	bic.w	r2, r3, #248	; 0xf8
 8003314:	687b      	ldr	r3, [r7, #4]
 8003316:	691b      	ldr	r3, [r3, #16]
 8003318:	00db      	lsls	r3, r3, #3
 800331a:	4925      	ldr	r1, [pc, #148]	; (80033b0 <HAL_RCC_OscConfig+0x274>)
 800331c:	4313      	orrs	r3, r2
 800331e:	600b      	str	r3, [r1, #0]
 8003320:	e015      	b.n	800334e <HAL_RCC_OscConfig+0x212>
      }
      else
      {
        /* Disable the Internal High Speed oscillator (HSI). */
        __HAL_RCC_HSI_DISABLE();
 8003322:	4b24      	ldr	r3, [pc, #144]	; (80033b4 <HAL_RCC_OscConfig+0x278>)
 8003324:	2200      	movs	r2, #0
 8003326:	601a      	str	r2, [r3, #0]

        /* Get Start Tick*/
        tickstart = HAL_GetTick();
 8003328:	f7ff f94c 	bl	80025c4 <HAL_GetTick>
 800332c:	6138      	str	r0, [r7, #16]

        /* Wait till HSI is ready */
        while(__HAL_RCC_GET_FLAG(RCC_FLAG_HSIRDY) != RESET)
 800332e:	e008      	b.n	8003342 <HAL_RCC_OscConfig+0x206>
        {
          if((HAL_GetTick() - tickstart ) > HSI_TIMEOUT_VALUE)
 8003330:	f7ff f948 	bl	80025c4 <HAL_GetTick>
 8003334:	4602      	mov	r2, r0
 8003336:	693b      	ldr	r3, [r7, #16]
 8003338:	1ad3      	subs	r3, r2, r3
 800333a:	2b02      	cmp	r3, #2
 800333c:	d901      	bls.n	8003342 <HAL_RCC_OscConfig+0x206>
          {
            return HAL_TIMEOUT;
 800333e:	2303      	movs	r3, #3
 8003340:	e193      	b.n	800366a <HAL_RCC_OscConfig+0x52e>
        while(__HAL_RCC_GET_FLAG(RCC_FLAG_HSIRDY) != RESET)
 8003342:	4b1b      	ldr	r3, [pc, #108]	; (80033b0 <HAL_RCC_OscConfig+0x274>)
 8003344:	681b      	ldr	r3, [r3, #0]
 8003346:	f003 0302 	and.w	r3, r3, #2
 800334a:	2b00      	cmp	r3, #0
 800334c:	d1f0      	bne.n	8003330 <HAL_RCC_OscConfig+0x1f4>
        }
      }
    }
  }
  /*------------------------------ LSI Configuration -------------------------*/
  if(((RCC_OscInitStruct->OscillatorType) & RCC_OSCILLATORTYPE_LSI) == RCC_OSCILLATORTYPE_LSI)
 800334e:	687b      	ldr	r3, [r7, #4]
 8003350:	681b      	ldr	r3, [r3, #0]
 8003352:	f003 0308 	and.w	r3, r3, #8
 8003356:	2b00      	cmp	r3, #0
 8003358:	d036      	beq.n	80033c8 <HAL_RCC_OscConfig+0x28c>
  {
    /* Check the parameters */
    assert_param(IS_RCC_LSI(RCC_OscInitStruct->LSIState));

    /* Check the LSI State */
    if((RCC_OscInitStruct->LSIState)!= RCC_LSI_OFF)
 800335a:	687b      	ldr	r3, [r7, #4]
 800335c:	695b      	ldr	r3, [r3, #20]
 800335e:	2b00      	cmp	r3, #0
 8003360:	d016      	beq.n	8003390 <HAL_RCC_OscConfig+0x254>
    {
      /* Enable the Internal Low Speed oscillator (LSI). */
      __HAL_RCC_LSI_ENABLE();
 8003362:	4b15      	ldr	r3, [pc, #84]	; (80033b8 <HAL_RCC_OscConfig+0x27c>)
 8003364:	2201      	movs	r2, #1
 8003366:	601a      	str	r2, [r3, #0]

      /* Get Start Tick*/
      tickstart = HAL_GetTick();
 8003368:	f7ff f92c 	bl	80025c4 <HAL_GetTick>
 800336c:	6138      	str	r0, [r7, #16]

      /* Wait till LSI is ready */
      while(__HAL_RCC_GET_FLAG(RCC_FLAG_LSIRDY) == RESET)
 800336e:	e008      	b.n	8003382 <HAL_RCC_OscConfig+0x246>
      {
        if((HAL_GetTick() - tickstart ) > LSI_TIMEOUT_VALUE)
 8003370:	f7ff f928 	bl	80025c4 <HAL_GetTick>
 8003374:	4602      	mov	r2, r0
 8003376:	693b      	ldr	r3, [r7, #16]
 8003378:	1ad3      	subs	r3, r2, r3
 800337a:	2b02      	cmp	r3, #2
 800337c:	d901      	bls.n	8003382 <HAL_RCC_OscConfig+0x246>
        {
          return HAL_TIMEOUT;
 800337e:	2303      	movs	r3, #3
 8003380:	e173      	b.n	800366a <HAL_RCC_OscConfig+0x52e>
      while(__HAL_RCC_GET_FLAG(RCC_FLAG_LSIRDY) == RESET)
 8003382:	4b0b      	ldr	r3, [pc, #44]	; (80033b0 <HAL_RCC_OscConfig+0x274>)
 8003384:	6f5b      	ldr	r3, [r3, #116]	; 0x74
 8003386:	f003 0302 	and.w	r3, r3, #2
 800338a:	2b00      	cmp	r3, #0
 800338c:	d0f0      	beq.n	8003370 <HAL_RCC_OscConfig+0x234>
 800338e:	e01b      	b.n	80033c8 <HAL_RCC_OscConfig+0x28c>
      }
    }
    else
    {
      /* Disable the Internal Low Speed oscillator (LSI). */
      __HAL_RCC_LSI_DISABLE();
 8003390:	4b09      	ldr	r3, [pc, #36]	; (80033b8 <HAL_RCC_OscConfig+0x27c>)
 8003392:	2200      	movs	r2, #0
 8003394:	601a      	str	r2, [r3, #0]

      /* Get Start Tick*/
      tickstart = HAL_GetTick();
 8003396:	f7ff f915 	bl	80025c4 <HAL_GetTick>
 800339a:	6138      	str	r0, [r7, #16]

      /* Wait till LSI is ready */
      while(__HAL_RCC_GET_FLAG(RCC_FLAG_LSIRDY) != RESET)
 800339c:	e00e      	b.n	80033bc <HAL_RCC_OscConfig+0x280>
      {
        if((HAL_GetTick() - tickstart ) > LSI_TIMEOUT_VALUE)
 800339e:	f7ff f911 	bl	80025c4 <HAL_GetTick>
 80033a2:	4602      	mov	r2, r0
 80033a4:	693b      	ldr	r3, [r7, #16]
 80033a6:	1ad3      	subs	r3, r2, r3
 80033a8:	2b02      	cmp	r3, #2
 80033aa:	d907      	bls.n	80033bc <HAL_RCC_OscConfig+0x280>
        {
          return HAL_TIMEOUT;
 80033ac:	2303      	movs	r3, #3
 80033ae:	e15c      	b.n	800366a <HAL_RCC_OscConfig+0x52e>
 80033b0:	40023800 	.word	0x40023800
 80033b4:	42470000 	.word	0x42470000
 80033b8:	42470e80 	.word	0x42470e80
      while(__HAL_RCC_GET_FLAG(RCC_FLAG_LSIRDY) != RESET)
 80033bc:	4b8a      	ldr	r3, [pc, #552]	; (80035e8 <HAL_RCC_OscConfig+0x4ac>)
 80033be:	6f5b      	ldr	r3, [r3, #116]	; 0x74
 80033c0:	f003 0302 	and.w	r3, r3, #2
 80033c4:	2b00      	cmp	r3, #0
 80033c6:	d1ea      	bne.n	800339e <HAL_RCC_OscConfig+0x262>
        }
      }
    }
  }
  /*------------------------------ LSE Configuration -------------------------*/
  if(((RCC_OscInitStruct->OscillatorType) & RCC_OSCILLATORTYPE_LSE) == RCC_OSCILLATORTYPE_LSE)
 80033c8:	687b      	ldr	r3, [r7, #4]
 80033ca:	681b      	ldr	r3, [r3, #0]
 80033cc:	f003 0304 	and.w	r3, r3, #4
 80033d0:	2b00      	cmp	r3, #0
 80033d2:	f000 8097 	beq.w	8003504 <HAL_RCC_OscConfig+0x3c8>
  {
    FlagStatus       pwrclkchanged = RESET;
 80033d6:	2300      	movs	r3, #0
 80033d8:	75fb      	strb	r3, [r7, #23]
    /* Check the parameters */
    assert_param(IS_RCC_LSE(RCC_OscInitStruct->LSEState));

    /* Update LSE configuration in Backup Domain control register    */
    /* Requires to enable write access to Backup Domain of necessary */
    if(__HAL_RCC_PWR_IS_CLK_DISABLED())
 80033da:	4b83      	ldr	r3, [pc, #524]	; (80035e8 <HAL_RCC_OscConfig+0x4ac>)
 80033dc:	6c1b      	ldr	r3, [r3, #64]	; 0x40
 80033de:	f003 5380 	and.w	r3, r3, #268435456	; 0x10000000
 80033e2:	2b00      	cmp	r3, #0
 80033e4:	d10f      	bne.n	8003406 <HAL_RCC_OscConfig+0x2ca>
    {
      __HAL_RCC_PWR_CLK_ENABLE();
 80033e6:	2300      	movs	r3, #0
 80033e8:	60bb      	str	r3, [r7, #8]
 80033ea:	4b7f      	ldr	r3, [pc, #508]	; (80035e8 <HAL_RCC_OscConfig+0x4ac>)
 80033ec:	6c1b      	ldr	r3, [r3, #64]	; 0x40
 80033ee:	4a7e      	ldr	r2, [pc, #504]	; (80035e8 <HAL_RCC_OscConfig+0x4ac>)
 80033f0:	f043 5380 	orr.w	r3, r3, #268435456	; 0x10000000
 80033f4:	6413      	str	r3, [r2, #64]	; 0x40
 80033f6:	4b7c      	ldr	r3, [pc, #496]	; (80035e8 <HAL_RCC_OscConfig+0x4ac>)
 80033f8:	6c1b      	ldr	r3, [r3, #64]	; 0x40
 80033fa:	f003 5380 	and.w	r3, r3, #268435456	; 0x10000000
 80033fe:	60bb      	str	r3, [r7, #8]
 8003400:	68bb      	ldr	r3, [r7, #8]
      pwrclkchanged = SET;
 8003402:	2301      	movs	r3, #1
 8003404:	75fb      	strb	r3, [r7, #23]
    }

    if(HAL_IS_BIT_CLR(PWR->CR, PWR_CR_DBP))
 8003406:	4b79      	ldr	r3, [pc, #484]	; (80035ec <HAL_RCC_OscConfig+0x4b0>)
 8003408:	681b      	ldr	r3, [r3, #0]
 800340a:	f403 7380 	and.w	r3, r3, #256	; 0x100
 800340e:	2b00      	cmp	r3, #0
 8003410:	d118      	bne.n	8003444 <HAL_RCC_OscConfig+0x308>
    {
      /* Enable write access to Backup domain */
      SET_BIT(PWR->CR, PWR_CR_DBP);
 8003412:	4b76      	ldr	r3, [pc, #472]	; (80035ec <HAL_RCC_OscConfig+0x4b0>)
 8003414:	681b      	ldr	r3, [r3, #0]
 8003416:	4a75      	ldr	r2, [pc, #468]	; (80035ec <HAL_RCC_OscConfig+0x4b0>)
 8003418:	f443 7380 	orr.w	r3, r3, #256	; 0x100
 800341c:	6013      	str	r3, [r2, #0]

      /* Wait for Backup domain Write protection disable */
      tickstart = HAL_GetTick();
 800341e:	f7ff f8d1 	bl	80025c4 <HAL_GetTick>
 8003422:	6138      	str	r0, [r7, #16]

      while(HAL_IS_BIT_CLR(PWR->CR, PWR_CR_DBP))
 8003424:	e008      	b.n	8003438 <HAL_RCC_OscConfig+0x2fc>
      {
        if((HAL_GetTick() - tickstart) > RCC_DBP_TIMEOUT_VALUE)
 8003426:	f7ff f8cd 	bl	80025c4 <HAL_GetTick>
 800342a:	4602      	mov	r2, r0
 800342c:	693b      	ldr	r3, [r7, #16]
 800342e:	1ad3      	subs	r3, r2, r3
 8003430:	2b02      	cmp	r3, #2
 8003432:	d901      	bls.n	8003438 <HAL_RCC_OscConfig+0x2fc>
        {
          return HAL_TIMEOUT;
 8003434:	2303      	movs	r3, #3
 8003436:	e118      	b.n	800366a <HAL_RCC_OscConfig+0x52e>
      while(HAL_IS_BIT_CLR(PWR->CR, PWR_CR_DBP))
 8003438:	4b6c      	ldr	r3, [pc, #432]	; (80035ec <HAL_RCC_OscConfig+0x4b0>)
 800343a:	681b      	ldr	r3, [r3, #0]
 800343c:	f403 7380 	and.w	r3, r3, #256	; 0x100
 8003440:	2b00      	cmp	r3, #0
 8003442:	d0f0      	beq.n	8003426 <HAL_RCC_OscConfig+0x2ea>
        }
      }
    }

    /* Set the new LSE configuration -----------------------------------------*/
    __HAL_RCC_LSE_CONFIG(RCC_OscInitStruct->LSEState);
 8003444:	687b      	ldr	r3, [r7, #4]
 8003446:	689b      	ldr	r3, [r3, #8]
 8003448:	2b01      	cmp	r3, #1
 800344a:	d106      	bne.n	800345a <HAL_RCC_OscConfig+0x31e>
 800344c:	4b66      	ldr	r3, [pc, #408]	; (80035e8 <HAL_RCC_OscConfig+0x4ac>)
 800344e:	6f1b      	ldr	r3, [r3, #112]	; 0x70
 8003450:	4a65      	ldr	r2, [pc, #404]	; (80035e8 <HAL_RCC_OscConfig+0x4ac>)
 8003452:	f043 0301 	orr.w	r3, r3, #1
 8003456:	6713      	str	r3, [r2, #112]	; 0x70
 8003458:	e01c      	b.n	8003494 <HAL_RCC_OscConfig+0x358>
 800345a:	687b      	ldr	r3, [r7, #4]
 800345c:	689b      	ldr	r3, [r3, #8]
 800345e:	2b05      	cmp	r3, #5
 8003460:	d10c      	bne.n	800347c <HAL_RCC_OscConfig+0x340>
 8003462:	4b61      	ldr	r3, [pc, #388]	; (80035e8 <HAL_RCC_OscConfig+0x4ac>)
 8003464:	6f1b      	ldr	r3, [r3, #112]	; 0x70
 8003466:	4a60      	ldr	r2, [pc, #384]	; (80035e8 <HAL_RCC_OscConfig+0x4ac>)
 8003468:	f043 0304 	orr.w	r3, r3, #4
 800346c:	6713      	str	r3, [r2, #112]	; 0x70
 800346e:	4b5e      	ldr	r3, [pc, #376]	; (80035e8 <HAL_RCC_OscConfig+0x4ac>)
 8003470:	6f1b      	ldr	r3, [r3, #112]	; 0x70
 8003472:	4a5d      	ldr	r2, [pc, #372]	; (80035e8 <HAL_RCC_OscConfig+0x4ac>)
 8003474:	f043 0301 	orr.w	r3, r3, #1
 8003478:	6713      	str	r3, [r2, #112]	; 0x70
 800347a:	e00b      	b.n	8003494 <HAL_RCC_OscConfig+0x358>
 800347c:	4b5a      	ldr	r3, [pc, #360]	; (80035e8 <HAL_RCC_OscConfig+0x4ac>)
 800347e:	6f1b      	ldr	r3, [r3, #112]	; 0x70
 8003480:	4a59      	ldr	r2, [pc, #356]	; (80035e8 <HAL_RCC_OscConfig+0x4ac>)
 8003482:	f023 0301 	bic.w	r3, r3, #1
 8003486:	6713      	str	r3, [r2, #112]	; 0x70
 8003488:	4b57      	ldr	r3, [pc, #348]	; (80035e8 <HAL_RCC_OscConfig+0x4ac>)
 800348a:	6f1b      	ldr	r3, [r3, #112]	; 0x70
 800348c:	4a56      	ldr	r2, [pc, #344]	; (80035e8 <HAL_RCC_OscConfig+0x4ac>)
 800348e:	f023 0304 	bic.w	r3, r3, #4
 8003492:	6713      	str	r3, [r2, #112]	; 0x70
    /* Check the LSE State */
    if((RCC_OscInitStruct->LSEState) != RCC_LSE_OFF)
 8003494:	687b      	ldr	r3, [r7, #4]
 8003496:	689b      	ldr	r3, [r3, #8]
 8003498:	2b00      	cmp	r3, #0
 800349a:	d015      	beq.n	80034c8 <HAL_RCC_OscConfig+0x38c>
    {
      /* Get Start Tick*/
      tickstart = HAL_GetTick();
 800349c:	f7ff f892 	bl	80025c4 <HAL_GetTick>
 80034a0:	6138      	str	r0, [r7, #16]

      /* Wait till LSE is ready */
      while(__HAL_RCC_GET_FLAG(RCC_FLAG_LSERDY) == RESET)
 80034a2:	e00a      	b.n	80034ba <HAL_RCC_OscConfig+0x37e>
      {
        if((HAL_GetTick() - tickstart ) > RCC_LSE_TIMEOUT_VALUE)
 80034a4:	f7ff f88e 	bl	80025c4 <HAL_GetTick>
 80034a8:	4602      	mov	r2, r0
 80034aa:	693b      	ldr	r3, [r7, #16]
 80034ac:	1ad3      	subs	r3, r2, r3
 80034ae:	f241 3288 	movw	r2, #5000	; 0x1388
 80034b2:	4293      	cmp	r3, r2
 80034b4:	d901      	bls.n	80034ba <HAL_RCC_OscConfig+0x37e>
        {
          return HAL_TIMEOUT;
 80034b6:	2303      	movs	r3, #3
 80034b8:	e0d7      	b.n	800366a <HAL_RCC_OscConfig+0x52e>
      while(__HAL_RCC_GET_FLAG(RCC_FLAG_LSERDY) == RESET)
 80034ba:	4b4b      	ldr	r3, [pc, #300]	; (80035e8 <HAL_RCC_OscConfig+0x4ac>)
 80034bc:	6f1b      	ldr	r3, [r3, #112]	; 0x70
 80034be:	f003 0302 	and.w	r3, r3, #2
 80034c2:	2b00      	cmp	r3, #0
 80034c4:	d0ee      	beq.n	80034a4 <HAL_RCC_OscConfig+0x368>
 80034c6:	e014      	b.n	80034f2 <HAL_RCC_OscConfig+0x3b6>
      }
    }
    else
    {
      /* Get Start Tick*/
      tickstart = HAL_GetTick();
 80034c8:	f7ff f87c 	bl	80025c4 <HAL_GetTick>
 80034cc:	6138      	str	r0, [r7, #16]

      /* Wait till LSE is ready */
      while(__HAL_RCC_GET_FLAG(RCC_FLAG_LSERDY) != RESET)
 80034ce:	e00a      	b.n	80034e6 <HAL_RCC_OscConfig+0x3aa>
      {
        if((HAL_GetTick() - tickstart ) > RCC_LSE_TIMEOUT_VALUE)
 80034d0:	f7ff f878 	bl	80025c4 <HAL_GetTick>
 80034d4:	4602      	mov	r2, r0
 80034d6:	693b      	ldr	r3, [r7, #16]
 80034d8:	1ad3      	subs	r3, r2, r3
 80034da:	f241 3288 	movw	r2, #5000	; 0x1388
 80034de:	4293      	cmp	r3, r2
 80034e0:	d901      	bls.n	80034e6 <HAL_RCC_OscConfig+0x3aa>
        {
          return HAL_TIMEOUT;
 80034e2:	2303      	movs	r3, #3
 80034e4:	e0c1      	b.n	800366a <HAL_RCC_OscConfig+0x52e>
      while(__HAL_RCC_GET_FLAG(RCC_FLAG_LSERDY) != RESET)
 80034e6:	4b40      	ldr	r3, [pc, #256]	; (80035e8 <HAL_RCC_OscConfig+0x4ac>)
 80034e8:	6f1b      	ldr	r3, [r3, #112]	; 0x70
 80034ea:	f003 0302 	and.w	r3, r3, #2
 80034ee:	2b00      	cmp	r3, #0
 80034f0:	d1ee      	bne.n	80034d0 <HAL_RCC_OscConfig+0x394>
        }
      }
    }

    /* Restore clock configuration if changed */
    if(pwrclkchanged == SET)
 80034f2:	7dfb      	ldrb	r3, [r7, #23]
 80034f4:	2b01      	cmp	r3, #1
 80034f6:	d105      	bne.n	8003504 <HAL_RCC_OscConfig+0x3c8>
    {
      __HAL_RCC_PWR_CLK_DISABLE();
 80034f8:	4b3b      	ldr	r3, [pc, #236]	; (80035e8 <HAL_RCC_OscConfig+0x4ac>)
 80034fa:	6c1b      	ldr	r3, [r3, #64]	; 0x40
 80034fc:	4a3a      	ldr	r2, [pc, #232]	; (80035e8 <HAL_RCC_OscConfig+0x4ac>)
 80034fe:	f023 5380 	bic.w	r3, r3, #268435456	; 0x10000000
 8003502:	6413      	str	r3, [r2, #64]	; 0x40
    }
  }
  /*-------------------------------- PLL Configuration -----------------------*/
  /* Check the parameters */
  assert_param(IS_RCC_PLL(RCC_OscInitStruct->PLL.PLLState));
  if ((RCC_OscInitStruct->PLL.PLLState) != RCC_PLL_NONE)
 8003504:	687b      	ldr	r3, [r7, #4]
 8003506:	699b      	ldr	r3, [r3, #24]
 8003508:	2b00      	cmp	r3, #0
 800350a:	f000 80ad 	beq.w	8003668 <HAL_RCC_OscConfig+0x52c>
  {
    /* Check if the PLL is used as system clock or not */
    if(__HAL_RCC_GET_SYSCLK_SOURCE() != RCC_CFGR_SWS_PLL)
 800350e:	4b36      	ldr	r3, [pc, #216]	; (80035e8 <HAL_RCC_OscConfig+0x4ac>)
 8003510:	689b      	ldr	r3, [r3, #8]
 8003512:	f003 030c 	and.w	r3, r3, #12
 8003516:	2b08      	cmp	r3, #8
 8003518:	d060      	beq.n	80035dc <HAL_RCC_OscConfig+0x4a0>
    {
      if((RCC_OscInitStruct->PLL.PLLState) == RCC_PLL_ON)
 800351a:	687b      	ldr	r3, [r7, #4]
 800351c:	699b      	ldr	r3, [r3, #24]
 800351e:	2b02      	cmp	r3, #2
 8003520:	d145      	bne.n	80035ae <HAL_RCC_OscConfig+0x472>
        assert_param(IS_RCC_PLLP_VALUE(RCC_OscInitStruct->PLL.PLLP));
        assert_param(IS_RCC_PLLQ_VALUE(RCC_OscInitStruct->PLL.PLLQ));
        assert_param(IS_RCC_PLLR_VALUE(RCC_OscInitStruct->PLL.PLLR));

        /* Disable the main PLL. */
        __HAL_RCC_PLL_DISABLE();
 8003522:	4b33      	ldr	r3, [pc, #204]	; (80035f0 <HAL_RCC_OscConfig+0x4b4>)
 8003524:	2200      	movs	r2, #0
 8003526:	601a      	str	r2, [r3, #0]

        /* Get Start Tick*/
        tickstart = HAL_GetTick();
 8003528:	f7ff f84c 	bl	80025c4 <HAL_GetTick>
 800352c:	6138      	str	r0, [r7, #16]

        /* Wait till PLL is ready */
        while(__HAL_RCC_GET_FLAG(RCC_FLAG_PLLRDY) != RESET)
 800352e:	e008      	b.n	8003542 <HAL_RCC_OscConfig+0x406>
        {
          if((HAL_GetTick() - tickstart ) > PLL_TIMEOUT_VALUE)
 8003530:	f7ff f848 	bl	80025c4 <HAL_GetTick>
 8003534:	4602      	mov	r2, r0
 8003536:	693b      	ldr	r3, [r7, #16]
 8003538:	1ad3      	subs	r3, r2, r3
 800353a:	2b02      	cmp	r3, #2
 800353c:	d901      	bls.n	8003542 <HAL_RCC_OscConfig+0x406>
          {
            return HAL_TIMEOUT;
 800353e:	2303      	movs	r3, #3
 8003540:	e093      	b.n	800366a <HAL_RCC_OscConfig+0x52e>
        while(__HAL_RCC_GET_FLAG(RCC_FLAG_PLLRDY) != RESET)
 8003542:	4b29      	ldr	r3, [pc, #164]	; (80035e8 <HAL_RCC_OscConfig+0x4ac>)
 8003544:	681b      	ldr	r3, [r3, #0]
 8003546:	f003 7300 	and.w	r3, r3, #33554432	; 0x2000000
 800354a:	2b00      	cmp	r3, #0
 800354c:	d1f0      	bne.n	8003530 <HAL_RCC_OscConfig+0x3f4>
          }
        }

        /* Configure the main PLL clock source, multiplication and division factors. */
        WRITE_REG(RCC->PLLCFGR, (RCC_OscInitStruct->PLL.PLLSource                                            | \
 800354e:	687b      	ldr	r3, [r7, #4]
 8003550:	69da      	ldr	r2, [r3, #28]
 8003552:	687b      	ldr	r3, [r7, #4]
 8003554:	6a1b      	ldr	r3, [r3, #32]
 8003556:	431a      	orrs	r2, r3
 8003558:	687b      	ldr	r3, [r7, #4]
 800355a:	6a5b      	ldr	r3, [r3, #36]	; 0x24
 800355c:	019b      	lsls	r3, r3, #6
 800355e:	431a      	orrs	r2, r3
 8003560:	687b      	ldr	r3, [r7, #4]
 8003562:	6a9b      	ldr	r3, [r3, #40]	; 0x28
 8003564:	085b      	lsrs	r3, r3, #1
 8003566:	3b01      	subs	r3, #1
 8003568:	041b      	lsls	r3, r3, #16
 800356a:	431a      	orrs	r2, r3
 800356c:	687b      	ldr	r3, [r7, #4]
 800356e:	6adb      	ldr	r3, [r3, #44]	; 0x2c
 8003570:	061b      	lsls	r3, r3, #24
 8003572:	431a      	orrs	r2, r3
 8003574:	687b      	ldr	r3, [r7, #4]
 8003576:	6b1b      	ldr	r3, [r3, #48]	; 0x30
 8003578:	071b      	lsls	r3, r3, #28
 800357a:	491b      	ldr	r1, [pc, #108]	; (80035e8 <HAL_RCC_OscConfig+0x4ac>)
 800357c:	4313      	orrs	r3, r2
 800357e:	604b      	str	r3, [r1, #4]
                                 (RCC_OscInitStruct->PLL.PLLN << RCC_PLLCFGR_PLLN_Pos)                       | \
                                 (((RCC_OscInitStruct->PLL.PLLP >> 1U) - 1U) << RCC_PLLCFGR_PLLP_Pos)        | \
                                 (RCC_OscInitStruct->PLL.PLLQ << RCC_PLLCFGR_PLLQ_Pos)                       | \
                                 (RCC_OscInitStruct->PLL.PLLR << RCC_PLLCFGR_PLLR_Pos)));
        /* Enable the main PLL. */
        __HAL_RCC_PLL_ENABLE();
 8003580:	4b1b      	ldr	r3, [pc, #108]	; (80035f0 <HAL_RCC_OscConfig+0x4b4>)
 8003582:	2201      	movs	r2, #1
 8003584:	601a      	str	r2, [r3, #0]

        /* Get Start Tick*/
        tickstart = HAL_GetTick();
 8003586:	f7ff f81d 	bl	80025c4 <HAL_GetTick>
 800358a:	6138      	str	r0, [r7, #16]

        /* Wait till PLL is ready */
        while(__HAL_RCC_GET_FLAG(RCC_FLAG_PLLRDY) == RESET)
 800358c:	e008      	b.n	80035a0 <HAL_RCC_OscConfig+0x464>
        {
          if((HAL_GetTick() - tickstart ) > PLL_TIMEOUT_VALUE)
 800358e:	f7ff f819 	bl	80025c4 <HAL_GetTick>
 8003592:	4602      	mov	r2, r0
 8003594:	693b      	ldr	r3, [r7, #16]
 8003596:	1ad3      	subs	r3, r2, r3
 8003598:	2b02      	cmp	r3, #2
 800359a:	d901      	bls.n	80035a0 <HAL_RCC_OscConfig+0x464>
          {
            return HAL_TIMEOUT;
 800359c:	2303      	movs	r3, #3
 800359e:	e064      	b.n	800366a <HAL_RCC_OscConfig+0x52e>
        while(__HAL_RCC_GET_FLAG(RCC_FLAG_PLLRDY) == RESET)
 80035a0:	4b11      	ldr	r3, [pc, #68]	; (80035e8 <HAL_RCC_OscConfig+0x4ac>)
 80035a2:	681b      	ldr	r3, [r3, #0]
 80035a4:	f003 7300 	and.w	r3, r3, #33554432	; 0x2000000
 80035a8:	2b00      	cmp	r3, #0
 80035aa:	d0f0      	beq.n	800358e <HAL_RCC_OscConfig+0x452>
 80035ac:	e05c      	b.n	8003668 <HAL_RCC_OscConfig+0x52c>
        }
      }
      else
      {
        /* Disable the main PLL. */
        __HAL_RCC_PLL_DISABLE();
 80035ae:	4b10      	ldr	r3, [pc, #64]	; (80035f0 <HAL_RCC_OscConfig+0x4b4>)
 80035b0:	2200      	movs	r2, #0
 80035b2:	601a      	str	r2, [r3, #0]

        /* Get Start Tick*/
        tickstart = HAL_GetTick();
 80035b4:	f7ff f806 	bl	80025c4 <HAL_GetTick>
 80035b8:	6138      	str	r0, [r7, #16]

        /* Wait till PLL is ready */
        while(__HAL_RCC_GET_FLAG(RCC_FLAG_PLLRDY) != RESET)
 80035ba:	e008      	b.n	80035ce <HAL_RCC_OscConfig+0x492>
        {
          if((HAL_GetTick() - tickstart ) > PLL_TIMEOUT_VALUE)
 80035bc:	f7ff f802 	bl	80025c4 <HAL_GetTick>
 80035c0:	4602      	mov	r2, r0
 80035c2:	693b      	ldr	r3, [r7, #16]
 80035c4:	1ad3      	subs	r3, r2, r3
 80035c6:	2b02      	cmp	r3, #2
 80035c8:	d901      	bls.n	80035ce <HAL_RCC_OscConfig+0x492>
          {
            return HAL_TIMEOUT;
 80035ca:	2303      	movs	r3, #3
 80035cc:	e04d      	b.n	800366a <HAL_RCC_OscConfig+0x52e>
        while(__HAL_RCC_GET_FLAG(RCC_FLAG_PLLRDY) != RESET)
 80035ce:	4b06      	ldr	r3, [pc, #24]	; (80035e8 <HAL_RCC_OscConfig+0x4ac>)
 80035d0:	681b      	ldr	r3, [r3, #0]
 80035d2:	f003 7300 	and.w	r3, r3, #33554432	; 0x2000000
 80035d6:	2b00      	cmp	r3, #0
 80035d8:	d1f0      	bne.n	80035bc <HAL_RCC_OscConfig+0x480>
 80035da:	e045      	b.n	8003668 <HAL_RCC_OscConfig+0x52c>
      }
    }
    else
    {
      /* Check if there is a request to disable the PLL used as System clock source */
      if((RCC_OscInitStruct->PLL.PLLState) == RCC_PLL_OFF)
 80035dc:	687b      	ldr	r3, [r7, #4]
 80035de:	699b      	ldr	r3, [r3, #24]
 80035e0:	2b01      	cmp	r3, #1
 80035e2:	d107      	bne.n	80035f4 <HAL_RCC_OscConfig+0x4b8>
      {
        return HAL_ERROR;
 80035e4:	2301      	movs	r3, #1
 80035e6:	e040      	b.n	800366a <HAL_RCC_OscConfig+0x52e>
 80035e8:	40023800 	.word	0x40023800
 80035ec:	40007000 	.word	0x40007000
 80035f0:	42470060 	.word	0x42470060
      }
      else
      {
        /* Do not return HAL_ERROR if request repeats the current configuration */
        pll_config = RCC->PLLCFGR;
 80035f4:	4b1f      	ldr	r3, [pc, #124]	; (8003674 <HAL_RCC_OscConfig+0x538>)
 80035f6:	685b      	ldr	r3, [r3, #4]
 80035f8:	60fb      	str	r3, [r7, #12]
#if defined (RCC_PLLCFGR_PLLR)
        if (((RCC_OscInitStruct->PLL.PLLState) == RCC_PLL_OFF) ||
 80035fa:	687b      	ldr	r3, [r7, #4]
 80035fc:	699b      	ldr	r3, [r3, #24]
 80035fe:	2b01      	cmp	r3, #1
 8003600:	d030      	beq.n	8003664 <HAL_RCC_OscConfig+0x528>
            (READ_BIT(pll_config, RCC_PLLCFGR_PLLSRC) != RCC_OscInitStruct->PLL.PLLSource) ||
 8003602:	68fb      	ldr	r3, [r7, #12]
 8003604:	f403 0280 	and.w	r2, r3, #4194304	; 0x400000
 8003608:	687b      	ldr	r3, [r7, #4]
 800360a:	69db      	ldr	r3, [r3, #28]
        if (((RCC_OscInitStruct->PLL.PLLState) == RCC_PLL_OFF) ||
 800360c:	429a      	cmp	r2, r3
 800360e:	d129      	bne.n	8003664 <HAL_RCC_OscConfig+0x528>
            (READ_BIT(pll_config, RCC_PLLCFGR_PLLM) != (RCC_OscInitStruct->PLL.PLLM) << RCC_PLLCFGR_PLLM_Pos) ||
 8003610:	68fb      	ldr	r3, [r7, #12]
 8003612:	f003 023f 	and.w	r2, r3, #63	; 0x3f
 8003616:	687b      	ldr	r3, [r7, #4]
 8003618:	6a1b      	ldr	r3, [r3, #32]
            (READ_BIT(pll_config, RCC_PLLCFGR_PLLSRC) != RCC_OscInitStruct->PLL.PLLSource) ||
 800361a:	429a      	cmp	r2, r3
 800361c:	d122      	bne.n	8003664 <HAL_RCC_OscConfig+0x528>
            (READ_BIT(pll_config, RCC_PLLCFGR_PLLN) != (RCC_OscInitStruct->PLL.PLLN) << RCC_PLLCFGR_PLLN_Pos) ||
 800361e:	68fa      	ldr	r2, [r7, #12]
 8003620:	f647 73c0 	movw	r3, #32704	; 0x7fc0
 8003624:	4013      	ands	r3, r2
 8003626:	687a      	ldr	r2, [r7, #4]
 8003628:	6a52      	ldr	r2, [r2, #36]	; 0x24
 800362a:	0192      	lsls	r2, r2, #6
            (READ_BIT(pll_config, RCC_PLLCFGR_PLLM) != (RCC_OscInitStruct->PLL.PLLM) << RCC_PLLCFGR_PLLM_Pos) ||
 800362c:	4293      	cmp	r3, r2
 800362e:	d119      	bne.n	8003664 <HAL_RCC_OscConfig+0x528>
            (READ_BIT(pll_config, RCC_PLLCFGR_PLLP) != (((RCC_OscInitStruct->PLL.PLLP >> 1U) - 1U)) << RCC_PLLCFGR_PLLP_Pos) ||
 8003630:	68fb      	ldr	r3, [r7, #12]
 8003632:	f403 3240 	and.w	r2, r3, #196608	; 0x30000
 8003636:	687b      	ldr	r3, [r7, #4]
 8003638:	6a9b      	ldr	r3, [r3, #40]	; 0x28
 800363a:	085b      	lsrs	r3, r3, #1
 800363c:	3b01      	subs	r3, #1
 800363e:	041b      	lsls	r3, r3, #16
            (READ_BIT(pll_config, RCC_PLLCFGR_PLLN) != (RCC_OscInitStruct->PLL.PLLN) << RCC_PLLCFGR_PLLN_Pos) ||
 8003640:	429a      	cmp	r2, r3
 8003642:	d10f      	bne.n	8003664 <HAL_RCC_OscConfig+0x528>
            (READ_BIT(pll_config, RCC_PLLCFGR_PLLQ) != (RCC_OscInitStruct->PLL.PLLQ << RCC_PLLCFGR_PLLQ_Pos)) ||
 8003644:	68fb      	ldr	r3, [r7, #12]
 8003646:	f003 6270 	and.w	r2, r3, #251658240	; 0xf000000
 800364a:	687b      	ldr	r3, [r7, #4]
 800364c:	6adb      	ldr	r3, [r3, #44]	; 0x2c
 800364e:	061b      	lsls	r3, r3, #24
            (READ_BIT(pll_config, RCC_PLLCFGR_PLLP) != (((RCC_OscInitStruct->PLL.PLLP >> 1U) - 1U)) << RCC_PLLCFGR_PLLP_Pos) ||
 8003650:	429a      	cmp	r2, r3
 8003652:	d107      	bne.n	8003664 <HAL_RCC_OscConfig+0x528>
            (READ_BIT(pll_config, RCC_PLLCFGR_PLLR) != (RCC_OscInitStruct->PLL.PLLR << RCC_PLLCFGR_PLLR_Pos)))
 8003654:	68fb      	ldr	r3, [r7, #12]
 8003656:	f003 42e0 	and.w	r2, r3, #1879048192	; 0x70000000
 800365a:	687b      	ldr	r3, [r7, #4]
 800365c:	6b1b      	ldr	r3, [r3, #48]	; 0x30
 800365e:	071b      	lsls	r3, r3, #28
            (READ_BIT(pll_config, RCC_PLLCFGR_PLLQ) != (RCC_OscInitStruct->PLL.PLLQ << RCC_PLLCFGR_PLLQ_Pos)) ||
 8003660:	429a      	cmp	r2, r3
 8003662:	d001      	beq.n	8003668 <HAL_RCC_OscConfig+0x52c>
            (READ_BIT(pll_config, RCC_PLLCFGR_PLLN) != (RCC_OscInitStruct->PLL.PLLN) << RCC_PLLCFGR_PLLN_Pos) ||
            (READ_BIT(pll_config, RCC_PLLCFGR_PLLP) != (((RCC_OscInitStruct->PLL.PLLP >> 1U) - 1U)) << RCC_PLLCFGR_PLLP_Pos) ||
            (READ_BIT(pll_config, RCC_PLLCFGR_PLLQ) != (RCC_OscInitStruct->PLL.PLLQ << RCC_PLLCFGR_PLLQ_Pos)))
#endif
        {
          return HAL_ERROR;
 8003664:	2301      	movs	r3, #1
 8003666:	e000      	b.n	800366a <HAL_RCC_OscConfig+0x52e>
        }
      }
    }
  }
  return HAL_OK;
 8003668:	2300      	movs	r3, #0
}
 800366a:	4618      	mov	r0, r3
 800366c:	3718      	adds	r7, #24
 800366e:	46bd      	mov	sp, r7
 8003670:	bd80      	pop	{r7, pc}
 8003672:	bf00      	nop
 8003674:	40023800 	.word	0x40023800

08003678 <HAL_TIM_Base_Init>:
  *         Ex: call @ref HAL_TIM_Base_DeInit() before HAL_TIM_Base_Init()
  * @param  htim TIM Base handle
  * @retval HAL status
  */
HAL_StatusTypeDef HAL_TIM_Base_Init(TIM_HandleTypeDef *htim)
{
 8003678:	b580      	push	{r7, lr}
 800367a:	b082      	sub	sp, #8
 800367c:	af00      	add	r7, sp, #0
 800367e:	6078      	str	r0, [r7, #4]
  /* Check the TIM handle allocation */
  if (htim == NULL)
 8003680:	687b      	ldr	r3, [r7, #4]
 8003682:	2b00      	cmp	r3, #0
 8003684:	d101      	bne.n	800368a <HAL_TIM_Base_Init+0x12>
  {
    return HAL_ERROR;
 8003686:	2301      	movs	r3, #1
 8003688:	e041      	b.n	800370e <HAL_TIM_Base_Init+0x96>
  assert_param(IS_TIM_INSTANCE(htim->Instance));
  assert_param(IS_TIM_COUNTER_MODE(htim->Init.CounterMode));
  assert_param(IS_TIM_CLOCKDIVISION_DIV(htim->Init.ClockDivision));
  assert_param(IS_TIM_AUTORELOAD_PRELOAD(htim->Init.AutoReloadPreload));

  if (htim->State == HAL_TIM_STATE_RESET)
 800368a:	687b      	ldr	r3, [r7, #4]
 800368c:	f893 303d 	ldrb.w	r3, [r3, #61]	; 0x3d
 8003690:	b2db      	uxtb	r3, r3
 8003692:	2b00      	cmp	r3, #0
 8003694:	d106      	bne.n	80036a4 <HAL_TIM_Base_Init+0x2c>
  {
    /* Allocate lock resource and initialize it */
    htim->Lock = HAL_UNLOCKED;
 8003696:	687b      	ldr	r3, [r7, #4]
 8003698:	2200      	movs	r2, #0
 800369a:	f883 203c 	strb.w	r2, [r3, #60]	; 0x3c
    }
    /* Init the low level hardware : GPIO, CLOCK, NVIC */
    htim->Base_MspInitCallback(htim);
#else
    /* Init the low level hardware : GPIO, CLOCK, NVIC */
    HAL_TIM_Base_MspInit(htim);
 800369e:	6878      	ldr	r0, [r7, #4]
 80036a0:	f7fe fbac 	bl	8001dfc <HAL_TIM_Base_MspInit>
#endif /* USE_HAL_TIM_REGISTER_CALLBACKS */
  }

  /* Set the TIM state */
  htim->State = HAL_TIM_STATE_BUSY;
 80036a4:	687b      	ldr	r3, [r7, #4]
 80036a6:	2202      	movs	r2, #2
 80036a8:	f883 203d 	strb.w	r2, [r3, #61]	; 0x3d

  /* Set the Time Base configuration */
  TIM_Base_SetConfig(htim->Instance, &htim->Init);
 80036ac:	687b      	ldr	r3, [r7, #4]
 80036ae:	681a      	ldr	r2, [r3, #0]
 80036b0:	687b      	ldr	r3, [r7, #4]
 80036b2:	3304      	adds	r3, #4
 80036b4:	4619      	mov	r1, r3
 80036b6:	4610      	mov	r0, r2
 80036b8:	f000 fec8 	bl	800444c <TIM_Base_SetConfig>

  /* Initialize the DMA burst operation state */
  htim->DMABurstState = HAL_DMA_BURST_STATE_READY;
 80036bc:	687b      	ldr	r3, [r7, #4]
 80036be:	2201      	movs	r2, #1
 80036c0:	f883 2046 	strb.w	r2, [r3, #70]	; 0x46

  /* Initialize the TIM channels state */
  TIM_CHANNEL_STATE_SET_ALL(htim, HAL_TIM_CHANNEL_STATE_READY);
 80036c4:	687b      	ldr	r3, [r7, #4]
 80036c6:	2201      	movs	r2, #1
 80036c8:	f883 203e 	strb.w	r2, [r3, #62]	; 0x3e
 80036cc:	687b      	ldr	r3, [r7, #4]
 80036ce:	2201      	movs	r2, #1
 80036d0:	f883 203f 	strb.w	r2, [r3, #63]	; 0x3f
 80036d4:	687b      	ldr	r3, [r7, #4]
 80036d6:	2201      	movs	r2, #1
 80036d8:	f883 2040 	strb.w	r2, [r3, #64]	; 0x40
 80036dc:	687b      	ldr	r3, [r7, #4]
 80036de:	2201      	movs	r2, #1
 80036e0:	f883 2041 	strb.w	r2, [r3, #65]	; 0x41
  TIM_CHANNEL_N_STATE_SET_ALL(htim, HAL_TIM_CHANNEL_STATE_READY);
 80036e4:	687b      	ldr	r3, [r7, #4]
 80036e6:	2201      	movs	r2, #1
 80036e8:	f883 2042 	strb.w	r2, [r3, #66]	; 0x42
 80036ec:	687b      	ldr	r3, [r7, #4]
 80036ee:	2201      	movs	r2, #1
 80036f0:	f883 2043 	strb.w	r2, [r3, #67]	; 0x43
 80036f4:	687b      	ldr	r3, [r7, #4]
 80036f6:	2201      	movs	r2, #1
 80036f8:	f883 2044 	strb.w	r2, [r3, #68]	; 0x44
 80036fc:	687b      	ldr	r3, [r7, #4]
 80036fe:	2201      	movs	r2, #1
 8003700:	f883 2045 	strb.w	r2, [r3, #69]	; 0x45

  /* Initialize the TIM state*/
  htim->State = HAL_TIM_STATE_READY;
 8003704:	687b      	ldr	r3, [r7, #4]
 8003706:	2201      	movs	r2, #1
 8003708:	f883 203d 	strb.w	r2, [r3, #61]	; 0x3d

  return HAL_OK;
 800370c:	2300      	movs	r3, #0
}
 800370e:	4618      	mov	r0, r3
 8003710:	3708      	adds	r7, #8
 8003712:	46bd      	mov	sp, r7
 8003714:	bd80      	pop	{r7, pc}
	...

08003718 <HAL_TIM_Base_Start_IT>:
  * @brief  Starts the TIM Base generation in interrupt mode.
  * @param  htim TIM Base handle
  * @retval HAL status
  */
HAL_StatusTypeDef HAL_TIM_Base_Start_IT(TIM_HandleTypeDef *htim)
{
 8003718:	b480      	push	{r7}
 800371a:	b085      	sub	sp, #20
 800371c:	af00      	add	r7, sp, #0
 800371e:	6078      	str	r0, [r7, #4]

  /* Check the parameters */
  assert_param(IS_TIM_INSTANCE(htim->Instance));

  /* Check the TIM state */
  if (htim->State != HAL_TIM_STATE_READY)
 8003720:	687b      	ldr	r3, [r7, #4]
 8003722:	f893 303d 	ldrb.w	r3, [r3, #61]	; 0x3d
 8003726:	b2db      	uxtb	r3, r3
 8003728:	2b01      	cmp	r3, #1
 800372a:	d001      	beq.n	8003730 <HAL_TIM_Base_Start_IT+0x18>
  {
    return HAL_ERROR;
 800372c:	2301      	movs	r3, #1
 800372e:	e04e      	b.n	80037ce <HAL_TIM_Base_Start_IT+0xb6>
  }

  /* Set the TIM state */
  htim->State = HAL_TIM_STATE_BUSY;
 8003730:	687b      	ldr	r3, [r7, #4]
 8003732:	2202      	movs	r2, #2
 8003734:	f883 203d 	strb.w	r2, [r3, #61]	; 0x3d

  /* Enable the TIM Update interrupt */
  __HAL_TIM_ENABLE_IT(htim, TIM_IT_UPDATE);
 8003738:	687b      	ldr	r3, [r7, #4]
 800373a:	681b      	ldr	r3, [r3, #0]
 800373c:	68da      	ldr	r2, [r3, #12]
 800373e:	687b      	ldr	r3, [r7, #4]
 8003740:	681b      	ldr	r3, [r3, #0]
 8003742:	f042 0201 	orr.w	r2, r2, #1
 8003746:	60da      	str	r2, [r3, #12]

  /* Enable the Peripheral, except in trigger mode where enable is automatically done with trigger */
  if (IS_TIM_SLAVE_INSTANCE(htim->Instance))
 8003748:	687b      	ldr	r3, [r7, #4]
 800374a:	681b      	ldr	r3, [r3, #0]
 800374c:	4a23      	ldr	r2, [pc, #140]	; (80037dc <HAL_TIM_Base_Start_IT+0xc4>)
 800374e:	4293      	cmp	r3, r2
 8003750:	d022      	beq.n	8003798 <HAL_TIM_Base_Start_IT+0x80>
 8003752:	687b      	ldr	r3, [r7, #4]
 8003754:	681b      	ldr	r3, [r3, #0]
 8003756:	f1b3 4f80 	cmp.w	r3, #1073741824	; 0x40000000
 800375a:	d01d      	beq.n	8003798 <HAL_TIM_Base_Start_IT+0x80>
 800375c:	687b      	ldr	r3, [r7, #4]
 800375e:	681b      	ldr	r3, [r3, #0]
 8003760:	4a1f      	ldr	r2, [pc, #124]	; (80037e0 <HAL_TIM_Base_Start_IT+0xc8>)
 8003762:	4293      	cmp	r3, r2
 8003764:	d018      	beq.n	8003798 <HAL_TIM_Base_Start_IT+0x80>
 8003766:	687b      	ldr	r3, [r7, #4]
 8003768:	681b      	ldr	r3, [r3, #0]
 800376a:	4a1e      	ldr	r2, [pc, #120]	; (80037e4 <HAL_TIM_Base_Start_IT+0xcc>)
 800376c:	4293      	cmp	r3, r2
 800376e:	d013      	beq.n	8003798 <HAL_TIM_Base_Start_IT+0x80>
 8003770:	687b      	ldr	r3, [r7, #4]
 8003772:	681b      	ldr	r3, [r3, #0]
 8003774:	4a1c      	ldr	r2, [pc, #112]	; (80037e8 <HAL_TIM_Base_Start_IT+0xd0>)
 8003776:	4293      	cmp	r3, r2
 8003778:	d00e      	beq.n	8003798 <HAL_TIM_Base_Start_IT+0x80>
 800377a:	687b      	ldr	r3, [r7, #4]
 800377c:	681b      	ldr	r3, [r3, #0]
 800377e:	4a1b      	ldr	r2, [pc, #108]	; (80037ec <HAL_TIM_Base_Start_IT+0xd4>)
 8003780:	4293      	cmp	r3, r2
 8003782:	d009      	beq.n	8003798 <HAL_TIM_Base_Start_IT+0x80>
 8003784:	687b      	ldr	r3, [r7, #4]
 8003786:	681b      	ldr	r3, [r3, #0]
 8003788:	4a19      	ldr	r2, [pc, #100]	; (80037f0 <HAL_TIM_Base_Start_IT+0xd8>)
 800378a:	4293      	cmp	r3, r2
 800378c:	d004      	beq.n	8003798 <HAL_TIM_Base_Start_IT+0x80>
 800378e:	687b      	ldr	r3, [r7, #4]
 8003790:	681b      	ldr	r3, [r3, #0]
 8003792:	4a18      	ldr	r2, [pc, #96]	; (80037f4 <HAL_TIM_Base_Start_IT+0xdc>)
 8003794:	4293      	cmp	r3, r2
 8003796:	d111      	bne.n	80037bc <HAL_TIM_Base_Start_IT+0xa4>
  {
    tmpsmcr = htim->Instance->SMCR & TIM_SMCR_SMS;
 8003798:	687b      	ldr	r3, [r7, #4]
 800379a:	681b      	ldr	r3, [r3, #0]
 800379c:	689b      	ldr	r3, [r3, #8]
 800379e:	f003 0307 	and.w	r3, r3, #7
 80037a2:	60fb      	str	r3, [r7, #12]
    if (!IS_TIM_SLAVEMODE_TRIGGER_ENABLED(tmpsmcr))
 80037a4:	68fb      	ldr	r3, [r7, #12]
 80037a6:	2b06      	cmp	r3, #6
 80037a8:	d010      	beq.n	80037cc <HAL_TIM_Base_Start_IT+0xb4>
    {
      __HAL_TIM_ENABLE(htim);
 80037aa:	687b      	ldr	r3, [r7, #4]
 80037ac:	681b      	ldr	r3, [r3, #0]
 80037ae:	681a      	ldr	r2, [r3, #0]
 80037b0:	687b      	ldr	r3, [r7, #4]
 80037b2:	681b      	ldr	r3, [r3, #0]
 80037b4:	f042 0201 	orr.w	r2, r2, #1
 80037b8:	601a      	str	r2, [r3, #0]
    if (!IS_TIM_SLAVEMODE_TRIGGER_ENABLED(tmpsmcr))
 80037ba:	e007      	b.n	80037cc <HAL_TIM_Base_Start_IT+0xb4>
    }
  }
  else
  {
    __HAL_TIM_ENABLE(htim);
 80037bc:	687b      	ldr	r3, [r7, #4]
 80037be:	681b      	ldr	r3, [r3, #0]
 80037c0:	681a      	ldr	r2, [r3, #0]
 80037c2:	687b      	ldr	r3, [r7, #4]
 80037c4:	681b      	ldr	r3, [r3, #0]
 80037c6:	f042 0201 	orr.w	r2, r2, #1
 80037ca:	601a      	str	r2, [r3, #0]
  }

  /* Return function status */
  return HAL_OK;
 80037cc:	2300      	movs	r3, #0
}
 80037ce:	4618      	mov	r0, r3
 80037d0:	3714      	adds	r7, #20
 80037d2:	46bd      	mov	sp, r7
 80037d4:	f85d 7b04 	ldr.w	r7, [sp], #4
 80037d8:	4770      	bx	lr
 80037da:	bf00      	nop
 80037dc:	40010000 	.word	0x40010000
 80037e0:	40000400 	.word	0x40000400
 80037e4:	40000800 	.word	0x40000800
 80037e8:	40000c00 	.word	0x40000c00
 80037ec:	40010400 	.word	0x40010400
 80037f0:	40014000 	.word	0x40014000
 80037f4:	40001800 	.word	0x40001800

080037f8 <HAL_TIM_PWM_Init>:
  *         Ex: call @ref HAL_TIM_PWM_DeInit() before HAL_TIM_PWM_Init()
  * @param  htim TIM PWM handle
  * @retval HAL status
  */
HAL_StatusTypeDef HAL_TIM_PWM_Init(TIM_HandleTypeDef *htim)
{
 80037f8:	b580      	push	{r7, lr}
 80037fa:	b082      	sub	sp, #8
 80037fc:	af00      	add	r7, sp, #0
 80037fe:	6078      	str	r0, [r7, #4]
  /* Check the TIM handle allocation */
  if (htim == NULL)
 8003800:	687b      	ldr	r3, [r7, #4]
 8003802:	2b00      	cmp	r3, #0
 8003804:	d101      	bne.n	800380a <HAL_TIM_PWM_Init+0x12>
  {
    return HAL_ERROR;
 8003806:	2301      	movs	r3, #1
 8003808:	e041      	b.n	800388e <HAL_TIM_PWM_Init+0x96>
  assert_param(IS_TIM_INSTANCE(htim->Instance));
  assert_param(IS_TIM_COUNTER_MODE(htim->Init.CounterMode));
  assert_param(IS_TIM_CLOCKDIVISION_DIV(htim->Init.ClockDivision));
  assert_param(IS_TIM_AUTORELOAD_PRELOAD(htim->Init.AutoReloadPreload));

  if (htim->State == HAL_TIM_STATE_RESET)
 800380a:	687b      	ldr	r3, [r7, #4]
 800380c:	f893 303d 	ldrb.w	r3, [r3, #61]	; 0x3d
 8003810:	b2db      	uxtb	r3, r3
 8003812:	2b00      	cmp	r3, #0
 8003814:	d106      	bne.n	8003824 <HAL_TIM_PWM_Init+0x2c>
  {
    /* Allocate lock resource and initialize it */
    htim->Lock = HAL_UNLOCKED;
 8003816:	687b      	ldr	r3, [r7, #4]
 8003818:	2200      	movs	r2, #0
 800381a:	f883 203c 	strb.w	r2, [r3, #60]	; 0x3c
    }
    /* Init the low level hardware : GPIO, CLOCK, NVIC */
    htim->PWM_MspInitCallback(htim);
#else
    /* Init the low level hardware : GPIO, CLOCK, NVIC and DMA */
    HAL_TIM_PWM_MspInit(htim);
 800381e:	6878      	ldr	r0, [r7, #4]
 8003820:	f7fe fbca 	bl	8001fb8 <HAL_TIM_PWM_MspInit>
#endif /* USE_HAL_TIM_REGISTER_CALLBACKS */
  }

  /* Set the TIM state */
  htim->State = HAL_TIM_STATE_BUSY;
 8003824:	687b      	ldr	r3, [r7, #4]
 8003826:	2202      	movs	r2, #2
 8003828:	f883 203d 	strb.w	r2, [r3, #61]	; 0x3d

  /* Init the base time for the PWM */
  TIM_Base_SetConfig(htim->Instance, &htim->Init);
 800382c:	687b      	ldr	r3, [r7, #4]
 800382e:	681a      	ldr	r2, [r3, #0]
 8003830:	687b      	ldr	r3, [r7, #4]
 8003832:	3304      	adds	r3, #4
 8003834:	4619      	mov	r1, r3
 8003836:	4610      	mov	r0, r2
 8003838:	f000 fe08 	bl	800444c <TIM_Base_SetConfig>

  /* Initialize the DMA burst operation state */
  htim->DMABurstState = HAL_DMA_BURST_STATE_READY;
 800383c:	687b      	ldr	r3, [r7, #4]
 800383e:	2201      	movs	r2, #1
 8003840:	f883 2046 	strb.w	r2, [r3, #70]	; 0x46

  /* Initialize the TIM channels state */
  TIM_CHANNEL_STATE_SET_ALL(htim, HAL_TIM_CHANNEL_STATE_READY);
 8003844:	687b      	ldr	r3, [r7, #4]
 8003846:	2201      	movs	r2, #1
 8003848:	f883 203e 	strb.w	r2, [r3, #62]	; 0x3e
 800384c:	687b      	ldr	r3, [r7, #4]
 800384e:	2201      	movs	r2, #1
 8003850:	f883 203f 	strb.w	r2, [r3, #63]	; 0x3f
 8003854:	687b      	ldr	r3, [r7, #4]
 8003856:	2201      	movs	r2, #1
 8003858:	f883 2040 	strb.w	r2, [r3, #64]	; 0x40
 800385c:	687b      	ldr	r3, [r7, #4]
 800385e:	2201      	movs	r2, #1
 8003860:	f883 2041 	strb.w	r2, [r3, #65]	; 0x41
  TIM_CHANNEL_N_STATE_SET_ALL(htim, HAL_TIM_CHANNEL_STATE_READY);
 8003864:	687b      	ldr	r3, [r7, #4]
 8003866:	2201      	movs	r2, #1
 8003868:	f883 2042 	strb.w	r2, [r3, #66]	; 0x42
 800386c:	687b      	ldr	r3, [r7, #4]
 800386e:	2201      	movs	r2, #1
 8003870:	f883 2043 	strb.w	r2, [r3, #67]	; 0x43
 8003874:	687b      	ldr	r3, [r7, #4]
 8003876:	2201      	movs	r2, #1
 8003878:	f883 2044 	strb.w	r2, [r3, #68]	; 0x44
 800387c:	687b      	ldr	r3, [r7, #4]
 800387e:	2201      	movs	r2, #1
 8003880:	f883 2045 	strb.w	r2, [r3, #69]	; 0x45

  /* Initialize the TIM state*/
  htim->State = HAL_TIM_STATE_READY;
 8003884:	687b      	ldr	r3, [r7, #4]
 8003886:	2201      	movs	r2, #1
 8003888:	f883 203d 	strb.w	r2, [r3, #61]	; 0x3d

  return HAL_OK;
 800388c:	2300      	movs	r3, #0
}
 800388e:	4618      	mov	r0, r3
 8003890:	3708      	adds	r7, #8
 8003892:	46bd      	mov	sp, r7
 8003894:	bd80      	pop	{r7, pc}
	...

08003898 <HAL_TIM_PWM_Start>:
  *            @arg TIM_CHANNEL_3: TIM Channel 3 selected
  *            @arg TIM_CHANNEL_4: TIM Channel 4 selected
  * @retval HAL status
  */
HAL_StatusTypeDef HAL_TIM_PWM_Start(TIM_HandleTypeDef *htim, uint32_t Channel)
{
 8003898:	b580      	push	{r7, lr}
 800389a:	b084      	sub	sp, #16
 800389c:	af00      	add	r7, sp, #0
 800389e:	6078      	str	r0, [r7, #4]
 80038a0:	6039      	str	r1, [r7, #0]

  /* Check the parameters */
  assert_param(IS_TIM_CCX_INSTANCE(htim->Instance, Channel));

  /* Check the TIM channel state */
  if (TIM_CHANNEL_STATE_GET(htim, Channel) != HAL_TIM_CHANNEL_STATE_READY)
 80038a2:	683b      	ldr	r3, [r7, #0]
 80038a4:	2b00      	cmp	r3, #0
 80038a6:	d109      	bne.n	80038bc <HAL_TIM_PWM_Start+0x24>
 80038a8:	687b      	ldr	r3, [r7, #4]
 80038aa:	f893 303e 	ldrb.w	r3, [r3, #62]	; 0x3e
 80038ae:	b2db      	uxtb	r3, r3
 80038b0:	2b01      	cmp	r3, #1
 80038b2:	bf14      	ite	ne
 80038b4:	2301      	movne	r3, #1
 80038b6:	2300      	moveq	r3, #0
 80038b8:	b2db      	uxtb	r3, r3
 80038ba:	e022      	b.n	8003902 <HAL_TIM_PWM_Start+0x6a>
 80038bc:	683b      	ldr	r3, [r7, #0]
 80038be:	2b04      	cmp	r3, #4
 80038c0:	d109      	bne.n	80038d6 <HAL_TIM_PWM_Start+0x3e>
 80038c2:	687b      	ldr	r3, [r7, #4]
 80038c4:	f893 303f 	ldrb.w	r3, [r3, #63]	; 0x3f
 80038c8:	b2db      	uxtb	r3, r3
 80038ca:	2b01      	cmp	r3, #1
 80038cc:	bf14      	ite	ne
 80038ce:	2301      	movne	r3, #1
 80038d0:	2300      	moveq	r3, #0
 80038d2:	b2db      	uxtb	r3, r3
 80038d4:	e015      	b.n	8003902 <HAL_TIM_PWM_Start+0x6a>
 80038d6:	683b      	ldr	r3, [r7, #0]
 80038d8:	2b08      	cmp	r3, #8
 80038da:	d109      	bne.n	80038f0 <HAL_TIM_PWM_Start+0x58>
 80038dc:	687b      	ldr	r3, [r7, #4]
 80038de:	f893 3040 	ldrb.w	r3, [r3, #64]	; 0x40
 80038e2:	b2db      	uxtb	r3, r3
 80038e4:	2b01      	cmp	r3, #1
 80038e6:	bf14      	ite	ne
 80038e8:	2301      	movne	r3, #1
 80038ea:	2300      	moveq	r3, #0
 80038ec:	b2db      	uxtb	r3, r3
 80038ee:	e008      	b.n	8003902 <HAL_TIM_PWM_Start+0x6a>
 80038f0:	687b      	ldr	r3, [r7, #4]
 80038f2:	f893 3041 	ldrb.w	r3, [r3, #65]	; 0x41
 80038f6:	b2db      	uxtb	r3, r3
 80038f8:	2b01      	cmp	r3, #1
 80038fa:	bf14      	ite	ne
 80038fc:	2301      	movne	r3, #1
 80038fe:	2300      	moveq	r3, #0
 8003900:	b2db      	uxtb	r3, r3
 8003902:	2b00      	cmp	r3, #0
 8003904:	d001      	beq.n	800390a <HAL_TIM_PWM_Start+0x72>
  {
    return HAL_ERROR;
 8003906:	2301      	movs	r3, #1
 8003908:	e07c      	b.n	8003a04 <HAL_TIM_PWM_Start+0x16c>
  }

  /* Set the TIM channel state */
  TIM_CHANNEL_STATE_SET(htim, Channel, HAL_TIM_CHANNEL_STATE_BUSY);
 800390a:	683b      	ldr	r3, [r7, #0]
 800390c:	2b00      	cmp	r3, #0
 800390e:	d104      	bne.n	800391a <HAL_TIM_PWM_Start+0x82>
 8003910:	687b      	ldr	r3, [r7, #4]
 8003912:	2202      	movs	r2, #2
 8003914:	f883 203e 	strb.w	r2, [r3, #62]	; 0x3e
 8003918:	e013      	b.n	8003942 <HAL_TIM_PWM_Start+0xaa>
 800391a:	683b      	ldr	r3, [r7, #0]
 800391c:	2b04      	cmp	r3, #4
 800391e:	d104      	bne.n	800392a <HAL_TIM_PWM_Start+0x92>
 8003920:	687b      	ldr	r3, [r7, #4]
 8003922:	2202      	movs	r2, #2
 8003924:	f883 203f 	strb.w	r2, [r3, #63]	; 0x3f
 8003928:	e00b      	b.n	8003942 <HAL_TIM_PWM_Start+0xaa>
 800392a:	683b      	ldr	r3, [r7, #0]
 800392c:	2b08      	cmp	r3, #8
 800392e:	d104      	bne.n	800393a <HAL_TIM_PWM_Start+0xa2>
 8003930:	687b      	ldr	r3, [r7, #4]
 8003932:	2202      	movs	r2, #2
 8003934:	f883 2040 	strb.w	r2, [r3, #64]	; 0x40
 8003938:	e003      	b.n	8003942 <HAL_TIM_PWM_Start+0xaa>
 800393a:	687b      	ldr	r3, [r7, #4]
 800393c:	2202      	movs	r2, #2
 800393e:	f883 2041 	strb.w	r2, [r3, #65]	; 0x41

  /* Enable the Capture compare channel */
  TIM_CCxChannelCmd(htim->Instance, Channel, TIM_CCx_ENABLE);
 8003942:	687b      	ldr	r3, [r7, #4]
 8003944:	681b      	ldr	r3, [r3, #0]
 8003946:	2201      	movs	r2, #1
 8003948:	6839      	ldr	r1, [r7, #0]
 800394a:	4618      	mov	r0, r3
 800394c:	f001 f992 	bl	8004c74 <TIM_CCxChannelCmd>

  if (IS_TIM_BREAK_INSTANCE(htim->Instance) != RESET)
 8003950:	687b      	ldr	r3, [r7, #4]
 8003952:	681b      	ldr	r3, [r3, #0]
 8003954:	4a2d      	ldr	r2, [pc, #180]	; (8003a0c <HAL_TIM_PWM_Start+0x174>)
 8003956:	4293      	cmp	r3, r2
 8003958:	d004      	beq.n	8003964 <HAL_TIM_PWM_Start+0xcc>
 800395a:	687b      	ldr	r3, [r7, #4]
 800395c:	681b      	ldr	r3, [r3, #0]
 800395e:	4a2c      	ldr	r2, [pc, #176]	; (8003a10 <HAL_TIM_PWM_Start+0x178>)
 8003960:	4293      	cmp	r3, r2
 8003962:	d101      	bne.n	8003968 <HAL_TIM_PWM_Start+0xd0>
 8003964:	2301      	movs	r3, #1
 8003966:	e000      	b.n	800396a <HAL_TIM_PWM_Start+0xd2>
 8003968:	2300      	movs	r3, #0
 800396a:	2b00      	cmp	r3, #0
 800396c:	d007      	beq.n	800397e <HAL_TIM_PWM_Start+0xe6>
  {
    /* Enable the main output */
    __HAL_TIM_MOE_ENABLE(htim);
 800396e:	687b      	ldr	r3, [r7, #4]
 8003970:	681b      	ldr	r3, [r3, #0]
 8003972:	6c5a      	ldr	r2, [r3, #68]	; 0x44
 8003974:	687b      	ldr	r3, [r7, #4]
 8003976:	681b      	ldr	r3, [r3, #0]
 8003978:	f442 4200 	orr.w	r2, r2, #32768	; 0x8000
 800397c:	645a      	str	r2, [r3, #68]	; 0x44
  }

  /* Enable the Peripheral, except in trigger mode where enable is automatically done with trigger */
  if (IS_TIM_SLAVE_INSTANCE(htim->Instance))
 800397e:	687b      	ldr	r3, [r7, #4]
 8003980:	681b      	ldr	r3, [r3, #0]
 8003982:	4a22      	ldr	r2, [pc, #136]	; (8003a0c <HAL_TIM_PWM_Start+0x174>)
 8003984:	4293      	cmp	r3, r2
 8003986:	d022      	beq.n	80039ce <HAL_TIM_PWM_Start+0x136>
 8003988:	687b      	ldr	r3, [r7, #4]
 800398a:	681b      	ldr	r3, [r3, #0]
 800398c:	f1b3 4f80 	cmp.w	r3, #1073741824	; 0x40000000
 8003990:	d01d      	beq.n	80039ce <HAL_TIM_PWM_Start+0x136>
 8003992:	687b      	ldr	r3, [r7, #4]
 8003994:	681b      	ldr	r3, [r3, #0]
 8003996:	4a1f      	ldr	r2, [pc, #124]	; (8003a14 <HAL_TIM_PWM_Start+0x17c>)
 8003998:	4293      	cmp	r3, r2
 800399a:	d018      	beq.n	80039ce <HAL_TIM_PWM_Start+0x136>
 800399c:	687b      	ldr	r3, [r7, #4]
 800399e:	681b      	ldr	r3, [r3, #0]
 80039a0:	4a1d      	ldr	r2, [pc, #116]	; (8003a18 <HAL_TIM_PWM_Start+0x180>)
 80039a2:	4293      	cmp	r3, r2
 80039a4:	d013      	beq.n	80039ce <HAL_TIM_PWM_Start+0x136>
 80039a6:	687b      	ldr	r3, [r7, #4]
 80039a8:	681b      	ldr	r3, [r3, #0]
 80039aa:	4a1c      	ldr	r2, [pc, #112]	; (8003a1c <HAL_TIM_PWM_Start+0x184>)
 80039ac:	4293      	cmp	r3, r2
 80039ae:	d00e      	beq.n	80039ce <HAL_TIM_PWM_Start+0x136>
 80039b0:	687b      	ldr	r3, [r7, #4]
 80039b2:	681b      	ldr	r3, [r3, #0]
 80039b4:	4a16      	ldr	r2, [pc, #88]	; (8003a10 <HAL_TIM_PWM_Start+0x178>)
 80039b6:	4293      	cmp	r3, r2
 80039b8:	d009      	beq.n	80039ce <HAL_TIM_PWM_Start+0x136>
 80039ba:	687b      	ldr	r3, [r7, #4]
 80039bc:	681b      	ldr	r3, [r3, #0]
 80039be:	4a18      	ldr	r2, [pc, #96]	; (8003a20 <HAL_TIM_PWM_Start+0x188>)
 80039c0:	4293      	cmp	r3, r2
 80039c2:	d004      	beq.n	80039ce <HAL_TIM_PWM_Start+0x136>
 80039c4:	687b      	ldr	r3, [r7, #4]
 80039c6:	681b      	ldr	r3, [r3, #0]
 80039c8:	4a16      	ldr	r2, [pc, #88]	; (8003a24 <HAL_TIM_PWM_Start+0x18c>)
 80039ca:	4293      	cmp	r3, r2
 80039cc:	d111      	bne.n	80039f2 <HAL_TIM_PWM_Start+0x15a>
  {
    tmpsmcr = htim->Instance->SMCR & TIM_SMCR_SMS;
 80039ce:	687b      	ldr	r3, [r7, #4]
 80039d0:	681b      	ldr	r3, [r3, #0]
 80039d2:	689b      	ldr	r3, [r3, #8]
 80039d4:	f003 0307 	and.w	r3, r3, #7
 80039d8:	60fb      	str	r3, [r7, #12]
    if (!IS_TIM_SLAVEMODE_TRIGGER_ENABLED(tmpsmcr))
 80039da:	68fb      	ldr	r3, [r7, #12]
 80039dc:	2b06      	cmp	r3, #6
 80039de:	d010      	beq.n	8003a02 <HAL_TIM_PWM_Start+0x16a>
    {
      __HAL_TIM_ENABLE(htim);
 80039e0:	687b      	ldr	r3, [r7, #4]
 80039e2:	681b      	ldr	r3, [r3, #0]
 80039e4:	681a      	ldr	r2, [r3, #0]
 80039e6:	687b      	ldr	r3, [r7, #4]
 80039e8:	681b      	ldr	r3, [r3, #0]
 80039ea:	f042 0201 	orr.w	r2, r2, #1
 80039ee:	601a      	str	r2, [r3, #0]
    if (!IS_TIM_SLAVEMODE_TRIGGER_ENABLED(tmpsmcr))
 80039f0:	e007      	b.n	8003a02 <HAL_TIM_PWM_Start+0x16a>
    }
  }
  else
  {
    __HAL_TIM_ENABLE(htim);
 80039f2:	687b      	ldr	r3, [r7, #4]
 80039f4:	681b      	ldr	r3, [r3, #0]
 80039f6:	681a      	ldr	r2, [r3, #0]
 80039f8:	687b      	ldr	r3, [r7, #4]
 80039fa:	681b      	ldr	r3, [r3, #0]
 80039fc:	f042 0201 	orr.w	r2, r2, #1
 8003a00:	601a      	str	r2, [r3, #0]
  }

  /* Return function status */
  return HAL_OK;
 8003a02:	2300      	movs	r3, #0
}
 8003a04:	4618      	mov	r0, r3
 8003a06:	3710      	adds	r7, #16
 8003a08:	46bd      	mov	sp, r7
 8003a0a:	bd80      	pop	{r7, pc}
 8003a0c:	40010000 	.word	0x40010000
 8003a10:	40010400 	.word	0x40010400
 8003a14:	40000400 	.word	0x40000400
 8003a18:	40000800 	.word	0x40000800
 8003a1c:	40000c00 	.word	0x40000c00
 8003a20:	40014000 	.word	0x40014000
 8003a24:	40001800 	.word	0x40001800

08003a28 <HAL_TIM_IC_Init>:
  *         Ex: call @ref HAL_TIM_IC_DeInit() before HAL_TIM_IC_Init()
  * @param  htim TIM Input Capture handle
  * @retval HAL status
  */
HAL_StatusTypeDef HAL_TIM_IC_Init(TIM_HandleTypeDef *htim)
{
 8003a28:	b580      	push	{r7, lr}
 8003a2a:	b082      	sub	sp, #8
 8003a2c:	af00      	add	r7, sp, #0
 8003a2e:	6078      	str	r0, [r7, #4]
  /* Check the TIM handle allocation */
  if (htim == NULL)
 8003a30:	687b      	ldr	r3, [r7, #4]
 8003a32:	2b00      	cmp	r3, #0
 8003a34:	d101      	bne.n	8003a3a <HAL_TIM_IC_Init+0x12>
  {
    return HAL_ERROR;
 8003a36:	2301      	movs	r3, #1
 8003a38:	e041      	b.n	8003abe <HAL_TIM_IC_Init+0x96>
  assert_param(IS_TIM_INSTANCE(htim->Instance));
  assert_param(IS_TIM_COUNTER_MODE(htim->Init.CounterMode));
  assert_param(IS_TIM_CLOCKDIVISION_DIV(htim->Init.ClockDivision));
  assert_param(IS_TIM_AUTORELOAD_PRELOAD(htim->Init.AutoReloadPreload));

  if (htim->State == HAL_TIM_STATE_RESET)
 8003a3a:	687b      	ldr	r3, [r7, #4]
 8003a3c:	f893 303d 	ldrb.w	r3, [r3, #61]	; 0x3d
 8003a40:	b2db      	uxtb	r3, r3
 8003a42:	2b00      	cmp	r3, #0
 8003a44:	d106      	bne.n	8003a54 <HAL_TIM_IC_Init+0x2c>
  {
    /* Allocate lock resource and initialize it */
    htim->Lock = HAL_UNLOCKED;
 8003a46:	687b      	ldr	r3, [r7, #4]
 8003a48:	2200      	movs	r2, #0
 8003a4a:	f883 203c 	strb.w	r2, [r3, #60]	; 0x3c
    }
    /* Init the low level hardware : GPIO, CLOCK, NVIC */
    htim->IC_MspInitCallback(htim);
#else
    /* Init the low level hardware : GPIO, CLOCK, NVIC and DMA */
    HAL_TIM_IC_MspInit(htim);
 8003a4e:	6878      	ldr	r0, [r7, #4]
 8003a50:	f000 f839 	bl	8003ac6 <HAL_TIM_IC_MspInit>
#endif /* USE_HAL_TIM_REGISTER_CALLBACKS */
  }

  /* Set the TIM state */
  htim->State = HAL_TIM_STATE_BUSY;
 8003a54:	687b      	ldr	r3, [r7, #4]
 8003a56:	2202      	movs	r2, #2
 8003a58:	f883 203d 	strb.w	r2, [r3, #61]	; 0x3d

  /* Init the base time for the input capture */
  TIM_Base_SetConfig(htim->Instance, &htim->Init);
 8003a5c:	687b      	ldr	r3, [r7, #4]
 8003a5e:	681a      	ldr	r2, [r3, #0]
 8003a60:	687b      	ldr	r3, [r7, #4]
 8003a62:	3304      	adds	r3, #4
 8003a64:	4619      	mov	r1, r3
 8003a66:	4610      	mov	r0, r2
 8003a68:	f000 fcf0 	bl	800444c <TIM_Base_SetConfig>

  /* Initialize the DMA burst operation state */
  htim->DMABurstState = HAL_DMA_BURST_STATE_READY;
 8003a6c:	687b      	ldr	r3, [r7, #4]
 8003a6e:	2201      	movs	r2, #1
 8003a70:	f883 2046 	strb.w	r2, [r3, #70]	; 0x46

  /* Initialize the TIM channels state */
  TIM_CHANNEL_STATE_SET_ALL(htim, HAL_TIM_CHANNEL_STATE_READY);
 8003a74:	687b      	ldr	r3, [r7, #4]
 8003a76:	2201      	movs	r2, #1
 8003a78:	f883 203e 	strb.w	r2, [r3, #62]	; 0x3e
 8003a7c:	687b      	ldr	r3, [r7, #4]
 8003a7e:	2201      	movs	r2, #1
 8003a80:	f883 203f 	strb.w	r2, [r3, #63]	; 0x3f
 8003a84:	687b      	ldr	r3, [r7, #4]
 8003a86:	2201      	movs	r2, #1
 8003a88:	f883 2040 	strb.w	r2, [r3, #64]	; 0x40
 8003a8c:	687b      	ldr	r3, [r7, #4]
 8003a8e:	2201      	movs	r2, #1
 8003a90:	f883 2041 	strb.w	r2, [r3, #65]	; 0x41
  TIM_CHANNEL_N_STATE_SET_ALL(htim, HAL_TIM_CHANNEL_STATE_READY);
 8003a94:	687b      	ldr	r3, [r7, #4]
 8003a96:	2201      	movs	r2, #1
 8003a98:	f883 2042 	strb.w	r2, [r3, #66]	; 0x42
 8003a9c:	687b      	ldr	r3, [r7, #4]
 8003a9e:	2201      	movs	r2, #1
 8003aa0:	f883 2043 	strb.w	r2, [r3, #67]	; 0x43
 8003aa4:	687b      	ldr	r3, [r7, #4]
 8003aa6:	2201      	movs	r2, #1
 8003aa8:	f883 2044 	strb.w	r2, [r3, #68]	; 0x44
 8003aac:	687b      	ldr	r3, [r7, #4]
 8003aae:	2201      	movs	r2, #1
 8003ab0:	f883 2045 	strb.w	r2, [r3, #69]	; 0x45

  /* Initialize the TIM state*/
  htim->State = HAL_TIM_STATE_READY;
 8003ab4:	687b      	ldr	r3, [r7, #4]
 8003ab6:	2201      	movs	r2, #1
 8003ab8:	f883 203d 	strb.w	r2, [r3, #61]	; 0x3d

  return HAL_OK;
 8003abc:	2300      	movs	r3, #0
}
 8003abe:	4618      	mov	r0, r3
 8003ac0:	3708      	adds	r7, #8
 8003ac2:	46bd      	mov	sp, r7
 8003ac4:	bd80      	pop	{r7, pc}

08003ac6 <HAL_TIM_IC_MspInit>:
  * @brief  Initializes the TIM Input Capture MSP.
  * @param  htim TIM Input Capture handle
  * @retval None
  */
__weak void HAL_TIM_IC_MspInit(TIM_HandleTypeDef *htim)
{
 8003ac6:	b480      	push	{r7}
 8003ac8:	b083      	sub	sp, #12
 8003aca:	af00      	add	r7, sp, #0
 8003acc:	6078      	str	r0, [r7, #4]
  UNUSED(htim);

  /* NOTE : This function should not be modified, when the callback is needed,
            the HAL_TIM_IC_MspInit could be implemented in the user file
   */
}
 8003ace:	bf00      	nop
 8003ad0:	370c      	adds	r7, #12
 8003ad2:	46bd      	mov	sp, r7
 8003ad4:	f85d 7b04 	ldr.w	r7, [sp], #4
 8003ad8:	4770      	bx	lr
	...

08003adc <HAL_TIM_IC_Start_IT>:
  *            @arg TIM_CHANNEL_3: TIM Channel 3 selected
  *            @arg TIM_CHANNEL_4: TIM Channel 4 selected
  * @retval HAL status
  */
HAL_StatusTypeDef HAL_TIM_IC_Start_IT(TIM_HandleTypeDef *htim, uint32_t Channel)
{
 8003adc:	b580      	push	{r7, lr}
 8003ade:	b084      	sub	sp, #16
 8003ae0:	af00      	add	r7, sp, #0
 8003ae2:	6078      	str	r0, [r7, #4]
 8003ae4:	6039      	str	r1, [r7, #0]
  HAL_StatusTypeDef status = HAL_OK;
 8003ae6:	2300      	movs	r3, #0
 8003ae8:	73fb      	strb	r3, [r7, #15]
  uint32_t tmpsmcr;

  HAL_TIM_ChannelStateTypeDef channel_state = TIM_CHANNEL_STATE_GET(htim, Channel);
 8003aea:	683b      	ldr	r3, [r7, #0]
 8003aec:	2b00      	cmp	r3, #0
 8003aee:	d104      	bne.n	8003afa <HAL_TIM_IC_Start_IT+0x1e>
 8003af0:	687b      	ldr	r3, [r7, #4]
 8003af2:	f893 303e 	ldrb.w	r3, [r3, #62]	; 0x3e
 8003af6:	b2db      	uxtb	r3, r3
 8003af8:	e013      	b.n	8003b22 <HAL_TIM_IC_Start_IT+0x46>
 8003afa:	683b      	ldr	r3, [r7, #0]
 8003afc:	2b04      	cmp	r3, #4
 8003afe:	d104      	bne.n	8003b0a <HAL_TIM_IC_Start_IT+0x2e>
 8003b00:	687b      	ldr	r3, [r7, #4]
 8003b02:	f893 303f 	ldrb.w	r3, [r3, #63]	; 0x3f
 8003b06:	b2db      	uxtb	r3, r3
 8003b08:	e00b      	b.n	8003b22 <HAL_TIM_IC_Start_IT+0x46>
 8003b0a:	683b      	ldr	r3, [r7, #0]
 8003b0c:	2b08      	cmp	r3, #8
 8003b0e:	d104      	bne.n	8003b1a <HAL_TIM_IC_Start_IT+0x3e>
 8003b10:	687b      	ldr	r3, [r7, #4]
 8003b12:	f893 3040 	ldrb.w	r3, [r3, #64]	; 0x40
 8003b16:	b2db      	uxtb	r3, r3
 8003b18:	e003      	b.n	8003b22 <HAL_TIM_IC_Start_IT+0x46>
 8003b1a:	687b      	ldr	r3, [r7, #4]
 8003b1c:	f893 3041 	ldrb.w	r3, [r3, #65]	; 0x41
 8003b20:	b2db      	uxtb	r3, r3
 8003b22:	73bb      	strb	r3, [r7, #14]
  HAL_TIM_ChannelStateTypeDef complementary_channel_state = TIM_CHANNEL_N_STATE_GET(htim, Channel);
 8003b24:	683b      	ldr	r3, [r7, #0]
 8003b26:	2b00      	cmp	r3, #0
 8003b28:	d104      	bne.n	8003b34 <HAL_TIM_IC_Start_IT+0x58>
 8003b2a:	687b      	ldr	r3, [r7, #4]
 8003b2c:	f893 3042 	ldrb.w	r3, [r3, #66]	; 0x42
 8003b30:	b2db      	uxtb	r3, r3
 8003b32:	e013      	b.n	8003b5c <HAL_TIM_IC_Start_IT+0x80>
 8003b34:	683b      	ldr	r3, [r7, #0]
 8003b36:	2b04      	cmp	r3, #4
 8003b38:	d104      	bne.n	8003b44 <HAL_TIM_IC_Start_IT+0x68>
 8003b3a:	687b      	ldr	r3, [r7, #4]
 8003b3c:	f893 3043 	ldrb.w	r3, [r3, #67]	; 0x43
 8003b40:	b2db      	uxtb	r3, r3
 8003b42:	e00b      	b.n	8003b5c <HAL_TIM_IC_Start_IT+0x80>
 8003b44:	683b      	ldr	r3, [r7, #0]
 8003b46:	2b08      	cmp	r3, #8
 8003b48:	d104      	bne.n	8003b54 <HAL_TIM_IC_Start_IT+0x78>
 8003b4a:	687b      	ldr	r3, [r7, #4]
 8003b4c:	f893 3044 	ldrb.w	r3, [r3, #68]	; 0x44
 8003b50:	b2db      	uxtb	r3, r3
 8003b52:	e003      	b.n	8003b5c <HAL_TIM_IC_Start_IT+0x80>
 8003b54:	687b      	ldr	r3, [r7, #4]
 8003b56:	f893 3045 	ldrb.w	r3, [r3, #69]	; 0x45
 8003b5a:	b2db      	uxtb	r3, r3
 8003b5c:	737b      	strb	r3, [r7, #13]

  /* Check the parameters */
  assert_param(IS_TIM_CCX_INSTANCE(htim->Instance, Channel));

  /* Check the TIM channel state */
  if ((channel_state != HAL_TIM_CHANNEL_STATE_READY)
 8003b5e:	7bbb      	ldrb	r3, [r7, #14]
 8003b60:	2b01      	cmp	r3, #1
 8003b62:	d102      	bne.n	8003b6a <HAL_TIM_IC_Start_IT+0x8e>
      || (complementary_channel_state != HAL_TIM_CHANNEL_STATE_READY))
 8003b64:	7b7b      	ldrb	r3, [r7, #13]
 8003b66:	2b01      	cmp	r3, #1
 8003b68:	d001      	beq.n	8003b6e <HAL_TIM_IC_Start_IT+0x92>
  {
    return HAL_ERROR;
 8003b6a:	2301      	movs	r3, #1
 8003b6c:	e0cc      	b.n	8003d08 <HAL_TIM_IC_Start_IT+0x22c>
  }

  /* Set the TIM channel state */
  TIM_CHANNEL_STATE_SET(htim, Channel, HAL_TIM_CHANNEL_STATE_BUSY);
 8003b6e:	683b      	ldr	r3, [r7, #0]
 8003b70:	2b00      	cmp	r3, #0
 8003b72:	d104      	bne.n	8003b7e <HAL_TIM_IC_Start_IT+0xa2>
 8003b74:	687b      	ldr	r3, [r7, #4]
 8003b76:	2202      	movs	r2, #2
 8003b78:	f883 203e 	strb.w	r2, [r3, #62]	; 0x3e
 8003b7c:	e013      	b.n	8003ba6 <HAL_TIM_IC_Start_IT+0xca>
 8003b7e:	683b      	ldr	r3, [r7, #0]
 8003b80:	2b04      	cmp	r3, #4
 8003b82:	d104      	bne.n	8003b8e <HAL_TIM_IC_Start_IT+0xb2>
 8003b84:	687b      	ldr	r3, [r7, #4]
 8003b86:	2202      	movs	r2, #2
 8003b88:	f883 203f 	strb.w	r2, [r3, #63]	; 0x3f
 8003b8c:	e00b      	b.n	8003ba6 <HAL_TIM_IC_Start_IT+0xca>
 8003b8e:	683b      	ldr	r3, [r7, #0]
 8003b90:	2b08      	cmp	r3, #8
 8003b92:	d104      	bne.n	8003b9e <HAL_TIM_IC_Start_IT+0xc2>
 8003b94:	687b      	ldr	r3, [r7, #4]
 8003b96:	2202      	movs	r2, #2
 8003b98:	f883 2040 	strb.w	r2, [r3, #64]	; 0x40
 8003b9c:	e003      	b.n	8003ba6 <HAL_TIM_IC_Start_IT+0xca>
 8003b9e:	687b      	ldr	r3, [r7, #4]
 8003ba0:	2202      	movs	r2, #2
 8003ba2:	f883 2041 	strb.w	r2, [r3, #65]	; 0x41
  TIM_CHANNEL_N_STATE_SET(htim, Channel, HAL_TIM_CHANNEL_STATE_BUSY);
 8003ba6:	683b      	ldr	r3, [r7, #0]
 8003ba8:	2b00      	cmp	r3, #0
 8003baa:	d104      	bne.n	8003bb6 <HAL_TIM_IC_Start_IT+0xda>
 8003bac:	687b      	ldr	r3, [r7, #4]
 8003bae:	2202      	movs	r2, #2
 8003bb0:	f883 2042 	strb.w	r2, [r3, #66]	; 0x42
 8003bb4:	e013      	b.n	8003bde <HAL_TIM_IC_Start_IT+0x102>
 8003bb6:	683b      	ldr	r3, [r7, #0]
 8003bb8:	2b04      	cmp	r3, #4
 8003bba:	d104      	bne.n	8003bc6 <HAL_TIM_IC_Start_IT+0xea>
 8003bbc:	687b      	ldr	r3, [r7, #4]
 8003bbe:	2202      	movs	r2, #2
 8003bc0:	f883 2043 	strb.w	r2, [r3, #67]	; 0x43
 8003bc4:	e00b      	b.n	8003bde <HAL_TIM_IC_Start_IT+0x102>
 8003bc6:	683b      	ldr	r3, [r7, #0]
 8003bc8:	2b08      	cmp	r3, #8
 8003bca:	d104      	bne.n	8003bd6 <HAL_TIM_IC_Start_IT+0xfa>
 8003bcc:	687b      	ldr	r3, [r7, #4]
 8003bce:	2202      	movs	r2, #2
 8003bd0:	f883 2044 	strb.w	r2, [r3, #68]	; 0x44
 8003bd4:	e003      	b.n	8003bde <HAL_TIM_IC_Start_IT+0x102>
 8003bd6:	687b      	ldr	r3, [r7, #4]
 8003bd8:	2202      	movs	r2, #2
 8003bda:	f883 2045 	strb.w	r2, [r3, #69]	; 0x45
 8003bde:	683b      	ldr	r3, [r7, #0]
 8003be0:	2b0c      	cmp	r3, #12
 8003be2:	d841      	bhi.n	8003c68 <HAL_TIM_IC_Start_IT+0x18c>
 8003be4:	a201      	add	r2, pc, #4	; (adr r2, 8003bec <HAL_TIM_IC_Start_IT+0x110>)
 8003be6:	f852 f023 	ldr.w	pc, [r2, r3, lsl #2]
 8003bea:	bf00      	nop
 8003bec:	08003c21 	.word	0x08003c21
 8003bf0:	08003c69 	.word	0x08003c69
 8003bf4:	08003c69 	.word	0x08003c69
 8003bf8:	08003c69 	.word	0x08003c69
 8003bfc:	08003c33 	.word	0x08003c33
 8003c00:	08003c69 	.word	0x08003c69
 8003c04:	08003c69 	.word	0x08003c69
 8003c08:	08003c69 	.word	0x08003c69
 8003c0c:	08003c45 	.word	0x08003c45
 8003c10:	08003c69 	.word	0x08003c69
 8003c14:	08003c69 	.word	0x08003c69
 8003c18:	08003c69 	.word	0x08003c69
 8003c1c:	08003c57 	.word	0x08003c57
  switch (Channel)
  {
    case TIM_CHANNEL_1:
    {
      /* Enable the TIM Capture/Compare 1 interrupt */
      __HAL_TIM_ENABLE_IT(htim, TIM_IT_CC1);
 8003c20:	687b      	ldr	r3, [r7, #4]
 8003c22:	681b      	ldr	r3, [r3, #0]
 8003c24:	68da      	ldr	r2, [r3, #12]
 8003c26:	687b      	ldr	r3, [r7, #4]
 8003c28:	681b      	ldr	r3, [r3, #0]
 8003c2a:	f042 0202 	orr.w	r2, r2, #2
 8003c2e:	60da      	str	r2, [r3, #12]
      break;
 8003c30:	e01d      	b.n	8003c6e <HAL_TIM_IC_Start_IT+0x192>
    }

    case TIM_CHANNEL_2:
    {
      /* Enable the TIM Capture/Compare 2 interrupt */
      __HAL_TIM_ENABLE_IT(htim, TIM_IT_CC2);
 8003c32:	687b      	ldr	r3, [r7, #4]
 8003c34:	681b      	ldr	r3, [r3, #0]
 8003c36:	68da      	ldr	r2, [r3, #12]
 8003c38:	687b      	ldr	r3, [r7, #4]
 8003c3a:	681b      	ldr	r3, [r3, #0]
 8003c3c:	f042 0204 	orr.w	r2, r2, #4
 8003c40:	60da      	str	r2, [r3, #12]
      break;
 8003c42:	e014      	b.n	8003c6e <HAL_TIM_IC_Start_IT+0x192>
    }

    case TIM_CHANNEL_3:
    {
      /* Enable the TIM Capture/Compare 3 interrupt */
      __HAL_TIM_ENABLE_IT(htim, TIM_IT_CC3);
 8003c44:	687b      	ldr	r3, [r7, #4]
 8003c46:	681b      	ldr	r3, [r3, #0]
 8003c48:	68da      	ldr	r2, [r3, #12]
 8003c4a:	687b      	ldr	r3, [r7, #4]
 8003c4c:	681b      	ldr	r3, [r3, #0]
 8003c4e:	f042 0208 	orr.w	r2, r2, #8
 8003c52:	60da      	str	r2, [r3, #12]
      break;
 8003c54:	e00b      	b.n	8003c6e <HAL_TIM_IC_Start_IT+0x192>
    }

    case TIM_CHANNEL_4:
    {
      /* Enable the TIM Capture/Compare 4 interrupt */
      __HAL_TIM_ENABLE_IT(htim, TIM_IT_CC4);
 8003c56:	687b      	ldr	r3, [r7, #4]
 8003c58:	681b      	ldr	r3, [r3, #0]
 8003c5a:	68da      	ldr	r2, [r3, #12]
 8003c5c:	687b      	ldr	r3, [r7, #4]
 8003c5e:	681b      	ldr	r3, [r3, #0]
 8003c60:	f042 0210 	orr.w	r2, r2, #16
 8003c64:	60da      	str	r2, [r3, #12]
      break;
 8003c66:	e002      	b.n	8003c6e <HAL_TIM_IC_Start_IT+0x192>
    }

    default:
      status = HAL_ERROR;
 8003c68:	2301      	movs	r3, #1
 8003c6a:	73fb      	strb	r3, [r7, #15]
      break;
 8003c6c:	bf00      	nop
  }

  if (status == HAL_OK)
 8003c6e:	7bfb      	ldrb	r3, [r7, #15]
 8003c70:	2b00      	cmp	r3, #0
 8003c72:	d148      	bne.n	8003d06 <HAL_TIM_IC_Start_IT+0x22a>
  {
    /* Enable the Input Capture channel */
    TIM_CCxChannelCmd(htim->Instance, Channel, TIM_CCx_ENABLE);
 8003c74:	687b      	ldr	r3, [r7, #4]
 8003c76:	681b      	ldr	r3, [r3, #0]
 8003c78:	2201      	movs	r2, #1
 8003c7a:	6839      	ldr	r1, [r7, #0]
 8003c7c:	4618      	mov	r0, r3
 8003c7e:	f000 fff9 	bl	8004c74 <TIM_CCxChannelCmd>

    /* Enable the Peripheral, except in trigger mode where enable is automatically done with trigger */
    if (IS_TIM_SLAVE_INSTANCE(htim->Instance))
 8003c82:	687b      	ldr	r3, [r7, #4]
 8003c84:	681b      	ldr	r3, [r3, #0]
 8003c86:	4a22      	ldr	r2, [pc, #136]	; (8003d10 <HAL_TIM_IC_Start_IT+0x234>)
 8003c88:	4293      	cmp	r3, r2
 8003c8a:	d022      	beq.n	8003cd2 <HAL_TIM_IC_Start_IT+0x1f6>
 8003c8c:	687b      	ldr	r3, [r7, #4]
 8003c8e:	681b      	ldr	r3, [r3, #0]
 8003c90:	f1b3 4f80 	cmp.w	r3, #1073741824	; 0x40000000
 8003c94:	d01d      	beq.n	8003cd2 <HAL_TIM_IC_Start_IT+0x1f6>
 8003c96:	687b      	ldr	r3, [r7, #4]
 8003c98:	681b      	ldr	r3, [r3, #0]
 8003c9a:	4a1e      	ldr	r2, [pc, #120]	; (8003d14 <HAL_TIM_IC_Start_IT+0x238>)
 8003c9c:	4293      	cmp	r3, r2
 8003c9e:	d018      	beq.n	8003cd2 <HAL_TIM_IC_Start_IT+0x1f6>
 8003ca0:	687b      	ldr	r3, [r7, #4]
 8003ca2:	681b      	ldr	r3, [r3, #0]
 8003ca4:	4a1c      	ldr	r2, [pc, #112]	; (8003d18 <HAL_TIM_IC_Start_IT+0x23c>)
 8003ca6:	4293      	cmp	r3, r2
 8003ca8:	d013      	beq.n	8003cd2 <HAL_TIM_IC_Start_IT+0x1f6>
 8003caa:	687b      	ldr	r3, [r7, #4]
 8003cac:	681b      	ldr	r3, [r3, #0]
 8003cae:	4a1b      	ldr	r2, [pc, #108]	; (8003d1c <HAL_TIM_IC_Start_IT+0x240>)
 8003cb0:	4293      	cmp	r3, r2
 8003cb2:	d00e      	beq.n	8003cd2 <HAL_TIM_IC_Start_IT+0x1f6>
 8003cb4:	687b      	ldr	r3, [r7, #4]
 8003cb6:	681b      	ldr	r3, [r3, #0]
 8003cb8:	4a19      	ldr	r2, [pc, #100]	; (8003d20 <HAL_TIM_IC_Start_IT+0x244>)
 8003cba:	4293      	cmp	r3, r2
 8003cbc:	d009      	beq.n	8003cd2 <HAL_TIM_IC_Start_IT+0x1f6>
 8003cbe:	687b      	ldr	r3, [r7, #4]
 8003cc0:	681b      	ldr	r3, [r3, #0]
 8003cc2:	4a18      	ldr	r2, [pc, #96]	; (8003d24 <HAL_TIM_IC_Start_IT+0x248>)
 8003cc4:	4293      	cmp	r3, r2
 8003cc6:	d004      	beq.n	8003cd2 <HAL_TIM_IC_Start_IT+0x1f6>
 8003cc8:	687b      	ldr	r3, [r7, #4]
 8003cca:	681b      	ldr	r3, [r3, #0]
 8003ccc:	4a16      	ldr	r2, [pc, #88]	; (8003d28 <HAL_TIM_IC_Start_IT+0x24c>)
 8003cce:	4293      	cmp	r3, r2
 8003cd0:	d111      	bne.n	8003cf6 <HAL_TIM_IC_Start_IT+0x21a>
    {
      tmpsmcr = htim->Instance->SMCR & TIM_SMCR_SMS;
 8003cd2:	687b      	ldr	r3, [r7, #4]
 8003cd4:	681b      	ldr	r3, [r3, #0]
 8003cd6:	689b      	ldr	r3, [r3, #8]
 8003cd8:	f003 0307 	and.w	r3, r3, #7
 8003cdc:	60bb      	str	r3, [r7, #8]
      if (!IS_TIM_SLAVEMODE_TRIGGER_ENABLED(tmpsmcr))
 8003cde:	68bb      	ldr	r3, [r7, #8]
 8003ce0:	2b06      	cmp	r3, #6
 8003ce2:	d010      	beq.n	8003d06 <HAL_TIM_IC_Start_IT+0x22a>
      {
        __HAL_TIM_ENABLE(htim);
 8003ce4:	687b      	ldr	r3, [r7, #4]
 8003ce6:	681b      	ldr	r3, [r3, #0]
 8003ce8:	681a      	ldr	r2, [r3, #0]
 8003cea:	687b      	ldr	r3, [r7, #4]
 8003cec:	681b      	ldr	r3, [r3, #0]
 8003cee:	f042 0201 	orr.w	r2, r2, #1
 8003cf2:	601a      	str	r2, [r3, #0]
      if (!IS_TIM_SLAVEMODE_TRIGGER_ENABLED(tmpsmcr))
 8003cf4:	e007      	b.n	8003d06 <HAL_TIM_IC_Start_IT+0x22a>
      }
    }
    else
    {
      __HAL_TIM_ENABLE(htim);
 8003cf6:	687b      	ldr	r3, [r7, #4]
 8003cf8:	681b      	ldr	r3, [r3, #0]
 8003cfa:	681a      	ldr	r2, [r3, #0]
 8003cfc:	687b      	ldr	r3, [r7, #4]
 8003cfe:	681b      	ldr	r3, [r3, #0]
 8003d00:	f042 0201 	orr.w	r2, r2, #1
 8003d04:	601a      	str	r2, [r3, #0]
    }
  }

  /* Return function status */
  return status;
 8003d06:	7bfb      	ldrb	r3, [r7, #15]
}
 8003d08:	4618      	mov	r0, r3
 8003d0a:	3710      	adds	r7, #16
 8003d0c:	46bd      	mov	sp, r7
 8003d0e:	bd80      	pop	{r7, pc}
 8003d10:	40010000 	.word	0x40010000
 8003d14:	40000400 	.word	0x40000400
 8003d18:	40000800 	.word	0x40000800
 8003d1c:	40000c00 	.word	0x40000c00
 8003d20:	40010400 	.word	0x40010400
 8003d24:	40014000 	.word	0x40014000
 8003d28:	40001800 	.word	0x40001800

08003d2c <HAL_TIM_IRQHandler>:
  * @brief  This function handles TIM interrupts requests.
  * @param  htim TIM  handle
  * @retval None
  */
void HAL_TIM_IRQHandler(TIM_HandleTypeDef *htim)
{
 8003d2c:	b580      	push	{r7, lr}
 8003d2e:	b082      	sub	sp, #8
 8003d30:	af00      	add	r7, sp, #0
 8003d32:	6078      	str	r0, [r7, #4]
  /* Capture compare 1 event */
  if (__HAL_TIM_GET_FLAG(htim, TIM_FLAG_CC1) != RESET)
 8003d34:	687b      	ldr	r3, [r7, #4]
 8003d36:	681b      	ldr	r3, [r3, #0]
 8003d38:	691b      	ldr	r3, [r3, #16]
 8003d3a:	f003 0302 	and.w	r3, r3, #2
 8003d3e:	2b02      	cmp	r3, #2
 8003d40:	d122      	bne.n	8003d88 <HAL_TIM_IRQHandler+0x5c>
  {
    if (__HAL_TIM_GET_IT_SOURCE(htim, TIM_IT_CC1) != RESET)
 8003d42:	687b      	ldr	r3, [r7, #4]
 8003d44:	681b      	ldr	r3, [r3, #0]
 8003d46:	68db      	ldr	r3, [r3, #12]
 8003d48:	f003 0302 	and.w	r3, r3, #2
 8003d4c:	2b02      	cmp	r3, #2
 8003d4e:	d11b      	bne.n	8003d88 <HAL_TIM_IRQHandler+0x5c>
    {
      {
        __HAL_TIM_CLEAR_IT(htim, TIM_IT_CC1);
 8003d50:	687b      	ldr	r3, [r7, #4]
 8003d52:	681b      	ldr	r3, [r3, #0]
 8003d54:	f06f 0202 	mvn.w	r2, #2
 8003d58:	611a      	str	r2, [r3, #16]
        htim->Channel = HAL_TIM_ACTIVE_CHANNEL_1;
 8003d5a:	687b      	ldr	r3, [r7, #4]
 8003d5c:	2201      	movs	r2, #1
 8003d5e:	771a      	strb	r2, [r3, #28]

        /* Input capture event */
        if ((htim->Instance->CCMR1 & TIM_CCMR1_CC1S) != 0x00U)
 8003d60:	687b      	ldr	r3, [r7, #4]
 8003d62:	681b      	ldr	r3, [r3, #0]
 8003d64:	699b      	ldr	r3, [r3, #24]
 8003d66:	f003 0303 	and.w	r3, r3, #3
 8003d6a:	2b00      	cmp	r3, #0
 8003d6c:	d003      	beq.n	8003d76 <HAL_TIM_IRQHandler+0x4a>
        {
#if (USE_HAL_TIM_REGISTER_CALLBACKS == 1)
          htim->IC_CaptureCallback(htim);
#else
          HAL_TIM_IC_CaptureCallback(htim);
 8003d6e:	6878      	ldr	r0, [r7, #4]
 8003d70:	f7fd ffbe 	bl	8001cf0 <HAL_TIM_IC_CaptureCallback>
 8003d74:	e005      	b.n	8003d82 <HAL_TIM_IRQHandler+0x56>
        {
#if (USE_HAL_TIM_REGISTER_CALLBACKS == 1)
          htim->OC_DelayElapsedCallback(htim);
          htim->PWM_PulseFinishedCallback(htim);
#else
          HAL_TIM_OC_DelayElapsedCallback(htim);
 8003d76:	6878      	ldr	r0, [r7, #4]
 8003d78:	f000 fb4a 	bl	8004410 <HAL_TIM_OC_DelayElapsedCallback>
          HAL_TIM_PWM_PulseFinishedCallback(htim);
 8003d7c:	6878      	ldr	r0, [r7, #4]
 8003d7e:	f000 fb51 	bl	8004424 <HAL_TIM_PWM_PulseFinishedCallback>
#endif /* USE_HAL_TIM_REGISTER_CALLBACKS */
        }
        htim->Channel = HAL_TIM_ACTIVE_CHANNEL_CLEARED;
 8003d82:	687b      	ldr	r3, [r7, #4]
 8003d84:	2200      	movs	r2, #0
 8003d86:	771a      	strb	r2, [r3, #28]
      }
    }
  }
  /* Capture compare 2 event */
  if (__HAL_TIM_GET_FLAG(htim, TIM_FLAG_CC2) != RESET)
 8003d88:	687b      	ldr	r3, [r7, #4]
 8003d8a:	681b      	ldr	r3, [r3, #0]
 8003d8c:	691b      	ldr	r3, [r3, #16]
 8003d8e:	f003 0304 	and.w	r3, r3, #4
 8003d92:	2b04      	cmp	r3, #4
 8003d94:	d122      	bne.n	8003ddc <HAL_TIM_IRQHandler+0xb0>
  {
    if (__HAL_TIM_GET_IT_SOURCE(htim, TIM_IT_CC2) != RESET)
 8003d96:	687b      	ldr	r3, [r7, #4]
 8003d98:	681b      	ldr	r3, [r3, #0]
 8003d9a:	68db      	ldr	r3, [r3, #12]
 8003d9c:	f003 0304 	and.w	r3, r3, #4
 8003da0:	2b04      	cmp	r3, #4
 8003da2:	d11b      	bne.n	8003ddc <HAL_TIM_IRQHandler+0xb0>
    {
      __HAL_TIM_CLEAR_IT(htim, TIM_IT_CC2);
 8003da4:	687b      	ldr	r3, [r7, #4]
 8003da6:	681b      	ldr	r3, [r3, #0]
 8003da8:	f06f 0204 	mvn.w	r2, #4
 8003dac:	611a      	str	r2, [r3, #16]
      htim->Channel = HAL_TIM_ACTIVE_CHANNEL_2;
 8003dae:	687b      	ldr	r3, [r7, #4]
 8003db0:	2202      	movs	r2, #2
 8003db2:	771a      	strb	r2, [r3, #28]
      /* Input capture event */
      if ((htim->Instance->CCMR1 & TIM_CCMR1_CC2S) != 0x00U)
 8003db4:	687b      	ldr	r3, [r7, #4]
 8003db6:	681b      	ldr	r3, [r3, #0]
 8003db8:	699b      	ldr	r3, [r3, #24]
 8003dba:	f403 7340 	and.w	r3, r3, #768	; 0x300
 8003dbe:	2b00      	cmp	r3, #0
 8003dc0:	d003      	beq.n	8003dca <HAL_TIM_IRQHandler+0x9e>
      {
#if (USE_HAL_TIM_REGISTER_CALLBACKS == 1)
        htim->IC_CaptureCallback(htim);
#else
        HAL_TIM_IC_CaptureCallback(htim);
 8003dc2:	6878      	ldr	r0, [r7, #4]
 8003dc4:	f7fd ff94 	bl	8001cf0 <HAL_TIM_IC_CaptureCallback>
 8003dc8:	e005      	b.n	8003dd6 <HAL_TIM_IRQHandler+0xaa>
      {
#if (USE_HAL_TIM_REGISTER_CALLBACKS == 1)
        htim->OC_DelayElapsedCallback(htim);
        htim->PWM_PulseFinishedCallback(htim);
#else
        HAL_TIM_OC_DelayElapsedCallback(htim);
 8003dca:	6878      	ldr	r0, [r7, #4]
 8003dcc:	f000 fb20 	bl	8004410 <HAL_TIM_OC_DelayElapsedCallback>
        HAL_TIM_PWM_PulseFinishedCallback(htim);
 8003dd0:	6878      	ldr	r0, [r7, #4]
 8003dd2:	f000 fb27 	bl	8004424 <HAL_TIM_PWM_PulseFinishedCallback>
#endif /* USE_HAL_TIM_REGISTER_CALLBACKS */
      }
      htim->Channel = HAL_TIM_ACTIVE_CHANNEL_CLEARED;
 8003dd6:	687b      	ldr	r3, [r7, #4]
 8003dd8:	2200      	movs	r2, #0
 8003dda:	771a      	strb	r2, [r3, #28]
    }
  }
  /* Capture compare 3 event */
  if (__HAL_TIM_GET_FLAG(htim, TIM_FLAG_CC3) != RESET)
 8003ddc:	687b      	ldr	r3, [r7, #4]
 8003dde:	681b      	ldr	r3, [r3, #0]
 8003de0:	691b      	ldr	r3, [r3, #16]
 8003de2:	f003 0308 	and.w	r3, r3, #8
 8003de6:	2b08      	cmp	r3, #8
 8003de8:	d122      	bne.n	8003e30 <HAL_TIM_IRQHandler+0x104>
  {
    if (__HAL_TIM_GET_IT_SOURCE(htim, TIM_IT_CC3) != RESET)
 8003dea:	687b      	ldr	r3, [r7, #4]
 8003dec:	681b      	ldr	r3, [r3, #0]
 8003dee:	68db      	ldr	r3, [r3, #12]
 8003df0:	f003 0308 	and.w	r3, r3, #8
 8003df4:	2b08      	cmp	r3, #8
 8003df6:	d11b      	bne.n	8003e30 <HAL_TIM_IRQHandler+0x104>
    {
      __HAL_TIM_CLEAR_IT(htim, TIM_IT_CC3);
 8003df8:	687b      	ldr	r3, [r7, #4]
 8003dfa:	681b      	ldr	r3, [r3, #0]
 8003dfc:	f06f 0208 	mvn.w	r2, #8
 8003e00:	611a      	str	r2, [r3, #16]
      htim->Channel = HAL_TIM_ACTIVE_CHANNEL_3;
 8003e02:	687b      	ldr	r3, [r7, #4]
 8003e04:	2204      	movs	r2, #4
 8003e06:	771a      	strb	r2, [r3, #28]
      /* Input capture event */
      if ((htim->Instance->CCMR2 & TIM_CCMR2_CC3S) != 0x00U)
 8003e08:	687b      	ldr	r3, [r7, #4]
 8003e0a:	681b      	ldr	r3, [r3, #0]
 8003e0c:	69db      	ldr	r3, [r3, #28]
 8003e0e:	f003 0303 	and.w	r3, r3, #3
 8003e12:	2b00      	cmp	r3, #0
 8003e14:	d003      	beq.n	8003e1e <HAL_TIM_IRQHandler+0xf2>
      {
#if (USE_HAL_TIM_REGISTER_CALLBACKS == 1)
        htim->IC_CaptureCallback(htim);
#else
        HAL_TIM_IC_CaptureCallback(htim);
 8003e16:	6878      	ldr	r0, [r7, #4]
 8003e18:	f7fd ff6a 	bl	8001cf0 <HAL_TIM_IC_CaptureCallback>
 8003e1c:	e005      	b.n	8003e2a <HAL_TIM_IRQHandler+0xfe>
      {
#if (USE_HAL_TIM_REGISTER_CALLBACKS == 1)
        htim->OC_DelayElapsedCallback(htim);
        htim->PWM_PulseFinishedCallback(htim);
#else
        HAL_TIM_OC_DelayElapsedCallback(htim);
 8003e1e:	6878      	ldr	r0, [r7, #4]
 8003e20:	f000 faf6 	bl	8004410 <HAL_TIM_OC_DelayElapsedCallback>
        HAL_TIM_PWM_PulseFinishedCallback(htim);
 8003e24:	6878      	ldr	r0, [r7, #4]
 8003e26:	f000 fafd 	bl	8004424 <HAL_TIM_PWM_PulseFinishedCallback>
#endif /* USE_HAL_TIM_REGISTER_CALLBACKS */
      }
      htim->Channel = HAL_TIM_ACTIVE_CHANNEL_CLEARED;
 8003e2a:	687b      	ldr	r3, [r7, #4]
 8003e2c:	2200      	movs	r2, #0
 8003e2e:	771a      	strb	r2, [r3, #28]
    }
  }
  /* Capture compare 4 event */
  if (__HAL_TIM_GET_FLAG(htim, TIM_FLAG_CC4) != RESET)
 8003e30:	687b      	ldr	r3, [r7, #4]
 8003e32:	681b      	ldr	r3, [r3, #0]
 8003e34:	691b      	ldr	r3, [r3, #16]
 8003e36:	f003 0310 	and.w	r3, r3, #16
 8003e3a:	2b10      	cmp	r3, #16
 8003e3c:	d122      	bne.n	8003e84 <HAL_TIM_IRQHandler+0x158>
  {
    if (__HAL_TIM_GET_IT_SOURCE(htim, TIM_IT_CC4) != RESET)
 8003e3e:	687b      	ldr	r3, [r7, #4]
 8003e40:	681b      	ldr	r3, [r3, #0]
 8003e42:	68db      	ldr	r3, [r3, #12]
 8003e44:	f003 0310 	and.w	r3, r3, #16
 8003e48:	2b10      	cmp	r3, #16
 8003e4a:	d11b      	bne.n	8003e84 <HAL_TIM_IRQHandler+0x158>
    {
      __HAL_TIM_CLEAR_IT(htim, TIM_IT_CC4);
 8003e4c:	687b      	ldr	r3, [r7, #4]
 8003e4e:	681b      	ldr	r3, [r3, #0]
 8003e50:	f06f 0210 	mvn.w	r2, #16
 8003e54:	611a      	str	r2, [r3, #16]
      htim->Channel = HAL_TIM_ACTIVE_CHANNEL_4;
 8003e56:	687b      	ldr	r3, [r7, #4]
 8003e58:	2208      	movs	r2, #8
 8003e5a:	771a      	strb	r2, [r3, #28]
      /* Input capture event */
      if ((htim->Instance->CCMR2 & TIM_CCMR2_CC4S) != 0x00U)
 8003e5c:	687b      	ldr	r3, [r7, #4]
 8003e5e:	681b      	ldr	r3, [r3, #0]
 8003e60:	69db      	ldr	r3, [r3, #28]
 8003e62:	f403 7340 	and.w	r3, r3, #768	; 0x300
 8003e66:	2b00      	cmp	r3, #0
 8003e68:	d003      	beq.n	8003e72 <HAL_TIM_IRQHandler+0x146>
      {
#if (USE_HAL_TIM_REGISTER_CALLBACKS == 1)
        htim->IC_CaptureCallback(htim);
#else
        HAL_TIM_IC_CaptureCallback(htim);
 8003e6a:	6878      	ldr	r0, [r7, #4]
 8003e6c:	f7fd ff40 	bl	8001cf0 <HAL_TIM_IC_CaptureCallback>
 8003e70:	e005      	b.n	8003e7e <HAL_TIM_IRQHandler+0x152>
      {
#if (USE_HAL_TIM_REGISTER_CALLBACKS == 1)
        htim->OC_DelayElapsedCallback(htim);
        htim->PWM_PulseFinishedCallback(htim);
#else
        HAL_TIM_OC_DelayElapsedCallback(htim);
 8003e72:	6878      	ldr	r0, [r7, #4]
 8003e74:	f000 facc 	bl	8004410 <HAL_TIM_OC_DelayElapsedCallback>
        HAL_TIM_PWM_PulseFinishedCallback(htim);
 8003e78:	6878      	ldr	r0, [r7, #4]
 8003e7a:	f000 fad3 	bl	8004424 <HAL_TIM_PWM_PulseFinishedCallback>
#endif /* USE_HAL_TIM_REGISTER_CALLBACKS */
      }
      htim->Channel = HAL_TIM_ACTIVE_CHANNEL_CLEARED;
 8003e7e:	687b      	ldr	r3, [r7, #4]
 8003e80:	2200      	movs	r2, #0
 8003e82:	771a      	strb	r2, [r3, #28]
    }
  }
  /* TIM Update event */
  if (__HAL_TIM_GET_FLAG(htim, TIM_FLAG_UPDATE) != RESET)
 8003e84:	687b      	ldr	r3, [r7, #4]
 8003e86:	681b      	ldr	r3, [r3, #0]
 8003e88:	691b      	ldr	r3, [r3, #16]
 8003e8a:	f003 0301 	and.w	r3, r3, #1
 8003e8e:	2b01      	cmp	r3, #1
 8003e90:	d10e      	bne.n	8003eb0 <HAL_TIM_IRQHandler+0x184>
  {
    if (__HAL_TIM_GET_IT_SOURCE(htim, TIM_IT_UPDATE) != RESET)
 8003e92:	687b      	ldr	r3, [r7, #4]
 8003e94:	681b      	ldr	r3, [r3, #0]
 8003e96:	68db      	ldr	r3, [r3, #12]
 8003e98:	f003 0301 	and.w	r3, r3, #1
 8003e9c:	2b01      	cmp	r3, #1
 8003e9e:	d107      	bne.n	8003eb0 <HAL_TIM_IRQHandler+0x184>
    {
      __HAL_TIM_CLEAR_IT(htim, TIM_IT_UPDATE);
 8003ea0:	687b      	ldr	r3, [r7, #4]
 8003ea2:	681b      	ldr	r3, [r3, #0]
 8003ea4:	f06f 0201 	mvn.w	r2, #1
 8003ea8:	611a      	str	r2, [r3, #16]
#if (USE_HAL_TIM_REGISTER_CALLBACKS == 1)
      htim->PeriodElapsedCallback(htim);
#else
      HAL_TIM_PeriodElapsedCallback(htim);
 8003eaa:	6878      	ldr	r0, [r7, #4]
 8003eac:	f7fd ff2b 	bl	8001d06 <HAL_TIM_PeriodElapsedCallback>
#endif /* USE_HAL_TIM_REGISTER_CALLBACKS */
    }
  }
  /* TIM Break input event */
  if (__HAL_TIM_GET_FLAG(htim, TIM_FLAG_BREAK) != RESET)
 8003eb0:	687b      	ldr	r3, [r7, #4]
 8003eb2:	681b      	ldr	r3, [r3, #0]
 8003eb4:	691b      	ldr	r3, [r3, #16]
 8003eb6:	f003 0380 	and.w	r3, r3, #128	; 0x80
 8003eba:	2b80      	cmp	r3, #128	; 0x80
 8003ebc:	d10e      	bne.n	8003edc <HAL_TIM_IRQHandler+0x1b0>
  {
    if (__HAL_TIM_GET_IT_SOURCE(htim, TIM_IT_BREAK) != RESET)
 8003ebe:	687b      	ldr	r3, [r7, #4]
 8003ec0:	681b      	ldr	r3, [r3, #0]
 8003ec2:	68db      	ldr	r3, [r3, #12]
 8003ec4:	f003 0380 	and.w	r3, r3, #128	; 0x80
 8003ec8:	2b80      	cmp	r3, #128	; 0x80
 8003eca:	d107      	bne.n	8003edc <HAL_TIM_IRQHandler+0x1b0>
    {
      __HAL_TIM_CLEAR_IT(htim, TIM_IT_BREAK);
 8003ecc:	687b      	ldr	r3, [r7, #4]
 8003ece:	681b      	ldr	r3, [r3, #0]
 8003ed0:	f06f 0280 	mvn.w	r2, #128	; 0x80
 8003ed4:	611a      	str	r2, [r3, #16]
#if (USE_HAL_TIM_REGISTER_CALLBACKS == 1)
      htim->BreakCallback(htim);
#else
      HAL_TIMEx_BreakCallback(htim);
 8003ed6:	6878      	ldr	r0, [r7, #4]
 8003ed8:	f000 ffca 	bl	8004e70 <HAL_TIMEx_BreakCallback>
#endif /* USE_HAL_TIM_REGISTER_CALLBACKS */
    }
  }
  /* TIM Trigger detection event */
  if (__HAL_TIM_GET_FLAG(htim, TIM_FLAG_TRIGGER) != RESET)
 8003edc:	687b      	ldr	r3, [r7, #4]
 8003ede:	681b      	ldr	r3, [r3, #0]
 8003ee0:	691b      	ldr	r3, [r3, #16]
 8003ee2:	f003 0340 	and.w	r3, r3, #64	; 0x40
 8003ee6:	2b40      	cmp	r3, #64	; 0x40
 8003ee8:	d10e      	bne.n	8003f08 <HAL_TIM_IRQHandler+0x1dc>
  {
    if (__HAL_TIM_GET_IT_SOURCE(htim, TIM_IT_TRIGGER) != RESET)
 8003eea:	687b      	ldr	r3, [r7, #4]
 8003eec:	681b      	ldr	r3, [r3, #0]
 8003eee:	68db      	ldr	r3, [r3, #12]
 8003ef0:	f003 0340 	and.w	r3, r3, #64	; 0x40
 8003ef4:	2b40      	cmp	r3, #64	; 0x40
 8003ef6:	d107      	bne.n	8003f08 <HAL_TIM_IRQHandler+0x1dc>
    {
      __HAL_TIM_CLEAR_IT(htim, TIM_IT_TRIGGER);
 8003ef8:	687b      	ldr	r3, [r7, #4]
 8003efa:	681b      	ldr	r3, [r3, #0]
 8003efc:	f06f 0240 	mvn.w	r2, #64	; 0x40
 8003f00:	611a      	str	r2, [r3, #16]
#if (USE_HAL_TIM_REGISTER_CALLBACKS == 1)
      htim->TriggerCallback(htim);
#else
      HAL_TIM_TriggerCallback(htim);
 8003f02:	6878      	ldr	r0, [r7, #4]
 8003f04:	f000 fa98 	bl	8004438 <HAL_TIM_TriggerCallback>
#endif /* USE_HAL_TIM_REGISTER_CALLBACKS */
    }
  }
  /* TIM commutation event */
  if (__HAL_TIM_GET_FLAG(htim, TIM_FLAG_COM) != RESET)
 8003f08:	687b      	ldr	r3, [r7, #4]
 8003f0a:	681b      	ldr	r3, [r3, #0]
 8003f0c:	691b      	ldr	r3, [r3, #16]
 8003f0e:	f003 0320 	and.w	r3, r3, #32
 8003f12:	2b20      	cmp	r3, #32
 8003f14:	d10e      	bne.n	8003f34 <HAL_TIM_IRQHandler+0x208>
  {
    if (__HAL_TIM_GET_IT_SOURCE(htim, TIM_IT_COM) != RESET)
 8003f16:	687b      	ldr	r3, [r7, #4]
 8003f18:	681b      	ldr	r3, [r3, #0]
 8003f1a:	68db      	ldr	r3, [r3, #12]
 8003f1c:	f003 0320 	and.w	r3, r3, #32
 8003f20:	2b20      	cmp	r3, #32
 8003f22:	d107      	bne.n	8003f34 <HAL_TIM_IRQHandler+0x208>
    {
      __HAL_TIM_CLEAR_IT(htim, TIM_FLAG_COM);
 8003f24:	687b      	ldr	r3, [r7, #4]
 8003f26:	681b      	ldr	r3, [r3, #0]
 8003f28:	f06f 0220 	mvn.w	r2, #32
 8003f2c:	611a      	str	r2, [r3, #16]
#if (USE_HAL_TIM_REGISTER_CALLBACKS == 1)
      htim->CommutationCallback(htim);
#else
      HAL_TIMEx_CommutCallback(htim);
 8003f2e:	6878      	ldr	r0, [r7, #4]
 8003f30:	f000 ff94 	bl	8004e5c <HAL_TIMEx_CommutCallback>
#endif /* USE_HAL_TIM_REGISTER_CALLBACKS */
    }
  }
}
 8003f34:	bf00      	nop
 8003f36:	3708      	adds	r7, #8
 8003f38:	46bd      	mov	sp, r7
 8003f3a:	bd80      	pop	{r7, pc}

08003f3c <HAL_TIM_IC_ConfigChannel>:
  *            @arg TIM_CHANNEL_3: TIM Channel 3 selected
  *            @arg TIM_CHANNEL_4: TIM Channel 4 selected
  * @retval HAL status
  */
HAL_StatusTypeDef HAL_TIM_IC_ConfigChannel(TIM_HandleTypeDef *htim, TIM_IC_InitTypeDef *sConfig, uint32_t Channel)
{
 8003f3c:	b580      	push	{r7, lr}
 8003f3e:	b086      	sub	sp, #24
 8003f40:	af00      	add	r7, sp, #0
 8003f42:	60f8      	str	r0, [r7, #12]
 8003f44:	60b9      	str	r1, [r7, #8]
 8003f46:	607a      	str	r2, [r7, #4]
  HAL_StatusTypeDef status = HAL_OK;
 8003f48:	2300      	movs	r3, #0
 8003f4a:	75fb      	strb	r3, [r7, #23]
  assert_param(IS_TIM_IC_SELECTION(sConfig->ICSelection));
  assert_param(IS_TIM_IC_PRESCALER(sConfig->ICPrescaler));
  assert_param(IS_TIM_IC_FILTER(sConfig->ICFilter));

  /* Process Locked */
  __HAL_LOCK(htim);
 8003f4c:	68fb      	ldr	r3, [r7, #12]
 8003f4e:	f893 303c 	ldrb.w	r3, [r3, #60]	; 0x3c
 8003f52:	2b01      	cmp	r3, #1
 8003f54:	d101      	bne.n	8003f5a <HAL_TIM_IC_ConfigChannel+0x1e>
 8003f56:	2302      	movs	r3, #2
 8003f58:	e088      	b.n	800406c <HAL_TIM_IC_ConfigChannel+0x130>
 8003f5a:	68fb      	ldr	r3, [r7, #12]
 8003f5c:	2201      	movs	r2, #1
 8003f5e:	f883 203c 	strb.w	r2, [r3, #60]	; 0x3c

  if (Channel == TIM_CHANNEL_1)
 8003f62:	687b      	ldr	r3, [r7, #4]
 8003f64:	2b00      	cmp	r3, #0
 8003f66:	d11b      	bne.n	8003fa0 <HAL_TIM_IC_ConfigChannel+0x64>
  {
    /* TI1 Configuration */
    TIM_TI1_SetConfig(htim->Instance,
 8003f68:	68fb      	ldr	r3, [r7, #12]
 8003f6a:	6818      	ldr	r0, [r3, #0]
 8003f6c:	68bb      	ldr	r3, [r7, #8]
 8003f6e:	6819      	ldr	r1, [r3, #0]
 8003f70:	68bb      	ldr	r3, [r7, #8]
 8003f72:	685a      	ldr	r2, [r3, #4]
 8003f74:	68bb      	ldr	r3, [r7, #8]
 8003f76:	68db      	ldr	r3, [r3, #12]
 8003f78:	f000 fcb8 	bl	80048ec <TIM_TI1_SetConfig>
                      sConfig->ICPolarity,
                      sConfig->ICSelection,
                      sConfig->ICFilter);

    /* Reset the IC1PSC Bits */
    htim->Instance->CCMR1 &= ~TIM_CCMR1_IC1PSC;
 8003f7c:	68fb      	ldr	r3, [r7, #12]
 8003f7e:	681b      	ldr	r3, [r3, #0]
 8003f80:	699a      	ldr	r2, [r3, #24]
 8003f82:	68fb      	ldr	r3, [r7, #12]
 8003f84:	681b      	ldr	r3, [r3, #0]
 8003f86:	f022 020c 	bic.w	r2, r2, #12
 8003f8a:	619a      	str	r2, [r3, #24]

    /* Set the IC1PSC value */
    htim->Instance->CCMR1 |= sConfig->ICPrescaler;
 8003f8c:	68fb      	ldr	r3, [r7, #12]
 8003f8e:	681b      	ldr	r3, [r3, #0]
 8003f90:	6999      	ldr	r1, [r3, #24]
 8003f92:	68bb      	ldr	r3, [r7, #8]
 8003f94:	689a      	ldr	r2, [r3, #8]
 8003f96:	68fb      	ldr	r3, [r7, #12]
 8003f98:	681b      	ldr	r3, [r3, #0]
 8003f9a:	430a      	orrs	r2, r1
 8003f9c:	619a      	str	r2, [r3, #24]
 8003f9e:	e060      	b.n	8004062 <HAL_TIM_IC_ConfigChannel+0x126>
  }
  else if (Channel == TIM_CHANNEL_2)
 8003fa0:	687b      	ldr	r3, [r7, #4]
 8003fa2:	2b04      	cmp	r3, #4
 8003fa4:	d11c      	bne.n	8003fe0 <HAL_TIM_IC_ConfigChannel+0xa4>
  {
    /* TI2 Configuration */
    assert_param(IS_TIM_CC2_INSTANCE(htim->Instance));

    TIM_TI2_SetConfig(htim->Instance,
 8003fa6:	68fb      	ldr	r3, [r7, #12]
 8003fa8:	6818      	ldr	r0, [r3, #0]
 8003faa:	68bb      	ldr	r3, [r7, #8]
 8003fac:	6819      	ldr	r1, [r3, #0]
 8003fae:	68bb      	ldr	r3, [r7, #8]
 8003fb0:	685a      	ldr	r2, [r3, #4]
 8003fb2:	68bb      	ldr	r3, [r7, #8]
 8003fb4:	68db      	ldr	r3, [r3, #12]
 8003fb6:	f000 fd3c 	bl	8004a32 <TIM_TI2_SetConfig>
                      sConfig->ICPolarity,
                      sConfig->ICSelection,
                      sConfig->ICFilter);

    /* Reset the IC2PSC Bits */
    htim->Instance->CCMR1 &= ~TIM_CCMR1_IC2PSC;
 8003fba:	68fb      	ldr	r3, [r7, #12]
 8003fbc:	681b      	ldr	r3, [r3, #0]
 8003fbe:	699a      	ldr	r2, [r3, #24]
 8003fc0:	68fb      	ldr	r3, [r7, #12]
 8003fc2:	681b      	ldr	r3, [r3, #0]
 8003fc4:	f422 6240 	bic.w	r2, r2, #3072	; 0xc00
 8003fc8:	619a      	str	r2, [r3, #24]

    /* Set the IC2PSC value */
    htim->Instance->CCMR1 |= (sConfig->ICPrescaler << 8U);
 8003fca:	68fb      	ldr	r3, [r7, #12]
 8003fcc:	681b      	ldr	r3, [r3, #0]
 8003fce:	6999      	ldr	r1, [r3, #24]
 8003fd0:	68bb      	ldr	r3, [r7, #8]
 8003fd2:	689b      	ldr	r3, [r3, #8]
 8003fd4:	021a      	lsls	r2, r3, #8
 8003fd6:	68fb      	ldr	r3, [r7, #12]
 8003fd8:	681b      	ldr	r3, [r3, #0]
 8003fda:	430a      	orrs	r2, r1
 8003fdc:	619a      	str	r2, [r3, #24]
 8003fde:	e040      	b.n	8004062 <HAL_TIM_IC_ConfigChannel+0x126>
  }
  else if (Channel == TIM_CHANNEL_3)
 8003fe0:	687b      	ldr	r3, [r7, #4]
 8003fe2:	2b08      	cmp	r3, #8
 8003fe4:	d11b      	bne.n	800401e <HAL_TIM_IC_ConfigChannel+0xe2>
  {
    /* TI3 Configuration */
    assert_param(IS_TIM_CC3_INSTANCE(htim->Instance));

    TIM_TI3_SetConfig(htim->Instance,
 8003fe6:	68fb      	ldr	r3, [r7, #12]
 8003fe8:	6818      	ldr	r0, [r3, #0]
 8003fea:	68bb      	ldr	r3, [r7, #8]
 8003fec:	6819      	ldr	r1, [r3, #0]
 8003fee:	68bb      	ldr	r3, [r7, #8]
 8003ff0:	685a      	ldr	r2, [r3, #4]
 8003ff2:	68bb      	ldr	r3, [r7, #8]
 8003ff4:	68db      	ldr	r3, [r3, #12]
 8003ff6:	f000 fd89 	bl	8004b0c <TIM_TI3_SetConfig>
                      sConfig->ICPolarity,
                      sConfig->ICSelection,
                      sConfig->ICFilter);

    /* Reset the IC3PSC Bits */
    htim->Instance->CCMR2 &= ~TIM_CCMR2_IC3PSC;
 8003ffa:	68fb      	ldr	r3, [r7, #12]
 8003ffc:	681b      	ldr	r3, [r3, #0]
 8003ffe:	69da      	ldr	r2, [r3, #28]
 8004000:	68fb      	ldr	r3, [r7, #12]
 8004002:	681b      	ldr	r3, [r3, #0]
 8004004:	f022 020c 	bic.w	r2, r2, #12
 8004008:	61da      	str	r2, [r3, #28]

    /* Set the IC3PSC value */
    htim->Instance->CCMR2 |= sConfig->ICPrescaler;
 800400a:	68fb      	ldr	r3, [r7, #12]
 800400c:	681b      	ldr	r3, [r3, #0]
 800400e:	69d9      	ldr	r1, [r3, #28]
 8004010:	68bb      	ldr	r3, [r7, #8]
 8004012:	689a      	ldr	r2, [r3, #8]
 8004014:	68fb      	ldr	r3, [r7, #12]
 8004016:	681b      	ldr	r3, [r3, #0]
 8004018:	430a      	orrs	r2, r1
 800401a:	61da      	str	r2, [r3, #28]
 800401c:	e021      	b.n	8004062 <HAL_TIM_IC_ConfigChannel+0x126>
  }
  else if (Channel == TIM_CHANNEL_4)
 800401e:	687b      	ldr	r3, [r7, #4]
 8004020:	2b0c      	cmp	r3, #12
 8004022:	d11c      	bne.n	800405e <HAL_TIM_IC_ConfigChannel+0x122>
  {
    /* TI4 Configuration */
    assert_param(IS_TIM_CC4_INSTANCE(htim->Instance));

    TIM_TI4_SetConfig(htim->Instance,
 8004024:	68fb      	ldr	r3, [r7, #12]
 8004026:	6818      	ldr	r0, [r3, #0]
 8004028:	68bb      	ldr	r3, [r7, #8]
 800402a:	6819      	ldr	r1, [r3, #0]
 800402c:	68bb      	ldr	r3, [r7, #8]
 800402e:	685a      	ldr	r2, [r3, #4]
 8004030:	68bb      	ldr	r3, [r7, #8]
 8004032:	68db      	ldr	r3, [r3, #12]
 8004034:	f000 fda6 	bl	8004b84 <TIM_TI4_SetConfig>
                      sConfig->ICPolarity,
                      sConfig->ICSelection,
                      sConfig->ICFilter);

    /* Reset the IC4PSC Bits */
    htim->Instance->CCMR2 &= ~TIM_CCMR2_IC4PSC;
 8004038:	68fb      	ldr	r3, [r7, #12]
 800403a:	681b      	ldr	r3, [r3, #0]
 800403c:	69da      	ldr	r2, [r3, #28]
 800403e:	68fb      	ldr	r3, [r7, #12]
 8004040:	681b      	ldr	r3, [r3, #0]
 8004042:	f422 6240 	bic.w	r2, r2, #3072	; 0xc00
 8004046:	61da      	str	r2, [r3, #28]

    /* Set the IC4PSC value */
    htim->Instance->CCMR2 |= (sConfig->ICPrescaler << 8U);
 8004048:	68fb      	ldr	r3, [r7, #12]
 800404a:	681b      	ldr	r3, [r3, #0]
 800404c:	69d9      	ldr	r1, [r3, #28]
 800404e:	68bb      	ldr	r3, [r7, #8]
 8004050:	689b      	ldr	r3, [r3, #8]
 8004052:	021a      	lsls	r2, r3, #8
 8004054:	68fb      	ldr	r3, [r7, #12]
 8004056:	681b      	ldr	r3, [r3, #0]
 8004058:	430a      	orrs	r2, r1
 800405a:	61da      	str	r2, [r3, #28]
 800405c:	e001      	b.n	8004062 <HAL_TIM_IC_ConfigChannel+0x126>
  }
  else
  {
    status = HAL_ERROR;
 800405e:	2301      	movs	r3, #1
 8004060:	75fb      	strb	r3, [r7, #23]
  }

  __HAL_UNLOCK(htim);
 8004062:	68fb      	ldr	r3, [r7, #12]
 8004064:	2200      	movs	r2, #0
 8004066:	f883 203c 	strb.w	r2, [r3, #60]	; 0x3c

  return status;
 800406a:	7dfb      	ldrb	r3, [r7, #23]
}
 800406c:	4618      	mov	r0, r3
 800406e:	3718      	adds	r7, #24
 8004070:	46bd      	mov	sp, r7
 8004072:	bd80      	pop	{r7, pc}

08004074 <HAL_TIM_PWM_ConfigChannel>:
  * @retval HAL status
  */
HAL_StatusTypeDef HAL_TIM_PWM_ConfigChannel(TIM_HandleTypeDef *htim,
                                            TIM_OC_InitTypeDef *sConfig,
                                            uint32_t Channel)
{
 8004074:	b580      	push	{r7, lr}
 8004076:	b086      	sub	sp, #24
 8004078:	af00      	add	r7, sp, #0
 800407a:	60f8      	str	r0, [r7, #12]
 800407c:	60b9      	str	r1, [r7, #8]
 800407e:	607a      	str	r2, [r7, #4]
  HAL_StatusTypeDef status = HAL_OK;
 8004080:	2300      	movs	r3, #0
 8004082:	75fb      	strb	r3, [r7, #23]
  assert_param(IS_TIM_PWM_MODE(sConfig->OCMode));
  assert_param(IS_TIM_OC_POLARITY(sConfig->OCPolarity));
  assert_param(IS_TIM_FAST_STATE(sConfig->OCFastMode));

  /* Process Locked */
  __HAL_LOCK(htim);
 8004084:	68fb      	ldr	r3, [r7, #12]
 8004086:	f893 303c 	ldrb.w	r3, [r3, #60]	; 0x3c
 800408a:	2b01      	cmp	r3, #1
 800408c:	d101      	bne.n	8004092 <HAL_TIM_PWM_ConfigChannel+0x1e>
 800408e:	2302      	movs	r3, #2
 8004090:	e0ae      	b.n	80041f0 <HAL_TIM_PWM_ConfigChannel+0x17c>
 8004092:	68fb      	ldr	r3, [r7, #12]
 8004094:	2201      	movs	r2, #1
 8004096:	f883 203c 	strb.w	r2, [r3, #60]	; 0x3c
 800409a:	687b      	ldr	r3, [r7, #4]
 800409c:	2b0c      	cmp	r3, #12
 800409e:	f200 809f 	bhi.w	80041e0 <HAL_TIM_PWM_ConfigChannel+0x16c>
 80040a2:	a201      	add	r2, pc, #4	; (adr r2, 80040a8 <HAL_TIM_PWM_ConfigChannel+0x34>)
 80040a4:	f852 f023 	ldr.w	pc, [r2, r3, lsl #2]
 80040a8:	080040dd 	.word	0x080040dd
 80040ac:	080041e1 	.word	0x080041e1
 80040b0:	080041e1 	.word	0x080041e1
 80040b4:	080041e1 	.word	0x080041e1
 80040b8:	0800411d 	.word	0x0800411d
 80040bc:	080041e1 	.word	0x080041e1
 80040c0:	080041e1 	.word	0x080041e1
 80040c4:	080041e1 	.word	0x080041e1
 80040c8:	0800415f 	.word	0x0800415f
 80040cc:	080041e1 	.word	0x080041e1
 80040d0:	080041e1 	.word	0x080041e1
 80040d4:	080041e1 	.word	0x080041e1
 80040d8:	0800419f 	.word	0x0800419f
    {
      /* Check the parameters */
      assert_param(IS_TIM_CC1_INSTANCE(htim->Instance));

      /* Configure the Channel 1 in PWM mode */
      TIM_OC1_SetConfig(htim->Instance, sConfig);
 80040dc:	68fb      	ldr	r3, [r7, #12]
 80040de:	681b      	ldr	r3, [r3, #0]
 80040e0:	68b9      	ldr	r1, [r7, #8]
 80040e2:	4618      	mov	r0, r3
 80040e4:	f000 fa52 	bl	800458c <TIM_OC1_SetConfig>

      /* Set the Preload enable bit for channel1 */
      htim->Instance->CCMR1 |= TIM_CCMR1_OC1PE;
 80040e8:	68fb      	ldr	r3, [r7, #12]
 80040ea:	681b      	ldr	r3, [r3, #0]
 80040ec:	699a      	ldr	r2, [r3, #24]
 80040ee:	68fb      	ldr	r3, [r7, #12]
 80040f0:	681b      	ldr	r3, [r3, #0]
 80040f2:	f042 0208 	orr.w	r2, r2, #8
 80040f6:	619a      	str	r2, [r3, #24]

      /* Configure the Output Fast mode */
      htim->Instance->CCMR1 &= ~TIM_CCMR1_OC1FE;
 80040f8:	68fb      	ldr	r3, [r7, #12]
 80040fa:	681b      	ldr	r3, [r3, #0]
 80040fc:	699a      	ldr	r2, [r3, #24]
 80040fe:	68fb      	ldr	r3, [r7, #12]
 8004100:	681b      	ldr	r3, [r3, #0]
 8004102:	f022 0204 	bic.w	r2, r2, #4
 8004106:	619a      	str	r2, [r3, #24]
      htim->Instance->CCMR1 |= sConfig->OCFastMode;
 8004108:	68fb      	ldr	r3, [r7, #12]
 800410a:	681b      	ldr	r3, [r3, #0]
 800410c:	6999      	ldr	r1, [r3, #24]
 800410e:	68bb      	ldr	r3, [r7, #8]
 8004110:	691a      	ldr	r2, [r3, #16]
 8004112:	68fb      	ldr	r3, [r7, #12]
 8004114:	681b      	ldr	r3, [r3, #0]
 8004116:	430a      	orrs	r2, r1
 8004118:	619a      	str	r2, [r3, #24]
      break;
 800411a:	e064      	b.n	80041e6 <HAL_TIM_PWM_ConfigChannel+0x172>
    {
      /* Check the parameters */
      assert_param(IS_TIM_CC2_INSTANCE(htim->Instance));

      /* Configure the Channel 2 in PWM mode */
      TIM_OC2_SetConfig(htim->Instance, sConfig);
 800411c:	68fb      	ldr	r3, [r7, #12]
 800411e:	681b      	ldr	r3, [r3, #0]
 8004120:	68b9      	ldr	r1, [r7, #8]
 8004122:	4618      	mov	r0, r3
 8004124:	f000 faa2 	bl	800466c <TIM_OC2_SetConfig>

      /* Set the Preload enable bit for channel2 */
      htim->Instance->CCMR1 |= TIM_CCMR1_OC2PE;
 8004128:	68fb      	ldr	r3, [r7, #12]
 800412a:	681b      	ldr	r3, [r3, #0]
 800412c:	699a      	ldr	r2, [r3, #24]
 800412e:	68fb      	ldr	r3, [r7, #12]
 8004130:	681b      	ldr	r3, [r3, #0]
 8004132:	f442 6200 	orr.w	r2, r2, #2048	; 0x800
 8004136:	619a      	str	r2, [r3, #24]

      /* Configure the Output Fast mode */
      htim->Instance->CCMR1 &= ~TIM_CCMR1_OC2FE;
 8004138:	68fb      	ldr	r3, [r7, #12]
 800413a:	681b      	ldr	r3, [r3, #0]
 800413c:	699a      	ldr	r2, [r3, #24]
 800413e:	68fb      	ldr	r3, [r7, #12]
 8004140:	681b      	ldr	r3, [r3, #0]
 8004142:	f422 6280 	bic.w	r2, r2, #1024	; 0x400
 8004146:	619a      	str	r2, [r3, #24]
      htim->Instance->CCMR1 |= sConfig->OCFastMode << 8U;
 8004148:	68fb      	ldr	r3, [r7, #12]
 800414a:	681b      	ldr	r3, [r3, #0]
 800414c:	6999      	ldr	r1, [r3, #24]
 800414e:	68bb      	ldr	r3, [r7, #8]
 8004150:	691b      	ldr	r3, [r3, #16]
 8004152:	021a      	lsls	r2, r3, #8
 8004154:	68fb      	ldr	r3, [r7, #12]
 8004156:	681b      	ldr	r3, [r3, #0]
 8004158:	430a      	orrs	r2, r1
 800415a:	619a      	str	r2, [r3, #24]
      break;
 800415c:	e043      	b.n	80041e6 <HAL_TIM_PWM_ConfigChannel+0x172>
    {
      /* Check the parameters */
      assert_param(IS_TIM_CC3_INSTANCE(htim->Instance));

      /* Configure the Channel 3 in PWM mode */
      TIM_OC3_SetConfig(htim->Instance, sConfig);
 800415e:	68fb      	ldr	r3, [r7, #12]
 8004160:	681b      	ldr	r3, [r3, #0]
 8004162:	68b9      	ldr	r1, [r7, #8]
 8004164:	4618      	mov	r0, r3
 8004166:	f000 faf7 	bl	8004758 <TIM_OC3_SetConfig>

      /* Set the Preload enable bit for channel3 */
      htim->Instance->CCMR2 |= TIM_CCMR2_OC3PE;
 800416a:	68fb      	ldr	r3, [r7, #12]
 800416c:	681b      	ldr	r3, [r3, #0]
 800416e:	69da      	ldr	r2, [r3, #28]
 8004170:	68fb      	ldr	r3, [r7, #12]
 8004172:	681b      	ldr	r3, [r3, #0]
 8004174:	f042 0208 	orr.w	r2, r2, #8
 8004178:	61da      	str	r2, [r3, #28]

      /* Configure the Output Fast mode */
      htim->Instance->CCMR2 &= ~TIM_CCMR2_OC3FE;
 800417a:	68fb      	ldr	r3, [r7, #12]
 800417c:	681b      	ldr	r3, [r3, #0]
 800417e:	69da      	ldr	r2, [r3, #28]
 8004180:	68fb      	ldr	r3, [r7, #12]
 8004182:	681b      	ldr	r3, [r3, #0]
 8004184:	f022 0204 	bic.w	r2, r2, #4
 8004188:	61da      	str	r2, [r3, #28]
      htim->Instance->CCMR2 |= sConfig->OCFastMode;
 800418a:	68fb      	ldr	r3, [r7, #12]
 800418c:	681b      	ldr	r3, [r3, #0]
 800418e:	69d9      	ldr	r1, [r3, #28]
 8004190:	68bb      	ldr	r3, [r7, #8]
 8004192:	691a      	ldr	r2, [r3, #16]
 8004194:	68fb      	ldr	r3, [r7, #12]
 8004196:	681b      	ldr	r3, [r3, #0]
 8004198:	430a      	orrs	r2, r1
 800419a:	61da      	str	r2, [r3, #28]
      break;
 800419c:	e023      	b.n	80041e6 <HAL_TIM_PWM_ConfigChannel+0x172>
    {
      /* Check the parameters */
      assert_param(IS_TIM_CC4_INSTANCE(htim->Instance));

      /* Configure the Channel 4 in PWM mode */
      TIM_OC4_SetConfig(htim->Instance, sConfig);
 800419e:	68fb      	ldr	r3, [r7, #12]
 80041a0:	681b      	ldr	r3, [r3, #0]
 80041a2:	68b9      	ldr	r1, [r7, #8]
 80041a4:	4618      	mov	r0, r3
 80041a6:	f000 fb4b 	bl	8004840 <TIM_OC4_SetConfig>

      /* Set the Preload enable bit for channel4 */
      htim->Instance->CCMR2 |= TIM_CCMR2_OC4PE;
 80041aa:	68fb      	ldr	r3, [r7, #12]
 80041ac:	681b      	ldr	r3, [r3, #0]
 80041ae:	69da      	ldr	r2, [r3, #28]
 80041b0:	68fb      	ldr	r3, [r7, #12]
 80041b2:	681b      	ldr	r3, [r3, #0]
 80041b4:	f442 6200 	orr.w	r2, r2, #2048	; 0x800
 80041b8:	61da      	str	r2, [r3, #28]

      /* Configure the Output Fast mode */
      htim->Instance->CCMR2 &= ~TIM_CCMR2_OC4FE;
 80041ba:	68fb      	ldr	r3, [r7, #12]
 80041bc:	681b      	ldr	r3, [r3, #0]
 80041be:	69da      	ldr	r2, [r3, #28]
 80041c0:	68fb      	ldr	r3, [r7, #12]
 80041c2:	681b      	ldr	r3, [r3, #0]
 80041c4:	f422 6280 	bic.w	r2, r2, #1024	; 0x400
 80041c8:	61da      	str	r2, [r3, #28]
      htim->Instance->CCMR2 |= sConfig->OCFastMode << 8U;
 80041ca:	68fb      	ldr	r3, [r7, #12]
 80041cc:	681b      	ldr	r3, [r3, #0]
 80041ce:	69d9      	ldr	r1, [r3, #28]
 80041d0:	68bb      	ldr	r3, [r7, #8]
 80041d2:	691b      	ldr	r3, [r3, #16]
 80041d4:	021a      	lsls	r2, r3, #8
 80041d6:	68fb      	ldr	r3, [r7, #12]
 80041d8:	681b      	ldr	r3, [r3, #0]
 80041da:	430a      	orrs	r2, r1
 80041dc:	61da      	str	r2, [r3, #28]
      break;
 80041de:	e002      	b.n	80041e6 <HAL_TIM_PWM_ConfigChannel+0x172>
    }

    default:
      status = HAL_ERROR;
 80041e0:	2301      	movs	r3, #1
 80041e2:	75fb      	strb	r3, [r7, #23]
      break;
 80041e4:	bf00      	nop
  }

  __HAL_UNLOCK(htim);
 80041e6:	68fb      	ldr	r3, [r7, #12]
 80041e8:	2200      	movs	r2, #0
 80041ea:	f883 203c 	strb.w	r2, [r3, #60]	; 0x3c

  return status;
 80041ee:	7dfb      	ldrb	r3, [r7, #23]
}
 80041f0:	4618      	mov	r0, r3
 80041f2:	3718      	adds	r7, #24
 80041f4:	46bd      	mov	sp, r7
 80041f6:	bd80      	pop	{r7, pc}

080041f8 <HAL_TIM_ConfigClockSource>:
  * @param  sClockSourceConfig pointer to a TIM_ClockConfigTypeDef structure that
  *         contains the clock source information for the TIM peripheral.
  * @retval HAL status
  */
HAL_StatusTypeDef HAL_TIM_ConfigClockSource(TIM_HandleTypeDef *htim, TIM_ClockConfigTypeDef *sClockSourceConfig)
{
 80041f8:	b580      	push	{r7, lr}
 80041fa:	b084      	sub	sp, #16
 80041fc:	af00      	add	r7, sp, #0
 80041fe:	6078      	str	r0, [r7, #4]
 8004200:	6039      	str	r1, [r7, #0]
  HAL_StatusTypeDef status = HAL_OK;
 8004202:	2300      	movs	r3, #0
 8004204:	73fb      	strb	r3, [r7, #15]
  uint32_t tmpsmcr;

  /* Process Locked */
  __HAL_LOCK(htim);
 8004206:	687b      	ldr	r3, [r7, #4]
 8004208:	f893 303c 	ldrb.w	r3, [r3, #60]	; 0x3c
 800420c:	2b01      	cmp	r3, #1
 800420e:	d101      	bne.n	8004214 <HAL_TIM_ConfigClockSource+0x1c>
 8004210:	2302      	movs	r3, #2
 8004212:	e0b4      	b.n	800437e <HAL_TIM_ConfigClockSource+0x186>
 8004214:	687b      	ldr	r3, [r7, #4]
 8004216:	2201      	movs	r2, #1
 8004218:	f883 203c 	strb.w	r2, [r3, #60]	; 0x3c

  htim->State = HAL_TIM_STATE_BUSY;
 800421c:	687b      	ldr	r3, [r7, #4]
 800421e:	2202      	movs	r2, #2
 8004220:	f883 203d 	strb.w	r2, [r3, #61]	; 0x3d

  /* Check the parameters */
  assert_param(IS_TIM_CLOCKSOURCE(sClockSourceConfig->ClockSource));

  /* Reset the SMS, TS, ECE, ETPS and ETRF bits */
  tmpsmcr = htim->Instance->SMCR;
 8004224:	687b      	ldr	r3, [r7, #4]
 8004226:	681b      	ldr	r3, [r3, #0]
 8004228:	689b      	ldr	r3, [r3, #8]
 800422a:	60bb      	str	r3, [r7, #8]
  tmpsmcr &= ~(TIM_SMCR_SMS | TIM_SMCR_TS);
 800422c:	68bb      	ldr	r3, [r7, #8]
 800422e:	f023 0377 	bic.w	r3, r3, #119	; 0x77
 8004232:	60bb      	str	r3, [r7, #8]
  tmpsmcr &= ~(TIM_SMCR_ETF | TIM_SMCR_ETPS | TIM_SMCR_ECE | TIM_SMCR_ETP);
 8004234:	68bb      	ldr	r3, [r7, #8]
 8004236:	f423 437f 	bic.w	r3, r3, #65280	; 0xff00
 800423a:	60bb      	str	r3, [r7, #8]
  htim->Instance->SMCR = tmpsmcr;
 800423c:	687b      	ldr	r3, [r7, #4]
 800423e:	681b      	ldr	r3, [r3, #0]
 8004240:	68ba      	ldr	r2, [r7, #8]
 8004242:	609a      	str	r2, [r3, #8]

  switch (sClockSourceConfig->ClockSource)
 8004244:	683b      	ldr	r3, [r7, #0]
 8004246:	681b      	ldr	r3, [r3, #0]
 8004248:	f5b3 5f00 	cmp.w	r3, #8192	; 0x2000
 800424c:	d03e      	beq.n	80042cc <HAL_TIM_ConfigClockSource+0xd4>
 800424e:	f5b3 5f00 	cmp.w	r3, #8192	; 0x2000
 8004252:	f200 8087 	bhi.w	8004364 <HAL_TIM_ConfigClockSource+0x16c>
 8004256:	f5b3 5f80 	cmp.w	r3, #4096	; 0x1000
 800425a:	f000 8086 	beq.w	800436a <HAL_TIM_ConfigClockSource+0x172>
 800425e:	f5b3 5f80 	cmp.w	r3, #4096	; 0x1000
 8004262:	d87f      	bhi.n	8004364 <HAL_TIM_ConfigClockSource+0x16c>
 8004264:	2b70      	cmp	r3, #112	; 0x70
 8004266:	d01a      	beq.n	800429e <HAL_TIM_ConfigClockSource+0xa6>
 8004268:	2b70      	cmp	r3, #112	; 0x70
 800426a:	d87b      	bhi.n	8004364 <HAL_TIM_ConfigClockSource+0x16c>
 800426c:	2b60      	cmp	r3, #96	; 0x60
 800426e:	d050      	beq.n	8004312 <HAL_TIM_ConfigClockSource+0x11a>
 8004270:	2b60      	cmp	r3, #96	; 0x60
 8004272:	d877      	bhi.n	8004364 <HAL_TIM_ConfigClockSource+0x16c>
 8004274:	2b50      	cmp	r3, #80	; 0x50
 8004276:	d03c      	beq.n	80042f2 <HAL_TIM_ConfigClockSource+0xfa>
 8004278:	2b50      	cmp	r3, #80	; 0x50
 800427a:	d873      	bhi.n	8004364 <HAL_TIM_ConfigClockSource+0x16c>
 800427c:	2b40      	cmp	r3, #64	; 0x40
 800427e:	d058      	beq.n	8004332 <HAL_TIM_ConfigClockSource+0x13a>
 8004280:	2b40      	cmp	r3, #64	; 0x40
 8004282:	d86f      	bhi.n	8004364 <HAL_TIM_ConfigClockSource+0x16c>
 8004284:	2b30      	cmp	r3, #48	; 0x30
 8004286:	d064      	beq.n	8004352 <HAL_TIM_ConfigClockSource+0x15a>
 8004288:	2b30      	cmp	r3, #48	; 0x30
 800428a:	d86b      	bhi.n	8004364 <HAL_TIM_ConfigClockSource+0x16c>
 800428c:	2b20      	cmp	r3, #32
 800428e:	d060      	beq.n	8004352 <HAL_TIM_ConfigClockSource+0x15a>
 8004290:	2b20      	cmp	r3, #32
 8004292:	d867      	bhi.n	8004364 <HAL_TIM_ConfigClockSource+0x16c>
 8004294:	2b00      	cmp	r3, #0
 8004296:	d05c      	beq.n	8004352 <HAL_TIM_ConfigClockSource+0x15a>
 8004298:	2b10      	cmp	r3, #16
 800429a:	d05a      	beq.n	8004352 <HAL_TIM_ConfigClockSource+0x15a>
 800429c:	e062      	b.n	8004364 <HAL_TIM_ConfigClockSource+0x16c>
      assert_param(IS_TIM_CLOCKPRESCALER(sClockSourceConfig->ClockPrescaler));
      assert_param(IS_TIM_CLOCKPOLARITY(sClockSourceConfig->ClockPolarity));
      assert_param(IS_TIM_CLOCKFILTER(sClockSourceConfig->ClockFilter));

      /* Configure the ETR Clock source */
      TIM_ETR_SetConfig(htim->Instance,
 800429e:	687b      	ldr	r3, [r7, #4]
 80042a0:	6818      	ldr	r0, [r3, #0]
 80042a2:	683b      	ldr	r3, [r7, #0]
 80042a4:	6899      	ldr	r1, [r3, #8]
 80042a6:	683b      	ldr	r3, [r7, #0]
 80042a8:	685a      	ldr	r2, [r3, #4]
 80042aa:	683b      	ldr	r3, [r7, #0]
 80042ac:	68db      	ldr	r3, [r3, #12]
 80042ae:	f000 fcc1 	bl	8004c34 <TIM_ETR_SetConfig>
                        sClockSourceConfig->ClockPrescaler,
                        sClockSourceConfig->ClockPolarity,
                        sClockSourceConfig->ClockFilter);

      /* Select the External clock mode1 and the ETRF trigger */
      tmpsmcr = htim->Instance->SMCR;
 80042b2:	687b      	ldr	r3, [r7, #4]
 80042b4:	681b      	ldr	r3, [r3, #0]
 80042b6:	689b      	ldr	r3, [r3, #8]
 80042b8:	60bb      	str	r3, [r7, #8]
      tmpsmcr |= (TIM_SLAVEMODE_EXTERNAL1 | TIM_CLOCKSOURCE_ETRMODE1);
 80042ba:	68bb      	ldr	r3, [r7, #8]
 80042bc:	f043 0377 	orr.w	r3, r3, #119	; 0x77
 80042c0:	60bb      	str	r3, [r7, #8]
      /* Write to TIMx SMCR */
      htim->Instance->SMCR = tmpsmcr;
 80042c2:	687b      	ldr	r3, [r7, #4]
 80042c4:	681b      	ldr	r3, [r3, #0]
 80042c6:	68ba      	ldr	r2, [r7, #8]
 80042c8:	609a      	str	r2, [r3, #8]
      break;
 80042ca:	e04f      	b.n	800436c <HAL_TIM_ConfigClockSource+0x174>
      assert_param(IS_TIM_CLOCKPRESCALER(sClockSourceConfig->ClockPrescaler));
      assert_param(IS_TIM_CLOCKPOLARITY(sClockSourceConfig->ClockPolarity));
      assert_param(IS_TIM_CLOCKFILTER(sClockSourceConfig->ClockFilter));

      /* Configure the ETR Clock source */
      TIM_ETR_SetConfig(htim->Instance,
 80042cc:	687b      	ldr	r3, [r7, #4]
 80042ce:	6818      	ldr	r0, [r3, #0]
 80042d0:	683b      	ldr	r3, [r7, #0]
 80042d2:	6899      	ldr	r1, [r3, #8]
 80042d4:	683b      	ldr	r3, [r7, #0]
 80042d6:	685a      	ldr	r2, [r3, #4]
 80042d8:	683b      	ldr	r3, [r7, #0]
 80042da:	68db      	ldr	r3, [r3, #12]
 80042dc:	f000 fcaa 	bl	8004c34 <TIM_ETR_SetConfig>
                        sClockSourceConfig->ClockPrescaler,
                        sClockSourceConfig->ClockPolarity,
                        sClockSourceConfig->ClockFilter);
      /* Enable the External clock mode2 */
      htim->Instance->SMCR |= TIM_SMCR_ECE;
 80042e0:	687b      	ldr	r3, [r7, #4]
 80042e2:	681b      	ldr	r3, [r3, #0]
 80042e4:	689a      	ldr	r2, [r3, #8]
 80042e6:	687b      	ldr	r3, [r7, #4]
 80042e8:	681b      	ldr	r3, [r3, #0]
 80042ea:	f442 4280 	orr.w	r2, r2, #16384	; 0x4000
 80042ee:	609a      	str	r2, [r3, #8]
      break;
 80042f0:	e03c      	b.n	800436c <HAL_TIM_ConfigClockSource+0x174>

      /* Check TI1 input conditioning related parameters */
      assert_param(IS_TIM_CLOCKPOLARITY(sClockSourceConfig->ClockPolarity));
      assert_param(IS_TIM_CLOCKFILTER(sClockSourceConfig->ClockFilter));

      TIM_TI1_ConfigInputStage(htim->Instance,
 80042f2:	687b      	ldr	r3, [r7, #4]
 80042f4:	6818      	ldr	r0, [r3, #0]
 80042f6:	683b      	ldr	r3, [r7, #0]
 80042f8:	6859      	ldr	r1, [r3, #4]
 80042fa:	683b      	ldr	r3, [r7, #0]
 80042fc:	68db      	ldr	r3, [r3, #12]
 80042fe:	461a      	mov	r2, r3
 8004300:	f000 fb68 	bl	80049d4 <TIM_TI1_ConfigInputStage>
                               sClockSourceConfig->ClockPolarity,
                               sClockSourceConfig->ClockFilter);
      TIM_ITRx_SetConfig(htim->Instance, TIM_CLOCKSOURCE_TI1);
 8004304:	687b      	ldr	r3, [r7, #4]
 8004306:	681b      	ldr	r3, [r3, #0]
 8004308:	2150      	movs	r1, #80	; 0x50
 800430a:	4618      	mov	r0, r3
 800430c:	f000 fc77 	bl	8004bfe <TIM_ITRx_SetConfig>
      break;
 8004310:	e02c      	b.n	800436c <HAL_TIM_ConfigClockSource+0x174>

      /* Check TI2 input conditioning related parameters */
      assert_param(IS_TIM_CLOCKPOLARITY(sClockSourceConfig->ClockPolarity));
      assert_param(IS_TIM_CLOCKFILTER(sClockSourceConfig->ClockFilter));

      TIM_TI2_ConfigInputStage(htim->Instance,
 8004312:	687b      	ldr	r3, [r7, #4]
 8004314:	6818      	ldr	r0, [r3, #0]
 8004316:	683b      	ldr	r3, [r7, #0]
 8004318:	6859      	ldr	r1, [r3, #4]
 800431a:	683b      	ldr	r3, [r7, #0]
 800431c:	68db      	ldr	r3, [r3, #12]
 800431e:	461a      	mov	r2, r3
 8004320:	f000 fbc4 	bl	8004aac <TIM_TI2_ConfigInputStage>
                               sClockSourceConfig->ClockPolarity,
                               sClockSourceConfig->ClockFilter);
      TIM_ITRx_SetConfig(htim->Instance, TIM_CLOCKSOURCE_TI2);
 8004324:	687b      	ldr	r3, [r7, #4]
 8004326:	681b      	ldr	r3, [r3, #0]
 8004328:	2160      	movs	r1, #96	; 0x60
 800432a:	4618      	mov	r0, r3
 800432c:	f000 fc67 	bl	8004bfe <TIM_ITRx_SetConfig>
      break;
 8004330:	e01c      	b.n	800436c <HAL_TIM_ConfigClockSource+0x174>

      /* Check TI1 input conditioning related parameters */
      assert_param(IS_TIM_CLOCKPOLARITY(sClockSourceConfig->ClockPolarity));
      assert_param(IS_TIM_CLOCKFILTER(sClockSourceConfig->ClockFilter));

      TIM_TI1_ConfigInputStage(htim->Instance,
 8004332:	687b      	ldr	r3, [r7, #4]
 8004334:	6818      	ldr	r0, [r3, #0]
 8004336:	683b      	ldr	r3, [r7, #0]
 8004338:	6859      	ldr	r1, [r3, #4]
 800433a:	683b      	ldr	r3, [r7, #0]
 800433c:	68db      	ldr	r3, [r3, #12]
 800433e:	461a      	mov	r2, r3
 8004340:	f000 fb48 	bl	80049d4 <TIM_TI1_ConfigInputStage>
                               sClockSourceConfig->ClockPolarity,
                               sClockSourceConfig->ClockFilter);
      TIM_ITRx_SetConfig(htim->Instance, TIM_CLOCKSOURCE_TI1ED);
 8004344:	687b      	ldr	r3, [r7, #4]
 8004346:	681b      	ldr	r3, [r3, #0]
 8004348:	2140      	movs	r1, #64	; 0x40
 800434a:	4618      	mov	r0, r3
 800434c:	f000 fc57 	bl	8004bfe <TIM_ITRx_SetConfig>
      break;
 8004350:	e00c      	b.n	800436c <HAL_TIM_ConfigClockSource+0x174>
    case TIM_CLOCKSOURCE_ITR3:
    {
      /* Check whether or not the timer instance supports internal trigger input */
      assert_param(IS_TIM_CLOCKSOURCE_ITRX_INSTANCE(htim->Instance));

      TIM_ITRx_SetConfig(htim->Instance, sClockSourceConfig->ClockSource);
 8004352:	687b      	ldr	r3, [r7, #4]
 8004354:	681a      	ldr	r2, [r3, #0]
 8004356:	683b      	ldr	r3, [r7, #0]
 8004358:	681b      	ldr	r3, [r3, #0]
 800435a:	4619      	mov	r1, r3
 800435c:	4610      	mov	r0, r2
 800435e:	f000 fc4e 	bl	8004bfe <TIM_ITRx_SetConfig>
      break;
 8004362:	e003      	b.n	800436c <HAL_TIM_ConfigClockSource+0x174>
    }

    default:
      status = HAL_ERROR;
 8004364:	2301      	movs	r3, #1
 8004366:	73fb      	strb	r3, [r7, #15]
      break;
 8004368:	e000      	b.n	800436c <HAL_TIM_ConfigClockSource+0x174>
      break;
 800436a:	bf00      	nop
  }
  htim->State = HAL_TIM_STATE_READY;
 800436c:	687b      	ldr	r3, [r7, #4]
 800436e:	2201      	movs	r2, #1
 8004370:	f883 203d 	strb.w	r2, [r3, #61]	; 0x3d

  __HAL_UNLOCK(htim);
 8004374:	687b      	ldr	r3, [r7, #4]
 8004376:	2200      	movs	r2, #0
 8004378:	f883 203c 	strb.w	r2, [r3, #60]	; 0x3c

  return status;
 800437c:	7bfb      	ldrb	r3, [r7, #15]
}
 800437e:	4618      	mov	r0, r3
 8004380:	3710      	adds	r7, #16
 8004382:	46bd      	mov	sp, r7
 8004384:	bd80      	pop	{r7, pc}
	...

08004388 <HAL_TIM_ReadCapturedValue>:
  *            @arg TIM_CHANNEL_3: TIM Channel 3 selected
  *            @arg TIM_CHANNEL_4: TIM Channel 4 selected
  * @retval Captured value
  */
uint32_t HAL_TIM_ReadCapturedValue(TIM_HandleTypeDef *htim, uint32_t Channel)
{
 8004388:	b480      	push	{r7}
 800438a:	b085      	sub	sp, #20
 800438c:	af00      	add	r7, sp, #0
 800438e:	6078      	str	r0, [r7, #4]
 8004390:	6039      	str	r1, [r7, #0]
  uint32_t tmpreg = 0U;
 8004392:	2300      	movs	r3, #0
 8004394:	60fb      	str	r3, [r7, #12]
 8004396:	683b      	ldr	r3, [r7, #0]
 8004398:	2b0c      	cmp	r3, #12
 800439a:	d831      	bhi.n	8004400 <HAL_TIM_ReadCapturedValue+0x78>
 800439c:	a201      	add	r2, pc, #4	; (adr r2, 80043a4 <HAL_TIM_ReadCapturedValue+0x1c>)
 800439e:	f852 f023 	ldr.w	pc, [r2, r3, lsl #2]
 80043a2:	bf00      	nop
 80043a4:	080043d9 	.word	0x080043d9
 80043a8:	08004401 	.word	0x08004401
 80043ac:	08004401 	.word	0x08004401
 80043b0:	08004401 	.word	0x08004401
 80043b4:	080043e3 	.word	0x080043e3
 80043b8:	08004401 	.word	0x08004401
 80043bc:	08004401 	.word	0x08004401
 80043c0:	08004401 	.word	0x08004401
 80043c4:	080043ed 	.word	0x080043ed
 80043c8:	08004401 	.word	0x08004401
 80043cc:	08004401 	.word	0x08004401
 80043d0:	08004401 	.word	0x08004401
 80043d4:	080043f7 	.word	0x080043f7
    {
      /* Check the parameters */
      assert_param(IS_TIM_CC1_INSTANCE(htim->Instance));

      /* Return the capture 1 value */
      tmpreg =  htim->Instance->CCR1;
 80043d8:	687b      	ldr	r3, [r7, #4]
 80043da:	681b      	ldr	r3, [r3, #0]
 80043dc:	6b5b      	ldr	r3, [r3, #52]	; 0x34
 80043de:	60fb      	str	r3, [r7, #12]

      break;
 80043e0:	e00f      	b.n	8004402 <HAL_TIM_ReadCapturedValue+0x7a>
    {
      /* Check the parameters */
      assert_param(IS_TIM_CC2_INSTANCE(htim->Instance));

      /* Return the capture 2 value */
      tmpreg =   htim->Instance->CCR2;
 80043e2:	687b      	ldr	r3, [r7, #4]
 80043e4:	681b      	ldr	r3, [r3, #0]
 80043e6:	6b9b      	ldr	r3, [r3, #56]	; 0x38
 80043e8:	60fb      	str	r3, [r7, #12]

      break;
 80043ea:	e00a      	b.n	8004402 <HAL_TIM_ReadCapturedValue+0x7a>
    {
      /* Check the parameters */
      assert_param(IS_TIM_CC3_INSTANCE(htim->Instance));

      /* Return the capture 3 value */
      tmpreg =   htim->Instance->CCR3;
 80043ec:	687b      	ldr	r3, [r7, #4]
 80043ee:	681b      	ldr	r3, [r3, #0]
 80043f0:	6bdb      	ldr	r3, [r3, #60]	; 0x3c
 80043f2:	60fb      	str	r3, [r7, #12]

      break;
 80043f4:	e005      	b.n	8004402 <HAL_TIM_ReadCapturedValue+0x7a>
    {
      /* Check the parameters */
      assert_param(IS_TIM_CC4_INSTANCE(htim->Instance));

      /* Return the capture 4 value */
      tmpreg =   htim->Instance->CCR4;
 80043f6:	687b      	ldr	r3, [r7, #4]
 80043f8:	681b      	ldr	r3, [r3, #0]
 80043fa:	6c1b      	ldr	r3, [r3, #64]	; 0x40
 80043fc:	60fb      	str	r3, [r7, #12]

      break;
 80043fe:	e000      	b.n	8004402 <HAL_TIM_ReadCapturedValue+0x7a>
    }

    default:
      break;
 8004400:	bf00      	nop
  }

  return tmpreg;
 8004402:	68fb      	ldr	r3, [r7, #12]
}
 8004404:	4618      	mov	r0, r3
 8004406:	3714      	adds	r7, #20
 8004408:	46bd      	mov	sp, r7
 800440a:	f85d 7b04 	ldr.w	r7, [sp], #4
 800440e:	4770      	bx	lr

08004410 <HAL_TIM_OC_DelayElapsedCallback>:
  * @brief  Output Compare callback in non-blocking mode
  * @param  htim TIM OC handle
  * @retval None
  */
__weak void HAL_TIM_OC_DelayElapsedCallback(TIM_HandleTypeDef *htim)
{
 8004410:	b480      	push	{r7}
 8004412:	b083      	sub	sp, #12
 8004414:	af00      	add	r7, sp, #0
 8004416:	6078      	str	r0, [r7, #4]
  UNUSED(htim);

  /* NOTE : This function should not be modified, when the callback is needed,
            the HAL_TIM_OC_DelayElapsedCallback could be implemented in the user file
   */
}
 8004418:	bf00      	nop
 800441a:	370c      	adds	r7, #12
 800441c:	46bd      	mov	sp, r7
 800441e:	f85d 7b04 	ldr.w	r7, [sp], #4
 8004422:	4770      	bx	lr

08004424 <HAL_TIM_PWM_PulseFinishedCallback>:
  * @brief  PWM Pulse finished callback in non-blocking mode
  * @param  htim TIM handle
  * @retval None
  */
__weak void HAL_TIM_PWM_PulseFinishedCallback(TIM_HandleTypeDef *htim)
{
 8004424:	b480      	push	{r7}
 8004426:	b083      	sub	sp, #12
 8004428:	af00      	add	r7, sp, #0
 800442a:	6078      	str	r0, [r7, #4]
  UNUSED(htim);

  /* NOTE : This function should not be modified, when the callback is needed,
            the HAL_TIM_PWM_PulseFinishedCallback could be implemented in the user file
   */
}
 800442c:	bf00      	nop
 800442e:	370c      	adds	r7, #12
 8004430:	46bd      	mov	sp, r7
 8004432:	f85d 7b04 	ldr.w	r7, [sp], #4
 8004436:	4770      	bx	lr

08004438 <HAL_TIM_TriggerCallback>:
  * @brief  Hall Trigger detection callback in non-blocking mode
  * @param  htim TIM handle
  * @retval None
  */
__weak void HAL_TIM_TriggerCallback(TIM_HandleTypeDef *htim)
{
 8004438:	b480      	push	{r7}
 800443a:	b083      	sub	sp, #12
 800443c:	af00      	add	r7, sp, #0
 800443e:	6078      	str	r0, [r7, #4]
  UNUSED(htim);

  /* NOTE : This function should not be modified, when the callback is needed,
            the HAL_TIM_TriggerCallback could be implemented in the user file
   */
}
 8004440:	bf00      	nop
 8004442:	370c      	adds	r7, #12
 8004444:	46bd      	mov	sp, r7
 8004446:	f85d 7b04 	ldr.w	r7, [sp], #4
 800444a:	4770      	bx	lr

0800444c <TIM_Base_SetConfig>:
  * @param  TIMx TIM peripheral
  * @param  Structure TIM Base configuration structure
  * @retval None
  */
void TIM_Base_SetConfig(TIM_TypeDef *TIMx, TIM_Base_InitTypeDef *Structure)
{
 800444c:	b480      	push	{r7}
 800444e:	b085      	sub	sp, #20
 8004450:	af00      	add	r7, sp, #0
 8004452:	6078      	str	r0, [r7, #4]
 8004454:	6039      	str	r1, [r7, #0]
  uint32_t tmpcr1;
  tmpcr1 = TIMx->CR1;
 8004456:	687b      	ldr	r3, [r7, #4]
 8004458:	681b      	ldr	r3, [r3, #0]
 800445a:	60fb      	str	r3, [r7, #12]

  /* Set TIM Time Base Unit parameters ---------------------------------------*/
  if (IS_TIM_COUNTER_MODE_SELECT_INSTANCE(TIMx))
 800445c:	687b      	ldr	r3, [r7, #4]
 800445e:	4a40      	ldr	r2, [pc, #256]	; (8004560 <TIM_Base_SetConfig+0x114>)
 8004460:	4293      	cmp	r3, r2
 8004462:	d013      	beq.n	800448c <TIM_Base_SetConfig+0x40>
 8004464:	687b      	ldr	r3, [r7, #4]
 8004466:	f1b3 4f80 	cmp.w	r3, #1073741824	; 0x40000000
 800446a:	d00f      	beq.n	800448c <TIM_Base_SetConfig+0x40>
 800446c:	687b      	ldr	r3, [r7, #4]
 800446e:	4a3d      	ldr	r2, [pc, #244]	; (8004564 <TIM_Base_SetConfig+0x118>)
 8004470:	4293      	cmp	r3, r2
 8004472:	d00b      	beq.n	800448c <TIM_Base_SetConfig+0x40>
 8004474:	687b      	ldr	r3, [r7, #4]
 8004476:	4a3c      	ldr	r2, [pc, #240]	; (8004568 <TIM_Base_SetConfig+0x11c>)
 8004478:	4293      	cmp	r3, r2
 800447a:	d007      	beq.n	800448c <TIM_Base_SetConfig+0x40>
 800447c:	687b      	ldr	r3, [r7, #4]
 800447e:	4a3b      	ldr	r2, [pc, #236]	; (800456c <TIM_Base_SetConfig+0x120>)
 8004480:	4293      	cmp	r3, r2
 8004482:	d003      	beq.n	800448c <TIM_Base_SetConfig+0x40>
 8004484:	687b      	ldr	r3, [r7, #4]
 8004486:	4a3a      	ldr	r2, [pc, #232]	; (8004570 <TIM_Base_SetConfig+0x124>)
 8004488:	4293      	cmp	r3, r2
 800448a:	d108      	bne.n	800449e <TIM_Base_SetConfig+0x52>
  {
    /* Select the Counter Mode */
    tmpcr1 &= ~(TIM_CR1_DIR | TIM_CR1_CMS);
 800448c:	68fb      	ldr	r3, [r7, #12]
 800448e:	f023 0370 	bic.w	r3, r3, #112	; 0x70
 8004492:	60fb      	str	r3, [r7, #12]
    tmpcr1 |= Structure->CounterMode;
 8004494:	683b      	ldr	r3, [r7, #0]
 8004496:	685b      	ldr	r3, [r3, #4]
 8004498:	68fa      	ldr	r2, [r7, #12]
 800449a:	4313      	orrs	r3, r2
 800449c:	60fb      	str	r3, [r7, #12]
  }

  if (IS_TIM_CLOCK_DIVISION_INSTANCE(TIMx))
 800449e:	687b      	ldr	r3, [r7, #4]
 80044a0:	4a2f      	ldr	r2, [pc, #188]	; (8004560 <TIM_Base_SetConfig+0x114>)
 80044a2:	4293      	cmp	r3, r2
 80044a4:	d02b      	beq.n	80044fe <TIM_Base_SetConfig+0xb2>
 80044a6:	687b      	ldr	r3, [r7, #4]
 80044a8:	f1b3 4f80 	cmp.w	r3, #1073741824	; 0x40000000
 80044ac:	d027      	beq.n	80044fe <TIM_Base_SetConfig+0xb2>
 80044ae:	687b      	ldr	r3, [r7, #4]
 80044b0:	4a2c      	ldr	r2, [pc, #176]	; (8004564 <TIM_Base_SetConfig+0x118>)
 80044b2:	4293      	cmp	r3, r2
 80044b4:	d023      	beq.n	80044fe <TIM_Base_SetConfig+0xb2>
 80044b6:	687b      	ldr	r3, [r7, #4]
 80044b8:	4a2b      	ldr	r2, [pc, #172]	; (8004568 <TIM_Base_SetConfig+0x11c>)
 80044ba:	4293      	cmp	r3, r2
 80044bc:	d01f      	beq.n	80044fe <TIM_Base_SetConfig+0xb2>
 80044be:	687b      	ldr	r3, [r7, #4]
 80044c0:	4a2a      	ldr	r2, [pc, #168]	; (800456c <TIM_Base_SetConfig+0x120>)
 80044c2:	4293      	cmp	r3, r2
 80044c4:	d01b      	beq.n	80044fe <TIM_Base_SetConfig+0xb2>
 80044c6:	687b      	ldr	r3, [r7, #4]
 80044c8:	4a29      	ldr	r2, [pc, #164]	; (8004570 <TIM_Base_SetConfig+0x124>)
 80044ca:	4293      	cmp	r3, r2
 80044cc:	d017      	beq.n	80044fe <TIM_Base_SetConfig+0xb2>
 80044ce:	687b      	ldr	r3, [r7, #4]
 80044d0:	4a28      	ldr	r2, [pc, #160]	; (8004574 <TIM_Base_SetConfig+0x128>)
 80044d2:	4293      	cmp	r3, r2
 80044d4:	d013      	beq.n	80044fe <TIM_Base_SetConfig+0xb2>
 80044d6:	687b      	ldr	r3, [r7, #4]
 80044d8:	4a27      	ldr	r2, [pc, #156]	; (8004578 <TIM_Base_SetConfig+0x12c>)
 80044da:	4293      	cmp	r3, r2
 80044dc:	d00f      	beq.n	80044fe <TIM_Base_SetConfig+0xb2>
 80044de:	687b      	ldr	r3, [r7, #4]
 80044e0:	4a26      	ldr	r2, [pc, #152]	; (800457c <TIM_Base_SetConfig+0x130>)
 80044e2:	4293      	cmp	r3, r2
 80044e4:	d00b      	beq.n	80044fe <TIM_Base_SetConfig+0xb2>
 80044e6:	687b      	ldr	r3, [r7, #4]
 80044e8:	4a25      	ldr	r2, [pc, #148]	; (8004580 <TIM_Base_SetConfig+0x134>)
 80044ea:	4293      	cmp	r3, r2
 80044ec:	d007      	beq.n	80044fe <TIM_Base_SetConfig+0xb2>
 80044ee:	687b      	ldr	r3, [r7, #4]
 80044f0:	4a24      	ldr	r2, [pc, #144]	; (8004584 <TIM_Base_SetConfig+0x138>)
 80044f2:	4293      	cmp	r3, r2
 80044f4:	d003      	beq.n	80044fe <TIM_Base_SetConfig+0xb2>
 80044f6:	687b      	ldr	r3, [r7, #4]
 80044f8:	4a23      	ldr	r2, [pc, #140]	; (8004588 <TIM_Base_SetConfig+0x13c>)
 80044fa:	4293      	cmp	r3, r2
 80044fc:	d108      	bne.n	8004510 <TIM_Base_SetConfig+0xc4>
  {
    /* Set the clock division */
    tmpcr1 &= ~TIM_CR1_CKD;
 80044fe:	68fb      	ldr	r3, [r7, #12]
 8004500:	f423 7340 	bic.w	r3, r3, #768	; 0x300
 8004504:	60fb      	str	r3, [r7, #12]
    tmpcr1 |= (uint32_t)Structure->ClockDivision;
 8004506:	683b      	ldr	r3, [r7, #0]
 8004508:	68db      	ldr	r3, [r3, #12]
 800450a:	68fa      	ldr	r2, [r7, #12]
 800450c:	4313      	orrs	r3, r2
 800450e:	60fb      	str	r3, [r7, #12]
  }

  /* Set the auto-reload preload */
  MODIFY_REG(tmpcr1, TIM_CR1_ARPE, Structure->AutoReloadPreload);
 8004510:	68fb      	ldr	r3, [r7, #12]
 8004512:	f023 0280 	bic.w	r2, r3, #128	; 0x80
 8004516:	683b      	ldr	r3, [r7, #0]
 8004518:	695b      	ldr	r3, [r3, #20]
 800451a:	4313      	orrs	r3, r2
 800451c:	60fb      	str	r3, [r7, #12]

  TIMx->CR1 = tmpcr1;
 800451e:	687b      	ldr	r3, [r7, #4]
 8004520:	68fa      	ldr	r2, [r7, #12]
 8004522:	601a      	str	r2, [r3, #0]

  /* Set the Autoreload value */
  TIMx->ARR = (uint32_t)Structure->Period ;
 8004524:	683b      	ldr	r3, [r7, #0]
 8004526:	689a      	ldr	r2, [r3, #8]
 8004528:	687b      	ldr	r3, [r7, #4]
 800452a:	62da      	str	r2, [r3, #44]	; 0x2c

  /* Set the Prescaler value */
  TIMx->PSC = Structure->Prescaler;
 800452c:	683b      	ldr	r3, [r7, #0]
 800452e:	681a      	ldr	r2, [r3, #0]
 8004530:	687b      	ldr	r3, [r7, #4]
 8004532:	629a      	str	r2, [r3, #40]	; 0x28

  if (IS_TIM_REPETITION_COUNTER_INSTANCE(TIMx))
 8004534:	687b      	ldr	r3, [r7, #4]
 8004536:	4a0a      	ldr	r2, [pc, #40]	; (8004560 <TIM_Base_SetConfig+0x114>)
 8004538:	4293      	cmp	r3, r2
 800453a:	d003      	beq.n	8004544 <TIM_Base_SetConfig+0xf8>
 800453c:	687b      	ldr	r3, [r7, #4]
 800453e:	4a0c      	ldr	r2, [pc, #48]	; (8004570 <TIM_Base_SetConfig+0x124>)
 8004540:	4293      	cmp	r3, r2
 8004542:	d103      	bne.n	800454c <TIM_Base_SetConfig+0x100>
  {
    /* Set the Repetition Counter value */
    TIMx->RCR = Structure->RepetitionCounter;
 8004544:	683b      	ldr	r3, [r7, #0]
 8004546:	691a      	ldr	r2, [r3, #16]
 8004548:	687b      	ldr	r3, [r7, #4]
 800454a:	631a      	str	r2, [r3, #48]	; 0x30
  }

  /* Generate an update event to reload the Prescaler
     and the repetition counter (only for advanced timer) value immediately */
  TIMx->EGR = TIM_EGR_UG;
 800454c:	687b      	ldr	r3, [r7, #4]
 800454e:	2201      	movs	r2, #1
 8004550:	615a      	str	r2, [r3, #20]
}
 8004552:	bf00      	nop
 8004554:	3714      	adds	r7, #20
 8004556:	46bd      	mov	sp, r7
 8004558:	f85d 7b04 	ldr.w	r7, [sp], #4
 800455c:	4770      	bx	lr
 800455e:	bf00      	nop
 8004560:	40010000 	.word	0x40010000
 8004564:	40000400 	.word	0x40000400
 8004568:	40000800 	.word	0x40000800
 800456c:	40000c00 	.word	0x40000c00
 8004570:	40010400 	.word	0x40010400
 8004574:	40014000 	.word	0x40014000
 8004578:	40014400 	.word	0x40014400
 800457c:	40014800 	.word	0x40014800
 8004580:	40001800 	.word	0x40001800
 8004584:	40001c00 	.word	0x40001c00
 8004588:	40002000 	.word	0x40002000

0800458c <TIM_OC1_SetConfig>:
  * @param  TIMx to select the TIM peripheral
  * @param  OC_Config The output configuration structure
  * @retval None
  */
static void TIM_OC1_SetConfig(TIM_TypeDef *TIMx, TIM_OC_InitTypeDef *OC_Config)
{
 800458c:	b480      	push	{r7}
 800458e:	b087      	sub	sp, #28
 8004590:	af00      	add	r7, sp, #0
 8004592:	6078      	str	r0, [r7, #4]
 8004594:	6039      	str	r1, [r7, #0]
  uint32_t tmpccmrx;
  uint32_t tmpccer;
  uint32_t tmpcr2;

  /* Disable the Channel 1: Reset the CC1E Bit */
  TIMx->CCER &= ~TIM_CCER_CC1E;
 8004596:	687b      	ldr	r3, [r7, #4]
 8004598:	6a1b      	ldr	r3, [r3, #32]
 800459a:	f023 0201 	bic.w	r2, r3, #1
 800459e:	687b      	ldr	r3, [r7, #4]
 80045a0:	621a      	str	r2, [r3, #32]

  /* Get the TIMx CCER register value */
  tmpccer = TIMx->CCER;
 80045a2:	687b      	ldr	r3, [r7, #4]
 80045a4:	6a1b      	ldr	r3, [r3, #32]
 80045a6:	617b      	str	r3, [r7, #20]
  /* Get the TIMx CR2 register value */
  tmpcr2 =  TIMx->CR2;
 80045a8:	687b      	ldr	r3, [r7, #4]
 80045aa:	685b      	ldr	r3, [r3, #4]
 80045ac:	613b      	str	r3, [r7, #16]

  /* Get the TIMx CCMR1 register value */
  tmpccmrx = TIMx->CCMR1;
 80045ae:	687b      	ldr	r3, [r7, #4]
 80045b0:	699b      	ldr	r3, [r3, #24]
 80045b2:	60fb      	str	r3, [r7, #12]

  /* Reset the Output Compare Mode Bits */
  tmpccmrx &= ~TIM_CCMR1_OC1M;
 80045b4:	68fb      	ldr	r3, [r7, #12]
 80045b6:	f023 0370 	bic.w	r3, r3, #112	; 0x70
 80045ba:	60fb      	str	r3, [r7, #12]
  tmpccmrx &= ~TIM_CCMR1_CC1S;
 80045bc:	68fb      	ldr	r3, [r7, #12]
 80045be:	f023 0303 	bic.w	r3, r3, #3
 80045c2:	60fb      	str	r3, [r7, #12]
  /* Select the Output Compare Mode */
  tmpccmrx |= OC_Config->OCMode;
 80045c4:	683b      	ldr	r3, [r7, #0]
 80045c6:	681b      	ldr	r3, [r3, #0]
 80045c8:	68fa      	ldr	r2, [r7, #12]
 80045ca:	4313      	orrs	r3, r2
 80045cc:	60fb      	str	r3, [r7, #12]

  /* Reset the Output Polarity level */
  tmpccer &= ~TIM_CCER_CC1P;
 80045ce:	697b      	ldr	r3, [r7, #20]
 80045d0:	f023 0302 	bic.w	r3, r3, #2
 80045d4:	617b      	str	r3, [r7, #20]
  /* Set the Output Compare Polarity */
  tmpccer |= OC_Config->OCPolarity;
 80045d6:	683b      	ldr	r3, [r7, #0]
 80045d8:	689b      	ldr	r3, [r3, #8]
 80045da:	697a      	ldr	r2, [r7, #20]
 80045dc:	4313      	orrs	r3, r2
 80045de:	617b      	str	r3, [r7, #20]

  if (IS_TIM_CCXN_INSTANCE(TIMx, TIM_CHANNEL_1))
 80045e0:	687b      	ldr	r3, [r7, #4]
 80045e2:	4a20      	ldr	r2, [pc, #128]	; (8004664 <TIM_OC1_SetConfig+0xd8>)
 80045e4:	4293      	cmp	r3, r2
 80045e6:	d003      	beq.n	80045f0 <TIM_OC1_SetConfig+0x64>
 80045e8:	687b      	ldr	r3, [r7, #4]
 80045ea:	4a1f      	ldr	r2, [pc, #124]	; (8004668 <TIM_OC1_SetConfig+0xdc>)
 80045ec:	4293      	cmp	r3, r2
 80045ee:	d10c      	bne.n	800460a <TIM_OC1_SetConfig+0x7e>
  {
    /* Check parameters */
    assert_param(IS_TIM_OCN_POLARITY(OC_Config->OCNPolarity));

    /* Reset the Output N Polarity level */
    tmpccer &= ~TIM_CCER_CC1NP;
 80045f0:	697b      	ldr	r3, [r7, #20]
 80045f2:	f023 0308 	bic.w	r3, r3, #8
 80045f6:	617b      	str	r3, [r7, #20]
    /* Set the Output N Polarity */
    tmpccer |= OC_Config->OCNPolarity;
 80045f8:	683b      	ldr	r3, [r7, #0]
 80045fa:	68db      	ldr	r3, [r3, #12]
 80045fc:	697a      	ldr	r2, [r7, #20]
 80045fe:	4313      	orrs	r3, r2
 8004600:	617b      	str	r3, [r7, #20]
    /* Reset the Output N State */
    tmpccer &= ~TIM_CCER_CC1NE;
 8004602:	697b      	ldr	r3, [r7, #20]
 8004604:	f023 0304 	bic.w	r3, r3, #4
 8004608:	617b      	str	r3, [r7, #20]
  }

  if (IS_TIM_BREAK_INSTANCE(TIMx))
 800460a:	687b      	ldr	r3, [r7, #4]
 800460c:	4a15      	ldr	r2, [pc, #84]	; (8004664 <TIM_OC1_SetConfig+0xd8>)
 800460e:	4293      	cmp	r3, r2
 8004610:	d003      	beq.n	800461a <TIM_OC1_SetConfig+0x8e>
 8004612:	687b      	ldr	r3, [r7, #4]
 8004614:	4a14      	ldr	r2, [pc, #80]	; (8004668 <TIM_OC1_SetConfig+0xdc>)
 8004616:	4293      	cmp	r3, r2
 8004618:	d111      	bne.n	800463e <TIM_OC1_SetConfig+0xb2>
    /* Check parameters */
    assert_param(IS_TIM_OCNIDLE_STATE(OC_Config->OCNIdleState));
    assert_param(IS_TIM_OCIDLE_STATE(OC_Config->OCIdleState));

    /* Reset the Output Compare and Output Compare N IDLE State */
    tmpcr2 &= ~TIM_CR2_OIS1;
 800461a:	693b      	ldr	r3, [r7, #16]
 800461c:	f423 7380 	bic.w	r3, r3, #256	; 0x100
 8004620:	613b      	str	r3, [r7, #16]
    tmpcr2 &= ~TIM_CR2_OIS1N;
 8004622:	693b      	ldr	r3, [r7, #16]
 8004624:	f423 7300 	bic.w	r3, r3, #512	; 0x200
 8004628:	613b      	str	r3, [r7, #16]
    /* Set the Output Idle state */
    tmpcr2 |= OC_Config->OCIdleState;
 800462a:	683b      	ldr	r3, [r7, #0]
 800462c:	695b      	ldr	r3, [r3, #20]
 800462e:	693a      	ldr	r2, [r7, #16]
 8004630:	4313      	orrs	r3, r2
 8004632:	613b      	str	r3, [r7, #16]
    /* Set the Output N Idle state */
    tmpcr2 |= OC_Config->OCNIdleState;
 8004634:	683b      	ldr	r3, [r7, #0]
 8004636:	699b      	ldr	r3, [r3, #24]
 8004638:	693a      	ldr	r2, [r7, #16]
 800463a:	4313      	orrs	r3, r2
 800463c:	613b      	str	r3, [r7, #16]
  }

  /* Write to TIMx CR2 */
  TIMx->CR2 = tmpcr2;
 800463e:	687b      	ldr	r3, [r7, #4]
 8004640:	693a      	ldr	r2, [r7, #16]
 8004642:	605a      	str	r2, [r3, #4]

  /* Write to TIMx CCMR1 */
  TIMx->CCMR1 = tmpccmrx;
 8004644:	687b      	ldr	r3, [r7, #4]
 8004646:	68fa      	ldr	r2, [r7, #12]
 8004648:	619a      	str	r2, [r3, #24]

  /* Set the Capture Compare Register value */
  TIMx->CCR1 = OC_Config->Pulse;
 800464a:	683b      	ldr	r3, [r7, #0]
 800464c:	685a      	ldr	r2, [r3, #4]
 800464e:	687b      	ldr	r3, [r7, #4]
 8004650:	635a      	str	r2, [r3, #52]	; 0x34

  /* Write to TIMx CCER */
  TIMx->CCER = tmpccer;
 8004652:	687b      	ldr	r3, [r7, #4]
 8004654:	697a      	ldr	r2, [r7, #20]
 8004656:	621a      	str	r2, [r3, #32]
}
 8004658:	bf00      	nop
 800465a:	371c      	adds	r7, #28
 800465c:	46bd      	mov	sp, r7
 800465e:	f85d 7b04 	ldr.w	r7, [sp], #4
 8004662:	4770      	bx	lr
 8004664:	40010000 	.word	0x40010000
 8004668:	40010400 	.word	0x40010400

0800466c <TIM_OC2_SetConfig>:
  * @param  TIMx to select the TIM peripheral
  * @param  OC_Config The output configuration structure
  * @retval None
  */
void TIM_OC2_SetConfig(TIM_TypeDef *TIMx, TIM_OC_InitTypeDef *OC_Config)
{
 800466c:	b480      	push	{r7}
 800466e:	b087      	sub	sp, #28
 8004670:	af00      	add	r7, sp, #0
 8004672:	6078      	str	r0, [r7, #4]
 8004674:	6039      	str	r1, [r7, #0]
  uint32_t tmpccmrx;
  uint32_t tmpccer;
  uint32_t tmpcr2;

  /* Disable the Channel 2: Reset the CC2E Bit */
  TIMx->CCER &= ~TIM_CCER_CC2E;
 8004676:	687b      	ldr	r3, [r7, #4]
 8004678:	6a1b      	ldr	r3, [r3, #32]
 800467a:	f023 0210 	bic.w	r2, r3, #16
 800467e:	687b      	ldr	r3, [r7, #4]
 8004680:	621a      	str	r2, [r3, #32]

  /* Get the TIMx CCER register value */
  tmpccer = TIMx->CCER;
 8004682:	687b      	ldr	r3, [r7, #4]
 8004684:	6a1b      	ldr	r3, [r3, #32]
 8004686:	617b      	str	r3, [r7, #20]
  /* Get the TIMx CR2 register value */
  tmpcr2 =  TIMx->CR2;
 8004688:	687b      	ldr	r3, [r7, #4]
 800468a:	685b      	ldr	r3, [r3, #4]
 800468c:	613b      	str	r3, [r7, #16]

  /* Get the TIMx CCMR1 register value */
  tmpccmrx = TIMx->CCMR1;
 800468e:	687b      	ldr	r3, [r7, #4]
 8004690:	699b      	ldr	r3, [r3, #24]
 8004692:	60fb      	str	r3, [r7, #12]

  /* Reset the Output Compare mode and Capture/Compare selection Bits */
  tmpccmrx &= ~TIM_CCMR1_OC2M;
 8004694:	68fb      	ldr	r3, [r7, #12]
 8004696:	f423 43e0 	bic.w	r3, r3, #28672	; 0x7000
 800469a:	60fb      	str	r3, [r7, #12]
  tmpccmrx &= ~TIM_CCMR1_CC2S;
 800469c:	68fb      	ldr	r3, [r7, #12]
 800469e:	f423 7340 	bic.w	r3, r3, #768	; 0x300
 80046a2:	60fb      	str	r3, [r7, #12]

  /* Select the Output Compare Mode */
  tmpccmrx |= (OC_Config->OCMode << 8U);
 80046a4:	683b      	ldr	r3, [r7, #0]
 80046a6:	681b      	ldr	r3, [r3, #0]
 80046a8:	021b      	lsls	r3, r3, #8
 80046aa:	68fa      	ldr	r2, [r7, #12]
 80046ac:	4313      	orrs	r3, r2
 80046ae:	60fb      	str	r3, [r7, #12]

  /* Reset the Output Polarity level */
  tmpccer &= ~TIM_CCER_CC2P;
 80046b0:	697b      	ldr	r3, [r7, #20]
 80046b2:	f023 0320 	bic.w	r3, r3, #32
 80046b6:	617b      	str	r3, [r7, #20]
  /* Set the Output Compare Polarity */
  tmpccer |= (OC_Config->OCPolarity << 4U);
 80046b8:	683b      	ldr	r3, [r7, #0]
 80046ba:	689b      	ldr	r3, [r3, #8]
 80046bc:	011b      	lsls	r3, r3, #4
 80046be:	697a      	ldr	r2, [r7, #20]
 80046c0:	4313      	orrs	r3, r2
 80046c2:	617b      	str	r3, [r7, #20]

  if (IS_TIM_CCXN_INSTANCE(TIMx, TIM_CHANNEL_2))
 80046c4:	687b      	ldr	r3, [r7, #4]
 80046c6:	4a22      	ldr	r2, [pc, #136]	; (8004750 <TIM_OC2_SetConfig+0xe4>)
 80046c8:	4293      	cmp	r3, r2
 80046ca:	d003      	beq.n	80046d4 <TIM_OC2_SetConfig+0x68>
 80046cc:	687b      	ldr	r3, [r7, #4]
 80046ce:	4a21      	ldr	r2, [pc, #132]	; (8004754 <TIM_OC2_SetConfig+0xe8>)
 80046d0:	4293      	cmp	r3, r2
 80046d2:	d10d      	bne.n	80046f0 <TIM_OC2_SetConfig+0x84>
  {
    assert_param(IS_TIM_OCN_POLARITY(OC_Config->OCNPolarity));

    /* Reset the Output N Polarity level */
    tmpccer &= ~TIM_CCER_CC2NP;
 80046d4:	697b      	ldr	r3, [r7, #20]
 80046d6:	f023 0380 	bic.w	r3, r3, #128	; 0x80
 80046da:	617b      	str	r3, [r7, #20]
    /* Set the Output N Polarity */
    tmpccer |= (OC_Config->OCNPolarity << 4U);
 80046dc:	683b      	ldr	r3, [r7, #0]
 80046de:	68db      	ldr	r3, [r3, #12]
 80046e0:	011b      	lsls	r3, r3, #4
 80046e2:	697a      	ldr	r2, [r7, #20]
 80046e4:	4313      	orrs	r3, r2
 80046e6:	617b      	str	r3, [r7, #20]
    /* Reset the Output N State */
    tmpccer &= ~TIM_CCER_CC2NE;
 80046e8:	697b      	ldr	r3, [r7, #20]
 80046ea:	f023 0340 	bic.w	r3, r3, #64	; 0x40
 80046ee:	617b      	str	r3, [r7, #20]

  }

  if (IS_TIM_BREAK_INSTANCE(TIMx))
 80046f0:	687b      	ldr	r3, [r7, #4]
 80046f2:	4a17      	ldr	r2, [pc, #92]	; (8004750 <TIM_OC2_SetConfig+0xe4>)
 80046f4:	4293      	cmp	r3, r2
 80046f6:	d003      	beq.n	8004700 <TIM_OC2_SetConfig+0x94>
 80046f8:	687b      	ldr	r3, [r7, #4]
 80046fa:	4a16      	ldr	r2, [pc, #88]	; (8004754 <TIM_OC2_SetConfig+0xe8>)
 80046fc:	4293      	cmp	r3, r2
 80046fe:	d113      	bne.n	8004728 <TIM_OC2_SetConfig+0xbc>
    /* Check parameters */
    assert_param(IS_TIM_OCNIDLE_STATE(OC_Config->OCNIdleState));
    assert_param(IS_TIM_OCIDLE_STATE(OC_Config->OCIdleState));

    /* Reset the Output Compare and Output Compare N IDLE State */
    tmpcr2 &= ~TIM_CR2_OIS2;
 8004700:	693b      	ldr	r3, [r7, #16]
 8004702:	f423 6380 	bic.w	r3, r3, #1024	; 0x400
 8004706:	613b      	str	r3, [r7, #16]
    tmpcr2 &= ~TIM_CR2_OIS2N;
 8004708:	693b      	ldr	r3, [r7, #16]
 800470a:	f423 6300 	bic.w	r3, r3, #2048	; 0x800
 800470e:	613b      	str	r3, [r7, #16]
    /* Set the Output Idle state */
    tmpcr2 |= (OC_Config->OCIdleState << 2U);
 8004710:	683b      	ldr	r3, [r7, #0]
 8004712:	695b      	ldr	r3, [r3, #20]
 8004714:	009b      	lsls	r3, r3, #2
 8004716:	693a      	ldr	r2, [r7, #16]
 8004718:	4313      	orrs	r3, r2
 800471a:	613b      	str	r3, [r7, #16]
    /* Set the Output N Idle state */
    tmpcr2 |= (OC_Config->OCNIdleState << 2U);
 800471c:	683b      	ldr	r3, [r7, #0]
 800471e:	699b      	ldr	r3, [r3, #24]
 8004720:	009b      	lsls	r3, r3, #2
 8004722:	693a      	ldr	r2, [r7, #16]
 8004724:	4313      	orrs	r3, r2
 8004726:	613b      	str	r3, [r7, #16]
  }

  /* Write to TIMx CR2 */
  TIMx->CR2 = tmpcr2;
 8004728:	687b      	ldr	r3, [r7, #4]
 800472a:	693a      	ldr	r2, [r7, #16]
 800472c:	605a      	str	r2, [r3, #4]

  /* Write to TIMx CCMR1 */
  TIMx->CCMR1 = tmpccmrx;
 800472e:	687b      	ldr	r3, [r7, #4]
 8004730:	68fa      	ldr	r2, [r7, #12]
 8004732:	619a      	str	r2, [r3, #24]

  /* Set the Capture Compare Register value */
  TIMx->CCR2 = OC_Config->Pulse;
 8004734:	683b      	ldr	r3, [r7, #0]
 8004736:	685a      	ldr	r2, [r3, #4]
 8004738:	687b      	ldr	r3, [r7, #4]
 800473a:	639a      	str	r2, [r3, #56]	; 0x38

  /* Write to TIMx CCER */
  TIMx->CCER = tmpccer;
 800473c:	687b      	ldr	r3, [r7, #4]
 800473e:	697a      	ldr	r2, [r7, #20]
 8004740:	621a      	str	r2, [r3, #32]
}
 8004742:	bf00      	nop
 8004744:	371c      	adds	r7, #28
 8004746:	46bd      	mov	sp, r7
 8004748:	f85d 7b04 	ldr.w	r7, [sp], #4
 800474c:	4770      	bx	lr
 800474e:	bf00      	nop
 8004750:	40010000 	.word	0x40010000
 8004754:	40010400 	.word	0x40010400

08004758 <TIM_OC3_SetConfig>:
  * @param  TIMx to select the TIM peripheral
  * @param  OC_Config The output configuration structure
  * @retval None
  */
static void TIM_OC3_SetConfig(TIM_TypeDef *TIMx, TIM_OC_InitTypeDef *OC_Config)
{
 8004758:	b480      	push	{r7}
 800475a:	b087      	sub	sp, #28
 800475c:	af00      	add	r7, sp, #0
 800475e:	6078      	str	r0, [r7, #4]
 8004760:	6039      	str	r1, [r7, #0]
  uint32_t tmpccmrx;
  uint32_t tmpccer;
  uint32_t tmpcr2;

  /* Disable the Channel 3: Reset the CC2E Bit */
  TIMx->CCER &= ~TIM_CCER_CC3E;
 8004762:	687b      	ldr	r3, [r7, #4]
 8004764:	6a1b      	ldr	r3, [r3, #32]
 8004766:	f423 7280 	bic.w	r2, r3, #256	; 0x100
 800476a:	687b      	ldr	r3, [r7, #4]
 800476c:	621a      	str	r2, [r3, #32]

  /* Get the TIMx CCER register value */
  tmpccer = TIMx->CCER;
 800476e:	687b      	ldr	r3, [r7, #4]
 8004770:	6a1b      	ldr	r3, [r3, #32]
 8004772:	617b      	str	r3, [r7, #20]
  /* Get the TIMx CR2 register value */
  tmpcr2 =  TIMx->CR2;
 8004774:	687b      	ldr	r3, [r7, #4]
 8004776:	685b      	ldr	r3, [r3, #4]
 8004778:	613b      	str	r3, [r7, #16]

  /* Get the TIMx CCMR2 register value */
  tmpccmrx = TIMx->CCMR2;
 800477a:	687b      	ldr	r3, [r7, #4]
 800477c:	69db      	ldr	r3, [r3, #28]
 800477e:	60fb      	str	r3, [r7, #12]

  /* Reset the Output Compare mode and Capture/Compare selection Bits */
  tmpccmrx &= ~TIM_CCMR2_OC3M;
 8004780:	68fb      	ldr	r3, [r7, #12]
 8004782:	f023 0370 	bic.w	r3, r3, #112	; 0x70
 8004786:	60fb      	str	r3, [r7, #12]
  tmpccmrx &= ~TIM_CCMR2_CC3S;
 8004788:	68fb      	ldr	r3, [r7, #12]
 800478a:	f023 0303 	bic.w	r3, r3, #3
 800478e:	60fb      	str	r3, [r7, #12]
  /* Select the Output Compare Mode */
  tmpccmrx |= OC_Config->OCMode;
 8004790:	683b      	ldr	r3, [r7, #0]
 8004792:	681b      	ldr	r3, [r3, #0]
 8004794:	68fa      	ldr	r2, [r7, #12]
 8004796:	4313      	orrs	r3, r2
 8004798:	60fb      	str	r3, [r7, #12]

  /* Reset the Output Polarity level */
  tmpccer &= ~TIM_CCER_CC3P;
 800479a:	697b      	ldr	r3, [r7, #20]
 800479c:	f423 7300 	bic.w	r3, r3, #512	; 0x200
 80047a0:	617b      	str	r3, [r7, #20]
  /* Set the Output Compare Polarity */
  tmpccer |= (OC_Config->OCPolarity << 8U);
 80047a2:	683b      	ldr	r3, [r7, #0]
 80047a4:	689b      	ldr	r3, [r3, #8]
 80047a6:	021b      	lsls	r3, r3, #8
 80047a8:	697a      	ldr	r2, [r7, #20]
 80047aa:	4313      	orrs	r3, r2
 80047ac:	617b      	str	r3, [r7, #20]

  if (IS_TIM_CCXN_INSTANCE(TIMx, TIM_CHANNEL_3))
 80047ae:	687b      	ldr	r3, [r7, #4]
 80047b0:	4a21      	ldr	r2, [pc, #132]	; (8004838 <TIM_OC3_SetConfig+0xe0>)
 80047b2:	4293      	cmp	r3, r2
 80047b4:	d003      	beq.n	80047be <TIM_OC3_SetConfig+0x66>
 80047b6:	687b      	ldr	r3, [r7, #4]
 80047b8:	4a20      	ldr	r2, [pc, #128]	; (800483c <TIM_OC3_SetConfig+0xe4>)
 80047ba:	4293      	cmp	r3, r2
 80047bc:	d10d      	bne.n	80047da <TIM_OC3_SetConfig+0x82>
  {
    assert_param(IS_TIM_OCN_POLARITY(OC_Config->OCNPolarity));

    /* Reset the Output N Polarity level */
    tmpccer &= ~TIM_CCER_CC3NP;
 80047be:	697b      	ldr	r3, [r7, #20]
 80047c0:	f423 6300 	bic.w	r3, r3, #2048	; 0x800
 80047c4:	617b      	str	r3, [r7, #20]
    /* Set the Output N Polarity */
    tmpccer |= (OC_Config->OCNPolarity << 8U);
 80047c6:	683b      	ldr	r3, [r7, #0]
 80047c8:	68db      	ldr	r3, [r3, #12]
 80047ca:	021b      	lsls	r3, r3, #8
 80047cc:	697a      	ldr	r2, [r7, #20]
 80047ce:	4313      	orrs	r3, r2
 80047d0:	617b      	str	r3, [r7, #20]
    /* Reset the Output N State */
    tmpccer &= ~TIM_CCER_CC3NE;
 80047d2:	697b      	ldr	r3, [r7, #20]
 80047d4:	f423 6380 	bic.w	r3, r3, #1024	; 0x400
 80047d8:	617b      	str	r3, [r7, #20]
  }

  if (IS_TIM_BREAK_INSTANCE(TIMx))
 80047da:	687b      	ldr	r3, [r7, #4]
 80047dc:	4a16      	ldr	r2, [pc, #88]	; (8004838 <TIM_OC3_SetConfig+0xe0>)
 80047de:	4293      	cmp	r3, r2
 80047e0:	d003      	beq.n	80047ea <TIM_OC3_SetConfig+0x92>
 80047e2:	687b      	ldr	r3, [r7, #4]
 80047e4:	4a15      	ldr	r2, [pc, #84]	; (800483c <TIM_OC3_SetConfig+0xe4>)
 80047e6:	4293      	cmp	r3, r2
 80047e8:	d113      	bne.n	8004812 <TIM_OC3_SetConfig+0xba>
    /* Check parameters */
    assert_param(IS_TIM_OCNIDLE_STATE(OC_Config->OCNIdleState));
    assert_param(IS_TIM_OCIDLE_STATE(OC_Config->OCIdleState));

    /* Reset the Output Compare and Output Compare N IDLE State */
    tmpcr2 &= ~TIM_CR2_OIS3;
 80047ea:	693b      	ldr	r3, [r7, #16]
 80047ec:	f423 5380 	bic.w	r3, r3, #4096	; 0x1000
 80047f0:	613b      	str	r3, [r7, #16]
    tmpcr2 &= ~TIM_CR2_OIS3N;
 80047f2:	693b      	ldr	r3, [r7, #16]
 80047f4:	f423 5300 	bic.w	r3, r3, #8192	; 0x2000
 80047f8:	613b      	str	r3, [r7, #16]
    /* Set the Output Idle state */
    tmpcr2 |= (OC_Config->OCIdleState << 4U);
 80047fa:	683b      	ldr	r3, [r7, #0]
 80047fc:	695b      	ldr	r3, [r3, #20]
 80047fe:	011b      	lsls	r3, r3, #4
 8004800:	693a      	ldr	r2, [r7, #16]
 8004802:	4313      	orrs	r3, r2
 8004804:	613b      	str	r3, [r7, #16]
    /* Set the Output N Idle state */
    tmpcr2 |= (OC_Config->OCNIdleState << 4U);
 8004806:	683b      	ldr	r3, [r7, #0]
 8004808:	699b      	ldr	r3, [r3, #24]
 800480a:	011b      	lsls	r3, r3, #4
 800480c:	693a      	ldr	r2, [r7, #16]
 800480e:	4313      	orrs	r3, r2
 8004810:	613b      	str	r3, [r7, #16]
  }

  /* Write to TIMx CR2 */
  TIMx->CR2 = tmpcr2;
 8004812:	687b      	ldr	r3, [r7, #4]
 8004814:	693a      	ldr	r2, [r7, #16]
 8004816:	605a      	str	r2, [r3, #4]

  /* Write to TIMx CCMR2 */
  TIMx->CCMR2 = tmpccmrx;
 8004818:	687b      	ldr	r3, [r7, #4]
 800481a:	68fa      	ldr	r2, [r7, #12]
 800481c:	61da      	str	r2, [r3, #28]

  /* Set the Capture Compare Register value */
  TIMx->CCR3 = OC_Config->Pulse;
 800481e:	683b      	ldr	r3, [r7, #0]
 8004820:	685a      	ldr	r2, [r3, #4]
 8004822:	687b      	ldr	r3, [r7, #4]
 8004824:	63da      	str	r2, [r3, #60]	; 0x3c

  /* Write to TIMx CCER */
  TIMx->CCER = tmpccer;
 8004826:	687b      	ldr	r3, [r7, #4]
 8004828:	697a      	ldr	r2, [r7, #20]
 800482a:	621a      	str	r2, [r3, #32]
}
 800482c:	bf00      	nop
 800482e:	371c      	adds	r7, #28
 8004830:	46bd      	mov	sp, r7
 8004832:	f85d 7b04 	ldr.w	r7, [sp], #4
 8004836:	4770      	bx	lr
 8004838:	40010000 	.word	0x40010000
 800483c:	40010400 	.word	0x40010400

08004840 <TIM_OC4_SetConfig>:
  * @param  TIMx to select the TIM peripheral
  * @param  OC_Config The output configuration structure
  * @retval None
  */
static void TIM_OC4_SetConfig(TIM_TypeDef *TIMx, TIM_OC_InitTypeDef *OC_Config)
{
 8004840:	b480      	push	{r7}
 8004842:	b087      	sub	sp, #28
 8004844:	af00      	add	r7, sp, #0
 8004846:	6078      	str	r0, [r7, #4]
 8004848:	6039      	str	r1, [r7, #0]
  uint32_t tmpccmrx;
  uint32_t tmpccer;
  uint32_t tmpcr2;

  /* Disable the Channel 4: Reset the CC4E Bit */
  TIMx->CCER &= ~TIM_CCER_CC4E;
 800484a:	687b      	ldr	r3, [r7, #4]
 800484c:	6a1b      	ldr	r3, [r3, #32]
 800484e:	f423 5280 	bic.w	r2, r3, #4096	; 0x1000
 8004852:	687b      	ldr	r3, [r7, #4]
 8004854:	621a      	str	r2, [r3, #32]

  /* Get the TIMx CCER register value */
  tmpccer = TIMx->CCER;
 8004856:	687b      	ldr	r3, [r7, #4]
 8004858:	6a1b      	ldr	r3, [r3, #32]
 800485a:	613b      	str	r3, [r7, #16]
  /* Get the TIMx CR2 register value */
  tmpcr2 =  TIMx->CR2;
 800485c:	687b      	ldr	r3, [r7, #4]
 800485e:	685b      	ldr	r3, [r3, #4]
 8004860:	617b      	str	r3, [r7, #20]

  /* Get the TIMx CCMR2 register value */
  tmpccmrx = TIMx->CCMR2;
 8004862:	687b      	ldr	r3, [r7, #4]
 8004864:	69db      	ldr	r3, [r3, #28]
 8004866:	60fb      	str	r3, [r7, #12]

  /* Reset the Output Compare mode and Capture/Compare selection Bits */
  tmpccmrx &= ~TIM_CCMR2_OC4M;
 8004868:	68fb      	ldr	r3, [r7, #12]
 800486a:	f423 43e0 	bic.w	r3, r3, #28672	; 0x7000
 800486e:	60fb      	str	r3, [r7, #12]
  tmpccmrx &= ~TIM_CCMR2_CC4S;
 8004870:	68fb      	ldr	r3, [r7, #12]
 8004872:	f423 7340 	bic.w	r3, r3, #768	; 0x300
 8004876:	60fb      	str	r3, [r7, #12]

  /* Select the Output Compare Mode */
  tmpccmrx |= (OC_Config->OCMode << 8U);
 8004878:	683b      	ldr	r3, [r7, #0]
 800487a:	681b      	ldr	r3, [r3, #0]
 800487c:	021b      	lsls	r3, r3, #8
 800487e:	68fa      	ldr	r2, [r7, #12]
 8004880:	4313      	orrs	r3, r2
 8004882:	60fb      	str	r3, [r7, #12]

  /* Reset the Output Polarity level */
  tmpccer &= ~TIM_CCER_CC4P;
 8004884:	693b      	ldr	r3, [r7, #16]
 8004886:	f423 5300 	bic.w	r3, r3, #8192	; 0x2000
 800488a:	613b      	str	r3, [r7, #16]
  /* Set the Output Compare Polarity */
  tmpccer |= (OC_Config->OCPolarity << 12U);
 800488c:	683b      	ldr	r3, [r7, #0]
 800488e:	689b      	ldr	r3, [r3, #8]
 8004890:	031b      	lsls	r3, r3, #12
 8004892:	693a      	ldr	r2, [r7, #16]
 8004894:	4313      	orrs	r3, r2
 8004896:	613b      	str	r3, [r7, #16]

  if (IS_TIM_BREAK_INSTANCE(TIMx))
 8004898:	687b      	ldr	r3, [r7, #4]
 800489a:	4a12      	ldr	r2, [pc, #72]	; (80048e4 <TIM_OC4_SetConfig+0xa4>)
 800489c:	4293      	cmp	r3, r2
 800489e:	d003      	beq.n	80048a8 <TIM_OC4_SetConfig+0x68>
 80048a0:	687b      	ldr	r3, [r7, #4]
 80048a2:	4a11      	ldr	r2, [pc, #68]	; (80048e8 <TIM_OC4_SetConfig+0xa8>)
 80048a4:	4293      	cmp	r3, r2
 80048a6:	d109      	bne.n	80048bc <TIM_OC4_SetConfig+0x7c>
  {
    /* Check parameters */
    assert_param(IS_TIM_OCIDLE_STATE(OC_Config->OCIdleState));

    /* Reset the Output Compare IDLE State */
    tmpcr2 &= ~TIM_CR2_OIS4;
 80048a8:	697b      	ldr	r3, [r7, #20]
 80048aa:	f423 4380 	bic.w	r3, r3, #16384	; 0x4000
 80048ae:	617b      	str	r3, [r7, #20]

    /* Set the Output Idle state */
    tmpcr2 |= (OC_Config->OCIdleState << 6U);
 80048b0:	683b      	ldr	r3, [r7, #0]
 80048b2:	695b      	ldr	r3, [r3, #20]
 80048b4:	019b      	lsls	r3, r3, #6
 80048b6:	697a      	ldr	r2, [r7, #20]
 80048b8:	4313      	orrs	r3, r2
 80048ba:	617b      	str	r3, [r7, #20]
  }

  /* Write to TIMx CR2 */
  TIMx->CR2 = tmpcr2;
 80048bc:	687b      	ldr	r3, [r7, #4]
 80048be:	697a      	ldr	r2, [r7, #20]
 80048c0:	605a      	str	r2, [r3, #4]

  /* Write to TIMx CCMR2 */
  TIMx->CCMR2 = tmpccmrx;
 80048c2:	687b      	ldr	r3, [r7, #4]
 80048c4:	68fa      	ldr	r2, [r7, #12]
 80048c6:	61da      	str	r2, [r3, #28]

  /* Set the Capture Compare Register value */
  TIMx->CCR4 = OC_Config->Pulse;
 80048c8:	683b      	ldr	r3, [r7, #0]
 80048ca:	685a      	ldr	r2, [r3, #4]
 80048cc:	687b      	ldr	r3, [r7, #4]
 80048ce:	641a      	str	r2, [r3, #64]	; 0x40

  /* Write to TIMx CCER */
  TIMx->CCER = tmpccer;
 80048d0:	687b      	ldr	r3, [r7, #4]
 80048d2:	693a      	ldr	r2, [r7, #16]
 80048d4:	621a      	str	r2, [r3, #32]
}
 80048d6:	bf00      	nop
 80048d8:	371c      	adds	r7, #28
 80048da:	46bd      	mov	sp, r7
 80048dc:	f85d 7b04 	ldr.w	r7, [sp], #4
 80048e0:	4770      	bx	lr
 80048e2:	bf00      	nop
 80048e4:	40010000 	.word	0x40010000
 80048e8:	40010400 	.word	0x40010400

080048ec <TIM_TI1_SetConfig>:
  *       (on channel2 path) is used as the input signal. Therefore CCMR1 must be
  *        protected against un-initialized filter and polarity values.
  */
void TIM_TI1_SetConfig(TIM_TypeDef *TIMx, uint32_t TIM_ICPolarity, uint32_t TIM_ICSelection,
                       uint32_t TIM_ICFilter)
{
 80048ec:	b480      	push	{r7}
 80048ee:	b087      	sub	sp, #28
 80048f0:	af00      	add	r7, sp, #0
 80048f2:	60f8      	str	r0, [r7, #12]
 80048f4:	60b9      	str	r1, [r7, #8]
 80048f6:	607a      	str	r2, [r7, #4]
 80048f8:	603b      	str	r3, [r7, #0]
  uint32_t tmpccmr1;
  uint32_t tmpccer;

  /* Disable the Channel 1: Reset the CC1E Bit */
  TIMx->CCER &= ~TIM_CCER_CC1E;
 80048fa:	68fb      	ldr	r3, [r7, #12]
 80048fc:	6a1b      	ldr	r3, [r3, #32]
 80048fe:	f023 0201 	bic.w	r2, r3, #1
 8004902:	68fb      	ldr	r3, [r7, #12]
 8004904:	621a      	str	r2, [r3, #32]
  tmpccmr1 = TIMx->CCMR1;
 8004906:	68fb      	ldr	r3, [r7, #12]
 8004908:	699b      	ldr	r3, [r3, #24]
 800490a:	617b      	str	r3, [r7, #20]
  tmpccer = TIMx->CCER;
 800490c:	68fb      	ldr	r3, [r7, #12]
 800490e:	6a1b      	ldr	r3, [r3, #32]
 8004910:	613b      	str	r3, [r7, #16]

  /* Select the Input */
  if (IS_TIM_CC2_INSTANCE(TIMx) != RESET)
 8004912:	68fb      	ldr	r3, [r7, #12]
 8004914:	4a28      	ldr	r2, [pc, #160]	; (80049b8 <TIM_TI1_SetConfig+0xcc>)
 8004916:	4293      	cmp	r3, r2
 8004918:	d01b      	beq.n	8004952 <TIM_TI1_SetConfig+0x66>
 800491a:	68fb      	ldr	r3, [r7, #12]
 800491c:	f1b3 4f80 	cmp.w	r3, #1073741824	; 0x40000000
 8004920:	d017      	beq.n	8004952 <TIM_TI1_SetConfig+0x66>
 8004922:	68fb      	ldr	r3, [r7, #12]
 8004924:	4a25      	ldr	r2, [pc, #148]	; (80049bc <TIM_TI1_SetConfig+0xd0>)
 8004926:	4293      	cmp	r3, r2
 8004928:	d013      	beq.n	8004952 <TIM_TI1_SetConfig+0x66>
 800492a:	68fb      	ldr	r3, [r7, #12]
 800492c:	4a24      	ldr	r2, [pc, #144]	; (80049c0 <TIM_TI1_SetConfig+0xd4>)
 800492e:	4293      	cmp	r3, r2
 8004930:	d00f      	beq.n	8004952 <TIM_TI1_SetConfig+0x66>
 8004932:	68fb      	ldr	r3, [r7, #12]
 8004934:	4a23      	ldr	r2, [pc, #140]	; (80049c4 <TIM_TI1_SetConfig+0xd8>)
 8004936:	4293      	cmp	r3, r2
 8004938:	d00b      	beq.n	8004952 <TIM_TI1_SetConfig+0x66>
 800493a:	68fb      	ldr	r3, [r7, #12]
 800493c:	4a22      	ldr	r2, [pc, #136]	; (80049c8 <TIM_TI1_SetConfig+0xdc>)
 800493e:	4293      	cmp	r3, r2
 8004940:	d007      	beq.n	8004952 <TIM_TI1_SetConfig+0x66>
 8004942:	68fb      	ldr	r3, [r7, #12]
 8004944:	4a21      	ldr	r2, [pc, #132]	; (80049cc <TIM_TI1_SetConfig+0xe0>)
 8004946:	4293      	cmp	r3, r2
 8004948:	d003      	beq.n	8004952 <TIM_TI1_SetConfig+0x66>
 800494a:	68fb      	ldr	r3, [r7, #12]
 800494c:	4a20      	ldr	r2, [pc, #128]	; (80049d0 <TIM_TI1_SetConfig+0xe4>)
 800494e:	4293      	cmp	r3, r2
 8004950:	d101      	bne.n	8004956 <TIM_TI1_SetConfig+0x6a>
 8004952:	2301      	movs	r3, #1
 8004954:	e000      	b.n	8004958 <TIM_TI1_SetConfig+0x6c>
 8004956:	2300      	movs	r3, #0
 8004958:	2b00      	cmp	r3, #0
 800495a:	d008      	beq.n	800496e <TIM_TI1_SetConfig+0x82>
  {
    tmpccmr1 &= ~TIM_CCMR1_CC1S;
 800495c:	697b      	ldr	r3, [r7, #20]
 800495e:	f023 0303 	bic.w	r3, r3, #3
 8004962:	617b      	str	r3, [r7, #20]
    tmpccmr1 |= TIM_ICSelection;
 8004964:	697a      	ldr	r2, [r7, #20]
 8004966:	687b      	ldr	r3, [r7, #4]
 8004968:	4313      	orrs	r3, r2
 800496a:	617b      	str	r3, [r7, #20]
 800496c:	e003      	b.n	8004976 <TIM_TI1_SetConfig+0x8a>
  }
  else
  {
    tmpccmr1 |= TIM_CCMR1_CC1S_0;
 800496e:	697b      	ldr	r3, [r7, #20]
 8004970:	f043 0301 	orr.w	r3, r3, #1
 8004974:	617b      	str	r3, [r7, #20]
  }

  /* Set the filter */
  tmpccmr1 &= ~TIM_CCMR1_IC1F;
 8004976:	697b      	ldr	r3, [r7, #20]
 8004978:	f023 03f0 	bic.w	r3, r3, #240	; 0xf0
 800497c:	617b      	str	r3, [r7, #20]
  tmpccmr1 |= ((TIM_ICFilter << 4U) & TIM_CCMR1_IC1F);
 800497e:	683b      	ldr	r3, [r7, #0]
 8004980:	011b      	lsls	r3, r3, #4
 8004982:	b2db      	uxtb	r3, r3
 8004984:	697a      	ldr	r2, [r7, #20]
 8004986:	4313      	orrs	r3, r2
 8004988:	617b      	str	r3, [r7, #20]

  /* Select the Polarity and set the CC1E Bit */
  tmpccer &= ~(TIM_CCER_CC1P | TIM_CCER_CC1NP);
 800498a:	693b      	ldr	r3, [r7, #16]
 800498c:	f023 030a 	bic.w	r3, r3, #10
 8004990:	613b      	str	r3, [r7, #16]
  tmpccer |= (TIM_ICPolarity & (TIM_CCER_CC1P | TIM_CCER_CC1NP));
 8004992:	68bb      	ldr	r3, [r7, #8]
 8004994:	f003 030a 	and.w	r3, r3, #10
 8004998:	693a      	ldr	r2, [r7, #16]
 800499a:	4313      	orrs	r3, r2
 800499c:	613b      	str	r3, [r7, #16]

  /* Write to TIMx CCMR1 and CCER registers */
  TIMx->CCMR1 = tmpccmr1;
 800499e:	68fb      	ldr	r3, [r7, #12]
 80049a0:	697a      	ldr	r2, [r7, #20]
 80049a2:	619a      	str	r2, [r3, #24]
  TIMx->CCER = tmpccer;
 80049a4:	68fb      	ldr	r3, [r7, #12]
 80049a6:	693a      	ldr	r2, [r7, #16]
 80049a8:	621a      	str	r2, [r3, #32]
}
 80049aa:	bf00      	nop
 80049ac:	371c      	adds	r7, #28
 80049ae:	46bd      	mov	sp, r7
 80049b0:	f85d 7b04 	ldr.w	r7, [sp], #4
 80049b4:	4770      	bx	lr
 80049b6:	bf00      	nop
 80049b8:	40010000 	.word	0x40010000
 80049bc:	40000400 	.word	0x40000400
 80049c0:	40000800 	.word	0x40000800
 80049c4:	40000c00 	.word	0x40000c00
 80049c8:	40010400 	.word	0x40010400
 80049cc:	40014000 	.word	0x40014000
 80049d0:	40001800 	.word	0x40001800

080049d4 <TIM_TI1_ConfigInputStage>:
  * @param  TIM_ICFilter Specifies the Input Capture Filter.
  *          This parameter must be a value between 0x00 and 0x0F.
  * @retval None
  */
static void TIM_TI1_ConfigInputStage(TIM_TypeDef *TIMx, uint32_t TIM_ICPolarity, uint32_t TIM_ICFilter)
{
 80049d4:	b480      	push	{r7}
 80049d6:	b087      	sub	sp, #28
 80049d8:	af00      	add	r7, sp, #0
 80049da:	60f8      	str	r0, [r7, #12]
 80049dc:	60b9      	str	r1, [r7, #8]
 80049de:	607a      	str	r2, [r7, #4]
  uint32_t tmpccmr1;
  uint32_t tmpccer;

  /* Disable the Channel 1: Reset the CC1E Bit */
  tmpccer = TIMx->CCER;
 80049e0:	68fb      	ldr	r3, [r7, #12]
 80049e2:	6a1b      	ldr	r3, [r3, #32]
 80049e4:	617b      	str	r3, [r7, #20]
  TIMx->CCER &= ~TIM_CCER_CC1E;
 80049e6:	68fb      	ldr	r3, [r7, #12]
 80049e8:	6a1b      	ldr	r3, [r3, #32]
 80049ea:	f023 0201 	bic.w	r2, r3, #1
 80049ee:	68fb      	ldr	r3, [r7, #12]
 80049f0:	621a      	str	r2, [r3, #32]
  tmpccmr1 = TIMx->CCMR1;
 80049f2:	68fb      	ldr	r3, [r7, #12]
 80049f4:	699b      	ldr	r3, [r3, #24]
 80049f6:	613b      	str	r3, [r7, #16]

  /* Set the filter */
  tmpccmr1 &= ~TIM_CCMR1_IC1F;
 80049f8:	693b      	ldr	r3, [r7, #16]
 80049fa:	f023 03f0 	bic.w	r3, r3, #240	; 0xf0
 80049fe:	613b      	str	r3, [r7, #16]
  tmpccmr1 |= (TIM_ICFilter << 4U);
 8004a00:	687b      	ldr	r3, [r7, #4]
 8004a02:	011b      	lsls	r3, r3, #4
 8004a04:	693a      	ldr	r2, [r7, #16]
 8004a06:	4313      	orrs	r3, r2
 8004a08:	613b      	str	r3, [r7, #16]

  /* Select the Polarity and set the CC1E Bit */
  tmpccer &= ~(TIM_CCER_CC1P | TIM_CCER_CC1NP);
 8004a0a:	697b      	ldr	r3, [r7, #20]
 8004a0c:	f023 030a 	bic.w	r3, r3, #10
 8004a10:	617b      	str	r3, [r7, #20]
  tmpccer |= TIM_ICPolarity;
 8004a12:	697a      	ldr	r2, [r7, #20]
 8004a14:	68bb      	ldr	r3, [r7, #8]
 8004a16:	4313      	orrs	r3, r2
 8004a18:	617b      	str	r3, [r7, #20]

  /* Write to TIMx CCMR1 and CCER registers */
  TIMx->CCMR1 = tmpccmr1;
 8004a1a:	68fb      	ldr	r3, [r7, #12]
 8004a1c:	693a      	ldr	r2, [r7, #16]
 8004a1e:	619a      	str	r2, [r3, #24]
  TIMx->CCER = tmpccer;
 8004a20:	68fb      	ldr	r3, [r7, #12]
 8004a22:	697a      	ldr	r2, [r7, #20]
 8004a24:	621a      	str	r2, [r3, #32]
}
 8004a26:	bf00      	nop
 8004a28:	371c      	adds	r7, #28
 8004a2a:	46bd      	mov	sp, r7
 8004a2c:	f85d 7b04 	ldr.w	r7, [sp], #4
 8004a30:	4770      	bx	lr

08004a32 <TIM_TI2_SetConfig>:
  *       (on channel1 path) is used as the input signal. Therefore CCMR1 must be
  *        protected against un-initialized filter and polarity values.
  */
static void TIM_TI2_SetConfig(TIM_TypeDef *TIMx, uint32_t TIM_ICPolarity, uint32_t TIM_ICSelection,
                              uint32_t TIM_ICFilter)
{
 8004a32:	b480      	push	{r7}
 8004a34:	b087      	sub	sp, #28
 8004a36:	af00      	add	r7, sp, #0
 8004a38:	60f8      	str	r0, [r7, #12]
 8004a3a:	60b9      	str	r1, [r7, #8]
 8004a3c:	607a      	str	r2, [r7, #4]
 8004a3e:	603b      	str	r3, [r7, #0]
  uint32_t tmpccmr1;
  uint32_t tmpccer;

  /* Disable the Channel 2: Reset the CC2E Bit */
  TIMx->CCER &= ~TIM_CCER_CC2E;
 8004a40:	68fb      	ldr	r3, [r7, #12]
 8004a42:	6a1b      	ldr	r3, [r3, #32]
 8004a44:	f023 0210 	bic.w	r2, r3, #16
 8004a48:	68fb      	ldr	r3, [r7, #12]
 8004a4a:	621a      	str	r2, [r3, #32]
  tmpccmr1 = TIMx->CCMR1;
 8004a4c:	68fb      	ldr	r3, [r7, #12]
 8004a4e:	699b      	ldr	r3, [r3, #24]
 8004a50:	617b      	str	r3, [r7, #20]
  tmpccer = TIMx->CCER;
 8004a52:	68fb      	ldr	r3, [r7, #12]
 8004a54:	6a1b      	ldr	r3, [r3, #32]
 8004a56:	613b      	str	r3, [r7, #16]

  /* Select the Input */
  tmpccmr1 &= ~TIM_CCMR1_CC2S;
 8004a58:	697b      	ldr	r3, [r7, #20]
 8004a5a:	f423 7340 	bic.w	r3, r3, #768	; 0x300
 8004a5e:	617b      	str	r3, [r7, #20]
  tmpccmr1 |= (TIM_ICSelection << 8U);
 8004a60:	687b      	ldr	r3, [r7, #4]
 8004a62:	021b      	lsls	r3, r3, #8
 8004a64:	697a      	ldr	r2, [r7, #20]
 8004a66:	4313      	orrs	r3, r2
 8004a68:	617b      	str	r3, [r7, #20]

  /* Set the filter */
  tmpccmr1 &= ~TIM_CCMR1_IC2F;
 8004a6a:	697b      	ldr	r3, [r7, #20]
 8004a6c:	f423 4370 	bic.w	r3, r3, #61440	; 0xf000
 8004a70:	617b      	str	r3, [r7, #20]
  tmpccmr1 |= ((TIM_ICFilter << 12U) & TIM_CCMR1_IC2F);
 8004a72:	683b      	ldr	r3, [r7, #0]
 8004a74:	031b      	lsls	r3, r3, #12
 8004a76:	b29b      	uxth	r3, r3
 8004a78:	697a      	ldr	r2, [r7, #20]
 8004a7a:	4313      	orrs	r3, r2
 8004a7c:	617b      	str	r3, [r7, #20]

  /* Select the Polarity and set the CC2E Bit */
  tmpccer &= ~(TIM_CCER_CC2P | TIM_CCER_CC2NP);
 8004a7e:	693b      	ldr	r3, [r7, #16]
 8004a80:	f023 03a0 	bic.w	r3, r3, #160	; 0xa0
 8004a84:	613b      	str	r3, [r7, #16]
  tmpccer |= ((TIM_ICPolarity << 4U) & (TIM_CCER_CC2P | TIM_CCER_CC2NP));
 8004a86:	68bb      	ldr	r3, [r7, #8]
 8004a88:	011b      	lsls	r3, r3, #4
 8004a8a:	f003 03a0 	and.w	r3, r3, #160	; 0xa0
 8004a8e:	693a      	ldr	r2, [r7, #16]
 8004a90:	4313      	orrs	r3, r2
 8004a92:	613b      	str	r3, [r7, #16]

  /* Write to TIMx CCMR1 and CCER registers */
  TIMx->CCMR1 = tmpccmr1 ;
 8004a94:	68fb      	ldr	r3, [r7, #12]
 8004a96:	697a      	ldr	r2, [r7, #20]
 8004a98:	619a      	str	r2, [r3, #24]
  TIMx->CCER = tmpccer;
 8004a9a:	68fb      	ldr	r3, [r7, #12]
 8004a9c:	693a      	ldr	r2, [r7, #16]
 8004a9e:	621a      	str	r2, [r3, #32]
}
 8004aa0:	bf00      	nop
 8004aa2:	371c      	adds	r7, #28
 8004aa4:	46bd      	mov	sp, r7
 8004aa6:	f85d 7b04 	ldr.w	r7, [sp], #4
 8004aaa:	4770      	bx	lr

08004aac <TIM_TI2_ConfigInputStage>:
  * @param  TIM_ICFilter Specifies the Input Capture Filter.
  *          This parameter must be a value between 0x00 and 0x0F.
  * @retval None
  */
static void TIM_TI2_ConfigInputStage(TIM_TypeDef *TIMx, uint32_t TIM_ICPolarity, uint32_t TIM_ICFilter)
{
 8004aac:	b480      	push	{r7}
 8004aae:	b087      	sub	sp, #28
 8004ab0:	af00      	add	r7, sp, #0
 8004ab2:	60f8      	str	r0, [r7, #12]
 8004ab4:	60b9      	str	r1, [r7, #8]
 8004ab6:	607a      	str	r2, [r7, #4]
  uint32_t tmpccmr1;
  uint32_t tmpccer;

  /* Disable the Channel 2: Reset the CC2E Bit */
  TIMx->CCER &= ~TIM_CCER_CC2E;
 8004ab8:	68fb      	ldr	r3, [r7, #12]
 8004aba:	6a1b      	ldr	r3, [r3, #32]
 8004abc:	f023 0210 	bic.w	r2, r3, #16
 8004ac0:	68fb      	ldr	r3, [r7, #12]
 8004ac2:	621a      	str	r2, [r3, #32]
  tmpccmr1 = TIMx->CCMR1;
 8004ac4:	68fb      	ldr	r3, [r7, #12]
 8004ac6:	699b      	ldr	r3, [r3, #24]
 8004ac8:	617b      	str	r3, [r7, #20]
  tmpccer = TIMx->CCER;
 8004aca:	68fb      	ldr	r3, [r7, #12]
 8004acc:	6a1b      	ldr	r3, [r3, #32]
 8004ace:	613b      	str	r3, [r7, #16]

  /* Set the filter */
  tmpccmr1 &= ~TIM_CCMR1_IC2F;
 8004ad0:	697b      	ldr	r3, [r7, #20]
 8004ad2:	f423 4370 	bic.w	r3, r3, #61440	; 0xf000
 8004ad6:	617b      	str	r3, [r7, #20]
  tmpccmr1 |= (TIM_ICFilter << 12U);
 8004ad8:	687b      	ldr	r3, [r7, #4]
 8004ada:	031b      	lsls	r3, r3, #12
 8004adc:	697a      	ldr	r2, [r7, #20]
 8004ade:	4313      	orrs	r3, r2
 8004ae0:	617b      	str	r3, [r7, #20]

  /* Select the Polarity and set the CC2E Bit */
  tmpccer &= ~(TIM_CCER_CC2P | TIM_CCER_CC2NP);
 8004ae2:	693b      	ldr	r3, [r7, #16]
 8004ae4:	f023 03a0 	bic.w	r3, r3, #160	; 0xa0
 8004ae8:	613b      	str	r3, [r7, #16]
  tmpccer |= (TIM_ICPolarity << 4U);
 8004aea:	68bb      	ldr	r3, [r7, #8]
 8004aec:	011b      	lsls	r3, r3, #4
 8004aee:	693a      	ldr	r2, [r7, #16]
 8004af0:	4313      	orrs	r3, r2
 8004af2:	613b      	str	r3, [r7, #16]

  /* Write to TIMx CCMR1 and CCER registers */
  TIMx->CCMR1 = tmpccmr1 ;
 8004af4:	68fb      	ldr	r3, [r7, #12]
 8004af6:	697a      	ldr	r2, [r7, #20]
 8004af8:	619a      	str	r2, [r3, #24]
  TIMx->CCER = tmpccer;
 8004afa:	68fb      	ldr	r3, [r7, #12]
 8004afc:	693a      	ldr	r2, [r7, #16]
 8004afe:	621a      	str	r2, [r3, #32]
}
 8004b00:	bf00      	nop
 8004b02:	371c      	adds	r7, #28
 8004b04:	46bd      	mov	sp, r7
 8004b06:	f85d 7b04 	ldr.w	r7, [sp], #4
 8004b0a:	4770      	bx	lr

08004b0c <TIM_TI3_SetConfig>:
  *       (on channel1 path) is used as the input signal. Therefore CCMR2 must be
  *        protected against un-initialized filter and polarity values.
  */
static void TIM_TI3_SetConfig(TIM_TypeDef *TIMx, uint32_t TIM_ICPolarity, uint32_t TIM_ICSelection,
                              uint32_t TIM_ICFilter)
{
 8004b0c:	b480      	push	{r7}
 8004b0e:	b087      	sub	sp, #28
 8004b10:	af00      	add	r7, sp, #0
 8004b12:	60f8      	str	r0, [r7, #12]
 8004b14:	60b9      	str	r1, [r7, #8]
 8004b16:	607a      	str	r2, [r7, #4]
 8004b18:	603b      	str	r3, [r7, #0]
  uint32_t tmpccmr2;
  uint32_t tmpccer;

  /* Disable the Channel 3: Reset the CC3E Bit */
  TIMx->CCER &= ~TIM_CCER_CC3E;
 8004b1a:	68fb      	ldr	r3, [r7, #12]
 8004b1c:	6a1b      	ldr	r3, [r3, #32]
 8004b1e:	f423 7280 	bic.w	r2, r3, #256	; 0x100
 8004b22:	68fb      	ldr	r3, [r7, #12]
 8004b24:	621a      	str	r2, [r3, #32]
  tmpccmr2 = TIMx->CCMR2;
 8004b26:	68fb      	ldr	r3, [r7, #12]
 8004b28:	69db      	ldr	r3, [r3, #28]
 8004b2a:	617b      	str	r3, [r7, #20]
  tmpccer = TIMx->CCER;
 8004b2c:	68fb      	ldr	r3, [r7, #12]
 8004b2e:	6a1b      	ldr	r3, [r3, #32]
 8004b30:	613b      	str	r3, [r7, #16]

  /* Select the Input */
  tmpccmr2 &= ~TIM_CCMR2_CC3S;
 8004b32:	697b      	ldr	r3, [r7, #20]
 8004b34:	f023 0303 	bic.w	r3, r3, #3
 8004b38:	617b      	str	r3, [r7, #20]
  tmpccmr2 |= TIM_ICSelection;
 8004b3a:	697a      	ldr	r2, [r7, #20]
 8004b3c:	687b      	ldr	r3, [r7, #4]
 8004b3e:	4313      	orrs	r3, r2
 8004b40:	617b      	str	r3, [r7, #20]

  /* Set the filter */
  tmpccmr2 &= ~TIM_CCMR2_IC3F;
 8004b42:	697b      	ldr	r3, [r7, #20]
 8004b44:	f023 03f0 	bic.w	r3, r3, #240	; 0xf0
 8004b48:	617b      	str	r3, [r7, #20]
  tmpccmr2 |= ((TIM_ICFilter << 4U) & TIM_CCMR2_IC3F);
 8004b4a:	683b      	ldr	r3, [r7, #0]
 8004b4c:	011b      	lsls	r3, r3, #4
 8004b4e:	b2db      	uxtb	r3, r3
 8004b50:	697a      	ldr	r2, [r7, #20]
 8004b52:	4313      	orrs	r3, r2
 8004b54:	617b      	str	r3, [r7, #20]

  /* Select the Polarity and set the CC3E Bit */
  tmpccer &= ~(TIM_CCER_CC3P | TIM_CCER_CC3NP);
 8004b56:	693b      	ldr	r3, [r7, #16]
 8004b58:	f423 6320 	bic.w	r3, r3, #2560	; 0xa00
 8004b5c:	613b      	str	r3, [r7, #16]
  tmpccer |= ((TIM_ICPolarity << 8U) & (TIM_CCER_CC3P | TIM_CCER_CC3NP));
 8004b5e:	68bb      	ldr	r3, [r7, #8]
 8004b60:	021b      	lsls	r3, r3, #8
 8004b62:	f403 6320 	and.w	r3, r3, #2560	; 0xa00
 8004b66:	693a      	ldr	r2, [r7, #16]
 8004b68:	4313      	orrs	r3, r2
 8004b6a:	613b      	str	r3, [r7, #16]

  /* Write to TIMx CCMR2 and CCER registers */
  TIMx->CCMR2 = tmpccmr2;
 8004b6c:	68fb      	ldr	r3, [r7, #12]
 8004b6e:	697a      	ldr	r2, [r7, #20]
 8004b70:	61da      	str	r2, [r3, #28]
  TIMx->CCER = tmpccer;
 8004b72:	68fb      	ldr	r3, [r7, #12]
 8004b74:	693a      	ldr	r2, [r7, #16]
 8004b76:	621a      	str	r2, [r3, #32]
}
 8004b78:	bf00      	nop
 8004b7a:	371c      	adds	r7, #28
 8004b7c:	46bd      	mov	sp, r7
 8004b7e:	f85d 7b04 	ldr.w	r7, [sp], #4
 8004b82:	4770      	bx	lr

08004b84 <TIM_TI4_SetConfig>:
  *        protected against un-initialized filter and polarity values.
  * @retval None
  */
static void TIM_TI4_SetConfig(TIM_TypeDef *TIMx, uint32_t TIM_ICPolarity, uint32_t TIM_ICSelection,
                              uint32_t TIM_ICFilter)
{
 8004b84:	b480      	push	{r7}
 8004b86:	b087      	sub	sp, #28
 8004b88:	af00      	add	r7, sp, #0
 8004b8a:	60f8      	str	r0, [r7, #12]
 8004b8c:	60b9      	str	r1, [r7, #8]
 8004b8e:	607a      	str	r2, [r7, #4]
 8004b90:	603b      	str	r3, [r7, #0]
  uint32_t tmpccmr2;
  uint32_t tmpccer;

  /* Disable the Channel 4: Reset the CC4E Bit */
  TIMx->CCER &= ~TIM_CCER_CC4E;
 8004b92:	68fb      	ldr	r3, [r7, #12]
 8004b94:	6a1b      	ldr	r3, [r3, #32]
 8004b96:	f423 5280 	bic.w	r2, r3, #4096	; 0x1000
 8004b9a:	68fb      	ldr	r3, [r7, #12]
 8004b9c:	621a      	str	r2, [r3, #32]
  tmpccmr2 = TIMx->CCMR2;
 8004b9e:	68fb      	ldr	r3, [r7, #12]
 8004ba0:	69db      	ldr	r3, [r3, #28]
 8004ba2:	617b      	str	r3, [r7, #20]
  tmpccer = TIMx->CCER;
 8004ba4:	68fb      	ldr	r3, [r7, #12]
 8004ba6:	6a1b      	ldr	r3, [r3, #32]
 8004ba8:	613b      	str	r3, [r7, #16]

  /* Select the Input */
  tmpccmr2 &= ~TIM_CCMR2_CC4S;
 8004baa:	697b      	ldr	r3, [r7, #20]
 8004bac:	f423 7340 	bic.w	r3, r3, #768	; 0x300
 8004bb0:	617b      	str	r3, [r7, #20]
  tmpccmr2 |= (TIM_ICSelection << 8U);
 8004bb2:	687b      	ldr	r3, [r7, #4]
 8004bb4:	021b      	lsls	r3, r3, #8
 8004bb6:	697a      	ldr	r2, [r7, #20]
 8004bb8:	4313      	orrs	r3, r2
 8004bba:	617b      	str	r3, [r7, #20]

  /* Set the filter */
  tmpccmr2 &= ~TIM_CCMR2_IC4F;
 8004bbc:	697b      	ldr	r3, [r7, #20]
 8004bbe:	f423 4370 	bic.w	r3, r3, #61440	; 0xf000
 8004bc2:	617b      	str	r3, [r7, #20]
  tmpccmr2 |= ((TIM_ICFilter << 12U) & TIM_CCMR2_IC4F);
 8004bc4:	683b      	ldr	r3, [r7, #0]
 8004bc6:	031b      	lsls	r3, r3, #12
 8004bc8:	b29b      	uxth	r3, r3
 8004bca:	697a      	ldr	r2, [r7, #20]
 8004bcc:	4313      	orrs	r3, r2
 8004bce:	617b      	str	r3, [r7, #20]

  /* Select the Polarity and set the CC4E Bit */
  tmpccer &= ~(TIM_CCER_CC4P | TIM_CCER_CC4NP);
 8004bd0:	693b      	ldr	r3, [r7, #16]
 8004bd2:	f423 4320 	bic.w	r3, r3, #40960	; 0xa000
 8004bd6:	613b      	str	r3, [r7, #16]
  tmpccer |= ((TIM_ICPolarity << 12U) & (TIM_CCER_CC4P | TIM_CCER_CC4NP));
 8004bd8:	68bb      	ldr	r3, [r7, #8]
 8004bda:	031b      	lsls	r3, r3, #12
 8004bdc:	f403 4320 	and.w	r3, r3, #40960	; 0xa000
 8004be0:	693a      	ldr	r2, [r7, #16]
 8004be2:	4313      	orrs	r3, r2
 8004be4:	613b      	str	r3, [r7, #16]

  /* Write to TIMx CCMR2 and CCER registers */
  TIMx->CCMR2 = tmpccmr2;
 8004be6:	68fb      	ldr	r3, [r7, #12]
 8004be8:	697a      	ldr	r2, [r7, #20]
 8004bea:	61da      	str	r2, [r3, #28]
  TIMx->CCER = tmpccer ;
 8004bec:	68fb      	ldr	r3, [r7, #12]
 8004bee:	693a      	ldr	r2, [r7, #16]
 8004bf0:	621a      	str	r2, [r3, #32]
}
 8004bf2:	bf00      	nop
 8004bf4:	371c      	adds	r7, #28
 8004bf6:	46bd      	mov	sp, r7
 8004bf8:	f85d 7b04 	ldr.w	r7, [sp], #4
 8004bfc:	4770      	bx	lr

08004bfe <TIM_ITRx_SetConfig>:
  *            @arg TIM_TS_TI2FP2: Filtered Timer Input 2
  *            @arg TIM_TS_ETRF: External Trigger input
  * @retval None
  */
static void TIM_ITRx_SetConfig(TIM_TypeDef *TIMx, uint32_t InputTriggerSource)
{
 8004bfe:	b480      	push	{r7}
 8004c00:	b085      	sub	sp, #20
 8004c02:	af00      	add	r7, sp, #0
 8004c04:	6078      	str	r0, [r7, #4]
 8004c06:	6039      	str	r1, [r7, #0]
  uint32_t tmpsmcr;

  /* Get the TIMx SMCR register value */
  tmpsmcr = TIMx->SMCR;
 8004c08:	687b      	ldr	r3, [r7, #4]
 8004c0a:	689b      	ldr	r3, [r3, #8]
 8004c0c:	60fb      	str	r3, [r7, #12]
  /* Reset the TS Bits */
  tmpsmcr &= ~TIM_SMCR_TS;
 8004c0e:	68fb      	ldr	r3, [r7, #12]
 8004c10:	f023 0370 	bic.w	r3, r3, #112	; 0x70
 8004c14:	60fb      	str	r3, [r7, #12]
  /* Set the Input Trigger source and the slave mode*/
  tmpsmcr |= (InputTriggerSource | TIM_SLAVEMODE_EXTERNAL1);
 8004c16:	683a      	ldr	r2, [r7, #0]
 8004c18:	68fb      	ldr	r3, [r7, #12]
 8004c1a:	4313      	orrs	r3, r2
 8004c1c:	f043 0307 	orr.w	r3, r3, #7
 8004c20:	60fb      	str	r3, [r7, #12]
  /* Write to TIMx SMCR */
  TIMx->SMCR = tmpsmcr;
 8004c22:	687b      	ldr	r3, [r7, #4]
 8004c24:	68fa      	ldr	r2, [r7, #12]
 8004c26:	609a      	str	r2, [r3, #8]
}
 8004c28:	bf00      	nop
 8004c2a:	3714      	adds	r7, #20
 8004c2c:	46bd      	mov	sp, r7
 8004c2e:	f85d 7b04 	ldr.w	r7, [sp], #4
 8004c32:	4770      	bx	lr

08004c34 <TIM_ETR_SetConfig>:
  *          This parameter must be a value between 0x00 and 0x0F
  * @retval None
  */
void TIM_ETR_SetConfig(TIM_TypeDef *TIMx, uint32_t TIM_ExtTRGPrescaler,
                       uint32_t TIM_ExtTRGPolarity, uint32_t ExtTRGFilter)
{
 8004c34:	b480      	push	{r7}
 8004c36:	b087      	sub	sp, #28
 8004c38:	af00      	add	r7, sp, #0
 8004c3a:	60f8      	str	r0, [r7, #12]
 8004c3c:	60b9      	str	r1, [r7, #8]
 8004c3e:	607a      	str	r2, [r7, #4]
 8004c40:	603b      	str	r3, [r7, #0]
  uint32_t tmpsmcr;

  tmpsmcr = TIMx->SMCR;
 8004c42:	68fb      	ldr	r3, [r7, #12]
 8004c44:	689b      	ldr	r3, [r3, #8]
 8004c46:	617b      	str	r3, [r7, #20]

  /* Reset the ETR Bits */
  tmpsmcr &= ~(TIM_SMCR_ETF | TIM_SMCR_ETPS | TIM_SMCR_ECE | TIM_SMCR_ETP);
 8004c48:	697b      	ldr	r3, [r7, #20]
 8004c4a:	f423 437f 	bic.w	r3, r3, #65280	; 0xff00
 8004c4e:	617b      	str	r3, [r7, #20]

  /* Set the Prescaler, the Filter value and the Polarity */
  tmpsmcr |= (uint32_t)(TIM_ExtTRGPrescaler | (TIM_ExtTRGPolarity | (ExtTRGFilter << 8U)));
 8004c50:	683b      	ldr	r3, [r7, #0]
 8004c52:	021a      	lsls	r2, r3, #8
 8004c54:	687b      	ldr	r3, [r7, #4]
 8004c56:	431a      	orrs	r2, r3
 8004c58:	68bb      	ldr	r3, [r7, #8]
 8004c5a:	4313      	orrs	r3, r2
 8004c5c:	697a      	ldr	r2, [r7, #20]
 8004c5e:	4313      	orrs	r3, r2
 8004c60:	617b      	str	r3, [r7, #20]

  /* Write to TIMx SMCR */
  TIMx->SMCR = tmpsmcr;
 8004c62:	68fb      	ldr	r3, [r7, #12]
 8004c64:	697a      	ldr	r2, [r7, #20]
 8004c66:	609a      	str	r2, [r3, #8]
}
 8004c68:	bf00      	nop
 8004c6a:	371c      	adds	r7, #28
 8004c6c:	46bd      	mov	sp, r7
 8004c6e:	f85d 7b04 	ldr.w	r7, [sp], #4
 8004c72:	4770      	bx	lr

08004c74 <TIM_CCxChannelCmd>:
  * @param  ChannelState specifies the TIM Channel CCxE bit new state.
  *          This parameter can be: TIM_CCx_ENABLE or TIM_CCx_DISABLE.
  * @retval None
  */
void TIM_CCxChannelCmd(TIM_TypeDef *TIMx, uint32_t Channel, uint32_t ChannelState)
{
 8004c74:	b480      	push	{r7}
 8004c76:	b087      	sub	sp, #28
 8004c78:	af00      	add	r7, sp, #0
 8004c7a:	60f8      	str	r0, [r7, #12]
 8004c7c:	60b9      	str	r1, [r7, #8]
 8004c7e:	607a      	str	r2, [r7, #4]

  /* Check the parameters */
  assert_param(IS_TIM_CC1_INSTANCE(TIMx));
  assert_param(IS_TIM_CHANNELS(Channel));

  tmp = TIM_CCER_CC1E << (Channel & 0x1FU); /* 0x1FU = 31 bits max shift */
 8004c80:	68bb      	ldr	r3, [r7, #8]
 8004c82:	f003 031f 	and.w	r3, r3, #31
 8004c86:	2201      	movs	r2, #1
 8004c88:	fa02 f303 	lsl.w	r3, r2, r3
 8004c8c:	617b      	str	r3, [r7, #20]

  /* Reset the CCxE Bit */
  TIMx->CCER &= ~tmp;
 8004c8e:	68fb      	ldr	r3, [r7, #12]
 8004c90:	6a1a      	ldr	r2, [r3, #32]
 8004c92:	697b      	ldr	r3, [r7, #20]
 8004c94:	43db      	mvns	r3, r3
 8004c96:	401a      	ands	r2, r3
 8004c98:	68fb      	ldr	r3, [r7, #12]
 8004c9a:	621a      	str	r2, [r3, #32]

  /* Set or reset the CCxE Bit */
  TIMx->CCER |= (uint32_t)(ChannelState << (Channel & 0x1FU)); /* 0x1FU = 31 bits max shift */
 8004c9c:	68fb      	ldr	r3, [r7, #12]
 8004c9e:	6a1a      	ldr	r2, [r3, #32]
 8004ca0:	68bb      	ldr	r3, [r7, #8]
 8004ca2:	f003 031f 	and.w	r3, r3, #31
 8004ca6:	6879      	ldr	r1, [r7, #4]
 8004ca8:	fa01 f303 	lsl.w	r3, r1, r3
 8004cac:	431a      	orrs	r2, r3
 8004cae:	68fb      	ldr	r3, [r7, #12]
 8004cb0:	621a      	str	r2, [r3, #32]
}
 8004cb2:	bf00      	nop
 8004cb4:	371c      	adds	r7, #28
 8004cb6:	46bd      	mov	sp, r7
 8004cb8:	f85d 7b04 	ldr.w	r7, [sp], #4
 8004cbc:	4770      	bx	lr
	...

08004cc0 <HAL_TIMEx_MasterConfigSynchronization>:
  *         mode.
  * @retval HAL status
  */
HAL_StatusTypeDef HAL_TIMEx_MasterConfigSynchronization(TIM_HandleTypeDef *htim,
                                                        TIM_MasterConfigTypeDef *sMasterConfig)
{
 8004cc0:	b480      	push	{r7}
 8004cc2:	b085      	sub	sp, #20
 8004cc4:	af00      	add	r7, sp, #0
 8004cc6:	6078      	str	r0, [r7, #4]
 8004cc8:	6039      	str	r1, [r7, #0]
  assert_param(IS_TIM_MASTER_INSTANCE(htim->Instance));
  assert_param(IS_TIM_TRGO_SOURCE(sMasterConfig->MasterOutputTrigger));
  assert_param(IS_TIM_MSM_STATE(sMasterConfig->MasterSlaveMode));

  /* Check input state */
  __HAL_LOCK(htim);
 8004cca:	687b      	ldr	r3, [r7, #4]
 8004ccc:	f893 303c 	ldrb.w	r3, [r3, #60]	; 0x3c
 8004cd0:	2b01      	cmp	r3, #1
 8004cd2:	d101      	bne.n	8004cd8 <HAL_TIMEx_MasterConfigSynchronization+0x18>
 8004cd4:	2302      	movs	r3, #2
 8004cd6:	e05a      	b.n	8004d8e <HAL_TIMEx_MasterConfigSynchronization+0xce>
 8004cd8:	687b      	ldr	r3, [r7, #4]
 8004cda:	2201      	movs	r2, #1
 8004cdc:	f883 203c 	strb.w	r2, [r3, #60]	; 0x3c

  /* Change the handler state */
  htim->State = HAL_TIM_STATE_BUSY;
 8004ce0:	687b      	ldr	r3, [r7, #4]
 8004ce2:	2202      	movs	r2, #2
 8004ce4:	f883 203d 	strb.w	r2, [r3, #61]	; 0x3d

  /* Get the TIMx CR2 register value */
  tmpcr2 = htim->Instance->CR2;
 8004ce8:	687b      	ldr	r3, [r7, #4]
 8004cea:	681b      	ldr	r3, [r3, #0]
 8004cec:	685b      	ldr	r3, [r3, #4]
 8004cee:	60fb      	str	r3, [r7, #12]

  /* Get the TIMx SMCR register value */
  tmpsmcr = htim->Instance->SMCR;
 8004cf0:	687b      	ldr	r3, [r7, #4]
 8004cf2:	681b      	ldr	r3, [r3, #0]
 8004cf4:	689b      	ldr	r3, [r3, #8]
 8004cf6:	60bb      	str	r3, [r7, #8]

  /* Reset the MMS Bits */
  tmpcr2 &= ~TIM_CR2_MMS;
 8004cf8:	68fb      	ldr	r3, [r7, #12]
 8004cfa:	f023 0370 	bic.w	r3, r3, #112	; 0x70
 8004cfe:	60fb      	str	r3, [r7, #12]
  /* Select the TRGO source */
  tmpcr2 |=  sMasterConfig->MasterOutputTrigger;
 8004d00:	683b      	ldr	r3, [r7, #0]
 8004d02:	681b      	ldr	r3, [r3, #0]
 8004d04:	68fa      	ldr	r2, [r7, #12]
 8004d06:	4313      	orrs	r3, r2
 8004d08:	60fb      	str	r3, [r7, #12]

  /* Update TIMx CR2 */
  htim->Instance->CR2 = tmpcr2;
 8004d0a:	687b      	ldr	r3, [r7, #4]
 8004d0c:	681b      	ldr	r3, [r3, #0]
 8004d0e:	68fa      	ldr	r2, [r7, #12]
 8004d10:	605a      	str	r2, [r3, #4]

  if (IS_TIM_SLAVE_INSTANCE(htim->Instance))
 8004d12:	687b      	ldr	r3, [r7, #4]
 8004d14:	681b      	ldr	r3, [r3, #0]
 8004d16:	4a21      	ldr	r2, [pc, #132]	; (8004d9c <HAL_TIMEx_MasterConfigSynchronization+0xdc>)
 8004d18:	4293      	cmp	r3, r2
 8004d1a:	d022      	beq.n	8004d62 <HAL_TIMEx_MasterConfigSynchronization+0xa2>
 8004d1c:	687b      	ldr	r3, [r7, #4]
 8004d1e:	681b      	ldr	r3, [r3, #0]
 8004d20:	f1b3 4f80 	cmp.w	r3, #1073741824	; 0x40000000
 8004d24:	d01d      	beq.n	8004d62 <HAL_TIMEx_MasterConfigSynchronization+0xa2>
 8004d26:	687b      	ldr	r3, [r7, #4]
 8004d28:	681b      	ldr	r3, [r3, #0]
 8004d2a:	4a1d      	ldr	r2, [pc, #116]	; (8004da0 <HAL_TIMEx_MasterConfigSynchronization+0xe0>)
 8004d2c:	4293      	cmp	r3, r2
 8004d2e:	d018      	beq.n	8004d62 <HAL_TIMEx_MasterConfigSynchronization+0xa2>
 8004d30:	687b      	ldr	r3, [r7, #4]
 8004d32:	681b      	ldr	r3, [r3, #0]
 8004d34:	4a1b      	ldr	r2, [pc, #108]	; (8004da4 <HAL_TIMEx_MasterConfigSynchronization+0xe4>)
 8004d36:	4293      	cmp	r3, r2
 8004d38:	d013      	beq.n	8004d62 <HAL_TIMEx_MasterConfigSynchronization+0xa2>
 8004d3a:	687b      	ldr	r3, [r7, #4]
 8004d3c:	681b      	ldr	r3, [r3, #0]
 8004d3e:	4a1a      	ldr	r2, [pc, #104]	; (8004da8 <HAL_TIMEx_MasterConfigSynchronization+0xe8>)
 8004d40:	4293      	cmp	r3, r2
 8004d42:	d00e      	beq.n	8004d62 <HAL_TIMEx_MasterConfigSynchronization+0xa2>
 8004d44:	687b      	ldr	r3, [r7, #4]
 8004d46:	681b      	ldr	r3, [r3, #0]
 8004d48:	4a18      	ldr	r2, [pc, #96]	; (8004dac <HAL_TIMEx_MasterConfigSynchronization+0xec>)
 8004d4a:	4293      	cmp	r3, r2
 8004d4c:	d009      	beq.n	8004d62 <HAL_TIMEx_MasterConfigSynchronization+0xa2>
 8004d4e:	687b      	ldr	r3, [r7, #4]
 8004d50:	681b      	ldr	r3, [r3, #0]
 8004d52:	4a17      	ldr	r2, [pc, #92]	; (8004db0 <HAL_TIMEx_MasterConfigSynchronization+0xf0>)
 8004d54:	4293      	cmp	r3, r2
 8004d56:	d004      	beq.n	8004d62 <HAL_TIMEx_MasterConfigSynchronization+0xa2>
 8004d58:	687b      	ldr	r3, [r7, #4]
 8004d5a:	681b      	ldr	r3, [r3, #0]
 8004d5c:	4a15      	ldr	r2, [pc, #84]	; (8004db4 <HAL_TIMEx_MasterConfigSynchronization+0xf4>)
 8004d5e:	4293      	cmp	r3, r2
 8004d60:	d10c      	bne.n	8004d7c <HAL_TIMEx_MasterConfigSynchronization+0xbc>
  {
    /* Reset the MSM Bit */
    tmpsmcr &= ~TIM_SMCR_MSM;
 8004d62:	68bb      	ldr	r3, [r7, #8]
 8004d64:	f023 0380 	bic.w	r3, r3, #128	; 0x80
 8004d68:	60bb      	str	r3, [r7, #8]
    /* Set master mode */
    tmpsmcr |= sMasterConfig->MasterSlaveMode;
 8004d6a:	683b      	ldr	r3, [r7, #0]
 8004d6c:	685b      	ldr	r3, [r3, #4]
 8004d6e:	68ba      	ldr	r2, [r7, #8]
 8004d70:	4313      	orrs	r3, r2
 8004d72:	60bb      	str	r3, [r7, #8]

    /* Update TIMx SMCR */
    htim->Instance->SMCR = tmpsmcr;
 8004d74:	687b      	ldr	r3, [r7, #4]
 8004d76:	681b      	ldr	r3, [r3, #0]
 8004d78:	68ba      	ldr	r2, [r7, #8]
 8004d7a:	609a      	str	r2, [r3, #8]
  }

  /* Change the htim state */
  htim->State = HAL_TIM_STATE_READY;
 8004d7c:	687b      	ldr	r3, [r7, #4]
 8004d7e:	2201      	movs	r2, #1
 8004d80:	f883 203d 	strb.w	r2, [r3, #61]	; 0x3d

  __HAL_UNLOCK(htim);
 8004d84:	687b      	ldr	r3, [r7, #4]
 8004d86:	2200      	movs	r2, #0
 8004d88:	f883 203c 	strb.w	r2, [r3, #60]	; 0x3c

  return HAL_OK;
 8004d8c:	2300      	movs	r3, #0
}
 8004d8e:	4618      	mov	r0, r3
 8004d90:	3714      	adds	r7, #20
 8004d92:	46bd      	mov	sp, r7
 8004d94:	f85d 7b04 	ldr.w	r7, [sp], #4
 8004d98:	4770      	bx	lr
 8004d9a:	bf00      	nop
 8004d9c:	40010000 	.word	0x40010000
 8004da0:	40000400 	.word	0x40000400
 8004da4:	40000800 	.word	0x40000800
 8004da8:	40000c00 	.word	0x40000c00
 8004dac:	40010400 	.word	0x40010400
 8004db0:	40014000 	.word	0x40014000
 8004db4:	40001800 	.word	0x40001800

08004db8 <HAL_TIMEx_ConfigBreakDeadTime>:
  *         interrupt can be enabled by calling the @ref __HAL_TIM_ENABLE_IT macro.
  * @retval HAL status
  */
HAL_StatusTypeDef HAL_TIMEx_ConfigBreakDeadTime(TIM_HandleTypeDef *htim,
                                                TIM_BreakDeadTimeConfigTypeDef *sBreakDeadTimeConfig)
{
 8004db8:	b480      	push	{r7}
 8004dba:	b085      	sub	sp, #20
 8004dbc:	af00      	add	r7, sp, #0
 8004dbe:	6078      	str	r0, [r7, #4]
 8004dc0:	6039      	str	r1, [r7, #0]
  /* Keep this variable initialized to 0 as it is used to configure BDTR register */
  uint32_t tmpbdtr = 0U;
 8004dc2:	2300      	movs	r3, #0
 8004dc4:	60fb      	str	r3, [r7, #12]
  assert_param(IS_TIM_BREAK_STATE(sBreakDeadTimeConfig->BreakState));
  assert_param(IS_TIM_BREAK_POLARITY(sBreakDeadTimeConfig->BreakPolarity));
  assert_param(IS_TIM_AUTOMATIC_OUTPUT_STATE(sBreakDeadTimeConfig->AutomaticOutput));

  /* Check input state */
  __HAL_LOCK(htim);
 8004dc6:	687b      	ldr	r3, [r7, #4]
 8004dc8:	f893 303c 	ldrb.w	r3, [r3, #60]	; 0x3c
 8004dcc:	2b01      	cmp	r3, #1
 8004dce:	d101      	bne.n	8004dd4 <HAL_TIMEx_ConfigBreakDeadTime+0x1c>
 8004dd0:	2302      	movs	r3, #2
 8004dd2:	e03d      	b.n	8004e50 <HAL_TIMEx_ConfigBreakDeadTime+0x98>
 8004dd4:	687b      	ldr	r3, [r7, #4]
 8004dd6:	2201      	movs	r2, #1
 8004dd8:	f883 203c 	strb.w	r2, [r3, #60]	; 0x3c

  /* Set the Lock level, the Break enable Bit and the Polarity, the OSSR State,
     the OSSI State, the dead time value and the Automatic Output Enable Bit */

  /* Set the BDTR bits */
  MODIFY_REG(tmpbdtr, TIM_BDTR_DTG, sBreakDeadTimeConfig->DeadTime);
 8004ddc:	68fb      	ldr	r3, [r7, #12]
 8004dde:	f023 02ff 	bic.w	r2, r3, #255	; 0xff
 8004de2:	683b      	ldr	r3, [r7, #0]
 8004de4:	68db      	ldr	r3, [r3, #12]
 8004de6:	4313      	orrs	r3, r2
 8004de8:	60fb      	str	r3, [r7, #12]
  MODIFY_REG(tmpbdtr, TIM_BDTR_LOCK, sBreakDeadTimeConfig->LockLevel);
 8004dea:	68fb      	ldr	r3, [r7, #12]
 8004dec:	f423 7240 	bic.w	r2, r3, #768	; 0x300
 8004df0:	683b      	ldr	r3, [r7, #0]
 8004df2:	689b      	ldr	r3, [r3, #8]
 8004df4:	4313      	orrs	r3, r2
 8004df6:	60fb      	str	r3, [r7, #12]
  MODIFY_REG(tmpbdtr, TIM_BDTR_OSSI, sBreakDeadTimeConfig->OffStateIDLEMode);
 8004df8:	68fb      	ldr	r3, [r7, #12]
 8004dfa:	f423 6280 	bic.w	r2, r3, #1024	; 0x400
 8004dfe:	683b      	ldr	r3, [r7, #0]
 8004e00:	685b      	ldr	r3, [r3, #4]
 8004e02:	4313      	orrs	r3, r2
 8004e04:	60fb      	str	r3, [r7, #12]
  MODIFY_REG(tmpbdtr, TIM_BDTR_OSSR, sBreakDeadTimeConfig->OffStateRunMode);
 8004e06:	68fb      	ldr	r3, [r7, #12]
 8004e08:	f423 6200 	bic.w	r2, r3, #2048	; 0x800
 8004e0c:	683b      	ldr	r3, [r7, #0]
 8004e0e:	681b      	ldr	r3, [r3, #0]
 8004e10:	4313      	orrs	r3, r2
 8004e12:	60fb      	str	r3, [r7, #12]
  MODIFY_REG(tmpbdtr, TIM_BDTR_BKE, sBreakDeadTimeConfig->BreakState);
 8004e14:	68fb      	ldr	r3, [r7, #12]
 8004e16:	f423 5280 	bic.w	r2, r3, #4096	; 0x1000
 8004e1a:	683b      	ldr	r3, [r7, #0]
 8004e1c:	691b      	ldr	r3, [r3, #16]
 8004e1e:	4313      	orrs	r3, r2
 8004e20:	60fb      	str	r3, [r7, #12]
  MODIFY_REG(tmpbdtr, TIM_BDTR_BKP, sBreakDeadTimeConfig->BreakPolarity);
 8004e22:	68fb      	ldr	r3, [r7, #12]
 8004e24:	f423 5200 	bic.w	r2, r3, #8192	; 0x2000
 8004e28:	683b      	ldr	r3, [r7, #0]
 8004e2a:	695b      	ldr	r3, [r3, #20]
 8004e2c:	4313      	orrs	r3, r2
 8004e2e:	60fb      	str	r3, [r7, #12]
  MODIFY_REG(tmpbdtr, TIM_BDTR_AOE, sBreakDeadTimeConfig->AutomaticOutput);
 8004e30:	68fb      	ldr	r3, [r7, #12]
 8004e32:	f423 4280 	bic.w	r2, r3, #16384	; 0x4000
 8004e36:	683b      	ldr	r3, [r7, #0]
 8004e38:	69db      	ldr	r3, [r3, #28]
 8004e3a:	4313      	orrs	r3, r2
 8004e3c:	60fb      	str	r3, [r7, #12]


  /* Set TIMx_BDTR */
  htim->Instance->BDTR = tmpbdtr;
 8004e3e:	687b      	ldr	r3, [r7, #4]
 8004e40:	681b      	ldr	r3, [r3, #0]
 8004e42:	68fa      	ldr	r2, [r7, #12]
 8004e44:	645a      	str	r2, [r3, #68]	; 0x44

  __HAL_UNLOCK(htim);
 8004e46:	687b      	ldr	r3, [r7, #4]
 8004e48:	2200      	movs	r2, #0
 8004e4a:	f883 203c 	strb.w	r2, [r3, #60]	; 0x3c

  return HAL_OK;
 8004e4e:	2300      	movs	r3, #0
}
 8004e50:	4618      	mov	r0, r3
 8004e52:	3714      	adds	r7, #20
 8004e54:	46bd      	mov	sp, r7
 8004e56:	f85d 7b04 	ldr.w	r7, [sp], #4
 8004e5a:	4770      	bx	lr

08004e5c <HAL_TIMEx_CommutCallback>:
  * @brief  Hall commutation changed callback in non-blocking mode
  * @param  htim TIM handle
  * @retval None
  */
__weak void HAL_TIMEx_CommutCallback(TIM_HandleTypeDef *htim)
{
 8004e5c:	b480      	push	{r7}
 8004e5e:	b083      	sub	sp, #12
 8004e60:	af00      	add	r7, sp, #0
 8004e62:	6078      	str	r0, [r7, #4]
  UNUSED(htim);

  /* NOTE : This function should not be modified, when the callback is needed,
            the HAL_TIMEx_CommutCallback could be implemented in the user file
   */
}
 8004e64:	bf00      	nop
 8004e66:	370c      	adds	r7, #12
 8004e68:	46bd      	mov	sp, r7
 8004e6a:	f85d 7b04 	ldr.w	r7, [sp], #4
 8004e6e:	4770      	bx	lr

08004e70 <HAL_TIMEx_BreakCallback>:
  * @brief  Hall Break detection callback in non-blocking mode
  * @param  htim TIM handle
  * @retval None
  */
__weak void HAL_TIMEx_BreakCallback(TIM_HandleTypeDef *htim)
{
 8004e70:	b480      	push	{r7}
 8004e72:	b083      	sub	sp, #12
 8004e74:	af00      	add	r7, sp, #0
 8004e76:	6078      	str	r0, [r7, #4]
  UNUSED(htim);

  /* NOTE : This function should not be modified, when the callback is needed,
            the HAL_TIMEx_BreakCallback could be implemented in the user file
   */
}
 8004e78:	bf00      	nop
 8004e7a:	370c      	adds	r7, #12
 8004e7c:	46bd      	mov	sp, r7
 8004e7e:	f85d 7b04 	ldr.w	r7, [sp], #4
 8004e82:	4770      	bx	lr

08004e84 <HAL_UART_Init>:
  * @param  huart  Pointer to a UART_HandleTypeDef structure that contains
  *                the configuration information for the specified UART module.
  * @retval HAL status
  */
HAL_StatusTypeDef HAL_UART_Init(UART_HandleTypeDef *huart)
{
 8004e84:	b580      	push	{r7, lr}
 8004e86:	b082      	sub	sp, #8
 8004e88:	af00      	add	r7, sp, #0
 8004e8a:	6078      	str	r0, [r7, #4]
  /* Check the UART handle allocation */
  if (huart == NULL)
 8004e8c:	687b      	ldr	r3, [r7, #4]
 8004e8e:	2b00      	cmp	r3, #0
 8004e90:	d101      	bne.n	8004e96 <HAL_UART_Init+0x12>
  {
    return HAL_ERROR;
 8004e92:	2301      	movs	r3, #1
 8004e94:	e03f      	b.n	8004f16 <HAL_UART_Init+0x92>
    assert_param(IS_UART_INSTANCE(huart->Instance));
  }
  assert_param(IS_UART_WORD_LENGTH(huart->Init.WordLength));
  assert_param(IS_UART_OVERSAMPLING(huart->Init.OverSampling));

  if (huart->gState == HAL_UART_STATE_RESET)
 8004e96:	687b      	ldr	r3, [r7, #4]
 8004e98:	f893 303d 	ldrb.w	r3, [r3, #61]	; 0x3d
 8004e9c:	b2db      	uxtb	r3, r3
 8004e9e:	2b00      	cmp	r3, #0
 8004ea0:	d106      	bne.n	8004eb0 <HAL_UART_Init+0x2c>
  {
    /* Allocate lock resource and initialize it */
    huart->Lock = HAL_UNLOCKED;
 8004ea2:	687b      	ldr	r3, [r7, #4]
 8004ea4:	2200      	movs	r2, #0
 8004ea6:	f883 203c 	strb.w	r2, [r3, #60]	; 0x3c

    /* Init the low level hardware */
    huart->MspInitCallback(huart);
#else
    /* Init the low level hardware : GPIO, CLOCK */
    HAL_UART_MspInit(huart);
 8004eaa:	6878      	ldr	r0, [r7, #4]
 8004eac:	f7fd f9a4 	bl	80021f8 <HAL_UART_MspInit>
#endif /* (USE_HAL_UART_REGISTER_CALLBACKS) */
  }

  huart->gState = HAL_UART_STATE_BUSY;
 8004eb0:	687b      	ldr	r3, [r7, #4]
 8004eb2:	2224      	movs	r2, #36	; 0x24
 8004eb4:	f883 203d 	strb.w	r2, [r3, #61]	; 0x3d

  /* Disable the peripheral */
  __HAL_UART_DISABLE(huart);
 8004eb8:	687b      	ldr	r3, [r7, #4]
 8004eba:	681b      	ldr	r3, [r3, #0]
 8004ebc:	68da      	ldr	r2, [r3, #12]
 8004ebe:	687b      	ldr	r3, [r7, #4]
 8004ec0:	681b      	ldr	r3, [r3, #0]
 8004ec2:	f422 5200 	bic.w	r2, r2, #8192	; 0x2000
 8004ec6:	60da      	str	r2, [r3, #12]

  /* Set the UART Communication parameters */
  UART_SetConfig(huart);
 8004ec8:	6878      	ldr	r0, [r7, #4]
 8004eca:	f000 f929 	bl	8005120 <UART_SetConfig>

  /* In asynchronous mode, the following bits must be kept cleared:
     - LINEN and CLKEN bits in the USART_CR2 register,
     - SCEN, HDSEL and IREN  bits in the USART_CR3 register.*/
  CLEAR_BIT(huart->Instance->CR2, (USART_CR2_LINEN | USART_CR2_CLKEN));
 8004ece:	687b      	ldr	r3, [r7, #4]
 8004ed0:	681b      	ldr	r3, [r3, #0]
 8004ed2:	691a      	ldr	r2, [r3, #16]
 8004ed4:	687b      	ldr	r3, [r7, #4]
 8004ed6:	681b      	ldr	r3, [r3, #0]
 8004ed8:	f422 4290 	bic.w	r2, r2, #18432	; 0x4800
 8004edc:	611a      	str	r2, [r3, #16]
  CLEAR_BIT(huart->Instance->CR3, (USART_CR3_SCEN | USART_CR3_HDSEL | USART_CR3_IREN));
 8004ede:	687b      	ldr	r3, [r7, #4]
 8004ee0:	681b      	ldr	r3, [r3, #0]
 8004ee2:	695a      	ldr	r2, [r3, #20]
 8004ee4:	687b      	ldr	r3, [r7, #4]
 8004ee6:	681b      	ldr	r3, [r3, #0]
 8004ee8:	f022 022a 	bic.w	r2, r2, #42	; 0x2a
 8004eec:	615a      	str	r2, [r3, #20]

  /* Enable the peripheral */
  __HAL_UART_ENABLE(huart);
 8004eee:	687b      	ldr	r3, [r7, #4]
 8004ef0:	681b      	ldr	r3, [r3, #0]
 8004ef2:	68da      	ldr	r2, [r3, #12]
 8004ef4:	687b      	ldr	r3, [r7, #4]
 8004ef6:	681b      	ldr	r3, [r3, #0]
 8004ef8:	f442 5200 	orr.w	r2, r2, #8192	; 0x2000
 8004efc:	60da      	str	r2, [r3, #12]

  /* Initialize the UART state */
  huart->ErrorCode = HAL_UART_ERROR_NONE;
 8004efe:	687b      	ldr	r3, [r7, #4]
 8004f00:	2200      	movs	r2, #0
 8004f02:	641a      	str	r2, [r3, #64]	; 0x40
  huart->gState = HAL_UART_STATE_READY;
 8004f04:	687b      	ldr	r3, [r7, #4]
 8004f06:	2220      	movs	r2, #32
 8004f08:	f883 203d 	strb.w	r2, [r3, #61]	; 0x3d
  huart->RxState = HAL_UART_STATE_READY;
 8004f0c:	687b      	ldr	r3, [r7, #4]
 8004f0e:	2220      	movs	r2, #32
 8004f10:	f883 203e 	strb.w	r2, [r3, #62]	; 0x3e

  return HAL_OK;
 8004f14:	2300      	movs	r3, #0
}
 8004f16:	4618      	mov	r0, r3
 8004f18:	3708      	adds	r7, #8
 8004f1a:	46bd      	mov	sp, r7
 8004f1c:	bd80      	pop	{r7, pc}

08004f1e <HAL_UART_Transmit>:
  * @param  Size  Amount of data elements (u8 or u16) to be sent
  * @param  Timeout Timeout duration
  * @retval HAL status
  */
HAL_StatusTypeDef HAL_UART_Transmit(UART_HandleTypeDef *huart, uint8_t *pData, uint16_t Size, uint32_t Timeout)
{
 8004f1e:	b580      	push	{r7, lr}
 8004f20:	b08a      	sub	sp, #40	; 0x28
 8004f22:	af02      	add	r7, sp, #8
 8004f24:	60f8      	str	r0, [r7, #12]
 8004f26:	60b9      	str	r1, [r7, #8]
 8004f28:	603b      	str	r3, [r7, #0]
 8004f2a:	4613      	mov	r3, r2
 8004f2c:	80fb      	strh	r3, [r7, #6]
  uint8_t  *pdata8bits;
  uint16_t *pdata16bits;
  uint32_t tickstart = 0U;
 8004f2e:	2300      	movs	r3, #0
 8004f30:	617b      	str	r3, [r7, #20]

  /* Check that a Tx process is not already ongoing */
  if (huart->gState == HAL_UART_STATE_READY)
 8004f32:	68fb      	ldr	r3, [r7, #12]
 8004f34:	f893 303d 	ldrb.w	r3, [r3, #61]	; 0x3d
 8004f38:	b2db      	uxtb	r3, r3
 8004f3a:	2b20      	cmp	r3, #32
 8004f3c:	d17c      	bne.n	8005038 <HAL_UART_Transmit+0x11a>
  {
    if ((pData == NULL) || (Size == 0U))
 8004f3e:	68bb      	ldr	r3, [r7, #8]
 8004f40:	2b00      	cmp	r3, #0
 8004f42:	d002      	beq.n	8004f4a <HAL_UART_Transmit+0x2c>
 8004f44:	88fb      	ldrh	r3, [r7, #6]
 8004f46:	2b00      	cmp	r3, #0
 8004f48:	d101      	bne.n	8004f4e <HAL_UART_Transmit+0x30>
    {
      return  HAL_ERROR;
 8004f4a:	2301      	movs	r3, #1
 8004f4c:	e075      	b.n	800503a <HAL_UART_Transmit+0x11c>
    }

    /* Process Locked */
    __HAL_LOCK(huart);
 8004f4e:	68fb      	ldr	r3, [r7, #12]
 8004f50:	f893 303c 	ldrb.w	r3, [r3, #60]	; 0x3c
 8004f54:	2b01      	cmp	r3, #1
 8004f56:	d101      	bne.n	8004f5c <HAL_UART_Transmit+0x3e>
 8004f58:	2302      	movs	r3, #2
 8004f5a:	e06e      	b.n	800503a <HAL_UART_Transmit+0x11c>
 8004f5c:	68fb      	ldr	r3, [r7, #12]
 8004f5e:	2201      	movs	r2, #1
 8004f60:	f883 203c 	strb.w	r2, [r3, #60]	; 0x3c

    huart->ErrorCode = HAL_UART_ERROR_NONE;
 8004f64:	68fb      	ldr	r3, [r7, #12]
 8004f66:	2200      	movs	r2, #0
 8004f68:	641a      	str	r2, [r3, #64]	; 0x40
    huart->gState = HAL_UART_STATE_BUSY_TX;
 8004f6a:	68fb      	ldr	r3, [r7, #12]
 8004f6c:	2221      	movs	r2, #33	; 0x21
 8004f6e:	f883 203d 	strb.w	r2, [r3, #61]	; 0x3d

    /* Init tickstart for timeout management */
    tickstart = HAL_GetTick();
 8004f72:	f7fd fb27 	bl	80025c4 <HAL_GetTick>
 8004f76:	6178      	str	r0, [r7, #20]

    huart->TxXferSize = Size;
 8004f78:	68fb      	ldr	r3, [r7, #12]
 8004f7a:	88fa      	ldrh	r2, [r7, #6]
 8004f7c:	849a      	strh	r2, [r3, #36]	; 0x24
    huart->TxXferCount = Size;
 8004f7e:	68fb      	ldr	r3, [r7, #12]
 8004f80:	88fa      	ldrh	r2, [r7, #6]
 8004f82:	84da      	strh	r2, [r3, #38]	; 0x26

    /* In case of 9bits/No Parity transfer, pData needs to be handled as a uint16_t pointer */
    if ((huart->Init.WordLength == UART_WORDLENGTH_9B) && (huart->Init.Parity == UART_PARITY_NONE))
 8004f84:	68fb      	ldr	r3, [r7, #12]
 8004f86:	689b      	ldr	r3, [r3, #8]
 8004f88:	f5b3 5f80 	cmp.w	r3, #4096	; 0x1000
 8004f8c:	d108      	bne.n	8004fa0 <HAL_UART_Transmit+0x82>
 8004f8e:	68fb      	ldr	r3, [r7, #12]
 8004f90:	691b      	ldr	r3, [r3, #16]
 8004f92:	2b00      	cmp	r3, #0
 8004f94:	d104      	bne.n	8004fa0 <HAL_UART_Transmit+0x82>
    {
      pdata8bits  = NULL;
 8004f96:	2300      	movs	r3, #0
 8004f98:	61fb      	str	r3, [r7, #28]
      pdata16bits = (uint16_t *) pData;
 8004f9a:	68bb      	ldr	r3, [r7, #8]
 8004f9c:	61bb      	str	r3, [r7, #24]
 8004f9e:	e003      	b.n	8004fa8 <HAL_UART_Transmit+0x8a>
    }
    else
    {
      pdata8bits  = pData;
 8004fa0:	68bb      	ldr	r3, [r7, #8]
 8004fa2:	61fb      	str	r3, [r7, #28]
      pdata16bits = NULL;
 8004fa4:	2300      	movs	r3, #0
 8004fa6:	61bb      	str	r3, [r7, #24]
    }

    /* Process Unlocked */
    __HAL_UNLOCK(huart);
 8004fa8:	68fb      	ldr	r3, [r7, #12]
 8004faa:	2200      	movs	r2, #0
 8004fac:	f883 203c 	strb.w	r2, [r3, #60]	; 0x3c

    while (huart->TxXferCount > 0U)
 8004fb0:	e02a      	b.n	8005008 <HAL_UART_Transmit+0xea>
    {
      if (UART_WaitOnFlagUntilTimeout(huart, UART_FLAG_TXE, RESET, tickstart, Timeout) != HAL_OK)
 8004fb2:	683b      	ldr	r3, [r7, #0]
 8004fb4:	9300      	str	r3, [sp, #0]
 8004fb6:	697b      	ldr	r3, [r7, #20]
 8004fb8:	2200      	movs	r2, #0
 8004fba:	2180      	movs	r1, #128	; 0x80
 8004fbc:	68f8      	ldr	r0, [r7, #12]
 8004fbe:	f000 f840 	bl	8005042 <UART_WaitOnFlagUntilTimeout>
 8004fc2:	4603      	mov	r3, r0
 8004fc4:	2b00      	cmp	r3, #0
 8004fc6:	d001      	beq.n	8004fcc <HAL_UART_Transmit+0xae>
      {
        return HAL_TIMEOUT;
 8004fc8:	2303      	movs	r3, #3
 8004fca:	e036      	b.n	800503a <HAL_UART_Transmit+0x11c>
      }
      if (pdata8bits == NULL)
 8004fcc:	69fb      	ldr	r3, [r7, #28]
 8004fce:	2b00      	cmp	r3, #0
 8004fd0:	d10b      	bne.n	8004fea <HAL_UART_Transmit+0xcc>
      {
        huart->Instance->DR = (uint16_t)(*pdata16bits & 0x01FFU);
 8004fd2:	69bb      	ldr	r3, [r7, #24]
 8004fd4:	881b      	ldrh	r3, [r3, #0]
 8004fd6:	461a      	mov	r2, r3
 8004fd8:	68fb      	ldr	r3, [r7, #12]
 8004fda:	681b      	ldr	r3, [r3, #0]
 8004fdc:	f3c2 0208 	ubfx	r2, r2, #0, #9
 8004fe0:	605a      	str	r2, [r3, #4]
        pdata16bits++;
 8004fe2:	69bb      	ldr	r3, [r7, #24]
 8004fe4:	3302      	adds	r3, #2
 8004fe6:	61bb      	str	r3, [r7, #24]
 8004fe8:	e007      	b.n	8004ffa <HAL_UART_Transmit+0xdc>
      }
      else
      {
        huart->Instance->DR = (uint8_t)(*pdata8bits & 0xFFU);
 8004fea:	69fb      	ldr	r3, [r7, #28]
 8004fec:	781a      	ldrb	r2, [r3, #0]
 8004fee:	68fb      	ldr	r3, [r7, #12]
 8004ff0:	681b      	ldr	r3, [r3, #0]
 8004ff2:	605a      	str	r2, [r3, #4]
        pdata8bits++;
 8004ff4:	69fb      	ldr	r3, [r7, #28]
 8004ff6:	3301      	adds	r3, #1
 8004ff8:	61fb      	str	r3, [r7, #28]
      }
      huart->TxXferCount--;
 8004ffa:	68fb      	ldr	r3, [r7, #12]
 8004ffc:	8cdb      	ldrh	r3, [r3, #38]	; 0x26
 8004ffe:	b29b      	uxth	r3, r3
 8005000:	3b01      	subs	r3, #1
 8005002:	b29a      	uxth	r2, r3
 8005004:	68fb      	ldr	r3, [r7, #12]
 8005006:	84da      	strh	r2, [r3, #38]	; 0x26
    while (huart->TxXferCount > 0U)
 8005008:	68fb      	ldr	r3, [r7, #12]
 800500a:	8cdb      	ldrh	r3, [r3, #38]	; 0x26
 800500c:	b29b      	uxth	r3, r3
 800500e:	2b00      	cmp	r3, #0
 8005010:	d1cf      	bne.n	8004fb2 <HAL_UART_Transmit+0x94>
    }

    if (UART_WaitOnFlagUntilTimeout(huart, UART_FLAG_TC, RESET, tickstart, Timeout) != HAL_OK)
 8005012:	683b      	ldr	r3, [r7, #0]
 8005014:	9300      	str	r3, [sp, #0]
 8005016:	697b      	ldr	r3, [r7, #20]
 8005018:	2200      	movs	r2, #0
 800501a:	2140      	movs	r1, #64	; 0x40
 800501c:	68f8      	ldr	r0, [r7, #12]
 800501e:	f000 f810 	bl	8005042 <UART_WaitOnFlagUntilTimeout>
 8005022:	4603      	mov	r3, r0
 8005024:	2b00      	cmp	r3, #0
 8005026:	d001      	beq.n	800502c <HAL_UART_Transmit+0x10e>
    {
      return HAL_TIMEOUT;
 8005028:	2303      	movs	r3, #3
 800502a:	e006      	b.n	800503a <HAL_UART_Transmit+0x11c>
    }

    /* At end of Tx process, restore huart->gState to Ready */
    huart->gState = HAL_UART_STATE_READY;
 800502c:	68fb      	ldr	r3, [r7, #12]
 800502e:	2220      	movs	r2, #32
 8005030:	f883 203d 	strb.w	r2, [r3, #61]	; 0x3d

    return HAL_OK;
 8005034:	2300      	movs	r3, #0
 8005036:	e000      	b.n	800503a <HAL_UART_Transmit+0x11c>
  }
  else
  {
    return HAL_BUSY;
 8005038:	2302      	movs	r3, #2
  }
}
 800503a:	4618      	mov	r0, r3
 800503c:	3720      	adds	r7, #32
 800503e:	46bd      	mov	sp, r7
 8005040:	bd80      	pop	{r7, pc}

08005042 <UART_WaitOnFlagUntilTimeout>:
  * @param  Timeout Timeout duration
  * @retval HAL status
  */
static HAL_StatusTypeDef UART_WaitOnFlagUntilTimeout(UART_HandleTypeDef *huart, uint32_t Flag, FlagStatus Status,
                                                     uint32_t Tickstart, uint32_t Timeout)
{
 8005042:	b580      	push	{r7, lr}
 8005044:	b090      	sub	sp, #64	; 0x40
 8005046:	af00      	add	r7, sp, #0
 8005048:	60f8      	str	r0, [r7, #12]
 800504a:	60b9      	str	r1, [r7, #8]
 800504c:	603b      	str	r3, [r7, #0]
 800504e:	4613      	mov	r3, r2
 8005050:	71fb      	strb	r3, [r7, #7]
  /* Wait until flag is set */
  while ((__HAL_UART_GET_FLAG(huart, Flag) ? SET : RESET) == Status)
 8005052:	e050      	b.n	80050f6 <UART_WaitOnFlagUntilTimeout+0xb4>
  {
    /* Check for the Timeout */
    if (Timeout != HAL_MAX_DELAY)
 8005054:	6cbb      	ldr	r3, [r7, #72]	; 0x48
 8005056:	f1b3 3fff 	cmp.w	r3, #4294967295	; 0xffffffff
 800505a:	d04c      	beq.n	80050f6 <UART_WaitOnFlagUntilTimeout+0xb4>
    {
      if ((Timeout == 0U) || ((HAL_GetTick() - Tickstart) > Timeout))
 800505c:	6cbb      	ldr	r3, [r7, #72]	; 0x48
 800505e:	2b00      	cmp	r3, #0
 8005060:	d007      	beq.n	8005072 <UART_WaitOnFlagUntilTimeout+0x30>
 8005062:	f7fd faaf 	bl	80025c4 <HAL_GetTick>
 8005066:	4602      	mov	r2, r0
 8005068:	683b      	ldr	r3, [r7, #0]
 800506a:	1ad3      	subs	r3, r2, r3
 800506c:	6cba      	ldr	r2, [r7, #72]	; 0x48
 800506e:	429a      	cmp	r2, r3
 8005070:	d241      	bcs.n	80050f6 <UART_WaitOnFlagUntilTimeout+0xb4>
      {
        /* Disable TXE, RXNE, PE and ERR (Frame error, noise error, overrun error) interrupts for the interrupt process */
        ATOMIC_CLEAR_BIT(huart->Instance->CR1, (USART_CR1_RXNEIE | USART_CR1_PEIE | USART_CR1_TXEIE));
 8005072:	68fb      	ldr	r3, [r7, #12]
 8005074:	681b      	ldr	r3, [r3, #0]
 8005076:	330c      	adds	r3, #12
 8005078:	62bb      	str	r3, [r7, #40]	; 0x28
 */
__STATIC_FORCEINLINE uint32_t __LDREXW(volatile uint32_t *addr)
{
    uint32_t result;

   __ASM volatile ("ldrex %0, %1" : "=r" (result) : "Q" (*addr) );
 800507a:	6abb      	ldr	r3, [r7, #40]	; 0x28
 800507c:	e853 3f00 	ldrex	r3, [r3]
 8005080:	627b      	str	r3, [r7, #36]	; 0x24
   return(result);
 8005082:	6a7b      	ldr	r3, [r7, #36]	; 0x24
 8005084:	f423 73d0 	bic.w	r3, r3, #416	; 0x1a0
 8005088:	63fb      	str	r3, [r7, #60]	; 0x3c
 800508a:	68fb      	ldr	r3, [r7, #12]
 800508c:	681b      	ldr	r3, [r3, #0]
 800508e:	330c      	adds	r3, #12
 8005090:	6bfa      	ldr	r2, [r7, #60]	; 0x3c
 8005092:	637a      	str	r2, [r7, #52]	; 0x34
 8005094:	633b      	str	r3, [r7, #48]	; 0x30
 */
__STATIC_FORCEINLINE uint32_t __STREXW(uint32_t value, volatile uint32_t *addr)
{
   uint32_t result;

   __ASM volatile ("strex %0, %2, %1" : "=&r" (result), "=Q" (*addr) : "r" (value) );
 8005096:	6b39      	ldr	r1, [r7, #48]	; 0x30
 8005098:	6b7a      	ldr	r2, [r7, #52]	; 0x34
 800509a:	e841 2300 	strex	r3, r2, [r1]
 800509e:	62fb      	str	r3, [r7, #44]	; 0x2c
   return(result);
 80050a0:	6afb      	ldr	r3, [r7, #44]	; 0x2c
 80050a2:	2b00      	cmp	r3, #0
 80050a4:	d1e5      	bne.n	8005072 <UART_WaitOnFlagUntilTimeout+0x30>
        ATOMIC_CLEAR_BIT(huart->Instance->CR3, USART_CR3_EIE);
 80050a6:	68fb      	ldr	r3, [r7, #12]
 80050a8:	681b      	ldr	r3, [r3, #0]
 80050aa:	3314      	adds	r3, #20
 80050ac:	617b      	str	r3, [r7, #20]
   __ASM volatile ("ldrex %0, %1" : "=r" (result) : "Q" (*addr) );
 80050ae:	697b      	ldr	r3, [r7, #20]
 80050b0:	e853 3f00 	ldrex	r3, [r3]
 80050b4:	613b      	str	r3, [r7, #16]
   return(result);
 80050b6:	693b      	ldr	r3, [r7, #16]
 80050b8:	f023 0301 	bic.w	r3, r3, #1
 80050bc:	63bb      	str	r3, [r7, #56]	; 0x38
 80050be:	68fb      	ldr	r3, [r7, #12]
 80050c0:	681b      	ldr	r3, [r3, #0]
 80050c2:	3314      	adds	r3, #20
 80050c4:	6bba      	ldr	r2, [r7, #56]	; 0x38
 80050c6:	623a      	str	r2, [r7, #32]
 80050c8:	61fb      	str	r3, [r7, #28]
   __ASM volatile ("strex %0, %2, %1" : "=&r" (result), "=Q" (*addr) : "r" (value) );
 80050ca:	69f9      	ldr	r1, [r7, #28]
 80050cc:	6a3a      	ldr	r2, [r7, #32]
 80050ce:	e841 2300 	strex	r3, r2, [r1]
 80050d2:	61bb      	str	r3, [r7, #24]
   return(result);
 80050d4:	69bb      	ldr	r3, [r7, #24]
 80050d6:	2b00      	cmp	r3, #0
 80050d8:	d1e5      	bne.n	80050a6 <UART_WaitOnFlagUntilTimeout+0x64>

        huart->gState  = HAL_UART_STATE_READY;
 80050da:	68fb      	ldr	r3, [r7, #12]
 80050dc:	2220      	movs	r2, #32
 80050de:	f883 203d 	strb.w	r2, [r3, #61]	; 0x3d
        huart->RxState = HAL_UART_STATE_READY;
 80050e2:	68fb      	ldr	r3, [r7, #12]
 80050e4:	2220      	movs	r2, #32
 80050e6:	f883 203e 	strb.w	r2, [r3, #62]	; 0x3e

        /* Process Unlocked */
        __HAL_UNLOCK(huart);
 80050ea:	68fb      	ldr	r3, [r7, #12]
 80050ec:	2200      	movs	r2, #0
 80050ee:	f883 203c 	strb.w	r2, [r3, #60]	; 0x3c

        return HAL_TIMEOUT;
 80050f2:	2303      	movs	r3, #3
 80050f4:	e00f      	b.n	8005116 <UART_WaitOnFlagUntilTimeout+0xd4>
  while ((__HAL_UART_GET_FLAG(huart, Flag) ? SET : RESET) == Status)
 80050f6:	68fb      	ldr	r3, [r7, #12]
 80050f8:	681b      	ldr	r3, [r3, #0]
 80050fa:	681a      	ldr	r2, [r3, #0]
 80050fc:	68bb      	ldr	r3, [r7, #8]
 80050fe:	4013      	ands	r3, r2
 8005100:	68ba      	ldr	r2, [r7, #8]
 8005102:	429a      	cmp	r2, r3
 8005104:	bf0c      	ite	eq
 8005106:	2301      	moveq	r3, #1
 8005108:	2300      	movne	r3, #0
 800510a:	b2db      	uxtb	r3, r3
 800510c:	461a      	mov	r2, r3
 800510e:	79fb      	ldrb	r3, [r7, #7]
 8005110:	429a      	cmp	r2, r3
 8005112:	d09f      	beq.n	8005054 <UART_WaitOnFlagUntilTimeout+0x12>
      }
    }
  }
  return HAL_OK;
 8005114:	2300      	movs	r3, #0
}
 8005116:	4618      	mov	r0, r3
 8005118:	3740      	adds	r7, #64	; 0x40
 800511a:	46bd      	mov	sp, r7
 800511c:	bd80      	pop	{r7, pc}
	...

08005120 <UART_SetConfig>:
  * @param  huart  Pointer to a UART_HandleTypeDef structure that contains
  *                the configuration information for the specified UART module.
  * @retval None
  */
static void UART_SetConfig(UART_HandleTypeDef *huart)
{
 8005120:	e92d 4ff0 	stmdb	sp!, {r4, r5, r6, r7, r8, r9, sl, fp, lr}
 8005124:	b09f      	sub	sp, #124	; 0x7c
 8005126:	af00      	add	r7, sp, #0
 8005128:	66f8      	str	r0, [r7, #108]	; 0x6c
  assert_param(IS_UART_MODE(huart->Init.Mode));

  /*-------------------------- USART CR2 Configuration -----------------------*/
  /* Configure the UART Stop Bits: Set STOP[13:12] bits
     according to huart->Init.StopBits value */
  MODIFY_REG(huart->Instance->CR2, USART_CR2_STOP, huart->Init.StopBits);
 800512a:	6efb      	ldr	r3, [r7, #108]	; 0x6c
 800512c:	681b      	ldr	r3, [r3, #0]
 800512e:	691b      	ldr	r3, [r3, #16]
 8005130:	f423 5040 	bic.w	r0, r3, #12288	; 0x3000
 8005134:	6efb      	ldr	r3, [r7, #108]	; 0x6c
 8005136:	68d9      	ldr	r1, [r3, #12]
 8005138:	6efb      	ldr	r3, [r7, #108]	; 0x6c
 800513a:	681a      	ldr	r2, [r3, #0]
 800513c:	ea40 0301 	orr.w	r3, r0, r1
 8005140:	6113      	str	r3, [r2, #16]
     Set the M bits according to huart->Init.WordLength value
     Set PCE and PS bits according to huart->Init.Parity value
     Set TE and RE bits according to huart->Init.Mode value
     Set OVER8 bit according to huart->Init.OverSampling value */

  tmpreg = (uint32_t)huart->Init.WordLength | huart->Init.Parity | huart->Init.Mode | huart->Init.OverSampling;
 8005142:	6efb      	ldr	r3, [r7, #108]	; 0x6c
 8005144:	689a      	ldr	r2, [r3, #8]
 8005146:	6efb      	ldr	r3, [r7, #108]	; 0x6c
 8005148:	691b      	ldr	r3, [r3, #16]
 800514a:	431a      	orrs	r2, r3
 800514c:	6efb      	ldr	r3, [r7, #108]	; 0x6c
 800514e:	695b      	ldr	r3, [r3, #20]
 8005150:	431a      	orrs	r2, r3
 8005152:	6efb      	ldr	r3, [r7, #108]	; 0x6c
 8005154:	69db      	ldr	r3, [r3, #28]
 8005156:	4313      	orrs	r3, r2
 8005158:	673b      	str	r3, [r7, #112]	; 0x70
  MODIFY_REG(huart->Instance->CR1,
 800515a:	6efb      	ldr	r3, [r7, #108]	; 0x6c
 800515c:	681b      	ldr	r3, [r3, #0]
 800515e:	68db      	ldr	r3, [r3, #12]
 8005160:	f423 4116 	bic.w	r1, r3, #38400	; 0x9600
 8005164:	f021 010c 	bic.w	r1, r1, #12
 8005168:	6efb      	ldr	r3, [r7, #108]	; 0x6c
 800516a:	681a      	ldr	r2, [r3, #0]
 800516c:	6f3b      	ldr	r3, [r7, #112]	; 0x70
 800516e:	430b      	orrs	r3, r1
 8005170:	60d3      	str	r3, [r2, #12]
             (uint32_t)(USART_CR1_M | USART_CR1_PCE | USART_CR1_PS | USART_CR1_TE | USART_CR1_RE | USART_CR1_OVER8),
             tmpreg);

  /*-------------------------- USART CR3 Configuration -----------------------*/
  /* Configure the UART HFC: Set CTSE and RTSE bits according to huart->Init.HwFlowCtl value */
  MODIFY_REG(huart->Instance->CR3, (USART_CR3_RTSE | USART_CR3_CTSE), huart->Init.HwFlowCtl);
 8005172:	6efb      	ldr	r3, [r7, #108]	; 0x6c
 8005174:	681b      	ldr	r3, [r3, #0]
 8005176:	695b      	ldr	r3, [r3, #20]
 8005178:	f423 7040 	bic.w	r0, r3, #768	; 0x300
 800517c:	6efb      	ldr	r3, [r7, #108]	; 0x6c
 800517e:	6999      	ldr	r1, [r3, #24]
 8005180:	6efb      	ldr	r3, [r7, #108]	; 0x6c
 8005182:	681a      	ldr	r2, [r3, #0]
 8005184:	ea40 0301 	orr.w	r3, r0, r1
 8005188:	6153      	str	r3, [r2, #20]
    if ((huart->Instance == USART1) || (huart->Instance == USART6) || (huart->Instance == UART9) || (huart->Instance == UART10))
    {
      pclk = HAL_RCC_GetPCLK2Freq();
    }
#elif defined(USART6)
    if ((huart->Instance == USART1) || (huart->Instance == USART6))
 800518a:	6efb      	ldr	r3, [r7, #108]	; 0x6c
 800518c:	681a      	ldr	r2, [r3, #0]
 800518e:	4bc5      	ldr	r3, [pc, #788]	; (80054a4 <UART_SetConfig+0x384>)
 8005190:	429a      	cmp	r2, r3
 8005192:	d004      	beq.n	800519e <UART_SetConfig+0x7e>
 8005194:	6efb      	ldr	r3, [r7, #108]	; 0x6c
 8005196:	681a      	ldr	r2, [r3, #0]
 8005198:	4bc3      	ldr	r3, [pc, #780]	; (80054a8 <UART_SetConfig+0x388>)
 800519a:	429a      	cmp	r2, r3
 800519c:	d103      	bne.n	80051a6 <UART_SetConfig+0x86>
    {
      pclk = HAL_RCC_GetPCLK2Freq();
 800519e:	f7fd fe07 	bl	8002db0 <HAL_RCC_GetPCLK2Freq>
 80051a2:	6778      	str	r0, [r7, #116]	; 0x74
 80051a4:	e002      	b.n	80051ac <UART_SetConfig+0x8c>
      pclk = HAL_RCC_GetPCLK2Freq();
    }
#endif /* USART6 */
    else
    {
      pclk = HAL_RCC_GetPCLK1Freq();
 80051a6:	f7fd fdef 	bl	8002d88 <HAL_RCC_GetPCLK1Freq>
 80051aa:	6778      	str	r0, [r7, #116]	; 0x74
    }
  /*-------------------------- USART BRR Configuration ---------------------*/
  if (huart->Init.OverSampling == UART_OVERSAMPLING_8)
 80051ac:	6efb      	ldr	r3, [r7, #108]	; 0x6c
 80051ae:	69db      	ldr	r3, [r3, #28]
 80051b0:	f5b3 4f00 	cmp.w	r3, #32768	; 0x8000
 80051b4:	f040 80b6 	bne.w	8005324 <UART_SetConfig+0x204>
  {
    huart->Instance->BRR = UART_BRR_SAMPLING8(pclk, huart->Init.BaudRate);
 80051b8:	6f7b      	ldr	r3, [r7, #116]	; 0x74
 80051ba:	461c      	mov	r4, r3
 80051bc:	f04f 0500 	mov.w	r5, #0
 80051c0:	4622      	mov	r2, r4
 80051c2:	462b      	mov	r3, r5
 80051c4:	1891      	adds	r1, r2, r2
 80051c6:	6439      	str	r1, [r7, #64]	; 0x40
 80051c8:	415b      	adcs	r3, r3
 80051ca:	647b      	str	r3, [r7, #68]	; 0x44
 80051cc:	e9d7 2310 	ldrd	r2, r3, [r7, #64]	; 0x40
 80051d0:	1912      	adds	r2, r2, r4
 80051d2:	eb45 0303 	adc.w	r3, r5, r3
 80051d6:	f04f 0000 	mov.w	r0, #0
 80051da:	f04f 0100 	mov.w	r1, #0
 80051de:	00d9      	lsls	r1, r3, #3
 80051e0:	ea41 7152 	orr.w	r1, r1, r2, lsr #29
 80051e4:	00d0      	lsls	r0, r2, #3
 80051e6:	4602      	mov	r2, r0
 80051e8:	460b      	mov	r3, r1
 80051ea:	1911      	adds	r1, r2, r4
 80051ec:	6639      	str	r1, [r7, #96]	; 0x60
 80051ee:	416b      	adcs	r3, r5
 80051f0:	667b      	str	r3, [r7, #100]	; 0x64
 80051f2:	6efb      	ldr	r3, [r7, #108]	; 0x6c
 80051f4:	685b      	ldr	r3, [r3, #4]
 80051f6:	461a      	mov	r2, r3
 80051f8:	f04f 0300 	mov.w	r3, #0
 80051fc:	1891      	adds	r1, r2, r2
 80051fe:	63b9      	str	r1, [r7, #56]	; 0x38
 8005200:	415b      	adcs	r3, r3
 8005202:	63fb      	str	r3, [r7, #60]	; 0x3c
 8005204:	e9d7 230e 	ldrd	r2, r3, [r7, #56]	; 0x38
 8005208:	e9d7 0118 	ldrd	r0, r1, [r7, #96]	; 0x60
 800520c:	f7fb fd3c 	bl	8000c88 <__aeabi_uldivmod>
 8005210:	4602      	mov	r2, r0
 8005212:	460b      	mov	r3, r1
 8005214:	4ba5      	ldr	r3, [pc, #660]	; (80054ac <UART_SetConfig+0x38c>)
 8005216:	fba3 2302 	umull	r2, r3, r3, r2
 800521a:	095b      	lsrs	r3, r3, #5
 800521c:	011e      	lsls	r6, r3, #4
 800521e:	6f7b      	ldr	r3, [r7, #116]	; 0x74
 8005220:	461c      	mov	r4, r3
 8005222:	f04f 0500 	mov.w	r5, #0
 8005226:	4622      	mov	r2, r4
 8005228:	462b      	mov	r3, r5
 800522a:	1891      	adds	r1, r2, r2
 800522c:	6339      	str	r1, [r7, #48]	; 0x30
 800522e:	415b      	adcs	r3, r3
 8005230:	637b      	str	r3, [r7, #52]	; 0x34
 8005232:	e9d7 230c 	ldrd	r2, r3, [r7, #48]	; 0x30
 8005236:	1912      	adds	r2, r2, r4
 8005238:	eb45 0303 	adc.w	r3, r5, r3
 800523c:	f04f 0000 	mov.w	r0, #0
 8005240:	f04f 0100 	mov.w	r1, #0
 8005244:	00d9      	lsls	r1, r3, #3
 8005246:	ea41 7152 	orr.w	r1, r1, r2, lsr #29
 800524a:	00d0      	lsls	r0, r2, #3
 800524c:	4602      	mov	r2, r0
 800524e:	460b      	mov	r3, r1
 8005250:	1911      	adds	r1, r2, r4
 8005252:	65b9      	str	r1, [r7, #88]	; 0x58
 8005254:	416b      	adcs	r3, r5
 8005256:	65fb      	str	r3, [r7, #92]	; 0x5c
 8005258:	6efb      	ldr	r3, [r7, #108]	; 0x6c
 800525a:	685b      	ldr	r3, [r3, #4]
 800525c:	461a      	mov	r2, r3
 800525e:	f04f 0300 	mov.w	r3, #0
 8005262:	1891      	adds	r1, r2, r2
 8005264:	62b9      	str	r1, [r7, #40]	; 0x28
 8005266:	415b      	adcs	r3, r3
 8005268:	62fb      	str	r3, [r7, #44]	; 0x2c
 800526a:	e9d7 230a 	ldrd	r2, r3, [r7, #40]	; 0x28
 800526e:	e9d7 0116 	ldrd	r0, r1, [r7, #88]	; 0x58
 8005272:	f7fb fd09 	bl	8000c88 <__aeabi_uldivmod>
 8005276:	4602      	mov	r2, r0
 8005278:	460b      	mov	r3, r1
 800527a:	4b8c      	ldr	r3, [pc, #560]	; (80054ac <UART_SetConfig+0x38c>)
 800527c:	fba3 1302 	umull	r1, r3, r3, r2
 8005280:	095b      	lsrs	r3, r3, #5
 8005282:	2164      	movs	r1, #100	; 0x64
 8005284:	fb01 f303 	mul.w	r3, r1, r3
 8005288:	1ad3      	subs	r3, r2, r3
 800528a:	00db      	lsls	r3, r3, #3
 800528c:	3332      	adds	r3, #50	; 0x32
 800528e:	4a87      	ldr	r2, [pc, #540]	; (80054ac <UART_SetConfig+0x38c>)
 8005290:	fba2 2303 	umull	r2, r3, r2, r3
 8005294:	095b      	lsrs	r3, r3, #5
 8005296:	005b      	lsls	r3, r3, #1
 8005298:	f403 73f8 	and.w	r3, r3, #496	; 0x1f0
 800529c:	441e      	add	r6, r3
 800529e:	6f7b      	ldr	r3, [r7, #116]	; 0x74
 80052a0:	4618      	mov	r0, r3
 80052a2:	f04f 0100 	mov.w	r1, #0
 80052a6:	4602      	mov	r2, r0
 80052a8:	460b      	mov	r3, r1
 80052aa:	1894      	adds	r4, r2, r2
 80052ac:	623c      	str	r4, [r7, #32]
 80052ae:	415b      	adcs	r3, r3
 80052b0:	627b      	str	r3, [r7, #36]	; 0x24
 80052b2:	e9d7 2308 	ldrd	r2, r3, [r7, #32]
 80052b6:	1812      	adds	r2, r2, r0
 80052b8:	eb41 0303 	adc.w	r3, r1, r3
 80052bc:	f04f 0400 	mov.w	r4, #0
 80052c0:	f04f 0500 	mov.w	r5, #0
 80052c4:	00dd      	lsls	r5, r3, #3
 80052c6:	ea45 7552 	orr.w	r5, r5, r2, lsr #29
 80052ca:	00d4      	lsls	r4, r2, #3
 80052cc:	4622      	mov	r2, r4
 80052ce:	462b      	mov	r3, r5
 80052d0:	1814      	adds	r4, r2, r0
 80052d2:	653c      	str	r4, [r7, #80]	; 0x50
 80052d4:	414b      	adcs	r3, r1
 80052d6:	657b      	str	r3, [r7, #84]	; 0x54
 80052d8:	6efb      	ldr	r3, [r7, #108]	; 0x6c
 80052da:	685b      	ldr	r3, [r3, #4]
 80052dc:	461a      	mov	r2, r3
 80052de:	f04f 0300 	mov.w	r3, #0
 80052e2:	1891      	adds	r1, r2, r2
 80052e4:	61b9      	str	r1, [r7, #24]
 80052e6:	415b      	adcs	r3, r3
 80052e8:	61fb      	str	r3, [r7, #28]
 80052ea:	e9d7 2306 	ldrd	r2, r3, [r7, #24]
 80052ee:	e9d7 0114 	ldrd	r0, r1, [r7, #80]	; 0x50
 80052f2:	f7fb fcc9 	bl	8000c88 <__aeabi_uldivmod>
 80052f6:	4602      	mov	r2, r0
 80052f8:	460b      	mov	r3, r1
 80052fa:	4b6c      	ldr	r3, [pc, #432]	; (80054ac <UART_SetConfig+0x38c>)
 80052fc:	fba3 1302 	umull	r1, r3, r3, r2
 8005300:	095b      	lsrs	r3, r3, #5
 8005302:	2164      	movs	r1, #100	; 0x64
 8005304:	fb01 f303 	mul.w	r3, r1, r3
 8005308:	1ad3      	subs	r3, r2, r3
 800530a:	00db      	lsls	r3, r3, #3
 800530c:	3332      	adds	r3, #50	; 0x32
 800530e:	4a67      	ldr	r2, [pc, #412]	; (80054ac <UART_SetConfig+0x38c>)
 8005310:	fba2 2303 	umull	r2, r3, r2, r3
 8005314:	095b      	lsrs	r3, r3, #5
 8005316:	f003 0207 	and.w	r2, r3, #7
 800531a:	6efb      	ldr	r3, [r7, #108]	; 0x6c
 800531c:	681b      	ldr	r3, [r3, #0]
 800531e:	4432      	add	r2, r6
 8005320:	609a      	str	r2, [r3, #8]
  }
  else
  {
    huart->Instance->BRR = UART_BRR_SAMPLING16(pclk, huart->Init.BaudRate);
  }
}
 8005322:	e0b9      	b.n	8005498 <UART_SetConfig+0x378>
    huart->Instance->BRR = UART_BRR_SAMPLING16(pclk, huart->Init.BaudRate);
 8005324:	6f7b      	ldr	r3, [r7, #116]	; 0x74
 8005326:	461c      	mov	r4, r3
 8005328:	f04f 0500 	mov.w	r5, #0
 800532c:	4622      	mov	r2, r4
 800532e:	462b      	mov	r3, r5
 8005330:	1891      	adds	r1, r2, r2
 8005332:	6139      	str	r1, [r7, #16]
 8005334:	415b      	adcs	r3, r3
 8005336:	617b      	str	r3, [r7, #20]
 8005338:	e9d7 2304 	ldrd	r2, r3, [r7, #16]
 800533c:	1912      	adds	r2, r2, r4
 800533e:	eb45 0303 	adc.w	r3, r5, r3
 8005342:	f04f 0000 	mov.w	r0, #0
 8005346:	f04f 0100 	mov.w	r1, #0
 800534a:	00d9      	lsls	r1, r3, #3
 800534c:	ea41 7152 	orr.w	r1, r1, r2, lsr #29
 8005350:	00d0      	lsls	r0, r2, #3
 8005352:	4602      	mov	r2, r0
 8005354:	460b      	mov	r3, r1
 8005356:	eb12 0804 	adds.w	r8, r2, r4
 800535a:	eb43 0905 	adc.w	r9, r3, r5
 800535e:	6efb      	ldr	r3, [r7, #108]	; 0x6c
 8005360:	685b      	ldr	r3, [r3, #4]
 8005362:	4618      	mov	r0, r3
 8005364:	f04f 0100 	mov.w	r1, #0
 8005368:	f04f 0200 	mov.w	r2, #0
 800536c:	f04f 0300 	mov.w	r3, #0
 8005370:	008b      	lsls	r3, r1, #2
 8005372:	ea43 7390 	orr.w	r3, r3, r0, lsr #30
 8005376:	0082      	lsls	r2, r0, #2
 8005378:	4640      	mov	r0, r8
 800537a:	4649      	mov	r1, r9
 800537c:	f7fb fc84 	bl	8000c88 <__aeabi_uldivmod>
 8005380:	4602      	mov	r2, r0
 8005382:	460b      	mov	r3, r1
 8005384:	4b49      	ldr	r3, [pc, #292]	; (80054ac <UART_SetConfig+0x38c>)
 8005386:	fba3 2302 	umull	r2, r3, r3, r2
 800538a:	095b      	lsrs	r3, r3, #5
 800538c:	011e      	lsls	r6, r3, #4
 800538e:	6f7b      	ldr	r3, [r7, #116]	; 0x74
 8005390:	4618      	mov	r0, r3
 8005392:	f04f 0100 	mov.w	r1, #0
 8005396:	4602      	mov	r2, r0
 8005398:	460b      	mov	r3, r1
 800539a:	1894      	adds	r4, r2, r2
 800539c:	60bc      	str	r4, [r7, #8]
 800539e:	415b      	adcs	r3, r3
 80053a0:	60fb      	str	r3, [r7, #12]
 80053a2:	e9d7 2302 	ldrd	r2, r3, [r7, #8]
 80053a6:	1812      	adds	r2, r2, r0
 80053a8:	eb41 0303 	adc.w	r3, r1, r3
 80053ac:	f04f 0400 	mov.w	r4, #0
 80053b0:	f04f 0500 	mov.w	r5, #0
 80053b4:	00dd      	lsls	r5, r3, #3
 80053b6:	ea45 7552 	orr.w	r5, r5, r2, lsr #29
 80053ba:	00d4      	lsls	r4, r2, #3
 80053bc:	4622      	mov	r2, r4
 80053be:	462b      	mov	r3, r5
 80053c0:	1814      	adds	r4, r2, r0
 80053c2:	64bc      	str	r4, [r7, #72]	; 0x48
 80053c4:	414b      	adcs	r3, r1
 80053c6:	64fb      	str	r3, [r7, #76]	; 0x4c
 80053c8:	6efb      	ldr	r3, [r7, #108]	; 0x6c
 80053ca:	685b      	ldr	r3, [r3, #4]
 80053cc:	4618      	mov	r0, r3
 80053ce:	f04f 0100 	mov.w	r1, #0
 80053d2:	f04f 0200 	mov.w	r2, #0
 80053d6:	f04f 0300 	mov.w	r3, #0
 80053da:	008b      	lsls	r3, r1, #2
 80053dc:	ea43 7390 	orr.w	r3, r3, r0, lsr #30
 80053e0:	0082      	lsls	r2, r0, #2
 80053e2:	e9d7 0112 	ldrd	r0, r1, [r7, #72]	; 0x48
 80053e6:	f7fb fc4f 	bl	8000c88 <__aeabi_uldivmod>
 80053ea:	4602      	mov	r2, r0
 80053ec:	460b      	mov	r3, r1
 80053ee:	4b2f      	ldr	r3, [pc, #188]	; (80054ac <UART_SetConfig+0x38c>)
 80053f0:	fba3 1302 	umull	r1, r3, r3, r2
 80053f4:	095b      	lsrs	r3, r3, #5
 80053f6:	2164      	movs	r1, #100	; 0x64
 80053f8:	fb01 f303 	mul.w	r3, r1, r3
 80053fc:	1ad3      	subs	r3, r2, r3
 80053fe:	011b      	lsls	r3, r3, #4
 8005400:	3332      	adds	r3, #50	; 0x32
 8005402:	4a2a      	ldr	r2, [pc, #168]	; (80054ac <UART_SetConfig+0x38c>)
 8005404:	fba2 2303 	umull	r2, r3, r2, r3
 8005408:	095b      	lsrs	r3, r3, #5
 800540a:	f003 03f0 	and.w	r3, r3, #240	; 0xf0
 800540e:	441e      	add	r6, r3
 8005410:	6f7b      	ldr	r3, [r7, #116]	; 0x74
 8005412:	4618      	mov	r0, r3
 8005414:	f04f 0100 	mov.w	r1, #0
 8005418:	4602      	mov	r2, r0
 800541a:	460b      	mov	r3, r1
 800541c:	1894      	adds	r4, r2, r2
 800541e:	603c      	str	r4, [r7, #0]
 8005420:	415b      	adcs	r3, r3
 8005422:	607b      	str	r3, [r7, #4]
 8005424:	e9d7 2300 	ldrd	r2, r3, [r7]
 8005428:	1812      	adds	r2, r2, r0
 800542a:	eb41 0303 	adc.w	r3, r1, r3
 800542e:	f04f 0400 	mov.w	r4, #0
 8005432:	f04f 0500 	mov.w	r5, #0
 8005436:	00dd      	lsls	r5, r3, #3
 8005438:	ea45 7552 	orr.w	r5, r5, r2, lsr #29
 800543c:	00d4      	lsls	r4, r2, #3
 800543e:	4622      	mov	r2, r4
 8005440:	462b      	mov	r3, r5
 8005442:	eb12 0a00 	adds.w	sl, r2, r0
 8005446:	eb43 0b01 	adc.w	fp, r3, r1
 800544a:	6efb      	ldr	r3, [r7, #108]	; 0x6c
 800544c:	685b      	ldr	r3, [r3, #4]
 800544e:	4618      	mov	r0, r3
 8005450:	f04f 0100 	mov.w	r1, #0
 8005454:	f04f 0200 	mov.w	r2, #0
 8005458:	f04f 0300 	mov.w	r3, #0
 800545c:	008b      	lsls	r3, r1, #2
 800545e:	ea43 7390 	orr.w	r3, r3, r0, lsr #30
 8005462:	0082      	lsls	r2, r0, #2
 8005464:	4650      	mov	r0, sl
 8005466:	4659      	mov	r1, fp
 8005468:	f7fb fc0e 	bl	8000c88 <__aeabi_uldivmod>
 800546c:	4602      	mov	r2, r0
 800546e:	460b      	mov	r3, r1
 8005470:	4b0e      	ldr	r3, [pc, #56]	; (80054ac <UART_SetConfig+0x38c>)
 8005472:	fba3 1302 	umull	r1, r3, r3, r2
 8005476:	095b      	lsrs	r3, r3, #5
 8005478:	2164      	movs	r1, #100	; 0x64
 800547a:	fb01 f303 	mul.w	r3, r1, r3
 800547e:	1ad3      	subs	r3, r2, r3
 8005480:	011b      	lsls	r3, r3, #4
 8005482:	3332      	adds	r3, #50	; 0x32
 8005484:	4a09      	ldr	r2, [pc, #36]	; (80054ac <UART_SetConfig+0x38c>)
 8005486:	fba2 2303 	umull	r2, r3, r2, r3
 800548a:	095b      	lsrs	r3, r3, #5
 800548c:	f003 020f 	and.w	r2, r3, #15
 8005490:	6efb      	ldr	r3, [r7, #108]	; 0x6c
 8005492:	681b      	ldr	r3, [r3, #0]
 8005494:	4432      	add	r2, r6
 8005496:	609a      	str	r2, [r3, #8]
}
 8005498:	bf00      	nop
 800549a:	377c      	adds	r7, #124	; 0x7c
 800549c:	46bd      	mov	sp, r7
 800549e:	e8bd 8ff0 	ldmia.w	sp!, {r4, r5, r6, r7, r8, r9, sl, fp, pc}
 80054a2:	bf00      	nop
 80054a4:	40011000 	.word	0x40011000
 80054a8:	40011400 	.word	0x40011400
 80054ac:	51eb851f 	.word	0x51eb851f

080054b0 <DWT_Delay_us>:
uint32_t DWT_Delay_Init(void);


// This Function Provides Delay In Microseconds Using DWT
__STATIC_INLINE void DWT_Delay_us(volatile uint32_t au32_microseconds)
{
 80054b0:	b580      	push	{r7, lr}
 80054b2:	b084      	sub	sp, #16
 80054b4:	af00      	add	r7, sp, #0
 80054b6:	6078      	str	r0, [r7, #4]
  uint32_t au32_initial_ticks = DWT->CYCCNT;
 80054b8:	4b0f      	ldr	r3, [pc, #60]	; (80054f8 <DWT_Delay_us+0x48>)
 80054ba:	685b      	ldr	r3, [r3, #4]
 80054bc:	60fb      	str	r3, [r7, #12]
  uint32_t au32_ticks = (HAL_RCC_GetHCLKFreq() / 1000000);
 80054be:	f7fd fc57 	bl	8002d70 <HAL_RCC_GetHCLKFreq>
 80054c2:	4603      	mov	r3, r0
 80054c4:	4a0d      	ldr	r2, [pc, #52]	; (80054fc <DWT_Delay_us+0x4c>)
 80054c6:	fba2 2303 	umull	r2, r3, r2, r3
 80054ca:	0c9b      	lsrs	r3, r3, #18
 80054cc:	60bb      	str	r3, [r7, #8]
  au32_microseconds *= au32_ticks;
 80054ce:	687b      	ldr	r3, [r7, #4]
 80054d0:	68ba      	ldr	r2, [r7, #8]
 80054d2:	fb02 f303 	mul.w	r3, r2, r3
 80054d6:	607b      	str	r3, [r7, #4]
  while ((DWT->CYCCNT - au32_initial_ticks) < au32_microseconds-au32_ticks);
 80054d8:	bf00      	nop
 80054da:	4b07      	ldr	r3, [pc, #28]	; (80054f8 <DWT_Delay_us+0x48>)
 80054dc:	685a      	ldr	r2, [r3, #4]
 80054de:	68fb      	ldr	r3, [r7, #12]
 80054e0:	1ad2      	subs	r2, r2, r3
 80054e2:	6879      	ldr	r1, [r7, #4]
 80054e4:	68bb      	ldr	r3, [r7, #8]
 80054e6:	1acb      	subs	r3, r1, r3
 80054e8:	429a      	cmp	r2, r3
 80054ea:	d3f6      	bcc.n	80054da <DWT_Delay_us+0x2a>
}
 80054ec:	bf00      	nop
 80054ee:	bf00      	nop
 80054f0:	3710      	adds	r7, #16
 80054f2:	46bd      	mov	sp, r7
 80054f4:	bd80      	pop	{r7, pc}
 80054f6:	bf00      	nop
 80054f8:	e0001000 	.word	0xe0001000
 80054fc:	431bde83 	.word	0x431bde83

08005500 <HCSR04_Init>:
static HCSR04_info gs_HCSR04_info[HCSR04_UNITS] = {0};



void HCSR04_Init(uint8_t au8_HCSR04_Instance, TIM_HandleTypeDef* TMR_Handle)
{
 8005500:	b580      	push	{r7, lr}
 8005502:	b096      	sub	sp, #88	; 0x58
 8005504:	af00      	add	r7, sp, #0
 8005506:	4603      	mov	r3, r0
 8005508:	6039      	str	r1, [r7, #0]
 800550a:	71fb      	strb	r3, [r7, #7]
	GPIO_InitTypeDef TRIG_GPIO_InitStruct = {0};
 800550c:	f107 0344 	add.w	r3, r7, #68	; 0x44
 8005510:	2200      	movs	r2, #0
 8005512:	601a      	str	r2, [r3, #0]
 8005514:	605a      	str	r2, [r3, #4]
 8005516:	609a      	str	r2, [r3, #8]
 8005518:	60da      	str	r2, [r3, #12]
 800551a:	611a      	str	r2, [r3, #16]
	TIM_ClockConfigTypeDef sClockSourceConfig = {0};
 800551c:	f107 0334 	add.w	r3, r7, #52	; 0x34
 8005520:	2200      	movs	r2, #0
 8005522:	601a      	str	r2, [r3, #0]
 8005524:	605a      	str	r2, [r3, #4]
 8005526:	609a      	str	r2, [r3, #8]
 8005528:	60da      	str	r2, [r3, #12]
	TIM_MasterConfigTypeDef sMasterConfig = {0};
 800552a:	f107 032c 	add.w	r3, r7, #44	; 0x2c
 800552e:	2200      	movs	r2, #0
 8005530:	601a      	str	r2, [r3, #0]
 8005532:	605a      	str	r2, [r3, #4]
	TIM_IC_InitTypeDef sConfigIC = {0};
 8005534:	f107 031c 	add.w	r3, r7, #28
 8005538:	2200      	movs	r2, #0
 800553a:	601a      	str	r2, [r3, #0]
 800553c:	605a      	str	r2, [r3, #4]
 800553e:	609a      	str	r2, [r3, #8]
 8005540:	60da      	str	r2, [r3, #12]

    DWT_Delay_Init();
 8005542:	f000 fc9f 	bl	8005e84 <DWT_Delay_Init>

	/*--------[ Configure The HCSR04 TRIGGER GPIO Pin ]-------*/

    if(HCSR04_CfgParam[au8_HCSR04_Instance].TRIG_GPIO == GPIOA)
 8005546:	79fa      	ldrb	r2, [r7, #7]
 8005548:	4997      	ldr	r1, [pc, #604]	; (80057a8 <HCSR04_Init+0x2a8>)
 800554a:	4613      	mov	r3, r2
 800554c:	009b      	lsls	r3, r3, #2
 800554e:	4413      	add	r3, r2
 8005550:	009b      	lsls	r3, r3, #2
 8005552:	440b      	add	r3, r1
 8005554:	681b      	ldr	r3, [r3, #0]
 8005556:	4a95      	ldr	r2, [pc, #596]	; (80057ac <HCSR04_Init+0x2ac>)
 8005558:	4293      	cmp	r3, r2
 800555a:	d10e      	bne.n	800557a <HCSR04_Init+0x7a>
    {
    	__HAL_RCC_GPIOA_CLK_ENABLE();
 800555c:	2300      	movs	r3, #0
 800555e:	61bb      	str	r3, [r7, #24]
 8005560:	4b93      	ldr	r3, [pc, #588]	; (80057b0 <HCSR04_Init+0x2b0>)
 8005562:	6b1b      	ldr	r3, [r3, #48]	; 0x30
 8005564:	4a92      	ldr	r2, [pc, #584]	; (80057b0 <HCSR04_Init+0x2b0>)
 8005566:	f043 0301 	orr.w	r3, r3, #1
 800556a:	6313      	str	r3, [r2, #48]	; 0x30
 800556c:	4b90      	ldr	r3, [pc, #576]	; (80057b0 <HCSR04_Init+0x2b0>)
 800556e:	6b1b      	ldr	r3, [r3, #48]	; 0x30
 8005570:	f003 0301 	and.w	r3, r3, #1
 8005574:	61bb      	str	r3, [r7, #24]
 8005576:	69bb      	ldr	r3, [r7, #24]
 8005578:	e066      	b.n	8005648 <HCSR04_Init+0x148>
    }
    else if(HCSR04_CfgParam[au8_HCSR04_Instance].TRIG_GPIO == GPIOB)
 800557a:	79fa      	ldrb	r2, [r7, #7]
 800557c:	498a      	ldr	r1, [pc, #552]	; (80057a8 <HCSR04_Init+0x2a8>)
 800557e:	4613      	mov	r3, r2
 8005580:	009b      	lsls	r3, r3, #2
 8005582:	4413      	add	r3, r2
 8005584:	009b      	lsls	r3, r3, #2
 8005586:	440b      	add	r3, r1
 8005588:	681b      	ldr	r3, [r3, #0]
 800558a:	4a8a      	ldr	r2, [pc, #552]	; (80057b4 <HCSR04_Init+0x2b4>)
 800558c:	4293      	cmp	r3, r2
 800558e:	d10e      	bne.n	80055ae <HCSR04_Init+0xae>
    {
    	__HAL_RCC_GPIOB_CLK_ENABLE();
 8005590:	2300      	movs	r3, #0
 8005592:	617b      	str	r3, [r7, #20]
 8005594:	4b86      	ldr	r3, [pc, #536]	; (80057b0 <HCSR04_Init+0x2b0>)
 8005596:	6b1b      	ldr	r3, [r3, #48]	; 0x30
 8005598:	4a85      	ldr	r2, [pc, #532]	; (80057b0 <HCSR04_Init+0x2b0>)
 800559a:	f043 0302 	orr.w	r3, r3, #2
 800559e:	6313      	str	r3, [r2, #48]	; 0x30
 80055a0:	4b83      	ldr	r3, [pc, #524]	; (80057b0 <HCSR04_Init+0x2b0>)
 80055a2:	6b1b      	ldr	r3, [r3, #48]	; 0x30
 80055a4:	f003 0302 	and.w	r3, r3, #2
 80055a8:	617b      	str	r3, [r7, #20]
 80055aa:	697b      	ldr	r3, [r7, #20]
 80055ac:	e04c      	b.n	8005648 <HCSR04_Init+0x148>
    }
    else if(HCSR04_CfgParam[au8_HCSR04_Instance].TRIG_GPIO == GPIOC)
 80055ae:	79fa      	ldrb	r2, [r7, #7]
 80055b0:	497d      	ldr	r1, [pc, #500]	; (80057a8 <HCSR04_Init+0x2a8>)
 80055b2:	4613      	mov	r3, r2
 80055b4:	009b      	lsls	r3, r3, #2
 80055b6:	4413      	add	r3, r2
 80055b8:	009b      	lsls	r3, r3, #2
 80055ba:	440b      	add	r3, r1
 80055bc:	681b      	ldr	r3, [r3, #0]
 80055be:	4a7e      	ldr	r2, [pc, #504]	; (80057b8 <HCSR04_Init+0x2b8>)
 80055c0:	4293      	cmp	r3, r2
 80055c2:	d10e      	bne.n	80055e2 <HCSR04_Init+0xe2>
    {
        __HAL_RCC_GPIOC_CLK_ENABLE();
 80055c4:	2300      	movs	r3, #0
 80055c6:	613b      	str	r3, [r7, #16]
 80055c8:	4b79      	ldr	r3, [pc, #484]	; (80057b0 <HCSR04_Init+0x2b0>)
 80055ca:	6b1b      	ldr	r3, [r3, #48]	; 0x30
 80055cc:	4a78      	ldr	r2, [pc, #480]	; (80057b0 <HCSR04_Init+0x2b0>)
 80055ce:	f043 0304 	orr.w	r3, r3, #4
 80055d2:	6313      	str	r3, [r2, #48]	; 0x30
 80055d4:	4b76      	ldr	r3, [pc, #472]	; (80057b0 <HCSR04_Init+0x2b0>)
 80055d6:	6b1b      	ldr	r3, [r3, #48]	; 0x30
 80055d8:	f003 0304 	and.w	r3, r3, #4
 80055dc:	613b      	str	r3, [r7, #16]
 80055de:	693b      	ldr	r3, [r7, #16]
 80055e0:	e032      	b.n	8005648 <HCSR04_Init+0x148>
    }
    else if(HCSR04_CfgParam[au8_HCSR04_Instance].TRIG_GPIO == GPIOD)
 80055e2:	79fa      	ldrb	r2, [r7, #7]
 80055e4:	4970      	ldr	r1, [pc, #448]	; (80057a8 <HCSR04_Init+0x2a8>)
 80055e6:	4613      	mov	r3, r2
 80055e8:	009b      	lsls	r3, r3, #2
 80055ea:	4413      	add	r3, r2
 80055ec:	009b      	lsls	r3, r3, #2
 80055ee:	440b      	add	r3, r1
 80055f0:	681b      	ldr	r3, [r3, #0]
 80055f2:	4a72      	ldr	r2, [pc, #456]	; (80057bc <HCSR04_Init+0x2bc>)
 80055f4:	4293      	cmp	r3, r2
 80055f6:	d10e      	bne.n	8005616 <HCSR04_Init+0x116>
    {
        __HAL_RCC_GPIOD_CLK_ENABLE();
 80055f8:	2300      	movs	r3, #0
 80055fa:	60fb      	str	r3, [r7, #12]
 80055fc:	4b6c      	ldr	r3, [pc, #432]	; (80057b0 <HCSR04_Init+0x2b0>)
 80055fe:	6b1b      	ldr	r3, [r3, #48]	; 0x30
 8005600:	4a6b      	ldr	r2, [pc, #428]	; (80057b0 <HCSR04_Init+0x2b0>)
 8005602:	f043 0308 	orr.w	r3, r3, #8
 8005606:	6313      	str	r3, [r2, #48]	; 0x30
 8005608:	4b69      	ldr	r3, [pc, #420]	; (80057b0 <HCSR04_Init+0x2b0>)
 800560a:	6b1b      	ldr	r3, [r3, #48]	; 0x30
 800560c:	f003 0308 	and.w	r3, r3, #8
 8005610:	60fb      	str	r3, [r7, #12]
 8005612:	68fb      	ldr	r3, [r7, #12]
 8005614:	e018      	b.n	8005648 <HCSR04_Init+0x148>
    }
    else if(HCSR04_CfgParam[au8_HCSR04_Instance].TRIG_GPIO == GPIOE)
 8005616:	79fa      	ldrb	r2, [r7, #7]
 8005618:	4963      	ldr	r1, [pc, #396]	; (80057a8 <HCSR04_Init+0x2a8>)
 800561a:	4613      	mov	r3, r2
 800561c:	009b      	lsls	r3, r3, #2
 800561e:	4413      	add	r3, r2
 8005620:	009b      	lsls	r3, r3, #2
 8005622:	440b      	add	r3, r1
 8005624:	681b      	ldr	r3, [r3, #0]
 8005626:	4a66      	ldr	r2, [pc, #408]	; (80057c0 <HCSR04_Init+0x2c0>)
 8005628:	4293      	cmp	r3, r2
 800562a:	d10d      	bne.n	8005648 <HCSR04_Init+0x148>
    {
        __HAL_RCC_GPIOE_CLK_ENABLE();
 800562c:	2300      	movs	r3, #0
 800562e:	60bb      	str	r3, [r7, #8]
 8005630:	4b5f      	ldr	r3, [pc, #380]	; (80057b0 <HCSR04_Init+0x2b0>)
 8005632:	6b1b      	ldr	r3, [r3, #48]	; 0x30
 8005634:	4a5e      	ldr	r2, [pc, #376]	; (80057b0 <HCSR04_Init+0x2b0>)
 8005636:	f043 0310 	orr.w	r3, r3, #16
 800563a:	6313      	str	r3, [r2, #48]	; 0x30
 800563c:	4b5c      	ldr	r3, [pc, #368]	; (80057b0 <HCSR04_Init+0x2b0>)
 800563e:	6b1b      	ldr	r3, [r3, #48]	; 0x30
 8005640:	f003 0310 	and.w	r3, r3, #16
 8005644:	60bb      	str	r3, [r7, #8]
 8005646:	68bb      	ldr	r3, [r7, #8]
    }
    TRIG_GPIO_InitStruct.Pin = HCSR04_CfgParam[au8_HCSR04_Instance].TRIG_PIN;
 8005648:	79fa      	ldrb	r2, [r7, #7]
 800564a:	4957      	ldr	r1, [pc, #348]	; (80057a8 <HCSR04_Init+0x2a8>)
 800564c:	4613      	mov	r3, r2
 800564e:	009b      	lsls	r3, r3, #2
 8005650:	4413      	add	r3, r2
 8005652:	009b      	lsls	r3, r3, #2
 8005654:	440b      	add	r3, r1
 8005656:	3304      	adds	r3, #4
 8005658:	881b      	ldrh	r3, [r3, #0]
 800565a:	647b      	str	r3, [r7, #68]	; 0x44
    TRIG_GPIO_InitStruct.Mode = GPIO_MODE_OUTPUT_PP;
 800565c:	2301      	movs	r3, #1
 800565e:	64bb      	str	r3, [r7, #72]	; 0x48
    TRIG_GPIO_InitStruct.Pull = GPIO_NOPULL;
 8005660:	2300      	movs	r3, #0
 8005662:	64fb      	str	r3, [r7, #76]	; 0x4c
    TRIG_GPIO_InitStruct.Speed = GPIO_SPEED_FREQ_LOW;
 8005664:	2300      	movs	r3, #0
 8005666:	653b      	str	r3, [r7, #80]	; 0x50
	HAL_GPIO_Init(HCSR04_CfgParam[au8_HCSR04_Instance].TRIG_GPIO, &TRIG_GPIO_InitStruct);
 8005668:	79fa      	ldrb	r2, [r7, #7]
 800566a:	494f      	ldr	r1, [pc, #316]	; (80057a8 <HCSR04_Init+0x2a8>)
 800566c:	4613      	mov	r3, r2
 800566e:	009b      	lsls	r3, r3, #2
 8005670:	4413      	add	r3, r2
 8005672:	009b      	lsls	r3, r3, #2
 8005674:	440b      	add	r3, r1
 8005676:	681b      	ldr	r3, [r3, #0]
 8005678:	f107 0244 	add.w	r2, r7, #68	; 0x44
 800567c:	4611      	mov	r1, r2
 800567e:	4618      	mov	r0, r3
 8005680:	f7fd f8e2 	bl	8002848 <HAL_GPIO_Init>

	/*--------[ Initialize The HCSR04 Static Global Info ]-------*/

	gs_HCSR04_info[au8_HCSR04_Instance].TMR_PSC = HCSR04_CfgParam[au8_HCSR04_Instance].TIM_Instance->PSC;
 8005684:	79fa      	ldrb	r2, [r7, #7]
 8005686:	4948      	ldr	r1, [pc, #288]	; (80057a8 <HCSR04_Init+0x2a8>)
 8005688:	4613      	mov	r3, r2
 800568a:	009b      	lsls	r3, r3, #2
 800568c:	4413      	add	r3, r2
 800568e:	009b      	lsls	r3, r3, #2
 8005690:	440b      	add	r3, r1
 8005692:	3308      	adds	r3, #8
 8005694:	681b      	ldr	r3, [r3, #0]
 8005696:	79fa      	ldrb	r2, [r7, #7]
 8005698:	6a99      	ldr	r1, [r3, #40]	; 0x28
 800569a:	484a      	ldr	r0, [pc, #296]	; (80057c4 <HCSR04_Init+0x2c4>)
 800569c:	4613      	mov	r3, r2
 800569e:	00db      	lsls	r3, r3, #3
 80056a0:	4413      	add	r3, r2
 80056a2:	009b      	lsls	r3, r3, #2
 80056a4:	4403      	add	r3, r0
 80056a6:	3304      	adds	r3, #4
 80056a8:	6019      	str	r1, [r3, #0]
	gs_HCSR04_info[au8_HCSR04_Instance].TMR_ARR = HCSR04_CfgParam[au8_HCSR04_Instance].TIM_Instance->ARR;
 80056aa:	79fa      	ldrb	r2, [r7, #7]
 80056ac:	493e      	ldr	r1, [pc, #248]	; (80057a8 <HCSR04_Init+0x2a8>)
 80056ae:	4613      	mov	r3, r2
 80056b0:	009b      	lsls	r3, r3, #2
 80056b2:	4413      	add	r3, r2
 80056b4:	009b      	lsls	r3, r3, #2
 80056b6:	440b      	add	r3, r1
 80056b8:	3308      	adds	r3, #8
 80056ba:	681b      	ldr	r3, [r3, #0]
 80056bc:	79fa      	ldrb	r2, [r7, #7]
 80056be:	6ad9      	ldr	r1, [r3, #44]	; 0x2c
 80056c0:	4840      	ldr	r0, [pc, #256]	; (80057c4 <HCSR04_Init+0x2c4>)
 80056c2:	4613      	mov	r3, r2
 80056c4:	00db      	lsls	r3, r3, #3
 80056c6:	4413      	add	r3, r2
 80056c8:	009b      	lsls	r3, r3, #2
 80056ca:	4403      	add	r3, r0
 80056cc:	3308      	adds	r3, #8
 80056ce:	6019      	str	r1, [r3, #0]
	gs_HCSR04_info[au8_HCSR04_Instance].TMR_OVC = 0;
 80056d0:	79fa      	ldrb	r2, [r7, #7]
 80056d2:	493c      	ldr	r1, [pc, #240]	; (80057c4 <HCSR04_Init+0x2c4>)
 80056d4:	4613      	mov	r3, r2
 80056d6:	00db      	lsls	r3, r3, #3
 80056d8:	4413      	add	r3, r2
 80056da:	009b      	lsls	r3, r3, #2
 80056dc:	440b      	add	r3, r1
 80056de:	3302      	adds	r3, #2
 80056e0:	2200      	movs	r2, #0
 80056e2:	801a      	strh	r2, [r3, #0]
		gs_HCSR04_info[au8_HCSR04_Instance].HTIM = TMR_Handle;
 80056e4:	79fa      	ldrb	r2, [r7, #7]
 80056e6:	4937      	ldr	r1, [pc, #220]	; (80057c4 <HCSR04_Init+0x2c4>)
 80056e8:	4613      	mov	r3, r2
 80056ea:	00db      	lsls	r3, r3, #3
 80056ec:	4413      	add	r3, r2
 80056ee:	009b      	lsls	r3, r3, #2
 80056f0:	440b      	add	r3, r1
 80056f2:	331c      	adds	r3, #28
 80056f4:	683a      	ldr	r2, [r7, #0]
 80056f6:	601a      	str	r2, [r3, #0]
	if(gs_HCSR04_info[au8_HCSR04_Instance].TMR_ARR == 0)
 80056f8:	79fa      	ldrb	r2, [r7, #7]
 80056fa:	4932      	ldr	r1, [pc, #200]	; (80057c4 <HCSR04_Init+0x2c4>)
 80056fc:	4613      	mov	r3, r2
 80056fe:	00db      	lsls	r3, r3, #3
 8005700:	4413      	add	r3, r2
 8005702:	009b      	lsls	r3, r3, #2
 8005704:	440b      	add	r3, r1
 8005706:	3308      	adds	r3, #8
 8005708:	681b      	ldr	r3, [r3, #0]
 800570a:	2b00      	cmp	r3, #0
 800570c:	d10a      	bne.n	8005724 <HCSR04_Init+0x224>
	{
		gs_HCSR04_info[au8_HCSR04_Instance].TMR_ARR = 65535;
 800570e:	79fa      	ldrb	r2, [r7, #7]
 8005710:	492c      	ldr	r1, [pc, #176]	; (80057c4 <HCSR04_Init+0x2c4>)
 8005712:	4613      	mov	r3, r2
 8005714:	00db      	lsls	r3, r3, #3
 8005716:	4413      	add	r3, r2
 8005718:	009b      	lsls	r3, r3, #2
 800571a:	440b      	add	r3, r1
 800571c:	3308      	adds	r3, #8
 800571e:	f64f 72ff 	movw	r2, #65535	; 0xffff
 8005722:	601a      	str	r2, [r3, #0]
	}
	if(HCSR04_CfgParam[au8_HCSR04_Instance].IC_TIM_CH == TIM_CHANNEL_1)
 8005724:	79fa      	ldrb	r2, [r7, #7]
 8005726:	4920      	ldr	r1, [pc, #128]	; (80057a8 <HCSR04_Init+0x2a8>)
 8005728:	4613      	mov	r3, r2
 800572a:	009b      	lsls	r3, r3, #2
 800572c:	4413      	add	r3, r2
 800572e:	009b      	lsls	r3, r3, #2
 8005730:	440b      	add	r3, r1
 8005732:	330c      	adds	r3, #12
 8005734:	681b      	ldr	r3, [r3, #0]
 8005736:	2b00      	cmp	r3, #0
 8005738:	d10a      	bne.n	8005750 <HCSR04_Init+0x250>
	{
		gs_HCSR04_info[au8_HCSR04_Instance].ACTIV_CH = HAL_TIM_ACTIVE_CHANNEL_1;
 800573a:	79fa      	ldrb	r2, [r7, #7]
 800573c:	4921      	ldr	r1, [pc, #132]	; (80057c4 <HCSR04_Init+0x2c4>)
 800573e:	4613      	mov	r3, r2
 8005740:	00db      	lsls	r3, r3, #3
 8005742:	4413      	add	r3, r2
 8005744:	009b      	lsls	r3, r3, #2
 8005746:	440b      	add	r3, r1
 8005748:	3320      	adds	r3, #32
 800574a:	2201      	movs	r2, #1
 800574c:	701a      	strb	r2, [r3, #0]
 800574e:	e050      	b.n	80057f2 <HCSR04_Init+0x2f2>
	}
	else if(HCSR04_CfgParam[au8_HCSR04_Instance].IC_TIM_CH == TIM_CHANNEL_2)
 8005750:	79fa      	ldrb	r2, [r7, #7]
 8005752:	4915      	ldr	r1, [pc, #84]	; (80057a8 <HCSR04_Init+0x2a8>)
 8005754:	4613      	mov	r3, r2
 8005756:	009b      	lsls	r3, r3, #2
 8005758:	4413      	add	r3, r2
 800575a:	009b      	lsls	r3, r3, #2
 800575c:	440b      	add	r3, r1
 800575e:	330c      	adds	r3, #12
 8005760:	681b      	ldr	r3, [r3, #0]
 8005762:	2b04      	cmp	r3, #4
 8005764:	d10a      	bne.n	800577c <HCSR04_Init+0x27c>
	{
		gs_HCSR04_info[au8_HCSR04_Instance].ACTIV_CH = HAL_TIM_ACTIVE_CHANNEL_2;
 8005766:	79fa      	ldrb	r2, [r7, #7]
 8005768:	4916      	ldr	r1, [pc, #88]	; (80057c4 <HCSR04_Init+0x2c4>)
 800576a:	4613      	mov	r3, r2
 800576c:	00db      	lsls	r3, r3, #3
 800576e:	4413      	add	r3, r2
 8005770:	009b      	lsls	r3, r3, #2
 8005772:	440b      	add	r3, r1
 8005774:	3320      	adds	r3, #32
 8005776:	2202      	movs	r2, #2
 8005778:	701a      	strb	r2, [r3, #0]
 800577a:	e03a      	b.n	80057f2 <HCSR04_Init+0x2f2>
	}
	else if(HCSR04_CfgParam[au8_HCSR04_Instance].IC_TIM_CH == TIM_CHANNEL_3)
 800577c:	79fa      	ldrb	r2, [r7, #7]
 800577e:	490a      	ldr	r1, [pc, #40]	; (80057a8 <HCSR04_Init+0x2a8>)
 8005780:	4613      	mov	r3, r2
 8005782:	009b      	lsls	r3, r3, #2
 8005784:	4413      	add	r3, r2
 8005786:	009b      	lsls	r3, r3, #2
 8005788:	440b      	add	r3, r1
 800578a:	330c      	adds	r3, #12
 800578c:	681b      	ldr	r3, [r3, #0]
 800578e:	2b08      	cmp	r3, #8
 8005790:	d11a      	bne.n	80057c8 <HCSR04_Init+0x2c8>
	{
		gs_HCSR04_info[au8_HCSR04_Instance].ACTIV_CH = HAL_TIM_ACTIVE_CHANNEL_3;
 8005792:	79fa      	ldrb	r2, [r7, #7]
 8005794:	490b      	ldr	r1, [pc, #44]	; (80057c4 <HCSR04_Init+0x2c4>)
 8005796:	4613      	mov	r3, r2
 8005798:	00db      	lsls	r3, r3, #3
 800579a:	4413      	add	r3, r2
 800579c:	009b      	lsls	r3, r3, #2
 800579e:	440b      	add	r3, r1
 80057a0:	3320      	adds	r3, #32
 80057a2:	2204      	movs	r2, #4
 80057a4:	701a      	strb	r2, [r3, #0]
 80057a6:	e024      	b.n	80057f2 <HCSR04_Init+0x2f2>
 80057a8:	08008ce0 	.word	0x08008ce0
 80057ac:	40020000 	.word	0x40020000
 80057b0:	40023800 	.word	0x40023800
 80057b4:	40020400 	.word	0x40020400
 80057b8:	40020800 	.word	0x40020800
 80057bc:	40020c00 	.word	0x40020c00
 80057c0:	40021000 	.word	0x40021000
 80057c4:	20000228 	.word	0x20000228
	}
	else if(HCSR04_CfgParam[au8_HCSR04_Instance].IC_TIM_CH == TIM_CHANNEL_4)
 80057c8:	79fa      	ldrb	r2, [r7, #7]
 80057ca:	4941      	ldr	r1, [pc, #260]	; (80058d0 <HCSR04_Init+0x3d0>)
 80057cc:	4613      	mov	r3, r2
 80057ce:	009b      	lsls	r3, r3, #2
 80057d0:	4413      	add	r3, r2
 80057d2:	009b      	lsls	r3, r3, #2
 80057d4:	440b      	add	r3, r1
 80057d6:	330c      	adds	r3, #12
 80057d8:	681b      	ldr	r3, [r3, #0]
 80057da:	2b0c      	cmp	r3, #12
 80057dc:	d109      	bne.n	80057f2 <HCSR04_Init+0x2f2>
	{
		gs_HCSR04_info[au8_HCSR04_Instance].ACTIV_CH = HAL_TIM_ACTIVE_CHANNEL_4;
 80057de:	79fa      	ldrb	r2, [r7, #7]
 80057e0:	493c      	ldr	r1, [pc, #240]	; (80058d4 <HCSR04_Init+0x3d4>)
 80057e2:	4613      	mov	r3, r2
 80057e4:	00db      	lsls	r3, r3, #3
 80057e6:	4413      	add	r3, r2
 80057e8:	009b      	lsls	r3, r3, #2
 80057ea:	440b      	add	r3, r1
 80057ec:	3320      	adds	r3, #32
 80057ee:	2208      	movs	r2, #8
 80057f0:	701a      	strb	r2, [r3, #0]
	}

	/*--------[ Configure The HCSR04 IC Timer Channel ]-------*/

	TMR_Handle->Instance = HCSR04_CfgParam[au8_HCSR04_Instance].TIM_Instance;
 80057f2:	79fa      	ldrb	r2, [r7, #7]
 80057f4:	4936      	ldr	r1, [pc, #216]	; (80058d0 <HCSR04_Init+0x3d0>)
 80057f6:	4613      	mov	r3, r2
 80057f8:	009b      	lsls	r3, r3, #2
 80057fa:	4413      	add	r3, r2
 80057fc:	009b      	lsls	r3, r3, #2
 80057fe:	440b      	add	r3, r1
 8005800:	3308      	adds	r3, #8
 8005802:	681a      	ldr	r2, [r3, #0]
 8005804:	683b      	ldr	r3, [r7, #0]
 8005806:	601a      	str	r2, [r3, #0]
	TMR_Handle->Init.Prescaler = gs_HCSR04_info[au8_HCSR04_Instance].TMR_PSC;
 8005808:	79fa      	ldrb	r2, [r7, #7]
 800580a:	4932      	ldr	r1, [pc, #200]	; (80058d4 <HCSR04_Init+0x3d4>)
 800580c:	4613      	mov	r3, r2
 800580e:	00db      	lsls	r3, r3, #3
 8005810:	4413      	add	r3, r2
 8005812:	009b      	lsls	r3, r3, #2
 8005814:	440b      	add	r3, r1
 8005816:	3304      	adds	r3, #4
 8005818:	681a      	ldr	r2, [r3, #0]
 800581a:	683b      	ldr	r3, [r7, #0]
 800581c:	605a      	str	r2, [r3, #4]
	TMR_Handle->Init.CounterMode = TIM_COUNTERMODE_UP;
 800581e:	683b      	ldr	r3, [r7, #0]
 8005820:	2200      	movs	r2, #0
 8005822:	609a      	str	r2, [r3, #8]
	TMR_Handle->Init.Period = gs_HCSR04_info[au8_HCSR04_Instance].TMR_ARR;
 8005824:	79fa      	ldrb	r2, [r7, #7]
 8005826:	492b      	ldr	r1, [pc, #172]	; (80058d4 <HCSR04_Init+0x3d4>)
 8005828:	4613      	mov	r3, r2
 800582a:	00db      	lsls	r3, r3, #3
 800582c:	4413      	add	r3, r2
 800582e:	009b      	lsls	r3, r3, #2
 8005830:	440b      	add	r3, r1
 8005832:	3308      	adds	r3, #8
 8005834:	681a      	ldr	r2, [r3, #0]
 8005836:	683b      	ldr	r3, [r7, #0]
 8005838:	60da      	str	r2, [r3, #12]
	TMR_Handle->Init.ClockDivision = TIM_CLOCKDIVISION_DIV1;
 800583a:	683b      	ldr	r3, [r7, #0]
 800583c:	2200      	movs	r2, #0
 800583e:	611a      	str	r2, [r3, #16]
	TMR_Handle->Init.AutoReloadPreload = TIM_AUTORELOAD_PRELOAD_ENABLE;
 8005840:	683b      	ldr	r3, [r7, #0]
 8005842:	2280      	movs	r2, #128	; 0x80
 8005844:	619a      	str	r2, [r3, #24]
	HAL_TIM_Base_Init(TMR_Handle);
 8005846:	6838      	ldr	r0, [r7, #0]
 8005848:	f7fd ff16 	bl	8003678 <HAL_TIM_Base_Init>
	sClockSourceConfig.ClockSource = TIM_CLOCKSOURCE_INTERNAL;
 800584c:	f44f 5380 	mov.w	r3, #4096	; 0x1000
 8005850:	637b      	str	r3, [r7, #52]	; 0x34
	HAL_TIM_ConfigClockSource(TMR_Handle, &sClockSourceConfig);
 8005852:	f107 0334 	add.w	r3, r7, #52	; 0x34
 8005856:	4619      	mov	r1, r3
 8005858:	6838      	ldr	r0, [r7, #0]
 800585a:	f7fe fccd 	bl	80041f8 <HAL_TIM_ConfigClockSource>
	HAL_TIM_IC_Init(TMR_Handle);
 800585e:	6838      	ldr	r0, [r7, #0]
 8005860:	f7fe f8e2 	bl	8003a28 <HAL_TIM_IC_Init>
	sMasterConfig.MasterOutputTrigger = TIM_TRGO_RESET;
 8005864:	2300      	movs	r3, #0
 8005866:	62fb      	str	r3, [r7, #44]	; 0x2c
	sMasterConfig.MasterSlaveMode = TIM_MASTERSLAVEMODE_DISABLE;
 8005868:	2300      	movs	r3, #0
 800586a:	633b      	str	r3, [r7, #48]	; 0x30
	HAL_TIMEx_MasterConfigSynchronization(TMR_Handle, &sMasterConfig);
 800586c:	f107 032c 	add.w	r3, r7, #44	; 0x2c
 8005870:	4619      	mov	r1, r3
 8005872:	6838      	ldr	r0, [r7, #0]
 8005874:	f7ff fa24 	bl	8004cc0 <HAL_TIMEx_MasterConfigSynchronization>
	sConfigIC.ICPolarity = TIM_INPUTCHANNELPOLARITY_RISING;
 8005878:	2300      	movs	r3, #0
 800587a:	61fb      	str	r3, [r7, #28]
	sConfigIC.ICSelection = TIM_ICSELECTION_DIRECTTI;
 800587c:	2301      	movs	r3, #1
 800587e:	623b      	str	r3, [r7, #32]
	sConfigIC.ICPrescaler = TIM_ICPSC_DIV1;
 8005880:	2300      	movs	r3, #0
 8005882:	627b      	str	r3, [r7, #36]	; 0x24
	sConfigIC.ICFilter = 0;
 8005884:	2300      	movs	r3, #0
 8005886:	62bb      	str	r3, [r7, #40]	; 0x28
	HAL_TIM_IC_ConfigChannel(TMR_Handle, &sConfigIC, HCSR04_CfgParam[au8_HCSR04_Instance].IC_TIM_CH);
 8005888:	79fa      	ldrb	r2, [r7, #7]
 800588a:	4911      	ldr	r1, [pc, #68]	; (80058d0 <HCSR04_Init+0x3d0>)
 800588c:	4613      	mov	r3, r2
 800588e:	009b      	lsls	r3, r3, #2
 8005890:	4413      	add	r3, r2
 8005892:	009b      	lsls	r3, r3, #2
 8005894:	440b      	add	r3, r1
 8005896:	330c      	adds	r3, #12
 8005898:	681a      	ldr	r2, [r3, #0]
 800589a:	f107 031c 	add.w	r3, r7, #28
 800589e:	4619      	mov	r1, r3
 80058a0:	6838      	ldr	r0, [r7, #0]
 80058a2:	f7fe fb4b 	bl	8003f3c <HAL_TIM_IC_ConfigChannel>

	/*--------[ Start The ICU Channel ]-------*/

	HAL_TIM_Base_Start_IT(TMR_Handle);
 80058a6:	6838      	ldr	r0, [r7, #0]
 80058a8:	f7fd ff36 	bl	8003718 <HAL_TIM_Base_Start_IT>
	HAL_TIM_IC_Start_IT(TMR_Handle, HCSR04_CfgParam[au8_HCSR04_Instance].IC_TIM_CH);
 80058ac:	79fa      	ldrb	r2, [r7, #7]
 80058ae:	4908      	ldr	r1, [pc, #32]	; (80058d0 <HCSR04_Init+0x3d0>)
 80058b0:	4613      	mov	r3, r2
 80058b2:	009b      	lsls	r3, r3, #2
 80058b4:	4413      	add	r3, r2
 80058b6:	009b      	lsls	r3, r3, #2
 80058b8:	440b      	add	r3, r1
 80058ba:	330c      	adds	r3, #12
 80058bc:	681b      	ldr	r3, [r3, #0]
 80058be:	4619      	mov	r1, r3
 80058c0:	6838      	ldr	r0, [r7, #0]
 80058c2:	f7fe f90b 	bl	8003adc <HAL_TIM_IC_Start_IT>
}
 80058c6:	bf00      	nop
 80058c8:	3758      	adds	r7, #88	; 0x58
 80058ca:	46bd      	mov	sp, r7
 80058cc:	bd80      	pop	{r7, pc}
 80058ce:	bf00      	nop
 80058d0:	08008ce0 	.word	0x08008ce0
 80058d4:	20000228 	.word	0x20000228

080058d8 <HCSR04_TMR_OVF_ISR>:


void HCSR04_TMR_OVF_ISR(TIM_HandleTypeDef* htim)
{
 80058d8:	b480      	push	{r7}
 80058da:	b085      	sub	sp, #20
 80058dc:	af00      	add	r7, sp, #0
 80058de:	6078      	str	r0, [r7, #4]
	uint8_t i = 0;
 80058e0:	2300      	movs	r3, #0
 80058e2:	73fb      	strb	r3, [r7, #15]
	for(i=0; i<HCSR04_UNITS; i++)
 80058e4:	2300      	movs	r3, #0
 80058e6:	73fb      	strb	r3, [r7, #15]
 80058e8:	e023      	b.n	8005932 <HCSR04_TMR_OVF_ISR+0x5a>
	{
		if(htim->Instance == HCSR04_CfgParam[i].TIM_Instance)
 80058ea:	687b      	ldr	r3, [r7, #4]
 80058ec:	6819      	ldr	r1, [r3, #0]
 80058ee:	7bfa      	ldrb	r2, [r7, #15]
 80058f0:	4815      	ldr	r0, [pc, #84]	; (8005948 <HCSR04_TMR_OVF_ISR+0x70>)
 80058f2:	4613      	mov	r3, r2
 80058f4:	009b      	lsls	r3, r3, #2
 80058f6:	4413      	add	r3, r2
 80058f8:	009b      	lsls	r3, r3, #2
 80058fa:	4403      	add	r3, r0
 80058fc:	3308      	adds	r3, #8
 80058fe:	681b      	ldr	r3, [r3, #0]
 8005900:	4299      	cmp	r1, r3
 8005902:	d113      	bne.n	800592c <HCSR04_TMR_OVF_ISR+0x54>
		{
			gs_HCSR04_info[i].TMR_OVC++;
 8005904:	7bfa      	ldrb	r2, [r7, #15]
 8005906:	4911      	ldr	r1, [pc, #68]	; (800594c <HCSR04_TMR_OVF_ISR+0x74>)
 8005908:	4613      	mov	r3, r2
 800590a:	00db      	lsls	r3, r3, #3
 800590c:	4413      	add	r3, r2
 800590e:	009b      	lsls	r3, r3, #2
 8005910:	440b      	add	r3, r1
 8005912:	3302      	adds	r3, #2
 8005914:	881b      	ldrh	r3, [r3, #0]
 8005916:	3301      	adds	r3, #1
 8005918:	b298      	uxth	r0, r3
 800591a:	490c      	ldr	r1, [pc, #48]	; (800594c <HCSR04_TMR_OVF_ISR+0x74>)
 800591c:	4613      	mov	r3, r2
 800591e:	00db      	lsls	r3, r3, #3
 8005920:	4413      	add	r3, r2
 8005922:	009b      	lsls	r3, r3, #2
 8005924:	440b      	add	r3, r1
 8005926:	3302      	adds	r3, #2
 8005928:	4602      	mov	r2, r0
 800592a:	801a      	strh	r2, [r3, #0]
	for(i=0; i<HCSR04_UNITS; i++)
 800592c:	7bfb      	ldrb	r3, [r7, #15]
 800592e:	3301      	adds	r3, #1
 8005930:	73fb      	strb	r3, [r7, #15]
 8005932:	7bfb      	ldrb	r3, [r7, #15]
 8005934:	2b03      	cmp	r3, #3
 8005936:	d9d8      	bls.n	80058ea <HCSR04_TMR_OVF_ISR+0x12>
		}
	}
}
 8005938:	bf00      	nop
 800593a:	bf00      	nop
 800593c:	3714      	adds	r7, #20
 800593e:	46bd      	mov	sp, r7
 8005940:	f85d 7b04 	ldr.w	r7, [sp], #4
 8005944:	4770      	bx	lr
 8005946:	bf00      	nop
 8005948:	08008ce0 	.word	0x08008ce0
 800594c:	20000228 	.word	0x20000228

08005950 <HCSR04_TMR_IC_ISR>:


void HCSR04_TMR_IC_ISR(TIM_HandleTypeDef* htim)
{
 8005950:	b5b0      	push	{r4, r5, r7, lr}
 8005952:	b084      	sub	sp, #16
 8005954:	af00      	add	r7, sp, #0
 8005956:	6078      	str	r0, [r7, #4]
	uint8_t i = 0;
 8005958:	2300      	movs	r3, #0
 800595a:	73fb      	strb	r3, [r7, #15]
	uint32_t PS = 0;
 800595c:	2300      	movs	r3, #0
 800595e:	60bb      	str	r3, [r7, #8]
	for(i=0; i<HCSR04_UNITS; i++)
 8005960:	2300      	movs	r3, #0
 8005962:	73fb      	strb	r3, [r7, #15]
 8005964:	e22a      	b.n	8005dbc <HCSR04_TMR_IC_ISR+0x46c>
	{
		if((htim->Instance == HCSR04_CfgParam[i].TIM_Instance) && (htim->Channel == gs_HCSR04_info[i].ACTIV_CH))
 8005966:	687b      	ldr	r3, [r7, #4]
 8005968:	6819      	ldr	r1, [r3, #0]
 800596a:	7bfa      	ldrb	r2, [r7, #15]
 800596c:	486b      	ldr	r0, [pc, #428]	; (8005b1c <HCSR04_TMR_IC_ISR+0x1cc>)
 800596e:	4613      	mov	r3, r2
 8005970:	009b      	lsls	r3, r3, #2
 8005972:	4413      	add	r3, r2
 8005974:	009b      	lsls	r3, r3, #2
 8005976:	4403      	add	r3, r0
 8005978:	3308      	adds	r3, #8
 800597a:	681b      	ldr	r3, [r3, #0]
 800597c:	4299      	cmp	r1, r3
 800597e:	f040 821a 	bne.w	8005db6 <HCSR04_TMR_IC_ISR+0x466>
 8005982:	687b      	ldr	r3, [r7, #4]
 8005984:	7f19      	ldrb	r1, [r3, #28]
 8005986:	7bfa      	ldrb	r2, [r7, #15]
 8005988:	4865      	ldr	r0, [pc, #404]	; (8005b20 <HCSR04_TMR_IC_ISR+0x1d0>)
 800598a:	4613      	mov	r3, r2
 800598c:	00db      	lsls	r3, r3, #3
 800598e:	4413      	add	r3, r2
 8005990:	009b      	lsls	r3, r3, #2
 8005992:	4403      	add	r3, r0
 8005994:	3320      	adds	r3, #32
 8005996:	781b      	ldrb	r3, [r3, #0]
 8005998:	4299      	cmp	r1, r3
 800599a:	f040 820c 	bne.w	8005db6 <HCSR04_TMR_IC_ISR+0x466>
		{
			if (gs_HCSR04_info[i].EDGE_STATE == 0)
 800599e:	7bfa      	ldrb	r2, [r7, #15]
 80059a0:	495f      	ldr	r1, [pc, #380]	; (8005b20 <HCSR04_TMR_IC_ISR+0x1d0>)
 80059a2:	4613      	mov	r3, r2
 80059a4:	00db      	lsls	r3, r3, #3
 80059a6:	4413      	add	r3, r2
 80059a8:	009b      	lsls	r3, r3, #2
 80059aa:	440b      	add	r3, r1
 80059ac:	781b      	ldrb	r3, [r3, #0]
 80059ae:	2b00      	cmp	r3, #0
 80059b0:	f040 80b8 	bne.w	8005b24 <HCSR04_TMR_IC_ISR+0x1d4>
			{
				// Capture T1 & Reverse The ICU Edge Polarity
				gs_HCSR04_info[i].T1 = HAL_TIM_ReadCapturedValue(htim, HCSR04_CfgParam[i].IC_TIM_CH);
 80059b4:	7bfa      	ldrb	r2, [r7, #15]
 80059b6:	4959      	ldr	r1, [pc, #356]	; (8005b1c <HCSR04_TMR_IC_ISR+0x1cc>)
 80059b8:	4613      	mov	r3, r2
 80059ba:	009b      	lsls	r3, r3, #2
 80059bc:	4413      	add	r3, r2
 80059be:	009b      	lsls	r3, r3, #2
 80059c0:	440b      	add	r3, r1
 80059c2:	330c      	adds	r3, #12
 80059c4:	681b      	ldr	r3, [r3, #0]
 80059c6:	7bfc      	ldrb	r4, [r7, #15]
 80059c8:	4619      	mov	r1, r3
 80059ca:	6878      	ldr	r0, [r7, #4]
 80059cc:	f7fe fcdc 	bl	8004388 <HAL_TIM_ReadCapturedValue>
 80059d0:	4602      	mov	r2, r0
 80059d2:	4953      	ldr	r1, [pc, #332]	; (8005b20 <HCSR04_TMR_IC_ISR+0x1d0>)
 80059d4:	4623      	mov	r3, r4
 80059d6:	00db      	lsls	r3, r3, #3
 80059d8:	4423      	add	r3, r4
 80059da:	009b      	lsls	r3, r3, #2
 80059dc:	440b      	add	r3, r1
 80059de:	330c      	adds	r3, #12
 80059e0:	601a      	str	r2, [r3, #0]
				gs_HCSR04_info[i].EDGE_STATE = 1;
 80059e2:	7bfa      	ldrb	r2, [r7, #15]
 80059e4:	494e      	ldr	r1, [pc, #312]	; (8005b20 <HCSR04_TMR_IC_ISR+0x1d0>)
 80059e6:	4613      	mov	r3, r2
 80059e8:	00db      	lsls	r3, r3, #3
 80059ea:	4413      	add	r3, r2
 80059ec:	009b      	lsls	r3, r3, #2
 80059ee:	440b      	add	r3, r1
 80059f0:	2201      	movs	r2, #1
 80059f2:	701a      	strb	r2, [r3, #0]
				__HAL_TIM_SET_CAPTUREPOLARITY(htim, HCSR04_CfgParam[i].IC_TIM_CH, TIM_INPUTCHANNELPOLARITY_FALLING);
 80059f4:	7bfa      	ldrb	r2, [r7, #15]
 80059f6:	4949      	ldr	r1, [pc, #292]	; (8005b1c <HCSR04_TMR_IC_ISR+0x1cc>)
 80059f8:	4613      	mov	r3, r2
 80059fa:	009b      	lsls	r3, r3, #2
 80059fc:	4413      	add	r3, r2
 80059fe:	009b      	lsls	r3, r3, #2
 8005a00:	440b      	add	r3, r1
 8005a02:	330c      	adds	r3, #12
 8005a04:	681b      	ldr	r3, [r3, #0]
 8005a06:	2b00      	cmp	r3, #0
 8005a08:	d108      	bne.n	8005a1c <HCSR04_TMR_IC_ISR+0xcc>
 8005a0a:	687b      	ldr	r3, [r7, #4]
 8005a0c:	681b      	ldr	r3, [r3, #0]
 8005a0e:	6a1a      	ldr	r2, [r3, #32]
 8005a10:	687b      	ldr	r3, [r7, #4]
 8005a12:	681b      	ldr	r3, [r3, #0]
 8005a14:	f022 020a 	bic.w	r2, r2, #10
 8005a18:	621a      	str	r2, [r3, #32]
 8005a1a:	e02f      	b.n	8005a7c <HCSR04_TMR_IC_ISR+0x12c>
 8005a1c:	7bfa      	ldrb	r2, [r7, #15]
 8005a1e:	493f      	ldr	r1, [pc, #252]	; (8005b1c <HCSR04_TMR_IC_ISR+0x1cc>)
 8005a20:	4613      	mov	r3, r2
 8005a22:	009b      	lsls	r3, r3, #2
 8005a24:	4413      	add	r3, r2
 8005a26:	009b      	lsls	r3, r3, #2
 8005a28:	440b      	add	r3, r1
 8005a2a:	330c      	adds	r3, #12
 8005a2c:	681b      	ldr	r3, [r3, #0]
 8005a2e:	2b04      	cmp	r3, #4
 8005a30:	d108      	bne.n	8005a44 <HCSR04_TMR_IC_ISR+0xf4>
 8005a32:	687b      	ldr	r3, [r7, #4]
 8005a34:	681b      	ldr	r3, [r3, #0]
 8005a36:	6a1b      	ldr	r3, [r3, #32]
 8005a38:	687a      	ldr	r2, [r7, #4]
 8005a3a:	6812      	ldr	r2, [r2, #0]
 8005a3c:	f023 03a0 	bic.w	r3, r3, #160	; 0xa0
 8005a40:	6213      	str	r3, [r2, #32]
 8005a42:	e01b      	b.n	8005a7c <HCSR04_TMR_IC_ISR+0x12c>
 8005a44:	7bfa      	ldrb	r2, [r7, #15]
 8005a46:	4935      	ldr	r1, [pc, #212]	; (8005b1c <HCSR04_TMR_IC_ISR+0x1cc>)
 8005a48:	4613      	mov	r3, r2
 8005a4a:	009b      	lsls	r3, r3, #2
 8005a4c:	4413      	add	r3, r2
 8005a4e:	009b      	lsls	r3, r3, #2
 8005a50:	440b      	add	r3, r1
 8005a52:	330c      	adds	r3, #12
 8005a54:	681b      	ldr	r3, [r3, #0]
 8005a56:	2b08      	cmp	r3, #8
 8005a58:	d108      	bne.n	8005a6c <HCSR04_TMR_IC_ISR+0x11c>
 8005a5a:	687b      	ldr	r3, [r7, #4]
 8005a5c:	681b      	ldr	r3, [r3, #0]
 8005a5e:	6a1b      	ldr	r3, [r3, #32]
 8005a60:	687a      	ldr	r2, [r7, #4]
 8005a62:	6812      	ldr	r2, [r2, #0]
 8005a64:	f423 6320 	bic.w	r3, r3, #2560	; 0xa00
 8005a68:	6213      	str	r3, [r2, #32]
 8005a6a:	e007      	b.n	8005a7c <HCSR04_TMR_IC_ISR+0x12c>
 8005a6c:	687b      	ldr	r3, [r7, #4]
 8005a6e:	681b      	ldr	r3, [r3, #0]
 8005a70:	6a1b      	ldr	r3, [r3, #32]
 8005a72:	687a      	ldr	r2, [r7, #4]
 8005a74:	6812      	ldr	r2, [r2, #0]
 8005a76:	f423 4320 	bic.w	r3, r3, #40960	; 0xa000
 8005a7a:	6213      	str	r3, [r2, #32]
 8005a7c:	7bfa      	ldrb	r2, [r7, #15]
 8005a7e:	4927      	ldr	r1, [pc, #156]	; (8005b1c <HCSR04_TMR_IC_ISR+0x1cc>)
 8005a80:	4613      	mov	r3, r2
 8005a82:	009b      	lsls	r3, r3, #2
 8005a84:	4413      	add	r3, r2
 8005a86:	009b      	lsls	r3, r3, #2
 8005a88:	440b      	add	r3, r1
 8005a8a:	330c      	adds	r3, #12
 8005a8c:	681b      	ldr	r3, [r3, #0]
 8005a8e:	2b00      	cmp	r3, #0
 8005a90:	d108      	bne.n	8005aa4 <HCSR04_TMR_IC_ISR+0x154>
 8005a92:	687b      	ldr	r3, [r7, #4]
 8005a94:	681b      	ldr	r3, [r3, #0]
 8005a96:	6a1a      	ldr	r2, [r3, #32]
 8005a98:	687b      	ldr	r3, [r7, #4]
 8005a9a:	681b      	ldr	r3, [r3, #0]
 8005a9c:	f042 0202 	orr.w	r2, r2, #2
 8005aa0:	621a      	str	r2, [r3, #32]
 8005aa2:	e02f      	b.n	8005b04 <HCSR04_TMR_IC_ISR+0x1b4>
 8005aa4:	7bfa      	ldrb	r2, [r7, #15]
 8005aa6:	491d      	ldr	r1, [pc, #116]	; (8005b1c <HCSR04_TMR_IC_ISR+0x1cc>)
 8005aa8:	4613      	mov	r3, r2
 8005aaa:	009b      	lsls	r3, r3, #2
 8005aac:	4413      	add	r3, r2
 8005aae:	009b      	lsls	r3, r3, #2
 8005ab0:	440b      	add	r3, r1
 8005ab2:	330c      	adds	r3, #12
 8005ab4:	681b      	ldr	r3, [r3, #0]
 8005ab6:	2b04      	cmp	r3, #4
 8005ab8:	d108      	bne.n	8005acc <HCSR04_TMR_IC_ISR+0x17c>
 8005aba:	687b      	ldr	r3, [r7, #4]
 8005abc:	681b      	ldr	r3, [r3, #0]
 8005abe:	6a1b      	ldr	r3, [r3, #32]
 8005ac0:	687a      	ldr	r2, [r7, #4]
 8005ac2:	6812      	ldr	r2, [r2, #0]
 8005ac4:	f043 0320 	orr.w	r3, r3, #32
 8005ac8:	6213      	str	r3, [r2, #32]
 8005aca:	e01b      	b.n	8005b04 <HCSR04_TMR_IC_ISR+0x1b4>
 8005acc:	7bfa      	ldrb	r2, [r7, #15]
 8005ace:	4913      	ldr	r1, [pc, #76]	; (8005b1c <HCSR04_TMR_IC_ISR+0x1cc>)
 8005ad0:	4613      	mov	r3, r2
 8005ad2:	009b      	lsls	r3, r3, #2
 8005ad4:	4413      	add	r3, r2
 8005ad6:	009b      	lsls	r3, r3, #2
 8005ad8:	440b      	add	r3, r1
 8005ada:	330c      	adds	r3, #12
 8005adc:	681b      	ldr	r3, [r3, #0]
 8005ade:	2b08      	cmp	r3, #8
 8005ae0:	d108      	bne.n	8005af4 <HCSR04_TMR_IC_ISR+0x1a4>
 8005ae2:	687b      	ldr	r3, [r7, #4]
 8005ae4:	681b      	ldr	r3, [r3, #0]
 8005ae6:	6a1b      	ldr	r3, [r3, #32]
 8005ae8:	687a      	ldr	r2, [r7, #4]
 8005aea:	6812      	ldr	r2, [r2, #0]
 8005aec:	f443 7300 	orr.w	r3, r3, #512	; 0x200
 8005af0:	6213      	str	r3, [r2, #32]
 8005af2:	e007      	b.n	8005b04 <HCSR04_TMR_IC_ISR+0x1b4>
 8005af4:	687b      	ldr	r3, [r7, #4]
 8005af6:	681b      	ldr	r3, [r3, #0]
 8005af8:	6a1b      	ldr	r3, [r3, #32]
 8005afa:	687a      	ldr	r2, [r7, #4]
 8005afc:	6812      	ldr	r2, [r2, #0]
 8005afe:	f443 5300 	orr.w	r3, r3, #8192	; 0x2000
 8005b02:	6213      	str	r3, [r2, #32]
				gs_HCSR04_info[i].TMR_OVC = 0;
 8005b04:	7bfa      	ldrb	r2, [r7, #15]
 8005b06:	4906      	ldr	r1, [pc, #24]	; (8005b20 <HCSR04_TMR_IC_ISR+0x1d0>)
 8005b08:	4613      	mov	r3, r2
 8005b0a:	00db      	lsls	r3, r3, #3
 8005b0c:	4413      	add	r3, r2
 8005b0e:	009b      	lsls	r3, r3, #2
 8005b10:	440b      	add	r3, r1
 8005b12:	3302      	adds	r3, #2
 8005b14:	2200      	movs	r2, #0
 8005b16:	801a      	strh	r2, [r3, #0]
 8005b18:	e14d      	b.n	8005db6 <HCSR04_TMR_IC_ISR+0x466>
 8005b1a:	bf00      	nop
 8005b1c:	08008ce0 	.word	0x08008ce0
 8005b20:	20000228 	.word	0x20000228
			}
			else if (gs_HCSR04_info[i].EDGE_STATE == 1)
 8005b24:	7bfa      	ldrb	r2, [r7, #15]
 8005b26:	49ac      	ldr	r1, [pc, #688]	; (8005dd8 <HCSR04_TMR_IC_ISR+0x488>)
 8005b28:	4613      	mov	r3, r2
 8005b2a:	00db      	lsls	r3, r3, #3
 8005b2c:	4413      	add	r3, r2
 8005b2e:	009b      	lsls	r3, r3, #2
 8005b30:	440b      	add	r3, r1
 8005b32:	781b      	ldrb	r3, [r3, #0]
 8005b34:	2b01      	cmp	r3, #1
 8005b36:	f040 813e 	bne.w	8005db6 <HCSR04_TMR_IC_ISR+0x466>
			{
				// Read The Current ARR & Prescaler Values For The Timer
				PS = HCSR04_CfgParam[i].TIM_Instance->PSC;
 8005b3a:	7bfa      	ldrb	r2, [r7, #15]
 8005b3c:	49a7      	ldr	r1, [pc, #668]	; (8005ddc <HCSR04_TMR_IC_ISR+0x48c>)
 8005b3e:	4613      	mov	r3, r2
 8005b40:	009b      	lsls	r3, r3, #2
 8005b42:	4413      	add	r3, r2
 8005b44:	009b      	lsls	r3, r3, #2
 8005b46:	440b      	add	r3, r1
 8005b48:	3308      	adds	r3, #8
 8005b4a:	681b      	ldr	r3, [r3, #0]
 8005b4c:	6a9b      	ldr	r3, [r3, #40]	; 0x28
 8005b4e:	60bb      	str	r3, [r7, #8]
				gs_HCSR04_info[i].TMR_ARR = HCSR04_CfgParam[i].TIM_Instance->ARR;
 8005b50:	7bfa      	ldrb	r2, [r7, #15]
 8005b52:	49a2      	ldr	r1, [pc, #648]	; (8005ddc <HCSR04_TMR_IC_ISR+0x48c>)
 8005b54:	4613      	mov	r3, r2
 8005b56:	009b      	lsls	r3, r3, #2
 8005b58:	4413      	add	r3, r2
 8005b5a:	009b      	lsls	r3, r3, #2
 8005b5c:	440b      	add	r3, r1
 8005b5e:	3308      	adds	r3, #8
 8005b60:	681b      	ldr	r3, [r3, #0]
 8005b62:	7bfa      	ldrb	r2, [r7, #15]
 8005b64:	6ad9      	ldr	r1, [r3, #44]	; 0x2c
 8005b66:	489c      	ldr	r0, [pc, #624]	; (8005dd8 <HCSR04_TMR_IC_ISR+0x488>)
 8005b68:	4613      	mov	r3, r2
 8005b6a:	00db      	lsls	r3, r3, #3
 8005b6c:	4413      	add	r3, r2
 8005b6e:	009b      	lsls	r3, r3, #2
 8005b70:	4403      	add	r3, r0
 8005b72:	3308      	adds	r3, #8
 8005b74:	6019      	str	r1, [r3, #0]
				// Capture T2 & Calculate The Distance
				gs_HCSR04_info[i].T2 = HAL_TIM_ReadCapturedValue(htim, HCSR04_CfgParam[i].IC_TIM_CH);
 8005b76:	7bfa      	ldrb	r2, [r7, #15]
 8005b78:	4998      	ldr	r1, [pc, #608]	; (8005ddc <HCSR04_TMR_IC_ISR+0x48c>)
 8005b7a:	4613      	mov	r3, r2
 8005b7c:	009b      	lsls	r3, r3, #2
 8005b7e:	4413      	add	r3, r2
 8005b80:	009b      	lsls	r3, r3, #2
 8005b82:	440b      	add	r3, r1
 8005b84:	330c      	adds	r3, #12
 8005b86:	681b      	ldr	r3, [r3, #0]
 8005b88:	7bfc      	ldrb	r4, [r7, #15]
 8005b8a:	4619      	mov	r1, r3
 8005b8c:	6878      	ldr	r0, [r7, #4]
 8005b8e:	f7fe fbfb 	bl	8004388 <HAL_TIM_ReadCapturedValue>
 8005b92:	4602      	mov	r2, r0
 8005b94:	4990      	ldr	r1, [pc, #576]	; (8005dd8 <HCSR04_TMR_IC_ISR+0x488>)
 8005b96:	4623      	mov	r3, r4
 8005b98:	00db      	lsls	r3, r3, #3
 8005b9a:	4423      	add	r3, r4
 8005b9c:	009b      	lsls	r3, r3, #2
 8005b9e:	440b      	add	r3, r1
 8005ba0:	3310      	adds	r3, #16
 8005ba2:	601a      	str	r2, [r3, #0]
				gs_HCSR04_info[i].T2 += (gs_HCSR04_info[i].TMR_OVC * (gs_HCSR04_info[i].TMR_ARR+1));
 8005ba4:	7bfa      	ldrb	r2, [r7, #15]
 8005ba6:	498c      	ldr	r1, [pc, #560]	; (8005dd8 <HCSR04_TMR_IC_ISR+0x488>)
 8005ba8:	4613      	mov	r3, r2
 8005baa:	00db      	lsls	r3, r3, #3
 8005bac:	4413      	add	r3, r2
 8005bae:	009b      	lsls	r3, r3, #2
 8005bb0:	440b      	add	r3, r1
 8005bb2:	3310      	adds	r3, #16
 8005bb4:	6819      	ldr	r1, [r3, #0]
 8005bb6:	7bfa      	ldrb	r2, [r7, #15]
 8005bb8:	4887      	ldr	r0, [pc, #540]	; (8005dd8 <HCSR04_TMR_IC_ISR+0x488>)
 8005bba:	4613      	mov	r3, r2
 8005bbc:	00db      	lsls	r3, r3, #3
 8005bbe:	4413      	add	r3, r2
 8005bc0:	009b      	lsls	r3, r3, #2
 8005bc2:	4403      	add	r3, r0
 8005bc4:	3302      	adds	r3, #2
 8005bc6:	881b      	ldrh	r3, [r3, #0]
 8005bc8:	461c      	mov	r4, r3
 8005bca:	7bfa      	ldrb	r2, [r7, #15]
 8005bcc:	4882      	ldr	r0, [pc, #520]	; (8005dd8 <HCSR04_TMR_IC_ISR+0x488>)
 8005bce:	4613      	mov	r3, r2
 8005bd0:	00db      	lsls	r3, r3, #3
 8005bd2:	4413      	add	r3, r2
 8005bd4:	009b      	lsls	r3, r3, #2
 8005bd6:	4403      	add	r3, r0
 8005bd8:	3308      	adds	r3, #8
 8005bda:	681b      	ldr	r3, [r3, #0]
 8005bdc:	3301      	adds	r3, #1
 8005bde:	fb03 f304 	mul.w	r3, r3, r4
 8005be2:	7bfa      	ldrb	r2, [r7, #15]
 8005be4:	4419      	add	r1, r3
 8005be6:	487c      	ldr	r0, [pc, #496]	; (8005dd8 <HCSR04_TMR_IC_ISR+0x488>)
 8005be8:	4613      	mov	r3, r2
 8005bea:	00db      	lsls	r3, r3, #3
 8005bec:	4413      	add	r3, r2
 8005bee:	009b      	lsls	r3, r3, #2
 8005bf0:	4403      	add	r3, r0
 8005bf2:	3310      	adds	r3, #16
 8005bf4:	6019      	str	r1, [r3, #0]
				gs_HCSR04_info[i].DIFF = gs_HCSR04_info[i].T2 - gs_HCSR04_info[i].T1;
 8005bf6:	7bfa      	ldrb	r2, [r7, #15]
 8005bf8:	4977      	ldr	r1, [pc, #476]	; (8005dd8 <HCSR04_TMR_IC_ISR+0x488>)
 8005bfa:	4613      	mov	r3, r2
 8005bfc:	00db      	lsls	r3, r3, #3
 8005bfe:	4413      	add	r3, r2
 8005c00:	009b      	lsls	r3, r3, #2
 8005c02:	440b      	add	r3, r1
 8005c04:	3310      	adds	r3, #16
 8005c06:	6819      	ldr	r1, [r3, #0]
 8005c08:	7bfa      	ldrb	r2, [r7, #15]
 8005c0a:	4873      	ldr	r0, [pc, #460]	; (8005dd8 <HCSR04_TMR_IC_ISR+0x488>)
 8005c0c:	4613      	mov	r3, r2
 8005c0e:	00db      	lsls	r3, r3, #3
 8005c10:	4413      	add	r3, r2
 8005c12:	009b      	lsls	r3, r3, #2
 8005c14:	4403      	add	r3, r0
 8005c16:	330c      	adds	r3, #12
 8005c18:	681b      	ldr	r3, [r3, #0]
 8005c1a:	7bfa      	ldrb	r2, [r7, #15]
 8005c1c:	1ac9      	subs	r1, r1, r3
 8005c1e:	486e      	ldr	r0, [pc, #440]	; (8005dd8 <HCSR04_TMR_IC_ISR+0x488>)
 8005c20:	4613      	mov	r3, r2
 8005c22:	00db      	lsls	r3, r3, #3
 8005c24:	4413      	add	r3, r2
 8005c26:	009b      	lsls	r3, r3, #2
 8005c28:	4403      	add	r3, r0
 8005c2a:	3314      	adds	r3, #20
 8005c2c:	6019      	str	r1, [r3, #0]
				// Write The Distance Value To The Global Struct & Reverse The ICU Edge
				gs_HCSR04_info[i].DISTANCE = (gs_HCSR04_info[i].DIFF * 0.017)/(HCSR04_CfgParam[i].TIM_CLK_MHz/(PS+1));
 8005c2e:	7bfa      	ldrb	r2, [r7, #15]
 8005c30:	4969      	ldr	r1, [pc, #420]	; (8005dd8 <HCSR04_TMR_IC_ISR+0x488>)
 8005c32:	4613      	mov	r3, r2
 8005c34:	00db      	lsls	r3, r3, #3
 8005c36:	4413      	add	r3, r2
 8005c38:	009b      	lsls	r3, r3, #2
 8005c3a:	440b      	add	r3, r1
 8005c3c:	3314      	adds	r3, #20
 8005c3e:	681b      	ldr	r3, [r3, #0]
 8005c40:	4618      	mov	r0, r3
 8005c42:	f7fa fc7f 	bl	8000544 <__aeabi_ui2d>
 8005c46:	a362      	add	r3, pc, #392	; (adr r3, 8005dd0 <HCSR04_TMR_IC_ISR+0x480>)
 8005c48:	e9d3 2300 	ldrd	r2, r3, [r3]
 8005c4c:	f7fa fcf4 	bl	8000638 <__aeabi_dmul>
 8005c50:	4602      	mov	r2, r0
 8005c52:	460b      	mov	r3, r1
 8005c54:	4614      	mov	r4, r2
 8005c56:	461d      	mov	r5, r3
 8005c58:	7bfa      	ldrb	r2, [r7, #15]
 8005c5a:	4960      	ldr	r1, [pc, #384]	; (8005ddc <HCSR04_TMR_IC_ISR+0x48c>)
 8005c5c:	4613      	mov	r3, r2
 8005c5e:	009b      	lsls	r3, r3, #2
 8005c60:	4413      	add	r3, r2
 8005c62:	009b      	lsls	r3, r3, #2
 8005c64:	440b      	add	r3, r1
 8005c66:	3310      	adds	r3, #16
 8005c68:	681a      	ldr	r2, [r3, #0]
 8005c6a:	68bb      	ldr	r3, [r7, #8]
 8005c6c:	3301      	adds	r3, #1
 8005c6e:	fbb2 f3f3 	udiv	r3, r2, r3
 8005c72:	4618      	mov	r0, r3
 8005c74:	f7fa fc66 	bl	8000544 <__aeabi_ui2d>
 8005c78:	4602      	mov	r2, r0
 8005c7a:	460b      	mov	r3, r1
 8005c7c:	4620      	mov	r0, r4
 8005c7e:	4629      	mov	r1, r5
 8005c80:	f7fa fe04 	bl	800088c <__aeabi_ddiv>
 8005c84:	4602      	mov	r2, r0
 8005c86:	460b      	mov	r3, r1
 8005c88:	7bfc      	ldrb	r4, [r7, #15]
 8005c8a:	4610      	mov	r0, r2
 8005c8c:	4619      	mov	r1, r3
 8005c8e:	f7fa ffab 	bl	8000be8 <__aeabi_d2f>
 8005c92:	4602      	mov	r2, r0
 8005c94:	4950      	ldr	r1, [pc, #320]	; (8005dd8 <HCSR04_TMR_IC_ISR+0x488>)
 8005c96:	4623      	mov	r3, r4
 8005c98:	00db      	lsls	r3, r3, #3
 8005c9a:	4423      	add	r3, r4
 8005c9c:	009b      	lsls	r3, r3, #2
 8005c9e:	440b      	add	r3, r1
 8005ca0:	3318      	adds	r3, #24
 8005ca2:	601a      	str	r2, [r3, #0]
				gs_HCSR04_info[i].EDGE_STATE = 0;
 8005ca4:	7bfa      	ldrb	r2, [r7, #15]
 8005ca6:	494c      	ldr	r1, [pc, #304]	; (8005dd8 <HCSR04_TMR_IC_ISR+0x488>)
 8005ca8:	4613      	mov	r3, r2
 8005caa:	00db      	lsls	r3, r3, #3
 8005cac:	4413      	add	r3, r2
 8005cae:	009b      	lsls	r3, r3, #2
 8005cb0:	440b      	add	r3, r1
 8005cb2:	2200      	movs	r2, #0
 8005cb4:	701a      	strb	r2, [r3, #0]
				__HAL_TIM_SET_CAPTUREPOLARITY(htim, HCSR04_CfgParam[i].IC_TIM_CH, TIM_INPUTCHANNELPOLARITY_RISING);
 8005cb6:	7bfa      	ldrb	r2, [r7, #15]
 8005cb8:	4948      	ldr	r1, [pc, #288]	; (8005ddc <HCSR04_TMR_IC_ISR+0x48c>)
 8005cba:	4613      	mov	r3, r2
 8005cbc:	009b      	lsls	r3, r3, #2
 8005cbe:	4413      	add	r3, r2
 8005cc0:	009b      	lsls	r3, r3, #2
 8005cc2:	440b      	add	r3, r1
 8005cc4:	330c      	adds	r3, #12
 8005cc6:	681b      	ldr	r3, [r3, #0]
 8005cc8:	2b00      	cmp	r3, #0
 8005cca:	d108      	bne.n	8005cde <HCSR04_TMR_IC_ISR+0x38e>
 8005ccc:	687b      	ldr	r3, [r7, #4]
 8005cce:	681b      	ldr	r3, [r3, #0]
 8005cd0:	6a1a      	ldr	r2, [r3, #32]
 8005cd2:	687b      	ldr	r3, [r7, #4]
 8005cd4:	681b      	ldr	r3, [r3, #0]
 8005cd6:	f022 020a 	bic.w	r2, r2, #10
 8005cda:	621a      	str	r2, [r3, #32]
 8005cdc:	e02f      	b.n	8005d3e <HCSR04_TMR_IC_ISR+0x3ee>
 8005cde:	7bfa      	ldrb	r2, [r7, #15]
 8005ce0:	493e      	ldr	r1, [pc, #248]	; (8005ddc <HCSR04_TMR_IC_ISR+0x48c>)
 8005ce2:	4613      	mov	r3, r2
 8005ce4:	009b      	lsls	r3, r3, #2
 8005ce6:	4413      	add	r3, r2
 8005ce8:	009b      	lsls	r3, r3, #2
 8005cea:	440b      	add	r3, r1
 8005cec:	330c      	adds	r3, #12
 8005cee:	681b      	ldr	r3, [r3, #0]
 8005cf0:	2b04      	cmp	r3, #4
 8005cf2:	d108      	bne.n	8005d06 <HCSR04_TMR_IC_ISR+0x3b6>
 8005cf4:	687b      	ldr	r3, [r7, #4]
 8005cf6:	681b      	ldr	r3, [r3, #0]
 8005cf8:	6a1b      	ldr	r3, [r3, #32]
 8005cfa:	687a      	ldr	r2, [r7, #4]
 8005cfc:	6812      	ldr	r2, [r2, #0]
 8005cfe:	f023 03a0 	bic.w	r3, r3, #160	; 0xa0
 8005d02:	6213      	str	r3, [r2, #32]
 8005d04:	e01b      	b.n	8005d3e <HCSR04_TMR_IC_ISR+0x3ee>
 8005d06:	7bfa      	ldrb	r2, [r7, #15]
 8005d08:	4934      	ldr	r1, [pc, #208]	; (8005ddc <HCSR04_TMR_IC_ISR+0x48c>)
 8005d0a:	4613      	mov	r3, r2
 8005d0c:	009b      	lsls	r3, r3, #2
 8005d0e:	4413      	add	r3, r2
 8005d10:	009b      	lsls	r3, r3, #2
 8005d12:	440b      	add	r3, r1
 8005d14:	330c      	adds	r3, #12
 8005d16:	681b      	ldr	r3, [r3, #0]
 8005d18:	2b08      	cmp	r3, #8
 8005d1a:	d108      	bne.n	8005d2e <HCSR04_TMR_IC_ISR+0x3de>
 8005d1c:	687b      	ldr	r3, [r7, #4]
 8005d1e:	681b      	ldr	r3, [r3, #0]
 8005d20:	6a1b      	ldr	r3, [r3, #32]
 8005d22:	687a      	ldr	r2, [r7, #4]
 8005d24:	6812      	ldr	r2, [r2, #0]
 8005d26:	f423 6320 	bic.w	r3, r3, #2560	; 0xa00
 8005d2a:	6213      	str	r3, [r2, #32]
 8005d2c:	e007      	b.n	8005d3e <HCSR04_TMR_IC_ISR+0x3ee>
 8005d2e:	687b      	ldr	r3, [r7, #4]
 8005d30:	681b      	ldr	r3, [r3, #0]
 8005d32:	6a1b      	ldr	r3, [r3, #32]
 8005d34:	687a      	ldr	r2, [r7, #4]
 8005d36:	6812      	ldr	r2, [r2, #0]
 8005d38:	f423 4320 	bic.w	r3, r3, #40960	; 0xa000
 8005d3c:	6213      	str	r3, [r2, #32]
 8005d3e:	7bfa      	ldrb	r2, [r7, #15]
 8005d40:	4926      	ldr	r1, [pc, #152]	; (8005ddc <HCSR04_TMR_IC_ISR+0x48c>)
 8005d42:	4613      	mov	r3, r2
 8005d44:	009b      	lsls	r3, r3, #2
 8005d46:	4413      	add	r3, r2
 8005d48:	009b      	lsls	r3, r3, #2
 8005d4a:	440b      	add	r3, r1
 8005d4c:	330c      	adds	r3, #12
 8005d4e:	681b      	ldr	r3, [r3, #0]
 8005d50:	2b00      	cmp	r3, #0
 8005d52:	d106      	bne.n	8005d62 <HCSR04_TMR_IC_ISR+0x412>
 8005d54:	687b      	ldr	r3, [r7, #4]
 8005d56:	681a      	ldr	r2, [r3, #0]
 8005d58:	687b      	ldr	r3, [r7, #4]
 8005d5a:	681b      	ldr	r3, [r3, #0]
 8005d5c:	6a12      	ldr	r2, [r2, #32]
 8005d5e:	621a      	str	r2, [r3, #32]
 8005d60:	e029      	b.n	8005db6 <HCSR04_TMR_IC_ISR+0x466>
 8005d62:	7bfa      	ldrb	r2, [r7, #15]
 8005d64:	491d      	ldr	r1, [pc, #116]	; (8005ddc <HCSR04_TMR_IC_ISR+0x48c>)
 8005d66:	4613      	mov	r3, r2
 8005d68:	009b      	lsls	r3, r3, #2
 8005d6a:	4413      	add	r3, r2
 8005d6c:	009b      	lsls	r3, r3, #2
 8005d6e:	440b      	add	r3, r1
 8005d70:	330c      	adds	r3, #12
 8005d72:	681b      	ldr	r3, [r3, #0]
 8005d74:	2b04      	cmp	r3, #4
 8005d76:	d106      	bne.n	8005d86 <HCSR04_TMR_IC_ISR+0x436>
 8005d78:	687b      	ldr	r3, [r7, #4]
 8005d7a:	681b      	ldr	r3, [r3, #0]
 8005d7c:	687a      	ldr	r2, [r7, #4]
 8005d7e:	6812      	ldr	r2, [r2, #0]
 8005d80:	6a1b      	ldr	r3, [r3, #32]
 8005d82:	6213      	str	r3, [r2, #32]
 8005d84:	e017      	b.n	8005db6 <HCSR04_TMR_IC_ISR+0x466>
 8005d86:	7bfa      	ldrb	r2, [r7, #15]
 8005d88:	4914      	ldr	r1, [pc, #80]	; (8005ddc <HCSR04_TMR_IC_ISR+0x48c>)
 8005d8a:	4613      	mov	r3, r2
 8005d8c:	009b      	lsls	r3, r3, #2
 8005d8e:	4413      	add	r3, r2
 8005d90:	009b      	lsls	r3, r3, #2
 8005d92:	440b      	add	r3, r1
 8005d94:	330c      	adds	r3, #12
 8005d96:	681b      	ldr	r3, [r3, #0]
 8005d98:	2b08      	cmp	r3, #8
 8005d9a:	d106      	bne.n	8005daa <HCSR04_TMR_IC_ISR+0x45a>
 8005d9c:	687b      	ldr	r3, [r7, #4]
 8005d9e:	681b      	ldr	r3, [r3, #0]
 8005da0:	687a      	ldr	r2, [r7, #4]
 8005da2:	6812      	ldr	r2, [r2, #0]
 8005da4:	6a1b      	ldr	r3, [r3, #32]
 8005da6:	6213      	str	r3, [r2, #32]
 8005da8:	e005      	b.n	8005db6 <HCSR04_TMR_IC_ISR+0x466>
 8005daa:	687b      	ldr	r3, [r7, #4]
 8005dac:	681b      	ldr	r3, [r3, #0]
 8005dae:	687a      	ldr	r2, [r7, #4]
 8005db0:	6812      	ldr	r2, [r2, #0]
 8005db2:	6a1b      	ldr	r3, [r3, #32]
 8005db4:	6213      	str	r3, [r2, #32]
	for(i=0; i<HCSR04_UNITS; i++)
 8005db6:	7bfb      	ldrb	r3, [r7, #15]
 8005db8:	3301      	adds	r3, #1
 8005dba:	73fb      	strb	r3, [r7, #15]
 8005dbc:	7bfb      	ldrb	r3, [r7, #15]
 8005dbe:	2b03      	cmp	r3, #3
 8005dc0:	f67f add1 	bls.w	8005966 <HCSR04_TMR_IC_ISR+0x16>
			}
		}
	}
}
 8005dc4:	bf00      	nop
 8005dc6:	bf00      	nop
 8005dc8:	3710      	adds	r7, #16
 8005dca:	46bd      	mov	sp, r7
 8005dcc:	bdb0      	pop	{r4, r5, r7, pc}
 8005dce:	bf00      	nop
 8005dd0:	b020c49c 	.word	0xb020c49c
 8005dd4:	3f916872 	.word	0x3f916872
 8005dd8:	20000228 	.word	0x20000228
 8005ddc:	08008ce0 	.word	0x08008ce0

08005de0 <HCSR04_Read>:

float HCSR04_Read(uint8_t au8_HCSR04_Instance)
{
 8005de0:	b480      	push	{r7}
 8005de2:	b083      	sub	sp, #12
 8005de4:	af00      	add	r7, sp, #0
 8005de6:	4603      	mov	r3, r0
 8005de8:	71fb      	strb	r3, [r7, #7]
	return gs_HCSR04_info[au8_HCSR04_Instance].DISTANCE;
 8005dea:	79fa      	ldrb	r2, [r7, #7]
 8005dec:	4908      	ldr	r1, [pc, #32]	; (8005e10 <HCSR04_Read+0x30>)
 8005dee:	4613      	mov	r3, r2
 8005df0:	00db      	lsls	r3, r3, #3
 8005df2:	4413      	add	r3, r2
 8005df4:	009b      	lsls	r3, r3, #2
 8005df6:	440b      	add	r3, r1
 8005df8:	3318      	adds	r3, #24
 8005dfa:	681b      	ldr	r3, [r3, #0]
 8005dfc:	ee07 3a90 	vmov	s15, r3
}
 8005e00:	eeb0 0a67 	vmov.f32	s0, s15
 8005e04:	370c      	adds	r7, #12
 8005e06:	46bd      	mov	sp, r7
 8005e08:	f85d 7b04 	ldr.w	r7, [sp], #4
 8005e0c:	4770      	bx	lr
 8005e0e:	bf00      	nop
 8005e10:	20000228 	.word	0x20000228

08005e14 <HCSR04_Trigger>:

void HCSR04_Trigger(uint8_t au8_HCSR04_Instance)
{
 8005e14:	b580      	push	{r7, lr}
 8005e16:	b082      	sub	sp, #8
 8005e18:	af00      	add	r7, sp, #0
 8005e1a:	4603      	mov	r3, r0
 8005e1c:	71fb      	strb	r3, [r7, #7]
	HAL_GPIO_WritePin(HCSR04_CfgParam[au8_HCSR04_Instance].TRIG_GPIO, HCSR04_CfgParam[au8_HCSR04_Instance].TRIG_PIN, 1);
 8005e1e:	79fa      	ldrb	r2, [r7, #7]
 8005e20:	4917      	ldr	r1, [pc, #92]	; (8005e80 <HCSR04_Trigger+0x6c>)
 8005e22:	4613      	mov	r3, r2
 8005e24:	009b      	lsls	r3, r3, #2
 8005e26:	4413      	add	r3, r2
 8005e28:	009b      	lsls	r3, r3, #2
 8005e2a:	440b      	add	r3, r1
 8005e2c:	6818      	ldr	r0, [r3, #0]
 8005e2e:	79fa      	ldrb	r2, [r7, #7]
 8005e30:	4913      	ldr	r1, [pc, #76]	; (8005e80 <HCSR04_Trigger+0x6c>)
 8005e32:	4613      	mov	r3, r2
 8005e34:	009b      	lsls	r3, r3, #2
 8005e36:	4413      	add	r3, r2
 8005e38:	009b      	lsls	r3, r3, #2
 8005e3a:	440b      	add	r3, r1
 8005e3c:	3304      	adds	r3, #4
 8005e3e:	881b      	ldrh	r3, [r3, #0]
 8005e40:	2201      	movs	r2, #1
 8005e42:	4619      	mov	r1, r3
 8005e44:	f7fc fe94 	bl	8002b70 <HAL_GPIO_WritePin>
	DWT_Delay_us(2);
 8005e48:	2002      	movs	r0, #2
 8005e4a:	f7ff fb31 	bl	80054b0 <DWT_Delay_us>
	HAL_GPIO_WritePin(HCSR04_CfgParam[au8_HCSR04_Instance].TRIG_GPIO, HCSR04_CfgParam[au8_HCSR04_Instance].TRIG_PIN, 0);
 8005e4e:	79fa      	ldrb	r2, [r7, #7]
 8005e50:	490b      	ldr	r1, [pc, #44]	; (8005e80 <HCSR04_Trigger+0x6c>)
 8005e52:	4613      	mov	r3, r2
 8005e54:	009b      	lsls	r3, r3, #2
 8005e56:	4413      	add	r3, r2
 8005e58:	009b      	lsls	r3, r3, #2
 8005e5a:	440b      	add	r3, r1
 8005e5c:	6818      	ldr	r0, [r3, #0]
 8005e5e:	79fa      	ldrb	r2, [r7, #7]
 8005e60:	4907      	ldr	r1, [pc, #28]	; (8005e80 <HCSR04_Trigger+0x6c>)
 8005e62:	4613      	mov	r3, r2
 8005e64:	009b      	lsls	r3, r3, #2
 8005e66:	4413      	add	r3, r2
 8005e68:	009b      	lsls	r3, r3, #2
 8005e6a:	440b      	add	r3, r1
 8005e6c:	3304      	adds	r3, #4
 8005e6e:	881b      	ldrh	r3, [r3, #0]
 8005e70:	2200      	movs	r2, #0
 8005e72:	4619      	mov	r1, r3
 8005e74:	f7fc fe7c 	bl	8002b70 <HAL_GPIO_WritePin>
}
 8005e78:	bf00      	nop
 8005e7a:	3708      	adds	r7, #8
 8005e7c:	46bd      	mov	sp, r7
 8005e7e:	bd80      	pop	{r7, pc}
 8005e80:	08008ce0 	.word	0x08008ce0

08005e84 <DWT_Delay_Init>:

#include "DWT_Delay.h"


uint32_t DWT_Delay_Init(void)
{
 8005e84:	b480      	push	{r7}
 8005e86:	af00      	add	r7, sp, #0
    /* Disable TRC */
    CoreDebug->DEMCR &= ~CoreDebug_DEMCR_TRCENA_Msk; // ~0x01000000;
 8005e88:	4b14      	ldr	r3, [pc, #80]	; (8005edc <DWT_Delay_Init+0x58>)
 8005e8a:	68db      	ldr	r3, [r3, #12]
 8005e8c:	4a13      	ldr	r2, [pc, #76]	; (8005edc <DWT_Delay_Init+0x58>)
 8005e8e:	f023 7380 	bic.w	r3, r3, #16777216	; 0x1000000
 8005e92:	60d3      	str	r3, [r2, #12]
    /* Enable TRC */
    CoreDebug->DEMCR |=  CoreDebug_DEMCR_TRCENA_Msk; // 0x01000000;
 8005e94:	4b11      	ldr	r3, [pc, #68]	; (8005edc <DWT_Delay_Init+0x58>)
 8005e96:	68db      	ldr	r3, [r3, #12]
 8005e98:	4a10      	ldr	r2, [pc, #64]	; (8005edc <DWT_Delay_Init+0x58>)
 8005e9a:	f043 7380 	orr.w	r3, r3, #16777216	; 0x1000000
 8005e9e:	60d3      	str	r3, [r2, #12]

    /* Disable clock cycle counter */
    DWT->CTRL &= ~DWT_CTRL_CYCCNTENA_Msk; //~0x00000001;
 8005ea0:	4b0f      	ldr	r3, [pc, #60]	; (8005ee0 <DWT_Delay_Init+0x5c>)
 8005ea2:	681b      	ldr	r3, [r3, #0]
 8005ea4:	4a0e      	ldr	r2, [pc, #56]	; (8005ee0 <DWT_Delay_Init+0x5c>)
 8005ea6:	f023 0301 	bic.w	r3, r3, #1
 8005eaa:	6013      	str	r3, [r2, #0]
    /* Enable  clock cycle counter */
    DWT->CTRL |=  DWT_CTRL_CYCCNTENA_Msk; //0x00000001;
 8005eac:	4b0c      	ldr	r3, [pc, #48]	; (8005ee0 <DWT_Delay_Init+0x5c>)
 8005eae:	681b      	ldr	r3, [r3, #0]
 8005eb0:	4a0b      	ldr	r2, [pc, #44]	; (8005ee0 <DWT_Delay_Init+0x5c>)
 8005eb2:	f043 0301 	orr.w	r3, r3, #1
 8005eb6:	6013      	str	r3, [r2, #0]

    /* Reset the clock cycle counter value */
    DWT->CYCCNT = 0;
 8005eb8:	4b09      	ldr	r3, [pc, #36]	; (8005ee0 <DWT_Delay_Init+0x5c>)
 8005eba:	2200      	movs	r2, #0
 8005ebc:	605a      	str	r2, [r3, #4]

    /* 3 NO OPERATION instructions */
    __ASM volatile ("NOP");
 8005ebe:	bf00      	nop
    __ASM volatile ("NOP");
 8005ec0:	bf00      	nop
    __ASM volatile ("NOP");
 8005ec2:	bf00      	nop

    /* Check if clock cycle counter has started */
    if(DWT->CYCCNT)
 8005ec4:	4b06      	ldr	r3, [pc, #24]	; (8005ee0 <DWT_Delay_Init+0x5c>)
 8005ec6:	685b      	ldr	r3, [r3, #4]
 8005ec8:	2b00      	cmp	r3, #0
 8005eca:	d001      	beq.n	8005ed0 <DWT_Delay_Init+0x4c>
    {
       return 0; /*clock cycle counter started*/
 8005ecc:	2300      	movs	r3, #0
 8005ece:	e000      	b.n	8005ed2 <DWT_Delay_Init+0x4e>
    }
    else
    {
      return 1; /*clock cycle counter not started*/
 8005ed0:	2301      	movs	r3, #1
    }
}
 8005ed2:	4618      	mov	r0, r3
 8005ed4:	46bd      	mov	sp, r7
 8005ed6:	f85d 7b04 	ldr.w	r7, [sp], #4
 8005eda:	4770      	bx	lr
 8005edc:	e000edf0 	.word	0xe000edf0
 8005ee0:	e0001000 	.word	0xe0001000

08005ee4 <__errno>:
 8005ee4:	4b01      	ldr	r3, [pc, #4]	; (8005eec <__errno+0x8>)
 8005ee6:	6818      	ldr	r0, [r3, #0]
 8005ee8:	4770      	bx	lr
 8005eea:	bf00      	nop
 8005eec:	20000028 	.word	0x20000028

08005ef0 <__libc_init_array>:
 8005ef0:	b570      	push	{r4, r5, r6, lr}
 8005ef2:	4d0d      	ldr	r5, [pc, #52]	; (8005f28 <__libc_init_array+0x38>)
 8005ef4:	4c0d      	ldr	r4, [pc, #52]	; (8005f2c <__libc_init_array+0x3c>)
 8005ef6:	1b64      	subs	r4, r4, r5
 8005ef8:	10a4      	asrs	r4, r4, #2
 8005efa:	2600      	movs	r6, #0
 8005efc:	42a6      	cmp	r6, r4
 8005efe:	d109      	bne.n	8005f14 <__libc_init_array+0x24>
 8005f00:	4d0b      	ldr	r5, [pc, #44]	; (8005f30 <__libc_init_array+0x40>)
 8005f02:	4c0c      	ldr	r4, [pc, #48]	; (8005f34 <__libc_init_array+0x44>)
 8005f04:	f002 feb6 	bl	8008c74 <_init>
 8005f08:	1b64      	subs	r4, r4, r5
 8005f0a:	10a4      	asrs	r4, r4, #2
 8005f0c:	2600      	movs	r6, #0
 8005f0e:	42a6      	cmp	r6, r4
 8005f10:	d105      	bne.n	8005f1e <__libc_init_array+0x2e>
 8005f12:	bd70      	pop	{r4, r5, r6, pc}
 8005f14:	f855 3b04 	ldr.w	r3, [r5], #4
 8005f18:	4798      	blx	r3
 8005f1a:	3601      	adds	r6, #1
 8005f1c:	e7ee      	b.n	8005efc <__libc_init_array+0xc>
 8005f1e:	f855 3b04 	ldr.w	r3, [r5], #4
 8005f22:	4798      	blx	r3
 8005f24:	3601      	adds	r6, #1
 8005f26:	e7f2      	b.n	8005f0e <__libc_init_array+0x1e>
 8005f28:	0800911c 	.word	0x0800911c
 8005f2c:	0800911c 	.word	0x0800911c
 8005f30:	0800911c 	.word	0x0800911c
 8005f34:	08009120 	.word	0x08009120

08005f38 <memset>:
 8005f38:	4402      	add	r2, r0
 8005f3a:	4603      	mov	r3, r0
 8005f3c:	4293      	cmp	r3, r2
 8005f3e:	d100      	bne.n	8005f42 <memset+0xa>
 8005f40:	4770      	bx	lr
 8005f42:	f803 1b01 	strb.w	r1, [r3], #1
 8005f46:	e7f9      	b.n	8005f3c <memset+0x4>

08005f48 <__cvt>:
 8005f48:	e92d 47ff 	stmdb	sp!, {r0, r1, r2, r3, r4, r5, r6, r7, r8, r9, sl, lr}
 8005f4c:	ec55 4b10 	vmov	r4, r5, d0
 8005f50:	2d00      	cmp	r5, #0
 8005f52:	460e      	mov	r6, r1
 8005f54:	4619      	mov	r1, r3
 8005f56:	462b      	mov	r3, r5
 8005f58:	bfbb      	ittet	lt
 8005f5a:	f105 4300 	addlt.w	r3, r5, #2147483648	; 0x80000000
 8005f5e:	461d      	movlt	r5, r3
 8005f60:	2300      	movge	r3, #0
 8005f62:	232d      	movlt	r3, #45	; 0x2d
 8005f64:	700b      	strb	r3, [r1, #0]
 8005f66:	9b0d      	ldr	r3, [sp, #52]	; 0x34
 8005f68:	f8dd a030 	ldr.w	sl, [sp, #48]	; 0x30
 8005f6c:	4691      	mov	r9, r2
 8005f6e:	f023 0820 	bic.w	r8, r3, #32
 8005f72:	bfbc      	itt	lt
 8005f74:	4622      	movlt	r2, r4
 8005f76:	4614      	movlt	r4, r2
 8005f78:	f1b8 0f46 	cmp.w	r8, #70	; 0x46
 8005f7c:	d005      	beq.n	8005f8a <__cvt+0x42>
 8005f7e:	f1b8 0f45 	cmp.w	r8, #69	; 0x45
 8005f82:	d100      	bne.n	8005f86 <__cvt+0x3e>
 8005f84:	3601      	adds	r6, #1
 8005f86:	2102      	movs	r1, #2
 8005f88:	e000      	b.n	8005f8c <__cvt+0x44>
 8005f8a:	2103      	movs	r1, #3
 8005f8c:	ab03      	add	r3, sp, #12
 8005f8e:	9301      	str	r3, [sp, #4]
 8005f90:	ab02      	add	r3, sp, #8
 8005f92:	9300      	str	r3, [sp, #0]
 8005f94:	ec45 4b10 	vmov	d0, r4, r5
 8005f98:	4653      	mov	r3, sl
 8005f9a:	4632      	mov	r2, r6
 8005f9c:	f000 fcec 	bl	8006978 <_dtoa_r>
 8005fa0:	f1b8 0f47 	cmp.w	r8, #71	; 0x47
 8005fa4:	4607      	mov	r7, r0
 8005fa6:	d102      	bne.n	8005fae <__cvt+0x66>
 8005fa8:	f019 0f01 	tst.w	r9, #1
 8005fac:	d022      	beq.n	8005ff4 <__cvt+0xac>
 8005fae:	f1b8 0f46 	cmp.w	r8, #70	; 0x46
 8005fb2:	eb07 0906 	add.w	r9, r7, r6
 8005fb6:	d110      	bne.n	8005fda <__cvt+0x92>
 8005fb8:	783b      	ldrb	r3, [r7, #0]
 8005fba:	2b30      	cmp	r3, #48	; 0x30
 8005fbc:	d10a      	bne.n	8005fd4 <__cvt+0x8c>
 8005fbe:	2200      	movs	r2, #0
 8005fc0:	2300      	movs	r3, #0
 8005fc2:	4620      	mov	r0, r4
 8005fc4:	4629      	mov	r1, r5
 8005fc6:	f7fa fd9f 	bl	8000b08 <__aeabi_dcmpeq>
 8005fca:	b918      	cbnz	r0, 8005fd4 <__cvt+0x8c>
 8005fcc:	f1c6 0601 	rsb	r6, r6, #1
 8005fd0:	f8ca 6000 	str.w	r6, [sl]
 8005fd4:	f8da 3000 	ldr.w	r3, [sl]
 8005fd8:	4499      	add	r9, r3
 8005fda:	2200      	movs	r2, #0
 8005fdc:	2300      	movs	r3, #0
 8005fde:	4620      	mov	r0, r4
 8005fe0:	4629      	mov	r1, r5
 8005fe2:	f7fa fd91 	bl	8000b08 <__aeabi_dcmpeq>
 8005fe6:	b108      	cbz	r0, 8005fec <__cvt+0xa4>
 8005fe8:	f8cd 900c 	str.w	r9, [sp, #12]
 8005fec:	2230      	movs	r2, #48	; 0x30
 8005fee:	9b03      	ldr	r3, [sp, #12]
 8005ff0:	454b      	cmp	r3, r9
 8005ff2:	d307      	bcc.n	8006004 <__cvt+0xbc>
 8005ff4:	9b03      	ldr	r3, [sp, #12]
 8005ff6:	9a0e      	ldr	r2, [sp, #56]	; 0x38
 8005ff8:	1bdb      	subs	r3, r3, r7
 8005ffa:	4638      	mov	r0, r7
 8005ffc:	6013      	str	r3, [r2, #0]
 8005ffe:	b004      	add	sp, #16
 8006000:	e8bd 87f0 	ldmia.w	sp!, {r4, r5, r6, r7, r8, r9, sl, pc}
 8006004:	1c59      	adds	r1, r3, #1
 8006006:	9103      	str	r1, [sp, #12]
 8006008:	701a      	strb	r2, [r3, #0]
 800600a:	e7f0      	b.n	8005fee <__cvt+0xa6>

0800600c <__exponent>:
 800600c:	b5f7      	push	{r0, r1, r2, r4, r5, r6, r7, lr}
 800600e:	4603      	mov	r3, r0
 8006010:	2900      	cmp	r1, #0
 8006012:	bfb8      	it	lt
 8006014:	4249      	neglt	r1, r1
 8006016:	f803 2b02 	strb.w	r2, [r3], #2
 800601a:	bfb4      	ite	lt
 800601c:	222d      	movlt	r2, #45	; 0x2d
 800601e:	222b      	movge	r2, #43	; 0x2b
 8006020:	2909      	cmp	r1, #9
 8006022:	7042      	strb	r2, [r0, #1]
 8006024:	dd2a      	ble.n	800607c <__exponent+0x70>
 8006026:	f10d 0407 	add.w	r4, sp, #7
 800602a:	46a4      	mov	ip, r4
 800602c:	270a      	movs	r7, #10
 800602e:	46a6      	mov	lr, r4
 8006030:	460a      	mov	r2, r1
 8006032:	fb91 f6f7 	sdiv	r6, r1, r7
 8006036:	fb07 1516 	mls	r5, r7, r6, r1
 800603a:	3530      	adds	r5, #48	; 0x30
 800603c:	2a63      	cmp	r2, #99	; 0x63
 800603e:	f104 34ff 	add.w	r4, r4, #4294967295	; 0xffffffff
 8006042:	f80e 5c01 	strb.w	r5, [lr, #-1]
 8006046:	4631      	mov	r1, r6
 8006048:	dcf1      	bgt.n	800602e <__exponent+0x22>
 800604a:	3130      	adds	r1, #48	; 0x30
 800604c:	f1ae 0502 	sub.w	r5, lr, #2
 8006050:	f804 1c01 	strb.w	r1, [r4, #-1]
 8006054:	1c44      	adds	r4, r0, #1
 8006056:	4629      	mov	r1, r5
 8006058:	4561      	cmp	r1, ip
 800605a:	d30a      	bcc.n	8006072 <__exponent+0x66>
 800605c:	f10d 0209 	add.w	r2, sp, #9
 8006060:	eba2 020e 	sub.w	r2, r2, lr
 8006064:	4565      	cmp	r5, ip
 8006066:	bf88      	it	hi
 8006068:	2200      	movhi	r2, #0
 800606a:	4413      	add	r3, r2
 800606c:	1a18      	subs	r0, r3, r0
 800606e:	b003      	add	sp, #12
 8006070:	bdf0      	pop	{r4, r5, r6, r7, pc}
 8006072:	f811 2b01 	ldrb.w	r2, [r1], #1
 8006076:	f804 2f01 	strb.w	r2, [r4, #1]!
 800607a:	e7ed      	b.n	8006058 <__exponent+0x4c>
 800607c:	2330      	movs	r3, #48	; 0x30
 800607e:	3130      	adds	r1, #48	; 0x30
 8006080:	7083      	strb	r3, [r0, #2]
 8006082:	70c1      	strb	r1, [r0, #3]
 8006084:	1d03      	adds	r3, r0, #4
 8006086:	e7f1      	b.n	800606c <__exponent+0x60>

08006088 <_printf_float>:
 8006088:	e92d 4ff0 	stmdb	sp!, {r4, r5, r6, r7, r8, r9, sl, fp, lr}
 800608c:	ed2d 8b02 	vpush	{d8}
 8006090:	b08d      	sub	sp, #52	; 0x34
 8006092:	460c      	mov	r4, r1
 8006094:	f8dd 8060 	ldr.w	r8, [sp, #96]	; 0x60
 8006098:	4616      	mov	r6, r2
 800609a:	461f      	mov	r7, r3
 800609c:	4605      	mov	r5, r0
 800609e:	f001 fa57 	bl	8007550 <_localeconv_r>
 80060a2:	f8d0 a000 	ldr.w	sl, [r0]
 80060a6:	4650      	mov	r0, sl
 80060a8:	f7fa f8b2 	bl	8000210 <strlen>
 80060ac:	2300      	movs	r3, #0
 80060ae:	930a      	str	r3, [sp, #40]	; 0x28
 80060b0:	6823      	ldr	r3, [r4, #0]
 80060b2:	9305      	str	r3, [sp, #20]
 80060b4:	f8d8 3000 	ldr.w	r3, [r8]
 80060b8:	f894 b018 	ldrb.w	fp, [r4, #24]
 80060bc:	3307      	adds	r3, #7
 80060be:	f023 0307 	bic.w	r3, r3, #7
 80060c2:	f103 0208 	add.w	r2, r3, #8
 80060c6:	f8c8 2000 	str.w	r2, [r8]
 80060ca:	e9d3 2300 	ldrd	r2, r3, [r3]
 80060ce:	e9c4 2312 	strd	r2, r3, [r4, #72]	; 0x48
 80060d2:	e9d4 8912 	ldrd	r8, r9, [r4, #72]	; 0x48
 80060d6:	f029 4300 	bic.w	r3, r9, #2147483648	; 0x80000000
 80060da:	9307      	str	r3, [sp, #28]
 80060dc:	f8cd 8018 	str.w	r8, [sp, #24]
 80060e0:	ee08 0a10 	vmov	s16, r0
 80060e4:	4b9f      	ldr	r3, [pc, #636]	; (8006364 <_printf_float+0x2dc>)
 80060e6:	e9dd 0106 	ldrd	r0, r1, [sp, #24]
 80060ea:	f04f 32ff 	mov.w	r2, #4294967295	; 0xffffffff
 80060ee:	f7fa fd3d 	bl	8000b6c <__aeabi_dcmpun>
 80060f2:	bb88      	cbnz	r0, 8006158 <_printf_float+0xd0>
 80060f4:	e9dd 0106 	ldrd	r0, r1, [sp, #24]
 80060f8:	4b9a      	ldr	r3, [pc, #616]	; (8006364 <_printf_float+0x2dc>)
 80060fa:	f04f 32ff 	mov.w	r2, #4294967295	; 0xffffffff
 80060fe:	f7fa fd17 	bl	8000b30 <__aeabi_dcmple>
 8006102:	bb48      	cbnz	r0, 8006158 <_printf_float+0xd0>
 8006104:	2200      	movs	r2, #0
 8006106:	2300      	movs	r3, #0
 8006108:	4640      	mov	r0, r8
 800610a:	4649      	mov	r1, r9
 800610c:	f7fa fd06 	bl	8000b1c <__aeabi_dcmplt>
 8006110:	b110      	cbz	r0, 8006118 <_printf_float+0x90>
 8006112:	232d      	movs	r3, #45	; 0x2d
 8006114:	f884 3043 	strb.w	r3, [r4, #67]	; 0x43
 8006118:	4b93      	ldr	r3, [pc, #588]	; (8006368 <_printf_float+0x2e0>)
 800611a:	4894      	ldr	r0, [pc, #592]	; (800636c <_printf_float+0x2e4>)
 800611c:	f1bb 0f47 	cmp.w	fp, #71	; 0x47
 8006120:	bf94      	ite	ls
 8006122:	4698      	movls	r8, r3
 8006124:	4680      	movhi	r8, r0
 8006126:	2303      	movs	r3, #3
 8006128:	6123      	str	r3, [r4, #16]
 800612a:	9b05      	ldr	r3, [sp, #20]
 800612c:	f023 0204 	bic.w	r2, r3, #4
 8006130:	6022      	str	r2, [r4, #0]
 8006132:	f04f 0900 	mov.w	r9, #0
 8006136:	9700      	str	r7, [sp, #0]
 8006138:	4633      	mov	r3, r6
 800613a:	aa0b      	add	r2, sp, #44	; 0x2c
 800613c:	4621      	mov	r1, r4
 800613e:	4628      	mov	r0, r5
 8006140:	f000 f9d8 	bl	80064f4 <_printf_common>
 8006144:	3001      	adds	r0, #1
 8006146:	f040 8090 	bne.w	800626a <_printf_float+0x1e2>
 800614a:	f04f 30ff 	mov.w	r0, #4294967295	; 0xffffffff
 800614e:	b00d      	add	sp, #52	; 0x34
 8006150:	ecbd 8b02 	vpop	{d8}
 8006154:	e8bd 8ff0 	ldmia.w	sp!, {r4, r5, r6, r7, r8, r9, sl, fp, pc}
 8006158:	4642      	mov	r2, r8
 800615a:	464b      	mov	r3, r9
 800615c:	4640      	mov	r0, r8
 800615e:	4649      	mov	r1, r9
 8006160:	f7fa fd04 	bl	8000b6c <__aeabi_dcmpun>
 8006164:	b140      	cbz	r0, 8006178 <_printf_float+0xf0>
 8006166:	464b      	mov	r3, r9
 8006168:	2b00      	cmp	r3, #0
 800616a:	bfbc      	itt	lt
 800616c:	232d      	movlt	r3, #45	; 0x2d
 800616e:	f884 3043 	strblt.w	r3, [r4, #67]	; 0x43
 8006172:	487f      	ldr	r0, [pc, #508]	; (8006370 <_printf_float+0x2e8>)
 8006174:	4b7f      	ldr	r3, [pc, #508]	; (8006374 <_printf_float+0x2ec>)
 8006176:	e7d1      	b.n	800611c <_printf_float+0x94>
 8006178:	6863      	ldr	r3, [r4, #4]
 800617a:	f00b 02df 	and.w	r2, fp, #223	; 0xdf
 800617e:	9206      	str	r2, [sp, #24]
 8006180:	1c5a      	adds	r2, r3, #1
 8006182:	d13f      	bne.n	8006204 <_printf_float+0x17c>
 8006184:	2306      	movs	r3, #6
 8006186:	6063      	str	r3, [r4, #4]
 8006188:	9b05      	ldr	r3, [sp, #20]
 800618a:	6861      	ldr	r1, [r4, #4]
 800618c:	f443 6280 	orr.w	r2, r3, #1024	; 0x400
 8006190:	2300      	movs	r3, #0
 8006192:	9303      	str	r3, [sp, #12]
 8006194:	ab0a      	add	r3, sp, #40	; 0x28
 8006196:	e9cd b301 	strd	fp, r3, [sp, #4]
 800619a:	ab09      	add	r3, sp, #36	; 0x24
 800619c:	ec49 8b10 	vmov	d0, r8, r9
 80061a0:	9300      	str	r3, [sp, #0]
 80061a2:	6022      	str	r2, [r4, #0]
 80061a4:	f10d 0323 	add.w	r3, sp, #35	; 0x23
 80061a8:	4628      	mov	r0, r5
 80061aa:	f7ff fecd 	bl	8005f48 <__cvt>
 80061ae:	9b06      	ldr	r3, [sp, #24]
 80061b0:	9909      	ldr	r1, [sp, #36]	; 0x24
 80061b2:	2b47      	cmp	r3, #71	; 0x47
 80061b4:	4680      	mov	r8, r0
 80061b6:	d108      	bne.n	80061ca <_printf_float+0x142>
 80061b8:	1cc8      	adds	r0, r1, #3
 80061ba:	db02      	blt.n	80061c2 <_printf_float+0x13a>
 80061bc:	6863      	ldr	r3, [r4, #4]
 80061be:	4299      	cmp	r1, r3
 80061c0:	dd41      	ble.n	8006246 <_printf_float+0x1be>
 80061c2:	f1ab 0b02 	sub.w	fp, fp, #2
 80061c6:	fa5f fb8b 	uxtb.w	fp, fp
 80061ca:	f1bb 0f65 	cmp.w	fp, #101	; 0x65
 80061ce:	d820      	bhi.n	8006212 <_printf_float+0x18a>
 80061d0:	3901      	subs	r1, #1
 80061d2:	465a      	mov	r2, fp
 80061d4:	f104 0050 	add.w	r0, r4, #80	; 0x50
 80061d8:	9109      	str	r1, [sp, #36]	; 0x24
 80061da:	f7ff ff17 	bl	800600c <__exponent>
 80061de:	9a0a      	ldr	r2, [sp, #40]	; 0x28
 80061e0:	1813      	adds	r3, r2, r0
 80061e2:	2a01      	cmp	r2, #1
 80061e4:	4681      	mov	r9, r0
 80061e6:	6123      	str	r3, [r4, #16]
 80061e8:	dc02      	bgt.n	80061f0 <_printf_float+0x168>
 80061ea:	6822      	ldr	r2, [r4, #0]
 80061ec:	07d2      	lsls	r2, r2, #31
 80061ee:	d501      	bpl.n	80061f4 <_printf_float+0x16c>
 80061f0:	3301      	adds	r3, #1
 80061f2:	6123      	str	r3, [r4, #16]
 80061f4:	f89d 3023 	ldrb.w	r3, [sp, #35]	; 0x23
 80061f8:	2b00      	cmp	r3, #0
 80061fa:	d09c      	beq.n	8006136 <_printf_float+0xae>
 80061fc:	232d      	movs	r3, #45	; 0x2d
 80061fe:	f884 3043 	strb.w	r3, [r4, #67]	; 0x43
 8006202:	e798      	b.n	8006136 <_printf_float+0xae>
 8006204:	9a06      	ldr	r2, [sp, #24]
 8006206:	2a47      	cmp	r2, #71	; 0x47
 8006208:	d1be      	bne.n	8006188 <_printf_float+0x100>
 800620a:	2b00      	cmp	r3, #0
 800620c:	d1bc      	bne.n	8006188 <_printf_float+0x100>
 800620e:	2301      	movs	r3, #1
 8006210:	e7b9      	b.n	8006186 <_printf_float+0xfe>
 8006212:	f1bb 0f66 	cmp.w	fp, #102	; 0x66
 8006216:	d118      	bne.n	800624a <_printf_float+0x1c2>
 8006218:	2900      	cmp	r1, #0
 800621a:	6863      	ldr	r3, [r4, #4]
 800621c:	dd0b      	ble.n	8006236 <_printf_float+0x1ae>
 800621e:	6121      	str	r1, [r4, #16]
 8006220:	b913      	cbnz	r3, 8006228 <_printf_float+0x1a0>
 8006222:	6822      	ldr	r2, [r4, #0]
 8006224:	07d0      	lsls	r0, r2, #31
 8006226:	d502      	bpl.n	800622e <_printf_float+0x1a6>
 8006228:	3301      	adds	r3, #1
 800622a:	440b      	add	r3, r1
 800622c:	6123      	str	r3, [r4, #16]
 800622e:	65a1      	str	r1, [r4, #88]	; 0x58
 8006230:	f04f 0900 	mov.w	r9, #0
 8006234:	e7de      	b.n	80061f4 <_printf_float+0x16c>
 8006236:	b913      	cbnz	r3, 800623e <_printf_float+0x1b6>
 8006238:	6822      	ldr	r2, [r4, #0]
 800623a:	07d2      	lsls	r2, r2, #31
 800623c:	d501      	bpl.n	8006242 <_printf_float+0x1ba>
 800623e:	3302      	adds	r3, #2
 8006240:	e7f4      	b.n	800622c <_printf_float+0x1a4>
 8006242:	2301      	movs	r3, #1
 8006244:	e7f2      	b.n	800622c <_printf_float+0x1a4>
 8006246:	f04f 0b67 	mov.w	fp, #103	; 0x67
 800624a:	9b0a      	ldr	r3, [sp, #40]	; 0x28
 800624c:	4299      	cmp	r1, r3
 800624e:	db05      	blt.n	800625c <_printf_float+0x1d4>
 8006250:	6823      	ldr	r3, [r4, #0]
 8006252:	6121      	str	r1, [r4, #16]
 8006254:	07d8      	lsls	r0, r3, #31
 8006256:	d5ea      	bpl.n	800622e <_printf_float+0x1a6>
 8006258:	1c4b      	adds	r3, r1, #1
 800625a:	e7e7      	b.n	800622c <_printf_float+0x1a4>
 800625c:	2900      	cmp	r1, #0
 800625e:	bfd4      	ite	le
 8006260:	f1c1 0202 	rsble	r2, r1, #2
 8006264:	2201      	movgt	r2, #1
 8006266:	4413      	add	r3, r2
 8006268:	e7e0      	b.n	800622c <_printf_float+0x1a4>
 800626a:	6823      	ldr	r3, [r4, #0]
 800626c:	055a      	lsls	r2, r3, #21
 800626e:	d407      	bmi.n	8006280 <_printf_float+0x1f8>
 8006270:	6923      	ldr	r3, [r4, #16]
 8006272:	4642      	mov	r2, r8
 8006274:	4631      	mov	r1, r6
 8006276:	4628      	mov	r0, r5
 8006278:	47b8      	blx	r7
 800627a:	3001      	adds	r0, #1
 800627c:	d12c      	bne.n	80062d8 <_printf_float+0x250>
 800627e:	e764      	b.n	800614a <_printf_float+0xc2>
 8006280:	f1bb 0f65 	cmp.w	fp, #101	; 0x65
 8006284:	f240 80e0 	bls.w	8006448 <_printf_float+0x3c0>
 8006288:	e9d4 0112 	ldrd	r0, r1, [r4, #72]	; 0x48
 800628c:	2200      	movs	r2, #0
 800628e:	2300      	movs	r3, #0
 8006290:	f7fa fc3a 	bl	8000b08 <__aeabi_dcmpeq>
 8006294:	2800      	cmp	r0, #0
 8006296:	d034      	beq.n	8006302 <_printf_float+0x27a>
 8006298:	4a37      	ldr	r2, [pc, #220]	; (8006378 <_printf_float+0x2f0>)
 800629a:	2301      	movs	r3, #1
 800629c:	4631      	mov	r1, r6
 800629e:	4628      	mov	r0, r5
 80062a0:	47b8      	blx	r7
 80062a2:	3001      	adds	r0, #1
 80062a4:	f43f af51 	beq.w	800614a <_printf_float+0xc2>
 80062a8:	e9dd 2309 	ldrd	r2, r3, [sp, #36]	; 0x24
 80062ac:	429a      	cmp	r2, r3
 80062ae:	db02      	blt.n	80062b6 <_printf_float+0x22e>
 80062b0:	6823      	ldr	r3, [r4, #0]
 80062b2:	07d8      	lsls	r0, r3, #31
 80062b4:	d510      	bpl.n	80062d8 <_printf_float+0x250>
 80062b6:	ee18 3a10 	vmov	r3, s16
 80062ba:	4652      	mov	r2, sl
 80062bc:	4631      	mov	r1, r6
 80062be:	4628      	mov	r0, r5
 80062c0:	47b8      	blx	r7
 80062c2:	3001      	adds	r0, #1
 80062c4:	f43f af41 	beq.w	800614a <_printf_float+0xc2>
 80062c8:	f04f 0800 	mov.w	r8, #0
 80062cc:	f104 091a 	add.w	r9, r4, #26
 80062d0:	9b0a      	ldr	r3, [sp, #40]	; 0x28
 80062d2:	3b01      	subs	r3, #1
 80062d4:	4543      	cmp	r3, r8
 80062d6:	dc09      	bgt.n	80062ec <_printf_float+0x264>
 80062d8:	6823      	ldr	r3, [r4, #0]
 80062da:	079b      	lsls	r3, r3, #30
 80062dc:	f100 8105 	bmi.w	80064ea <_printf_float+0x462>
 80062e0:	68e0      	ldr	r0, [r4, #12]
 80062e2:	9b0b      	ldr	r3, [sp, #44]	; 0x2c
 80062e4:	4298      	cmp	r0, r3
 80062e6:	bfb8      	it	lt
 80062e8:	4618      	movlt	r0, r3
 80062ea:	e730      	b.n	800614e <_printf_float+0xc6>
 80062ec:	2301      	movs	r3, #1
 80062ee:	464a      	mov	r2, r9
 80062f0:	4631      	mov	r1, r6
 80062f2:	4628      	mov	r0, r5
 80062f4:	47b8      	blx	r7
 80062f6:	3001      	adds	r0, #1
 80062f8:	f43f af27 	beq.w	800614a <_printf_float+0xc2>
 80062fc:	f108 0801 	add.w	r8, r8, #1
 8006300:	e7e6      	b.n	80062d0 <_printf_float+0x248>
 8006302:	9b09      	ldr	r3, [sp, #36]	; 0x24
 8006304:	2b00      	cmp	r3, #0
 8006306:	dc39      	bgt.n	800637c <_printf_float+0x2f4>
 8006308:	4a1b      	ldr	r2, [pc, #108]	; (8006378 <_printf_float+0x2f0>)
 800630a:	2301      	movs	r3, #1
 800630c:	4631      	mov	r1, r6
 800630e:	4628      	mov	r0, r5
 8006310:	47b8      	blx	r7
 8006312:	3001      	adds	r0, #1
 8006314:	f43f af19 	beq.w	800614a <_printf_float+0xc2>
 8006318:	e9dd 2309 	ldrd	r2, r3, [sp, #36]	; 0x24
 800631c:	4313      	orrs	r3, r2
 800631e:	d102      	bne.n	8006326 <_printf_float+0x29e>
 8006320:	6823      	ldr	r3, [r4, #0]
 8006322:	07d9      	lsls	r1, r3, #31
 8006324:	d5d8      	bpl.n	80062d8 <_printf_float+0x250>
 8006326:	ee18 3a10 	vmov	r3, s16
 800632a:	4652      	mov	r2, sl
 800632c:	4631      	mov	r1, r6
 800632e:	4628      	mov	r0, r5
 8006330:	47b8      	blx	r7
 8006332:	3001      	adds	r0, #1
 8006334:	f43f af09 	beq.w	800614a <_printf_float+0xc2>
 8006338:	f04f 0900 	mov.w	r9, #0
 800633c:	f104 0a1a 	add.w	sl, r4, #26
 8006340:	9b09      	ldr	r3, [sp, #36]	; 0x24
 8006342:	425b      	negs	r3, r3
 8006344:	454b      	cmp	r3, r9
 8006346:	dc01      	bgt.n	800634c <_printf_float+0x2c4>
 8006348:	9b0a      	ldr	r3, [sp, #40]	; 0x28
 800634a:	e792      	b.n	8006272 <_printf_float+0x1ea>
 800634c:	2301      	movs	r3, #1
 800634e:	4652      	mov	r2, sl
 8006350:	4631      	mov	r1, r6
 8006352:	4628      	mov	r0, r5
 8006354:	47b8      	blx	r7
 8006356:	3001      	adds	r0, #1
 8006358:	f43f aef7 	beq.w	800614a <_printf_float+0xc2>
 800635c:	f109 0901 	add.w	r9, r9, #1
 8006360:	e7ee      	b.n	8006340 <_printf_float+0x2b8>
 8006362:	bf00      	nop
 8006364:	7fefffff 	.word	0x7fefffff
 8006368:	08008d34 	.word	0x08008d34
 800636c:	08008d38 	.word	0x08008d38
 8006370:	08008d40 	.word	0x08008d40
 8006374:	08008d3c 	.word	0x08008d3c
 8006378:	08008d44 	.word	0x08008d44
 800637c:	9a0a      	ldr	r2, [sp, #40]	; 0x28
 800637e:	6da3      	ldr	r3, [r4, #88]	; 0x58
 8006380:	429a      	cmp	r2, r3
 8006382:	bfa8      	it	ge
 8006384:	461a      	movge	r2, r3
 8006386:	2a00      	cmp	r2, #0
 8006388:	4691      	mov	r9, r2
 800638a:	dc37      	bgt.n	80063fc <_printf_float+0x374>
 800638c:	f04f 0b00 	mov.w	fp, #0
 8006390:	ea29 79e9 	bic.w	r9, r9, r9, asr #31
 8006394:	f104 021a 	add.w	r2, r4, #26
 8006398:	6da3      	ldr	r3, [r4, #88]	; 0x58
 800639a:	9305      	str	r3, [sp, #20]
 800639c:	eba3 0309 	sub.w	r3, r3, r9
 80063a0:	455b      	cmp	r3, fp
 80063a2:	dc33      	bgt.n	800640c <_printf_float+0x384>
 80063a4:	e9dd 2309 	ldrd	r2, r3, [sp, #36]	; 0x24
 80063a8:	429a      	cmp	r2, r3
 80063aa:	db3b      	blt.n	8006424 <_printf_float+0x39c>
 80063ac:	6823      	ldr	r3, [r4, #0]
 80063ae:	07da      	lsls	r2, r3, #31
 80063b0:	d438      	bmi.n	8006424 <_printf_float+0x39c>
 80063b2:	9a0a      	ldr	r2, [sp, #40]	; 0x28
 80063b4:	9b05      	ldr	r3, [sp, #20]
 80063b6:	9909      	ldr	r1, [sp, #36]	; 0x24
 80063b8:	1ad3      	subs	r3, r2, r3
 80063ba:	eba2 0901 	sub.w	r9, r2, r1
 80063be:	4599      	cmp	r9, r3
 80063c0:	bfa8      	it	ge
 80063c2:	4699      	movge	r9, r3
 80063c4:	f1b9 0f00 	cmp.w	r9, #0
 80063c8:	dc35      	bgt.n	8006436 <_printf_float+0x3ae>
 80063ca:	f04f 0800 	mov.w	r8, #0
 80063ce:	ea29 79e9 	bic.w	r9, r9, r9, asr #31
 80063d2:	f104 0a1a 	add.w	sl, r4, #26
 80063d6:	e9dd 2309 	ldrd	r2, r3, [sp, #36]	; 0x24
 80063da:	1a9b      	subs	r3, r3, r2
 80063dc:	eba3 0309 	sub.w	r3, r3, r9
 80063e0:	4543      	cmp	r3, r8
 80063e2:	f77f af79 	ble.w	80062d8 <_printf_float+0x250>
 80063e6:	2301      	movs	r3, #1
 80063e8:	4652      	mov	r2, sl
 80063ea:	4631      	mov	r1, r6
 80063ec:	4628      	mov	r0, r5
 80063ee:	47b8      	blx	r7
 80063f0:	3001      	adds	r0, #1
 80063f2:	f43f aeaa 	beq.w	800614a <_printf_float+0xc2>
 80063f6:	f108 0801 	add.w	r8, r8, #1
 80063fa:	e7ec      	b.n	80063d6 <_printf_float+0x34e>
 80063fc:	4613      	mov	r3, r2
 80063fe:	4631      	mov	r1, r6
 8006400:	4642      	mov	r2, r8
 8006402:	4628      	mov	r0, r5
 8006404:	47b8      	blx	r7
 8006406:	3001      	adds	r0, #1
 8006408:	d1c0      	bne.n	800638c <_printf_float+0x304>
 800640a:	e69e      	b.n	800614a <_printf_float+0xc2>
 800640c:	2301      	movs	r3, #1
 800640e:	4631      	mov	r1, r6
 8006410:	4628      	mov	r0, r5
 8006412:	9205      	str	r2, [sp, #20]
 8006414:	47b8      	blx	r7
 8006416:	3001      	adds	r0, #1
 8006418:	f43f ae97 	beq.w	800614a <_printf_float+0xc2>
 800641c:	9a05      	ldr	r2, [sp, #20]
 800641e:	f10b 0b01 	add.w	fp, fp, #1
 8006422:	e7b9      	b.n	8006398 <_printf_float+0x310>
 8006424:	ee18 3a10 	vmov	r3, s16
 8006428:	4652      	mov	r2, sl
 800642a:	4631      	mov	r1, r6
 800642c:	4628      	mov	r0, r5
 800642e:	47b8      	blx	r7
 8006430:	3001      	adds	r0, #1
 8006432:	d1be      	bne.n	80063b2 <_printf_float+0x32a>
 8006434:	e689      	b.n	800614a <_printf_float+0xc2>
 8006436:	9a05      	ldr	r2, [sp, #20]
 8006438:	464b      	mov	r3, r9
 800643a:	4442      	add	r2, r8
 800643c:	4631      	mov	r1, r6
 800643e:	4628      	mov	r0, r5
 8006440:	47b8      	blx	r7
 8006442:	3001      	adds	r0, #1
 8006444:	d1c1      	bne.n	80063ca <_printf_float+0x342>
 8006446:	e680      	b.n	800614a <_printf_float+0xc2>
 8006448:	9a0a      	ldr	r2, [sp, #40]	; 0x28
 800644a:	2a01      	cmp	r2, #1
 800644c:	dc01      	bgt.n	8006452 <_printf_float+0x3ca>
 800644e:	07db      	lsls	r3, r3, #31
 8006450:	d538      	bpl.n	80064c4 <_printf_float+0x43c>
 8006452:	2301      	movs	r3, #1
 8006454:	4642      	mov	r2, r8
 8006456:	4631      	mov	r1, r6
 8006458:	4628      	mov	r0, r5
 800645a:	47b8      	blx	r7
 800645c:	3001      	adds	r0, #1
 800645e:	f43f ae74 	beq.w	800614a <_printf_float+0xc2>
 8006462:	ee18 3a10 	vmov	r3, s16
 8006466:	4652      	mov	r2, sl
 8006468:	4631      	mov	r1, r6
 800646a:	4628      	mov	r0, r5
 800646c:	47b8      	blx	r7
 800646e:	3001      	adds	r0, #1
 8006470:	f43f ae6b 	beq.w	800614a <_printf_float+0xc2>
 8006474:	e9d4 0112 	ldrd	r0, r1, [r4, #72]	; 0x48
 8006478:	2200      	movs	r2, #0
 800647a:	2300      	movs	r3, #0
 800647c:	f7fa fb44 	bl	8000b08 <__aeabi_dcmpeq>
 8006480:	b9d8      	cbnz	r0, 80064ba <_printf_float+0x432>
 8006482:	9b0a      	ldr	r3, [sp, #40]	; 0x28
 8006484:	f108 0201 	add.w	r2, r8, #1
 8006488:	3b01      	subs	r3, #1
 800648a:	4631      	mov	r1, r6
 800648c:	4628      	mov	r0, r5
 800648e:	47b8      	blx	r7
 8006490:	3001      	adds	r0, #1
 8006492:	d10e      	bne.n	80064b2 <_printf_float+0x42a>
 8006494:	e659      	b.n	800614a <_printf_float+0xc2>
 8006496:	2301      	movs	r3, #1
 8006498:	4652      	mov	r2, sl
 800649a:	4631      	mov	r1, r6
 800649c:	4628      	mov	r0, r5
 800649e:	47b8      	blx	r7
 80064a0:	3001      	adds	r0, #1
 80064a2:	f43f ae52 	beq.w	800614a <_printf_float+0xc2>
 80064a6:	f108 0801 	add.w	r8, r8, #1
 80064aa:	9b0a      	ldr	r3, [sp, #40]	; 0x28
 80064ac:	3b01      	subs	r3, #1
 80064ae:	4543      	cmp	r3, r8
 80064b0:	dcf1      	bgt.n	8006496 <_printf_float+0x40e>
 80064b2:	464b      	mov	r3, r9
 80064b4:	f104 0250 	add.w	r2, r4, #80	; 0x50
 80064b8:	e6dc      	b.n	8006274 <_printf_float+0x1ec>
 80064ba:	f04f 0800 	mov.w	r8, #0
 80064be:	f104 0a1a 	add.w	sl, r4, #26
 80064c2:	e7f2      	b.n	80064aa <_printf_float+0x422>
 80064c4:	2301      	movs	r3, #1
 80064c6:	4642      	mov	r2, r8
 80064c8:	e7df      	b.n	800648a <_printf_float+0x402>
 80064ca:	2301      	movs	r3, #1
 80064cc:	464a      	mov	r2, r9
 80064ce:	4631      	mov	r1, r6
 80064d0:	4628      	mov	r0, r5
 80064d2:	47b8      	blx	r7
 80064d4:	3001      	adds	r0, #1
 80064d6:	f43f ae38 	beq.w	800614a <_printf_float+0xc2>
 80064da:	f108 0801 	add.w	r8, r8, #1
 80064de:	68e3      	ldr	r3, [r4, #12]
 80064e0:	990b      	ldr	r1, [sp, #44]	; 0x2c
 80064e2:	1a5b      	subs	r3, r3, r1
 80064e4:	4543      	cmp	r3, r8
 80064e6:	dcf0      	bgt.n	80064ca <_printf_float+0x442>
 80064e8:	e6fa      	b.n	80062e0 <_printf_float+0x258>
 80064ea:	f04f 0800 	mov.w	r8, #0
 80064ee:	f104 0919 	add.w	r9, r4, #25
 80064f2:	e7f4      	b.n	80064de <_printf_float+0x456>

080064f4 <_printf_common>:
 80064f4:	e92d 47f0 	stmdb	sp!, {r4, r5, r6, r7, r8, r9, sl, lr}
 80064f8:	4616      	mov	r6, r2
 80064fa:	4699      	mov	r9, r3
 80064fc:	688a      	ldr	r2, [r1, #8]
 80064fe:	690b      	ldr	r3, [r1, #16]
 8006500:	f8dd 8020 	ldr.w	r8, [sp, #32]
 8006504:	4293      	cmp	r3, r2
 8006506:	bfb8      	it	lt
 8006508:	4613      	movlt	r3, r2
 800650a:	6033      	str	r3, [r6, #0]
 800650c:	f891 2043 	ldrb.w	r2, [r1, #67]	; 0x43
 8006510:	4607      	mov	r7, r0
 8006512:	460c      	mov	r4, r1
 8006514:	b10a      	cbz	r2, 800651a <_printf_common+0x26>
 8006516:	3301      	adds	r3, #1
 8006518:	6033      	str	r3, [r6, #0]
 800651a:	6823      	ldr	r3, [r4, #0]
 800651c:	0699      	lsls	r1, r3, #26
 800651e:	bf42      	ittt	mi
 8006520:	6833      	ldrmi	r3, [r6, #0]
 8006522:	3302      	addmi	r3, #2
 8006524:	6033      	strmi	r3, [r6, #0]
 8006526:	6825      	ldr	r5, [r4, #0]
 8006528:	f015 0506 	ands.w	r5, r5, #6
 800652c:	d106      	bne.n	800653c <_printf_common+0x48>
 800652e:	f104 0a19 	add.w	sl, r4, #25
 8006532:	68e3      	ldr	r3, [r4, #12]
 8006534:	6832      	ldr	r2, [r6, #0]
 8006536:	1a9b      	subs	r3, r3, r2
 8006538:	42ab      	cmp	r3, r5
 800653a:	dc26      	bgt.n	800658a <_printf_common+0x96>
 800653c:	f894 2043 	ldrb.w	r2, [r4, #67]	; 0x43
 8006540:	1e13      	subs	r3, r2, #0
 8006542:	6822      	ldr	r2, [r4, #0]
 8006544:	bf18      	it	ne
 8006546:	2301      	movne	r3, #1
 8006548:	0692      	lsls	r2, r2, #26
 800654a:	d42b      	bmi.n	80065a4 <_printf_common+0xb0>
 800654c:	f104 0243 	add.w	r2, r4, #67	; 0x43
 8006550:	4649      	mov	r1, r9
 8006552:	4638      	mov	r0, r7
 8006554:	47c0      	blx	r8
 8006556:	3001      	adds	r0, #1
 8006558:	d01e      	beq.n	8006598 <_printf_common+0xa4>
 800655a:	6823      	ldr	r3, [r4, #0]
 800655c:	68e5      	ldr	r5, [r4, #12]
 800655e:	6832      	ldr	r2, [r6, #0]
 8006560:	f003 0306 	and.w	r3, r3, #6
 8006564:	2b04      	cmp	r3, #4
 8006566:	bf08      	it	eq
 8006568:	1aad      	subeq	r5, r5, r2
 800656a:	68a3      	ldr	r3, [r4, #8]
 800656c:	6922      	ldr	r2, [r4, #16]
 800656e:	bf0c      	ite	eq
 8006570:	ea25 75e5 	biceq.w	r5, r5, r5, asr #31
 8006574:	2500      	movne	r5, #0
 8006576:	4293      	cmp	r3, r2
 8006578:	bfc4      	itt	gt
 800657a:	1a9b      	subgt	r3, r3, r2
 800657c:	18ed      	addgt	r5, r5, r3
 800657e:	2600      	movs	r6, #0
 8006580:	341a      	adds	r4, #26
 8006582:	42b5      	cmp	r5, r6
 8006584:	d11a      	bne.n	80065bc <_printf_common+0xc8>
 8006586:	2000      	movs	r0, #0
 8006588:	e008      	b.n	800659c <_printf_common+0xa8>
 800658a:	2301      	movs	r3, #1
 800658c:	4652      	mov	r2, sl
 800658e:	4649      	mov	r1, r9
 8006590:	4638      	mov	r0, r7
 8006592:	47c0      	blx	r8
 8006594:	3001      	adds	r0, #1
 8006596:	d103      	bne.n	80065a0 <_printf_common+0xac>
 8006598:	f04f 30ff 	mov.w	r0, #4294967295	; 0xffffffff
 800659c:	e8bd 87f0 	ldmia.w	sp!, {r4, r5, r6, r7, r8, r9, sl, pc}
 80065a0:	3501      	adds	r5, #1
 80065a2:	e7c6      	b.n	8006532 <_printf_common+0x3e>
 80065a4:	18e1      	adds	r1, r4, r3
 80065a6:	1c5a      	adds	r2, r3, #1
 80065a8:	2030      	movs	r0, #48	; 0x30
 80065aa:	f881 0043 	strb.w	r0, [r1, #67]	; 0x43
 80065ae:	4422      	add	r2, r4
 80065b0:	f894 1045 	ldrb.w	r1, [r4, #69]	; 0x45
 80065b4:	f882 1043 	strb.w	r1, [r2, #67]	; 0x43
 80065b8:	3302      	adds	r3, #2
 80065ba:	e7c7      	b.n	800654c <_printf_common+0x58>
 80065bc:	2301      	movs	r3, #1
 80065be:	4622      	mov	r2, r4
 80065c0:	4649      	mov	r1, r9
 80065c2:	4638      	mov	r0, r7
 80065c4:	47c0      	blx	r8
 80065c6:	3001      	adds	r0, #1
 80065c8:	d0e6      	beq.n	8006598 <_printf_common+0xa4>
 80065ca:	3601      	adds	r6, #1
 80065cc:	e7d9      	b.n	8006582 <_printf_common+0x8e>
	...

080065d0 <_printf_i>:
 80065d0:	e92d 47ff 	stmdb	sp!, {r0, r1, r2, r3, r4, r5, r6, r7, r8, r9, sl, lr}
 80065d4:	460c      	mov	r4, r1
 80065d6:	4691      	mov	r9, r2
 80065d8:	7e27      	ldrb	r7, [r4, #24]
 80065da:	990c      	ldr	r1, [sp, #48]	; 0x30
 80065dc:	2f78      	cmp	r7, #120	; 0x78
 80065de:	4680      	mov	r8, r0
 80065e0:	469a      	mov	sl, r3
 80065e2:	f104 0243 	add.w	r2, r4, #67	; 0x43
 80065e6:	d807      	bhi.n	80065f8 <_printf_i+0x28>
 80065e8:	2f62      	cmp	r7, #98	; 0x62
 80065ea:	d80a      	bhi.n	8006602 <_printf_i+0x32>
 80065ec:	2f00      	cmp	r7, #0
 80065ee:	f000 80d8 	beq.w	80067a2 <_printf_i+0x1d2>
 80065f2:	2f58      	cmp	r7, #88	; 0x58
 80065f4:	f000 80a3 	beq.w	800673e <_printf_i+0x16e>
 80065f8:	f104 0642 	add.w	r6, r4, #66	; 0x42
 80065fc:	f884 7042 	strb.w	r7, [r4, #66]	; 0x42
 8006600:	e03a      	b.n	8006678 <_printf_i+0xa8>
 8006602:	f1a7 0363 	sub.w	r3, r7, #99	; 0x63
 8006606:	2b15      	cmp	r3, #21
 8006608:	d8f6      	bhi.n	80065f8 <_printf_i+0x28>
 800660a:	a001      	add	r0, pc, #4	; (adr r0, 8006610 <_printf_i+0x40>)
 800660c:	f850 f023 	ldr.w	pc, [r0, r3, lsl #2]
 8006610:	08006669 	.word	0x08006669
 8006614:	0800667d 	.word	0x0800667d
 8006618:	080065f9 	.word	0x080065f9
 800661c:	080065f9 	.word	0x080065f9
 8006620:	080065f9 	.word	0x080065f9
 8006624:	080065f9 	.word	0x080065f9
 8006628:	0800667d 	.word	0x0800667d
 800662c:	080065f9 	.word	0x080065f9
 8006630:	080065f9 	.word	0x080065f9
 8006634:	080065f9 	.word	0x080065f9
 8006638:	080065f9 	.word	0x080065f9
 800663c:	08006789 	.word	0x08006789
 8006640:	080066ad 	.word	0x080066ad
 8006644:	0800676b 	.word	0x0800676b
 8006648:	080065f9 	.word	0x080065f9
 800664c:	080065f9 	.word	0x080065f9
 8006650:	080067ab 	.word	0x080067ab
 8006654:	080065f9 	.word	0x080065f9
 8006658:	080066ad 	.word	0x080066ad
 800665c:	080065f9 	.word	0x080065f9
 8006660:	080065f9 	.word	0x080065f9
 8006664:	08006773 	.word	0x08006773
 8006668:	680b      	ldr	r3, [r1, #0]
 800666a:	1d1a      	adds	r2, r3, #4
 800666c:	681b      	ldr	r3, [r3, #0]
 800666e:	600a      	str	r2, [r1, #0]
 8006670:	f104 0642 	add.w	r6, r4, #66	; 0x42
 8006674:	f884 3042 	strb.w	r3, [r4, #66]	; 0x42
 8006678:	2301      	movs	r3, #1
 800667a:	e0a3      	b.n	80067c4 <_printf_i+0x1f4>
 800667c:	6825      	ldr	r5, [r4, #0]
 800667e:	6808      	ldr	r0, [r1, #0]
 8006680:	062e      	lsls	r6, r5, #24
 8006682:	f100 0304 	add.w	r3, r0, #4
 8006686:	d50a      	bpl.n	800669e <_printf_i+0xce>
 8006688:	6805      	ldr	r5, [r0, #0]
 800668a:	600b      	str	r3, [r1, #0]
 800668c:	2d00      	cmp	r5, #0
 800668e:	da03      	bge.n	8006698 <_printf_i+0xc8>
 8006690:	232d      	movs	r3, #45	; 0x2d
 8006692:	426d      	negs	r5, r5
 8006694:	f884 3043 	strb.w	r3, [r4, #67]	; 0x43
 8006698:	485e      	ldr	r0, [pc, #376]	; (8006814 <_printf_i+0x244>)
 800669a:	230a      	movs	r3, #10
 800669c:	e019      	b.n	80066d2 <_printf_i+0x102>
 800669e:	f015 0f40 	tst.w	r5, #64	; 0x40
 80066a2:	6805      	ldr	r5, [r0, #0]
 80066a4:	600b      	str	r3, [r1, #0]
 80066a6:	bf18      	it	ne
 80066a8:	b22d      	sxthne	r5, r5
 80066aa:	e7ef      	b.n	800668c <_printf_i+0xbc>
 80066ac:	680b      	ldr	r3, [r1, #0]
 80066ae:	6825      	ldr	r5, [r4, #0]
 80066b0:	1d18      	adds	r0, r3, #4
 80066b2:	6008      	str	r0, [r1, #0]
 80066b4:	0628      	lsls	r0, r5, #24
 80066b6:	d501      	bpl.n	80066bc <_printf_i+0xec>
 80066b8:	681d      	ldr	r5, [r3, #0]
 80066ba:	e002      	b.n	80066c2 <_printf_i+0xf2>
 80066bc:	0669      	lsls	r1, r5, #25
 80066be:	d5fb      	bpl.n	80066b8 <_printf_i+0xe8>
 80066c0:	881d      	ldrh	r5, [r3, #0]
 80066c2:	4854      	ldr	r0, [pc, #336]	; (8006814 <_printf_i+0x244>)
 80066c4:	2f6f      	cmp	r7, #111	; 0x6f
 80066c6:	bf0c      	ite	eq
 80066c8:	2308      	moveq	r3, #8
 80066ca:	230a      	movne	r3, #10
 80066cc:	2100      	movs	r1, #0
 80066ce:	f884 1043 	strb.w	r1, [r4, #67]	; 0x43
 80066d2:	6866      	ldr	r6, [r4, #4]
 80066d4:	60a6      	str	r6, [r4, #8]
 80066d6:	2e00      	cmp	r6, #0
 80066d8:	bfa2      	ittt	ge
 80066da:	6821      	ldrge	r1, [r4, #0]
 80066dc:	f021 0104 	bicge.w	r1, r1, #4
 80066e0:	6021      	strge	r1, [r4, #0]
 80066e2:	b90d      	cbnz	r5, 80066e8 <_printf_i+0x118>
 80066e4:	2e00      	cmp	r6, #0
 80066e6:	d04d      	beq.n	8006784 <_printf_i+0x1b4>
 80066e8:	4616      	mov	r6, r2
 80066ea:	fbb5 f1f3 	udiv	r1, r5, r3
 80066ee:	fb03 5711 	mls	r7, r3, r1, r5
 80066f2:	5dc7      	ldrb	r7, [r0, r7]
 80066f4:	f806 7d01 	strb.w	r7, [r6, #-1]!
 80066f8:	462f      	mov	r7, r5
 80066fa:	42bb      	cmp	r3, r7
 80066fc:	460d      	mov	r5, r1
 80066fe:	d9f4      	bls.n	80066ea <_printf_i+0x11a>
 8006700:	2b08      	cmp	r3, #8
 8006702:	d10b      	bne.n	800671c <_printf_i+0x14c>
 8006704:	6823      	ldr	r3, [r4, #0]
 8006706:	07df      	lsls	r7, r3, #31
 8006708:	d508      	bpl.n	800671c <_printf_i+0x14c>
 800670a:	6923      	ldr	r3, [r4, #16]
 800670c:	6861      	ldr	r1, [r4, #4]
 800670e:	4299      	cmp	r1, r3
 8006710:	bfde      	ittt	le
 8006712:	2330      	movle	r3, #48	; 0x30
 8006714:	f806 3c01 	strble.w	r3, [r6, #-1]
 8006718:	f106 36ff 	addle.w	r6, r6, #4294967295	; 0xffffffff
 800671c:	1b92      	subs	r2, r2, r6
 800671e:	6122      	str	r2, [r4, #16]
 8006720:	f8cd a000 	str.w	sl, [sp]
 8006724:	464b      	mov	r3, r9
 8006726:	aa03      	add	r2, sp, #12
 8006728:	4621      	mov	r1, r4
 800672a:	4640      	mov	r0, r8
 800672c:	f7ff fee2 	bl	80064f4 <_printf_common>
 8006730:	3001      	adds	r0, #1
 8006732:	d14c      	bne.n	80067ce <_printf_i+0x1fe>
 8006734:	f04f 30ff 	mov.w	r0, #4294967295	; 0xffffffff
 8006738:	b004      	add	sp, #16
 800673a:	e8bd 87f0 	ldmia.w	sp!, {r4, r5, r6, r7, r8, r9, sl, pc}
 800673e:	4835      	ldr	r0, [pc, #212]	; (8006814 <_printf_i+0x244>)
 8006740:	f884 7045 	strb.w	r7, [r4, #69]	; 0x45
 8006744:	6823      	ldr	r3, [r4, #0]
 8006746:	680e      	ldr	r6, [r1, #0]
 8006748:	061f      	lsls	r7, r3, #24
 800674a:	f856 5b04 	ldr.w	r5, [r6], #4
 800674e:	600e      	str	r6, [r1, #0]
 8006750:	d514      	bpl.n	800677c <_printf_i+0x1ac>
 8006752:	07d9      	lsls	r1, r3, #31
 8006754:	bf44      	itt	mi
 8006756:	f043 0320 	orrmi.w	r3, r3, #32
 800675a:	6023      	strmi	r3, [r4, #0]
 800675c:	b91d      	cbnz	r5, 8006766 <_printf_i+0x196>
 800675e:	6823      	ldr	r3, [r4, #0]
 8006760:	f023 0320 	bic.w	r3, r3, #32
 8006764:	6023      	str	r3, [r4, #0]
 8006766:	2310      	movs	r3, #16
 8006768:	e7b0      	b.n	80066cc <_printf_i+0xfc>
 800676a:	6823      	ldr	r3, [r4, #0]
 800676c:	f043 0320 	orr.w	r3, r3, #32
 8006770:	6023      	str	r3, [r4, #0]
 8006772:	2378      	movs	r3, #120	; 0x78
 8006774:	4828      	ldr	r0, [pc, #160]	; (8006818 <_printf_i+0x248>)
 8006776:	f884 3045 	strb.w	r3, [r4, #69]	; 0x45
 800677a:	e7e3      	b.n	8006744 <_printf_i+0x174>
 800677c:	065e      	lsls	r6, r3, #25
 800677e:	bf48      	it	mi
 8006780:	b2ad      	uxthmi	r5, r5
 8006782:	e7e6      	b.n	8006752 <_printf_i+0x182>
 8006784:	4616      	mov	r6, r2
 8006786:	e7bb      	b.n	8006700 <_printf_i+0x130>
 8006788:	680b      	ldr	r3, [r1, #0]
 800678a:	6826      	ldr	r6, [r4, #0]
 800678c:	6960      	ldr	r0, [r4, #20]
 800678e:	1d1d      	adds	r5, r3, #4
 8006790:	600d      	str	r5, [r1, #0]
 8006792:	0635      	lsls	r5, r6, #24
 8006794:	681b      	ldr	r3, [r3, #0]
 8006796:	d501      	bpl.n	800679c <_printf_i+0x1cc>
 8006798:	6018      	str	r0, [r3, #0]
 800679a:	e002      	b.n	80067a2 <_printf_i+0x1d2>
 800679c:	0671      	lsls	r1, r6, #25
 800679e:	d5fb      	bpl.n	8006798 <_printf_i+0x1c8>
 80067a0:	8018      	strh	r0, [r3, #0]
 80067a2:	2300      	movs	r3, #0
 80067a4:	6123      	str	r3, [r4, #16]
 80067a6:	4616      	mov	r6, r2
 80067a8:	e7ba      	b.n	8006720 <_printf_i+0x150>
 80067aa:	680b      	ldr	r3, [r1, #0]
 80067ac:	1d1a      	adds	r2, r3, #4
 80067ae:	600a      	str	r2, [r1, #0]
 80067b0:	681e      	ldr	r6, [r3, #0]
 80067b2:	6862      	ldr	r2, [r4, #4]
 80067b4:	2100      	movs	r1, #0
 80067b6:	4630      	mov	r0, r6
 80067b8:	f7f9 fd32 	bl	8000220 <memchr>
 80067bc:	b108      	cbz	r0, 80067c2 <_printf_i+0x1f2>
 80067be:	1b80      	subs	r0, r0, r6
 80067c0:	6060      	str	r0, [r4, #4]
 80067c2:	6863      	ldr	r3, [r4, #4]
 80067c4:	6123      	str	r3, [r4, #16]
 80067c6:	2300      	movs	r3, #0
 80067c8:	f884 3043 	strb.w	r3, [r4, #67]	; 0x43
 80067cc:	e7a8      	b.n	8006720 <_printf_i+0x150>
 80067ce:	6923      	ldr	r3, [r4, #16]
 80067d0:	4632      	mov	r2, r6
 80067d2:	4649      	mov	r1, r9
 80067d4:	4640      	mov	r0, r8
 80067d6:	47d0      	blx	sl
 80067d8:	3001      	adds	r0, #1
 80067da:	d0ab      	beq.n	8006734 <_printf_i+0x164>
 80067dc:	6823      	ldr	r3, [r4, #0]
 80067de:	079b      	lsls	r3, r3, #30
 80067e0:	d413      	bmi.n	800680a <_printf_i+0x23a>
 80067e2:	68e0      	ldr	r0, [r4, #12]
 80067e4:	9b03      	ldr	r3, [sp, #12]
 80067e6:	4298      	cmp	r0, r3
 80067e8:	bfb8      	it	lt
 80067ea:	4618      	movlt	r0, r3
 80067ec:	e7a4      	b.n	8006738 <_printf_i+0x168>
 80067ee:	2301      	movs	r3, #1
 80067f0:	4632      	mov	r2, r6
 80067f2:	4649      	mov	r1, r9
 80067f4:	4640      	mov	r0, r8
 80067f6:	47d0      	blx	sl
 80067f8:	3001      	adds	r0, #1
 80067fa:	d09b      	beq.n	8006734 <_printf_i+0x164>
 80067fc:	3501      	adds	r5, #1
 80067fe:	68e3      	ldr	r3, [r4, #12]
 8006800:	9903      	ldr	r1, [sp, #12]
 8006802:	1a5b      	subs	r3, r3, r1
 8006804:	42ab      	cmp	r3, r5
 8006806:	dcf2      	bgt.n	80067ee <_printf_i+0x21e>
 8006808:	e7eb      	b.n	80067e2 <_printf_i+0x212>
 800680a:	2500      	movs	r5, #0
 800680c:	f104 0619 	add.w	r6, r4, #25
 8006810:	e7f5      	b.n	80067fe <_printf_i+0x22e>
 8006812:	bf00      	nop
 8006814:	08008d46 	.word	0x08008d46
 8006818:	08008d57 	.word	0x08008d57

0800681c <siprintf>:
 800681c:	b40e      	push	{r1, r2, r3}
 800681e:	b500      	push	{lr}
 8006820:	b09c      	sub	sp, #112	; 0x70
 8006822:	ab1d      	add	r3, sp, #116	; 0x74
 8006824:	9002      	str	r0, [sp, #8]
 8006826:	9006      	str	r0, [sp, #24]
 8006828:	f06f 4100 	mvn.w	r1, #2147483648	; 0x80000000
 800682c:	4809      	ldr	r0, [pc, #36]	; (8006854 <siprintf+0x38>)
 800682e:	9107      	str	r1, [sp, #28]
 8006830:	9104      	str	r1, [sp, #16]
 8006832:	4909      	ldr	r1, [pc, #36]	; (8006858 <siprintf+0x3c>)
 8006834:	f853 2b04 	ldr.w	r2, [r3], #4
 8006838:	9105      	str	r1, [sp, #20]
 800683a:	6800      	ldr	r0, [r0, #0]
 800683c:	9301      	str	r3, [sp, #4]
 800683e:	a902      	add	r1, sp, #8
 8006840:	f001 fb34 	bl	8007eac <_svfiprintf_r>
 8006844:	9b02      	ldr	r3, [sp, #8]
 8006846:	2200      	movs	r2, #0
 8006848:	701a      	strb	r2, [r3, #0]
 800684a:	b01c      	add	sp, #112	; 0x70
 800684c:	f85d eb04 	ldr.w	lr, [sp], #4
 8006850:	b003      	add	sp, #12
 8006852:	4770      	bx	lr
 8006854:	20000028 	.word	0x20000028
 8006858:	ffff0208 	.word	0xffff0208

0800685c <quorem>:
 800685c:	e92d 4ff7 	stmdb	sp!, {r0, r1, r2, r4, r5, r6, r7, r8, r9, sl, fp, lr}
 8006860:	6903      	ldr	r3, [r0, #16]
 8006862:	690c      	ldr	r4, [r1, #16]
 8006864:	42a3      	cmp	r3, r4
 8006866:	4607      	mov	r7, r0
 8006868:	f2c0 8081 	blt.w	800696e <quorem+0x112>
 800686c:	3c01      	subs	r4, #1
 800686e:	f101 0814 	add.w	r8, r1, #20
 8006872:	f100 0514 	add.w	r5, r0, #20
 8006876:	eb05 0384 	add.w	r3, r5, r4, lsl #2
 800687a:	9301      	str	r3, [sp, #4]
 800687c:	f858 3024 	ldr.w	r3, [r8, r4, lsl #2]
 8006880:	f855 2024 	ldr.w	r2, [r5, r4, lsl #2]
 8006884:	3301      	adds	r3, #1
 8006886:	429a      	cmp	r2, r3
 8006888:	ea4f 0b84 	mov.w	fp, r4, lsl #2
 800688c:	eb08 0984 	add.w	r9, r8, r4, lsl #2
 8006890:	fbb2 f6f3 	udiv	r6, r2, r3
 8006894:	d331      	bcc.n	80068fa <quorem+0x9e>
 8006896:	f04f 0e00 	mov.w	lr, #0
 800689a:	4640      	mov	r0, r8
 800689c:	46ac      	mov	ip, r5
 800689e:	46f2      	mov	sl, lr
 80068a0:	f850 2b04 	ldr.w	r2, [r0], #4
 80068a4:	b293      	uxth	r3, r2
 80068a6:	fb06 e303 	mla	r3, r6, r3, lr
 80068aa:	ea4f 4e13 	mov.w	lr, r3, lsr #16
 80068ae:	b29b      	uxth	r3, r3
 80068b0:	ebaa 0303 	sub.w	r3, sl, r3
 80068b4:	0c12      	lsrs	r2, r2, #16
 80068b6:	f8dc a000 	ldr.w	sl, [ip]
 80068ba:	fb06 e202 	mla	r2, r6, r2, lr
 80068be:	fa13 f38a 	uxtah	r3, r3, sl
 80068c2:	ea4f 4e12 	mov.w	lr, r2, lsr #16
 80068c6:	fa1f fa82 	uxth.w	sl, r2
 80068ca:	f8dc 2000 	ldr.w	r2, [ip]
 80068ce:	ebca 4212 	rsb	r2, sl, r2, lsr #16
 80068d2:	eb02 4223 	add.w	r2, r2, r3, asr #16
 80068d6:	b29b      	uxth	r3, r3
 80068d8:	ea43 4302 	orr.w	r3, r3, r2, lsl #16
 80068dc:	4581      	cmp	r9, r0
 80068de:	f84c 3b04 	str.w	r3, [ip], #4
 80068e2:	ea4f 4a22 	mov.w	sl, r2, asr #16
 80068e6:	d2db      	bcs.n	80068a0 <quorem+0x44>
 80068e8:	f855 300b 	ldr.w	r3, [r5, fp]
 80068ec:	b92b      	cbnz	r3, 80068fa <quorem+0x9e>
 80068ee:	9b01      	ldr	r3, [sp, #4]
 80068f0:	3b04      	subs	r3, #4
 80068f2:	429d      	cmp	r5, r3
 80068f4:	461a      	mov	r2, r3
 80068f6:	d32e      	bcc.n	8006956 <quorem+0xfa>
 80068f8:	613c      	str	r4, [r7, #16]
 80068fa:	4638      	mov	r0, r7
 80068fc:	f001 f8c0 	bl	8007a80 <__mcmp>
 8006900:	2800      	cmp	r0, #0
 8006902:	db24      	blt.n	800694e <quorem+0xf2>
 8006904:	3601      	adds	r6, #1
 8006906:	4628      	mov	r0, r5
 8006908:	f04f 0c00 	mov.w	ip, #0
 800690c:	f858 2b04 	ldr.w	r2, [r8], #4
 8006910:	f8d0 e000 	ldr.w	lr, [r0]
 8006914:	b293      	uxth	r3, r2
 8006916:	ebac 0303 	sub.w	r3, ip, r3
 800691a:	0c12      	lsrs	r2, r2, #16
 800691c:	fa13 f38e 	uxtah	r3, r3, lr
 8006920:	ebc2 421e 	rsb	r2, r2, lr, lsr #16
 8006924:	eb02 4223 	add.w	r2, r2, r3, asr #16
 8006928:	b29b      	uxth	r3, r3
 800692a:	ea43 4302 	orr.w	r3, r3, r2, lsl #16
 800692e:	45c1      	cmp	r9, r8
 8006930:	f840 3b04 	str.w	r3, [r0], #4
 8006934:	ea4f 4c22 	mov.w	ip, r2, asr #16
 8006938:	d2e8      	bcs.n	800690c <quorem+0xb0>
 800693a:	f855 2024 	ldr.w	r2, [r5, r4, lsl #2]
 800693e:	eb05 0384 	add.w	r3, r5, r4, lsl #2
 8006942:	b922      	cbnz	r2, 800694e <quorem+0xf2>
 8006944:	3b04      	subs	r3, #4
 8006946:	429d      	cmp	r5, r3
 8006948:	461a      	mov	r2, r3
 800694a:	d30a      	bcc.n	8006962 <quorem+0x106>
 800694c:	613c      	str	r4, [r7, #16]
 800694e:	4630      	mov	r0, r6
 8006950:	b003      	add	sp, #12
 8006952:	e8bd 8ff0 	ldmia.w	sp!, {r4, r5, r6, r7, r8, r9, sl, fp, pc}
 8006956:	6812      	ldr	r2, [r2, #0]
 8006958:	3b04      	subs	r3, #4
 800695a:	2a00      	cmp	r2, #0
 800695c:	d1cc      	bne.n	80068f8 <quorem+0x9c>
 800695e:	3c01      	subs	r4, #1
 8006960:	e7c7      	b.n	80068f2 <quorem+0x96>
 8006962:	6812      	ldr	r2, [r2, #0]
 8006964:	3b04      	subs	r3, #4
 8006966:	2a00      	cmp	r2, #0
 8006968:	d1f0      	bne.n	800694c <quorem+0xf0>
 800696a:	3c01      	subs	r4, #1
 800696c:	e7eb      	b.n	8006946 <quorem+0xea>
 800696e:	2000      	movs	r0, #0
 8006970:	e7ee      	b.n	8006950 <quorem+0xf4>
 8006972:	0000      	movs	r0, r0
 8006974:	0000      	movs	r0, r0
	...

08006978 <_dtoa_r>:
 8006978:	e92d 4ff0 	stmdb	sp!, {r4, r5, r6, r7, r8, r9, sl, fp, lr}
 800697c:	ed2d 8b02 	vpush	{d8}
 8006980:	ec57 6b10 	vmov	r6, r7, d0
 8006984:	b095      	sub	sp, #84	; 0x54
 8006986:	6a45      	ldr	r5, [r0, #36]	; 0x24
 8006988:	f8dd 8080 	ldr.w	r8, [sp, #128]	; 0x80
 800698c:	9105      	str	r1, [sp, #20]
 800698e:	e9cd 6702 	strd	r6, r7, [sp, #8]
 8006992:	4604      	mov	r4, r0
 8006994:	9209      	str	r2, [sp, #36]	; 0x24
 8006996:	930f      	str	r3, [sp, #60]	; 0x3c
 8006998:	b975      	cbnz	r5, 80069b8 <_dtoa_r+0x40>
 800699a:	2010      	movs	r0, #16
 800699c:	f000 fddc 	bl	8007558 <malloc>
 80069a0:	4602      	mov	r2, r0
 80069a2:	6260      	str	r0, [r4, #36]	; 0x24
 80069a4:	b920      	cbnz	r0, 80069b0 <_dtoa_r+0x38>
 80069a6:	4bb2      	ldr	r3, [pc, #712]	; (8006c70 <_dtoa_r+0x2f8>)
 80069a8:	21ea      	movs	r1, #234	; 0xea
 80069aa:	48b2      	ldr	r0, [pc, #712]	; (8006c74 <_dtoa_r+0x2fc>)
 80069ac:	f001 fb8e 	bl	80080cc <__assert_func>
 80069b0:	e9c0 5501 	strd	r5, r5, [r0, #4]
 80069b4:	6005      	str	r5, [r0, #0]
 80069b6:	60c5      	str	r5, [r0, #12]
 80069b8:	6a63      	ldr	r3, [r4, #36]	; 0x24
 80069ba:	6819      	ldr	r1, [r3, #0]
 80069bc:	b151      	cbz	r1, 80069d4 <_dtoa_r+0x5c>
 80069be:	685a      	ldr	r2, [r3, #4]
 80069c0:	604a      	str	r2, [r1, #4]
 80069c2:	2301      	movs	r3, #1
 80069c4:	4093      	lsls	r3, r2
 80069c6:	608b      	str	r3, [r1, #8]
 80069c8:	4620      	mov	r0, r4
 80069ca:	f000 fe1b 	bl	8007604 <_Bfree>
 80069ce:	6a63      	ldr	r3, [r4, #36]	; 0x24
 80069d0:	2200      	movs	r2, #0
 80069d2:	601a      	str	r2, [r3, #0]
 80069d4:	1e3b      	subs	r3, r7, #0
 80069d6:	bfb9      	ittee	lt
 80069d8:	f023 4300 	biclt.w	r3, r3, #2147483648	; 0x80000000
 80069dc:	9303      	strlt	r3, [sp, #12]
 80069de:	2300      	movge	r3, #0
 80069e0:	f8c8 3000 	strge.w	r3, [r8]
 80069e4:	f8dd 900c 	ldr.w	r9, [sp, #12]
 80069e8:	4ba3      	ldr	r3, [pc, #652]	; (8006c78 <_dtoa_r+0x300>)
 80069ea:	bfbc      	itt	lt
 80069ec:	2201      	movlt	r2, #1
 80069ee:	f8c8 2000 	strlt.w	r2, [r8]
 80069f2:	ea33 0309 	bics.w	r3, r3, r9
 80069f6:	d11b      	bne.n	8006a30 <_dtoa_r+0xb8>
 80069f8:	9a0f      	ldr	r2, [sp, #60]	; 0x3c
 80069fa:	f242 730f 	movw	r3, #9999	; 0x270f
 80069fe:	6013      	str	r3, [r2, #0]
 8006a00:	f3c9 0313 	ubfx	r3, r9, #0, #20
 8006a04:	4333      	orrs	r3, r6
 8006a06:	f000 857a 	beq.w	80074fe <_dtoa_r+0xb86>
 8006a0a:	9b21      	ldr	r3, [sp, #132]	; 0x84
 8006a0c:	b963      	cbnz	r3, 8006a28 <_dtoa_r+0xb0>
 8006a0e:	4b9b      	ldr	r3, [pc, #620]	; (8006c7c <_dtoa_r+0x304>)
 8006a10:	e024      	b.n	8006a5c <_dtoa_r+0xe4>
 8006a12:	4b9b      	ldr	r3, [pc, #620]	; (8006c80 <_dtoa_r+0x308>)
 8006a14:	9300      	str	r3, [sp, #0]
 8006a16:	3308      	adds	r3, #8
 8006a18:	9a21      	ldr	r2, [sp, #132]	; 0x84
 8006a1a:	6013      	str	r3, [r2, #0]
 8006a1c:	9800      	ldr	r0, [sp, #0]
 8006a1e:	b015      	add	sp, #84	; 0x54
 8006a20:	ecbd 8b02 	vpop	{d8}
 8006a24:	e8bd 8ff0 	ldmia.w	sp!, {r4, r5, r6, r7, r8, r9, sl, fp, pc}
 8006a28:	4b94      	ldr	r3, [pc, #592]	; (8006c7c <_dtoa_r+0x304>)
 8006a2a:	9300      	str	r3, [sp, #0]
 8006a2c:	3303      	adds	r3, #3
 8006a2e:	e7f3      	b.n	8006a18 <_dtoa_r+0xa0>
 8006a30:	ed9d 7b02 	vldr	d7, [sp, #8]
 8006a34:	2200      	movs	r2, #0
 8006a36:	ec51 0b17 	vmov	r0, r1, d7
 8006a3a:	2300      	movs	r3, #0
 8006a3c:	ed8d 7b0a 	vstr	d7, [sp, #40]	; 0x28
 8006a40:	f7fa f862 	bl	8000b08 <__aeabi_dcmpeq>
 8006a44:	4680      	mov	r8, r0
 8006a46:	b158      	cbz	r0, 8006a60 <_dtoa_r+0xe8>
 8006a48:	9a0f      	ldr	r2, [sp, #60]	; 0x3c
 8006a4a:	2301      	movs	r3, #1
 8006a4c:	6013      	str	r3, [r2, #0]
 8006a4e:	9b21      	ldr	r3, [sp, #132]	; 0x84
 8006a50:	2b00      	cmp	r3, #0
 8006a52:	f000 8551 	beq.w	80074f8 <_dtoa_r+0xb80>
 8006a56:	488b      	ldr	r0, [pc, #556]	; (8006c84 <_dtoa_r+0x30c>)
 8006a58:	6018      	str	r0, [r3, #0]
 8006a5a:	1e43      	subs	r3, r0, #1
 8006a5c:	9300      	str	r3, [sp, #0]
 8006a5e:	e7dd      	b.n	8006a1c <_dtoa_r+0xa4>
 8006a60:	ed9d 0b0a 	vldr	d0, [sp, #40]	; 0x28
 8006a64:	aa12      	add	r2, sp, #72	; 0x48
 8006a66:	a913      	add	r1, sp, #76	; 0x4c
 8006a68:	4620      	mov	r0, r4
 8006a6a:	f001 f8ad 	bl	8007bc8 <__d2b>
 8006a6e:	f3c9 550a 	ubfx	r5, r9, #20, #11
 8006a72:	4683      	mov	fp, r0
 8006a74:	2d00      	cmp	r5, #0
 8006a76:	d07c      	beq.n	8006b72 <_dtoa_r+0x1fa>
 8006a78:	9b0b      	ldr	r3, [sp, #44]	; 0x2c
 8006a7a:	f8cd 8040 	str.w	r8, [sp, #64]	; 0x40
 8006a7e:	f3c3 0313 	ubfx	r3, r3, #0, #20
 8006a82:	e9dd 670a 	ldrd	r6, r7, [sp, #40]	; 0x28
 8006a86:	f043 577f 	orr.w	r7, r3, #1069547520	; 0x3fc00000
 8006a8a:	f447 1740 	orr.w	r7, r7, #3145728	; 0x300000
 8006a8e:	f2a5 35ff 	subw	r5, r5, #1023	; 0x3ff
 8006a92:	4b7d      	ldr	r3, [pc, #500]	; (8006c88 <_dtoa_r+0x310>)
 8006a94:	2200      	movs	r2, #0
 8006a96:	4630      	mov	r0, r6
 8006a98:	4639      	mov	r1, r7
 8006a9a:	f7f9 fc15 	bl	80002c8 <__aeabi_dsub>
 8006a9e:	a36e      	add	r3, pc, #440	; (adr r3, 8006c58 <_dtoa_r+0x2e0>)
 8006aa0:	e9d3 2300 	ldrd	r2, r3, [r3]
 8006aa4:	f7f9 fdc8 	bl	8000638 <__aeabi_dmul>
 8006aa8:	a36d      	add	r3, pc, #436	; (adr r3, 8006c60 <_dtoa_r+0x2e8>)
 8006aaa:	e9d3 2300 	ldrd	r2, r3, [r3]
 8006aae:	f7f9 fc0d 	bl	80002cc <__adddf3>
 8006ab2:	4606      	mov	r6, r0
 8006ab4:	4628      	mov	r0, r5
 8006ab6:	460f      	mov	r7, r1
 8006ab8:	f7f9 fd54 	bl	8000564 <__aeabi_i2d>
 8006abc:	a36a      	add	r3, pc, #424	; (adr r3, 8006c68 <_dtoa_r+0x2f0>)
 8006abe:	e9d3 2300 	ldrd	r2, r3, [r3]
 8006ac2:	f7f9 fdb9 	bl	8000638 <__aeabi_dmul>
 8006ac6:	4602      	mov	r2, r0
 8006ac8:	460b      	mov	r3, r1
 8006aca:	4630      	mov	r0, r6
 8006acc:	4639      	mov	r1, r7
 8006ace:	f7f9 fbfd 	bl	80002cc <__adddf3>
 8006ad2:	4606      	mov	r6, r0
 8006ad4:	460f      	mov	r7, r1
 8006ad6:	f7fa f85f 	bl	8000b98 <__aeabi_d2iz>
 8006ada:	2200      	movs	r2, #0
 8006adc:	4682      	mov	sl, r0
 8006ade:	2300      	movs	r3, #0
 8006ae0:	4630      	mov	r0, r6
 8006ae2:	4639      	mov	r1, r7
 8006ae4:	f7fa f81a 	bl	8000b1c <__aeabi_dcmplt>
 8006ae8:	b148      	cbz	r0, 8006afe <_dtoa_r+0x186>
 8006aea:	4650      	mov	r0, sl
 8006aec:	f7f9 fd3a 	bl	8000564 <__aeabi_i2d>
 8006af0:	4632      	mov	r2, r6
 8006af2:	463b      	mov	r3, r7
 8006af4:	f7fa f808 	bl	8000b08 <__aeabi_dcmpeq>
 8006af8:	b908      	cbnz	r0, 8006afe <_dtoa_r+0x186>
 8006afa:	f10a 3aff 	add.w	sl, sl, #4294967295	; 0xffffffff
 8006afe:	f1ba 0f16 	cmp.w	sl, #22
 8006b02:	d854      	bhi.n	8006bae <_dtoa_r+0x236>
 8006b04:	4b61      	ldr	r3, [pc, #388]	; (8006c8c <_dtoa_r+0x314>)
 8006b06:	eb03 03ca 	add.w	r3, r3, sl, lsl #3
 8006b0a:	e9d3 2300 	ldrd	r2, r3, [r3]
 8006b0e:	e9dd 010a 	ldrd	r0, r1, [sp, #40]	; 0x28
 8006b12:	f7fa f803 	bl	8000b1c <__aeabi_dcmplt>
 8006b16:	2800      	cmp	r0, #0
 8006b18:	d04b      	beq.n	8006bb2 <_dtoa_r+0x23a>
 8006b1a:	f10a 3aff 	add.w	sl, sl, #4294967295	; 0xffffffff
 8006b1e:	2300      	movs	r3, #0
 8006b20:	930e      	str	r3, [sp, #56]	; 0x38
 8006b22:	9b12      	ldr	r3, [sp, #72]	; 0x48
 8006b24:	1b5d      	subs	r5, r3, r5
 8006b26:	1e6b      	subs	r3, r5, #1
 8006b28:	9304      	str	r3, [sp, #16]
 8006b2a:	bf43      	ittte	mi
 8006b2c:	2300      	movmi	r3, #0
 8006b2e:	f1c5 0801 	rsbmi	r8, r5, #1
 8006b32:	9304      	strmi	r3, [sp, #16]
 8006b34:	f04f 0800 	movpl.w	r8, #0
 8006b38:	f1ba 0f00 	cmp.w	sl, #0
 8006b3c:	db3b      	blt.n	8006bb6 <_dtoa_r+0x23e>
 8006b3e:	9b04      	ldr	r3, [sp, #16]
 8006b40:	f8cd a034 	str.w	sl, [sp, #52]	; 0x34
 8006b44:	4453      	add	r3, sl
 8006b46:	9304      	str	r3, [sp, #16]
 8006b48:	2300      	movs	r3, #0
 8006b4a:	9306      	str	r3, [sp, #24]
 8006b4c:	9b05      	ldr	r3, [sp, #20]
 8006b4e:	2b09      	cmp	r3, #9
 8006b50:	d869      	bhi.n	8006c26 <_dtoa_r+0x2ae>
 8006b52:	2b05      	cmp	r3, #5
 8006b54:	bfc4      	itt	gt
 8006b56:	3b04      	subgt	r3, #4
 8006b58:	9305      	strgt	r3, [sp, #20]
 8006b5a:	9b05      	ldr	r3, [sp, #20]
 8006b5c:	f1a3 0302 	sub.w	r3, r3, #2
 8006b60:	bfcc      	ite	gt
 8006b62:	2500      	movgt	r5, #0
 8006b64:	2501      	movle	r5, #1
 8006b66:	2b03      	cmp	r3, #3
 8006b68:	d869      	bhi.n	8006c3e <_dtoa_r+0x2c6>
 8006b6a:	e8df f003 	tbb	[pc, r3]
 8006b6e:	4e2c      	.short	0x4e2c
 8006b70:	5a4c      	.short	0x5a4c
 8006b72:	e9dd 5312 	ldrd	r5, r3, [sp, #72]	; 0x48
 8006b76:	441d      	add	r5, r3
 8006b78:	f205 4332 	addw	r3, r5, #1074	; 0x432
 8006b7c:	2b20      	cmp	r3, #32
 8006b7e:	bfc1      	itttt	gt
 8006b80:	f1c3 0340 	rsbgt	r3, r3, #64	; 0x40
 8006b84:	f205 4012 	addwgt	r0, r5, #1042	; 0x412
 8006b88:	fa09 f303 	lslgt.w	r3, r9, r3
 8006b8c:	fa26 f000 	lsrgt.w	r0, r6, r0
 8006b90:	bfda      	itte	le
 8006b92:	f1c3 0320 	rsble	r3, r3, #32
 8006b96:	fa06 f003 	lslle.w	r0, r6, r3
 8006b9a:	4318      	orrgt	r0, r3
 8006b9c:	f7f9 fcd2 	bl	8000544 <__aeabi_ui2d>
 8006ba0:	2301      	movs	r3, #1
 8006ba2:	4606      	mov	r6, r0
 8006ba4:	f1a1 77f8 	sub.w	r7, r1, #32505856	; 0x1f00000
 8006ba8:	3d01      	subs	r5, #1
 8006baa:	9310      	str	r3, [sp, #64]	; 0x40
 8006bac:	e771      	b.n	8006a92 <_dtoa_r+0x11a>
 8006bae:	2301      	movs	r3, #1
 8006bb0:	e7b6      	b.n	8006b20 <_dtoa_r+0x1a8>
 8006bb2:	900e      	str	r0, [sp, #56]	; 0x38
 8006bb4:	e7b5      	b.n	8006b22 <_dtoa_r+0x1aa>
 8006bb6:	f1ca 0300 	rsb	r3, sl, #0
 8006bba:	9306      	str	r3, [sp, #24]
 8006bbc:	2300      	movs	r3, #0
 8006bbe:	eba8 080a 	sub.w	r8, r8, sl
 8006bc2:	930d      	str	r3, [sp, #52]	; 0x34
 8006bc4:	e7c2      	b.n	8006b4c <_dtoa_r+0x1d4>
 8006bc6:	2300      	movs	r3, #0
 8006bc8:	9308      	str	r3, [sp, #32]
 8006bca:	9b09      	ldr	r3, [sp, #36]	; 0x24
 8006bcc:	2b00      	cmp	r3, #0
 8006bce:	dc39      	bgt.n	8006c44 <_dtoa_r+0x2cc>
 8006bd0:	f04f 0901 	mov.w	r9, #1
 8006bd4:	f8cd 9004 	str.w	r9, [sp, #4]
 8006bd8:	464b      	mov	r3, r9
 8006bda:	f8cd 9024 	str.w	r9, [sp, #36]	; 0x24
 8006bde:	6a60      	ldr	r0, [r4, #36]	; 0x24
 8006be0:	2200      	movs	r2, #0
 8006be2:	6042      	str	r2, [r0, #4]
 8006be4:	2204      	movs	r2, #4
 8006be6:	f102 0614 	add.w	r6, r2, #20
 8006bea:	429e      	cmp	r6, r3
 8006bec:	6841      	ldr	r1, [r0, #4]
 8006bee:	d92f      	bls.n	8006c50 <_dtoa_r+0x2d8>
 8006bf0:	4620      	mov	r0, r4
 8006bf2:	f000 fcc7 	bl	8007584 <_Balloc>
 8006bf6:	9000      	str	r0, [sp, #0]
 8006bf8:	2800      	cmp	r0, #0
 8006bfa:	d14b      	bne.n	8006c94 <_dtoa_r+0x31c>
 8006bfc:	4b24      	ldr	r3, [pc, #144]	; (8006c90 <_dtoa_r+0x318>)
 8006bfe:	4602      	mov	r2, r0
 8006c00:	f44f 71d5 	mov.w	r1, #426	; 0x1aa
 8006c04:	e6d1      	b.n	80069aa <_dtoa_r+0x32>
 8006c06:	2301      	movs	r3, #1
 8006c08:	e7de      	b.n	8006bc8 <_dtoa_r+0x250>
 8006c0a:	2300      	movs	r3, #0
 8006c0c:	9308      	str	r3, [sp, #32]
 8006c0e:	9b09      	ldr	r3, [sp, #36]	; 0x24
 8006c10:	eb0a 0903 	add.w	r9, sl, r3
 8006c14:	f109 0301 	add.w	r3, r9, #1
 8006c18:	2b01      	cmp	r3, #1
 8006c1a:	9301      	str	r3, [sp, #4]
 8006c1c:	bfb8      	it	lt
 8006c1e:	2301      	movlt	r3, #1
 8006c20:	e7dd      	b.n	8006bde <_dtoa_r+0x266>
 8006c22:	2301      	movs	r3, #1
 8006c24:	e7f2      	b.n	8006c0c <_dtoa_r+0x294>
 8006c26:	2501      	movs	r5, #1
 8006c28:	2300      	movs	r3, #0
 8006c2a:	9305      	str	r3, [sp, #20]
 8006c2c:	9508      	str	r5, [sp, #32]
 8006c2e:	f04f 39ff 	mov.w	r9, #4294967295	; 0xffffffff
 8006c32:	2200      	movs	r2, #0
 8006c34:	f8cd 9004 	str.w	r9, [sp, #4]
 8006c38:	2312      	movs	r3, #18
 8006c3a:	9209      	str	r2, [sp, #36]	; 0x24
 8006c3c:	e7cf      	b.n	8006bde <_dtoa_r+0x266>
 8006c3e:	2301      	movs	r3, #1
 8006c40:	9308      	str	r3, [sp, #32]
 8006c42:	e7f4      	b.n	8006c2e <_dtoa_r+0x2b6>
 8006c44:	f8dd 9024 	ldr.w	r9, [sp, #36]	; 0x24
 8006c48:	f8cd 9004 	str.w	r9, [sp, #4]
 8006c4c:	464b      	mov	r3, r9
 8006c4e:	e7c6      	b.n	8006bde <_dtoa_r+0x266>
 8006c50:	3101      	adds	r1, #1
 8006c52:	6041      	str	r1, [r0, #4]
 8006c54:	0052      	lsls	r2, r2, #1
 8006c56:	e7c6      	b.n	8006be6 <_dtoa_r+0x26e>
 8006c58:	636f4361 	.word	0x636f4361
 8006c5c:	3fd287a7 	.word	0x3fd287a7
 8006c60:	8b60c8b3 	.word	0x8b60c8b3
 8006c64:	3fc68a28 	.word	0x3fc68a28
 8006c68:	509f79fb 	.word	0x509f79fb
 8006c6c:	3fd34413 	.word	0x3fd34413
 8006c70:	08008d75 	.word	0x08008d75
 8006c74:	08008d8c 	.word	0x08008d8c
 8006c78:	7ff00000 	.word	0x7ff00000
 8006c7c:	08008d71 	.word	0x08008d71
 8006c80:	08008d68 	.word	0x08008d68
 8006c84:	08008d45 	.word	0x08008d45
 8006c88:	3ff80000 	.word	0x3ff80000
 8006c8c:	08008e88 	.word	0x08008e88
 8006c90:	08008deb 	.word	0x08008deb
 8006c94:	6a63      	ldr	r3, [r4, #36]	; 0x24
 8006c96:	9a00      	ldr	r2, [sp, #0]
 8006c98:	601a      	str	r2, [r3, #0]
 8006c9a:	9b01      	ldr	r3, [sp, #4]
 8006c9c:	2b0e      	cmp	r3, #14
 8006c9e:	f200 80ad 	bhi.w	8006dfc <_dtoa_r+0x484>
 8006ca2:	2d00      	cmp	r5, #0
 8006ca4:	f000 80aa 	beq.w	8006dfc <_dtoa_r+0x484>
 8006ca8:	f1ba 0f00 	cmp.w	sl, #0
 8006cac:	dd36      	ble.n	8006d1c <_dtoa_r+0x3a4>
 8006cae:	4ac3      	ldr	r2, [pc, #780]	; (8006fbc <_dtoa_r+0x644>)
 8006cb0:	f00a 030f 	and.w	r3, sl, #15
 8006cb4:	eb02 03c3 	add.w	r3, r2, r3, lsl #3
 8006cb8:	ed93 7b00 	vldr	d7, [r3]
 8006cbc:	f41a 7f80 	tst.w	sl, #256	; 0x100
 8006cc0:	ea4f 172a 	mov.w	r7, sl, asr #4
 8006cc4:	eeb0 8a47 	vmov.f32	s16, s14
 8006cc8:	eef0 8a67 	vmov.f32	s17, s15
 8006ccc:	d016      	beq.n	8006cfc <_dtoa_r+0x384>
 8006cce:	4bbc      	ldr	r3, [pc, #752]	; (8006fc0 <_dtoa_r+0x648>)
 8006cd0:	e9dd 010a 	ldrd	r0, r1, [sp, #40]	; 0x28
 8006cd4:	e9d3 2308 	ldrd	r2, r3, [r3, #32]
 8006cd8:	f7f9 fdd8 	bl	800088c <__aeabi_ddiv>
 8006cdc:	e9cd 0102 	strd	r0, r1, [sp, #8]
 8006ce0:	f007 070f 	and.w	r7, r7, #15
 8006ce4:	2503      	movs	r5, #3
 8006ce6:	4eb6      	ldr	r6, [pc, #728]	; (8006fc0 <_dtoa_r+0x648>)
 8006ce8:	b957      	cbnz	r7, 8006d00 <_dtoa_r+0x388>
 8006cea:	e9dd 0102 	ldrd	r0, r1, [sp, #8]
 8006cee:	ec53 2b18 	vmov	r2, r3, d8
 8006cf2:	f7f9 fdcb 	bl	800088c <__aeabi_ddiv>
 8006cf6:	e9cd 0102 	strd	r0, r1, [sp, #8]
 8006cfa:	e029      	b.n	8006d50 <_dtoa_r+0x3d8>
 8006cfc:	2502      	movs	r5, #2
 8006cfe:	e7f2      	b.n	8006ce6 <_dtoa_r+0x36e>
 8006d00:	07f9      	lsls	r1, r7, #31
 8006d02:	d508      	bpl.n	8006d16 <_dtoa_r+0x39e>
 8006d04:	ec51 0b18 	vmov	r0, r1, d8
 8006d08:	e9d6 2300 	ldrd	r2, r3, [r6]
 8006d0c:	f7f9 fc94 	bl	8000638 <__aeabi_dmul>
 8006d10:	ec41 0b18 	vmov	d8, r0, r1
 8006d14:	3501      	adds	r5, #1
 8006d16:	107f      	asrs	r7, r7, #1
 8006d18:	3608      	adds	r6, #8
 8006d1a:	e7e5      	b.n	8006ce8 <_dtoa_r+0x370>
 8006d1c:	f000 80a6 	beq.w	8006e6c <_dtoa_r+0x4f4>
 8006d20:	f1ca 0600 	rsb	r6, sl, #0
 8006d24:	4ba5      	ldr	r3, [pc, #660]	; (8006fbc <_dtoa_r+0x644>)
 8006d26:	4fa6      	ldr	r7, [pc, #664]	; (8006fc0 <_dtoa_r+0x648>)
 8006d28:	f006 020f 	and.w	r2, r6, #15
 8006d2c:	eb03 03c2 	add.w	r3, r3, r2, lsl #3
 8006d30:	e9d3 2300 	ldrd	r2, r3, [r3]
 8006d34:	e9dd 010a 	ldrd	r0, r1, [sp, #40]	; 0x28
 8006d38:	f7f9 fc7e 	bl	8000638 <__aeabi_dmul>
 8006d3c:	e9cd 0102 	strd	r0, r1, [sp, #8]
 8006d40:	1136      	asrs	r6, r6, #4
 8006d42:	2300      	movs	r3, #0
 8006d44:	2502      	movs	r5, #2
 8006d46:	2e00      	cmp	r6, #0
 8006d48:	f040 8085 	bne.w	8006e56 <_dtoa_r+0x4de>
 8006d4c:	2b00      	cmp	r3, #0
 8006d4e:	d1d2      	bne.n	8006cf6 <_dtoa_r+0x37e>
 8006d50:	9b0e      	ldr	r3, [sp, #56]	; 0x38
 8006d52:	2b00      	cmp	r3, #0
 8006d54:	f000 808c 	beq.w	8006e70 <_dtoa_r+0x4f8>
 8006d58:	e9dd 6702 	ldrd	r6, r7, [sp, #8]
 8006d5c:	4b99      	ldr	r3, [pc, #612]	; (8006fc4 <_dtoa_r+0x64c>)
 8006d5e:	2200      	movs	r2, #0
 8006d60:	4630      	mov	r0, r6
 8006d62:	4639      	mov	r1, r7
 8006d64:	f7f9 feda 	bl	8000b1c <__aeabi_dcmplt>
 8006d68:	2800      	cmp	r0, #0
 8006d6a:	f000 8081 	beq.w	8006e70 <_dtoa_r+0x4f8>
 8006d6e:	9b01      	ldr	r3, [sp, #4]
 8006d70:	2b00      	cmp	r3, #0
 8006d72:	d07d      	beq.n	8006e70 <_dtoa_r+0x4f8>
 8006d74:	f1b9 0f00 	cmp.w	r9, #0
 8006d78:	dd3c      	ble.n	8006df4 <_dtoa_r+0x47c>
 8006d7a:	f10a 33ff 	add.w	r3, sl, #4294967295	; 0xffffffff
 8006d7e:	9307      	str	r3, [sp, #28]
 8006d80:	2200      	movs	r2, #0
 8006d82:	4b91      	ldr	r3, [pc, #580]	; (8006fc8 <_dtoa_r+0x650>)
 8006d84:	4630      	mov	r0, r6
 8006d86:	4639      	mov	r1, r7
 8006d88:	f7f9 fc56 	bl	8000638 <__aeabi_dmul>
 8006d8c:	e9cd 0102 	strd	r0, r1, [sp, #8]
 8006d90:	3501      	adds	r5, #1
 8006d92:	f8cd 9030 	str.w	r9, [sp, #48]	; 0x30
 8006d96:	e9dd 6702 	ldrd	r6, r7, [sp, #8]
 8006d9a:	4628      	mov	r0, r5
 8006d9c:	f7f9 fbe2 	bl	8000564 <__aeabi_i2d>
 8006da0:	4632      	mov	r2, r6
 8006da2:	463b      	mov	r3, r7
 8006da4:	f7f9 fc48 	bl	8000638 <__aeabi_dmul>
 8006da8:	4b88      	ldr	r3, [pc, #544]	; (8006fcc <_dtoa_r+0x654>)
 8006daa:	2200      	movs	r2, #0
 8006dac:	f7f9 fa8e 	bl	80002cc <__adddf3>
 8006db0:	f1a1 7350 	sub.w	r3, r1, #54525952	; 0x3400000
 8006db4:	e9cd 0102 	strd	r0, r1, [sp, #8]
 8006db8:	9303      	str	r3, [sp, #12]
 8006dba:	9b0c      	ldr	r3, [sp, #48]	; 0x30
 8006dbc:	2b00      	cmp	r3, #0
 8006dbe:	d15c      	bne.n	8006e7a <_dtoa_r+0x502>
 8006dc0:	4b83      	ldr	r3, [pc, #524]	; (8006fd0 <_dtoa_r+0x658>)
 8006dc2:	2200      	movs	r2, #0
 8006dc4:	4630      	mov	r0, r6
 8006dc6:	4639      	mov	r1, r7
 8006dc8:	f7f9 fa7e 	bl	80002c8 <__aeabi_dsub>
 8006dcc:	e9dd 2302 	ldrd	r2, r3, [sp, #8]
 8006dd0:	4606      	mov	r6, r0
 8006dd2:	460f      	mov	r7, r1
 8006dd4:	f7f9 fec0 	bl	8000b58 <__aeabi_dcmpgt>
 8006dd8:	2800      	cmp	r0, #0
 8006dda:	f040 8296 	bne.w	800730a <_dtoa_r+0x992>
 8006dde:	e9dd 2102 	ldrd	r2, r1, [sp, #8]
 8006de2:	4630      	mov	r0, r6
 8006de4:	f101 4300 	add.w	r3, r1, #2147483648	; 0x80000000
 8006de8:	4639      	mov	r1, r7
 8006dea:	f7f9 fe97 	bl	8000b1c <__aeabi_dcmplt>
 8006dee:	2800      	cmp	r0, #0
 8006df0:	f040 8288 	bne.w	8007304 <_dtoa_r+0x98c>
 8006df4:	e9dd 230a 	ldrd	r2, r3, [sp, #40]	; 0x28
 8006df8:	e9cd 2302 	strd	r2, r3, [sp, #8]
 8006dfc:	9b13      	ldr	r3, [sp, #76]	; 0x4c
 8006dfe:	2b00      	cmp	r3, #0
 8006e00:	f2c0 8158 	blt.w	80070b4 <_dtoa_r+0x73c>
 8006e04:	f1ba 0f0e 	cmp.w	sl, #14
 8006e08:	f300 8154 	bgt.w	80070b4 <_dtoa_r+0x73c>
 8006e0c:	4b6b      	ldr	r3, [pc, #428]	; (8006fbc <_dtoa_r+0x644>)
 8006e0e:	eb03 03ca 	add.w	r3, r3, sl, lsl #3
 8006e12:	e9d3 8900 	ldrd	r8, r9, [r3]
 8006e16:	9b09      	ldr	r3, [sp, #36]	; 0x24
 8006e18:	2b00      	cmp	r3, #0
 8006e1a:	f280 80e3 	bge.w	8006fe4 <_dtoa_r+0x66c>
 8006e1e:	9b01      	ldr	r3, [sp, #4]
 8006e20:	2b00      	cmp	r3, #0
 8006e22:	f300 80df 	bgt.w	8006fe4 <_dtoa_r+0x66c>
 8006e26:	f040 826d 	bne.w	8007304 <_dtoa_r+0x98c>
 8006e2a:	4b69      	ldr	r3, [pc, #420]	; (8006fd0 <_dtoa_r+0x658>)
 8006e2c:	2200      	movs	r2, #0
 8006e2e:	4640      	mov	r0, r8
 8006e30:	4649      	mov	r1, r9
 8006e32:	f7f9 fc01 	bl	8000638 <__aeabi_dmul>
 8006e36:	e9dd 2302 	ldrd	r2, r3, [sp, #8]
 8006e3a:	f7f9 fe83 	bl	8000b44 <__aeabi_dcmpge>
 8006e3e:	9e01      	ldr	r6, [sp, #4]
 8006e40:	4637      	mov	r7, r6
 8006e42:	2800      	cmp	r0, #0
 8006e44:	f040 8243 	bne.w	80072ce <_dtoa_r+0x956>
 8006e48:	9d00      	ldr	r5, [sp, #0]
 8006e4a:	2331      	movs	r3, #49	; 0x31
 8006e4c:	f805 3b01 	strb.w	r3, [r5], #1
 8006e50:	f10a 0a01 	add.w	sl, sl, #1
 8006e54:	e23f      	b.n	80072d6 <_dtoa_r+0x95e>
 8006e56:	07f2      	lsls	r2, r6, #31
 8006e58:	d505      	bpl.n	8006e66 <_dtoa_r+0x4ee>
 8006e5a:	e9d7 2300 	ldrd	r2, r3, [r7]
 8006e5e:	f7f9 fbeb 	bl	8000638 <__aeabi_dmul>
 8006e62:	3501      	adds	r5, #1
 8006e64:	2301      	movs	r3, #1
 8006e66:	1076      	asrs	r6, r6, #1
 8006e68:	3708      	adds	r7, #8
 8006e6a:	e76c      	b.n	8006d46 <_dtoa_r+0x3ce>
 8006e6c:	2502      	movs	r5, #2
 8006e6e:	e76f      	b.n	8006d50 <_dtoa_r+0x3d8>
 8006e70:	9b01      	ldr	r3, [sp, #4]
 8006e72:	f8cd a01c 	str.w	sl, [sp, #28]
 8006e76:	930c      	str	r3, [sp, #48]	; 0x30
 8006e78:	e78d      	b.n	8006d96 <_dtoa_r+0x41e>
 8006e7a:	9900      	ldr	r1, [sp, #0]
 8006e7c:	980c      	ldr	r0, [sp, #48]	; 0x30
 8006e7e:	9a0c      	ldr	r2, [sp, #48]	; 0x30
 8006e80:	4b4e      	ldr	r3, [pc, #312]	; (8006fbc <_dtoa_r+0x644>)
 8006e82:	ed9d 7b02 	vldr	d7, [sp, #8]
 8006e86:	4401      	add	r1, r0
 8006e88:	9102      	str	r1, [sp, #8]
 8006e8a:	9908      	ldr	r1, [sp, #32]
 8006e8c:	eeb0 8a47 	vmov.f32	s16, s14
 8006e90:	eef0 8a67 	vmov.f32	s17, s15
 8006e94:	eb03 03c2 	add.w	r3, r3, r2, lsl #3
 8006e98:	e953 2302 	ldrd	r2, r3, [r3, #-8]
 8006e9c:	2900      	cmp	r1, #0
 8006e9e:	d045      	beq.n	8006f2c <_dtoa_r+0x5b4>
 8006ea0:	494c      	ldr	r1, [pc, #304]	; (8006fd4 <_dtoa_r+0x65c>)
 8006ea2:	2000      	movs	r0, #0
 8006ea4:	f7f9 fcf2 	bl	800088c <__aeabi_ddiv>
 8006ea8:	ec53 2b18 	vmov	r2, r3, d8
 8006eac:	f7f9 fa0c 	bl	80002c8 <__aeabi_dsub>
 8006eb0:	9d00      	ldr	r5, [sp, #0]
 8006eb2:	ec41 0b18 	vmov	d8, r0, r1
 8006eb6:	4639      	mov	r1, r7
 8006eb8:	4630      	mov	r0, r6
 8006eba:	f7f9 fe6d 	bl	8000b98 <__aeabi_d2iz>
 8006ebe:	900c      	str	r0, [sp, #48]	; 0x30
 8006ec0:	f7f9 fb50 	bl	8000564 <__aeabi_i2d>
 8006ec4:	4602      	mov	r2, r0
 8006ec6:	460b      	mov	r3, r1
 8006ec8:	4630      	mov	r0, r6
 8006eca:	4639      	mov	r1, r7
 8006ecc:	f7f9 f9fc 	bl	80002c8 <__aeabi_dsub>
 8006ed0:	9b0c      	ldr	r3, [sp, #48]	; 0x30
 8006ed2:	3330      	adds	r3, #48	; 0x30
 8006ed4:	f805 3b01 	strb.w	r3, [r5], #1
 8006ed8:	ec53 2b18 	vmov	r2, r3, d8
 8006edc:	4606      	mov	r6, r0
 8006ede:	460f      	mov	r7, r1
 8006ee0:	f7f9 fe1c 	bl	8000b1c <__aeabi_dcmplt>
 8006ee4:	2800      	cmp	r0, #0
 8006ee6:	d165      	bne.n	8006fb4 <_dtoa_r+0x63c>
 8006ee8:	4632      	mov	r2, r6
 8006eea:	463b      	mov	r3, r7
 8006eec:	4935      	ldr	r1, [pc, #212]	; (8006fc4 <_dtoa_r+0x64c>)
 8006eee:	2000      	movs	r0, #0
 8006ef0:	f7f9 f9ea 	bl	80002c8 <__aeabi_dsub>
 8006ef4:	ec53 2b18 	vmov	r2, r3, d8
 8006ef8:	f7f9 fe10 	bl	8000b1c <__aeabi_dcmplt>
 8006efc:	2800      	cmp	r0, #0
 8006efe:	f040 80b9 	bne.w	8007074 <_dtoa_r+0x6fc>
 8006f02:	9b02      	ldr	r3, [sp, #8]
 8006f04:	429d      	cmp	r5, r3
 8006f06:	f43f af75 	beq.w	8006df4 <_dtoa_r+0x47c>
 8006f0a:	4b2f      	ldr	r3, [pc, #188]	; (8006fc8 <_dtoa_r+0x650>)
 8006f0c:	ec51 0b18 	vmov	r0, r1, d8
 8006f10:	2200      	movs	r2, #0
 8006f12:	f7f9 fb91 	bl	8000638 <__aeabi_dmul>
 8006f16:	4b2c      	ldr	r3, [pc, #176]	; (8006fc8 <_dtoa_r+0x650>)
 8006f18:	ec41 0b18 	vmov	d8, r0, r1
 8006f1c:	2200      	movs	r2, #0
 8006f1e:	4630      	mov	r0, r6
 8006f20:	4639      	mov	r1, r7
 8006f22:	f7f9 fb89 	bl	8000638 <__aeabi_dmul>
 8006f26:	4606      	mov	r6, r0
 8006f28:	460f      	mov	r7, r1
 8006f2a:	e7c4      	b.n	8006eb6 <_dtoa_r+0x53e>
 8006f2c:	ec51 0b17 	vmov	r0, r1, d7
 8006f30:	f7f9 fb82 	bl	8000638 <__aeabi_dmul>
 8006f34:	9b02      	ldr	r3, [sp, #8]
 8006f36:	9d00      	ldr	r5, [sp, #0]
 8006f38:	930c      	str	r3, [sp, #48]	; 0x30
 8006f3a:	ec41 0b18 	vmov	d8, r0, r1
 8006f3e:	4639      	mov	r1, r7
 8006f40:	4630      	mov	r0, r6
 8006f42:	f7f9 fe29 	bl	8000b98 <__aeabi_d2iz>
 8006f46:	9011      	str	r0, [sp, #68]	; 0x44
 8006f48:	f7f9 fb0c 	bl	8000564 <__aeabi_i2d>
 8006f4c:	4602      	mov	r2, r0
 8006f4e:	460b      	mov	r3, r1
 8006f50:	4630      	mov	r0, r6
 8006f52:	4639      	mov	r1, r7
 8006f54:	f7f9 f9b8 	bl	80002c8 <__aeabi_dsub>
 8006f58:	9b11      	ldr	r3, [sp, #68]	; 0x44
 8006f5a:	3330      	adds	r3, #48	; 0x30
 8006f5c:	f805 3b01 	strb.w	r3, [r5], #1
 8006f60:	9b02      	ldr	r3, [sp, #8]
 8006f62:	429d      	cmp	r5, r3
 8006f64:	4606      	mov	r6, r0
 8006f66:	460f      	mov	r7, r1
 8006f68:	f04f 0200 	mov.w	r2, #0
 8006f6c:	d134      	bne.n	8006fd8 <_dtoa_r+0x660>
 8006f6e:	4b19      	ldr	r3, [pc, #100]	; (8006fd4 <_dtoa_r+0x65c>)
 8006f70:	ec51 0b18 	vmov	r0, r1, d8
 8006f74:	f7f9 f9aa 	bl	80002cc <__adddf3>
 8006f78:	4602      	mov	r2, r0
 8006f7a:	460b      	mov	r3, r1
 8006f7c:	4630      	mov	r0, r6
 8006f7e:	4639      	mov	r1, r7
 8006f80:	f7f9 fdea 	bl	8000b58 <__aeabi_dcmpgt>
 8006f84:	2800      	cmp	r0, #0
 8006f86:	d175      	bne.n	8007074 <_dtoa_r+0x6fc>
 8006f88:	ec53 2b18 	vmov	r2, r3, d8
 8006f8c:	4911      	ldr	r1, [pc, #68]	; (8006fd4 <_dtoa_r+0x65c>)
 8006f8e:	2000      	movs	r0, #0
 8006f90:	f7f9 f99a 	bl	80002c8 <__aeabi_dsub>
 8006f94:	4602      	mov	r2, r0
 8006f96:	460b      	mov	r3, r1
 8006f98:	4630      	mov	r0, r6
 8006f9a:	4639      	mov	r1, r7
 8006f9c:	f7f9 fdbe 	bl	8000b1c <__aeabi_dcmplt>
 8006fa0:	2800      	cmp	r0, #0
 8006fa2:	f43f af27 	beq.w	8006df4 <_dtoa_r+0x47c>
 8006fa6:	9d0c      	ldr	r5, [sp, #48]	; 0x30
 8006fa8:	1e6b      	subs	r3, r5, #1
 8006faa:	930c      	str	r3, [sp, #48]	; 0x30
 8006fac:	f815 3c01 	ldrb.w	r3, [r5, #-1]
 8006fb0:	2b30      	cmp	r3, #48	; 0x30
 8006fb2:	d0f8      	beq.n	8006fa6 <_dtoa_r+0x62e>
 8006fb4:	f8dd a01c 	ldr.w	sl, [sp, #28]
 8006fb8:	e04a      	b.n	8007050 <_dtoa_r+0x6d8>
 8006fba:	bf00      	nop
 8006fbc:	08008e88 	.word	0x08008e88
 8006fc0:	08008e60 	.word	0x08008e60
 8006fc4:	3ff00000 	.word	0x3ff00000
 8006fc8:	40240000 	.word	0x40240000
 8006fcc:	401c0000 	.word	0x401c0000
 8006fd0:	40140000 	.word	0x40140000
 8006fd4:	3fe00000 	.word	0x3fe00000
 8006fd8:	4baf      	ldr	r3, [pc, #700]	; (8007298 <_dtoa_r+0x920>)
 8006fda:	f7f9 fb2d 	bl	8000638 <__aeabi_dmul>
 8006fde:	4606      	mov	r6, r0
 8006fe0:	460f      	mov	r7, r1
 8006fe2:	e7ac      	b.n	8006f3e <_dtoa_r+0x5c6>
 8006fe4:	e9dd 6702 	ldrd	r6, r7, [sp, #8]
 8006fe8:	9d00      	ldr	r5, [sp, #0]
 8006fea:	4642      	mov	r2, r8
 8006fec:	464b      	mov	r3, r9
 8006fee:	4630      	mov	r0, r6
 8006ff0:	4639      	mov	r1, r7
 8006ff2:	f7f9 fc4b 	bl	800088c <__aeabi_ddiv>
 8006ff6:	f7f9 fdcf 	bl	8000b98 <__aeabi_d2iz>
 8006ffa:	9002      	str	r0, [sp, #8]
 8006ffc:	f7f9 fab2 	bl	8000564 <__aeabi_i2d>
 8007000:	4642      	mov	r2, r8
 8007002:	464b      	mov	r3, r9
 8007004:	f7f9 fb18 	bl	8000638 <__aeabi_dmul>
 8007008:	4602      	mov	r2, r0
 800700a:	460b      	mov	r3, r1
 800700c:	4630      	mov	r0, r6
 800700e:	4639      	mov	r1, r7
 8007010:	f7f9 f95a 	bl	80002c8 <__aeabi_dsub>
 8007014:	9e02      	ldr	r6, [sp, #8]
 8007016:	9f01      	ldr	r7, [sp, #4]
 8007018:	3630      	adds	r6, #48	; 0x30
 800701a:	f805 6b01 	strb.w	r6, [r5], #1
 800701e:	9e00      	ldr	r6, [sp, #0]
 8007020:	1bae      	subs	r6, r5, r6
 8007022:	42b7      	cmp	r7, r6
 8007024:	4602      	mov	r2, r0
 8007026:	460b      	mov	r3, r1
 8007028:	d137      	bne.n	800709a <_dtoa_r+0x722>
 800702a:	f7f9 f94f 	bl	80002cc <__adddf3>
 800702e:	4642      	mov	r2, r8
 8007030:	464b      	mov	r3, r9
 8007032:	4606      	mov	r6, r0
 8007034:	460f      	mov	r7, r1
 8007036:	f7f9 fd8f 	bl	8000b58 <__aeabi_dcmpgt>
 800703a:	b9c8      	cbnz	r0, 8007070 <_dtoa_r+0x6f8>
 800703c:	4642      	mov	r2, r8
 800703e:	464b      	mov	r3, r9
 8007040:	4630      	mov	r0, r6
 8007042:	4639      	mov	r1, r7
 8007044:	f7f9 fd60 	bl	8000b08 <__aeabi_dcmpeq>
 8007048:	b110      	cbz	r0, 8007050 <_dtoa_r+0x6d8>
 800704a:	9b02      	ldr	r3, [sp, #8]
 800704c:	07d9      	lsls	r1, r3, #31
 800704e:	d40f      	bmi.n	8007070 <_dtoa_r+0x6f8>
 8007050:	4620      	mov	r0, r4
 8007052:	4659      	mov	r1, fp
 8007054:	f000 fad6 	bl	8007604 <_Bfree>
 8007058:	2300      	movs	r3, #0
 800705a:	702b      	strb	r3, [r5, #0]
 800705c:	9b0f      	ldr	r3, [sp, #60]	; 0x3c
 800705e:	f10a 0001 	add.w	r0, sl, #1
 8007062:	6018      	str	r0, [r3, #0]
 8007064:	9b21      	ldr	r3, [sp, #132]	; 0x84
 8007066:	2b00      	cmp	r3, #0
 8007068:	f43f acd8 	beq.w	8006a1c <_dtoa_r+0xa4>
 800706c:	601d      	str	r5, [r3, #0]
 800706e:	e4d5      	b.n	8006a1c <_dtoa_r+0xa4>
 8007070:	f8cd a01c 	str.w	sl, [sp, #28]
 8007074:	462b      	mov	r3, r5
 8007076:	461d      	mov	r5, r3
 8007078:	f813 2d01 	ldrb.w	r2, [r3, #-1]!
 800707c:	2a39      	cmp	r2, #57	; 0x39
 800707e:	d108      	bne.n	8007092 <_dtoa_r+0x71a>
 8007080:	9a00      	ldr	r2, [sp, #0]
 8007082:	429a      	cmp	r2, r3
 8007084:	d1f7      	bne.n	8007076 <_dtoa_r+0x6fe>
 8007086:	9a07      	ldr	r2, [sp, #28]
 8007088:	9900      	ldr	r1, [sp, #0]
 800708a:	3201      	adds	r2, #1
 800708c:	9207      	str	r2, [sp, #28]
 800708e:	2230      	movs	r2, #48	; 0x30
 8007090:	700a      	strb	r2, [r1, #0]
 8007092:	781a      	ldrb	r2, [r3, #0]
 8007094:	3201      	adds	r2, #1
 8007096:	701a      	strb	r2, [r3, #0]
 8007098:	e78c      	b.n	8006fb4 <_dtoa_r+0x63c>
 800709a:	4b7f      	ldr	r3, [pc, #508]	; (8007298 <_dtoa_r+0x920>)
 800709c:	2200      	movs	r2, #0
 800709e:	f7f9 facb 	bl	8000638 <__aeabi_dmul>
 80070a2:	2200      	movs	r2, #0
 80070a4:	2300      	movs	r3, #0
 80070a6:	4606      	mov	r6, r0
 80070a8:	460f      	mov	r7, r1
 80070aa:	f7f9 fd2d 	bl	8000b08 <__aeabi_dcmpeq>
 80070ae:	2800      	cmp	r0, #0
 80070b0:	d09b      	beq.n	8006fea <_dtoa_r+0x672>
 80070b2:	e7cd      	b.n	8007050 <_dtoa_r+0x6d8>
 80070b4:	9a08      	ldr	r2, [sp, #32]
 80070b6:	2a00      	cmp	r2, #0
 80070b8:	f000 80c4 	beq.w	8007244 <_dtoa_r+0x8cc>
 80070bc:	9a05      	ldr	r2, [sp, #20]
 80070be:	2a01      	cmp	r2, #1
 80070c0:	f300 80a8 	bgt.w	8007214 <_dtoa_r+0x89c>
 80070c4:	9a10      	ldr	r2, [sp, #64]	; 0x40
 80070c6:	2a00      	cmp	r2, #0
 80070c8:	f000 80a0 	beq.w	800720c <_dtoa_r+0x894>
 80070cc:	f203 4333 	addw	r3, r3, #1075	; 0x433
 80070d0:	9e06      	ldr	r6, [sp, #24]
 80070d2:	4645      	mov	r5, r8
 80070d4:	9a04      	ldr	r2, [sp, #16]
 80070d6:	2101      	movs	r1, #1
 80070d8:	441a      	add	r2, r3
 80070da:	4620      	mov	r0, r4
 80070dc:	4498      	add	r8, r3
 80070de:	9204      	str	r2, [sp, #16]
 80070e0:	f000 fb4c 	bl	800777c <__i2b>
 80070e4:	4607      	mov	r7, r0
 80070e6:	2d00      	cmp	r5, #0
 80070e8:	dd0b      	ble.n	8007102 <_dtoa_r+0x78a>
 80070ea:	9b04      	ldr	r3, [sp, #16]
 80070ec:	2b00      	cmp	r3, #0
 80070ee:	dd08      	ble.n	8007102 <_dtoa_r+0x78a>
 80070f0:	42ab      	cmp	r3, r5
 80070f2:	9a04      	ldr	r2, [sp, #16]
 80070f4:	bfa8      	it	ge
 80070f6:	462b      	movge	r3, r5
 80070f8:	eba8 0803 	sub.w	r8, r8, r3
 80070fc:	1aed      	subs	r5, r5, r3
 80070fe:	1ad3      	subs	r3, r2, r3
 8007100:	9304      	str	r3, [sp, #16]
 8007102:	9b06      	ldr	r3, [sp, #24]
 8007104:	b1fb      	cbz	r3, 8007146 <_dtoa_r+0x7ce>
 8007106:	9b08      	ldr	r3, [sp, #32]
 8007108:	2b00      	cmp	r3, #0
 800710a:	f000 809f 	beq.w	800724c <_dtoa_r+0x8d4>
 800710e:	2e00      	cmp	r6, #0
 8007110:	dd11      	ble.n	8007136 <_dtoa_r+0x7be>
 8007112:	4639      	mov	r1, r7
 8007114:	4632      	mov	r2, r6
 8007116:	4620      	mov	r0, r4
 8007118:	f000 fbec 	bl	80078f4 <__pow5mult>
 800711c:	465a      	mov	r2, fp
 800711e:	4601      	mov	r1, r0
 8007120:	4607      	mov	r7, r0
 8007122:	4620      	mov	r0, r4
 8007124:	f000 fb40 	bl	80077a8 <__multiply>
 8007128:	4659      	mov	r1, fp
 800712a:	9007      	str	r0, [sp, #28]
 800712c:	4620      	mov	r0, r4
 800712e:	f000 fa69 	bl	8007604 <_Bfree>
 8007132:	9b07      	ldr	r3, [sp, #28]
 8007134:	469b      	mov	fp, r3
 8007136:	9b06      	ldr	r3, [sp, #24]
 8007138:	1b9a      	subs	r2, r3, r6
 800713a:	d004      	beq.n	8007146 <_dtoa_r+0x7ce>
 800713c:	4659      	mov	r1, fp
 800713e:	4620      	mov	r0, r4
 8007140:	f000 fbd8 	bl	80078f4 <__pow5mult>
 8007144:	4683      	mov	fp, r0
 8007146:	2101      	movs	r1, #1
 8007148:	4620      	mov	r0, r4
 800714a:	f000 fb17 	bl	800777c <__i2b>
 800714e:	9b0d      	ldr	r3, [sp, #52]	; 0x34
 8007150:	2b00      	cmp	r3, #0
 8007152:	4606      	mov	r6, r0
 8007154:	dd7c      	ble.n	8007250 <_dtoa_r+0x8d8>
 8007156:	461a      	mov	r2, r3
 8007158:	4601      	mov	r1, r0
 800715a:	4620      	mov	r0, r4
 800715c:	f000 fbca 	bl	80078f4 <__pow5mult>
 8007160:	9b05      	ldr	r3, [sp, #20]
 8007162:	2b01      	cmp	r3, #1
 8007164:	4606      	mov	r6, r0
 8007166:	dd76      	ble.n	8007256 <_dtoa_r+0x8de>
 8007168:	2300      	movs	r3, #0
 800716a:	9306      	str	r3, [sp, #24]
 800716c:	6933      	ldr	r3, [r6, #16]
 800716e:	eb06 0383 	add.w	r3, r6, r3, lsl #2
 8007172:	6918      	ldr	r0, [r3, #16]
 8007174:	f000 fab2 	bl	80076dc <__hi0bits>
 8007178:	f1c0 0020 	rsb	r0, r0, #32
 800717c:	9b04      	ldr	r3, [sp, #16]
 800717e:	4418      	add	r0, r3
 8007180:	f010 001f 	ands.w	r0, r0, #31
 8007184:	f000 8086 	beq.w	8007294 <_dtoa_r+0x91c>
 8007188:	f1c0 0320 	rsb	r3, r0, #32
 800718c:	2b04      	cmp	r3, #4
 800718e:	dd7f      	ble.n	8007290 <_dtoa_r+0x918>
 8007190:	f1c0 001c 	rsb	r0, r0, #28
 8007194:	9b04      	ldr	r3, [sp, #16]
 8007196:	4403      	add	r3, r0
 8007198:	4480      	add	r8, r0
 800719a:	4405      	add	r5, r0
 800719c:	9304      	str	r3, [sp, #16]
 800719e:	f1b8 0f00 	cmp.w	r8, #0
 80071a2:	dd05      	ble.n	80071b0 <_dtoa_r+0x838>
 80071a4:	4659      	mov	r1, fp
 80071a6:	4642      	mov	r2, r8
 80071a8:	4620      	mov	r0, r4
 80071aa:	f000 fbfd 	bl	80079a8 <__lshift>
 80071ae:	4683      	mov	fp, r0
 80071b0:	9b04      	ldr	r3, [sp, #16]
 80071b2:	2b00      	cmp	r3, #0
 80071b4:	dd05      	ble.n	80071c2 <_dtoa_r+0x84a>
 80071b6:	4631      	mov	r1, r6
 80071b8:	461a      	mov	r2, r3
 80071ba:	4620      	mov	r0, r4
 80071bc:	f000 fbf4 	bl	80079a8 <__lshift>
 80071c0:	4606      	mov	r6, r0
 80071c2:	9b0e      	ldr	r3, [sp, #56]	; 0x38
 80071c4:	2b00      	cmp	r3, #0
 80071c6:	d069      	beq.n	800729c <_dtoa_r+0x924>
 80071c8:	4631      	mov	r1, r6
 80071ca:	4658      	mov	r0, fp
 80071cc:	f000 fc58 	bl	8007a80 <__mcmp>
 80071d0:	2800      	cmp	r0, #0
 80071d2:	da63      	bge.n	800729c <_dtoa_r+0x924>
 80071d4:	2300      	movs	r3, #0
 80071d6:	4659      	mov	r1, fp
 80071d8:	220a      	movs	r2, #10
 80071da:	4620      	mov	r0, r4
 80071dc:	f000 fa34 	bl	8007648 <__multadd>
 80071e0:	9b08      	ldr	r3, [sp, #32]
 80071e2:	f10a 3aff 	add.w	sl, sl, #4294967295	; 0xffffffff
 80071e6:	4683      	mov	fp, r0
 80071e8:	2b00      	cmp	r3, #0
 80071ea:	f000 818f 	beq.w	800750c <_dtoa_r+0xb94>
 80071ee:	4639      	mov	r1, r7
 80071f0:	2300      	movs	r3, #0
 80071f2:	220a      	movs	r2, #10
 80071f4:	4620      	mov	r0, r4
 80071f6:	f000 fa27 	bl	8007648 <__multadd>
 80071fa:	f1b9 0f00 	cmp.w	r9, #0
 80071fe:	4607      	mov	r7, r0
 8007200:	f300 808e 	bgt.w	8007320 <_dtoa_r+0x9a8>
 8007204:	9b05      	ldr	r3, [sp, #20]
 8007206:	2b02      	cmp	r3, #2
 8007208:	dc50      	bgt.n	80072ac <_dtoa_r+0x934>
 800720a:	e089      	b.n	8007320 <_dtoa_r+0x9a8>
 800720c:	9b12      	ldr	r3, [sp, #72]	; 0x48
 800720e:	f1c3 0336 	rsb	r3, r3, #54	; 0x36
 8007212:	e75d      	b.n	80070d0 <_dtoa_r+0x758>
 8007214:	9b01      	ldr	r3, [sp, #4]
 8007216:	1e5e      	subs	r6, r3, #1
 8007218:	9b06      	ldr	r3, [sp, #24]
 800721a:	42b3      	cmp	r3, r6
 800721c:	bfbf      	itttt	lt
 800721e:	9b06      	ldrlt	r3, [sp, #24]
 8007220:	9606      	strlt	r6, [sp, #24]
 8007222:	1af2      	sublt	r2, r6, r3
 8007224:	9b0d      	ldrlt	r3, [sp, #52]	; 0x34
 8007226:	bfb6      	itet	lt
 8007228:	189b      	addlt	r3, r3, r2
 800722a:	1b9e      	subge	r6, r3, r6
 800722c:	930d      	strlt	r3, [sp, #52]	; 0x34
 800722e:	9b01      	ldr	r3, [sp, #4]
 8007230:	bfb8      	it	lt
 8007232:	2600      	movlt	r6, #0
 8007234:	2b00      	cmp	r3, #0
 8007236:	bfb5      	itete	lt
 8007238:	eba8 0503 	sublt.w	r5, r8, r3
 800723c:	9b01      	ldrge	r3, [sp, #4]
 800723e:	2300      	movlt	r3, #0
 8007240:	4645      	movge	r5, r8
 8007242:	e747      	b.n	80070d4 <_dtoa_r+0x75c>
 8007244:	9e06      	ldr	r6, [sp, #24]
 8007246:	9f08      	ldr	r7, [sp, #32]
 8007248:	4645      	mov	r5, r8
 800724a:	e74c      	b.n	80070e6 <_dtoa_r+0x76e>
 800724c:	9a06      	ldr	r2, [sp, #24]
 800724e:	e775      	b.n	800713c <_dtoa_r+0x7c4>
 8007250:	9b05      	ldr	r3, [sp, #20]
 8007252:	2b01      	cmp	r3, #1
 8007254:	dc18      	bgt.n	8007288 <_dtoa_r+0x910>
 8007256:	9b02      	ldr	r3, [sp, #8]
 8007258:	b9b3      	cbnz	r3, 8007288 <_dtoa_r+0x910>
 800725a:	9b03      	ldr	r3, [sp, #12]
 800725c:	f3c3 0313 	ubfx	r3, r3, #0, #20
 8007260:	b9a3      	cbnz	r3, 800728c <_dtoa_r+0x914>
 8007262:	9b03      	ldr	r3, [sp, #12]
 8007264:	f023 4300 	bic.w	r3, r3, #2147483648	; 0x80000000
 8007268:	0d1b      	lsrs	r3, r3, #20
 800726a:	051b      	lsls	r3, r3, #20
 800726c:	b12b      	cbz	r3, 800727a <_dtoa_r+0x902>
 800726e:	9b04      	ldr	r3, [sp, #16]
 8007270:	3301      	adds	r3, #1
 8007272:	9304      	str	r3, [sp, #16]
 8007274:	f108 0801 	add.w	r8, r8, #1
 8007278:	2301      	movs	r3, #1
 800727a:	9306      	str	r3, [sp, #24]
 800727c:	9b0d      	ldr	r3, [sp, #52]	; 0x34
 800727e:	2b00      	cmp	r3, #0
 8007280:	f47f af74 	bne.w	800716c <_dtoa_r+0x7f4>
 8007284:	2001      	movs	r0, #1
 8007286:	e779      	b.n	800717c <_dtoa_r+0x804>
 8007288:	2300      	movs	r3, #0
 800728a:	e7f6      	b.n	800727a <_dtoa_r+0x902>
 800728c:	9b02      	ldr	r3, [sp, #8]
 800728e:	e7f4      	b.n	800727a <_dtoa_r+0x902>
 8007290:	d085      	beq.n	800719e <_dtoa_r+0x826>
 8007292:	4618      	mov	r0, r3
 8007294:	301c      	adds	r0, #28
 8007296:	e77d      	b.n	8007194 <_dtoa_r+0x81c>
 8007298:	40240000 	.word	0x40240000
 800729c:	9b01      	ldr	r3, [sp, #4]
 800729e:	2b00      	cmp	r3, #0
 80072a0:	dc38      	bgt.n	8007314 <_dtoa_r+0x99c>
 80072a2:	9b05      	ldr	r3, [sp, #20]
 80072a4:	2b02      	cmp	r3, #2
 80072a6:	dd35      	ble.n	8007314 <_dtoa_r+0x99c>
 80072a8:	f8dd 9004 	ldr.w	r9, [sp, #4]
 80072ac:	f1b9 0f00 	cmp.w	r9, #0
 80072b0:	d10d      	bne.n	80072ce <_dtoa_r+0x956>
 80072b2:	4631      	mov	r1, r6
 80072b4:	464b      	mov	r3, r9
 80072b6:	2205      	movs	r2, #5
 80072b8:	4620      	mov	r0, r4
 80072ba:	f000 f9c5 	bl	8007648 <__multadd>
 80072be:	4601      	mov	r1, r0
 80072c0:	4606      	mov	r6, r0
 80072c2:	4658      	mov	r0, fp
 80072c4:	f000 fbdc 	bl	8007a80 <__mcmp>
 80072c8:	2800      	cmp	r0, #0
 80072ca:	f73f adbd 	bgt.w	8006e48 <_dtoa_r+0x4d0>
 80072ce:	9b09      	ldr	r3, [sp, #36]	; 0x24
 80072d0:	9d00      	ldr	r5, [sp, #0]
 80072d2:	ea6f 0a03 	mvn.w	sl, r3
 80072d6:	f04f 0800 	mov.w	r8, #0
 80072da:	4631      	mov	r1, r6
 80072dc:	4620      	mov	r0, r4
 80072de:	f000 f991 	bl	8007604 <_Bfree>
 80072e2:	2f00      	cmp	r7, #0
 80072e4:	f43f aeb4 	beq.w	8007050 <_dtoa_r+0x6d8>
 80072e8:	f1b8 0f00 	cmp.w	r8, #0
 80072ec:	d005      	beq.n	80072fa <_dtoa_r+0x982>
 80072ee:	45b8      	cmp	r8, r7
 80072f0:	d003      	beq.n	80072fa <_dtoa_r+0x982>
 80072f2:	4641      	mov	r1, r8
 80072f4:	4620      	mov	r0, r4
 80072f6:	f000 f985 	bl	8007604 <_Bfree>
 80072fa:	4639      	mov	r1, r7
 80072fc:	4620      	mov	r0, r4
 80072fe:	f000 f981 	bl	8007604 <_Bfree>
 8007302:	e6a5      	b.n	8007050 <_dtoa_r+0x6d8>
 8007304:	2600      	movs	r6, #0
 8007306:	4637      	mov	r7, r6
 8007308:	e7e1      	b.n	80072ce <_dtoa_r+0x956>
 800730a:	9e0c      	ldr	r6, [sp, #48]	; 0x30
 800730c:	f8dd a01c 	ldr.w	sl, [sp, #28]
 8007310:	4637      	mov	r7, r6
 8007312:	e599      	b.n	8006e48 <_dtoa_r+0x4d0>
 8007314:	9b08      	ldr	r3, [sp, #32]
 8007316:	f8dd 9004 	ldr.w	r9, [sp, #4]
 800731a:	2b00      	cmp	r3, #0
 800731c:	f000 80fd 	beq.w	800751a <_dtoa_r+0xba2>
 8007320:	2d00      	cmp	r5, #0
 8007322:	dd05      	ble.n	8007330 <_dtoa_r+0x9b8>
 8007324:	4639      	mov	r1, r7
 8007326:	462a      	mov	r2, r5
 8007328:	4620      	mov	r0, r4
 800732a:	f000 fb3d 	bl	80079a8 <__lshift>
 800732e:	4607      	mov	r7, r0
 8007330:	9b06      	ldr	r3, [sp, #24]
 8007332:	2b00      	cmp	r3, #0
 8007334:	d05c      	beq.n	80073f0 <_dtoa_r+0xa78>
 8007336:	6879      	ldr	r1, [r7, #4]
 8007338:	4620      	mov	r0, r4
 800733a:	f000 f923 	bl	8007584 <_Balloc>
 800733e:	4605      	mov	r5, r0
 8007340:	b928      	cbnz	r0, 800734e <_dtoa_r+0x9d6>
 8007342:	4b80      	ldr	r3, [pc, #512]	; (8007544 <_dtoa_r+0xbcc>)
 8007344:	4602      	mov	r2, r0
 8007346:	f240 21ea 	movw	r1, #746	; 0x2ea
 800734a:	f7ff bb2e 	b.w	80069aa <_dtoa_r+0x32>
 800734e:	693a      	ldr	r2, [r7, #16]
 8007350:	3202      	adds	r2, #2
 8007352:	0092      	lsls	r2, r2, #2
 8007354:	f107 010c 	add.w	r1, r7, #12
 8007358:	300c      	adds	r0, #12
 800735a:	f000 f905 	bl	8007568 <memcpy>
 800735e:	2201      	movs	r2, #1
 8007360:	4629      	mov	r1, r5
 8007362:	4620      	mov	r0, r4
 8007364:	f000 fb20 	bl	80079a8 <__lshift>
 8007368:	9b00      	ldr	r3, [sp, #0]
 800736a:	3301      	adds	r3, #1
 800736c:	9301      	str	r3, [sp, #4]
 800736e:	9b00      	ldr	r3, [sp, #0]
 8007370:	444b      	add	r3, r9
 8007372:	9307      	str	r3, [sp, #28]
 8007374:	9b02      	ldr	r3, [sp, #8]
 8007376:	f003 0301 	and.w	r3, r3, #1
 800737a:	46b8      	mov	r8, r7
 800737c:	9306      	str	r3, [sp, #24]
 800737e:	4607      	mov	r7, r0
 8007380:	9b01      	ldr	r3, [sp, #4]
 8007382:	4631      	mov	r1, r6
 8007384:	3b01      	subs	r3, #1
 8007386:	4658      	mov	r0, fp
 8007388:	9302      	str	r3, [sp, #8]
 800738a:	f7ff fa67 	bl	800685c <quorem>
 800738e:	4603      	mov	r3, r0
 8007390:	3330      	adds	r3, #48	; 0x30
 8007392:	9004      	str	r0, [sp, #16]
 8007394:	4641      	mov	r1, r8
 8007396:	4658      	mov	r0, fp
 8007398:	9308      	str	r3, [sp, #32]
 800739a:	f000 fb71 	bl	8007a80 <__mcmp>
 800739e:	463a      	mov	r2, r7
 80073a0:	4681      	mov	r9, r0
 80073a2:	4631      	mov	r1, r6
 80073a4:	4620      	mov	r0, r4
 80073a6:	f000 fb87 	bl	8007ab8 <__mdiff>
 80073aa:	68c2      	ldr	r2, [r0, #12]
 80073ac:	9b08      	ldr	r3, [sp, #32]
 80073ae:	4605      	mov	r5, r0
 80073b0:	bb02      	cbnz	r2, 80073f4 <_dtoa_r+0xa7c>
 80073b2:	4601      	mov	r1, r0
 80073b4:	4658      	mov	r0, fp
 80073b6:	f000 fb63 	bl	8007a80 <__mcmp>
 80073ba:	9b08      	ldr	r3, [sp, #32]
 80073bc:	4602      	mov	r2, r0
 80073be:	4629      	mov	r1, r5
 80073c0:	4620      	mov	r0, r4
 80073c2:	e9cd 3208 	strd	r3, r2, [sp, #32]
 80073c6:	f000 f91d 	bl	8007604 <_Bfree>
 80073ca:	9b05      	ldr	r3, [sp, #20]
 80073cc:	9a09      	ldr	r2, [sp, #36]	; 0x24
 80073ce:	9d01      	ldr	r5, [sp, #4]
 80073d0:	ea43 0102 	orr.w	r1, r3, r2
 80073d4:	9b06      	ldr	r3, [sp, #24]
 80073d6:	430b      	orrs	r3, r1
 80073d8:	9b08      	ldr	r3, [sp, #32]
 80073da:	d10d      	bne.n	80073f8 <_dtoa_r+0xa80>
 80073dc:	2b39      	cmp	r3, #57	; 0x39
 80073de:	d029      	beq.n	8007434 <_dtoa_r+0xabc>
 80073e0:	f1b9 0f00 	cmp.w	r9, #0
 80073e4:	dd01      	ble.n	80073ea <_dtoa_r+0xa72>
 80073e6:	9b04      	ldr	r3, [sp, #16]
 80073e8:	3331      	adds	r3, #49	; 0x31
 80073ea:	9a02      	ldr	r2, [sp, #8]
 80073ec:	7013      	strb	r3, [r2, #0]
 80073ee:	e774      	b.n	80072da <_dtoa_r+0x962>
 80073f0:	4638      	mov	r0, r7
 80073f2:	e7b9      	b.n	8007368 <_dtoa_r+0x9f0>
 80073f4:	2201      	movs	r2, #1
 80073f6:	e7e2      	b.n	80073be <_dtoa_r+0xa46>
 80073f8:	f1b9 0f00 	cmp.w	r9, #0
 80073fc:	db06      	blt.n	800740c <_dtoa_r+0xa94>
 80073fe:	9905      	ldr	r1, [sp, #20]
 8007400:	ea41 0909 	orr.w	r9, r1, r9
 8007404:	9906      	ldr	r1, [sp, #24]
 8007406:	ea59 0101 	orrs.w	r1, r9, r1
 800740a:	d120      	bne.n	800744e <_dtoa_r+0xad6>
 800740c:	2a00      	cmp	r2, #0
 800740e:	ddec      	ble.n	80073ea <_dtoa_r+0xa72>
 8007410:	4659      	mov	r1, fp
 8007412:	2201      	movs	r2, #1
 8007414:	4620      	mov	r0, r4
 8007416:	9301      	str	r3, [sp, #4]
 8007418:	f000 fac6 	bl	80079a8 <__lshift>
 800741c:	4631      	mov	r1, r6
 800741e:	4683      	mov	fp, r0
 8007420:	f000 fb2e 	bl	8007a80 <__mcmp>
 8007424:	2800      	cmp	r0, #0
 8007426:	9b01      	ldr	r3, [sp, #4]
 8007428:	dc02      	bgt.n	8007430 <_dtoa_r+0xab8>
 800742a:	d1de      	bne.n	80073ea <_dtoa_r+0xa72>
 800742c:	07da      	lsls	r2, r3, #31
 800742e:	d5dc      	bpl.n	80073ea <_dtoa_r+0xa72>
 8007430:	2b39      	cmp	r3, #57	; 0x39
 8007432:	d1d8      	bne.n	80073e6 <_dtoa_r+0xa6e>
 8007434:	9a02      	ldr	r2, [sp, #8]
 8007436:	2339      	movs	r3, #57	; 0x39
 8007438:	7013      	strb	r3, [r2, #0]
 800743a:	462b      	mov	r3, r5
 800743c:	461d      	mov	r5, r3
 800743e:	3b01      	subs	r3, #1
 8007440:	f815 2c01 	ldrb.w	r2, [r5, #-1]
 8007444:	2a39      	cmp	r2, #57	; 0x39
 8007446:	d050      	beq.n	80074ea <_dtoa_r+0xb72>
 8007448:	3201      	adds	r2, #1
 800744a:	701a      	strb	r2, [r3, #0]
 800744c:	e745      	b.n	80072da <_dtoa_r+0x962>
 800744e:	2a00      	cmp	r2, #0
 8007450:	dd03      	ble.n	800745a <_dtoa_r+0xae2>
 8007452:	2b39      	cmp	r3, #57	; 0x39
 8007454:	d0ee      	beq.n	8007434 <_dtoa_r+0xabc>
 8007456:	3301      	adds	r3, #1
 8007458:	e7c7      	b.n	80073ea <_dtoa_r+0xa72>
 800745a:	9a01      	ldr	r2, [sp, #4]
 800745c:	9907      	ldr	r1, [sp, #28]
 800745e:	f802 3c01 	strb.w	r3, [r2, #-1]
 8007462:	428a      	cmp	r2, r1
 8007464:	d02a      	beq.n	80074bc <_dtoa_r+0xb44>
 8007466:	4659      	mov	r1, fp
 8007468:	2300      	movs	r3, #0
 800746a:	220a      	movs	r2, #10
 800746c:	4620      	mov	r0, r4
 800746e:	f000 f8eb 	bl	8007648 <__multadd>
 8007472:	45b8      	cmp	r8, r7
 8007474:	4683      	mov	fp, r0
 8007476:	f04f 0300 	mov.w	r3, #0
 800747a:	f04f 020a 	mov.w	r2, #10
 800747e:	4641      	mov	r1, r8
 8007480:	4620      	mov	r0, r4
 8007482:	d107      	bne.n	8007494 <_dtoa_r+0xb1c>
 8007484:	f000 f8e0 	bl	8007648 <__multadd>
 8007488:	4680      	mov	r8, r0
 800748a:	4607      	mov	r7, r0
 800748c:	9b01      	ldr	r3, [sp, #4]
 800748e:	3301      	adds	r3, #1
 8007490:	9301      	str	r3, [sp, #4]
 8007492:	e775      	b.n	8007380 <_dtoa_r+0xa08>
 8007494:	f000 f8d8 	bl	8007648 <__multadd>
 8007498:	4639      	mov	r1, r7
 800749a:	4680      	mov	r8, r0
 800749c:	2300      	movs	r3, #0
 800749e:	220a      	movs	r2, #10
 80074a0:	4620      	mov	r0, r4
 80074a2:	f000 f8d1 	bl	8007648 <__multadd>
 80074a6:	4607      	mov	r7, r0
 80074a8:	e7f0      	b.n	800748c <_dtoa_r+0xb14>
 80074aa:	f1b9 0f00 	cmp.w	r9, #0
 80074ae:	9a00      	ldr	r2, [sp, #0]
 80074b0:	bfcc      	ite	gt
 80074b2:	464d      	movgt	r5, r9
 80074b4:	2501      	movle	r5, #1
 80074b6:	4415      	add	r5, r2
 80074b8:	f04f 0800 	mov.w	r8, #0
 80074bc:	4659      	mov	r1, fp
 80074be:	2201      	movs	r2, #1
 80074c0:	4620      	mov	r0, r4
 80074c2:	9301      	str	r3, [sp, #4]
 80074c4:	f000 fa70 	bl	80079a8 <__lshift>
 80074c8:	4631      	mov	r1, r6
 80074ca:	4683      	mov	fp, r0
 80074cc:	f000 fad8 	bl	8007a80 <__mcmp>
 80074d0:	2800      	cmp	r0, #0
 80074d2:	dcb2      	bgt.n	800743a <_dtoa_r+0xac2>
 80074d4:	d102      	bne.n	80074dc <_dtoa_r+0xb64>
 80074d6:	9b01      	ldr	r3, [sp, #4]
 80074d8:	07db      	lsls	r3, r3, #31
 80074da:	d4ae      	bmi.n	800743a <_dtoa_r+0xac2>
 80074dc:	462b      	mov	r3, r5
 80074de:	461d      	mov	r5, r3
 80074e0:	f813 2d01 	ldrb.w	r2, [r3, #-1]!
 80074e4:	2a30      	cmp	r2, #48	; 0x30
 80074e6:	d0fa      	beq.n	80074de <_dtoa_r+0xb66>
 80074e8:	e6f7      	b.n	80072da <_dtoa_r+0x962>
 80074ea:	9a00      	ldr	r2, [sp, #0]
 80074ec:	429a      	cmp	r2, r3
 80074ee:	d1a5      	bne.n	800743c <_dtoa_r+0xac4>
 80074f0:	f10a 0a01 	add.w	sl, sl, #1
 80074f4:	2331      	movs	r3, #49	; 0x31
 80074f6:	e779      	b.n	80073ec <_dtoa_r+0xa74>
 80074f8:	4b13      	ldr	r3, [pc, #76]	; (8007548 <_dtoa_r+0xbd0>)
 80074fa:	f7ff baaf 	b.w	8006a5c <_dtoa_r+0xe4>
 80074fe:	9b21      	ldr	r3, [sp, #132]	; 0x84
 8007500:	2b00      	cmp	r3, #0
 8007502:	f47f aa86 	bne.w	8006a12 <_dtoa_r+0x9a>
 8007506:	4b11      	ldr	r3, [pc, #68]	; (800754c <_dtoa_r+0xbd4>)
 8007508:	f7ff baa8 	b.w	8006a5c <_dtoa_r+0xe4>
 800750c:	f1b9 0f00 	cmp.w	r9, #0
 8007510:	dc03      	bgt.n	800751a <_dtoa_r+0xba2>
 8007512:	9b05      	ldr	r3, [sp, #20]
 8007514:	2b02      	cmp	r3, #2
 8007516:	f73f aec9 	bgt.w	80072ac <_dtoa_r+0x934>
 800751a:	9d00      	ldr	r5, [sp, #0]
 800751c:	4631      	mov	r1, r6
 800751e:	4658      	mov	r0, fp
 8007520:	f7ff f99c 	bl	800685c <quorem>
 8007524:	f100 0330 	add.w	r3, r0, #48	; 0x30
 8007528:	f805 3b01 	strb.w	r3, [r5], #1
 800752c:	9a00      	ldr	r2, [sp, #0]
 800752e:	1aaa      	subs	r2, r5, r2
 8007530:	4591      	cmp	r9, r2
 8007532:	ddba      	ble.n	80074aa <_dtoa_r+0xb32>
 8007534:	4659      	mov	r1, fp
 8007536:	2300      	movs	r3, #0
 8007538:	220a      	movs	r2, #10
 800753a:	4620      	mov	r0, r4
 800753c:	f000 f884 	bl	8007648 <__multadd>
 8007540:	4683      	mov	fp, r0
 8007542:	e7eb      	b.n	800751c <_dtoa_r+0xba4>
 8007544:	08008deb 	.word	0x08008deb
 8007548:	08008d44 	.word	0x08008d44
 800754c:	08008d68 	.word	0x08008d68

08007550 <_localeconv_r>:
 8007550:	4800      	ldr	r0, [pc, #0]	; (8007554 <_localeconv_r+0x4>)
 8007552:	4770      	bx	lr
 8007554:	2000017c 	.word	0x2000017c

08007558 <malloc>:
 8007558:	4b02      	ldr	r3, [pc, #8]	; (8007564 <malloc+0xc>)
 800755a:	4601      	mov	r1, r0
 800755c:	6818      	ldr	r0, [r3, #0]
 800755e:	f000 bbef 	b.w	8007d40 <_malloc_r>
 8007562:	bf00      	nop
 8007564:	20000028 	.word	0x20000028

08007568 <memcpy>:
 8007568:	440a      	add	r2, r1
 800756a:	4291      	cmp	r1, r2
 800756c:	f100 33ff 	add.w	r3, r0, #4294967295	; 0xffffffff
 8007570:	d100      	bne.n	8007574 <memcpy+0xc>
 8007572:	4770      	bx	lr
 8007574:	b510      	push	{r4, lr}
 8007576:	f811 4b01 	ldrb.w	r4, [r1], #1
 800757a:	f803 4f01 	strb.w	r4, [r3, #1]!
 800757e:	4291      	cmp	r1, r2
 8007580:	d1f9      	bne.n	8007576 <memcpy+0xe>
 8007582:	bd10      	pop	{r4, pc}

08007584 <_Balloc>:
 8007584:	b570      	push	{r4, r5, r6, lr}
 8007586:	6a46      	ldr	r6, [r0, #36]	; 0x24
 8007588:	4604      	mov	r4, r0
 800758a:	460d      	mov	r5, r1
 800758c:	b976      	cbnz	r6, 80075ac <_Balloc+0x28>
 800758e:	2010      	movs	r0, #16
 8007590:	f7ff ffe2 	bl	8007558 <malloc>
 8007594:	4602      	mov	r2, r0
 8007596:	6260      	str	r0, [r4, #36]	; 0x24
 8007598:	b920      	cbnz	r0, 80075a4 <_Balloc+0x20>
 800759a:	4b18      	ldr	r3, [pc, #96]	; (80075fc <_Balloc+0x78>)
 800759c:	4818      	ldr	r0, [pc, #96]	; (8007600 <_Balloc+0x7c>)
 800759e:	2166      	movs	r1, #102	; 0x66
 80075a0:	f000 fd94 	bl	80080cc <__assert_func>
 80075a4:	e9c0 6601 	strd	r6, r6, [r0, #4]
 80075a8:	6006      	str	r6, [r0, #0]
 80075aa:	60c6      	str	r6, [r0, #12]
 80075ac:	6a66      	ldr	r6, [r4, #36]	; 0x24
 80075ae:	68f3      	ldr	r3, [r6, #12]
 80075b0:	b183      	cbz	r3, 80075d4 <_Balloc+0x50>
 80075b2:	6a63      	ldr	r3, [r4, #36]	; 0x24
 80075b4:	68db      	ldr	r3, [r3, #12]
 80075b6:	f853 0025 	ldr.w	r0, [r3, r5, lsl #2]
 80075ba:	b9b8      	cbnz	r0, 80075ec <_Balloc+0x68>
 80075bc:	2101      	movs	r1, #1
 80075be:	fa01 f605 	lsl.w	r6, r1, r5
 80075c2:	1d72      	adds	r2, r6, #5
 80075c4:	0092      	lsls	r2, r2, #2
 80075c6:	4620      	mov	r0, r4
 80075c8:	f000 fb5a 	bl	8007c80 <_calloc_r>
 80075cc:	b160      	cbz	r0, 80075e8 <_Balloc+0x64>
 80075ce:	e9c0 5601 	strd	r5, r6, [r0, #4]
 80075d2:	e00e      	b.n	80075f2 <_Balloc+0x6e>
 80075d4:	2221      	movs	r2, #33	; 0x21
 80075d6:	2104      	movs	r1, #4
 80075d8:	4620      	mov	r0, r4
 80075da:	f000 fb51 	bl	8007c80 <_calloc_r>
 80075de:	6a63      	ldr	r3, [r4, #36]	; 0x24
 80075e0:	60f0      	str	r0, [r6, #12]
 80075e2:	68db      	ldr	r3, [r3, #12]
 80075e4:	2b00      	cmp	r3, #0
 80075e6:	d1e4      	bne.n	80075b2 <_Balloc+0x2e>
 80075e8:	2000      	movs	r0, #0
 80075ea:	bd70      	pop	{r4, r5, r6, pc}
 80075ec:	6802      	ldr	r2, [r0, #0]
 80075ee:	f843 2025 	str.w	r2, [r3, r5, lsl #2]
 80075f2:	2300      	movs	r3, #0
 80075f4:	e9c0 3303 	strd	r3, r3, [r0, #12]
 80075f8:	e7f7      	b.n	80075ea <_Balloc+0x66>
 80075fa:	bf00      	nop
 80075fc:	08008d75 	.word	0x08008d75
 8007600:	08008dfc 	.word	0x08008dfc

08007604 <_Bfree>:
 8007604:	b570      	push	{r4, r5, r6, lr}
 8007606:	6a46      	ldr	r6, [r0, #36]	; 0x24
 8007608:	4605      	mov	r5, r0
 800760a:	460c      	mov	r4, r1
 800760c:	b976      	cbnz	r6, 800762c <_Bfree+0x28>
 800760e:	2010      	movs	r0, #16
 8007610:	f7ff ffa2 	bl	8007558 <malloc>
 8007614:	4602      	mov	r2, r0
 8007616:	6268      	str	r0, [r5, #36]	; 0x24
 8007618:	b920      	cbnz	r0, 8007624 <_Bfree+0x20>
 800761a:	4b09      	ldr	r3, [pc, #36]	; (8007640 <_Bfree+0x3c>)
 800761c:	4809      	ldr	r0, [pc, #36]	; (8007644 <_Bfree+0x40>)
 800761e:	218a      	movs	r1, #138	; 0x8a
 8007620:	f000 fd54 	bl	80080cc <__assert_func>
 8007624:	e9c0 6601 	strd	r6, r6, [r0, #4]
 8007628:	6006      	str	r6, [r0, #0]
 800762a:	60c6      	str	r6, [r0, #12]
 800762c:	b13c      	cbz	r4, 800763e <_Bfree+0x3a>
 800762e:	6a6b      	ldr	r3, [r5, #36]	; 0x24
 8007630:	6862      	ldr	r2, [r4, #4]
 8007632:	68db      	ldr	r3, [r3, #12]
 8007634:	f853 1022 	ldr.w	r1, [r3, r2, lsl #2]
 8007638:	6021      	str	r1, [r4, #0]
 800763a:	f843 4022 	str.w	r4, [r3, r2, lsl #2]
 800763e:	bd70      	pop	{r4, r5, r6, pc}
 8007640:	08008d75 	.word	0x08008d75
 8007644:	08008dfc 	.word	0x08008dfc

08007648 <__multadd>:
 8007648:	e92d 41f0 	stmdb	sp!, {r4, r5, r6, r7, r8, lr}
 800764c:	690e      	ldr	r6, [r1, #16]
 800764e:	4607      	mov	r7, r0
 8007650:	4698      	mov	r8, r3
 8007652:	460c      	mov	r4, r1
 8007654:	f101 0014 	add.w	r0, r1, #20
 8007658:	2300      	movs	r3, #0
 800765a:	6805      	ldr	r5, [r0, #0]
 800765c:	b2a9      	uxth	r1, r5
 800765e:	fb02 8101 	mla	r1, r2, r1, r8
 8007662:	ea4f 4c11 	mov.w	ip, r1, lsr #16
 8007666:	0c2d      	lsrs	r5, r5, #16
 8007668:	fb02 c505 	mla	r5, r2, r5, ip
 800766c:	b289      	uxth	r1, r1
 800766e:	3301      	adds	r3, #1
 8007670:	eb01 4105 	add.w	r1, r1, r5, lsl #16
 8007674:	429e      	cmp	r6, r3
 8007676:	f840 1b04 	str.w	r1, [r0], #4
 800767a:	ea4f 4815 	mov.w	r8, r5, lsr #16
 800767e:	dcec      	bgt.n	800765a <__multadd+0x12>
 8007680:	f1b8 0f00 	cmp.w	r8, #0
 8007684:	d022      	beq.n	80076cc <__multadd+0x84>
 8007686:	68a3      	ldr	r3, [r4, #8]
 8007688:	42b3      	cmp	r3, r6
 800768a:	dc19      	bgt.n	80076c0 <__multadd+0x78>
 800768c:	6861      	ldr	r1, [r4, #4]
 800768e:	4638      	mov	r0, r7
 8007690:	3101      	adds	r1, #1
 8007692:	f7ff ff77 	bl	8007584 <_Balloc>
 8007696:	4605      	mov	r5, r0
 8007698:	b928      	cbnz	r0, 80076a6 <__multadd+0x5e>
 800769a:	4602      	mov	r2, r0
 800769c:	4b0d      	ldr	r3, [pc, #52]	; (80076d4 <__multadd+0x8c>)
 800769e:	480e      	ldr	r0, [pc, #56]	; (80076d8 <__multadd+0x90>)
 80076a0:	21b5      	movs	r1, #181	; 0xb5
 80076a2:	f000 fd13 	bl	80080cc <__assert_func>
 80076a6:	6922      	ldr	r2, [r4, #16]
 80076a8:	3202      	adds	r2, #2
 80076aa:	f104 010c 	add.w	r1, r4, #12
 80076ae:	0092      	lsls	r2, r2, #2
 80076b0:	300c      	adds	r0, #12
 80076b2:	f7ff ff59 	bl	8007568 <memcpy>
 80076b6:	4621      	mov	r1, r4
 80076b8:	4638      	mov	r0, r7
 80076ba:	f7ff ffa3 	bl	8007604 <_Bfree>
 80076be:	462c      	mov	r4, r5
 80076c0:	eb04 0386 	add.w	r3, r4, r6, lsl #2
 80076c4:	3601      	adds	r6, #1
 80076c6:	f8c3 8014 	str.w	r8, [r3, #20]
 80076ca:	6126      	str	r6, [r4, #16]
 80076cc:	4620      	mov	r0, r4
 80076ce:	e8bd 81f0 	ldmia.w	sp!, {r4, r5, r6, r7, r8, pc}
 80076d2:	bf00      	nop
 80076d4:	08008deb 	.word	0x08008deb
 80076d8:	08008dfc 	.word	0x08008dfc

080076dc <__hi0bits>:
 80076dc:	0c03      	lsrs	r3, r0, #16
 80076de:	041b      	lsls	r3, r3, #16
 80076e0:	b9d3      	cbnz	r3, 8007718 <__hi0bits+0x3c>
 80076e2:	0400      	lsls	r0, r0, #16
 80076e4:	2310      	movs	r3, #16
 80076e6:	f010 4f7f 	tst.w	r0, #4278190080	; 0xff000000
 80076ea:	bf04      	itt	eq
 80076ec:	0200      	lsleq	r0, r0, #8
 80076ee:	3308      	addeq	r3, #8
 80076f0:	f010 4f70 	tst.w	r0, #4026531840	; 0xf0000000
 80076f4:	bf04      	itt	eq
 80076f6:	0100      	lsleq	r0, r0, #4
 80076f8:	3304      	addeq	r3, #4
 80076fa:	f010 4f40 	tst.w	r0, #3221225472	; 0xc0000000
 80076fe:	bf04      	itt	eq
 8007700:	0080      	lsleq	r0, r0, #2
 8007702:	3302      	addeq	r3, #2
 8007704:	2800      	cmp	r0, #0
 8007706:	db05      	blt.n	8007714 <__hi0bits+0x38>
 8007708:	f010 4f80 	tst.w	r0, #1073741824	; 0x40000000
 800770c:	f103 0301 	add.w	r3, r3, #1
 8007710:	bf08      	it	eq
 8007712:	2320      	moveq	r3, #32
 8007714:	4618      	mov	r0, r3
 8007716:	4770      	bx	lr
 8007718:	2300      	movs	r3, #0
 800771a:	e7e4      	b.n	80076e6 <__hi0bits+0xa>

0800771c <__lo0bits>:
 800771c:	6803      	ldr	r3, [r0, #0]
 800771e:	f013 0207 	ands.w	r2, r3, #7
 8007722:	4601      	mov	r1, r0
 8007724:	d00b      	beq.n	800773e <__lo0bits+0x22>
 8007726:	07da      	lsls	r2, r3, #31
 8007728:	d424      	bmi.n	8007774 <__lo0bits+0x58>
 800772a:	0798      	lsls	r0, r3, #30
 800772c:	bf49      	itett	mi
 800772e:	085b      	lsrmi	r3, r3, #1
 8007730:	089b      	lsrpl	r3, r3, #2
 8007732:	2001      	movmi	r0, #1
 8007734:	600b      	strmi	r3, [r1, #0]
 8007736:	bf5c      	itt	pl
 8007738:	600b      	strpl	r3, [r1, #0]
 800773a:	2002      	movpl	r0, #2
 800773c:	4770      	bx	lr
 800773e:	b298      	uxth	r0, r3
 8007740:	b9b0      	cbnz	r0, 8007770 <__lo0bits+0x54>
 8007742:	0c1b      	lsrs	r3, r3, #16
 8007744:	2010      	movs	r0, #16
 8007746:	f013 0fff 	tst.w	r3, #255	; 0xff
 800774a:	bf04      	itt	eq
 800774c:	0a1b      	lsreq	r3, r3, #8
 800774e:	3008      	addeq	r0, #8
 8007750:	071a      	lsls	r2, r3, #28
 8007752:	bf04      	itt	eq
 8007754:	091b      	lsreq	r3, r3, #4
 8007756:	3004      	addeq	r0, #4
 8007758:	079a      	lsls	r2, r3, #30
 800775a:	bf04      	itt	eq
 800775c:	089b      	lsreq	r3, r3, #2
 800775e:	3002      	addeq	r0, #2
 8007760:	07da      	lsls	r2, r3, #31
 8007762:	d403      	bmi.n	800776c <__lo0bits+0x50>
 8007764:	085b      	lsrs	r3, r3, #1
 8007766:	f100 0001 	add.w	r0, r0, #1
 800776a:	d005      	beq.n	8007778 <__lo0bits+0x5c>
 800776c:	600b      	str	r3, [r1, #0]
 800776e:	4770      	bx	lr
 8007770:	4610      	mov	r0, r2
 8007772:	e7e8      	b.n	8007746 <__lo0bits+0x2a>
 8007774:	2000      	movs	r0, #0
 8007776:	4770      	bx	lr
 8007778:	2020      	movs	r0, #32
 800777a:	4770      	bx	lr

0800777c <__i2b>:
 800777c:	b510      	push	{r4, lr}
 800777e:	460c      	mov	r4, r1
 8007780:	2101      	movs	r1, #1
 8007782:	f7ff feff 	bl	8007584 <_Balloc>
 8007786:	4602      	mov	r2, r0
 8007788:	b928      	cbnz	r0, 8007796 <__i2b+0x1a>
 800778a:	4b05      	ldr	r3, [pc, #20]	; (80077a0 <__i2b+0x24>)
 800778c:	4805      	ldr	r0, [pc, #20]	; (80077a4 <__i2b+0x28>)
 800778e:	f44f 71a0 	mov.w	r1, #320	; 0x140
 8007792:	f000 fc9b 	bl	80080cc <__assert_func>
 8007796:	2301      	movs	r3, #1
 8007798:	6144      	str	r4, [r0, #20]
 800779a:	6103      	str	r3, [r0, #16]
 800779c:	bd10      	pop	{r4, pc}
 800779e:	bf00      	nop
 80077a0:	08008deb 	.word	0x08008deb
 80077a4:	08008dfc 	.word	0x08008dfc

080077a8 <__multiply>:
 80077a8:	e92d 4ff0 	stmdb	sp!, {r4, r5, r6, r7, r8, r9, sl, fp, lr}
 80077ac:	4614      	mov	r4, r2
 80077ae:	690a      	ldr	r2, [r1, #16]
 80077b0:	6923      	ldr	r3, [r4, #16]
 80077b2:	429a      	cmp	r2, r3
 80077b4:	bfb8      	it	lt
 80077b6:	460b      	movlt	r3, r1
 80077b8:	460d      	mov	r5, r1
 80077ba:	bfbc      	itt	lt
 80077bc:	4625      	movlt	r5, r4
 80077be:	461c      	movlt	r4, r3
 80077c0:	f8d5 a010 	ldr.w	sl, [r5, #16]
 80077c4:	f8d4 9010 	ldr.w	r9, [r4, #16]
 80077c8:	68ab      	ldr	r3, [r5, #8]
 80077ca:	6869      	ldr	r1, [r5, #4]
 80077cc:	eb0a 0709 	add.w	r7, sl, r9
 80077d0:	42bb      	cmp	r3, r7
 80077d2:	b085      	sub	sp, #20
 80077d4:	bfb8      	it	lt
 80077d6:	3101      	addlt	r1, #1
 80077d8:	f7ff fed4 	bl	8007584 <_Balloc>
 80077dc:	b930      	cbnz	r0, 80077ec <__multiply+0x44>
 80077de:	4602      	mov	r2, r0
 80077e0:	4b42      	ldr	r3, [pc, #264]	; (80078ec <__multiply+0x144>)
 80077e2:	4843      	ldr	r0, [pc, #268]	; (80078f0 <__multiply+0x148>)
 80077e4:	f240 115d 	movw	r1, #349	; 0x15d
 80077e8:	f000 fc70 	bl	80080cc <__assert_func>
 80077ec:	f100 0614 	add.w	r6, r0, #20
 80077f0:	eb06 0887 	add.w	r8, r6, r7, lsl #2
 80077f4:	4633      	mov	r3, r6
 80077f6:	2200      	movs	r2, #0
 80077f8:	4543      	cmp	r3, r8
 80077fa:	d31e      	bcc.n	800783a <__multiply+0x92>
 80077fc:	f105 0c14 	add.w	ip, r5, #20
 8007800:	f104 0314 	add.w	r3, r4, #20
 8007804:	eb0c 0c8a 	add.w	ip, ip, sl, lsl #2
 8007808:	eb03 0289 	add.w	r2, r3, r9, lsl #2
 800780c:	9202      	str	r2, [sp, #8]
 800780e:	ebac 0205 	sub.w	r2, ip, r5
 8007812:	3a15      	subs	r2, #21
 8007814:	f022 0203 	bic.w	r2, r2, #3
 8007818:	3204      	adds	r2, #4
 800781a:	f105 0115 	add.w	r1, r5, #21
 800781e:	458c      	cmp	ip, r1
 8007820:	bf38      	it	cc
 8007822:	2204      	movcc	r2, #4
 8007824:	9201      	str	r2, [sp, #4]
 8007826:	9a02      	ldr	r2, [sp, #8]
 8007828:	9303      	str	r3, [sp, #12]
 800782a:	429a      	cmp	r2, r3
 800782c:	d808      	bhi.n	8007840 <__multiply+0x98>
 800782e:	2f00      	cmp	r7, #0
 8007830:	dc55      	bgt.n	80078de <__multiply+0x136>
 8007832:	6107      	str	r7, [r0, #16]
 8007834:	b005      	add	sp, #20
 8007836:	e8bd 8ff0 	ldmia.w	sp!, {r4, r5, r6, r7, r8, r9, sl, fp, pc}
 800783a:	f843 2b04 	str.w	r2, [r3], #4
 800783e:	e7db      	b.n	80077f8 <__multiply+0x50>
 8007840:	f8b3 a000 	ldrh.w	sl, [r3]
 8007844:	f1ba 0f00 	cmp.w	sl, #0
 8007848:	d020      	beq.n	800788c <__multiply+0xe4>
 800784a:	f105 0e14 	add.w	lr, r5, #20
 800784e:	46b1      	mov	r9, r6
 8007850:	2200      	movs	r2, #0
 8007852:	f85e 4b04 	ldr.w	r4, [lr], #4
 8007856:	f8d9 b000 	ldr.w	fp, [r9]
 800785a:	b2a1      	uxth	r1, r4
 800785c:	fa1f fb8b 	uxth.w	fp, fp
 8007860:	fb0a b101 	mla	r1, sl, r1, fp
 8007864:	4411      	add	r1, r2
 8007866:	f8d9 2000 	ldr.w	r2, [r9]
 800786a:	0c24      	lsrs	r4, r4, #16
 800786c:	0c12      	lsrs	r2, r2, #16
 800786e:	fb0a 2404 	mla	r4, sl, r4, r2
 8007872:	eb04 4411 	add.w	r4, r4, r1, lsr #16
 8007876:	b289      	uxth	r1, r1
 8007878:	ea41 4104 	orr.w	r1, r1, r4, lsl #16
 800787c:	45f4      	cmp	ip, lr
 800787e:	f849 1b04 	str.w	r1, [r9], #4
 8007882:	ea4f 4214 	mov.w	r2, r4, lsr #16
 8007886:	d8e4      	bhi.n	8007852 <__multiply+0xaa>
 8007888:	9901      	ldr	r1, [sp, #4]
 800788a:	5072      	str	r2, [r6, r1]
 800788c:	9a03      	ldr	r2, [sp, #12]
 800788e:	f8b2 9002 	ldrh.w	r9, [r2, #2]
 8007892:	3304      	adds	r3, #4
 8007894:	f1b9 0f00 	cmp.w	r9, #0
 8007898:	d01f      	beq.n	80078da <__multiply+0x132>
 800789a:	6834      	ldr	r4, [r6, #0]
 800789c:	f105 0114 	add.w	r1, r5, #20
 80078a0:	46b6      	mov	lr, r6
 80078a2:	f04f 0a00 	mov.w	sl, #0
 80078a6:	880a      	ldrh	r2, [r1, #0]
 80078a8:	f8be b002 	ldrh.w	fp, [lr, #2]
 80078ac:	fb09 b202 	mla	r2, r9, r2, fp
 80078b0:	4492      	add	sl, r2
 80078b2:	b2a4      	uxth	r4, r4
 80078b4:	ea44 440a 	orr.w	r4, r4, sl, lsl #16
 80078b8:	f84e 4b04 	str.w	r4, [lr], #4
 80078bc:	f851 4b04 	ldr.w	r4, [r1], #4
 80078c0:	f8be 2000 	ldrh.w	r2, [lr]
 80078c4:	0c24      	lsrs	r4, r4, #16
 80078c6:	fb09 2404 	mla	r4, r9, r4, r2
 80078ca:	eb04 441a 	add.w	r4, r4, sl, lsr #16
 80078ce:	458c      	cmp	ip, r1
 80078d0:	ea4f 4a14 	mov.w	sl, r4, lsr #16
 80078d4:	d8e7      	bhi.n	80078a6 <__multiply+0xfe>
 80078d6:	9a01      	ldr	r2, [sp, #4]
 80078d8:	50b4      	str	r4, [r6, r2]
 80078da:	3604      	adds	r6, #4
 80078dc:	e7a3      	b.n	8007826 <__multiply+0x7e>
 80078de:	f858 3d04 	ldr.w	r3, [r8, #-4]!
 80078e2:	2b00      	cmp	r3, #0
 80078e4:	d1a5      	bne.n	8007832 <__multiply+0x8a>
 80078e6:	3f01      	subs	r7, #1
 80078e8:	e7a1      	b.n	800782e <__multiply+0x86>
 80078ea:	bf00      	nop
 80078ec:	08008deb 	.word	0x08008deb
 80078f0:	08008dfc 	.word	0x08008dfc

080078f4 <__pow5mult>:
 80078f4:	e92d 43f8 	stmdb	sp!, {r3, r4, r5, r6, r7, r8, r9, lr}
 80078f8:	4615      	mov	r5, r2
 80078fa:	f012 0203 	ands.w	r2, r2, #3
 80078fe:	4606      	mov	r6, r0
 8007900:	460f      	mov	r7, r1
 8007902:	d007      	beq.n	8007914 <__pow5mult+0x20>
 8007904:	4c25      	ldr	r4, [pc, #148]	; (800799c <__pow5mult+0xa8>)
 8007906:	3a01      	subs	r2, #1
 8007908:	2300      	movs	r3, #0
 800790a:	f854 2022 	ldr.w	r2, [r4, r2, lsl #2]
 800790e:	f7ff fe9b 	bl	8007648 <__multadd>
 8007912:	4607      	mov	r7, r0
 8007914:	10ad      	asrs	r5, r5, #2
 8007916:	d03d      	beq.n	8007994 <__pow5mult+0xa0>
 8007918:	6a74      	ldr	r4, [r6, #36]	; 0x24
 800791a:	b97c      	cbnz	r4, 800793c <__pow5mult+0x48>
 800791c:	2010      	movs	r0, #16
 800791e:	f7ff fe1b 	bl	8007558 <malloc>
 8007922:	4602      	mov	r2, r0
 8007924:	6270      	str	r0, [r6, #36]	; 0x24
 8007926:	b928      	cbnz	r0, 8007934 <__pow5mult+0x40>
 8007928:	4b1d      	ldr	r3, [pc, #116]	; (80079a0 <__pow5mult+0xac>)
 800792a:	481e      	ldr	r0, [pc, #120]	; (80079a4 <__pow5mult+0xb0>)
 800792c:	f44f 71d7 	mov.w	r1, #430	; 0x1ae
 8007930:	f000 fbcc 	bl	80080cc <__assert_func>
 8007934:	e9c0 4401 	strd	r4, r4, [r0, #4]
 8007938:	6004      	str	r4, [r0, #0]
 800793a:	60c4      	str	r4, [r0, #12]
 800793c:	f8d6 8024 	ldr.w	r8, [r6, #36]	; 0x24
 8007940:	f8d8 4008 	ldr.w	r4, [r8, #8]
 8007944:	b94c      	cbnz	r4, 800795a <__pow5mult+0x66>
 8007946:	f240 2171 	movw	r1, #625	; 0x271
 800794a:	4630      	mov	r0, r6
 800794c:	f7ff ff16 	bl	800777c <__i2b>
 8007950:	2300      	movs	r3, #0
 8007952:	f8c8 0008 	str.w	r0, [r8, #8]
 8007956:	4604      	mov	r4, r0
 8007958:	6003      	str	r3, [r0, #0]
 800795a:	f04f 0900 	mov.w	r9, #0
 800795e:	07eb      	lsls	r3, r5, #31
 8007960:	d50a      	bpl.n	8007978 <__pow5mult+0x84>
 8007962:	4639      	mov	r1, r7
 8007964:	4622      	mov	r2, r4
 8007966:	4630      	mov	r0, r6
 8007968:	f7ff ff1e 	bl	80077a8 <__multiply>
 800796c:	4639      	mov	r1, r7
 800796e:	4680      	mov	r8, r0
 8007970:	4630      	mov	r0, r6
 8007972:	f7ff fe47 	bl	8007604 <_Bfree>
 8007976:	4647      	mov	r7, r8
 8007978:	106d      	asrs	r5, r5, #1
 800797a:	d00b      	beq.n	8007994 <__pow5mult+0xa0>
 800797c:	6820      	ldr	r0, [r4, #0]
 800797e:	b938      	cbnz	r0, 8007990 <__pow5mult+0x9c>
 8007980:	4622      	mov	r2, r4
 8007982:	4621      	mov	r1, r4
 8007984:	4630      	mov	r0, r6
 8007986:	f7ff ff0f 	bl	80077a8 <__multiply>
 800798a:	6020      	str	r0, [r4, #0]
 800798c:	f8c0 9000 	str.w	r9, [r0]
 8007990:	4604      	mov	r4, r0
 8007992:	e7e4      	b.n	800795e <__pow5mult+0x6a>
 8007994:	4638      	mov	r0, r7
 8007996:	e8bd 83f8 	ldmia.w	sp!, {r3, r4, r5, r6, r7, r8, r9, pc}
 800799a:	bf00      	nop
 800799c:	08008f50 	.word	0x08008f50
 80079a0:	08008d75 	.word	0x08008d75
 80079a4:	08008dfc 	.word	0x08008dfc

080079a8 <__lshift>:
 80079a8:	e92d 47f0 	stmdb	sp!, {r4, r5, r6, r7, r8, r9, sl, lr}
 80079ac:	460c      	mov	r4, r1
 80079ae:	6849      	ldr	r1, [r1, #4]
 80079b0:	6923      	ldr	r3, [r4, #16]
 80079b2:	eb03 1862 	add.w	r8, r3, r2, asr #5
 80079b6:	68a3      	ldr	r3, [r4, #8]
 80079b8:	4607      	mov	r7, r0
 80079ba:	4691      	mov	r9, r2
 80079bc:	ea4f 1a62 	mov.w	sl, r2, asr #5
 80079c0:	f108 0601 	add.w	r6, r8, #1
 80079c4:	42b3      	cmp	r3, r6
 80079c6:	db0b      	blt.n	80079e0 <__lshift+0x38>
 80079c8:	4638      	mov	r0, r7
 80079ca:	f7ff fddb 	bl	8007584 <_Balloc>
 80079ce:	4605      	mov	r5, r0
 80079d0:	b948      	cbnz	r0, 80079e6 <__lshift+0x3e>
 80079d2:	4602      	mov	r2, r0
 80079d4:	4b28      	ldr	r3, [pc, #160]	; (8007a78 <__lshift+0xd0>)
 80079d6:	4829      	ldr	r0, [pc, #164]	; (8007a7c <__lshift+0xd4>)
 80079d8:	f240 11d9 	movw	r1, #473	; 0x1d9
 80079dc:	f000 fb76 	bl	80080cc <__assert_func>
 80079e0:	3101      	adds	r1, #1
 80079e2:	005b      	lsls	r3, r3, #1
 80079e4:	e7ee      	b.n	80079c4 <__lshift+0x1c>
 80079e6:	2300      	movs	r3, #0
 80079e8:	f100 0114 	add.w	r1, r0, #20
 80079ec:	f100 0210 	add.w	r2, r0, #16
 80079f0:	4618      	mov	r0, r3
 80079f2:	4553      	cmp	r3, sl
 80079f4:	db33      	blt.n	8007a5e <__lshift+0xb6>
 80079f6:	6920      	ldr	r0, [r4, #16]
 80079f8:	ea2a 7aea 	bic.w	sl, sl, sl, asr #31
 80079fc:	f104 0314 	add.w	r3, r4, #20
 8007a00:	f019 091f 	ands.w	r9, r9, #31
 8007a04:	eb01 018a 	add.w	r1, r1, sl, lsl #2
 8007a08:	eb03 0c80 	add.w	ip, r3, r0, lsl #2
 8007a0c:	d02b      	beq.n	8007a66 <__lshift+0xbe>
 8007a0e:	f1c9 0e20 	rsb	lr, r9, #32
 8007a12:	468a      	mov	sl, r1
 8007a14:	2200      	movs	r2, #0
 8007a16:	6818      	ldr	r0, [r3, #0]
 8007a18:	fa00 f009 	lsl.w	r0, r0, r9
 8007a1c:	4302      	orrs	r2, r0
 8007a1e:	f84a 2b04 	str.w	r2, [sl], #4
 8007a22:	f853 2b04 	ldr.w	r2, [r3], #4
 8007a26:	459c      	cmp	ip, r3
 8007a28:	fa22 f20e 	lsr.w	r2, r2, lr
 8007a2c:	d8f3      	bhi.n	8007a16 <__lshift+0x6e>
 8007a2e:	ebac 0304 	sub.w	r3, ip, r4
 8007a32:	3b15      	subs	r3, #21
 8007a34:	f023 0303 	bic.w	r3, r3, #3
 8007a38:	3304      	adds	r3, #4
 8007a3a:	f104 0015 	add.w	r0, r4, #21
 8007a3e:	4584      	cmp	ip, r0
 8007a40:	bf38      	it	cc
 8007a42:	2304      	movcc	r3, #4
 8007a44:	50ca      	str	r2, [r1, r3]
 8007a46:	b10a      	cbz	r2, 8007a4c <__lshift+0xa4>
 8007a48:	f108 0602 	add.w	r6, r8, #2
 8007a4c:	3e01      	subs	r6, #1
 8007a4e:	4638      	mov	r0, r7
 8007a50:	612e      	str	r6, [r5, #16]
 8007a52:	4621      	mov	r1, r4
 8007a54:	f7ff fdd6 	bl	8007604 <_Bfree>
 8007a58:	4628      	mov	r0, r5
 8007a5a:	e8bd 87f0 	ldmia.w	sp!, {r4, r5, r6, r7, r8, r9, sl, pc}
 8007a5e:	f842 0f04 	str.w	r0, [r2, #4]!
 8007a62:	3301      	adds	r3, #1
 8007a64:	e7c5      	b.n	80079f2 <__lshift+0x4a>
 8007a66:	3904      	subs	r1, #4
 8007a68:	f853 2b04 	ldr.w	r2, [r3], #4
 8007a6c:	f841 2f04 	str.w	r2, [r1, #4]!
 8007a70:	459c      	cmp	ip, r3
 8007a72:	d8f9      	bhi.n	8007a68 <__lshift+0xc0>
 8007a74:	e7ea      	b.n	8007a4c <__lshift+0xa4>
 8007a76:	bf00      	nop
 8007a78:	08008deb 	.word	0x08008deb
 8007a7c:	08008dfc 	.word	0x08008dfc

08007a80 <__mcmp>:
 8007a80:	b530      	push	{r4, r5, lr}
 8007a82:	6902      	ldr	r2, [r0, #16]
 8007a84:	690c      	ldr	r4, [r1, #16]
 8007a86:	1b12      	subs	r2, r2, r4
 8007a88:	d10e      	bne.n	8007aa8 <__mcmp+0x28>
 8007a8a:	f100 0314 	add.w	r3, r0, #20
 8007a8e:	3114      	adds	r1, #20
 8007a90:	eb03 0084 	add.w	r0, r3, r4, lsl #2
 8007a94:	eb01 0184 	add.w	r1, r1, r4, lsl #2
 8007a98:	f850 5d04 	ldr.w	r5, [r0, #-4]!
 8007a9c:	f851 4d04 	ldr.w	r4, [r1, #-4]!
 8007aa0:	42a5      	cmp	r5, r4
 8007aa2:	d003      	beq.n	8007aac <__mcmp+0x2c>
 8007aa4:	d305      	bcc.n	8007ab2 <__mcmp+0x32>
 8007aa6:	2201      	movs	r2, #1
 8007aa8:	4610      	mov	r0, r2
 8007aaa:	bd30      	pop	{r4, r5, pc}
 8007aac:	4283      	cmp	r3, r0
 8007aae:	d3f3      	bcc.n	8007a98 <__mcmp+0x18>
 8007ab0:	e7fa      	b.n	8007aa8 <__mcmp+0x28>
 8007ab2:	f04f 32ff 	mov.w	r2, #4294967295	; 0xffffffff
 8007ab6:	e7f7      	b.n	8007aa8 <__mcmp+0x28>

08007ab8 <__mdiff>:
 8007ab8:	e92d 4ff8 	stmdb	sp!, {r3, r4, r5, r6, r7, r8, r9, sl, fp, lr}
 8007abc:	460c      	mov	r4, r1
 8007abe:	4606      	mov	r6, r0
 8007ac0:	4611      	mov	r1, r2
 8007ac2:	4620      	mov	r0, r4
 8007ac4:	4617      	mov	r7, r2
 8007ac6:	f7ff ffdb 	bl	8007a80 <__mcmp>
 8007aca:	1e05      	subs	r5, r0, #0
 8007acc:	d110      	bne.n	8007af0 <__mdiff+0x38>
 8007ace:	4629      	mov	r1, r5
 8007ad0:	4630      	mov	r0, r6
 8007ad2:	f7ff fd57 	bl	8007584 <_Balloc>
 8007ad6:	b930      	cbnz	r0, 8007ae6 <__mdiff+0x2e>
 8007ad8:	4b39      	ldr	r3, [pc, #228]	; (8007bc0 <__mdiff+0x108>)
 8007ada:	4602      	mov	r2, r0
 8007adc:	f240 2132 	movw	r1, #562	; 0x232
 8007ae0:	4838      	ldr	r0, [pc, #224]	; (8007bc4 <__mdiff+0x10c>)
 8007ae2:	f000 faf3 	bl	80080cc <__assert_func>
 8007ae6:	2301      	movs	r3, #1
 8007ae8:	e9c0 3504 	strd	r3, r5, [r0, #16]
 8007aec:	e8bd 8ff8 	ldmia.w	sp!, {r3, r4, r5, r6, r7, r8, r9, sl, fp, pc}
 8007af0:	bfa4      	itt	ge
 8007af2:	463b      	movge	r3, r7
 8007af4:	4627      	movge	r7, r4
 8007af6:	4630      	mov	r0, r6
 8007af8:	6879      	ldr	r1, [r7, #4]
 8007afa:	bfa6      	itte	ge
 8007afc:	461c      	movge	r4, r3
 8007afe:	2500      	movge	r5, #0
 8007b00:	2501      	movlt	r5, #1
 8007b02:	f7ff fd3f 	bl	8007584 <_Balloc>
 8007b06:	b920      	cbnz	r0, 8007b12 <__mdiff+0x5a>
 8007b08:	4b2d      	ldr	r3, [pc, #180]	; (8007bc0 <__mdiff+0x108>)
 8007b0a:	4602      	mov	r2, r0
 8007b0c:	f44f 7110 	mov.w	r1, #576	; 0x240
 8007b10:	e7e6      	b.n	8007ae0 <__mdiff+0x28>
 8007b12:	693e      	ldr	r6, [r7, #16]
 8007b14:	60c5      	str	r5, [r0, #12]
 8007b16:	6925      	ldr	r5, [r4, #16]
 8007b18:	f107 0114 	add.w	r1, r7, #20
 8007b1c:	f104 0914 	add.w	r9, r4, #20
 8007b20:	f100 0e14 	add.w	lr, r0, #20
 8007b24:	f107 0210 	add.w	r2, r7, #16
 8007b28:	eb01 0c86 	add.w	ip, r1, r6, lsl #2
 8007b2c:	eb09 0585 	add.w	r5, r9, r5, lsl #2
 8007b30:	46f2      	mov	sl, lr
 8007b32:	2700      	movs	r7, #0
 8007b34:	f859 3b04 	ldr.w	r3, [r9], #4
 8007b38:	f852 bf04 	ldr.w	fp, [r2, #4]!
 8007b3c:	fa1f f883 	uxth.w	r8, r3
 8007b40:	fa17 f78b 	uxtah	r7, r7, fp
 8007b44:	0c1b      	lsrs	r3, r3, #16
 8007b46:	eba7 0808 	sub.w	r8, r7, r8
 8007b4a:	ebc3 431b 	rsb	r3, r3, fp, lsr #16
 8007b4e:	eb03 4328 	add.w	r3, r3, r8, asr #16
 8007b52:	fa1f f888 	uxth.w	r8, r8
 8007b56:	141f      	asrs	r7, r3, #16
 8007b58:	454d      	cmp	r5, r9
 8007b5a:	ea48 4303 	orr.w	r3, r8, r3, lsl #16
 8007b5e:	f84a 3b04 	str.w	r3, [sl], #4
 8007b62:	d8e7      	bhi.n	8007b34 <__mdiff+0x7c>
 8007b64:	1b2b      	subs	r3, r5, r4
 8007b66:	3b15      	subs	r3, #21
 8007b68:	f023 0303 	bic.w	r3, r3, #3
 8007b6c:	3304      	adds	r3, #4
 8007b6e:	3415      	adds	r4, #21
 8007b70:	42a5      	cmp	r5, r4
 8007b72:	bf38      	it	cc
 8007b74:	2304      	movcc	r3, #4
 8007b76:	4419      	add	r1, r3
 8007b78:	4473      	add	r3, lr
 8007b7a:	469e      	mov	lr, r3
 8007b7c:	460d      	mov	r5, r1
 8007b7e:	4565      	cmp	r5, ip
 8007b80:	d30e      	bcc.n	8007ba0 <__mdiff+0xe8>
 8007b82:	f10c 0203 	add.w	r2, ip, #3
 8007b86:	1a52      	subs	r2, r2, r1
 8007b88:	f022 0203 	bic.w	r2, r2, #3
 8007b8c:	3903      	subs	r1, #3
 8007b8e:	458c      	cmp	ip, r1
 8007b90:	bf38      	it	cc
 8007b92:	2200      	movcc	r2, #0
 8007b94:	441a      	add	r2, r3
 8007b96:	f852 3d04 	ldr.w	r3, [r2, #-4]!
 8007b9a:	b17b      	cbz	r3, 8007bbc <__mdiff+0x104>
 8007b9c:	6106      	str	r6, [r0, #16]
 8007b9e:	e7a5      	b.n	8007aec <__mdiff+0x34>
 8007ba0:	f855 8b04 	ldr.w	r8, [r5], #4
 8007ba4:	fa17 f488 	uxtah	r4, r7, r8
 8007ba8:	1422      	asrs	r2, r4, #16
 8007baa:	eb02 4218 	add.w	r2, r2, r8, lsr #16
 8007bae:	b2a4      	uxth	r4, r4
 8007bb0:	ea44 4402 	orr.w	r4, r4, r2, lsl #16
 8007bb4:	f84e 4b04 	str.w	r4, [lr], #4
 8007bb8:	1417      	asrs	r7, r2, #16
 8007bba:	e7e0      	b.n	8007b7e <__mdiff+0xc6>
 8007bbc:	3e01      	subs	r6, #1
 8007bbe:	e7ea      	b.n	8007b96 <__mdiff+0xde>
 8007bc0:	08008deb 	.word	0x08008deb
 8007bc4:	08008dfc 	.word	0x08008dfc

08007bc8 <__d2b>:
 8007bc8:	e92d 43f7 	stmdb	sp!, {r0, r1, r2, r4, r5, r6, r7, r8, r9, lr}
 8007bcc:	4689      	mov	r9, r1
 8007bce:	2101      	movs	r1, #1
 8007bd0:	ec57 6b10 	vmov	r6, r7, d0
 8007bd4:	4690      	mov	r8, r2
 8007bd6:	f7ff fcd5 	bl	8007584 <_Balloc>
 8007bda:	4604      	mov	r4, r0
 8007bdc:	b930      	cbnz	r0, 8007bec <__d2b+0x24>
 8007bde:	4602      	mov	r2, r0
 8007be0:	4b25      	ldr	r3, [pc, #148]	; (8007c78 <__d2b+0xb0>)
 8007be2:	4826      	ldr	r0, [pc, #152]	; (8007c7c <__d2b+0xb4>)
 8007be4:	f240 310a 	movw	r1, #778	; 0x30a
 8007be8:	f000 fa70 	bl	80080cc <__assert_func>
 8007bec:	f3c7 550a 	ubfx	r5, r7, #20, #11
 8007bf0:	f3c7 0313 	ubfx	r3, r7, #0, #20
 8007bf4:	bb35      	cbnz	r5, 8007c44 <__d2b+0x7c>
 8007bf6:	2e00      	cmp	r6, #0
 8007bf8:	9301      	str	r3, [sp, #4]
 8007bfa:	d028      	beq.n	8007c4e <__d2b+0x86>
 8007bfc:	4668      	mov	r0, sp
 8007bfe:	9600      	str	r6, [sp, #0]
 8007c00:	f7ff fd8c 	bl	800771c <__lo0bits>
 8007c04:	9900      	ldr	r1, [sp, #0]
 8007c06:	b300      	cbz	r0, 8007c4a <__d2b+0x82>
 8007c08:	9a01      	ldr	r2, [sp, #4]
 8007c0a:	f1c0 0320 	rsb	r3, r0, #32
 8007c0e:	fa02 f303 	lsl.w	r3, r2, r3
 8007c12:	430b      	orrs	r3, r1
 8007c14:	40c2      	lsrs	r2, r0
 8007c16:	6163      	str	r3, [r4, #20]
 8007c18:	9201      	str	r2, [sp, #4]
 8007c1a:	9b01      	ldr	r3, [sp, #4]
 8007c1c:	61a3      	str	r3, [r4, #24]
 8007c1e:	2b00      	cmp	r3, #0
 8007c20:	bf14      	ite	ne
 8007c22:	2202      	movne	r2, #2
 8007c24:	2201      	moveq	r2, #1
 8007c26:	6122      	str	r2, [r4, #16]
 8007c28:	b1d5      	cbz	r5, 8007c60 <__d2b+0x98>
 8007c2a:	f2a5 4533 	subw	r5, r5, #1075	; 0x433
 8007c2e:	4405      	add	r5, r0
 8007c30:	f8c9 5000 	str.w	r5, [r9]
 8007c34:	f1c0 0035 	rsb	r0, r0, #53	; 0x35
 8007c38:	f8c8 0000 	str.w	r0, [r8]
 8007c3c:	4620      	mov	r0, r4
 8007c3e:	b003      	add	sp, #12
 8007c40:	e8bd 83f0 	ldmia.w	sp!, {r4, r5, r6, r7, r8, r9, pc}
 8007c44:	f443 1380 	orr.w	r3, r3, #1048576	; 0x100000
 8007c48:	e7d5      	b.n	8007bf6 <__d2b+0x2e>
 8007c4a:	6161      	str	r1, [r4, #20]
 8007c4c:	e7e5      	b.n	8007c1a <__d2b+0x52>
 8007c4e:	a801      	add	r0, sp, #4
 8007c50:	f7ff fd64 	bl	800771c <__lo0bits>
 8007c54:	9b01      	ldr	r3, [sp, #4]
 8007c56:	6163      	str	r3, [r4, #20]
 8007c58:	2201      	movs	r2, #1
 8007c5a:	6122      	str	r2, [r4, #16]
 8007c5c:	3020      	adds	r0, #32
 8007c5e:	e7e3      	b.n	8007c28 <__d2b+0x60>
 8007c60:	eb04 0382 	add.w	r3, r4, r2, lsl #2
 8007c64:	f2a0 4032 	subw	r0, r0, #1074	; 0x432
 8007c68:	f8c9 0000 	str.w	r0, [r9]
 8007c6c:	6918      	ldr	r0, [r3, #16]
 8007c6e:	f7ff fd35 	bl	80076dc <__hi0bits>
 8007c72:	ebc0 1042 	rsb	r0, r0, r2, lsl #5
 8007c76:	e7df      	b.n	8007c38 <__d2b+0x70>
 8007c78:	08008deb 	.word	0x08008deb
 8007c7c:	08008dfc 	.word	0x08008dfc

08007c80 <_calloc_r>:
 8007c80:	b513      	push	{r0, r1, r4, lr}
 8007c82:	434a      	muls	r2, r1
 8007c84:	4611      	mov	r1, r2
 8007c86:	9201      	str	r2, [sp, #4]
 8007c88:	f000 f85a 	bl	8007d40 <_malloc_r>
 8007c8c:	4604      	mov	r4, r0
 8007c8e:	b118      	cbz	r0, 8007c98 <_calloc_r+0x18>
 8007c90:	9a01      	ldr	r2, [sp, #4]
 8007c92:	2100      	movs	r1, #0
 8007c94:	f7fe f950 	bl	8005f38 <memset>
 8007c98:	4620      	mov	r0, r4
 8007c9a:	b002      	add	sp, #8
 8007c9c:	bd10      	pop	{r4, pc}
	...

08007ca0 <_free_r>:
 8007ca0:	b537      	push	{r0, r1, r2, r4, r5, lr}
 8007ca2:	2900      	cmp	r1, #0
 8007ca4:	d048      	beq.n	8007d38 <_free_r+0x98>
 8007ca6:	f851 3c04 	ldr.w	r3, [r1, #-4]
 8007caa:	9001      	str	r0, [sp, #4]
 8007cac:	2b00      	cmp	r3, #0
 8007cae:	f1a1 0404 	sub.w	r4, r1, #4
 8007cb2:	bfb8      	it	lt
 8007cb4:	18e4      	addlt	r4, r4, r3
 8007cb6:	f000 fa65 	bl	8008184 <__malloc_lock>
 8007cba:	4a20      	ldr	r2, [pc, #128]	; (8007d3c <_free_r+0x9c>)
 8007cbc:	9801      	ldr	r0, [sp, #4]
 8007cbe:	6813      	ldr	r3, [r2, #0]
 8007cc0:	4615      	mov	r5, r2
 8007cc2:	b933      	cbnz	r3, 8007cd2 <_free_r+0x32>
 8007cc4:	6063      	str	r3, [r4, #4]
 8007cc6:	6014      	str	r4, [r2, #0]
 8007cc8:	b003      	add	sp, #12
 8007cca:	e8bd 4030 	ldmia.w	sp!, {r4, r5, lr}
 8007cce:	f000 ba5f 	b.w	8008190 <__malloc_unlock>
 8007cd2:	42a3      	cmp	r3, r4
 8007cd4:	d90b      	bls.n	8007cee <_free_r+0x4e>
 8007cd6:	6821      	ldr	r1, [r4, #0]
 8007cd8:	1862      	adds	r2, r4, r1
 8007cda:	4293      	cmp	r3, r2
 8007cdc:	bf04      	itt	eq
 8007cde:	681a      	ldreq	r2, [r3, #0]
 8007ce0:	685b      	ldreq	r3, [r3, #4]
 8007ce2:	6063      	str	r3, [r4, #4]
 8007ce4:	bf04      	itt	eq
 8007ce6:	1852      	addeq	r2, r2, r1
 8007ce8:	6022      	streq	r2, [r4, #0]
 8007cea:	602c      	str	r4, [r5, #0]
 8007cec:	e7ec      	b.n	8007cc8 <_free_r+0x28>
 8007cee:	461a      	mov	r2, r3
 8007cf0:	685b      	ldr	r3, [r3, #4]
 8007cf2:	b10b      	cbz	r3, 8007cf8 <_free_r+0x58>
 8007cf4:	42a3      	cmp	r3, r4
 8007cf6:	d9fa      	bls.n	8007cee <_free_r+0x4e>
 8007cf8:	6811      	ldr	r1, [r2, #0]
 8007cfa:	1855      	adds	r5, r2, r1
 8007cfc:	42a5      	cmp	r5, r4
 8007cfe:	d10b      	bne.n	8007d18 <_free_r+0x78>
 8007d00:	6824      	ldr	r4, [r4, #0]
 8007d02:	4421      	add	r1, r4
 8007d04:	1854      	adds	r4, r2, r1
 8007d06:	42a3      	cmp	r3, r4
 8007d08:	6011      	str	r1, [r2, #0]
 8007d0a:	d1dd      	bne.n	8007cc8 <_free_r+0x28>
 8007d0c:	681c      	ldr	r4, [r3, #0]
 8007d0e:	685b      	ldr	r3, [r3, #4]
 8007d10:	6053      	str	r3, [r2, #4]
 8007d12:	4421      	add	r1, r4
 8007d14:	6011      	str	r1, [r2, #0]
 8007d16:	e7d7      	b.n	8007cc8 <_free_r+0x28>
 8007d18:	d902      	bls.n	8007d20 <_free_r+0x80>
 8007d1a:	230c      	movs	r3, #12
 8007d1c:	6003      	str	r3, [r0, #0]
 8007d1e:	e7d3      	b.n	8007cc8 <_free_r+0x28>
 8007d20:	6825      	ldr	r5, [r4, #0]
 8007d22:	1961      	adds	r1, r4, r5
 8007d24:	428b      	cmp	r3, r1
 8007d26:	bf04      	itt	eq
 8007d28:	6819      	ldreq	r1, [r3, #0]
 8007d2a:	685b      	ldreq	r3, [r3, #4]
 8007d2c:	6063      	str	r3, [r4, #4]
 8007d2e:	bf04      	itt	eq
 8007d30:	1949      	addeq	r1, r1, r5
 8007d32:	6021      	streq	r1, [r4, #0]
 8007d34:	6054      	str	r4, [r2, #4]
 8007d36:	e7c7      	b.n	8007cc8 <_free_r+0x28>
 8007d38:	b003      	add	sp, #12
 8007d3a:	bd30      	pop	{r4, r5, pc}
 8007d3c:	200002b8 	.word	0x200002b8

08007d40 <_malloc_r>:
 8007d40:	b5f8      	push	{r3, r4, r5, r6, r7, lr}
 8007d42:	1ccd      	adds	r5, r1, #3
 8007d44:	f025 0503 	bic.w	r5, r5, #3
 8007d48:	3508      	adds	r5, #8
 8007d4a:	2d0c      	cmp	r5, #12
 8007d4c:	bf38      	it	cc
 8007d4e:	250c      	movcc	r5, #12
 8007d50:	2d00      	cmp	r5, #0
 8007d52:	4606      	mov	r6, r0
 8007d54:	db01      	blt.n	8007d5a <_malloc_r+0x1a>
 8007d56:	42a9      	cmp	r1, r5
 8007d58:	d903      	bls.n	8007d62 <_malloc_r+0x22>
 8007d5a:	230c      	movs	r3, #12
 8007d5c:	6033      	str	r3, [r6, #0]
 8007d5e:	2000      	movs	r0, #0
 8007d60:	bdf8      	pop	{r3, r4, r5, r6, r7, pc}
 8007d62:	f000 fa0f 	bl	8008184 <__malloc_lock>
 8007d66:	4921      	ldr	r1, [pc, #132]	; (8007dec <_malloc_r+0xac>)
 8007d68:	680a      	ldr	r2, [r1, #0]
 8007d6a:	4614      	mov	r4, r2
 8007d6c:	b99c      	cbnz	r4, 8007d96 <_malloc_r+0x56>
 8007d6e:	4f20      	ldr	r7, [pc, #128]	; (8007df0 <_malloc_r+0xb0>)
 8007d70:	683b      	ldr	r3, [r7, #0]
 8007d72:	b923      	cbnz	r3, 8007d7e <_malloc_r+0x3e>
 8007d74:	4621      	mov	r1, r4
 8007d76:	4630      	mov	r0, r6
 8007d78:	f000 f998 	bl	80080ac <_sbrk_r>
 8007d7c:	6038      	str	r0, [r7, #0]
 8007d7e:	4629      	mov	r1, r5
 8007d80:	4630      	mov	r0, r6
 8007d82:	f000 f993 	bl	80080ac <_sbrk_r>
 8007d86:	1c43      	adds	r3, r0, #1
 8007d88:	d123      	bne.n	8007dd2 <_malloc_r+0x92>
 8007d8a:	230c      	movs	r3, #12
 8007d8c:	6033      	str	r3, [r6, #0]
 8007d8e:	4630      	mov	r0, r6
 8007d90:	f000 f9fe 	bl	8008190 <__malloc_unlock>
 8007d94:	e7e3      	b.n	8007d5e <_malloc_r+0x1e>
 8007d96:	6823      	ldr	r3, [r4, #0]
 8007d98:	1b5b      	subs	r3, r3, r5
 8007d9a:	d417      	bmi.n	8007dcc <_malloc_r+0x8c>
 8007d9c:	2b0b      	cmp	r3, #11
 8007d9e:	d903      	bls.n	8007da8 <_malloc_r+0x68>
 8007da0:	6023      	str	r3, [r4, #0]
 8007da2:	441c      	add	r4, r3
 8007da4:	6025      	str	r5, [r4, #0]
 8007da6:	e004      	b.n	8007db2 <_malloc_r+0x72>
 8007da8:	6863      	ldr	r3, [r4, #4]
 8007daa:	42a2      	cmp	r2, r4
 8007dac:	bf0c      	ite	eq
 8007dae:	600b      	streq	r3, [r1, #0]
 8007db0:	6053      	strne	r3, [r2, #4]
 8007db2:	4630      	mov	r0, r6
 8007db4:	f000 f9ec 	bl	8008190 <__malloc_unlock>
 8007db8:	f104 000b 	add.w	r0, r4, #11
 8007dbc:	1d23      	adds	r3, r4, #4
 8007dbe:	f020 0007 	bic.w	r0, r0, #7
 8007dc2:	1ac2      	subs	r2, r0, r3
 8007dc4:	d0cc      	beq.n	8007d60 <_malloc_r+0x20>
 8007dc6:	1a1b      	subs	r3, r3, r0
 8007dc8:	50a3      	str	r3, [r4, r2]
 8007dca:	e7c9      	b.n	8007d60 <_malloc_r+0x20>
 8007dcc:	4622      	mov	r2, r4
 8007dce:	6864      	ldr	r4, [r4, #4]
 8007dd0:	e7cc      	b.n	8007d6c <_malloc_r+0x2c>
 8007dd2:	1cc4      	adds	r4, r0, #3
 8007dd4:	f024 0403 	bic.w	r4, r4, #3
 8007dd8:	42a0      	cmp	r0, r4
 8007dda:	d0e3      	beq.n	8007da4 <_malloc_r+0x64>
 8007ddc:	1a21      	subs	r1, r4, r0
 8007dde:	4630      	mov	r0, r6
 8007de0:	f000 f964 	bl	80080ac <_sbrk_r>
 8007de4:	3001      	adds	r0, #1
 8007de6:	d1dd      	bne.n	8007da4 <_malloc_r+0x64>
 8007de8:	e7cf      	b.n	8007d8a <_malloc_r+0x4a>
 8007dea:	bf00      	nop
 8007dec:	200002b8 	.word	0x200002b8
 8007df0:	200002bc 	.word	0x200002bc

08007df4 <__ssputs_r>:
 8007df4:	e92d 47f0 	stmdb	sp!, {r4, r5, r6, r7, r8, r9, sl, lr}
 8007df8:	688e      	ldr	r6, [r1, #8]
 8007dfa:	429e      	cmp	r6, r3
 8007dfc:	4682      	mov	sl, r0
 8007dfe:	460c      	mov	r4, r1
 8007e00:	4690      	mov	r8, r2
 8007e02:	461f      	mov	r7, r3
 8007e04:	d838      	bhi.n	8007e78 <__ssputs_r+0x84>
 8007e06:	898a      	ldrh	r2, [r1, #12]
 8007e08:	f412 6f90 	tst.w	r2, #1152	; 0x480
 8007e0c:	d032      	beq.n	8007e74 <__ssputs_r+0x80>
 8007e0e:	6825      	ldr	r5, [r4, #0]
 8007e10:	6909      	ldr	r1, [r1, #16]
 8007e12:	eba5 0901 	sub.w	r9, r5, r1
 8007e16:	6965      	ldr	r5, [r4, #20]
 8007e18:	eb05 0545 	add.w	r5, r5, r5, lsl #1
 8007e1c:	eb05 75d5 	add.w	r5, r5, r5, lsr #31
 8007e20:	3301      	adds	r3, #1
 8007e22:	444b      	add	r3, r9
 8007e24:	106d      	asrs	r5, r5, #1
 8007e26:	429d      	cmp	r5, r3
 8007e28:	bf38      	it	cc
 8007e2a:	461d      	movcc	r5, r3
 8007e2c:	0553      	lsls	r3, r2, #21
 8007e2e:	d531      	bpl.n	8007e94 <__ssputs_r+0xa0>
 8007e30:	4629      	mov	r1, r5
 8007e32:	f7ff ff85 	bl	8007d40 <_malloc_r>
 8007e36:	4606      	mov	r6, r0
 8007e38:	b950      	cbnz	r0, 8007e50 <__ssputs_r+0x5c>
 8007e3a:	230c      	movs	r3, #12
 8007e3c:	f8ca 3000 	str.w	r3, [sl]
 8007e40:	89a3      	ldrh	r3, [r4, #12]
 8007e42:	f043 0340 	orr.w	r3, r3, #64	; 0x40
 8007e46:	81a3      	strh	r3, [r4, #12]
 8007e48:	f04f 30ff 	mov.w	r0, #4294967295	; 0xffffffff
 8007e4c:	e8bd 87f0 	ldmia.w	sp!, {r4, r5, r6, r7, r8, r9, sl, pc}
 8007e50:	6921      	ldr	r1, [r4, #16]
 8007e52:	464a      	mov	r2, r9
 8007e54:	f7ff fb88 	bl	8007568 <memcpy>
 8007e58:	89a3      	ldrh	r3, [r4, #12]
 8007e5a:	f423 6390 	bic.w	r3, r3, #1152	; 0x480
 8007e5e:	f043 0380 	orr.w	r3, r3, #128	; 0x80
 8007e62:	81a3      	strh	r3, [r4, #12]
 8007e64:	6126      	str	r6, [r4, #16]
 8007e66:	6165      	str	r5, [r4, #20]
 8007e68:	444e      	add	r6, r9
 8007e6a:	eba5 0509 	sub.w	r5, r5, r9
 8007e6e:	6026      	str	r6, [r4, #0]
 8007e70:	60a5      	str	r5, [r4, #8]
 8007e72:	463e      	mov	r6, r7
 8007e74:	42be      	cmp	r6, r7
 8007e76:	d900      	bls.n	8007e7a <__ssputs_r+0x86>
 8007e78:	463e      	mov	r6, r7
 8007e7a:	4632      	mov	r2, r6
 8007e7c:	6820      	ldr	r0, [r4, #0]
 8007e7e:	4641      	mov	r1, r8
 8007e80:	f000 f966 	bl	8008150 <memmove>
 8007e84:	68a3      	ldr	r3, [r4, #8]
 8007e86:	6822      	ldr	r2, [r4, #0]
 8007e88:	1b9b      	subs	r3, r3, r6
 8007e8a:	4432      	add	r2, r6
 8007e8c:	60a3      	str	r3, [r4, #8]
 8007e8e:	6022      	str	r2, [r4, #0]
 8007e90:	2000      	movs	r0, #0
 8007e92:	e7db      	b.n	8007e4c <__ssputs_r+0x58>
 8007e94:	462a      	mov	r2, r5
 8007e96:	f000 f981 	bl	800819c <_realloc_r>
 8007e9a:	4606      	mov	r6, r0
 8007e9c:	2800      	cmp	r0, #0
 8007e9e:	d1e1      	bne.n	8007e64 <__ssputs_r+0x70>
 8007ea0:	6921      	ldr	r1, [r4, #16]
 8007ea2:	4650      	mov	r0, sl
 8007ea4:	f7ff fefc 	bl	8007ca0 <_free_r>
 8007ea8:	e7c7      	b.n	8007e3a <__ssputs_r+0x46>
	...

08007eac <_svfiprintf_r>:
 8007eac:	e92d 4ff0 	stmdb	sp!, {r4, r5, r6, r7, r8, r9, sl, fp, lr}
 8007eb0:	4698      	mov	r8, r3
 8007eb2:	898b      	ldrh	r3, [r1, #12]
 8007eb4:	061b      	lsls	r3, r3, #24
 8007eb6:	b09d      	sub	sp, #116	; 0x74
 8007eb8:	4607      	mov	r7, r0
 8007eba:	460d      	mov	r5, r1
 8007ebc:	4614      	mov	r4, r2
 8007ebe:	d50e      	bpl.n	8007ede <_svfiprintf_r+0x32>
 8007ec0:	690b      	ldr	r3, [r1, #16]
 8007ec2:	b963      	cbnz	r3, 8007ede <_svfiprintf_r+0x32>
 8007ec4:	2140      	movs	r1, #64	; 0x40
 8007ec6:	f7ff ff3b 	bl	8007d40 <_malloc_r>
 8007eca:	6028      	str	r0, [r5, #0]
 8007ecc:	6128      	str	r0, [r5, #16]
 8007ece:	b920      	cbnz	r0, 8007eda <_svfiprintf_r+0x2e>
 8007ed0:	230c      	movs	r3, #12
 8007ed2:	603b      	str	r3, [r7, #0]
 8007ed4:	f04f 30ff 	mov.w	r0, #4294967295	; 0xffffffff
 8007ed8:	e0d1      	b.n	800807e <_svfiprintf_r+0x1d2>
 8007eda:	2340      	movs	r3, #64	; 0x40
 8007edc:	616b      	str	r3, [r5, #20]
 8007ede:	2300      	movs	r3, #0
 8007ee0:	9309      	str	r3, [sp, #36]	; 0x24
 8007ee2:	2320      	movs	r3, #32
 8007ee4:	f88d 3029 	strb.w	r3, [sp, #41]	; 0x29
 8007ee8:	f8cd 800c 	str.w	r8, [sp, #12]
 8007eec:	2330      	movs	r3, #48	; 0x30
 8007eee:	f8df 81a8 	ldr.w	r8, [pc, #424]	; 8008098 <_svfiprintf_r+0x1ec>
 8007ef2:	f88d 302a 	strb.w	r3, [sp, #42]	; 0x2a
 8007ef6:	f04f 0901 	mov.w	r9, #1
 8007efa:	4623      	mov	r3, r4
 8007efc:	469a      	mov	sl, r3
 8007efe:	f813 2b01 	ldrb.w	r2, [r3], #1
 8007f02:	b10a      	cbz	r2, 8007f08 <_svfiprintf_r+0x5c>
 8007f04:	2a25      	cmp	r2, #37	; 0x25
 8007f06:	d1f9      	bne.n	8007efc <_svfiprintf_r+0x50>
 8007f08:	ebba 0b04 	subs.w	fp, sl, r4
 8007f0c:	d00b      	beq.n	8007f26 <_svfiprintf_r+0x7a>
 8007f0e:	465b      	mov	r3, fp
 8007f10:	4622      	mov	r2, r4
 8007f12:	4629      	mov	r1, r5
 8007f14:	4638      	mov	r0, r7
 8007f16:	f7ff ff6d 	bl	8007df4 <__ssputs_r>
 8007f1a:	3001      	adds	r0, #1
 8007f1c:	f000 80aa 	beq.w	8008074 <_svfiprintf_r+0x1c8>
 8007f20:	9a09      	ldr	r2, [sp, #36]	; 0x24
 8007f22:	445a      	add	r2, fp
 8007f24:	9209      	str	r2, [sp, #36]	; 0x24
 8007f26:	f89a 3000 	ldrb.w	r3, [sl]
 8007f2a:	2b00      	cmp	r3, #0
 8007f2c:	f000 80a2 	beq.w	8008074 <_svfiprintf_r+0x1c8>
 8007f30:	2300      	movs	r3, #0
 8007f32:	f04f 32ff 	mov.w	r2, #4294967295	; 0xffffffff
 8007f36:	e9cd 2305 	strd	r2, r3, [sp, #20]
 8007f3a:	f10a 0a01 	add.w	sl, sl, #1
 8007f3e:	9304      	str	r3, [sp, #16]
 8007f40:	9307      	str	r3, [sp, #28]
 8007f42:	f88d 3053 	strb.w	r3, [sp, #83]	; 0x53
 8007f46:	931a      	str	r3, [sp, #104]	; 0x68
 8007f48:	4654      	mov	r4, sl
 8007f4a:	2205      	movs	r2, #5
 8007f4c:	f814 1b01 	ldrb.w	r1, [r4], #1
 8007f50:	4851      	ldr	r0, [pc, #324]	; (8008098 <_svfiprintf_r+0x1ec>)
 8007f52:	f7f8 f965 	bl	8000220 <memchr>
 8007f56:	9a04      	ldr	r2, [sp, #16]
 8007f58:	b9d8      	cbnz	r0, 8007f92 <_svfiprintf_r+0xe6>
 8007f5a:	06d0      	lsls	r0, r2, #27
 8007f5c:	bf44      	itt	mi
 8007f5e:	2320      	movmi	r3, #32
 8007f60:	f88d 3053 	strbmi.w	r3, [sp, #83]	; 0x53
 8007f64:	0711      	lsls	r1, r2, #28
 8007f66:	bf44      	itt	mi
 8007f68:	232b      	movmi	r3, #43	; 0x2b
 8007f6a:	f88d 3053 	strbmi.w	r3, [sp, #83]	; 0x53
 8007f6e:	f89a 3000 	ldrb.w	r3, [sl]
 8007f72:	2b2a      	cmp	r3, #42	; 0x2a
 8007f74:	d015      	beq.n	8007fa2 <_svfiprintf_r+0xf6>
 8007f76:	9a07      	ldr	r2, [sp, #28]
 8007f78:	4654      	mov	r4, sl
 8007f7a:	2000      	movs	r0, #0
 8007f7c:	f04f 0c0a 	mov.w	ip, #10
 8007f80:	4621      	mov	r1, r4
 8007f82:	f811 3b01 	ldrb.w	r3, [r1], #1
 8007f86:	3b30      	subs	r3, #48	; 0x30
 8007f88:	2b09      	cmp	r3, #9
 8007f8a:	d94e      	bls.n	800802a <_svfiprintf_r+0x17e>
 8007f8c:	b1b0      	cbz	r0, 8007fbc <_svfiprintf_r+0x110>
 8007f8e:	9207      	str	r2, [sp, #28]
 8007f90:	e014      	b.n	8007fbc <_svfiprintf_r+0x110>
 8007f92:	eba0 0308 	sub.w	r3, r0, r8
 8007f96:	fa09 f303 	lsl.w	r3, r9, r3
 8007f9a:	4313      	orrs	r3, r2
 8007f9c:	9304      	str	r3, [sp, #16]
 8007f9e:	46a2      	mov	sl, r4
 8007fa0:	e7d2      	b.n	8007f48 <_svfiprintf_r+0x9c>
 8007fa2:	9b03      	ldr	r3, [sp, #12]
 8007fa4:	1d19      	adds	r1, r3, #4
 8007fa6:	681b      	ldr	r3, [r3, #0]
 8007fa8:	9103      	str	r1, [sp, #12]
 8007faa:	2b00      	cmp	r3, #0
 8007fac:	bfbb      	ittet	lt
 8007fae:	425b      	neglt	r3, r3
 8007fb0:	f042 0202 	orrlt.w	r2, r2, #2
 8007fb4:	9307      	strge	r3, [sp, #28]
 8007fb6:	9307      	strlt	r3, [sp, #28]
 8007fb8:	bfb8      	it	lt
 8007fba:	9204      	strlt	r2, [sp, #16]
 8007fbc:	7823      	ldrb	r3, [r4, #0]
 8007fbe:	2b2e      	cmp	r3, #46	; 0x2e
 8007fc0:	d10c      	bne.n	8007fdc <_svfiprintf_r+0x130>
 8007fc2:	7863      	ldrb	r3, [r4, #1]
 8007fc4:	2b2a      	cmp	r3, #42	; 0x2a
 8007fc6:	d135      	bne.n	8008034 <_svfiprintf_r+0x188>
 8007fc8:	9b03      	ldr	r3, [sp, #12]
 8007fca:	1d1a      	adds	r2, r3, #4
 8007fcc:	681b      	ldr	r3, [r3, #0]
 8007fce:	9203      	str	r2, [sp, #12]
 8007fd0:	2b00      	cmp	r3, #0
 8007fd2:	bfb8      	it	lt
 8007fd4:	f04f 33ff 	movlt.w	r3, #4294967295	; 0xffffffff
 8007fd8:	3402      	adds	r4, #2
 8007fda:	9305      	str	r3, [sp, #20]
 8007fdc:	f8df a0c8 	ldr.w	sl, [pc, #200]	; 80080a8 <_svfiprintf_r+0x1fc>
 8007fe0:	7821      	ldrb	r1, [r4, #0]
 8007fe2:	2203      	movs	r2, #3
 8007fe4:	4650      	mov	r0, sl
 8007fe6:	f7f8 f91b 	bl	8000220 <memchr>
 8007fea:	b140      	cbz	r0, 8007ffe <_svfiprintf_r+0x152>
 8007fec:	2340      	movs	r3, #64	; 0x40
 8007fee:	eba0 000a 	sub.w	r0, r0, sl
 8007ff2:	fa03 f000 	lsl.w	r0, r3, r0
 8007ff6:	9b04      	ldr	r3, [sp, #16]
 8007ff8:	4303      	orrs	r3, r0
 8007ffa:	3401      	adds	r4, #1
 8007ffc:	9304      	str	r3, [sp, #16]
 8007ffe:	f814 1b01 	ldrb.w	r1, [r4], #1
 8008002:	4826      	ldr	r0, [pc, #152]	; (800809c <_svfiprintf_r+0x1f0>)
 8008004:	f88d 1028 	strb.w	r1, [sp, #40]	; 0x28
 8008008:	2206      	movs	r2, #6
 800800a:	f7f8 f909 	bl	8000220 <memchr>
 800800e:	2800      	cmp	r0, #0
 8008010:	d038      	beq.n	8008084 <_svfiprintf_r+0x1d8>
 8008012:	4b23      	ldr	r3, [pc, #140]	; (80080a0 <_svfiprintf_r+0x1f4>)
 8008014:	bb1b      	cbnz	r3, 800805e <_svfiprintf_r+0x1b2>
 8008016:	9b03      	ldr	r3, [sp, #12]
 8008018:	3307      	adds	r3, #7
 800801a:	f023 0307 	bic.w	r3, r3, #7
 800801e:	3308      	adds	r3, #8
 8008020:	9303      	str	r3, [sp, #12]
 8008022:	9b09      	ldr	r3, [sp, #36]	; 0x24
 8008024:	4433      	add	r3, r6
 8008026:	9309      	str	r3, [sp, #36]	; 0x24
 8008028:	e767      	b.n	8007efa <_svfiprintf_r+0x4e>
 800802a:	fb0c 3202 	mla	r2, ip, r2, r3
 800802e:	460c      	mov	r4, r1
 8008030:	2001      	movs	r0, #1
 8008032:	e7a5      	b.n	8007f80 <_svfiprintf_r+0xd4>
 8008034:	2300      	movs	r3, #0
 8008036:	3401      	adds	r4, #1
 8008038:	9305      	str	r3, [sp, #20]
 800803a:	4619      	mov	r1, r3
 800803c:	f04f 0c0a 	mov.w	ip, #10
 8008040:	4620      	mov	r0, r4
 8008042:	f810 2b01 	ldrb.w	r2, [r0], #1
 8008046:	3a30      	subs	r2, #48	; 0x30
 8008048:	2a09      	cmp	r2, #9
 800804a:	d903      	bls.n	8008054 <_svfiprintf_r+0x1a8>
 800804c:	2b00      	cmp	r3, #0
 800804e:	d0c5      	beq.n	8007fdc <_svfiprintf_r+0x130>
 8008050:	9105      	str	r1, [sp, #20]
 8008052:	e7c3      	b.n	8007fdc <_svfiprintf_r+0x130>
 8008054:	fb0c 2101 	mla	r1, ip, r1, r2
 8008058:	4604      	mov	r4, r0
 800805a:	2301      	movs	r3, #1
 800805c:	e7f0      	b.n	8008040 <_svfiprintf_r+0x194>
 800805e:	ab03      	add	r3, sp, #12
 8008060:	9300      	str	r3, [sp, #0]
 8008062:	462a      	mov	r2, r5
 8008064:	4b0f      	ldr	r3, [pc, #60]	; (80080a4 <_svfiprintf_r+0x1f8>)
 8008066:	a904      	add	r1, sp, #16
 8008068:	4638      	mov	r0, r7
 800806a:	f7fe f80d 	bl	8006088 <_printf_float>
 800806e:	1c42      	adds	r2, r0, #1
 8008070:	4606      	mov	r6, r0
 8008072:	d1d6      	bne.n	8008022 <_svfiprintf_r+0x176>
 8008074:	89ab      	ldrh	r3, [r5, #12]
 8008076:	065b      	lsls	r3, r3, #25
 8008078:	f53f af2c 	bmi.w	8007ed4 <_svfiprintf_r+0x28>
 800807c:	9809      	ldr	r0, [sp, #36]	; 0x24
 800807e:	b01d      	add	sp, #116	; 0x74
 8008080:	e8bd 8ff0 	ldmia.w	sp!, {r4, r5, r6, r7, r8, r9, sl, fp, pc}
 8008084:	ab03      	add	r3, sp, #12
 8008086:	9300      	str	r3, [sp, #0]
 8008088:	462a      	mov	r2, r5
 800808a:	4b06      	ldr	r3, [pc, #24]	; (80080a4 <_svfiprintf_r+0x1f8>)
 800808c:	a904      	add	r1, sp, #16
 800808e:	4638      	mov	r0, r7
 8008090:	f7fe fa9e 	bl	80065d0 <_printf_i>
 8008094:	e7eb      	b.n	800806e <_svfiprintf_r+0x1c2>
 8008096:	bf00      	nop
 8008098:	08008f5c 	.word	0x08008f5c
 800809c:	08008f66 	.word	0x08008f66
 80080a0:	08006089 	.word	0x08006089
 80080a4:	08007df5 	.word	0x08007df5
 80080a8:	08008f62 	.word	0x08008f62

080080ac <_sbrk_r>:
 80080ac:	b538      	push	{r3, r4, r5, lr}
 80080ae:	4d06      	ldr	r5, [pc, #24]	; (80080c8 <_sbrk_r+0x1c>)
 80080b0:	2300      	movs	r3, #0
 80080b2:	4604      	mov	r4, r0
 80080b4:	4608      	mov	r0, r1
 80080b6:	602b      	str	r3, [r5, #0]
 80080b8:	f7fa f9ac 	bl	8002414 <_sbrk>
 80080bc:	1c43      	adds	r3, r0, #1
 80080be:	d102      	bne.n	80080c6 <_sbrk_r+0x1a>
 80080c0:	682b      	ldr	r3, [r5, #0]
 80080c2:	b103      	cbz	r3, 80080c6 <_sbrk_r+0x1a>
 80080c4:	6023      	str	r3, [r4, #0]
 80080c6:	bd38      	pop	{r3, r4, r5, pc}
 80080c8:	2000054c 	.word	0x2000054c

080080cc <__assert_func>:
 80080cc:	b51f      	push	{r0, r1, r2, r3, r4, lr}
 80080ce:	4614      	mov	r4, r2
 80080d0:	461a      	mov	r2, r3
 80080d2:	4b09      	ldr	r3, [pc, #36]	; (80080f8 <__assert_func+0x2c>)
 80080d4:	681b      	ldr	r3, [r3, #0]
 80080d6:	4605      	mov	r5, r0
 80080d8:	68d8      	ldr	r0, [r3, #12]
 80080da:	b14c      	cbz	r4, 80080f0 <__assert_func+0x24>
 80080dc:	4b07      	ldr	r3, [pc, #28]	; (80080fc <__assert_func+0x30>)
 80080de:	9100      	str	r1, [sp, #0]
 80080e0:	e9cd 3401 	strd	r3, r4, [sp, #4]
 80080e4:	4906      	ldr	r1, [pc, #24]	; (8008100 <__assert_func+0x34>)
 80080e6:	462b      	mov	r3, r5
 80080e8:	f000 f80e 	bl	8008108 <fiprintf>
 80080ec:	f000 faa4 	bl	8008638 <abort>
 80080f0:	4b04      	ldr	r3, [pc, #16]	; (8008104 <__assert_func+0x38>)
 80080f2:	461c      	mov	r4, r3
 80080f4:	e7f3      	b.n	80080de <__assert_func+0x12>
 80080f6:	bf00      	nop
 80080f8:	20000028 	.word	0x20000028
 80080fc:	08008f6d 	.word	0x08008f6d
 8008100:	08008f7a 	.word	0x08008f7a
 8008104:	08008fa8 	.word	0x08008fa8

08008108 <fiprintf>:
 8008108:	b40e      	push	{r1, r2, r3}
 800810a:	b503      	push	{r0, r1, lr}
 800810c:	4601      	mov	r1, r0
 800810e:	ab03      	add	r3, sp, #12
 8008110:	4805      	ldr	r0, [pc, #20]	; (8008128 <fiprintf+0x20>)
 8008112:	f853 2b04 	ldr.w	r2, [r3], #4
 8008116:	6800      	ldr	r0, [r0, #0]
 8008118:	9301      	str	r3, [sp, #4]
 800811a:	f000 f88f 	bl	800823c <_vfiprintf_r>
 800811e:	b002      	add	sp, #8
 8008120:	f85d eb04 	ldr.w	lr, [sp], #4
 8008124:	b003      	add	sp, #12
 8008126:	4770      	bx	lr
 8008128:	20000028 	.word	0x20000028

0800812c <__ascii_mbtowc>:
 800812c:	b082      	sub	sp, #8
 800812e:	b901      	cbnz	r1, 8008132 <__ascii_mbtowc+0x6>
 8008130:	a901      	add	r1, sp, #4
 8008132:	b142      	cbz	r2, 8008146 <__ascii_mbtowc+0x1a>
 8008134:	b14b      	cbz	r3, 800814a <__ascii_mbtowc+0x1e>
 8008136:	7813      	ldrb	r3, [r2, #0]
 8008138:	600b      	str	r3, [r1, #0]
 800813a:	7812      	ldrb	r2, [r2, #0]
 800813c:	1e10      	subs	r0, r2, #0
 800813e:	bf18      	it	ne
 8008140:	2001      	movne	r0, #1
 8008142:	b002      	add	sp, #8
 8008144:	4770      	bx	lr
 8008146:	4610      	mov	r0, r2
 8008148:	e7fb      	b.n	8008142 <__ascii_mbtowc+0x16>
 800814a:	f06f 0001 	mvn.w	r0, #1
 800814e:	e7f8      	b.n	8008142 <__ascii_mbtowc+0x16>

08008150 <memmove>:
 8008150:	4288      	cmp	r0, r1
 8008152:	b510      	push	{r4, lr}
 8008154:	eb01 0402 	add.w	r4, r1, r2
 8008158:	d902      	bls.n	8008160 <memmove+0x10>
 800815a:	4284      	cmp	r4, r0
 800815c:	4623      	mov	r3, r4
 800815e:	d807      	bhi.n	8008170 <memmove+0x20>
 8008160:	1e43      	subs	r3, r0, #1
 8008162:	42a1      	cmp	r1, r4
 8008164:	d008      	beq.n	8008178 <memmove+0x28>
 8008166:	f811 2b01 	ldrb.w	r2, [r1], #1
 800816a:	f803 2f01 	strb.w	r2, [r3, #1]!
 800816e:	e7f8      	b.n	8008162 <memmove+0x12>
 8008170:	4402      	add	r2, r0
 8008172:	4601      	mov	r1, r0
 8008174:	428a      	cmp	r2, r1
 8008176:	d100      	bne.n	800817a <memmove+0x2a>
 8008178:	bd10      	pop	{r4, pc}
 800817a:	f813 4d01 	ldrb.w	r4, [r3, #-1]!
 800817e:	f802 4d01 	strb.w	r4, [r2, #-1]!
 8008182:	e7f7      	b.n	8008174 <memmove+0x24>

08008184 <__malloc_lock>:
 8008184:	4801      	ldr	r0, [pc, #4]	; (800818c <__malloc_lock+0x8>)
 8008186:	f000 bc17 	b.w	80089b8 <__retarget_lock_acquire_recursive>
 800818a:	bf00      	nop
 800818c:	20000554 	.word	0x20000554

08008190 <__malloc_unlock>:
 8008190:	4801      	ldr	r0, [pc, #4]	; (8008198 <__malloc_unlock+0x8>)
 8008192:	f000 bc12 	b.w	80089ba <__retarget_lock_release_recursive>
 8008196:	bf00      	nop
 8008198:	20000554 	.word	0x20000554

0800819c <_realloc_r>:
 800819c:	b5f8      	push	{r3, r4, r5, r6, r7, lr}
 800819e:	4607      	mov	r7, r0
 80081a0:	4614      	mov	r4, r2
 80081a2:	460e      	mov	r6, r1
 80081a4:	b921      	cbnz	r1, 80081b0 <_realloc_r+0x14>
 80081a6:	e8bd 40f8 	ldmia.w	sp!, {r3, r4, r5, r6, r7, lr}
 80081aa:	4611      	mov	r1, r2
 80081ac:	f7ff bdc8 	b.w	8007d40 <_malloc_r>
 80081b0:	b922      	cbnz	r2, 80081bc <_realloc_r+0x20>
 80081b2:	f7ff fd75 	bl	8007ca0 <_free_r>
 80081b6:	4625      	mov	r5, r4
 80081b8:	4628      	mov	r0, r5
 80081ba:	bdf8      	pop	{r3, r4, r5, r6, r7, pc}
 80081bc:	f000 fc62 	bl	8008a84 <_malloc_usable_size_r>
 80081c0:	42a0      	cmp	r0, r4
 80081c2:	d20f      	bcs.n	80081e4 <_realloc_r+0x48>
 80081c4:	4621      	mov	r1, r4
 80081c6:	4638      	mov	r0, r7
 80081c8:	f7ff fdba 	bl	8007d40 <_malloc_r>
 80081cc:	4605      	mov	r5, r0
 80081ce:	2800      	cmp	r0, #0
 80081d0:	d0f2      	beq.n	80081b8 <_realloc_r+0x1c>
 80081d2:	4631      	mov	r1, r6
 80081d4:	4622      	mov	r2, r4
 80081d6:	f7ff f9c7 	bl	8007568 <memcpy>
 80081da:	4631      	mov	r1, r6
 80081dc:	4638      	mov	r0, r7
 80081de:	f7ff fd5f 	bl	8007ca0 <_free_r>
 80081e2:	e7e9      	b.n	80081b8 <_realloc_r+0x1c>
 80081e4:	4635      	mov	r5, r6
 80081e6:	e7e7      	b.n	80081b8 <_realloc_r+0x1c>

080081e8 <__sfputc_r>:
 80081e8:	6893      	ldr	r3, [r2, #8]
 80081ea:	3b01      	subs	r3, #1
 80081ec:	2b00      	cmp	r3, #0
 80081ee:	b410      	push	{r4}
 80081f0:	6093      	str	r3, [r2, #8]
 80081f2:	da08      	bge.n	8008206 <__sfputc_r+0x1e>
 80081f4:	6994      	ldr	r4, [r2, #24]
 80081f6:	42a3      	cmp	r3, r4
 80081f8:	db01      	blt.n	80081fe <__sfputc_r+0x16>
 80081fa:	290a      	cmp	r1, #10
 80081fc:	d103      	bne.n	8008206 <__sfputc_r+0x1e>
 80081fe:	f85d 4b04 	ldr.w	r4, [sp], #4
 8008202:	f000 b94b 	b.w	800849c <__swbuf_r>
 8008206:	6813      	ldr	r3, [r2, #0]
 8008208:	1c58      	adds	r0, r3, #1
 800820a:	6010      	str	r0, [r2, #0]
 800820c:	7019      	strb	r1, [r3, #0]
 800820e:	4608      	mov	r0, r1
 8008210:	f85d 4b04 	ldr.w	r4, [sp], #4
 8008214:	4770      	bx	lr

08008216 <__sfputs_r>:
 8008216:	b5f8      	push	{r3, r4, r5, r6, r7, lr}
 8008218:	4606      	mov	r6, r0
 800821a:	460f      	mov	r7, r1
 800821c:	4614      	mov	r4, r2
 800821e:	18d5      	adds	r5, r2, r3
 8008220:	42ac      	cmp	r4, r5
 8008222:	d101      	bne.n	8008228 <__sfputs_r+0x12>
 8008224:	2000      	movs	r0, #0
 8008226:	e007      	b.n	8008238 <__sfputs_r+0x22>
 8008228:	f814 1b01 	ldrb.w	r1, [r4], #1
 800822c:	463a      	mov	r2, r7
 800822e:	4630      	mov	r0, r6
 8008230:	f7ff ffda 	bl	80081e8 <__sfputc_r>
 8008234:	1c43      	adds	r3, r0, #1
 8008236:	d1f3      	bne.n	8008220 <__sfputs_r+0xa>
 8008238:	bdf8      	pop	{r3, r4, r5, r6, r7, pc}
	...

0800823c <_vfiprintf_r>:
 800823c:	e92d 4ff0 	stmdb	sp!, {r4, r5, r6, r7, r8, r9, sl, fp, lr}
 8008240:	460d      	mov	r5, r1
 8008242:	b09d      	sub	sp, #116	; 0x74
 8008244:	4614      	mov	r4, r2
 8008246:	4698      	mov	r8, r3
 8008248:	4606      	mov	r6, r0
 800824a:	b118      	cbz	r0, 8008254 <_vfiprintf_r+0x18>
 800824c:	6983      	ldr	r3, [r0, #24]
 800824e:	b90b      	cbnz	r3, 8008254 <_vfiprintf_r+0x18>
 8008250:	f000 fb14 	bl	800887c <__sinit>
 8008254:	4b89      	ldr	r3, [pc, #548]	; (800847c <_vfiprintf_r+0x240>)
 8008256:	429d      	cmp	r5, r3
 8008258:	d11b      	bne.n	8008292 <_vfiprintf_r+0x56>
 800825a:	6875      	ldr	r5, [r6, #4]
 800825c:	6e6b      	ldr	r3, [r5, #100]	; 0x64
 800825e:	07d9      	lsls	r1, r3, #31
 8008260:	d405      	bmi.n	800826e <_vfiprintf_r+0x32>
 8008262:	89ab      	ldrh	r3, [r5, #12]
 8008264:	059a      	lsls	r2, r3, #22
 8008266:	d402      	bmi.n	800826e <_vfiprintf_r+0x32>
 8008268:	6da8      	ldr	r0, [r5, #88]	; 0x58
 800826a:	f000 fba5 	bl	80089b8 <__retarget_lock_acquire_recursive>
 800826e:	89ab      	ldrh	r3, [r5, #12]
 8008270:	071b      	lsls	r3, r3, #28
 8008272:	d501      	bpl.n	8008278 <_vfiprintf_r+0x3c>
 8008274:	692b      	ldr	r3, [r5, #16]
 8008276:	b9eb      	cbnz	r3, 80082b4 <_vfiprintf_r+0x78>
 8008278:	4629      	mov	r1, r5
 800827a:	4630      	mov	r0, r6
 800827c:	f000 f96e 	bl	800855c <__swsetup_r>
 8008280:	b1c0      	cbz	r0, 80082b4 <_vfiprintf_r+0x78>
 8008282:	6e6b      	ldr	r3, [r5, #100]	; 0x64
 8008284:	07dc      	lsls	r4, r3, #31
 8008286:	d50e      	bpl.n	80082a6 <_vfiprintf_r+0x6a>
 8008288:	f04f 30ff 	mov.w	r0, #4294967295	; 0xffffffff
 800828c:	b01d      	add	sp, #116	; 0x74
 800828e:	e8bd 8ff0 	ldmia.w	sp!, {r4, r5, r6, r7, r8, r9, sl, fp, pc}
 8008292:	4b7b      	ldr	r3, [pc, #492]	; (8008480 <_vfiprintf_r+0x244>)
 8008294:	429d      	cmp	r5, r3
 8008296:	d101      	bne.n	800829c <_vfiprintf_r+0x60>
 8008298:	68b5      	ldr	r5, [r6, #8]
 800829a:	e7df      	b.n	800825c <_vfiprintf_r+0x20>
 800829c:	4b79      	ldr	r3, [pc, #484]	; (8008484 <_vfiprintf_r+0x248>)
 800829e:	429d      	cmp	r5, r3
 80082a0:	bf08      	it	eq
 80082a2:	68f5      	ldreq	r5, [r6, #12]
 80082a4:	e7da      	b.n	800825c <_vfiprintf_r+0x20>
 80082a6:	89ab      	ldrh	r3, [r5, #12]
 80082a8:	0598      	lsls	r0, r3, #22
 80082aa:	d4ed      	bmi.n	8008288 <_vfiprintf_r+0x4c>
 80082ac:	6da8      	ldr	r0, [r5, #88]	; 0x58
 80082ae:	f000 fb84 	bl	80089ba <__retarget_lock_release_recursive>
 80082b2:	e7e9      	b.n	8008288 <_vfiprintf_r+0x4c>
 80082b4:	2300      	movs	r3, #0
 80082b6:	9309      	str	r3, [sp, #36]	; 0x24
 80082b8:	2320      	movs	r3, #32
 80082ba:	f88d 3029 	strb.w	r3, [sp, #41]	; 0x29
 80082be:	f8cd 800c 	str.w	r8, [sp, #12]
 80082c2:	2330      	movs	r3, #48	; 0x30
 80082c4:	f8df 81c0 	ldr.w	r8, [pc, #448]	; 8008488 <_vfiprintf_r+0x24c>
 80082c8:	f88d 302a 	strb.w	r3, [sp, #42]	; 0x2a
 80082cc:	f04f 0901 	mov.w	r9, #1
 80082d0:	4623      	mov	r3, r4
 80082d2:	469a      	mov	sl, r3
 80082d4:	f813 2b01 	ldrb.w	r2, [r3], #1
 80082d8:	b10a      	cbz	r2, 80082de <_vfiprintf_r+0xa2>
 80082da:	2a25      	cmp	r2, #37	; 0x25
 80082dc:	d1f9      	bne.n	80082d2 <_vfiprintf_r+0x96>
 80082de:	ebba 0b04 	subs.w	fp, sl, r4
 80082e2:	d00b      	beq.n	80082fc <_vfiprintf_r+0xc0>
 80082e4:	465b      	mov	r3, fp
 80082e6:	4622      	mov	r2, r4
 80082e8:	4629      	mov	r1, r5
 80082ea:	4630      	mov	r0, r6
 80082ec:	f7ff ff93 	bl	8008216 <__sfputs_r>
 80082f0:	3001      	adds	r0, #1
 80082f2:	f000 80aa 	beq.w	800844a <_vfiprintf_r+0x20e>
 80082f6:	9a09      	ldr	r2, [sp, #36]	; 0x24
 80082f8:	445a      	add	r2, fp
 80082fa:	9209      	str	r2, [sp, #36]	; 0x24
 80082fc:	f89a 3000 	ldrb.w	r3, [sl]
 8008300:	2b00      	cmp	r3, #0
 8008302:	f000 80a2 	beq.w	800844a <_vfiprintf_r+0x20e>
 8008306:	2300      	movs	r3, #0
 8008308:	f04f 32ff 	mov.w	r2, #4294967295	; 0xffffffff
 800830c:	e9cd 2305 	strd	r2, r3, [sp, #20]
 8008310:	f10a 0a01 	add.w	sl, sl, #1
 8008314:	9304      	str	r3, [sp, #16]
 8008316:	9307      	str	r3, [sp, #28]
 8008318:	f88d 3053 	strb.w	r3, [sp, #83]	; 0x53
 800831c:	931a      	str	r3, [sp, #104]	; 0x68
 800831e:	4654      	mov	r4, sl
 8008320:	2205      	movs	r2, #5
 8008322:	f814 1b01 	ldrb.w	r1, [r4], #1
 8008326:	4858      	ldr	r0, [pc, #352]	; (8008488 <_vfiprintf_r+0x24c>)
 8008328:	f7f7 ff7a 	bl	8000220 <memchr>
 800832c:	9a04      	ldr	r2, [sp, #16]
 800832e:	b9d8      	cbnz	r0, 8008368 <_vfiprintf_r+0x12c>
 8008330:	06d1      	lsls	r1, r2, #27
 8008332:	bf44      	itt	mi
 8008334:	2320      	movmi	r3, #32
 8008336:	f88d 3053 	strbmi.w	r3, [sp, #83]	; 0x53
 800833a:	0713      	lsls	r3, r2, #28
 800833c:	bf44      	itt	mi
 800833e:	232b      	movmi	r3, #43	; 0x2b
 8008340:	f88d 3053 	strbmi.w	r3, [sp, #83]	; 0x53
 8008344:	f89a 3000 	ldrb.w	r3, [sl]
 8008348:	2b2a      	cmp	r3, #42	; 0x2a
 800834a:	d015      	beq.n	8008378 <_vfiprintf_r+0x13c>
 800834c:	9a07      	ldr	r2, [sp, #28]
 800834e:	4654      	mov	r4, sl
 8008350:	2000      	movs	r0, #0
 8008352:	f04f 0c0a 	mov.w	ip, #10
 8008356:	4621      	mov	r1, r4
 8008358:	f811 3b01 	ldrb.w	r3, [r1], #1
 800835c:	3b30      	subs	r3, #48	; 0x30
 800835e:	2b09      	cmp	r3, #9
 8008360:	d94e      	bls.n	8008400 <_vfiprintf_r+0x1c4>
 8008362:	b1b0      	cbz	r0, 8008392 <_vfiprintf_r+0x156>
 8008364:	9207      	str	r2, [sp, #28]
 8008366:	e014      	b.n	8008392 <_vfiprintf_r+0x156>
 8008368:	eba0 0308 	sub.w	r3, r0, r8
 800836c:	fa09 f303 	lsl.w	r3, r9, r3
 8008370:	4313      	orrs	r3, r2
 8008372:	9304      	str	r3, [sp, #16]
 8008374:	46a2      	mov	sl, r4
 8008376:	e7d2      	b.n	800831e <_vfiprintf_r+0xe2>
 8008378:	9b03      	ldr	r3, [sp, #12]
 800837a:	1d19      	adds	r1, r3, #4
 800837c:	681b      	ldr	r3, [r3, #0]
 800837e:	9103      	str	r1, [sp, #12]
 8008380:	2b00      	cmp	r3, #0
 8008382:	bfbb      	ittet	lt
 8008384:	425b      	neglt	r3, r3
 8008386:	f042 0202 	orrlt.w	r2, r2, #2
 800838a:	9307      	strge	r3, [sp, #28]
 800838c:	9307      	strlt	r3, [sp, #28]
 800838e:	bfb8      	it	lt
 8008390:	9204      	strlt	r2, [sp, #16]
 8008392:	7823      	ldrb	r3, [r4, #0]
 8008394:	2b2e      	cmp	r3, #46	; 0x2e
 8008396:	d10c      	bne.n	80083b2 <_vfiprintf_r+0x176>
 8008398:	7863      	ldrb	r3, [r4, #1]
 800839a:	2b2a      	cmp	r3, #42	; 0x2a
 800839c:	d135      	bne.n	800840a <_vfiprintf_r+0x1ce>
 800839e:	9b03      	ldr	r3, [sp, #12]
 80083a0:	1d1a      	adds	r2, r3, #4
 80083a2:	681b      	ldr	r3, [r3, #0]
 80083a4:	9203      	str	r2, [sp, #12]
 80083a6:	2b00      	cmp	r3, #0
 80083a8:	bfb8      	it	lt
 80083aa:	f04f 33ff 	movlt.w	r3, #4294967295	; 0xffffffff
 80083ae:	3402      	adds	r4, #2
 80083b0:	9305      	str	r3, [sp, #20]
 80083b2:	f8df a0e4 	ldr.w	sl, [pc, #228]	; 8008498 <_vfiprintf_r+0x25c>
 80083b6:	7821      	ldrb	r1, [r4, #0]
 80083b8:	2203      	movs	r2, #3
 80083ba:	4650      	mov	r0, sl
 80083bc:	f7f7 ff30 	bl	8000220 <memchr>
 80083c0:	b140      	cbz	r0, 80083d4 <_vfiprintf_r+0x198>
 80083c2:	2340      	movs	r3, #64	; 0x40
 80083c4:	eba0 000a 	sub.w	r0, r0, sl
 80083c8:	fa03 f000 	lsl.w	r0, r3, r0
 80083cc:	9b04      	ldr	r3, [sp, #16]
 80083ce:	4303      	orrs	r3, r0
 80083d0:	3401      	adds	r4, #1
 80083d2:	9304      	str	r3, [sp, #16]
 80083d4:	f814 1b01 	ldrb.w	r1, [r4], #1
 80083d8:	482c      	ldr	r0, [pc, #176]	; (800848c <_vfiprintf_r+0x250>)
 80083da:	f88d 1028 	strb.w	r1, [sp, #40]	; 0x28
 80083de:	2206      	movs	r2, #6
 80083e0:	f7f7 ff1e 	bl	8000220 <memchr>
 80083e4:	2800      	cmp	r0, #0
 80083e6:	d03f      	beq.n	8008468 <_vfiprintf_r+0x22c>
 80083e8:	4b29      	ldr	r3, [pc, #164]	; (8008490 <_vfiprintf_r+0x254>)
 80083ea:	bb1b      	cbnz	r3, 8008434 <_vfiprintf_r+0x1f8>
 80083ec:	9b03      	ldr	r3, [sp, #12]
 80083ee:	3307      	adds	r3, #7
 80083f0:	f023 0307 	bic.w	r3, r3, #7
 80083f4:	3308      	adds	r3, #8
 80083f6:	9303      	str	r3, [sp, #12]
 80083f8:	9b09      	ldr	r3, [sp, #36]	; 0x24
 80083fa:	443b      	add	r3, r7
 80083fc:	9309      	str	r3, [sp, #36]	; 0x24
 80083fe:	e767      	b.n	80082d0 <_vfiprintf_r+0x94>
 8008400:	fb0c 3202 	mla	r2, ip, r2, r3
 8008404:	460c      	mov	r4, r1
 8008406:	2001      	movs	r0, #1
 8008408:	e7a5      	b.n	8008356 <_vfiprintf_r+0x11a>
 800840a:	2300      	movs	r3, #0
 800840c:	3401      	adds	r4, #1
 800840e:	9305      	str	r3, [sp, #20]
 8008410:	4619      	mov	r1, r3
 8008412:	f04f 0c0a 	mov.w	ip, #10
 8008416:	4620      	mov	r0, r4
 8008418:	f810 2b01 	ldrb.w	r2, [r0], #1
 800841c:	3a30      	subs	r2, #48	; 0x30
 800841e:	2a09      	cmp	r2, #9
 8008420:	d903      	bls.n	800842a <_vfiprintf_r+0x1ee>
 8008422:	2b00      	cmp	r3, #0
 8008424:	d0c5      	beq.n	80083b2 <_vfiprintf_r+0x176>
 8008426:	9105      	str	r1, [sp, #20]
 8008428:	e7c3      	b.n	80083b2 <_vfiprintf_r+0x176>
 800842a:	fb0c 2101 	mla	r1, ip, r1, r2
 800842e:	4604      	mov	r4, r0
 8008430:	2301      	movs	r3, #1
 8008432:	e7f0      	b.n	8008416 <_vfiprintf_r+0x1da>
 8008434:	ab03      	add	r3, sp, #12
 8008436:	9300      	str	r3, [sp, #0]
 8008438:	462a      	mov	r2, r5
 800843a:	4b16      	ldr	r3, [pc, #88]	; (8008494 <_vfiprintf_r+0x258>)
 800843c:	a904      	add	r1, sp, #16
 800843e:	4630      	mov	r0, r6
 8008440:	f7fd fe22 	bl	8006088 <_printf_float>
 8008444:	4607      	mov	r7, r0
 8008446:	1c78      	adds	r0, r7, #1
 8008448:	d1d6      	bne.n	80083f8 <_vfiprintf_r+0x1bc>
 800844a:	6e6b      	ldr	r3, [r5, #100]	; 0x64
 800844c:	07d9      	lsls	r1, r3, #31
 800844e:	d405      	bmi.n	800845c <_vfiprintf_r+0x220>
 8008450:	89ab      	ldrh	r3, [r5, #12]
 8008452:	059a      	lsls	r2, r3, #22
 8008454:	d402      	bmi.n	800845c <_vfiprintf_r+0x220>
 8008456:	6da8      	ldr	r0, [r5, #88]	; 0x58
 8008458:	f000 faaf 	bl	80089ba <__retarget_lock_release_recursive>
 800845c:	89ab      	ldrh	r3, [r5, #12]
 800845e:	065b      	lsls	r3, r3, #25
 8008460:	f53f af12 	bmi.w	8008288 <_vfiprintf_r+0x4c>
 8008464:	9809      	ldr	r0, [sp, #36]	; 0x24
 8008466:	e711      	b.n	800828c <_vfiprintf_r+0x50>
 8008468:	ab03      	add	r3, sp, #12
 800846a:	9300      	str	r3, [sp, #0]
 800846c:	462a      	mov	r2, r5
 800846e:	4b09      	ldr	r3, [pc, #36]	; (8008494 <_vfiprintf_r+0x258>)
 8008470:	a904      	add	r1, sp, #16
 8008472:	4630      	mov	r0, r6
 8008474:	f7fe f8ac 	bl	80065d0 <_printf_i>
 8008478:	e7e4      	b.n	8008444 <_vfiprintf_r+0x208>
 800847a:	bf00      	nop
 800847c:	080090d4 	.word	0x080090d4
 8008480:	080090f4 	.word	0x080090f4
 8008484:	080090b4 	.word	0x080090b4
 8008488:	08008f5c 	.word	0x08008f5c
 800848c:	08008f66 	.word	0x08008f66
 8008490:	08006089 	.word	0x08006089
 8008494:	08008217 	.word	0x08008217
 8008498:	08008f62 	.word	0x08008f62

0800849c <__swbuf_r>:
 800849c:	b5f8      	push	{r3, r4, r5, r6, r7, lr}
 800849e:	460e      	mov	r6, r1
 80084a0:	4614      	mov	r4, r2
 80084a2:	4605      	mov	r5, r0
 80084a4:	b118      	cbz	r0, 80084ae <__swbuf_r+0x12>
 80084a6:	6983      	ldr	r3, [r0, #24]
 80084a8:	b90b      	cbnz	r3, 80084ae <__swbuf_r+0x12>
 80084aa:	f000 f9e7 	bl	800887c <__sinit>
 80084ae:	4b21      	ldr	r3, [pc, #132]	; (8008534 <__swbuf_r+0x98>)
 80084b0:	429c      	cmp	r4, r3
 80084b2:	d12b      	bne.n	800850c <__swbuf_r+0x70>
 80084b4:	686c      	ldr	r4, [r5, #4]
 80084b6:	69a3      	ldr	r3, [r4, #24]
 80084b8:	60a3      	str	r3, [r4, #8]
 80084ba:	89a3      	ldrh	r3, [r4, #12]
 80084bc:	071a      	lsls	r2, r3, #28
 80084be:	d52f      	bpl.n	8008520 <__swbuf_r+0x84>
 80084c0:	6923      	ldr	r3, [r4, #16]
 80084c2:	b36b      	cbz	r3, 8008520 <__swbuf_r+0x84>
 80084c4:	6923      	ldr	r3, [r4, #16]
 80084c6:	6820      	ldr	r0, [r4, #0]
 80084c8:	1ac0      	subs	r0, r0, r3
 80084ca:	6963      	ldr	r3, [r4, #20]
 80084cc:	b2f6      	uxtb	r6, r6
 80084ce:	4283      	cmp	r3, r0
 80084d0:	4637      	mov	r7, r6
 80084d2:	dc04      	bgt.n	80084de <__swbuf_r+0x42>
 80084d4:	4621      	mov	r1, r4
 80084d6:	4628      	mov	r0, r5
 80084d8:	f000 f93c 	bl	8008754 <_fflush_r>
 80084dc:	bb30      	cbnz	r0, 800852c <__swbuf_r+0x90>
 80084de:	68a3      	ldr	r3, [r4, #8]
 80084e0:	3b01      	subs	r3, #1
 80084e2:	60a3      	str	r3, [r4, #8]
 80084e4:	6823      	ldr	r3, [r4, #0]
 80084e6:	1c5a      	adds	r2, r3, #1
 80084e8:	6022      	str	r2, [r4, #0]
 80084ea:	701e      	strb	r6, [r3, #0]
 80084ec:	6963      	ldr	r3, [r4, #20]
 80084ee:	3001      	adds	r0, #1
 80084f0:	4283      	cmp	r3, r0
 80084f2:	d004      	beq.n	80084fe <__swbuf_r+0x62>
 80084f4:	89a3      	ldrh	r3, [r4, #12]
 80084f6:	07db      	lsls	r3, r3, #31
 80084f8:	d506      	bpl.n	8008508 <__swbuf_r+0x6c>
 80084fa:	2e0a      	cmp	r6, #10
 80084fc:	d104      	bne.n	8008508 <__swbuf_r+0x6c>
 80084fe:	4621      	mov	r1, r4
 8008500:	4628      	mov	r0, r5
 8008502:	f000 f927 	bl	8008754 <_fflush_r>
 8008506:	b988      	cbnz	r0, 800852c <__swbuf_r+0x90>
 8008508:	4638      	mov	r0, r7
 800850a:	bdf8      	pop	{r3, r4, r5, r6, r7, pc}
 800850c:	4b0a      	ldr	r3, [pc, #40]	; (8008538 <__swbuf_r+0x9c>)
 800850e:	429c      	cmp	r4, r3
 8008510:	d101      	bne.n	8008516 <__swbuf_r+0x7a>
 8008512:	68ac      	ldr	r4, [r5, #8]
 8008514:	e7cf      	b.n	80084b6 <__swbuf_r+0x1a>
 8008516:	4b09      	ldr	r3, [pc, #36]	; (800853c <__swbuf_r+0xa0>)
 8008518:	429c      	cmp	r4, r3
 800851a:	bf08      	it	eq
 800851c:	68ec      	ldreq	r4, [r5, #12]
 800851e:	e7ca      	b.n	80084b6 <__swbuf_r+0x1a>
 8008520:	4621      	mov	r1, r4
 8008522:	4628      	mov	r0, r5
 8008524:	f000 f81a 	bl	800855c <__swsetup_r>
 8008528:	2800      	cmp	r0, #0
 800852a:	d0cb      	beq.n	80084c4 <__swbuf_r+0x28>
 800852c:	f04f 37ff 	mov.w	r7, #4294967295	; 0xffffffff
 8008530:	e7ea      	b.n	8008508 <__swbuf_r+0x6c>
 8008532:	bf00      	nop
 8008534:	080090d4 	.word	0x080090d4
 8008538:	080090f4 	.word	0x080090f4
 800853c:	080090b4 	.word	0x080090b4

08008540 <__ascii_wctomb>:
 8008540:	b149      	cbz	r1, 8008556 <__ascii_wctomb+0x16>
 8008542:	2aff      	cmp	r2, #255	; 0xff
 8008544:	bf85      	ittet	hi
 8008546:	238a      	movhi	r3, #138	; 0x8a
 8008548:	6003      	strhi	r3, [r0, #0]
 800854a:	700a      	strbls	r2, [r1, #0]
 800854c:	f04f 30ff 	movhi.w	r0, #4294967295	; 0xffffffff
 8008550:	bf98      	it	ls
 8008552:	2001      	movls	r0, #1
 8008554:	4770      	bx	lr
 8008556:	4608      	mov	r0, r1
 8008558:	4770      	bx	lr
	...

0800855c <__swsetup_r>:
 800855c:	4b32      	ldr	r3, [pc, #200]	; (8008628 <__swsetup_r+0xcc>)
 800855e:	b570      	push	{r4, r5, r6, lr}
 8008560:	681d      	ldr	r5, [r3, #0]
 8008562:	4606      	mov	r6, r0
 8008564:	460c      	mov	r4, r1
 8008566:	b125      	cbz	r5, 8008572 <__swsetup_r+0x16>
 8008568:	69ab      	ldr	r3, [r5, #24]
 800856a:	b913      	cbnz	r3, 8008572 <__swsetup_r+0x16>
 800856c:	4628      	mov	r0, r5
 800856e:	f000 f985 	bl	800887c <__sinit>
 8008572:	4b2e      	ldr	r3, [pc, #184]	; (800862c <__swsetup_r+0xd0>)
 8008574:	429c      	cmp	r4, r3
 8008576:	d10f      	bne.n	8008598 <__swsetup_r+0x3c>
 8008578:	686c      	ldr	r4, [r5, #4]
 800857a:	89a3      	ldrh	r3, [r4, #12]
 800857c:	f9b4 200c 	ldrsh.w	r2, [r4, #12]
 8008580:	0719      	lsls	r1, r3, #28
 8008582:	d42c      	bmi.n	80085de <__swsetup_r+0x82>
 8008584:	06dd      	lsls	r5, r3, #27
 8008586:	d411      	bmi.n	80085ac <__swsetup_r+0x50>
 8008588:	2309      	movs	r3, #9
 800858a:	6033      	str	r3, [r6, #0]
 800858c:	f042 0340 	orr.w	r3, r2, #64	; 0x40
 8008590:	81a3      	strh	r3, [r4, #12]
 8008592:	f04f 30ff 	mov.w	r0, #4294967295	; 0xffffffff
 8008596:	e03e      	b.n	8008616 <__swsetup_r+0xba>
 8008598:	4b25      	ldr	r3, [pc, #148]	; (8008630 <__swsetup_r+0xd4>)
 800859a:	429c      	cmp	r4, r3
 800859c:	d101      	bne.n	80085a2 <__swsetup_r+0x46>
 800859e:	68ac      	ldr	r4, [r5, #8]
 80085a0:	e7eb      	b.n	800857a <__swsetup_r+0x1e>
 80085a2:	4b24      	ldr	r3, [pc, #144]	; (8008634 <__swsetup_r+0xd8>)
 80085a4:	429c      	cmp	r4, r3
 80085a6:	bf08      	it	eq
 80085a8:	68ec      	ldreq	r4, [r5, #12]
 80085aa:	e7e6      	b.n	800857a <__swsetup_r+0x1e>
 80085ac:	0758      	lsls	r0, r3, #29
 80085ae:	d512      	bpl.n	80085d6 <__swsetup_r+0x7a>
 80085b0:	6b61      	ldr	r1, [r4, #52]	; 0x34
 80085b2:	b141      	cbz	r1, 80085c6 <__swsetup_r+0x6a>
 80085b4:	f104 0344 	add.w	r3, r4, #68	; 0x44
 80085b8:	4299      	cmp	r1, r3
 80085ba:	d002      	beq.n	80085c2 <__swsetup_r+0x66>
 80085bc:	4630      	mov	r0, r6
 80085be:	f7ff fb6f 	bl	8007ca0 <_free_r>
 80085c2:	2300      	movs	r3, #0
 80085c4:	6363      	str	r3, [r4, #52]	; 0x34
 80085c6:	89a3      	ldrh	r3, [r4, #12]
 80085c8:	f023 0324 	bic.w	r3, r3, #36	; 0x24
 80085cc:	81a3      	strh	r3, [r4, #12]
 80085ce:	2300      	movs	r3, #0
 80085d0:	6063      	str	r3, [r4, #4]
 80085d2:	6923      	ldr	r3, [r4, #16]
 80085d4:	6023      	str	r3, [r4, #0]
 80085d6:	89a3      	ldrh	r3, [r4, #12]
 80085d8:	f043 0308 	orr.w	r3, r3, #8
 80085dc:	81a3      	strh	r3, [r4, #12]
 80085de:	6923      	ldr	r3, [r4, #16]
 80085e0:	b94b      	cbnz	r3, 80085f6 <__swsetup_r+0x9a>
 80085e2:	89a3      	ldrh	r3, [r4, #12]
 80085e4:	f403 7320 	and.w	r3, r3, #640	; 0x280
 80085e8:	f5b3 7f00 	cmp.w	r3, #512	; 0x200
 80085ec:	d003      	beq.n	80085f6 <__swsetup_r+0x9a>
 80085ee:	4621      	mov	r1, r4
 80085f0:	4630      	mov	r0, r6
 80085f2:	f000 fa07 	bl	8008a04 <__smakebuf_r>
 80085f6:	89a0      	ldrh	r0, [r4, #12]
 80085f8:	f9b4 200c 	ldrsh.w	r2, [r4, #12]
 80085fc:	f010 0301 	ands.w	r3, r0, #1
 8008600:	d00a      	beq.n	8008618 <__swsetup_r+0xbc>
 8008602:	2300      	movs	r3, #0
 8008604:	60a3      	str	r3, [r4, #8]
 8008606:	6963      	ldr	r3, [r4, #20]
 8008608:	425b      	negs	r3, r3
 800860a:	61a3      	str	r3, [r4, #24]
 800860c:	6923      	ldr	r3, [r4, #16]
 800860e:	b943      	cbnz	r3, 8008622 <__swsetup_r+0xc6>
 8008610:	f010 0080 	ands.w	r0, r0, #128	; 0x80
 8008614:	d1ba      	bne.n	800858c <__swsetup_r+0x30>
 8008616:	bd70      	pop	{r4, r5, r6, pc}
 8008618:	0781      	lsls	r1, r0, #30
 800861a:	bf58      	it	pl
 800861c:	6963      	ldrpl	r3, [r4, #20]
 800861e:	60a3      	str	r3, [r4, #8]
 8008620:	e7f4      	b.n	800860c <__swsetup_r+0xb0>
 8008622:	2000      	movs	r0, #0
 8008624:	e7f7      	b.n	8008616 <__swsetup_r+0xba>
 8008626:	bf00      	nop
 8008628:	20000028 	.word	0x20000028
 800862c:	080090d4 	.word	0x080090d4
 8008630:	080090f4 	.word	0x080090f4
 8008634:	080090b4 	.word	0x080090b4

08008638 <abort>:
 8008638:	b508      	push	{r3, lr}
 800863a:	2006      	movs	r0, #6
 800863c:	f000 fa52 	bl	8008ae4 <raise>
 8008640:	2001      	movs	r0, #1
 8008642:	f7f9 fe6f 	bl	8002324 <_exit>
	...

08008648 <__sflush_r>:
 8008648:	898a      	ldrh	r2, [r1, #12]
 800864a:	e92d 41f0 	stmdb	sp!, {r4, r5, r6, r7, r8, lr}
 800864e:	4605      	mov	r5, r0
 8008650:	0710      	lsls	r0, r2, #28
 8008652:	460c      	mov	r4, r1
 8008654:	d458      	bmi.n	8008708 <__sflush_r+0xc0>
 8008656:	684b      	ldr	r3, [r1, #4]
 8008658:	2b00      	cmp	r3, #0
 800865a:	dc05      	bgt.n	8008668 <__sflush_r+0x20>
 800865c:	6c0b      	ldr	r3, [r1, #64]	; 0x40
 800865e:	2b00      	cmp	r3, #0
 8008660:	dc02      	bgt.n	8008668 <__sflush_r+0x20>
 8008662:	2000      	movs	r0, #0
 8008664:	e8bd 81f0 	ldmia.w	sp!, {r4, r5, r6, r7, r8, pc}
 8008668:	6ae6      	ldr	r6, [r4, #44]	; 0x2c
 800866a:	2e00      	cmp	r6, #0
 800866c:	d0f9      	beq.n	8008662 <__sflush_r+0x1a>
 800866e:	2300      	movs	r3, #0
 8008670:	f412 5280 	ands.w	r2, r2, #4096	; 0x1000
 8008674:	682f      	ldr	r7, [r5, #0]
 8008676:	602b      	str	r3, [r5, #0]
 8008678:	d032      	beq.n	80086e0 <__sflush_r+0x98>
 800867a:	6d60      	ldr	r0, [r4, #84]	; 0x54
 800867c:	89a3      	ldrh	r3, [r4, #12]
 800867e:	075a      	lsls	r2, r3, #29
 8008680:	d505      	bpl.n	800868e <__sflush_r+0x46>
 8008682:	6863      	ldr	r3, [r4, #4]
 8008684:	1ac0      	subs	r0, r0, r3
 8008686:	6b63      	ldr	r3, [r4, #52]	; 0x34
 8008688:	b10b      	cbz	r3, 800868e <__sflush_r+0x46>
 800868a:	6c23      	ldr	r3, [r4, #64]	; 0x40
 800868c:	1ac0      	subs	r0, r0, r3
 800868e:	2300      	movs	r3, #0
 8008690:	4602      	mov	r2, r0
 8008692:	6ae6      	ldr	r6, [r4, #44]	; 0x2c
 8008694:	6a21      	ldr	r1, [r4, #32]
 8008696:	4628      	mov	r0, r5
 8008698:	47b0      	blx	r6
 800869a:	1c43      	adds	r3, r0, #1
 800869c:	89a3      	ldrh	r3, [r4, #12]
 800869e:	d106      	bne.n	80086ae <__sflush_r+0x66>
 80086a0:	6829      	ldr	r1, [r5, #0]
 80086a2:	291d      	cmp	r1, #29
 80086a4:	d82c      	bhi.n	8008700 <__sflush_r+0xb8>
 80086a6:	4a2a      	ldr	r2, [pc, #168]	; (8008750 <__sflush_r+0x108>)
 80086a8:	40ca      	lsrs	r2, r1
 80086aa:	07d6      	lsls	r6, r2, #31
 80086ac:	d528      	bpl.n	8008700 <__sflush_r+0xb8>
 80086ae:	2200      	movs	r2, #0
 80086b0:	6062      	str	r2, [r4, #4]
 80086b2:	04d9      	lsls	r1, r3, #19
 80086b4:	6922      	ldr	r2, [r4, #16]
 80086b6:	6022      	str	r2, [r4, #0]
 80086b8:	d504      	bpl.n	80086c4 <__sflush_r+0x7c>
 80086ba:	1c42      	adds	r2, r0, #1
 80086bc:	d101      	bne.n	80086c2 <__sflush_r+0x7a>
 80086be:	682b      	ldr	r3, [r5, #0]
 80086c0:	b903      	cbnz	r3, 80086c4 <__sflush_r+0x7c>
 80086c2:	6560      	str	r0, [r4, #84]	; 0x54
 80086c4:	6b61      	ldr	r1, [r4, #52]	; 0x34
 80086c6:	602f      	str	r7, [r5, #0]
 80086c8:	2900      	cmp	r1, #0
 80086ca:	d0ca      	beq.n	8008662 <__sflush_r+0x1a>
 80086cc:	f104 0344 	add.w	r3, r4, #68	; 0x44
 80086d0:	4299      	cmp	r1, r3
 80086d2:	d002      	beq.n	80086da <__sflush_r+0x92>
 80086d4:	4628      	mov	r0, r5
 80086d6:	f7ff fae3 	bl	8007ca0 <_free_r>
 80086da:	2000      	movs	r0, #0
 80086dc:	6360      	str	r0, [r4, #52]	; 0x34
 80086de:	e7c1      	b.n	8008664 <__sflush_r+0x1c>
 80086e0:	6a21      	ldr	r1, [r4, #32]
 80086e2:	2301      	movs	r3, #1
 80086e4:	4628      	mov	r0, r5
 80086e6:	47b0      	blx	r6
 80086e8:	1c41      	adds	r1, r0, #1
 80086ea:	d1c7      	bne.n	800867c <__sflush_r+0x34>
 80086ec:	682b      	ldr	r3, [r5, #0]
 80086ee:	2b00      	cmp	r3, #0
 80086f0:	d0c4      	beq.n	800867c <__sflush_r+0x34>
 80086f2:	2b1d      	cmp	r3, #29
 80086f4:	d001      	beq.n	80086fa <__sflush_r+0xb2>
 80086f6:	2b16      	cmp	r3, #22
 80086f8:	d101      	bne.n	80086fe <__sflush_r+0xb6>
 80086fa:	602f      	str	r7, [r5, #0]
 80086fc:	e7b1      	b.n	8008662 <__sflush_r+0x1a>
 80086fe:	89a3      	ldrh	r3, [r4, #12]
 8008700:	f043 0340 	orr.w	r3, r3, #64	; 0x40
 8008704:	81a3      	strh	r3, [r4, #12]
 8008706:	e7ad      	b.n	8008664 <__sflush_r+0x1c>
 8008708:	690f      	ldr	r7, [r1, #16]
 800870a:	2f00      	cmp	r7, #0
 800870c:	d0a9      	beq.n	8008662 <__sflush_r+0x1a>
 800870e:	0793      	lsls	r3, r2, #30
 8008710:	680e      	ldr	r6, [r1, #0]
 8008712:	bf08      	it	eq
 8008714:	694b      	ldreq	r3, [r1, #20]
 8008716:	600f      	str	r7, [r1, #0]
 8008718:	bf18      	it	ne
 800871a:	2300      	movne	r3, #0
 800871c:	eba6 0807 	sub.w	r8, r6, r7
 8008720:	608b      	str	r3, [r1, #8]
 8008722:	f1b8 0f00 	cmp.w	r8, #0
 8008726:	dd9c      	ble.n	8008662 <__sflush_r+0x1a>
 8008728:	6a21      	ldr	r1, [r4, #32]
 800872a:	6aa6      	ldr	r6, [r4, #40]	; 0x28
 800872c:	4643      	mov	r3, r8
 800872e:	463a      	mov	r2, r7
 8008730:	4628      	mov	r0, r5
 8008732:	47b0      	blx	r6
 8008734:	2800      	cmp	r0, #0
 8008736:	dc06      	bgt.n	8008746 <__sflush_r+0xfe>
 8008738:	89a3      	ldrh	r3, [r4, #12]
 800873a:	f043 0340 	orr.w	r3, r3, #64	; 0x40
 800873e:	81a3      	strh	r3, [r4, #12]
 8008740:	f04f 30ff 	mov.w	r0, #4294967295	; 0xffffffff
 8008744:	e78e      	b.n	8008664 <__sflush_r+0x1c>
 8008746:	4407      	add	r7, r0
 8008748:	eba8 0800 	sub.w	r8, r8, r0
 800874c:	e7e9      	b.n	8008722 <__sflush_r+0xda>
 800874e:	bf00      	nop
 8008750:	20400001 	.word	0x20400001

08008754 <_fflush_r>:
 8008754:	b538      	push	{r3, r4, r5, lr}
 8008756:	690b      	ldr	r3, [r1, #16]
 8008758:	4605      	mov	r5, r0
 800875a:	460c      	mov	r4, r1
 800875c:	b913      	cbnz	r3, 8008764 <_fflush_r+0x10>
 800875e:	2500      	movs	r5, #0
 8008760:	4628      	mov	r0, r5
 8008762:	bd38      	pop	{r3, r4, r5, pc}
 8008764:	b118      	cbz	r0, 800876e <_fflush_r+0x1a>
 8008766:	6983      	ldr	r3, [r0, #24]
 8008768:	b90b      	cbnz	r3, 800876e <_fflush_r+0x1a>
 800876a:	f000 f887 	bl	800887c <__sinit>
 800876e:	4b14      	ldr	r3, [pc, #80]	; (80087c0 <_fflush_r+0x6c>)
 8008770:	429c      	cmp	r4, r3
 8008772:	d11b      	bne.n	80087ac <_fflush_r+0x58>
 8008774:	686c      	ldr	r4, [r5, #4]
 8008776:	f9b4 300c 	ldrsh.w	r3, [r4, #12]
 800877a:	2b00      	cmp	r3, #0
 800877c:	d0ef      	beq.n	800875e <_fflush_r+0xa>
 800877e:	6e62      	ldr	r2, [r4, #100]	; 0x64
 8008780:	07d0      	lsls	r0, r2, #31
 8008782:	d404      	bmi.n	800878e <_fflush_r+0x3a>
 8008784:	0599      	lsls	r1, r3, #22
 8008786:	d402      	bmi.n	800878e <_fflush_r+0x3a>
 8008788:	6da0      	ldr	r0, [r4, #88]	; 0x58
 800878a:	f000 f915 	bl	80089b8 <__retarget_lock_acquire_recursive>
 800878e:	4628      	mov	r0, r5
 8008790:	4621      	mov	r1, r4
 8008792:	f7ff ff59 	bl	8008648 <__sflush_r>
 8008796:	6e63      	ldr	r3, [r4, #100]	; 0x64
 8008798:	07da      	lsls	r2, r3, #31
 800879a:	4605      	mov	r5, r0
 800879c:	d4e0      	bmi.n	8008760 <_fflush_r+0xc>
 800879e:	89a3      	ldrh	r3, [r4, #12]
 80087a0:	059b      	lsls	r3, r3, #22
 80087a2:	d4dd      	bmi.n	8008760 <_fflush_r+0xc>
 80087a4:	6da0      	ldr	r0, [r4, #88]	; 0x58
 80087a6:	f000 f908 	bl	80089ba <__retarget_lock_release_recursive>
 80087aa:	e7d9      	b.n	8008760 <_fflush_r+0xc>
 80087ac:	4b05      	ldr	r3, [pc, #20]	; (80087c4 <_fflush_r+0x70>)
 80087ae:	429c      	cmp	r4, r3
 80087b0:	d101      	bne.n	80087b6 <_fflush_r+0x62>
 80087b2:	68ac      	ldr	r4, [r5, #8]
 80087b4:	e7df      	b.n	8008776 <_fflush_r+0x22>
 80087b6:	4b04      	ldr	r3, [pc, #16]	; (80087c8 <_fflush_r+0x74>)
 80087b8:	429c      	cmp	r4, r3
 80087ba:	bf08      	it	eq
 80087bc:	68ec      	ldreq	r4, [r5, #12]
 80087be:	e7da      	b.n	8008776 <_fflush_r+0x22>
 80087c0:	080090d4 	.word	0x080090d4
 80087c4:	080090f4 	.word	0x080090f4
 80087c8:	080090b4 	.word	0x080090b4

080087cc <std>:
 80087cc:	2300      	movs	r3, #0
 80087ce:	b510      	push	{r4, lr}
 80087d0:	4604      	mov	r4, r0
 80087d2:	e9c0 3300 	strd	r3, r3, [r0]
 80087d6:	e9c0 3304 	strd	r3, r3, [r0, #16]
 80087da:	6083      	str	r3, [r0, #8]
 80087dc:	8181      	strh	r1, [r0, #12]
 80087de:	6643      	str	r3, [r0, #100]	; 0x64
 80087e0:	81c2      	strh	r2, [r0, #14]
 80087e2:	6183      	str	r3, [r0, #24]
 80087e4:	4619      	mov	r1, r3
 80087e6:	2208      	movs	r2, #8
 80087e8:	305c      	adds	r0, #92	; 0x5c
 80087ea:	f7fd fba5 	bl	8005f38 <memset>
 80087ee:	4b05      	ldr	r3, [pc, #20]	; (8008804 <std+0x38>)
 80087f0:	6263      	str	r3, [r4, #36]	; 0x24
 80087f2:	4b05      	ldr	r3, [pc, #20]	; (8008808 <std+0x3c>)
 80087f4:	62a3      	str	r3, [r4, #40]	; 0x28
 80087f6:	4b05      	ldr	r3, [pc, #20]	; (800880c <std+0x40>)
 80087f8:	62e3      	str	r3, [r4, #44]	; 0x2c
 80087fa:	4b05      	ldr	r3, [pc, #20]	; (8008810 <std+0x44>)
 80087fc:	6224      	str	r4, [r4, #32]
 80087fe:	6323      	str	r3, [r4, #48]	; 0x30
 8008800:	bd10      	pop	{r4, pc}
 8008802:	bf00      	nop
 8008804:	08008b1d 	.word	0x08008b1d
 8008808:	08008b3f 	.word	0x08008b3f
 800880c:	08008b77 	.word	0x08008b77
 8008810:	08008b9b 	.word	0x08008b9b

08008814 <_cleanup_r>:
 8008814:	4901      	ldr	r1, [pc, #4]	; (800881c <_cleanup_r+0x8>)
 8008816:	f000 b8af 	b.w	8008978 <_fwalk_reent>
 800881a:	bf00      	nop
 800881c:	08008755 	.word	0x08008755

08008820 <__sfmoreglue>:
 8008820:	b570      	push	{r4, r5, r6, lr}
 8008822:	1e4a      	subs	r2, r1, #1
 8008824:	2568      	movs	r5, #104	; 0x68
 8008826:	4355      	muls	r5, r2
 8008828:	460e      	mov	r6, r1
 800882a:	f105 0174 	add.w	r1, r5, #116	; 0x74
 800882e:	f7ff fa87 	bl	8007d40 <_malloc_r>
 8008832:	4604      	mov	r4, r0
 8008834:	b140      	cbz	r0, 8008848 <__sfmoreglue+0x28>
 8008836:	2100      	movs	r1, #0
 8008838:	e9c0 1600 	strd	r1, r6, [r0]
 800883c:	300c      	adds	r0, #12
 800883e:	60a0      	str	r0, [r4, #8]
 8008840:	f105 0268 	add.w	r2, r5, #104	; 0x68
 8008844:	f7fd fb78 	bl	8005f38 <memset>
 8008848:	4620      	mov	r0, r4
 800884a:	bd70      	pop	{r4, r5, r6, pc}

0800884c <__sfp_lock_acquire>:
 800884c:	4801      	ldr	r0, [pc, #4]	; (8008854 <__sfp_lock_acquire+0x8>)
 800884e:	f000 b8b3 	b.w	80089b8 <__retarget_lock_acquire_recursive>
 8008852:	bf00      	nop
 8008854:	20000558 	.word	0x20000558

08008858 <__sfp_lock_release>:
 8008858:	4801      	ldr	r0, [pc, #4]	; (8008860 <__sfp_lock_release+0x8>)
 800885a:	f000 b8ae 	b.w	80089ba <__retarget_lock_release_recursive>
 800885e:	bf00      	nop
 8008860:	20000558 	.word	0x20000558

08008864 <__sinit_lock_acquire>:
 8008864:	4801      	ldr	r0, [pc, #4]	; (800886c <__sinit_lock_acquire+0x8>)
 8008866:	f000 b8a7 	b.w	80089b8 <__retarget_lock_acquire_recursive>
 800886a:	bf00      	nop
 800886c:	20000553 	.word	0x20000553

08008870 <__sinit_lock_release>:
 8008870:	4801      	ldr	r0, [pc, #4]	; (8008878 <__sinit_lock_release+0x8>)
 8008872:	f000 b8a2 	b.w	80089ba <__retarget_lock_release_recursive>
 8008876:	bf00      	nop
 8008878:	20000553 	.word	0x20000553

0800887c <__sinit>:
 800887c:	b510      	push	{r4, lr}
 800887e:	4604      	mov	r4, r0
 8008880:	f7ff fff0 	bl	8008864 <__sinit_lock_acquire>
 8008884:	69a3      	ldr	r3, [r4, #24]
 8008886:	b11b      	cbz	r3, 8008890 <__sinit+0x14>
 8008888:	e8bd 4010 	ldmia.w	sp!, {r4, lr}
 800888c:	f7ff bff0 	b.w	8008870 <__sinit_lock_release>
 8008890:	e9c4 3312 	strd	r3, r3, [r4, #72]	; 0x48
 8008894:	6523      	str	r3, [r4, #80]	; 0x50
 8008896:	4b13      	ldr	r3, [pc, #76]	; (80088e4 <__sinit+0x68>)
 8008898:	4a13      	ldr	r2, [pc, #76]	; (80088e8 <__sinit+0x6c>)
 800889a:	681b      	ldr	r3, [r3, #0]
 800889c:	62a2      	str	r2, [r4, #40]	; 0x28
 800889e:	42a3      	cmp	r3, r4
 80088a0:	bf04      	itt	eq
 80088a2:	2301      	moveq	r3, #1
 80088a4:	61a3      	streq	r3, [r4, #24]
 80088a6:	4620      	mov	r0, r4
 80088a8:	f000 f820 	bl	80088ec <__sfp>
 80088ac:	6060      	str	r0, [r4, #4]
 80088ae:	4620      	mov	r0, r4
 80088b0:	f000 f81c 	bl	80088ec <__sfp>
 80088b4:	60a0      	str	r0, [r4, #8]
 80088b6:	4620      	mov	r0, r4
 80088b8:	f000 f818 	bl	80088ec <__sfp>
 80088bc:	2200      	movs	r2, #0
 80088be:	60e0      	str	r0, [r4, #12]
 80088c0:	2104      	movs	r1, #4
 80088c2:	6860      	ldr	r0, [r4, #4]
 80088c4:	f7ff ff82 	bl	80087cc <std>
 80088c8:	68a0      	ldr	r0, [r4, #8]
 80088ca:	2201      	movs	r2, #1
 80088cc:	2109      	movs	r1, #9
 80088ce:	f7ff ff7d 	bl	80087cc <std>
 80088d2:	68e0      	ldr	r0, [r4, #12]
 80088d4:	2202      	movs	r2, #2
 80088d6:	2112      	movs	r1, #18
 80088d8:	f7ff ff78 	bl	80087cc <std>
 80088dc:	2301      	movs	r3, #1
 80088de:	61a3      	str	r3, [r4, #24]
 80088e0:	e7d2      	b.n	8008888 <__sinit+0xc>
 80088e2:	bf00      	nop
 80088e4:	08008d30 	.word	0x08008d30
 80088e8:	08008815 	.word	0x08008815

080088ec <__sfp>:
 80088ec:	b5f8      	push	{r3, r4, r5, r6, r7, lr}
 80088ee:	4607      	mov	r7, r0
 80088f0:	f7ff ffac 	bl	800884c <__sfp_lock_acquire>
 80088f4:	4b1e      	ldr	r3, [pc, #120]	; (8008970 <__sfp+0x84>)
 80088f6:	681e      	ldr	r6, [r3, #0]
 80088f8:	69b3      	ldr	r3, [r6, #24]
 80088fa:	b913      	cbnz	r3, 8008902 <__sfp+0x16>
 80088fc:	4630      	mov	r0, r6
 80088fe:	f7ff ffbd 	bl	800887c <__sinit>
 8008902:	3648      	adds	r6, #72	; 0x48
 8008904:	e9d6 3401 	ldrd	r3, r4, [r6, #4]
 8008908:	3b01      	subs	r3, #1
 800890a:	d503      	bpl.n	8008914 <__sfp+0x28>
 800890c:	6833      	ldr	r3, [r6, #0]
 800890e:	b30b      	cbz	r3, 8008954 <__sfp+0x68>
 8008910:	6836      	ldr	r6, [r6, #0]
 8008912:	e7f7      	b.n	8008904 <__sfp+0x18>
 8008914:	f9b4 500c 	ldrsh.w	r5, [r4, #12]
 8008918:	b9d5      	cbnz	r5, 8008950 <__sfp+0x64>
 800891a:	4b16      	ldr	r3, [pc, #88]	; (8008974 <__sfp+0x88>)
 800891c:	60e3      	str	r3, [r4, #12]
 800891e:	f104 0058 	add.w	r0, r4, #88	; 0x58
 8008922:	6665      	str	r5, [r4, #100]	; 0x64
 8008924:	f000 f847 	bl	80089b6 <__retarget_lock_init_recursive>
 8008928:	f7ff ff96 	bl	8008858 <__sfp_lock_release>
 800892c:	e9c4 5501 	strd	r5, r5, [r4, #4]
 8008930:	e9c4 5504 	strd	r5, r5, [r4, #16]
 8008934:	6025      	str	r5, [r4, #0]
 8008936:	61a5      	str	r5, [r4, #24]
 8008938:	2208      	movs	r2, #8
 800893a:	4629      	mov	r1, r5
 800893c:	f104 005c 	add.w	r0, r4, #92	; 0x5c
 8008940:	f7fd fafa 	bl	8005f38 <memset>
 8008944:	e9c4 550d 	strd	r5, r5, [r4, #52]	; 0x34
 8008948:	e9c4 5512 	strd	r5, r5, [r4, #72]	; 0x48
 800894c:	4620      	mov	r0, r4
 800894e:	bdf8      	pop	{r3, r4, r5, r6, r7, pc}
 8008950:	3468      	adds	r4, #104	; 0x68
 8008952:	e7d9      	b.n	8008908 <__sfp+0x1c>
 8008954:	2104      	movs	r1, #4
 8008956:	4638      	mov	r0, r7
 8008958:	f7ff ff62 	bl	8008820 <__sfmoreglue>
 800895c:	4604      	mov	r4, r0
 800895e:	6030      	str	r0, [r6, #0]
 8008960:	2800      	cmp	r0, #0
 8008962:	d1d5      	bne.n	8008910 <__sfp+0x24>
 8008964:	f7ff ff78 	bl	8008858 <__sfp_lock_release>
 8008968:	230c      	movs	r3, #12
 800896a:	603b      	str	r3, [r7, #0]
 800896c:	e7ee      	b.n	800894c <__sfp+0x60>
 800896e:	bf00      	nop
 8008970:	08008d30 	.word	0x08008d30
 8008974:	ffff0001 	.word	0xffff0001

08008978 <_fwalk_reent>:
 8008978:	e92d 43f8 	stmdb	sp!, {r3, r4, r5, r6, r7, r8, r9, lr}
 800897c:	4606      	mov	r6, r0
 800897e:	4688      	mov	r8, r1
 8008980:	f100 0448 	add.w	r4, r0, #72	; 0x48
 8008984:	2700      	movs	r7, #0
 8008986:	e9d4 9501 	ldrd	r9, r5, [r4, #4]
 800898a:	f1b9 0901 	subs.w	r9, r9, #1
 800898e:	d505      	bpl.n	800899c <_fwalk_reent+0x24>
 8008990:	6824      	ldr	r4, [r4, #0]
 8008992:	2c00      	cmp	r4, #0
 8008994:	d1f7      	bne.n	8008986 <_fwalk_reent+0xe>
 8008996:	4638      	mov	r0, r7
 8008998:	e8bd 83f8 	ldmia.w	sp!, {r3, r4, r5, r6, r7, r8, r9, pc}
 800899c:	89ab      	ldrh	r3, [r5, #12]
 800899e:	2b01      	cmp	r3, #1
 80089a0:	d907      	bls.n	80089b2 <_fwalk_reent+0x3a>
 80089a2:	f9b5 300e 	ldrsh.w	r3, [r5, #14]
 80089a6:	3301      	adds	r3, #1
 80089a8:	d003      	beq.n	80089b2 <_fwalk_reent+0x3a>
 80089aa:	4629      	mov	r1, r5
 80089ac:	4630      	mov	r0, r6
 80089ae:	47c0      	blx	r8
 80089b0:	4307      	orrs	r7, r0
 80089b2:	3568      	adds	r5, #104	; 0x68
 80089b4:	e7e9      	b.n	800898a <_fwalk_reent+0x12>

080089b6 <__retarget_lock_init_recursive>:
 80089b6:	4770      	bx	lr

080089b8 <__retarget_lock_acquire_recursive>:
 80089b8:	4770      	bx	lr

080089ba <__retarget_lock_release_recursive>:
 80089ba:	4770      	bx	lr

080089bc <__swhatbuf_r>:
 80089bc:	b570      	push	{r4, r5, r6, lr}
 80089be:	460e      	mov	r6, r1
 80089c0:	f9b1 100e 	ldrsh.w	r1, [r1, #14]
 80089c4:	2900      	cmp	r1, #0
 80089c6:	b096      	sub	sp, #88	; 0x58
 80089c8:	4614      	mov	r4, r2
 80089ca:	461d      	mov	r5, r3
 80089cc:	da07      	bge.n	80089de <__swhatbuf_r+0x22>
 80089ce:	2300      	movs	r3, #0
 80089d0:	602b      	str	r3, [r5, #0]
 80089d2:	89b3      	ldrh	r3, [r6, #12]
 80089d4:	061a      	lsls	r2, r3, #24
 80089d6:	d410      	bmi.n	80089fa <__swhatbuf_r+0x3e>
 80089d8:	f44f 6380 	mov.w	r3, #1024	; 0x400
 80089dc:	e00e      	b.n	80089fc <__swhatbuf_r+0x40>
 80089de:	466a      	mov	r2, sp
 80089e0:	f000 f902 	bl	8008be8 <_fstat_r>
 80089e4:	2800      	cmp	r0, #0
 80089e6:	dbf2      	blt.n	80089ce <__swhatbuf_r+0x12>
 80089e8:	9a01      	ldr	r2, [sp, #4]
 80089ea:	f402 4270 	and.w	r2, r2, #61440	; 0xf000
 80089ee:	f5a2 5300 	sub.w	r3, r2, #8192	; 0x2000
 80089f2:	425a      	negs	r2, r3
 80089f4:	415a      	adcs	r2, r3
 80089f6:	602a      	str	r2, [r5, #0]
 80089f8:	e7ee      	b.n	80089d8 <__swhatbuf_r+0x1c>
 80089fa:	2340      	movs	r3, #64	; 0x40
 80089fc:	2000      	movs	r0, #0
 80089fe:	6023      	str	r3, [r4, #0]
 8008a00:	b016      	add	sp, #88	; 0x58
 8008a02:	bd70      	pop	{r4, r5, r6, pc}

08008a04 <__smakebuf_r>:
 8008a04:	898b      	ldrh	r3, [r1, #12]
 8008a06:	b573      	push	{r0, r1, r4, r5, r6, lr}
 8008a08:	079d      	lsls	r5, r3, #30
 8008a0a:	4606      	mov	r6, r0
 8008a0c:	460c      	mov	r4, r1
 8008a0e:	d507      	bpl.n	8008a20 <__smakebuf_r+0x1c>
 8008a10:	f104 0347 	add.w	r3, r4, #71	; 0x47
 8008a14:	6023      	str	r3, [r4, #0]
 8008a16:	6123      	str	r3, [r4, #16]
 8008a18:	2301      	movs	r3, #1
 8008a1a:	6163      	str	r3, [r4, #20]
 8008a1c:	b002      	add	sp, #8
 8008a1e:	bd70      	pop	{r4, r5, r6, pc}
 8008a20:	ab01      	add	r3, sp, #4
 8008a22:	466a      	mov	r2, sp
 8008a24:	f7ff ffca 	bl	80089bc <__swhatbuf_r>
 8008a28:	9900      	ldr	r1, [sp, #0]
 8008a2a:	4605      	mov	r5, r0
 8008a2c:	4630      	mov	r0, r6
 8008a2e:	f7ff f987 	bl	8007d40 <_malloc_r>
 8008a32:	b948      	cbnz	r0, 8008a48 <__smakebuf_r+0x44>
 8008a34:	f9b4 300c 	ldrsh.w	r3, [r4, #12]
 8008a38:	059a      	lsls	r2, r3, #22
 8008a3a:	d4ef      	bmi.n	8008a1c <__smakebuf_r+0x18>
 8008a3c:	f023 0303 	bic.w	r3, r3, #3
 8008a40:	f043 0302 	orr.w	r3, r3, #2
 8008a44:	81a3      	strh	r3, [r4, #12]
 8008a46:	e7e3      	b.n	8008a10 <__smakebuf_r+0xc>
 8008a48:	4b0d      	ldr	r3, [pc, #52]	; (8008a80 <__smakebuf_r+0x7c>)
 8008a4a:	62b3      	str	r3, [r6, #40]	; 0x28
 8008a4c:	89a3      	ldrh	r3, [r4, #12]
 8008a4e:	6020      	str	r0, [r4, #0]
 8008a50:	f043 0380 	orr.w	r3, r3, #128	; 0x80
 8008a54:	81a3      	strh	r3, [r4, #12]
 8008a56:	9b00      	ldr	r3, [sp, #0]
 8008a58:	6163      	str	r3, [r4, #20]
 8008a5a:	9b01      	ldr	r3, [sp, #4]
 8008a5c:	6120      	str	r0, [r4, #16]
 8008a5e:	b15b      	cbz	r3, 8008a78 <__smakebuf_r+0x74>
 8008a60:	f9b4 100e 	ldrsh.w	r1, [r4, #14]
 8008a64:	4630      	mov	r0, r6
 8008a66:	f000 f8d1 	bl	8008c0c <_isatty_r>
 8008a6a:	b128      	cbz	r0, 8008a78 <__smakebuf_r+0x74>
 8008a6c:	89a3      	ldrh	r3, [r4, #12]
 8008a6e:	f023 0303 	bic.w	r3, r3, #3
 8008a72:	f043 0301 	orr.w	r3, r3, #1
 8008a76:	81a3      	strh	r3, [r4, #12]
 8008a78:	89a0      	ldrh	r0, [r4, #12]
 8008a7a:	4305      	orrs	r5, r0
 8008a7c:	81a5      	strh	r5, [r4, #12]
 8008a7e:	e7cd      	b.n	8008a1c <__smakebuf_r+0x18>
 8008a80:	08008815 	.word	0x08008815

08008a84 <_malloc_usable_size_r>:
 8008a84:	f851 3c04 	ldr.w	r3, [r1, #-4]
 8008a88:	1f18      	subs	r0, r3, #4
 8008a8a:	2b00      	cmp	r3, #0
 8008a8c:	bfbc      	itt	lt
 8008a8e:	580b      	ldrlt	r3, [r1, r0]
 8008a90:	18c0      	addlt	r0, r0, r3
 8008a92:	4770      	bx	lr

08008a94 <_raise_r>:
 8008a94:	291f      	cmp	r1, #31
 8008a96:	b538      	push	{r3, r4, r5, lr}
 8008a98:	4604      	mov	r4, r0
 8008a9a:	460d      	mov	r5, r1
 8008a9c:	d904      	bls.n	8008aa8 <_raise_r+0x14>
 8008a9e:	2316      	movs	r3, #22
 8008aa0:	6003      	str	r3, [r0, #0]
 8008aa2:	f04f 30ff 	mov.w	r0, #4294967295	; 0xffffffff
 8008aa6:	bd38      	pop	{r3, r4, r5, pc}
 8008aa8:	6c42      	ldr	r2, [r0, #68]	; 0x44
 8008aaa:	b112      	cbz	r2, 8008ab2 <_raise_r+0x1e>
 8008aac:	f852 3021 	ldr.w	r3, [r2, r1, lsl #2]
 8008ab0:	b94b      	cbnz	r3, 8008ac6 <_raise_r+0x32>
 8008ab2:	4620      	mov	r0, r4
 8008ab4:	f000 f830 	bl	8008b18 <_getpid_r>
 8008ab8:	462a      	mov	r2, r5
 8008aba:	4601      	mov	r1, r0
 8008abc:	4620      	mov	r0, r4
 8008abe:	e8bd 4038 	ldmia.w	sp!, {r3, r4, r5, lr}
 8008ac2:	f000 b817 	b.w	8008af4 <_kill_r>
 8008ac6:	2b01      	cmp	r3, #1
 8008ac8:	d00a      	beq.n	8008ae0 <_raise_r+0x4c>
 8008aca:	1c59      	adds	r1, r3, #1
 8008acc:	d103      	bne.n	8008ad6 <_raise_r+0x42>
 8008ace:	2316      	movs	r3, #22
 8008ad0:	6003      	str	r3, [r0, #0]
 8008ad2:	2001      	movs	r0, #1
 8008ad4:	e7e7      	b.n	8008aa6 <_raise_r+0x12>
 8008ad6:	2400      	movs	r4, #0
 8008ad8:	f842 4025 	str.w	r4, [r2, r5, lsl #2]
 8008adc:	4628      	mov	r0, r5
 8008ade:	4798      	blx	r3
 8008ae0:	2000      	movs	r0, #0
 8008ae2:	e7e0      	b.n	8008aa6 <_raise_r+0x12>

08008ae4 <raise>:
 8008ae4:	4b02      	ldr	r3, [pc, #8]	; (8008af0 <raise+0xc>)
 8008ae6:	4601      	mov	r1, r0
 8008ae8:	6818      	ldr	r0, [r3, #0]
 8008aea:	f7ff bfd3 	b.w	8008a94 <_raise_r>
 8008aee:	bf00      	nop
 8008af0:	20000028 	.word	0x20000028

08008af4 <_kill_r>:
 8008af4:	b538      	push	{r3, r4, r5, lr}
 8008af6:	4d07      	ldr	r5, [pc, #28]	; (8008b14 <_kill_r+0x20>)
 8008af8:	2300      	movs	r3, #0
 8008afa:	4604      	mov	r4, r0
 8008afc:	4608      	mov	r0, r1
 8008afe:	4611      	mov	r1, r2
 8008b00:	602b      	str	r3, [r5, #0]
 8008b02:	f7f9 fbff 	bl	8002304 <_kill>
 8008b06:	1c43      	adds	r3, r0, #1
 8008b08:	d102      	bne.n	8008b10 <_kill_r+0x1c>
 8008b0a:	682b      	ldr	r3, [r5, #0]
 8008b0c:	b103      	cbz	r3, 8008b10 <_kill_r+0x1c>
 8008b0e:	6023      	str	r3, [r4, #0]
 8008b10:	bd38      	pop	{r3, r4, r5, pc}
 8008b12:	bf00      	nop
 8008b14:	2000054c 	.word	0x2000054c

08008b18 <_getpid_r>:
 8008b18:	f7f9 bbec 	b.w	80022f4 <_getpid>

08008b1c <__sread>:
 8008b1c:	b510      	push	{r4, lr}
 8008b1e:	460c      	mov	r4, r1
 8008b20:	f9b1 100e 	ldrsh.w	r1, [r1, #14]
 8008b24:	f000 f894 	bl	8008c50 <_read_r>
 8008b28:	2800      	cmp	r0, #0
 8008b2a:	bfab      	itete	ge
 8008b2c:	6d63      	ldrge	r3, [r4, #84]	; 0x54
 8008b2e:	89a3      	ldrhlt	r3, [r4, #12]
 8008b30:	181b      	addge	r3, r3, r0
 8008b32:	f423 5380 	biclt.w	r3, r3, #4096	; 0x1000
 8008b36:	bfac      	ite	ge
 8008b38:	6563      	strge	r3, [r4, #84]	; 0x54
 8008b3a:	81a3      	strhlt	r3, [r4, #12]
 8008b3c:	bd10      	pop	{r4, pc}

08008b3e <__swrite>:
 8008b3e:	e92d 41f0 	stmdb	sp!, {r4, r5, r6, r7, r8, lr}
 8008b42:	461f      	mov	r7, r3
 8008b44:	898b      	ldrh	r3, [r1, #12]
 8008b46:	05db      	lsls	r3, r3, #23
 8008b48:	4605      	mov	r5, r0
 8008b4a:	460c      	mov	r4, r1
 8008b4c:	4616      	mov	r6, r2
 8008b4e:	d505      	bpl.n	8008b5c <__swrite+0x1e>
 8008b50:	f9b1 100e 	ldrsh.w	r1, [r1, #14]
 8008b54:	2302      	movs	r3, #2
 8008b56:	2200      	movs	r2, #0
 8008b58:	f000 f868 	bl	8008c2c <_lseek_r>
 8008b5c:	89a3      	ldrh	r3, [r4, #12]
 8008b5e:	f9b4 100e 	ldrsh.w	r1, [r4, #14]
 8008b62:	f423 5380 	bic.w	r3, r3, #4096	; 0x1000
 8008b66:	81a3      	strh	r3, [r4, #12]
 8008b68:	4632      	mov	r2, r6
 8008b6a:	463b      	mov	r3, r7
 8008b6c:	4628      	mov	r0, r5
 8008b6e:	e8bd 41f0 	ldmia.w	sp!, {r4, r5, r6, r7, r8, lr}
 8008b72:	f000 b817 	b.w	8008ba4 <_write_r>

08008b76 <__sseek>:
 8008b76:	b510      	push	{r4, lr}
 8008b78:	460c      	mov	r4, r1
 8008b7a:	f9b1 100e 	ldrsh.w	r1, [r1, #14]
 8008b7e:	f000 f855 	bl	8008c2c <_lseek_r>
 8008b82:	1c43      	adds	r3, r0, #1
 8008b84:	89a3      	ldrh	r3, [r4, #12]
 8008b86:	bf15      	itete	ne
 8008b88:	6560      	strne	r0, [r4, #84]	; 0x54
 8008b8a:	f423 5380 	biceq.w	r3, r3, #4096	; 0x1000
 8008b8e:	f443 5380 	orrne.w	r3, r3, #4096	; 0x1000
 8008b92:	81a3      	strheq	r3, [r4, #12]
 8008b94:	bf18      	it	ne
 8008b96:	81a3      	strhne	r3, [r4, #12]
 8008b98:	bd10      	pop	{r4, pc}

08008b9a <__sclose>:
 8008b9a:	f9b1 100e 	ldrsh.w	r1, [r1, #14]
 8008b9e:	f000 b813 	b.w	8008bc8 <_close_r>
	...

08008ba4 <_write_r>:
 8008ba4:	b538      	push	{r3, r4, r5, lr}
 8008ba6:	4d07      	ldr	r5, [pc, #28]	; (8008bc4 <_write_r+0x20>)
 8008ba8:	4604      	mov	r4, r0
 8008baa:	4608      	mov	r0, r1
 8008bac:	4611      	mov	r1, r2
 8008bae:	2200      	movs	r2, #0
 8008bb0:	602a      	str	r2, [r5, #0]
 8008bb2:	461a      	mov	r2, r3
 8008bb4:	f7f9 fbdd 	bl	8002372 <_write>
 8008bb8:	1c43      	adds	r3, r0, #1
 8008bba:	d102      	bne.n	8008bc2 <_write_r+0x1e>
 8008bbc:	682b      	ldr	r3, [r5, #0]
 8008bbe:	b103      	cbz	r3, 8008bc2 <_write_r+0x1e>
 8008bc0:	6023      	str	r3, [r4, #0]
 8008bc2:	bd38      	pop	{r3, r4, r5, pc}
 8008bc4:	2000054c 	.word	0x2000054c

08008bc8 <_close_r>:
 8008bc8:	b538      	push	{r3, r4, r5, lr}
 8008bca:	4d06      	ldr	r5, [pc, #24]	; (8008be4 <_close_r+0x1c>)
 8008bcc:	2300      	movs	r3, #0
 8008bce:	4604      	mov	r4, r0
 8008bd0:	4608      	mov	r0, r1
 8008bd2:	602b      	str	r3, [r5, #0]
 8008bd4:	f7f9 fbe9 	bl	80023aa <_close>
 8008bd8:	1c43      	adds	r3, r0, #1
 8008bda:	d102      	bne.n	8008be2 <_close_r+0x1a>
 8008bdc:	682b      	ldr	r3, [r5, #0]
 8008bde:	b103      	cbz	r3, 8008be2 <_close_r+0x1a>
 8008be0:	6023      	str	r3, [r4, #0]
 8008be2:	bd38      	pop	{r3, r4, r5, pc}
 8008be4:	2000054c 	.word	0x2000054c

08008be8 <_fstat_r>:
 8008be8:	b538      	push	{r3, r4, r5, lr}
 8008bea:	4d07      	ldr	r5, [pc, #28]	; (8008c08 <_fstat_r+0x20>)
 8008bec:	2300      	movs	r3, #0
 8008bee:	4604      	mov	r4, r0
 8008bf0:	4608      	mov	r0, r1
 8008bf2:	4611      	mov	r1, r2
 8008bf4:	602b      	str	r3, [r5, #0]
 8008bf6:	f7f9 fbe4 	bl	80023c2 <_fstat>
 8008bfa:	1c43      	adds	r3, r0, #1
 8008bfc:	d102      	bne.n	8008c04 <_fstat_r+0x1c>
 8008bfe:	682b      	ldr	r3, [r5, #0]
 8008c00:	b103      	cbz	r3, 8008c04 <_fstat_r+0x1c>
 8008c02:	6023      	str	r3, [r4, #0]
 8008c04:	bd38      	pop	{r3, r4, r5, pc}
 8008c06:	bf00      	nop
 8008c08:	2000054c 	.word	0x2000054c

08008c0c <_isatty_r>:
 8008c0c:	b538      	push	{r3, r4, r5, lr}
 8008c0e:	4d06      	ldr	r5, [pc, #24]	; (8008c28 <_isatty_r+0x1c>)
 8008c10:	2300      	movs	r3, #0
 8008c12:	4604      	mov	r4, r0
 8008c14:	4608      	mov	r0, r1
 8008c16:	602b      	str	r3, [r5, #0]
 8008c18:	f7f9 fbe3 	bl	80023e2 <_isatty>
 8008c1c:	1c43      	adds	r3, r0, #1
 8008c1e:	d102      	bne.n	8008c26 <_isatty_r+0x1a>
 8008c20:	682b      	ldr	r3, [r5, #0]
 8008c22:	b103      	cbz	r3, 8008c26 <_isatty_r+0x1a>
 8008c24:	6023      	str	r3, [r4, #0]
 8008c26:	bd38      	pop	{r3, r4, r5, pc}
 8008c28:	2000054c 	.word	0x2000054c

08008c2c <_lseek_r>:
 8008c2c:	b538      	push	{r3, r4, r5, lr}
 8008c2e:	4d07      	ldr	r5, [pc, #28]	; (8008c4c <_lseek_r+0x20>)
 8008c30:	4604      	mov	r4, r0
 8008c32:	4608      	mov	r0, r1
 8008c34:	4611      	mov	r1, r2
 8008c36:	2200      	movs	r2, #0
 8008c38:	602a      	str	r2, [r5, #0]
 8008c3a:	461a      	mov	r2, r3
 8008c3c:	f7f9 fbdc 	bl	80023f8 <_lseek>
 8008c40:	1c43      	adds	r3, r0, #1
 8008c42:	d102      	bne.n	8008c4a <_lseek_r+0x1e>
 8008c44:	682b      	ldr	r3, [r5, #0]
 8008c46:	b103      	cbz	r3, 8008c4a <_lseek_r+0x1e>
 8008c48:	6023      	str	r3, [r4, #0]
 8008c4a:	bd38      	pop	{r3, r4, r5, pc}
 8008c4c:	2000054c 	.word	0x2000054c

08008c50 <_read_r>:
 8008c50:	b538      	push	{r3, r4, r5, lr}
 8008c52:	4d07      	ldr	r5, [pc, #28]	; (8008c70 <_read_r+0x20>)
 8008c54:	4604      	mov	r4, r0
 8008c56:	4608      	mov	r0, r1
 8008c58:	4611      	mov	r1, r2
 8008c5a:	2200      	movs	r2, #0
 8008c5c:	602a      	str	r2, [r5, #0]
 8008c5e:	461a      	mov	r2, r3
 8008c60:	f7f9 fb6a 	bl	8002338 <_read>
 8008c64:	1c43      	adds	r3, r0, #1
 8008c66:	d102      	bne.n	8008c6e <_read_r+0x1e>
 8008c68:	682b      	ldr	r3, [r5, #0]
 8008c6a:	b103      	cbz	r3, 8008c6e <_read_r+0x1e>
 8008c6c:	6023      	str	r3, [r4, #0]
 8008c6e:	bd38      	pop	{r3, r4, r5, pc}
 8008c70:	2000054c 	.word	0x2000054c

08008c74 <_init>:
 8008c74:	b5f8      	push	{r3, r4, r5, r6, r7, lr}
 8008c76:	bf00      	nop
 8008c78:	bcf8      	pop	{r3, r4, r5, r6, r7}
 8008c7a:	bc08      	pop	{r3}
 8008c7c:	469e      	mov	lr, r3
 8008c7e:	4770      	bx	lr

08008c80 <_fini>:
 8008c80:	b5f8      	push	{r3, r4, r5, r6, r7, lr}
 8008c82:	bf00      	nop
 8008c84:	bcf8      	pop	{r3, r4, r5, r6, r7}
 8008c86:	bc08      	pop	{r3}
 8008c88:	469e      	mov	lr, r3
 8008c8a:	4770      	bx	lr
