
UltrasonicVest.elf:     file format elf32-littlearm

Sections:
Idx Name          Size      VMA       LMA       File off  Algn
  0 .isr_vector   000001c4  08000000  08000000  00010000  2**0
                  CONTENTS, ALLOC, LOAD, READONLY, DATA
  1 .text         000089fc  080001d0  080001d0  000101d0  2**4
                  CONTENTS, ALLOC, LOAD, READONLY, CODE
  2 .rodata       0000048c  08008bd0  08008bd0  00018bd0  2**3
                  CONTENTS, ALLOC, LOAD, READONLY, DATA
  3 .ARM.extab    00000000  0800905c  0800905c  000201f4  2**0
                  CONTENTS
  4 .ARM          00000008  0800905c  0800905c  0001905c  2**2
                  CONTENTS, ALLOC, LOAD, READONLY, DATA
  5 .preinit_array 00000000  08009064  08009064  000201f4  2**0
                  CONTENTS, ALLOC, LOAD, DATA
  6 .init_array   00000004  08009064  08009064  00019064  2**2
                  CONTENTS, ALLOC, LOAD, DATA
  7 .fini_array   00000004  08009068  08009068  00019068  2**2
                  CONTENTS, ALLOC, LOAD, DATA
  8 .data         000001f4  20000000  0800906c  00020000  2**2
                  CONTENTS, ALLOC, LOAD, DATA
  9 .bss          00000364  200001f4  08009260  000201f4  2**2
                  ALLOC
 10 ._user_heap_stack 00000600  20000558  08009260  00020558  2**0
                  ALLOC
 11 .ARM.attributes 00000030  00000000  00000000  000201f4  2**0
                  CONTENTS, READONLY
 12 .debug_info   00011b0a  00000000  00000000  00020224  2**0
                  CONTENTS, READONLY, DEBUGGING, OCTETS
 13 .debug_abbrev 00002420  00000000  00000000  00031d2e  2**0
                  CONTENTS, READONLY, DEBUGGING, OCTETS
 14 .debug_aranges 00000d98  00000000  00000000  00034150  2**3
                  CONTENTS, READONLY, DEBUGGING, OCTETS
 15 .debug_ranges 00000ca8  00000000  00000000  00034ee8  2**3
                  CONTENTS, READONLY, DEBUGGING, OCTETS
 16 .debug_macro  000232be  00000000  00000000  00035b90  2**0
                  CONTENTS, READONLY, DEBUGGING, OCTETS
 17 .debug_line   00010c2a  00000000  00000000  00058e4e  2**0
                  CONTENTS, READONLY, DEBUGGING, OCTETS
 18 .debug_str    000d2d6f  00000000  00000000  00069a78  2**0
                  CONTENTS, READONLY, DEBUGGING, OCTETS
 19 .comment      00000053  00000000  00000000  0013c7e7  2**0
                  CONTENTS, READONLY
 20 .debug_frame  00004a14  00000000  00000000  0013c83c  2**2
                  CONTENTS, READONLY, DEBUGGING, OCTETS

Disassembly of section .text:

080001d0 <__do_global_dtors_aux>:
 80001d0:	b510      	push	{r4, lr}
 80001d2:	4c05      	ldr	r4, [pc, #20]	; (80001e8 <__do_global_dtors_aux+0x18>)
 80001d4:	7823      	ldrb	r3, [r4, #0]
 80001d6:	b933      	cbnz	r3, 80001e6 <__do_global_dtors_aux+0x16>
 80001d8:	4b04      	ldr	r3, [pc, #16]	; (80001ec <__do_global_dtors_aux+0x1c>)
 80001da:	b113      	cbz	r3, 80001e2 <__do_global_dtors_aux+0x12>
 80001dc:	4804      	ldr	r0, [pc, #16]	; (80001f0 <__do_global_dtors_aux+0x20>)
 80001de:	f3af 8000 	nop.w
 80001e2:	2301      	movs	r3, #1
 80001e4:	7023      	strb	r3, [r4, #0]
 80001e6:	bd10      	pop	{r4, pc}
 80001e8:	200001f4 	.word	0x200001f4
 80001ec:	00000000 	.word	0x00000000
 80001f0:	08008bb4 	.word	0x08008bb4

080001f4 <frame_dummy>:
 80001f4:	b508      	push	{r3, lr}
 80001f6:	4b03      	ldr	r3, [pc, #12]	; (8000204 <frame_dummy+0x10>)
 80001f8:	b11b      	cbz	r3, 8000202 <frame_dummy+0xe>
 80001fa:	4903      	ldr	r1, [pc, #12]	; (8000208 <frame_dummy+0x14>)
 80001fc:	4803      	ldr	r0, [pc, #12]	; (800020c <frame_dummy+0x18>)
 80001fe:	f3af 8000 	nop.w
 8000202:	bd08      	pop	{r3, pc}
 8000204:	00000000 	.word	0x00000000
 8000208:	200001f8 	.word	0x200001f8
 800020c:	08008bb4 	.word	0x08008bb4

08000210 <strlen>:
 8000210:	4603      	mov	r3, r0
 8000212:	f813 2b01 	ldrb.w	r2, [r3], #1
 8000216:	2a00      	cmp	r2, #0
 8000218:	d1fb      	bne.n	8000212 <strlen+0x2>
 800021a:	1a18      	subs	r0, r3, r0
 800021c:	3801      	subs	r0, #1
 800021e:	4770      	bx	lr

08000220 <memchr>:
 8000220:	f001 01ff 	and.w	r1, r1, #255	; 0xff
 8000224:	2a10      	cmp	r2, #16
 8000226:	db2b      	blt.n	8000280 <memchr+0x60>
 8000228:	f010 0f07 	tst.w	r0, #7
 800022c:	d008      	beq.n	8000240 <memchr+0x20>
 800022e:	f810 3b01 	ldrb.w	r3, [r0], #1
 8000232:	3a01      	subs	r2, #1
 8000234:	428b      	cmp	r3, r1
 8000236:	d02d      	beq.n	8000294 <memchr+0x74>
 8000238:	f010 0f07 	tst.w	r0, #7
 800023c:	b342      	cbz	r2, 8000290 <memchr+0x70>
 800023e:	d1f6      	bne.n	800022e <memchr+0xe>
 8000240:	b4f0      	push	{r4, r5, r6, r7}
 8000242:	ea41 2101 	orr.w	r1, r1, r1, lsl #8
 8000246:	ea41 4101 	orr.w	r1, r1, r1, lsl #16
 800024a:	f022 0407 	bic.w	r4, r2, #7
 800024e:	f07f 0700 	mvns.w	r7, #0
 8000252:	2300      	movs	r3, #0
 8000254:	e8f0 5602 	ldrd	r5, r6, [r0], #8
 8000258:	3c08      	subs	r4, #8
 800025a:	ea85 0501 	eor.w	r5, r5, r1
 800025e:	ea86 0601 	eor.w	r6, r6, r1
 8000262:	fa85 f547 	uadd8	r5, r5, r7
 8000266:	faa3 f587 	sel	r5, r3, r7
 800026a:	fa86 f647 	uadd8	r6, r6, r7
 800026e:	faa5 f687 	sel	r6, r5, r7
 8000272:	b98e      	cbnz	r6, 8000298 <memchr+0x78>
 8000274:	d1ee      	bne.n	8000254 <memchr+0x34>
 8000276:	bcf0      	pop	{r4, r5, r6, r7}
 8000278:	f001 01ff 	and.w	r1, r1, #255	; 0xff
 800027c:	f002 0207 	and.w	r2, r2, #7
 8000280:	b132      	cbz	r2, 8000290 <memchr+0x70>
 8000282:	f810 3b01 	ldrb.w	r3, [r0], #1
 8000286:	3a01      	subs	r2, #1
 8000288:	ea83 0301 	eor.w	r3, r3, r1
 800028c:	b113      	cbz	r3, 8000294 <memchr+0x74>
 800028e:	d1f8      	bne.n	8000282 <memchr+0x62>
 8000290:	2000      	movs	r0, #0
 8000292:	4770      	bx	lr
 8000294:	3801      	subs	r0, #1
 8000296:	4770      	bx	lr
 8000298:	2d00      	cmp	r5, #0
 800029a:	bf06      	itte	eq
 800029c:	4635      	moveq	r5, r6
 800029e:	3803      	subeq	r0, #3
 80002a0:	3807      	subne	r0, #7
 80002a2:	f015 0f01 	tst.w	r5, #1
 80002a6:	d107      	bne.n	80002b8 <memchr+0x98>
 80002a8:	3001      	adds	r0, #1
 80002aa:	f415 7f80 	tst.w	r5, #256	; 0x100
 80002ae:	bf02      	ittt	eq
 80002b0:	3001      	addeq	r0, #1
 80002b2:	f415 3fc0 	tsteq.w	r5, #98304	; 0x18000
 80002b6:	3001      	addeq	r0, #1
 80002b8:	bcf0      	pop	{r4, r5, r6, r7}
 80002ba:	3801      	subs	r0, #1
 80002bc:	4770      	bx	lr
 80002be:	bf00      	nop

080002c0 <__aeabi_drsub>:
 80002c0:	f081 4100 	eor.w	r1, r1, #2147483648	; 0x80000000
 80002c4:	e002      	b.n	80002cc <__adddf3>
 80002c6:	bf00      	nop

080002c8 <__aeabi_dsub>:
 80002c8:	f083 4300 	eor.w	r3, r3, #2147483648	; 0x80000000

080002cc <__adddf3>:
 80002cc:	b530      	push	{r4, r5, lr}
 80002ce:	ea4f 0441 	mov.w	r4, r1, lsl #1
 80002d2:	ea4f 0543 	mov.w	r5, r3, lsl #1
 80002d6:	ea94 0f05 	teq	r4, r5
 80002da:	bf08      	it	eq
 80002dc:	ea90 0f02 	teqeq	r0, r2
 80002e0:	bf1f      	itttt	ne
 80002e2:	ea54 0c00 	orrsne.w	ip, r4, r0
 80002e6:	ea55 0c02 	orrsne.w	ip, r5, r2
 80002ea:	ea7f 5c64 	mvnsne.w	ip, r4, asr #21
 80002ee:	ea7f 5c65 	mvnsne.w	ip, r5, asr #21
 80002f2:	f000 80e2 	beq.w	80004ba <__adddf3+0x1ee>
 80002f6:	ea4f 5454 	mov.w	r4, r4, lsr #21
 80002fa:	ebd4 5555 	rsbs	r5, r4, r5, lsr #21
 80002fe:	bfb8      	it	lt
 8000300:	426d      	neglt	r5, r5
 8000302:	dd0c      	ble.n	800031e <__adddf3+0x52>
 8000304:	442c      	add	r4, r5
 8000306:	ea80 0202 	eor.w	r2, r0, r2
 800030a:	ea81 0303 	eor.w	r3, r1, r3
 800030e:	ea82 0000 	eor.w	r0, r2, r0
 8000312:	ea83 0101 	eor.w	r1, r3, r1
 8000316:	ea80 0202 	eor.w	r2, r0, r2
 800031a:	ea81 0303 	eor.w	r3, r1, r3
 800031e:	2d36      	cmp	r5, #54	; 0x36
 8000320:	bf88      	it	hi
 8000322:	bd30      	pophi	{r4, r5, pc}
 8000324:	f011 4f00 	tst.w	r1, #2147483648	; 0x80000000
 8000328:	ea4f 3101 	mov.w	r1, r1, lsl #12
 800032c:	f44f 1c80 	mov.w	ip, #1048576	; 0x100000
 8000330:	ea4c 3111 	orr.w	r1, ip, r1, lsr #12
 8000334:	d002      	beq.n	800033c <__adddf3+0x70>
 8000336:	4240      	negs	r0, r0
 8000338:	eb61 0141 	sbc.w	r1, r1, r1, lsl #1
 800033c:	f013 4f00 	tst.w	r3, #2147483648	; 0x80000000
 8000340:	ea4f 3303 	mov.w	r3, r3, lsl #12
 8000344:	ea4c 3313 	orr.w	r3, ip, r3, lsr #12
 8000348:	d002      	beq.n	8000350 <__adddf3+0x84>
 800034a:	4252      	negs	r2, r2
 800034c:	eb63 0343 	sbc.w	r3, r3, r3, lsl #1
 8000350:	ea94 0f05 	teq	r4, r5
 8000354:	f000 80a7 	beq.w	80004a6 <__adddf3+0x1da>
 8000358:	f1a4 0401 	sub.w	r4, r4, #1
 800035c:	f1d5 0e20 	rsbs	lr, r5, #32
 8000360:	db0d      	blt.n	800037e <__adddf3+0xb2>
 8000362:	fa02 fc0e 	lsl.w	ip, r2, lr
 8000366:	fa22 f205 	lsr.w	r2, r2, r5
 800036a:	1880      	adds	r0, r0, r2
 800036c:	f141 0100 	adc.w	r1, r1, #0
 8000370:	fa03 f20e 	lsl.w	r2, r3, lr
 8000374:	1880      	adds	r0, r0, r2
 8000376:	fa43 f305 	asr.w	r3, r3, r5
 800037a:	4159      	adcs	r1, r3
 800037c:	e00e      	b.n	800039c <__adddf3+0xd0>
 800037e:	f1a5 0520 	sub.w	r5, r5, #32
 8000382:	f10e 0e20 	add.w	lr, lr, #32
 8000386:	2a01      	cmp	r2, #1
 8000388:	fa03 fc0e 	lsl.w	ip, r3, lr
 800038c:	bf28      	it	cs
 800038e:	f04c 0c02 	orrcs.w	ip, ip, #2
 8000392:	fa43 f305 	asr.w	r3, r3, r5
 8000396:	18c0      	adds	r0, r0, r3
 8000398:	eb51 71e3 	adcs.w	r1, r1, r3, asr #31
 800039c:	f001 4500 	and.w	r5, r1, #2147483648	; 0x80000000
 80003a0:	d507      	bpl.n	80003b2 <__adddf3+0xe6>
 80003a2:	f04f 0e00 	mov.w	lr, #0
 80003a6:	f1dc 0c00 	rsbs	ip, ip, #0
 80003aa:	eb7e 0000 	sbcs.w	r0, lr, r0
 80003ae:	eb6e 0101 	sbc.w	r1, lr, r1
 80003b2:	f5b1 1f80 	cmp.w	r1, #1048576	; 0x100000
 80003b6:	d31b      	bcc.n	80003f0 <__adddf3+0x124>
 80003b8:	f5b1 1f00 	cmp.w	r1, #2097152	; 0x200000
 80003bc:	d30c      	bcc.n	80003d8 <__adddf3+0x10c>
 80003be:	0849      	lsrs	r1, r1, #1
 80003c0:	ea5f 0030 	movs.w	r0, r0, rrx
 80003c4:	ea4f 0c3c 	mov.w	ip, ip, rrx
 80003c8:	f104 0401 	add.w	r4, r4, #1
 80003cc:	ea4f 5244 	mov.w	r2, r4, lsl #21
 80003d0:	f512 0f80 	cmn.w	r2, #4194304	; 0x400000
 80003d4:	f080 809a 	bcs.w	800050c <__adddf3+0x240>
 80003d8:	f1bc 4f00 	cmp.w	ip, #2147483648	; 0x80000000
 80003dc:	bf08      	it	eq
 80003de:	ea5f 0c50 	movseq.w	ip, r0, lsr #1
 80003e2:	f150 0000 	adcs.w	r0, r0, #0
 80003e6:	eb41 5104 	adc.w	r1, r1, r4, lsl #20
 80003ea:	ea41 0105 	orr.w	r1, r1, r5
 80003ee:	bd30      	pop	{r4, r5, pc}
 80003f0:	ea5f 0c4c 	movs.w	ip, ip, lsl #1
 80003f4:	4140      	adcs	r0, r0
 80003f6:	eb41 0101 	adc.w	r1, r1, r1
 80003fa:	3c01      	subs	r4, #1
 80003fc:	bf28      	it	cs
 80003fe:	f5b1 1f80 	cmpcs.w	r1, #1048576	; 0x100000
 8000402:	d2e9      	bcs.n	80003d8 <__adddf3+0x10c>
 8000404:	f091 0f00 	teq	r1, #0
 8000408:	bf04      	itt	eq
 800040a:	4601      	moveq	r1, r0
 800040c:	2000      	moveq	r0, #0
 800040e:	fab1 f381 	clz	r3, r1
 8000412:	bf08      	it	eq
 8000414:	3320      	addeq	r3, #32
 8000416:	f1a3 030b 	sub.w	r3, r3, #11
 800041a:	f1b3 0220 	subs.w	r2, r3, #32
 800041e:	da0c      	bge.n	800043a <__adddf3+0x16e>
 8000420:	320c      	adds	r2, #12
 8000422:	dd08      	ble.n	8000436 <__adddf3+0x16a>
 8000424:	f102 0c14 	add.w	ip, r2, #20
 8000428:	f1c2 020c 	rsb	r2, r2, #12
 800042c:	fa01 f00c 	lsl.w	r0, r1, ip
 8000430:	fa21 f102 	lsr.w	r1, r1, r2
 8000434:	e00c      	b.n	8000450 <__adddf3+0x184>
 8000436:	f102 0214 	add.w	r2, r2, #20
 800043a:	bfd8      	it	le
 800043c:	f1c2 0c20 	rsble	ip, r2, #32
 8000440:	fa01 f102 	lsl.w	r1, r1, r2
 8000444:	fa20 fc0c 	lsr.w	ip, r0, ip
 8000448:	bfdc      	itt	le
 800044a:	ea41 010c 	orrle.w	r1, r1, ip
 800044e:	4090      	lslle	r0, r2
 8000450:	1ae4      	subs	r4, r4, r3
 8000452:	bfa2      	ittt	ge
 8000454:	eb01 5104 	addge.w	r1, r1, r4, lsl #20
 8000458:	4329      	orrge	r1, r5
 800045a:	bd30      	popge	{r4, r5, pc}
 800045c:	ea6f 0404 	mvn.w	r4, r4
 8000460:	3c1f      	subs	r4, #31
 8000462:	da1c      	bge.n	800049e <__adddf3+0x1d2>
 8000464:	340c      	adds	r4, #12
 8000466:	dc0e      	bgt.n	8000486 <__adddf3+0x1ba>
 8000468:	f104 0414 	add.w	r4, r4, #20
 800046c:	f1c4 0220 	rsb	r2, r4, #32
 8000470:	fa20 f004 	lsr.w	r0, r0, r4
 8000474:	fa01 f302 	lsl.w	r3, r1, r2
 8000478:	ea40 0003 	orr.w	r0, r0, r3
 800047c:	fa21 f304 	lsr.w	r3, r1, r4
 8000480:	ea45 0103 	orr.w	r1, r5, r3
 8000484:	bd30      	pop	{r4, r5, pc}
 8000486:	f1c4 040c 	rsb	r4, r4, #12
 800048a:	f1c4 0220 	rsb	r2, r4, #32
 800048e:	fa20 f002 	lsr.w	r0, r0, r2
 8000492:	fa01 f304 	lsl.w	r3, r1, r4
 8000496:	ea40 0003 	orr.w	r0, r0, r3
 800049a:	4629      	mov	r1, r5
 800049c:	bd30      	pop	{r4, r5, pc}
 800049e:	fa21 f004 	lsr.w	r0, r1, r4
 80004a2:	4629      	mov	r1, r5
 80004a4:	bd30      	pop	{r4, r5, pc}
 80004a6:	f094 0f00 	teq	r4, #0
 80004aa:	f483 1380 	eor.w	r3, r3, #1048576	; 0x100000
 80004ae:	bf06      	itte	eq
 80004b0:	f481 1180 	eoreq.w	r1, r1, #1048576	; 0x100000
 80004b4:	3401      	addeq	r4, #1
 80004b6:	3d01      	subne	r5, #1
 80004b8:	e74e      	b.n	8000358 <__adddf3+0x8c>
 80004ba:	ea7f 5c64 	mvns.w	ip, r4, asr #21
 80004be:	bf18      	it	ne
 80004c0:	ea7f 5c65 	mvnsne.w	ip, r5, asr #21
 80004c4:	d029      	beq.n	800051a <__adddf3+0x24e>
 80004c6:	ea94 0f05 	teq	r4, r5
 80004ca:	bf08      	it	eq
 80004cc:	ea90 0f02 	teqeq	r0, r2
 80004d0:	d005      	beq.n	80004de <__adddf3+0x212>
 80004d2:	ea54 0c00 	orrs.w	ip, r4, r0
 80004d6:	bf04      	itt	eq
 80004d8:	4619      	moveq	r1, r3
 80004da:	4610      	moveq	r0, r2
 80004dc:	bd30      	pop	{r4, r5, pc}
 80004de:	ea91 0f03 	teq	r1, r3
 80004e2:	bf1e      	ittt	ne
 80004e4:	2100      	movne	r1, #0
 80004e6:	2000      	movne	r0, #0
 80004e8:	bd30      	popne	{r4, r5, pc}
 80004ea:	ea5f 5c54 	movs.w	ip, r4, lsr #21
 80004ee:	d105      	bne.n	80004fc <__adddf3+0x230>
 80004f0:	0040      	lsls	r0, r0, #1
 80004f2:	4149      	adcs	r1, r1
 80004f4:	bf28      	it	cs
 80004f6:	f041 4100 	orrcs.w	r1, r1, #2147483648	; 0x80000000
 80004fa:	bd30      	pop	{r4, r5, pc}
 80004fc:	f514 0480 	adds.w	r4, r4, #4194304	; 0x400000
 8000500:	bf3c      	itt	cc
 8000502:	f501 1180 	addcc.w	r1, r1, #1048576	; 0x100000
 8000506:	bd30      	popcc	{r4, r5, pc}
 8000508:	f001 4500 	and.w	r5, r1, #2147483648	; 0x80000000
 800050c:	f045 41fe 	orr.w	r1, r5, #2130706432	; 0x7f000000
 8000510:	f441 0170 	orr.w	r1, r1, #15728640	; 0xf00000
 8000514:	f04f 0000 	mov.w	r0, #0
 8000518:	bd30      	pop	{r4, r5, pc}
 800051a:	ea7f 5c64 	mvns.w	ip, r4, asr #21
 800051e:	bf1a      	itte	ne
 8000520:	4619      	movne	r1, r3
 8000522:	4610      	movne	r0, r2
 8000524:	ea7f 5c65 	mvnseq.w	ip, r5, asr #21
 8000528:	bf1c      	itt	ne
 800052a:	460b      	movne	r3, r1
 800052c:	4602      	movne	r2, r0
 800052e:	ea50 3401 	orrs.w	r4, r0, r1, lsl #12
 8000532:	bf06      	itte	eq
 8000534:	ea52 3503 	orrseq.w	r5, r2, r3, lsl #12
 8000538:	ea91 0f03 	teqeq	r1, r3
 800053c:	f441 2100 	orrne.w	r1, r1, #524288	; 0x80000
 8000540:	bd30      	pop	{r4, r5, pc}
 8000542:	bf00      	nop

08000544 <__aeabi_ui2d>:
 8000544:	f090 0f00 	teq	r0, #0
 8000548:	bf04      	itt	eq
 800054a:	2100      	moveq	r1, #0
 800054c:	4770      	bxeq	lr
 800054e:	b530      	push	{r4, r5, lr}
 8000550:	f44f 6480 	mov.w	r4, #1024	; 0x400
 8000554:	f104 0432 	add.w	r4, r4, #50	; 0x32
 8000558:	f04f 0500 	mov.w	r5, #0
 800055c:	f04f 0100 	mov.w	r1, #0
 8000560:	e750      	b.n	8000404 <__adddf3+0x138>
 8000562:	bf00      	nop

08000564 <__aeabi_i2d>:
 8000564:	f090 0f00 	teq	r0, #0
 8000568:	bf04      	itt	eq
 800056a:	2100      	moveq	r1, #0
 800056c:	4770      	bxeq	lr
 800056e:	b530      	push	{r4, r5, lr}
 8000570:	f44f 6480 	mov.w	r4, #1024	; 0x400
 8000574:	f104 0432 	add.w	r4, r4, #50	; 0x32
 8000578:	f010 4500 	ands.w	r5, r0, #2147483648	; 0x80000000
 800057c:	bf48      	it	mi
 800057e:	4240      	negmi	r0, r0
 8000580:	f04f 0100 	mov.w	r1, #0
 8000584:	e73e      	b.n	8000404 <__adddf3+0x138>
 8000586:	bf00      	nop

08000588 <__aeabi_f2d>:
 8000588:	0042      	lsls	r2, r0, #1
 800058a:	ea4f 01e2 	mov.w	r1, r2, asr #3
 800058e:	ea4f 0131 	mov.w	r1, r1, rrx
 8000592:	ea4f 7002 	mov.w	r0, r2, lsl #28
 8000596:	bf1f      	itttt	ne
 8000598:	f012 437f 	andsne.w	r3, r2, #4278190080	; 0xff000000
 800059c:	f093 4f7f 	teqne	r3, #4278190080	; 0xff000000
 80005a0:	f081 5160 	eorne.w	r1, r1, #939524096	; 0x38000000
 80005a4:	4770      	bxne	lr
 80005a6:	f032 427f 	bics.w	r2, r2, #4278190080	; 0xff000000
 80005aa:	bf08      	it	eq
 80005ac:	4770      	bxeq	lr
 80005ae:	f093 4f7f 	teq	r3, #4278190080	; 0xff000000
 80005b2:	bf04      	itt	eq
 80005b4:	f441 2100 	orreq.w	r1, r1, #524288	; 0x80000
 80005b8:	4770      	bxeq	lr
 80005ba:	b530      	push	{r4, r5, lr}
 80005bc:	f44f 7460 	mov.w	r4, #896	; 0x380
 80005c0:	f001 4500 	and.w	r5, r1, #2147483648	; 0x80000000
 80005c4:	f021 4100 	bic.w	r1, r1, #2147483648	; 0x80000000
 80005c8:	e71c      	b.n	8000404 <__adddf3+0x138>
 80005ca:	bf00      	nop

080005cc <__aeabi_ul2d>:
 80005cc:	ea50 0201 	orrs.w	r2, r0, r1
 80005d0:	bf08      	it	eq
 80005d2:	4770      	bxeq	lr
 80005d4:	b530      	push	{r4, r5, lr}
 80005d6:	f04f 0500 	mov.w	r5, #0
 80005da:	e00a      	b.n	80005f2 <__aeabi_l2d+0x16>

080005dc <__aeabi_l2d>:
 80005dc:	ea50 0201 	orrs.w	r2, r0, r1
 80005e0:	bf08      	it	eq
 80005e2:	4770      	bxeq	lr
 80005e4:	b530      	push	{r4, r5, lr}
 80005e6:	f011 4500 	ands.w	r5, r1, #2147483648	; 0x80000000
 80005ea:	d502      	bpl.n	80005f2 <__aeabi_l2d+0x16>
 80005ec:	4240      	negs	r0, r0
 80005ee:	eb61 0141 	sbc.w	r1, r1, r1, lsl #1
 80005f2:	f44f 6480 	mov.w	r4, #1024	; 0x400
 80005f6:	f104 0432 	add.w	r4, r4, #50	; 0x32
 80005fa:	ea5f 5c91 	movs.w	ip, r1, lsr #22
 80005fe:	f43f aed8 	beq.w	80003b2 <__adddf3+0xe6>
 8000602:	f04f 0203 	mov.w	r2, #3
 8000606:	ea5f 0cdc 	movs.w	ip, ip, lsr #3
 800060a:	bf18      	it	ne
 800060c:	3203      	addne	r2, #3
 800060e:	ea5f 0cdc 	movs.w	ip, ip, lsr #3
 8000612:	bf18      	it	ne
 8000614:	3203      	addne	r2, #3
 8000616:	eb02 02dc 	add.w	r2, r2, ip, lsr #3
 800061a:	f1c2 0320 	rsb	r3, r2, #32
 800061e:	fa00 fc03 	lsl.w	ip, r0, r3
 8000622:	fa20 f002 	lsr.w	r0, r0, r2
 8000626:	fa01 fe03 	lsl.w	lr, r1, r3
 800062a:	ea40 000e 	orr.w	r0, r0, lr
 800062e:	fa21 f102 	lsr.w	r1, r1, r2
 8000632:	4414      	add	r4, r2
 8000634:	e6bd      	b.n	80003b2 <__adddf3+0xe6>
 8000636:	bf00      	nop

08000638 <__aeabi_dmul>:
 8000638:	b570      	push	{r4, r5, r6, lr}
 800063a:	f04f 0cff 	mov.w	ip, #255	; 0xff
 800063e:	f44c 6ce0 	orr.w	ip, ip, #1792	; 0x700
 8000642:	ea1c 5411 	ands.w	r4, ip, r1, lsr #20
 8000646:	bf1d      	ittte	ne
 8000648:	ea1c 5513 	andsne.w	r5, ip, r3, lsr #20
 800064c:	ea94 0f0c 	teqne	r4, ip
 8000650:	ea95 0f0c 	teqne	r5, ip
 8000654:	f000 f8de 	bleq	8000814 <__aeabi_dmul+0x1dc>
 8000658:	442c      	add	r4, r5
 800065a:	ea81 0603 	eor.w	r6, r1, r3
 800065e:	ea21 514c 	bic.w	r1, r1, ip, lsl #21
 8000662:	ea23 534c 	bic.w	r3, r3, ip, lsl #21
 8000666:	ea50 3501 	orrs.w	r5, r0, r1, lsl #12
 800066a:	bf18      	it	ne
 800066c:	ea52 3503 	orrsne.w	r5, r2, r3, lsl #12
 8000670:	f441 1180 	orr.w	r1, r1, #1048576	; 0x100000
 8000674:	f443 1380 	orr.w	r3, r3, #1048576	; 0x100000
 8000678:	d038      	beq.n	80006ec <__aeabi_dmul+0xb4>
 800067a:	fba0 ce02 	umull	ip, lr, r0, r2
 800067e:	f04f 0500 	mov.w	r5, #0
 8000682:	fbe1 e502 	umlal	lr, r5, r1, r2
 8000686:	f006 4200 	and.w	r2, r6, #2147483648	; 0x80000000
 800068a:	fbe0 e503 	umlal	lr, r5, r0, r3
 800068e:	f04f 0600 	mov.w	r6, #0
 8000692:	fbe1 5603 	umlal	r5, r6, r1, r3
 8000696:	f09c 0f00 	teq	ip, #0
 800069a:	bf18      	it	ne
 800069c:	f04e 0e01 	orrne.w	lr, lr, #1
 80006a0:	f1a4 04ff 	sub.w	r4, r4, #255	; 0xff
 80006a4:	f5b6 7f00 	cmp.w	r6, #512	; 0x200
 80006a8:	f564 7440 	sbc.w	r4, r4, #768	; 0x300
 80006ac:	d204      	bcs.n	80006b8 <__aeabi_dmul+0x80>
 80006ae:	ea5f 0e4e 	movs.w	lr, lr, lsl #1
 80006b2:	416d      	adcs	r5, r5
 80006b4:	eb46 0606 	adc.w	r6, r6, r6
 80006b8:	ea42 21c6 	orr.w	r1, r2, r6, lsl #11
 80006bc:	ea41 5155 	orr.w	r1, r1, r5, lsr #21
 80006c0:	ea4f 20c5 	mov.w	r0, r5, lsl #11
 80006c4:	ea40 505e 	orr.w	r0, r0, lr, lsr #21
 80006c8:	ea4f 2ece 	mov.w	lr, lr, lsl #11
 80006cc:	f1b4 0cfd 	subs.w	ip, r4, #253	; 0xfd
 80006d0:	bf88      	it	hi
 80006d2:	f5bc 6fe0 	cmphi.w	ip, #1792	; 0x700
 80006d6:	d81e      	bhi.n	8000716 <__aeabi_dmul+0xde>
 80006d8:	f1be 4f00 	cmp.w	lr, #2147483648	; 0x80000000
 80006dc:	bf08      	it	eq
 80006de:	ea5f 0e50 	movseq.w	lr, r0, lsr #1
 80006e2:	f150 0000 	adcs.w	r0, r0, #0
 80006e6:	eb41 5104 	adc.w	r1, r1, r4, lsl #20
 80006ea:	bd70      	pop	{r4, r5, r6, pc}
 80006ec:	f006 4600 	and.w	r6, r6, #2147483648	; 0x80000000
 80006f0:	ea46 0101 	orr.w	r1, r6, r1
 80006f4:	ea40 0002 	orr.w	r0, r0, r2
 80006f8:	ea81 0103 	eor.w	r1, r1, r3
 80006fc:	ebb4 045c 	subs.w	r4, r4, ip, lsr #1
 8000700:	bfc2      	ittt	gt
 8000702:	ebd4 050c 	rsbsgt	r5, r4, ip
 8000706:	ea41 5104 	orrgt.w	r1, r1, r4, lsl #20
 800070a:	bd70      	popgt	{r4, r5, r6, pc}
 800070c:	f441 1180 	orr.w	r1, r1, #1048576	; 0x100000
 8000710:	f04f 0e00 	mov.w	lr, #0
 8000714:	3c01      	subs	r4, #1
 8000716:	f300 80ab 	bgt.w	8000870 <__aeabi_dmul+0x238>
 800071a:	f114 0f36 	cmn.w	r4, #54	; 0x36
 800071e:	bfde      	ittt	le
 8000720:	2000      	movle	r0, #0
 8000722:	f001 4100 	andle.w	r1, r1, #2147483648	; 0x80000000
 8000726:	bd70      	pople	{r4, r5, r6, pc}
 8000728:	f1c4 0400 	rsb	r4, r4, #0
 800072c:	3c20      	subs	r4, #32
 800072e:	da35      	bge.n	800079c <__aeabi_dmul+0x164>
 8000730:	340c      	adds	r4, #12
 8000732:	dc1b      	bgt.n	800076c <__aeabi_dmul+0x134>
 8000734:	f104 0414 	add.w	r4, r4, #20
 8000738:	f1c4 0520 	rsb	r5, r4, #32
 800073c:	fa00 f305 	lsl.w	r3, r0, r5
 8000740:	fa20 f004 	lsr.w	r0, r0, r4
 8000744:	fa01 f205 	lsl.w	r2, r1, r5
 8000748:	ea40 0002 	orr.w	r0, r0, r2
 800074c:	f001 4200 	and.w	r2, r1, #2147483648	; 0x80000000
 8000750:	f021 4100 	bic.w	r1, r1, #2147483648	; 0x80000000
 8000754:	eb10 70d3 	adds.w	r0, r0, r3, lsr #31
 8000758:	fa21 f604 	lsr.w	r6, r1, r4
 800075c:	eb42 0106 	adc.w	r1, r2, r6
 8000760:	ea5e 0e43 	orrs.w	lr, lr, r3, lsl #1
 8000764:	bf08      	it	eq
 8000766:	ea20 70d3 	biceq.w	r0, r0, r3, lsr #31
 800076a:	bd70      	pop	{r4, r5, r6, pc}
 800076c:	f1c4 040c 	rsb	r4, r4, #12
 8000770:	f1c4 0520 	rsb	r5, r4, #32
 8000774:	fa00 f304 	lsl.w	r3, r0, r4
 8000778:	fa20 f005 	lsr.w	r0, r0, r5
 800077c:	fa01 f204 	lsl.w	r2, r1, r4
 8000780:	ea40 0002 	orr.w	r0, r0, r2
 8000784:	f001 4100 	and.w	r1, r1, #2147483648	; 0x80000000
 8000788:	eb10 70d3 	adds.w	r0, r0, r3, lsr #31
 800078c:	f141 0100 	adc.w	r1, r1, #0
 8000790:	ea5e 0e43 	orrs.w	lr, lr, r3, lsl #1
 8000794:	bf08      	it	eq
 8000796:	ea20 70d3 	biceq.w	r0, r0, r3, lsr #31
 800079a:	bd70      	pop	{r4, r5, r6, pc}
 800079c:	f1c4 0520 	rsb	r5, r4, #32
 80007a0:	fa00 f205 	lsl.w	r2, r0, r5
 80007a4:	ea4e 0e02 	orr.w	lr, lr, r2
 80007a8:	fa20 f304 	lsr.w	r3, r0, r4
 80007ac:	fa01 f205 	lsl.w	r2, r1, r5
 80007b0:	ea43 0302 	orr.w	r3, r3, r2
 80007b4:	fa21 f004 	lsr.w	r0, r1, r4
 80007b8:	f001 4100 	and.w	r1, r1, #2147483648	; 0x80000000
 80007bc:	fa21 f204 	lsr.w	r2, r1, r4
 80007c0:	ea20 0002 	bic.w	r0, r0, r2
 80007c4:	eb00 70d3 	add.w	r0, r0, r3, lsr #31
 80007c8:	ea5e 0e43 	orrs.w	lr, lr, r3, lsl #1
 80007cc:	bf08      	it	eq
 80007ce:	ea20 70d3 	biceq.w	r0, r0, r3, lsr #31
 80007d2:	bd70      	pop	{r4, r5, r6, pc}
 80007d4:	f094 0f00 	teq	r4, #0
 80007d8:	d10f      	bne.n	80007fa <__aeabi_dmul+0x1c2>
 80007da:	f001 4600 	and.w	r6, r1, #2147483648	; 0x80000000
 80007de:	0040      	lsls	r0, r0, #1
 80007e0:	eb41 0101 	adc.w	r1, r1, r1
 80007e4:	f411 1f80 	tst.w	r1, #1048576	; 0x100000
 80007e8:	bf08      	it	eq
 80007ea:	3c01      	subeq	r4, #1
 80007ec:	d0f7      	beq.n	80007de <__aeabi_dmul+0x1a6>
 80007ee:	ea41 0106 	orr.w	r1, r1, r6
 80007f2:	f095 0f00 	teq	r5, #0
 80007f6:	bf18      	it	ne
 80007f8:	4770      	bxne	lr
 80007fa:	f003 4600 	and.w	r6, r3, #2147483648	; 0x80000000
 80007fe:	0052      	lsls	r2, r2, #1
 8000800:	eb43 0303 	adc.w	r3, r3, r3
 8000804:	f413 1f80 	tst.w	r3, #1048576	; 0x100000
 8000808:	bf08      	it	eq
 800080a:	3d01      	subeq	r5, #1
 800080c:	d0f7      	beq.n	80007fe <__aeabi_dmul+0x1c6>
 800080e:	ea43 0306 	orr.w	r3, r3, r6
 8000812:	4770      	bx	lr
 8000814:	ea94 0f0c 	teq	r4, ip
 8000818:	ea0c 5513 	and.w	r5, ip, r3, lsr #20
 800081c:	bf18      	it	ne
 800081e:	ea95 0f0c 	teqne	r5, ip
 8000822:	d00c      	beq.n	800083e <__aeabi_dmul+0x206>
 8000824:	ea50 0641 	orrs.w	r6, r0, r1, lsl #1
 8000828:	bf18      	it	ne
 800082a:	ea52 0643 	orrsne.w	r6, r2, r3, lsl #1
 800082e:	d1d1      	bne.n	80007d4 <__aeabi_dmul+0x19c>
 8000830:	ea81 0103 	eor.w	r1, r1, r3
 8000834:	f001 4100 	and.w	r1, r1, #2147483648	; 0x80000000
 8000838:	f04f 0000 	mov.w	r0, #0
 800083c:	bd70      	pop	{r4, r5, r6, pc}
 800083e:	ea50 0641 	orrs.w	r6, r0, r1, lsl #1
 8000842:	bf06      	itte	eq
 8000844:	4610      	moveq	r0, r2
 8000846:	4619      	moveq	r1, r3
 8000848:	ea52 0643 	orrsne.w	r6, r2, r3, lsl #1
 800084c:	d019      	beq.n	8000882 <__aeabi_dmul+0x24a>
 800084e:	ea94 0f0c 	teq	r4, ip
 8000852:	d102      	bne.n	800085a <__aeabi_dmul+0x222>
 8000854:	ea50 3601 	orrs.w	r6, r0, r1, lsl #12
 8000858:	d113      	bne.n	8000882 <__aeabi_dmul+0x24a>
 800085a:	ea95 0f0c 	teq	r5, ip
 800085e:	d105      	bne.n	800086c <__aeabi_dmul+0x234>
 8000860:	ea52 3603 	orrs.w	r6, r2, r3, lsl #12
 8000864:	bf1c      	itt	ne
 8000866:	4610      	movne	r0, r2
 8000868:	4619      	movne	r1, r3
 800086a:	d10a      	bne.n	8000882 <__aeabi_dmul+0x24a>
 800086c:	ea81 0103 	eor.w	r1, r1, r3
 8000870:	f001 4100 	and.w	r1, r1, #2147483648	; 0x80000000
 8000874:	f041 41fe 	orr.w	r1, r1, #2130706432	; 0x7f000000
 8000878:	f441 0170 	orr.w	r1, r1, #15728640	; 0xf00000
 800087c:	f04f 0000 	mov.w	r0, #0
 8000880:	bd70      	pop	{r4, r5, r6, pc}
 8000882:	f041 41fe 	orr.w	r1, r1, #2130706432	; 0x7f000000
 8000886:	f441 0178 	orr.w	r1, r1, #16252928	; 0xf80000
 800088a:	bd70      	pop	{r4, r5, r6, pc}

0800088c <__aeabi_ddiv>:
 800088c:	b570      	push	{r4, r5, r6, lr}
 800088e:	f04f 0cff 	mov.w	ip, #255	; 0xff
 8000892:	f44c 6ce0 	orr.w	ip, ip, #1792	; 0x700
 8000896:	ea1c 5411 	ands.w	r4, ip, r1, lsr #20
 800089a:	bf1d      	ittte	ne
 800089c:	ea1c 5513 	andsne.w	r5, ip, r3, lsr #20
 80008a0:	ea94 0f0c 	teqne	r4, ip
 80008a4:	ea95 0f0c 	teqne	r5, ip
 80008a8:	f000 f8a7 	bleq	80009fa <__aeabi_ddiv+0x16e>
 80008ac:	eba4 0405 	sub.w	r4, r4, r5
 80008b0:	ea81 0e03 	eor.w	lr, r1, r3
 80008b4:	ea52 3503 	orrs.w	r5, r2, r3, lsl #12
 80008b8:	ea4f 3101 	mov.w	r1, r1, lsl #12
 80008bc:	f000 8088 	beq.w	80009d0 <__aeabi_ddiv+0x144>
 80008c0:	ea4f 3303 	mov.w	r3, r3, lsl #12
 80008c4:	f04f 5580 	mov.w	r5, #268435456	; 0x10000000
 80008c8:	ea45 1313 	orr.w	r3, r5, r3, lsr #4
 80008cc:	ea43 6312 	orr.w	r3, r3, r2, lsr #24
 80008d0:	ea4f 2202 	mov.w	r2, r2, lsl #8
 80008d4:	ea45 1511 	orr.w	r5, r5, r1, lsr #4
 80008d8:	ea45 6510 	orr.w	r5, r5, r0, lsr #24
 80008dc:	ea4f 2600 	mov.w	r6, r0, lsl #8
 80008e0:	f00e 4100 	and.w	r1, lr, #2147483648	; 0x80000000
 80008e4:	429d      	cmp	r5, r3
 80008e6:	bf08      	it	eq
 80008e8:	4296      	cmpeq	r6, r2
 80008ea:	f144 04fd 	adc.w	r4, r4, #253	; 0xfd
 80008ee:	f504 7440 	add.w	r4, r4, #768	; 0x300
 80008f2:	d202      	bcs.n	80008fa <__aeabi_ddiv+0x6e>
 80008f4:	085b      	lsrs	r3, r3, #1
 80008f6:	ea4f 0232 	mov.w	r2, r2, rrx
 80008fa:	1ab6      	subs	r6, r6, r2
 80008fc:	eb65 0503 	sbc.w	r5, r5, r3
 8000900:	085b      	lsrs	r3, r3, #1
 8000902:	ea4f 0232 	mov.w	r2, r2, rrx
 8000906:	f44f 1080 	mov.w	r0, #1048576	; 0x100000
 800090a:	f44f 2c00 	mov.w	ip, #524288	; 0x80000
 800090e:	ebb6 0e02 	subs.w	lr, r6, r2
 8000912:	eb75 0e03 	sbcs.w	lr, r5, r3
 8000916:	bf22      	ittt	cs
 8000918:	1ab6      	subcs	r6, r6, r2
 800091a:	4675      	movcs	r5, lr
 800091c:	ea40 000c 	orrcs.w	r0, r0, ip
 8000920:	085b      	lsrs	r3, r3, #1
 8000922:	ea4f 0232 	mov.w	r2, r2, rrx
 8000926:	ebb6 0e02 	subs.w	lr, r6, r2
 800092a:	eb75 0e03 	sbcs.w	lr, r5, r3
 800092e:	bf22      	ittt	cs
 8000930:	1ab6      	subcs	r6, r6, r2
 8000932:	4675      	movcs	r5, lr
 8000934:	ea40 005c 	orrcs.w	r0, r0, ip, lsr #1
 8000938:	085b      	lsrs	r3, r3, #1
 800093a:	ea4f 0232 	mov.w	r2, r2, rrx
 800093e:	ebb6 0e02 	subs.w	lr, r6, r2
 8000942:	eb75 0e03 	sbcs.w	lr, r5, r3
 8000946:	bf22      	ittt	cs
 8000948:	1ab6      	subcs	r6, r6, r2
 800094a:	4675      	movcs	r5, lr
 800094c:	ea40 009c 	orrcs.w	r0, r0, ip, lsr #2
 8000950:	085b      	lsrs	r3, r3, #1
 8000952:	ea4f 0232 	mov.w	r2, r2, rrx
 8000956:	ebb6 0e02 	subs.w	lr, r6, r2
 800095a:	eb75 0e03 	sbcs.w	lr, r5, r3
 800095e:	bf22      	ittt	cs
 8000960:	1ab6      	subcs	r6, r6, r2
 8000962:	4675      	movcs	r5, lr
 8000964:	ea40 00dc 	orrcs.w	r0, r0, ip, lsr #3
 8000968:	ea55 0e06 	orrs.w	lr, r5, r6
 800096c:	d018      	beq.n	80009a0 <__aeabi_ddiv+0x114>
 800096e:	ea4f 1505 	mov.w	r5, r5, lsl #4
 8000972:	ea45 7516 	orr.w	r5, r5, r6, lsr #28
 8000976:	ea4f 1606 	mov.w	r6, r6, lsl #4
 800097a:	ea4f 03c3 	mov.w	r3, r3, lsl #3
 800097e:	ea43 7352 	orr.w	r3, r3, r2, lsr #29
 8000982:	ea4f 02c2 	mov.w	r2, r2, lsl #3
 8000986:	ea5f 1c1c 	movs.w	ip, ip, lsr #4
 800098a:	d1c0      	bne.n	800090e <__aeabi_ddiv+0x82>
 800098c:	f411 1f80 	tst.w	r1, #1048576	; 0x100000
 8000990:	d10b      	bne.n	80009aa <__aeabi_ddiv+0x11e>
 8000992:	ea41 0100 	orr.w	r1, r1, r0
 8000996:	f04f 0000 	mov.w	r0, #0
 800099a:	f04f 4c00 	mov.w	ip, #2147483648	; 0x80000000
 800099e:	e7b6      	b.n	800090e <__aeabi_ddiv+0x82>
 80009a0:	f411 1f80 	tst.w	r1, #1048576	; 0x100000
 80009a4:	bf04      	itt	eq
 80009a6:	4301      	orreq	r1, r0
 80009a8:	2000      	moveq	r0, #0
 80009aa:	f1b4 0cfd 	subs.w	ip, r4, #253	; 0xfd
 80009ae:	bf88      	it	hi
 80009b0:	f5bc 6fe0 	cmphi.w	ip, #1792	; 0x700
 80009b4:	f63f aeaf 	bhi.w	8000716 <__aeabi_dmul+0xde>
 80009b8:	ebb5 0c03 	subs.w	ip, r5, r3
 80009bc:	bf04      	itt	eq
 80009be:	ebb6 0c02 	subseq.w	ip, r6, r2
 80009c2:	ea5f 0c50 	movseq.w	ip, r0, lsr #1
 80009c6:	f150 0000 	adcs.w	r0, r0, #0
 80009ca:	eb41 5104 	adc.w	r1, r1, r4, lsl #20
 80009ce:	bd70      	pop	{r4, r5, r6, pc}
 80009d0:	f00e 4e00 	and.w	lr, lr, #2147483648	; 0x80000000
 80009d4:	ea4e 3111 	orr.w	r1, lr, r1, lsr #12
 80009d8:	eb14 045c 	adds.w	r4, r4, ip, lsr #1
 80009dc:	bfc2      	ittt	gt
 80009de:	ebd4 050c 	rsbsgt	r5, r4, ip
 80009e2:	ea41 5104 	orrgt.w	r1, r1, r4, lsl #20
 80009e6:	bd70      	popgt	{r4, r5, r6, pc}
 80009e8:	f441 1180 	orr.w	r1, r1, #1048576	; 0x100000
 80009ec:	f04f 0e00 	mov.w	lr, #0
 80009f0:	3c01      	subs	r4, #1
 80009f2:	e690      	b.n	8000716 <__aeabi_dmul+0xde>
 80009f4:	ea45 0e06 	orr.w	lr, r5, r6
 80009f8:	e68d      	b.n	8000716 <__aeabi_dmul+0xde>
 80009fa:	ea0c 5513 	and.w	r5, ip, r3, lsr #20
 80009fe:	ea94 0f0c 	teq	r4, ip
 8000a02:	bf08      	it	eq
 8000a04:	ea95 0f0c 	teqeq	r5, ip
 8000a08:	f43f af3b 	beq.w	8000882 <__aeabi_dmul+0x24a>
 8000a0c:	ea94 0f0c 	teq	r4, ip
 8000a10:	d10a      	bne.n	8000a28 <__aeabi_ddiv+0x19c>
 8000a12:	ea50 3401 	orrs.w	r4, r0, r1, lsl #12
 8000a16:	f47f af34 	bne.w	8000882 <__aeabi_dmul+0x24a>
 8000a1a:	ea95 0f0c 	teq	r5, ip
 8000a1e:	f47f af25 	bne.w	800086c <__aeabi_dmul+0x234>
 8000a22:	4610      	mov	r0, r2
 8000a24:	4619      	mov	r1, r3
 8000a26:	e72c      	b.n	8000882 <__aeabi_dmul+0x24a>
 8000a28:	ea95 0f0c 	teq	r5, ip
 8000a2c:	d106      	bne.n	8000a3c <__aeabi_ddiv+0x1b0>
 8000a2e:	ea52 3503 	orrs.w	r5, r2, r3, lsl #12
 8000a32:	f43f aefd 	beq.w	8000830 <__aeabi_dmul+0x1f8>
 8000a36:	4610      	mov	r0, r2
 8000a38:	4619      	mov	r1, r3
 8000a3a:	e722      	b.n	8000882 <__aeabi_dmul+0x24a>
 8000a3c:	ea50 0641 	orrs.w	r6, r0, r1, lsl #1
 8000a40:	bf18      	it	ne
 8000a42:	ea52 0643 	orrsne.w	r6, r2, r3, lsl #1
 8000a46:	f47f aec5 	bne.w	80007d4 <__aeabi_dmul+0x19c>
 8000a4a:	ea50 0441 	orrs.w	r4, r0, r1, lsl #1
 8000a4e:	f47f af0d 	bne.w	800086c <__aeabi_dmul+0x234>
 8000a52:	ea52 0543 	orrs.w	r5, r2, r3, lsl #1
 8000a56:	f47f aeeb 	bne.w	8000830 <__aeabi_dmul+0x1f8>
 8000a5a:	e712      	b.n	8000882 <__aeabi_dmul+0x24a>

08000a5c <__gedf2>:
 8000a5c:	f04f 3cff 	mov.w	ip, #4294967295	; 0xffffffff
 8000a60:	e006      	b.n	8000a70 <__cmpdf2+0x4>
 8000a62:	bf00      	nop

08000a64 <__ledf2>:
 8000a64:	f04f 0c01 	mov.w	ip, #1
 8000a68:	e002      	b.n	8000a70 <__cmpdf2+0x4>
 8000a6a:	bf00      	nop

08000a6c <__cmpdf2>:
 8000a6c:	f04f 0c01 	mov.w	ip, #1
 8000a70:	f84d cd04 	str.w	ip, [sp, #-4]!
 8000a74:	ea4f 0c41 	mov.w	ip, r1, lsl #1
 8000a78:	ea7f 5c6c 	mvns.w	ip, ip, asr #21
 8000a7c:	ea4f 0c43 	mov.w	ip, r3, lsl #1
 8000a80:	bf18      	it	ne
 8000a82:	ea7f 5c6c 	mvnsne.w	ip, ip, asr #21
 8000a86:	d01b      	beq.n	8000ac0 <__cmpdf2+0x54>
 8000a88:	b001      	add	sp, #4
 8000a8a:	ea50 0c41 	orrs.w	ip, r0, r1, lsl #1
 8000a8e:	bf0c      	ite	eq
 8000a90:	ea52 0c43 	orrseq.w	ip, r2, r3, lsl #1
 8000a94:	ea91 0f03 	teqne	r1, r3
 8000a98:	bf02      	ittt	eq
 8000a9a:	ea90 0f02 	teqeq	r0, r2
 8000a9e:	2000      	moveq	r0, #0
 8000aa0:	4770      	bxeq	lr
 8000aa2:	f110 0f00 	cmn.w	r0, #0
 8000aa6:	ea91 0f03 	teq	r1, r3
 8000aaa:	bf58      	it	pl
 8000aac:	4299      	cmppl	r1, r3
 8000aae:	bf08      	it	eq
 8000ab0:	4290      	cmpeq	r0, r2
 8000ab2:	bf2c      	ite	cs
 8000ab4:	17d8      	asrcs	r0, r3, #31
 8000ab6:	ea6f 70e3 	mvncc.w	r0, r3, asr #31
 8000aba:	f040 0001 	orr.w	r0, r0, #1
 8000abe:	4770      	bx	lr
 8000ac0:	ea4f 0c41 	mov.w	ip, r1, lsl #1
 8000ac4:	ea7f 5c6c 	mvns.w	ip, ip, asr #21
 8000ac8:	d102      	bne.n	8000ad0 <__cmpdf2+0x64>
 8000aca:	ea50 3c01 	orrs.w	ip, r0, r1, lsl #12
 8000ace:	d107      	bne.n	8000ae0 <__cmpdf2+0x74>
 8000ad0:	ea4f 0c43 	mov.w	ip, r3, lsl #1
 8000ad4:	ea7f 5c6c 	mvns.w	ip, ip, asr #21
 8000ad8:	d1d6      	bne.n	8000a88 <__cmpdf2+0x1c>
 8000ada:	ea52 3c03 	orrs.w	ip, r2, r3, lsl #12
 8000ade:	d0d3      	beq.n	8000a88 <__cmpdf2+0x1c>
 8000ae0:	f85d 0b04 	ldr.w	r0, [sp], #4
 8000ae4:	4770      	bx	lr
 8000ae6:	bf00      	nop

08000ae8 <__aeabi_cdrcmple>:
 8000ae8:	4684      	mov	ip, r0
 8000aea:	4610      	mov	r0, r2
 8000aec:	4662      	mov	r2, ip
 8000aee:	468c      	mov	ip, r1
 8000af0:	4619      	mov	r1, r3
 8000af2:	4663      	mov	r3, ip
 8000af4:	e000      	b.n	8000af8 <__aeabi_cdcmpeq>
 8000af6:	bf00      	nop

08000af8 <__aeabi_cdcmpeq>:
 8000af8:	b501      	push	{r0, lr}
 8000afa:	f7ff ffb7 	bl	8000a6c <__cmpdf2>
 8000afe:	2800      	cmp	r0, #0
 8000b00:	bf48      	it	mi
 8000b02:	f110 0f00 	cmnmi.w	r0, #0
 8000b06:	bd01      	pop	{r0, pc}

08000b08 <__aeabi_dcmpeq>:
 8000b08:	f84d ed08 	str.w	lr, [sp, #-8]!
 8000b0c:	f7ff fff4 	bl	8000af8 <__aeabi_cdcmpeq>
 8000b10:	bf0c      	ite	eq
 8000b12:	2001      	moveq	r0, #1
 8000b14:	2000      	movne	r0, #0
 8000b16:	f85d fb08 	ldr.w	pc, [sp], #8
 8000b1a:	bf00      	nop

08000b1c <__aeabi_dcmplt>:
 8000b1c:	f84d ed08 	str.w	lr, [sp, #-8]!
 8000b20:	f7ff ffea 	bl	8000af8 <__aeabi_cdcmpeq>
 8000b24:	bf34      	ite	cc
 8000b26:	2001      	movcc	r0, #1
 8000b28:	2000      	movcs	r0, #0
 8000b2a:	f85d fb08 	ldr.w	pc, [sp], #8
 8000b2e:	bf00      	nop

08000b30 <__aeabi_dcmple>:
 8000b30:	f84d ed08 	str.w	lr, [sp, #-8]!
 8000b34:	f7ff ffe0 	bl	8000af8 <__aeabi_cdcmpeq>
 8000b38:	bf94      	ite	ls
 8000b3a:	2001      	movls	r0, #1
 8000b3c:	2000      	movhi	r0, #0
 8000b3e:	f85d fb08 	ldr.w	pc, [sp], #8
 8000b42:	bf00      	nop

08000b44 <__aeabi_dcmpge>:
 8000b44:	f84d ed08 	str.w	lr, [sp, #-8]!
 8000b48:	f7ff ffce 	bl	8000ae8 <__aeabi_cdrcmple>
 8000b4c:	bf94      	ite	ls
 8000b4e:	2001      	movls	r0, #1
 8000b50:	2000      	movhi	r0, #0
 8000b52:	f85d fb08 	ldr.w	pc, [sp], #8
 8000b56:	bf00      	nop

08000b58 <__aeabi_dcmpgt>:
 8000b58:	f84d ed08 	str.w	lr, [sp, #-8]!
 8000b5c:	f7ff ffc4 	bl	8000ae8 <__aeabi_cdrcmple>
 8000b60:	bf34      	ite	cc
 8000b62:	2001      	movcc	r0, #1
 8000b64:	2000      	movcs	r0, #0
 8000b66:	f85d fb08 	ldr.w	pc, [sp], #8
 8000b6a:	bf00      	nop

08000b6c <__aeabi_dcmpun>:
 8000b6c:	ea4f 0c41 	mov.w	ip, r1, lsl #1
 8000b70:	ea7f 5c6c 	mvns.w	ip, ip, asr #21
 8000b74:	d102      	bne.n	8000b7c <__aeabi_dcmpun+0x10>
 8000b76:	ea50 3c01 	orrs.w	ip, r0, r1, lsl #12
 8000b7a:	d10a      	bne.n	8000b92 <__aeabi_dcmpun+0x26>
 8000b7c:	ea4f 0c43 	mov.w	ip, r3, lsl #1
 8000b80:	ea7f 5c6c 	mvns.w	ip, ip, asr #21
 8000b84:	d102      	bne.n	8000b8c <__aeabi_dcmpun+0x20>
 8000b86:	ea52 3c03 	orrs.w	ip, r2, r3, lsl #12
 8000b8a:	d102      	bne.n	8000b92 <__aeabi_dcmpun+0x26>
 8000b8c:	f04f 0000 	mov.w	r0, #0
 8000b90:	4770      	bx	lr
 8000b92:	f04f 0001 	mov.w	r0, #1
 8000b96:	4770      	bx	lr

08000b98 <__aeabi_d2iz>:
 8000b98:	ea4f 0241 	mov.w	r2, r1, lsl #1
 8000b9c:	f512 1200 	adds.w	r2, r2, #2097152	; 0x200000
 8000ba0:	d215      	bcs.n	8000bce <__aeabi_d2iz+0x36>
 8000ba2:	d511      	bpl.n	8000bc8 <__aeabi_d2iz+0x30>
 8000ba4:	f46f 7378 	mvn.w	r3, #992	; 0x3e0
 8000ba8:	ebb3 5262 	subs.w	r2, r3, r2, asr #21
 8000bac:	d912      	bls.n	8000bd4 <__aeabi_d2iz+0x3c>
 8000bae:	ea4f 23c1 	mov.w	r3, r1, lsl #11
 8000bb2:	f043 4300 	orr.w	r3, r3, #2147483648	; 0x80000000
 8000bb6:	ea43 5350 	orr.w	r3, r3, r0, lsr #21
 8000bba:	f011 4f00 	tst.w	r1, #2147483648	; 0x80000000
 8000bbe:	fa23 f002 	lsr.w	r0, r3, r2
 8000bc2:	bf18      	it	ne
 8000bc4:	4240      	negne	r0, r0
 8000bc6:	4770      	bx	lr
 8000bc8:	f04f 0000 	mov.w	r0, #0
 8000bcc:	4770      	bx	lr
 8000bce:	ea50 3001 	orrs.w	r0, r0, r1, lsl #12
 8000bd2:	d105      	bne.n	8000be0 <__aeabi_d2iz+0x48>
 8000bd4:	f011 4000 	ands.w	r0, r1, #2147483648	; 0x80000000
 8000bd8:	bf08      	it	eq
 8000bda:	f06f 4000 	mvneq.w	r0, #2147483648	; 0x80000000
 8000bde:	4770      	bx	lr
 8000be0:	f04f 0000 	mov.w	r0, #0
 8000be4:	4770      	bx	lr
 8000be6:	bf00      	nop

08000be8 <__aeabi_d2f>:
 8000be8:	ea4f 0241 	mov.w	r2, r1, lsl #1
 8000bec:	f1b2 43e0 	subs.w	r3, r2, #1879048192	; 0x70000000
 8000bf0:	bf24      	itt	cs
 8000bf2:	f5b3 1c00 	subscs.w	ip, r3, #2097152	; 0x200000
 8000bf6:	f1dc 5cfe 	rsbscs	ip, ip, #532676608	; 0x1fc00000
 8000bfa:	d90d      	bls.n	8000c18 <__aeabi_d2f+0x30>
 8000bfc:	f001 4c00 	and.w	ip, r1, #2147483648	; 0x80000000
 8000c00:	ea4f 02c0 	mov.w	r2, r0, lsl #3
 8000c04:	ea4c 7050 	orr.w	r0, ip, r0, lsr #29
 8000c08:	f1b2 4f00 	cmp.w	r2, #2147483648	; 0x80000000
 8000c0c:	eb40 0083 	adc.w	r0, r0, r3, lsl #2
 8000c10:	bf08      	it	eq
 8000c12:	f020 0001 	biceq.w	r0, r0, #1
 8000c16:	4770      	bx	lr
 8000c18:	f011 4f80 	tst.w	r1, #1073741824	; 0x40000000
 8000c1c:	d121      	bne.n	8000c62 <__aeabi_d2f+0x7a>
 8000c1e:	f113 7238 	adds.w	r2, r3, #48234496	; 0x2e00000
 8000c22:	bfbc      	itt	lt
 8000c24:	f001 4000 	andlt.w	r0, r1, #2147483648	; 0x80000000
 8000c28:	4770      	bxlt	lr
 8000c2a:	f441 1180 	orr.w	r1, r1, #1048576	; 0x100000
 8000c2e:	ea4f 5252 	mov.w	r2, r2, lsr #21
 8000c32:	f1c2 0218 	rsb	r2, r2, #24
 8000c36:	f1c2 0c20 	rsb	ip, r2, #32
 8000c3a:	fa10 f30c 	lsls.w	r3, r0, ip
 8000c3e:	fa20 f002 	lsr.w	r0, r0, r2
 8000c42:	bf18      	it	ne
 8000c44:	f040 0001 	orrne.w	r0, r0, #1
 8000c48:	ea4f 23c1 	mov.w	r3, r1, lsl #11
 8000c4c:	ea4f 23d3 	mov.w	r3, r3, lsr #11
 8000c50:	fa03 fc0c 	lsl.w	ip, r3, ip
 8000c54:	ea40 000c 	orr.w	r0, r0, ip
 8000c58:	fa23 f302 	lsr.w	r3, r3, r2
 8000c5c:	ea4f 0343 	mov.w	r3, r3, lsl #1
 8000c60:	e7cc      	b.n	8000bfc <__aeabi_d2f+0x14>
 8000c62:	ea7f 5362 	mvns.w	r3, r2, asr #21
 8000c66:	d107      	bne.n	8000c78 <__aeabi_d2f+0x90>
 8000c68:	ea50 3301 	orrs.w	r3, r0, r1, lsl #12
 8000c6c:	bf1e      	ittt	ne
 8000c6e:	f04f 40fe 	movne.w	r0, #2130706432	; 0x7f000000
 8000c72:	f440 0040 	orrne.w	r0, r0, #12582912	; 0xc00000
 8000c76:	4770      	bxne	lr
 8000c78:	f001 4000 	and.w	r0, r1, #2147483648	; 0x80000000
 8000c7c:	f040 40fe 	orr.w	r0, r0, #2130706432	; 0x7f000000
 8000c80:	f440 0000 	orr.w	r0, r0, #8388608	; 0x800000
 8000c84:	4770      	bx	lr
 8000c86:	bf00      	nop

08000c88 <__aeabi_uldivmod>:
 8000c88:	b953      	cbnz	r3, 8000ca0 <__aeabi_uldivmod+0x18>
 8000c8a:	b94a      	cbnz	r2, 8000ca0 <__aeabi_uldivmod+0x18>
 8000c8c:	2900      	cmp	r1, #0
 8000c8e:	bf08      	it	eq
 8000c90:	2800      	cmpeq	r0, #0
 8000c92:	bf1c      	itt	ne
 8000c94:	f04f 31ff 	movne.w	r1, #4294967295	; 0xffffffff
 8000c98:	f04f 30ff 	movne.w	r0, #4294967295	; 0xffffffff
 8000c9c:	f000 b96e 	b.w	8000f7c <__aeabi_idiv0>
 8000ca0:	f1ad 0c08 	sub.w	ip, sp, #8
 8000ca4:	e96d ce04 	strd	ip, lr, [sp, #-16]!
 8000ca8:	f000 f806 	bl	8000cb8 <__udivmoddi4>
 8000cac:	f8dd e004 	ldr.w	lr, [sp, #4]
 8000cb0:	e9dd 2302 	ldrd	r2, r3, [sp, #8]
 8000cb4:	b004      	add	sp, #16
 8000cb6:	4770      	bx	lr

08000cb8 <__udivmoddi4>:
 8000cb8:	e92d 47f0 	stmdb	sp!, {r4, r5, r6, r7, r8, r9, sl, lr}
 8000cbc:	9d08      	ldr	r5, [sp, #32]
 8000cbe:	4604      	mov	r4, r0
 8000cc0:	468c      	mov	ip, r1
 8000cc2:	2b00      	cmp	r3, #0
 8000cc4:	f040 8083 	bne.w	8000dce <__udivmoddi4+0x116>
 8000cc8:	428a      	cmp	r2, r1
 8000cca:	4617      	mov	r7, r2
 8000ccc:	d947      	bls.n	8000d5e <__udivmoddi4+0xa6>
 8000cce:	fab2 f282 	clz	r2, r2
 8000cd2:	b142      	cbz	r2, 8000ce6 <__udivmoddi4+0x2e>
 8000cd4:	f1c2 0020 	rsb	r0, r2, #32
 8000cd8:	fa24 f000 	lsr.w	r0, r4, r0
 8000cdc:	4091      	lsls	r1, r2
 8000cde:	4097      	lsls	r7, r2
 8000ce0:	ea40 0c01 	orr.w	ip, r0, r1
 8000ce4:	4094      	lsls	r4, r2
 8000ce6:	ea4f 4817 	mov.w	r8, r7, lsr #16
 8000cea:	0c23      	lsrs	r3, r4, #16
 8000cec:	fbbc f6f8 	udiv	r6, ip, r8
 8000cf0:	fa1f fe87 	uxth.w	lr, r7
 8000cf4:	fb08 c116 	mls	r1, r8, r6, ip
 8000cf8:	ea43 4301 	orr.w	r3, r3, r1, lsl #16
 8000cfc:	fb06 f10e 	mul.w	r1, r6, lr
 8000d00:	4299      	cmp	r1, r3
 8000d02:	d909      	bls.n	8000d18 <__udivmoddi4+0x60>
 8000d04:	18fb      	adds	r3, r7, r3
 8000d06:	f106 30ff 	add.w	r0, r6, #4294967295	; 0xffffffff
 8000d0a:	f080 8119 	bcs.w	8000f40 <__udivmoddi4+0x288>
 8000d0e:	4299      	cmp	r1, r3
 8000d10:	f240 8116 	bls.w	8000f40 <__udivmoddi4+0x288>
 8000d14:	3e02      	subs	r6, #2
 8000d16:	443b      	add	r3, r7
 8000d18:	1a5b      	subs	r3, r3, r1
 8000d1a:	b2a4      	uxth	r4, r4
 8000d1c:	fbb3 f0f8 	udiv	r0, r3, r8
 8000d20:	fb08 3310 	mls	r3, r8, r0, r3
 8000d24:	ea44 4403 	orr.w	r4, r4, r3, lsl #16
 8000d28:	fb00 fe0e 	mul.w	lr, r0, lr
 8000d2c:	45a6      	cmp	lr, r4
 8000d2e:	d909      	bls.n	8000d44 <__udivmoddi4+0x8c>
 8000d30:	193c      	adds	r4, r7, r4
 8000d32:	f100 33ff 	add.w	r3, r0, #4294967295	; 0xffffffff
 8000d36:	f080 8105 	bcs.w	8000f44 <__udivmoddi4+0x28c>
 8000d3a:	45a6      	cmp	lr, r4
 8000d3c:	f240 8102 	bls.w	8000f44 <__udivmoddi4+0x28c>
 8000d40:	3802      	subs	r0, #2
 8000d42:	443c      	add	r4, r7
 8000d44:	ea40 4006 	orr.w	r0, r0, r6, lsl #16
 8000d48:	eba4 040e 	sub.w	r4, r4, lr
 8000d4c:	2600      	movs	r6, #0
 8000d4e:	b11d      	cbz	r5, 8000d58 <__udivmoddi4+0xa0>
 8000d50:	40d4      	lsrs	r4, r2
 8000d52:	2300      	movs	r3, #0
 8000d54:	e9c5 4300 	strd	r4, r3, [r5]
 8000d58:	4631      	mov	r1, r6
 8000d5a:	e8bd 87f0 	ldmia.w	sp!, {r4, r5, r6, r7, r8, r9, sl, pc}
 8000d5e:	b902      	cbnz	r2, 8000d62 <__udivmoddi4+0xaa>
 8000d60:	deff      	udf	#255	; 0xff
 8000d62:	fab2 f282 	clz	r2, r2
 8000d66:	2a00      	cmp	r2, #0
 8000d68:	d150      	bne.n	8000e0c <__udivmoddi4+0x154>
 8000d6a:	1bcb      	subs	r3, r1, r7
 8000d6c:	ea4f 4e17 	mov.w	lr, r7, lsr #16
 8000d70:	fa1f f887 	uxth.w	r8, r7
 8000d74:	2601      	movs	r6, #1
 8000d76:	fbb3 fcfe 	udiv	ip, r3, lr
 8000d7a:	0c21      	lsrs	r1, r4, #16
 8000d7c:	fb0e 331c 	mls	r3, lr, ip, r3
 8000d80:	ea41 4103 	orr.w	r1, r1, r3, lsl #16
 8000d84:	fb08 f30c 	mul.w	r3, r8, ip
 8000d88:	428b      	cmp	r3, r1
 8000d8a:	d907      	bls.n	8000d9c <__udivmoddi4+0xe4>
 8000d8c:	1879      	adds	r1, r7, r1
 8000d8e:	f10c 30ff 	add.w	r0, ip, #4294967295	; 0xffffffff
 8000d92:	d202      	bcs.n	8000d9a <__udivmoddi4+0xe2>
 8000d94:	428b      	cmp	r3, r1
 8000d96:	f200 80e9 	bhi.w	8000f6c <__udivmoddi4+0x2b4>
 8000d9a:	4684      	mov	ip, r0
 8000d9c:	1ac9      	subs	r1, r1, r3
 8000d9e:	b2a3      	uxth	r3, r4
 8000da0:	fbb1 f0fe 	udiv	r0, r1, lr
 8000da4:	fb0e 1110 	mls	r1, lr, r0, r1
 8000da8:	ea43 4401 	orr.w	r4, r3, r1, lsl #16
 8000dac:	fb08 f800 	mul.w	r8, r8, r0
 8000db0:	45a0      	cmp	r8, r4
 8000db2:	d907      	bls.n	8000dc4 <__udivmoddi4+0x10c>
 8000db4:	193c      	adds	r4, r7, r4
 8000db6:	f100 33ff 	add.w	r3, r0, #4294967295	; 0xffffffff
 8000dba:	d202      	bcs.n	8000dc2 <__udivmoddi4+0x10a>
 8000dbc:	45a0      	cmp	r8, r4
 8000dbe:	f200 80d9 	bhi.w	8000f74 <__udivmoddi4+0x2bc>
 8000dc2:	4618      	mov	r0, r3
 8000dc4:	eba4 0408 	sub.w	r4, r4, r8
 8000dc8:	ea40 400c 	orr.w	r0, r0, ip, lsl #16
 8000dcc:	e7bf      	b.n	8000d4e <__udivmoddi4+0x96>
 8000dce:	428b      	cmp	r3, r1
 8000dd0:	d909      	bls.n	8000de6 <__udivmoddi4+0x12e>
 8000dd2:	2d00      	cmp	r5, #0
 8000dd4:	f000 80b1 	beq.w	8000f3a <__udivmoddi4+0x282>
 8000dd8:	2600      	movs	r6, #0
 8000dda:	e9c5 0100 	strd	r0, r1, [r5]
 8000dde:	4630      	mov	r0, r6
 8000de0:	4631      	mov	r1, r6
 8000de2:	e8bd 87f0 	ldmia.w	sp!, {r4, r5, r6, r7, r8, r9, sl, pc}
 8000de6:	fab3 f683 	clz	r6, r3
 8000dea:	2e00      	cmp	r6, #0
 8000dec:	d14a      	bne.n	8000e84 <__udivmoddi4+0x1cc>
 8000dee:	428b      	cmp	r3, r1
 8000df0:	d302      	bcc.n	8000df8 <__udivmoddi4+0x140>
 8000df2:	4282      	cmp	r2, r0
 8000df4:	f200 80b8 	bhi.w	8000f68 <__udivmoddi4+0x2b0>
 8000df8:	1a84      	subs	r4, r0, r2
 8000dfa:	eb61 0103 	sbc.w	r1, r1, r3
 8000dfe:	2001      	movs	r0, #1
 8000e00:	468c      	mov	ip, r1
 8000e02:	2d00      	cmp	r5, #0
 8000e04:	d0a8      	beq.n	8000d58 <__udivmoddi4+0xa0>
 8000e06:	e9c5 4c00 	strd	r4, ip, [r5]
 8000e0a:	e7a5      	b.n	8000d58 <__udivmoddi4+0xa0>
 8000e0c:	f1c2 0320 	rsb	r3, r2, #32
 8000e10:	fa20 f603 	lsr.w	r6, r0, r3
 8000e14:	4097      	lsls	r7, r2
 8000e16:	fa01 f002 	lsl.w	r0, r1, r2
 8000e1a:	ea4f 4e17 	mov.w	lr, r7, lsr #16
 8000e1e:	40d9      	lsrs	r1, r3
 8000e20:	4330      	orrs	r0, r6
 8000e22:	0c03      	lsrs	r3, r0, #16
 8000e24:	fbb1 f6fe 	udiv	r6, r1, lr
 8000e28:	fa1f f887 	uxth.w	r8, r7
 8000e2c:	fb0e 1116 	mls	r1, lr, r6, r1
 8000e30:	ea43 4301 	orr.w	r3, r3, r1, lsl #16
 8000e34:	fb06 f108 	mul.w	r1, r6, r8
 8000e38:	4299      	cmp	r1, r3
 8000e3a:	fa04 f402 	lsl.w	r4, r4, r2
 8000e3e:	d909      	bls.n	8000e54 <__udivmoddi4+0x19c>
 8000e40:	18fb      	adds	r3, r7, r3
 8000e42:	f106 3cff 	add.w	ip, r6, #4294967295	; 0xffffffff
 8000e46:	f080 808d 	bcs.w	8000f64 <__udivmoddi4+0x2ac>
 8000e4a:	4299      	cmp	r1, r3
 8000e4c:	f240 808a 	bls.w	8000f64 <__udivmoddi4+0x2ac>
 8000e50:	3e02      	subs	r6, #2
 8000e52:	443b      	add	r3, r7
 8000e54:	1a5b      	subs	r3, r3, r1
 8000e56:	b281      	uxth	r1, r0
 8000e58:	fbb3 f0fe 	udiv	r0, r3, lr
 8000e5c:	fb0e 3310 	mls	r3, lr, r0, r3
 8000e60:	ea41 4103 	orr.w	r1, r1, r3, lsl #16
 8000e64:	fb00 f308 	mul.w	r3, r0, r8
 8000e68:	428b      	cmp	r3, r1
 8000e6a:	d907      	bls.n	8000e7c <__udivmoddi4+0x1c4>
 8000e6c:	1879      	adds	r1, r7, r1
 8000e6e:	f100 3cff 	add.w	ip, r0, #4294967295	; 0xffffffff
 8000e72:	d273      	bcs.n	8000f5c <__udivmoddi4+0x2a4>
 8000e74:	428b      	cmp	r3, r1
 8000e76:	d971      	bls.n	8000f5c <__udivmoddi4+0x2a4>
 8000e78:	3802      	subs	r0, #2
 8000e7a:	4439      	add	r1, r7
 8000e7c:	1acb      	subs	r3, r1, r3
 8000e7e:	ea40 4606 	orr.w	r6, r0, r6, lsl #16
 8000e82:	e778      	b.n	8000d76 <__udivmoddi4+0xbe>
 8000e84:	f1c6 0c20 	rsb	ip, r6, #32
 8000e88:	fa03 f406 	lsl.w	r4, r3, r6
 8000e8c:	fa22 f30c 	lsr.w	r3, r2, ip
 8000e90:	431c      	orrs	r4, r3
 8000e92:	fa20 f70c 	lsr.w	r7, r0, ip
 8000e96:	fa01 f306 	lsl.w	r3, r1, r6
 8000e9a:	ea4f 4e14 	mov.w	lr, r4, lsr #16
 8000e9e:	fa21 f10c 	lsr.w	r1, r1, ip
 8000ea2:	431f      	orrs	r7, r3
 8000ea4:	0c3b      	lsrs	r3, r7, #16
 8000ea6:	fbb1 f9fe 	udiv	r9, r1, lr
 8000eaa:	fa1f f884 	uxth.w	r8, r4
 8000eae:	fb0e 1119 	mls	r1, lr, r9, r1
 8000eb2:	ea43 4101 	orr.w	r1, r3, r1, lsl #16
 8000eb6:	fb09 fa08 	mul.w	sl, r9, r8
 8000eba:	458a      	cmp	sl, r1
 8000ebc:	fa02 f206 	lsl.w	r2, r2, r6
 8000ec0:	fa00 f306 	lsl.w	r3, r0, r6
 8000ec4:	d908      	bls.n	8000ed8 <__udivmoddi4+0x220>
 8000ec6:	1861      	adds	r1, r4, r1
 8000ec8:	f109 30ff 	add.w	r0, r9, #4294967295	; 0xffffffff
 8000ecc:	d248      	bcs.n	8000f60 <__udivmoddi4+0x2a8>
 8000ece:	458a      	cmp	sl, r1
 8000ed0:	d946      	bls.n	8000f60 <__udivmoddi4+0x2a8>
 8000ed2:	f1a9 0902 	sub.w	r9, r9, #2
 8000ed6:	4421      	add	r1, r4
 8000ed8:	eba1 010a 	sub.w	r1, r1, sl
 8000edc:	b2bf      	uxth	r7, r7
 8000ede:	fbb1 f0fe 	udiv	r0, r1, lr
 8000ee2:	fb0e 1110 	mls	r1, lr, r0, r1
 8000ee6:	ea47 4701 	orr.w	r7, r7, r1, lsl #16
 8000eea:	fb00 f808 	mul.w	r8, r0, r8
 8000eee:	45b8      	cmp	r8, r7
 8000ef0:	d907      	bls.n	8000f02 <__udivmoddi4+0x24a>
 8000ef2:	19e7      	adds	r7, r4, r7
 8000ef4:	f100 31ff 	add.w	r1, r0, #4294967295	; 0xffffffff
 8000ef8:	d22e      	bcs.n	8000f58 <__udivmoddi4+0x2a0>
 8000efa:	45b8      	cmp	r8, r7
 8000efc:	d92c      	bls.n	8000f58 <__udivmoddi4+0x2a0>
 8000efe:	3802      	subs	r0, #2
 8000f00:	4427      	add	r7, r4
 8000f02:	ea40 4009 	orr.w	r0, r0, r9, lsl #16
 8000f06:	eba7 0708 	sub.w	r7, r7, r8
 8000f0a:	fba0 8902 	umull	r8, r9, r0, r2
 8000f0e:	454f      	cmp	r7, r9
 8000f10:	46c6      	mov	lr, r8
 8000f12:	4649      	mov	r1, r9
 8000f14:	d31a      	bcc.n	8000f4c <__udivmoddi4+0x294>
 8000f16:	d017      	beq.n	8000f48 <__udivmoddi4+0x290>
 8000f18:	b15d      	cbz	r5, 8000f32 <__udivmoddi4+0x27a>
 8000f1a:	ebb3 020e 	subs.w	r2, r3, lr
 8000f1e:	eb67 0701 	sbc.w	r7, r7, r1
 8000f22:	fa07 fc0c 	lsl.w	ip, r7, ip
 8000f26:	40f2      	lsrs	r2, r6
 8000f28:	ea4c 0202 	orr.w	r2, ip, r2
 8000f2c:	40f7      	lsrs	r7, r6
 8000f2e:	e9c5 2700 	strd	r2, r7, [r5]
 8000f32:	2600      	movs	r6, #0
 8000f34:	4631      	mov	r1, r6
 8000f36:	e8bd 87f0 	ldmia.w	sp!, {r4, r5, r6, r7, r8, r9, sl, pc}
 8000f3a:	462e      	mov	r6, r5
 8000f3c:	4628      	mov	r0, r5
 8000f3e:	e70b      	b.n	8000d58 <__udivmoddi4+0xa0>
 8000f40:	4606      	mov	r6, r0
 8000f42:	e6e9      	b.n	8000d18 <__udivmoddi4+0x60>
 8000f44:	4618      	mov	r0, r3
 8000f46:	e6fd      	b.n	8000d44 <__udivmoddi4+0x8c>
 8000f48:	4543      	cmp	r3, r8
 8000f4a:	d2e5      	bcs.n	8000f18 <__udivmoddi4+0x260>
 8000f4c:	ebb8 0e02 	subs.w	lr, r8, r2
 8000f50:	eb69 0104 	sbc.w	r1, r9, r4
 8000f54:	3801      	subs	r0, #1
 8000f56:	e7df      	b.n	8000f18 <__udivmoddi4+0x260>
 8000f58:	4608      	mov	r0, r1
 8000f5a:	e7d2      	b.n	8000f02 <__udivmoddi4+0x24a>
 8000f5c:	4660      	mov	r0, ip
 8000f5e:	e78d      	b.n	8000e7c <__udivmoddi4+0x1c4>
 8000f60:	4681      	mov	r9, r0
 8000f62:	e7b9      	b.n	8000ed8 <__udivmoddi4+0x220>
 8000f64:	4666      	mov	r6, ip
 8000f66:	e775      	b.n	8000e54 <__udivmoddi4+0x19c>
 8000f68:	4630      	mov	r0, r6
 8000f6a:	e74a      	b.n	8000e02 <__udivmoddi4+0x14a>
 8000f6c:	f1ac 0c02 	sub.w	ip, ip, #2
 8000f70:	4439      	add	r1, r7
 8000f72:	e713      	b.n	8000d9c <__udivmoddi4+0xe4>
 8000f74:	3802      	subs	r0, #2
 8000f76:	443c      	add	r4, r7
 8000f78:	e724      	b.n	8000dc4 <__udivmoddi4+0x10c>
 8000f7a:	bf00      	nop

08000f7c <__aeabi_idiv0>:
 8000f7c:	4770      	bx	lr
 8000f7e:	bf00      	nop

08000f80 <GET_TIMER_CLK>:
/* USER CODE END PFP */

/* Private user code ---------------------------------------------------------*/
/* USER CODE BEGIN 0 */
uint32_t GET_TIMER_CLK(uint8_t timer)
{
 8000f80:	b580      	push	{r7, lr}
 8000f82:	b086      	sub	sp, #24
 8000f84:	af00      	add	r7, sp, #0
 8000f86:	4603      	mov	r3, r0
 8000f88:	71fb      	strb	r3, [r7, #7]
  uint8_t sel = 0;
 8000f8a:	2300      	movs	r3, #0
 8000f8c:	75fb      	strb	r3, [r7, #23]
  switch (timer)
 8000f8e:	79fb      	ldrb	r3, [r7, #7]
 8000f90:	2b07      	cmp	r3, #7
 8000f92:	dc02      	bgt.n	8000f9a <GET_TIMER_CLK+0x1a>
 8000f94:	2b02      	cmp	r3, #2
 8000f96:	da03      	bge.n	8000fa0 <GET_TIMER_CLK+0x20>
 8000f98:	e005      	b.n	8000fa6 <GET_TIMER_CLK+0x26>
 8000f9a:	3b0c      	subs	r3, #12
 8000f9c:	2b02      	cmp	r3, #2
 8000f9e:	d802      	bhi.n	8000fa6 <GET_TIMER_CLK+0x26>
  case 6:
  case 7:
  case 12:
  case 13:
  case 14:
    sel = 1;
 8000fa0:	2301      	movs	r3, #1
 8000fa2:	75fb      	strb	r3, [r7, #23]
    break;
 8000fa4:	e002      	b.n	8000fac <GET_TIMER_CLK+0x2c>
  default:
    sel = 2;
 8000fa6:	2302      	movs	r3, #2
 8000fa8:	75fb      	strb	r3, [r7, #23]
    break;
 8000faa:	bf00      	nop
  }
  if(sel == 1){
 8000fac:	7dfb      	ldrb	r3, [r7, #23]
 8000fae:	2b01      	cmp	r3, #1
 8000fb0:	d10d      	bne.n	8000fce <GET_TIMER_CLK+0x4e>
    /* Get PCLK1 frequency */
    uint32_t pclk1 = HAL_RCC_GetPCLK1Freq();
 8000fb2:	f001 fe87 	bl	8002cc4 <HAL_RCC_GetPCLK1Freq>
 8000fb6:	60f8      	str	r0, [r7, #12]
  
    /* Get PCLK1 prescaler */
    if((RCC->CFGR & RCC_CFGR_PPRE1) == 0)
 8000fb8:	4b0d      	ldr	r3, [pc, #52]	; (8000ff0 <GET_TIMER_CLK+0x70>)
 8000fba:	689b      	ldr	r3, [r3, #8]
 8000fbc:	f403 53e0 	and.w	r3, r3, #7168	; 0x1c00
 8000fc0:	2b00      	cmp	r3, #0
 8000fc2:	d101      	bne.n	8000fc8 <GET_TIMER_CLK+0x48>
    {
      /* PCLK1 prescaler equal to 1 => TIMCLK = PCLK1 */
      return (pclk1);
 8000fc4:	68fb      	ldr	r3, [r7, #12]
 8000fc6:	e00f      	b.n	8000fe8 <GET_TIMER_CLK+0x68>
    }
    else
    {
      /* PCLK1 prescaler different from 1 => TIMCLK = 2 * PCLK1 */
      return(2 * pclk1);
 8000fc8:	68fb      	ldr	r3, [r7, #12]
 8000fca:	005b      	lsls	r3, r3, #1
 8000fcc:	e00c      	b.n	8000fe8 <GET_TIMER_CLK+0x68>
    }
  } else {
    /* Get PCLK2 frequency */
    uint32_t pclk2 = HAL_RCC_GetPCLK2Freq();
 8000fce:	f001 fe8d 	bl	8002cec <HAL_RCC_GetPCLK2Freq>
 8000fd2:	6138      	str	r0, [r7, #16]
  
    /* Get PCLK1 prescaler */
    if((RCC->CFGR & RCC_CFGR_PPRE2) == 0)
 8000fd4:	4b06      	ldr	r3, [pc, #24]	; (8000ff0 <GET_TIMER_CLK+0x70>)
 8000fd6:	689b      	ldr	r3, [r3, #8]
 8000fd8:	f403 4360 	and.w	r3, r3, #57344	; 0xe000
 8000fdc:	2b00      	cmp	r3, #0
 8000fde:	d101      	bne.n	8000fe4 <GET_TIMER_CLK+0x64>
    {
      /* PCLK1 prescaler equal to 1 => TIMCLK = PCLK1 */
      return (pclk2);
 8000fe0:	693b      	ldr	r3, [r7, #16]
 8000fe2:	e001      	b.n	8000fe8 <GET_TIMER_CLK+0x68>
    }
    else
    {
      /* PCLK1 prescaler different from 1 => TIMCLK = 2 * PCLK1 */
      return(2 * pclk2);
 8000fe4:	693b      	ldr	r3, [r7, #16]
 8000fe6:	005b      	lsls	r3, r3, #1
    }
  }
}
 8000fe8:	4618      	mov	r0, r3
 8000fea:	3718      	adds	r7, #24
 8000fec:	46bd      	mov	sp, r7
 8000fee:	bd80      	pop	{r7, pc}
 8000ff0:	40023800 	.word	0x40023800

08000ff4 <changeTimerFrequency>:

int changeTimerFrequency(TIM_HandleTypeDef *timer, int timer_num, int channel, float frequency, int32_t pulseWidth_ms){
 8000ff4:	b5b0      	push	{r4, r5, r7, lr}
 8000ff6:	b08a      	sub	sp, #40	; 0x28
 8000ff8:	af00      	add	r7, sp, #0
 8000ffa:	6178      	str	r0, [r7, #20]
 8000ffc:	6139      	str	r1, [r7, #16]
 8000ffe:	60fa      	str	r2, [r7, #12]
 8001000:	ed87 0a02 	vstr	s0, [r7, #8]
 8001004:	607b      	str	r3, [r7, #4]
  //Get the clock frequency going to this timer (scaled by the timer prescaler)
  float clk_freq = (float)(GET_TIMER_CLK(timer_num) / (PRESCALER - 1));
 8001006:	693b      	ldr	r3, [r7, #16]
 8001008:	b2db      	uxtb	r3, r3
 800100a:	4618      	mov	r0, r3
 800100c:	f7ff ffb8 	bl	8000f80 <GET_TIMER_CLK>
 8001010:	4603      	mov	r3, r0
 8001012:	4a2f      	ldr	r2, [pc, #188]	; (80010d0 <changeTimerFrequency+0xdc>)
 8001014:	fba2 2303 	umull	r2, r3, r2, r3
 8001018:	0adb      	lsrs	r3, r3, #11
 800101a:	ee07 3a90 	vmov	s15, r3
 800101e:	eef8 7a67 	vcvt.f32.u32	s15, s15
 8001022:	edc7 7a09 	vstr	s15, [r7, #36]	; 0x24
  int clk_freq_int = (int)clk_freq;
 8001026:	edd7 7a09 	vldr	s15, [r7, #36]	; 0x24
 800102a:	eefd 7ae7 	vcvt.s32.f32	s15, s15
 800102e:	ee17 3a90 	vmov	r3, s15
 8001032:	623b      	str	r3, [r7, #32]
  //DEBUG
  // sprintf(buff, "TIMER CLK FREQ: %d\n", clk_freq_int);
  // HAL_UART_Transmit(&huart2, buff, 50, 1000);

  //Calculate period and set it
  timer->Instance->ARR = clk_freq / frequency - 1;
 8001034:	edd7 6a09 	vldr	s13, [r7, #36]	; 0x24
 8001038:	ed97 7a02 	vldr	s14, [r7, #8]
 800103c:	eec6 7a87 	vdiv.f32	s15, s13, s14
 8001040:	eeb7 7a00 	vmov.f32	s14, #112	; 0x3f800000  1.0
 8001044:	ee77 7ac7 	vsub.f32	s15, s15, s14
 8001048:	697b      	ldr	r3, [r7, #20]
 800104a:	681b      	ldr	r3, [r3, #0]
 800104c:	eefc 7ae7 	vcvt.u32.f32	s15, s15
 8001050:	ee17 2a90 	vmov	r2, s15
 8001054:	62da      	str	r2, [r3, #44]	; 0x2c
  //DEBUG
  // sprintf(buff, "TIMER AUTO RELOAD VAL: %d\n", timer->Instance->ARR);
  // HAL_UART_Transmit(&huart2, buff, 50, 1000);
  //Set pulse width if it's valid ie. smaller than the period
  //Calculate the value for CCRx
  int ccr = (float)pulseWidth_ms * (clk_freq/1000.0);
 8001056:	687b      	ldr	r3, [r7, #4]
 8001058:	ee07 3a90 	vmov	s15, r3
 800105c:	eef8 7ae7 	vcvt.f32.s32	s15, s15
 8001060:	ee17 0a90 	vmov	r0, s15
 8001064:	f7ff fa90 	bl	8000588 <__aeabi_f2d>
 8001068:	4604      	mov	r4, r0
 800106a:	460d      	mov	r5, r1
 800106c:	6a78      	ldr	r0, [r7, #36]	; 0x24
 800106e:	f7ff fa8b 	bl	8000588 <__aeabi_f2d>
 8001072:	f04f 0200 	mov.w	r2, #0
 8001076:	4b17      	ldr	r3, [pc, #92]	; (80010d4 <changeTimerFrequency+0xe0>)
 8001078:	f7ff fc08 	bl	800088c <__aeabi_ddiv>
 800107c:	4602      	mov	r2, r0
 800107e:	460b      	mov	r3, r1
 8001080:	4620      	mov	r0, r4
 8001082:	4629      	mov	r1, r5
 8001084:	f7ff fad8 	bl	8000638 <__aeabi_dmul>
 8001088:	4602      	mov	r2, r0
 800108a:	460b      	mov	r3, r1
 800108c:	4610      	mov	r0, r2
 800108e:	4619      	mov	r1, r3
 8001090:	f7ff fd82 	bl	8000b98 <__aeabi_d2iz>
 8001094:	4603      	mov	r3, r0
 8001096:	61fb      	str	r3, [r7, #28]
  if(ccr < timer->Instance->ARR)
 8001098:	697b      	ldr	r3, [r7, #20]
 800109a:	681b      	ldr	r3, [r3, #0]
 800109c:	6ada      	ldr	r2, [r3, #44]	; 0x2c
 800109e:	69fb      	ldr	r3, [r7, #28]
 80010a0:	429a      	cmp	r2, r3
 80010a2:	d90c      	bls.n	80010be <changeTimerFrequency+0xca>
  {
    if(channel == 1){
 80010a4:	68fb      	ldr	r3, [r7, #12]
 80010a6:	2b01      	cmp	r3, #1
 80010a8:	d104      	bne.n	80010b4 <changeTimerFrequency+0xc0>
      timer->Instance->CCR1 = ccr;
 80010aa:	697b      	ldr	r3, [r7, #20]
 80010ac:	681b      	ldr	r3, [r3, #0]
 80010ae:	69fa      	ldr	r2, [r7, #28]
 80010b0:	635a      	str	r2, [r3, #52]	; 0x34
 80010b2:	e007      	b.n	80010c4 <changeTimerFrequency+0xd0>
      //DEBUG
      // sprintf(buff, "TIMER CCR1 VAL: %d\n", timer->Instance->CCR1);
      // HAL_UART_Transmit(&huart2, buff, 50, 1000);
    } else {
      timer->Instance->CCR2 = ccr;
 80010b4:	697b      	ldr	r3, [r7, #20]
 80010b6:	681b      	ldr	r3, [r3, #0]
 80010b8:	69fa      	ldr	r2, [r7, #28]
 80010ba:	639a      	str	r2, [r3, #56]	; 0x38
 80010bc:	e002      	b.n	80010c4 <changeTimerFrequency+0xd0>
    }

  }
  else
  {
    return -1;
 80010be:	f04f 33ff 	mov.w	r3, #4294967295	; 0xffffffff
 80010c2:	e000      	b.n	80010c6 <changeTimerFrequency+0xd2>
  }
  return 0;
 80010c4:	2300      	movs	r3, #0
}
 80010c6:	4618      	mov	r0, r3
 80010c8:	3728      	adds	r7, #40	; 0x28
 80010ca:	46bd      	mov	sp, r7
 80010cc:	bdb0      	pop	{r4, r5, r7, pc}
 80010ce:	bf00      	nop
 80010d0:	aed22925 	.word	0xaed22925
 80010d4:	408f4000 	.word	0x408f4000

080010d8 <map_clamped>:

float map_clamped(float x, float in_min, float in_max, float out_min, float out_max) {
 80010d8:	b5b0      	push	{r4, r5, r7, lr}
 80010da:	b08a      	sub	sp, #40	; 0x28
 80010dc:	af00      	add	r7, sp, #0
 80010de:	ed87 0a05 	vstr	s0, [r7, #20]
 80010e2:	edc7 0a04 	vstr	s1, [r7, #16]
 80010e6:	ed87 1a03 	vstr	s2, [r7, #12]
 80010ea:	edc7 1a02 	vstr	s3, [r7, #8]
 80010ee:	ed87 2a01 	vstr	s4, [r7, #4]
  //Clip output
  if(x > in_max)
 80010f2:	ed97 7a05 	vldr	s14, [r7, #20]
 80010f6:	edd7 7a03 	vldr	s15, [r7, #12]
 80010fa:	eeb4 7ae7 	vcmpe.f32	s14, s15
 80010fe:	eef1 fa10 	vmrs	APSR_nzcv, fpscr
 8001102:	dd01      	ble.n	8001108 <map_clamped+0x30>
    return out_max;
 8001104:	687b      	ldr	r3, [r7, #4]
 8001106:	e04c      	b.n	80011a2 <map_clamped+0xca>
  else if(x < in_min)
 8001108:	ed97 7a05 	vldr	s14, [r7, #20]
 800110c:	edd7 7a04 	vldr	s15, [r7, #16]
 8001110:	eeb4 7ae7 	vcmpe.f32	s14, s15
 8001114:	eef1 fa10 	vmrs	APSR_nzcv, fpscr
 8001118:	d501      	bpl.n	800111e <map_clamped+0x46>
    return out_min;
 800111a:	68bb      	ldr	r3, [r7, #8]
 800111c:	e041      	b.n	80011a2 <map_clamped+0xca>
  else
  {
    double slope = 1.0 * (out_max - out_min) / (in_max - in_min);
 800111e:	ed97 7a01 	vldr	s14, [r7, #4]
 8001122:	edd7 7a02 	vldr	s15, [r7, #8]
 8001126:	ee77 7a67 	vsub.f32	s15, s14, s15
 800112a:	ee17 0a90 	vmov	r0, s15
 800112e:	f7ff fa2b 	bl	8000588 <__aeabi_f2d>
 8001132:	4604      	mov	r4, r0
 8001134:	460d      	mov	r5, r1
 8001136:	ed97 7a03 	vldr	s14, [r7, #12]
 800113a:	edd7 7a04 	vldr	s15, [r7, #16]
 800113e:	ee77 7a67 	vsub.f32	s15, s14, s15
 8001142:	ee17 0a90 	vmov	r0, s15
 8001146:	f7ff fa1f 	bl	8000588 <__aeabi_f2d>
 800114a:	4602      	mov	r2, r0
 800114c:	460b      	mov	r3, r1
 800114e:	4620      	mov	r0, r4
 8001150:	4629      	mov	r1, r5
 8001152:	f7ff fb9b 	bl	800088c <__aeabi_ddiv>
 8001156:	4602      	mov	r2, r0
 8001158:	460b      	mov	r3, r1
 800115a:	e9c7 2308 	strd	r2, r3, [r7, #32]
    double output = out_min + slope * (x - in_min);
 800115e:	68b8      	ldr	r0, [r7, #8]
 8001160:	f7ff fa12 	bl	8000588 <__aeabi_f2d>
 8001164:	4604      	mov	r4, r0
 8001166:	460d      	mov	r5, r1
 8001168:	ed97 7a05 	vldr	s14, [r7, #20]
 800116c:	edd7 7a04 	vldr	s15, [r7, #16]
 8001170:	ee77 7a67 	vsub.f32	s15, s14, s15
 8001174:	ee17 0a90 	vmov	r0, s15
 8001178:	f7ff fa06 	bl	8000588 <__aeabi_f2d>
 800117c:	e9d7 2308 	ldrd	r2, r3, [r7, #32]
 8001180:	f7ff fa5a 	bl	8000638 <__aeabi_dmul>
 8001184:	4602      	mov	r2, r0
 8001186:	460b      	mov	r3, r1
 8001188:	4620      	mov	r0, r4
 800118a:	4629      	mov	r1, r5
 800118c:	f7ff f89e 	bl	80002cc <__adddf3>
 8001190:	4602      	mov	r2, r0
 8001192:	460b      	mov	r3, r1
 8001194:	e9c7 2306 	strd	r2, r3, [r7, #24]
    return output;
 8001198:	e9d7 0106 	ldrd	r0, r1, [r7, #24]
 800119c:	f7ff fd24 	bl	8000be8 <__aeabi_d2f>
 80011a0:	4603      	mov	r3, r0
 80011a2:	ee07 3a90 	vmov	s15, r3
  }
}
 80011a6:	eeb0 0a67 	vmov.f32	s0, s15
 80011aa:	3728      	adds	r7, #40	; 0x28
 80011ac:	46bd      	mov	sp, r7
 80011ae:	bdb0      	pop	{r4, r5, r7, pc}

080011b0 <UpdateMotorsFreq>:

void UpdateMotorsFreq(TIM_HandleTypeDef** motors, uint8_t* motors_num, uint8_t* motors_channel, float* distances){
 80011b0:	b5b0      	push	{r4, r5, r7, lr}
 80011b2:	b08c      	sub	sp, #48	; 0x30
 80011b4:	af06      	add	r7, sp, #24
 80011b6:	60f8      	str	r0, [r7, #12]
 80011b8:	60b9      	str	r1, [r7, #8]
 80011ba:	607a      	str	r2, [r7, #4]
 80011bc:	603b      	str	r3, [r7, #0]
  float freq = 0.0;
 80011be:	f04f 0300 	mov.w	r3, #0
 80011c2:	613b      	str	r3, [r7, #16]
  for(int i = 0; i < 4; i++){
 80011c4:	2300      	movs	r3, #0
 80011c6:	617b      	str	r3, [r7, #20]
 80011c8:	e04f      	b.n	800126a <UpdateMotorsFreq+0xba>
    freq = map_clamped(distances[i], 5.0, 300.0, 10.0, 1.0);
 80011ca:	697b      	ldr	r3, [r7, #20]
 80011cc:	009b      	lsls	r3, r3, #2
 80011ce:	683a      	ldr	r2, [r7, #0]
 80011d0:	4413      	add	r3, r2
 80011d2:	edd3 7a00 	vldr	s15, [r3]
 80011d6:	eeb7 2a00 	vmov.f32	s4, #112	; 0x3f800000  1.0
 80011da:	eef2 1a04 	vmov.f32	s3, #36	; 0x41200000  10.0
 80011de:	ed9f 1a27 	vldr	s2, [pc, #156]	; 800127c <UpdateMotorsFreq+0xcc>
 80011e2:	eef1 0a04 	vmov.f32	s1, #20	; 0x40a00000  5.0
 80011e6:	eeb0 0a67 	vmov.f32	s0, s15
 80011ea:	f7ff ff75 	bl	80010d8 <map_clamped>
 80011ee:	ed87 0a04 	vstr	s0, [r7, #16]
    sprintf(buff, "DIST %d: %.2f\tFREQ %d: %.2f\n", i, distances[i], i, freq);
 80011f2:	697b      	ldr	r3, [r7, #20]
 80011f4:	009b      	lsls	r3, r3, #2
 80011f6:	683a      	ldr	r2, [r7, #0]
 80011f8:	4413      	add	r3, r2
 80011fa:	681b      	ldr	r3, [r3, #0]
 80011fc:	4618      	mov	r0, r3
 80011fe:	f7ff f9c3 	bl	8000588 <__aeabi_f2d>
 8001202:	4604      	mov	r4, r0
 8001204:	460d      	mov	r5, r1
 8001206:	6938      	ldr	r0, [r7, #16]
 8001208:	f7ff f9be 	bl	8000588 <__aeabi_f2d>
 800120c:	4602      	mov	r2, r0
 800120e:	460b      	mov	r3, r1
 8001210:	e9cd 2304 	strd	r2, r3, [sp, #16]
 8001214:	697b      	ldr	r3, [r7, #20]
 8001216:	9302      	str	r3, [sp, #8]
 8001218:	e9cd 4500 	strd	r4, r5, [sp]
 800121c:	697a      	ldr	r2, [r7, #20]
 800121e:	4918      	ldr	r1, [pc, #96]	; (8001280 <UpdateMotorsFreq+0xd0>)
 8001220:	4818      	ldr	r0, [pc, #96]	; (8001284 <UpdateMotorsFreq+0xd4>)
 8001222:	f005 fa9b 	bl	800675c <siprintf>
    HAL_UART_Transmit(&huart2, buff, strlen(buff), 10000);
 8001226:	4817      	ldr	r0, [pc, #92]	; (8001284 <UpdateMotorsFreq+0xd4>)
 8001228:	f7fe fff2 	bl	8000210 <strlen>
 800122c:	4603      	mov	r3, r0
 800122e:	b29a      	uxth	r2, r3
 8001230:	f242 7310 	movw	r3, #10000	; 0x2710
 8001234:	4913      	ldr	r1, [pc, #76]	; (8001284 <UpdateMotorsFreq+0xd4>)
 8001236:	4814      	ldr	r0, [pc, #80]	; (8001288 <UpdateMotorsFreq+0xd8>)
 8001238:	f003 fe0f 	bl	8004e5a <HAL_UART_Transmit>
    changeTimerFrequency(motors[i], motors_num[i], motors_channel[i], freq, 100);
 800123c:	697b      	ldr	r3, [r7, #20]
 800123e:	009b      	lsls	r3, r3, #2
 8001240:	68fa      	ldr	r2, [r7, #12]
 8001242:	4413      	add	r3, r2
 8001244:	6818      	ldr	r0, [r3, #0]
 8001246:	697b      	ldr	r3, [r7, #20]
 8001248:	68ba      	ldr	r2, [r7, #8]
 800124a:	4413      	add	r3, r2
 800124c:	781b      	ldrb	r3, [r3, #0]
 800124e:	4619      	mov	r1, r3
 8001250:	697b      	ldr	r3, [r7, #20]
 8001252:	687a      	ldr	r2, [r7, #4]
 8001254:	4413      	add	r3, r2
 8001256:	781b      	ldrb	r3, [r3, #0]
 8001258:	461a      	mov	r2, r3
 800125a:	2364      	movs	r3, #100	; 0x64
 800125c:	ed97 0a04 	vldr	s0, [r7, #16]
 8001260:	f7ff fec8 	bl	8000ff4 <changeTimerFrequency>
  for(int i = 0; i < 4; i++){
 8001264:	697b      	ldr	r3, [r7, #20]
 8001266:	3301      	adds	r3, #1
 8001268:	617b      	str	r3, [r7, #20]
 800126a:	697b      	ldr	r3, [r7, #20]
 800126c:	2b03      	cmp	r3, #3
 800126e:	ddac      	ble.n	80011ca <UpdateMotorsFreq+0x1a>
  }
}
 8001270:	bf00      	nop
 8001272:	bf00      	nop
 8001274:	3718      	adds	r7, #24
 8001276:	46bd      	mov	sp, r7
 8001278:	bdb0      	pop	{r4, r5, r7, pc}
 800127a:	bf00      	nop
 800127c:	43960000 	.word	0x43960000
 8001280:	08008bd0 	.word	0x08008bd0
 8001284:	2000034c 	.word	0x2000034c
 8001288:	200004a4 	.word	0x200004a4

0800128c <main>:
/**
  * @brief  The application entry point.
  * @retval int
  */
int main(void)
{
 800128c:	b580      	push	{r7, lr}
 800128e:	af00      	add	r7, sp, #0
  /* USER CODE END 1 */

  /* MCU Configuration--------------------------------------------------------*/

  /* Reset of all peripherals, Initializes the Flash interface and the Systick. */
  HAL_Init();
 8001290:	f001 f8d0 	bl	8002434 <HAL_Init>
  /* USER CODE BEGIN Init */

  /* USER CODE END Init */

  /* Configure the system clock */
  SystemClock_Config();
 8001294:	f000 f8d8 	bl	8001448 <SystemClock_Config>
  /* USER CODE BEGIN SysInit */

  /* USER CODE END SysInit */

  /* Initialize all configured peripherals */
  MX_GPIO_Init();
 8001298:	f000 fc60 	bl	8001b5c <MX_GPIO_Init>
  MX_USART2_UART_Init();
 800129c:	f000 fc34 	bl	8001b08 <MX_USART2_UART_Init>
  MX_TIM1_Init();
 80012a0:	f000 f940 	bl	8001524 <MX_TIM1_Init>
  MX_TIM3_Init();
 80012a4:	f000 f9e0 	bl	8001668 <MX_TIM3_Init>
  MX_TIM4_Init();
 80012a8:	f000 fa56 	bl	8001758 <MX_TIM4_Init>
  MX_TIM5_Init();
 80012ac:	f000 facc 	bl	8001848 <MX_TIM5_Init>
  MX_TIM8_Init();
 80012b0:	f000 fb24 	bl	80018fc <MX_TIM8_Init>
  MX_TIM12_Init();
 80012b4:	f000 fbc4 	bl	8001a40 <MX_TIM12_Init>
  /* USER CODE BEGIN 2 */
  HCSR04_Init(HCSR04_SENSOR1, &htim2);
 80012b8:	4955      	ldr	r1, [pc, #340]	; (8001410 <main+0x184>)
 80012ba:	2000      	movs	r0, #0
 80012bc:	f004 f8be 	bl	800543c <HCSR04_Init>
  HCSR04_Init(HCSR04_SENSOR2, &htim2);
 80012c0:	4953      	ldr	r1, [pc, #332]	; (8001410 <main+0x184>)
 80012c2:	2001      	movs	r0, #1
 80012c4:	f004 f8ba 	bl	800543c <HCSR04_Init>
  HCSR04_Init(HCSR04_SENSOR3, &htim2);
 80012c8:	4951      	ldr	r1, [pc, #324]	; (8001410 <main+0x184>)
 80012ca:	2002      	movs	r0, #2
 80012cc:	f004 f8b6 	bl	800543c <HCSR04_Init>
  HCSR04_Init(HCSR04_SENSOR4, &htim2);
 80012d0:	494f      	ldr	r1, [pc, #316]	; (8001410 <main+0x184>)
 80012d2:	2003      	movs	r0, #3
 80012d4:	f004 f8b2 	bl	800543c <HCSR04_Init>
  //START MOTOR TIMER 1,2,5,6 (middle 3 and 4 are not used)
  //1->TIM1, 2->TIM3, 3->TIM4, 4->TIM5, 5->TIM8, 6->TIM12
  HAL_TIM_PWM_Start(&htim1, TIM_CHANNEL_1);
 80012d8:	2100      	movs	r1, #0
 80012da:	484e      	ldr	r0, [pc, #312]	; (8001414 <main+0x188>)
 80012dc:	f002 fa7a 	bl	80037d4 <HAL_TIM_PWM_Start>
  HAL_TIM_PWM_Start(&htim3, TIM_CHANNEL_1);
 80012e0:	2100      	movs	r1, #0
 80012e2:	484d      	ldr	r0, [pc, #308]	; (8001418 <main+0x18c>)
 80012e4:	f002 fa76 	bl	80037d4 <HAL_TIM_PWM_Start>
  HAL_TIM_PWM_Start(&htim8, TIM_CHANNEL_1);
 80012e8:	2100      	movs	r1, #0
 80012ea:	484c      	ldr	r0, [pc, #304]	; (800141c <main+0x190>)
 80012ec:	f002 fa72 	bl	80037d4 <HAL_TIM_PWM_Start>
  HAL_TIM_PWM_Start(&htim12, TIM_CHANNEL_1);
 80012f0:	2100      	movs	r1, #0
 80012f2:	484b      	ldr	r0, [pc, #300]	; (8001420 <main+0x194>)
 80012f4:	f002 fa6e 	bl	80037d4 <HAL_TIM_PWM_Start>
  while (1)
  {
    /* USER CODE END WHILE */

    /* USER CODE BEGIN 3 */
	  Distance1 = HCSR04_Read(HCSR04_SENSOR1);
 80012f8:	2000      	movs	r0, #0
 80012fa:	f004 fd11 	bl	8005d20 <HCSR04_Read>
 80012fe:	eef0 7a40 	vmov.f32	s15, s0
 8001302:	4b48      	ldr	r3, [pc, #288]	; (8001424 <main+0x198>)
 8001304:	edc3 7a00 	vstr	s15, [r3]
	  Distance2 = HCSR04_Read(HCSR04_SENSOR2);
 8001308:	2001      	movs	r0, #1
 800130a:	f004 fd09 	bl	8005d20 <HCSR04_Read>
 800130e:	eef0 7a40 	vmov.f32	s15, s0
 8001312:	4b45      	ldr	r3, [pc, #276]	; (8001428 <main+0x19c>)
 8001314:	edc3 7a00 	vstr	s15, [r3]
	  Distance3 = HCSR04_Read(HCSR04_SENSOR3);
 8001318:	2002      	movs	r0, #2
 800131a:	f004 fd01 	bl	8005d20 <HCSR04_Read>
 800131e:	eef0 7a40 	vmov.f32	s15, s0
 8001322:	4b42      	ldr	r3, [pc, #264]	; (800142c <main+0x1a0>)
 8001324:	edc3 7a00 	vstr	s15, [r3]
	  Distance4 = HCSR04_Read(HCSR04_SENSOR4);
 8001328:	2003      	movs	r0, #3
 800132a:	f004 fcf9 	bl	8005d20 <HCSR04_Read>
 800132e:	eef0 7a40 	vmov.f32	s15, s0
 8001332:	4b3f      	ldr	r3, [pc, #252]	; (8001430 <main+0x1a4>)
 8001334:	edc3 7a00 	vstr	s15, [r3]
    distances[0] = Distance1;
 8001338:	4b3a      	ldr	r3, [pc, #232]	; (8001424 <main+0x198>)
 800133a:	681b      	ldr	r3, [r3, #0]
 800133c:	4a3d      	ldr	r2, [pc, #244]	; (8001434 <main+0x1a8>)
 800133e:	6013      	str	r3, [r2, #0]
    distances[1] = Distance2;
 8001340:	4b39      	ldr	r3, [pc, #228]	; (8001428 <main+0x19c>)
 8001342:	681b      	ldr	r3, [r3, #0]
 8001344:	4a3b      	ldr	r2, [pc, #236]	; (8001434 <main+0x1a8>)
 8001346:	6053      	str	r3, [r2, #4]
    distances[2] = Distance3;
 8001348:	4b38      	ldr	r3, [pc, #224]	; (800142c <main+0x1a0>)
 800134a:	681b      	ldr	r3, [r3, #0]
 800134c:	4a39      	ldr	r2, [pc, #228]	; (8001434 <main+0x1a8>)
 800134e:	6093      	str	r3, [r2, #8]
    distances[3] = Distance4;
 8001350:	4b37      	ldr	r3, [pc, #220]	; (8001430 <main+0x1a4>)
 8001352:	681b      	ldr	r3, [r3, #0]
 8001354:	4a37      	ldr	r2, [pc, #220]	; (8001434 <main+0x1a8>)
 8001356:	60d3      	str	r3, [r2, #12]
	  sprintf(buff, "Dist= %.2f cm    ", Distance1);
 8001358:	4b32      	ldr	r3, [pc, #200]	; (8001424 <main+0x198>)
 800135a:	681b      	ldr	r3, [r3, #0]
 800135c:	4618      	mov	r0, r3
 800135e:	f7ff f913 	bl	8000588 <__aeabi_f2d>
 8001362:	4602      	mov	r2, r0
 8001364:	460b      	mov	r3, r1
 8001366:	4934      	ldr	r1, [pc, #208]	; (8001438 <main+0x1ac>)
 8001368:	4834      	ldr	r0, [pc, #208]	; (800143c <main+0x1b0>)
 800136a:	f005 f9f7 	bl	800675c <siprintf>
	  HAL_UART_Transmit(&huart2, buff, strlen(buff), 1000);
 800136e:	4833      	ldr	r0, [pc, #204]	; (800143c <main+0x1b0>)
 8001370:	f7fe ff4e 	bl	8000210 <strlen>
 8001374:	4603      	mov	r3, r0
 8001376:	b29a      	uxth	r2, r3
 8001378:	f44f 737a 	mov.w	r3, #1000	; 0x3e8
 800137c:	492f      	ldr	r1, [pc, #188]	; (800143c <main+0x1b0>)
 800137e:	4830      	ldr	r0, [pc, #192]	; (8001440 <main+0x1b4>)
 8001380:	f003 fd6b 	bl	8004e5a <HAL_UART_Transmit>
	  sprintf(buff, "Dist= %.2f cm    ", Distance2);
 8001384:	4b28      	ldr	r3, [pc, #160]	; (8001428 <main+0x19c>)
 8001386:	681b      	ldr	r3, [r3, #0]
 8001388:	4618      	mov	r0, r3
 800138a:	f7ff f8fd 	bl	8000588 <__aeabi_f2d>
 800138e:	4602      	mov	r2, r0
 8001390:	460b      	mov	r3, r1
 8001392:	4929      	ldr	r1, [pc, #164]	; (8001438 <main+0x1ac>)
 8001394:	4829      	ldr	r0, [pc, #164]	; (800143c <main+0x1b0>)
 8001396:	f005 f9e1 	bl	800675c <siprintf>
	  HAL_UART_Transmit(&huart2, buff, strlen(buff), 1000);
 800139a:	4828      	ldr	r0, [pc, #160]	; (800143c <main+0x1b0>)
 800139c:	f7fe ff38 	bl	8000210 <strlen>
 80013a0:	4603      	mov	r3, r0
 80013a2:	b29a      	uxth	r2, r3
 80013a4:	f44f 737a 	mov.w	r3, #1000	; 0x3e8
 80013a8:	4924      	ldr	r1, [pc, #144]	; (800143c <main+0x1b0>)
 80013aa:	4825      	ldr	r0, [pc, #148]	; (8001440 <main+0x1b4>)
 80013ac:	f003 fd55 	bl	8004e5a <HAL_UART_Transmit>
	  sprintf(buff, "Dist= %.2f cm    ", Distance3);
 80013b0:	4b1e      	ldr	r3, [pc, #120]	; (800142c <main+0x1a0>)
 80013b2:	681b      	ldr	r3, [r3, #0]
 80013b4:	4618      	mov	r0, r3
 80013b6:	f7ff f8e7 	bl	8000588 <__aeabi_f2d>
 80013ba:	4602      	mov	r2, r0
 80013bc:	460b      	mov	r3, r1
 80013be:	491e      	ldr	r1, [pc, #120]	; (8001438 <main+0x1ac>)
 80013c0:	481e      	ldr	r0, [pc, #120]	; (800143c <main+0x1b0>)
 80013c2:	f005 f9cb 	bl	800675c <siprintf>
	  HAL_UART_Transmit(&huart2, buff, strlen(buff), 1000);
 80013c6:	481d      	ldr	r0, [pc, #116]	; (800143c <main+0x1b0>)
 80013c8:	f7fe ff22 	bl	8000210 <strlen>
 80013cc:	4603      	mov	r3, r0
 80013ce:	b29a      	uxth	r2, r3
 80013d0:	f44f 737a 	mov.w	r3, #1000	; 0x3e8
 80013d4:	4919      	ldr	r1, [pc, #100]	; (800143c <main+0x1b0>)
 80013d6:	481a      	ldr	r0, [pc, #104]	; (8001440 <main+0x1b4>)
 80013d8:	f003 fd3f 	bl	8004e5a <HAL_UART_Transmit>
	  sprintf(buff, "Dist= %.2f cm\n", Distance4);
 80013dc:	4b14      	ldr	r3, [pc, #80]	; (8001430 <main+0x1a4>)
 80013de:	681b      	ldr	r3, [r3, #0]
 80013e0:	4618      	mov	r0, r3
 80013e2:	f7ff f8d1 	bl	8000588 <__aeabi_f2d>
 80013e6:	4602      	mov	r2, r0
 80013e8:	460b      	mov	r3, r1
 80013ea:	4916      	ldr	r1, [pc, #88]	; (8001444 <main+0x1b8>)
 80013ec:	4813      	ldr	r0, [pc, #76]	; (800143c <main+0x1b0>)
 80013ee:	f005 f9b5 	bl	800675c <siprintf>
	  HAL_UART_Transmit(&huart2, buff, strlen(buff), 1000);
 80013f2:	4812      	ldr	r0, [pc, #72]	; (800143c <main+0x1b0>)
 80013f4:	f7fe ff0c 	bl	8000210 <strlen>
 80013f8:	4603      	mov	r3, r0
 80013fa:	b29a      	uxth	r2, r3
 80013fc:	f44f 737a 	mov.w	r3, #1000	; 0x3e8
 8001400:	490e      	ldr	r1, [pc, #56]	; (800143c <main+0x1b0>)
 8001402:	480f      	ldr	r0, [pc, #60]	; (8001440 <main+0x1b4>)
 8001404:	f003 fd29 	bl	8004e5a <HAL_UART_Transmit>
	  HAL_Delay(10);
 8001408:	200a      	movs	r0, #10
 800140a:	f001 f885 	bl	8002518 <HAL_Delay>
  {
 800140e:	e773      	b.n	80012f8 <main+0x6c>
 8001410:	2000045c 	.word	0x2000045c
 8001414:	20000414 	.word	0x20000414
 8001418:	200003c8 	.word	0x200003c8
 800141c:	200002bc 	.word	0x200002bc
 8001420:	200004fc 	.word	0x200004fc
 8001424:	20000210 	.word	0x20000210
 8001428:	20000214 	.word	0x20000214
 800142c:	20000218 	.word	0x20000218
 8001430:	2000021c 	.word	0x2000021c
 8001434:	200004e8 	.word	0x200004e8
 8001438:	08008bf0 	.word	0x08008bf0
 800143c:	2000034c 	.word	0x2000034c
 8001440:	200004a4 	.word	0x200004a4
 8001444:	08008c04 	.word	0x08008c04

08001448 <SystemClock_Config>:
/**
  * @brief System Clock Configuration
  * @retval None
  */
void SystemClock_Config(void)
{
 8001448:	b580      	push	{r7, lr}
 800144a:	b094      	sub	sp, #80	; 0x50
 800144c:	af00      	add	r7, sp, #0
  RCC_OscInitTypeDef RCC_OscInitStruct = {0};
 800144e:	f107 031c 	add.w	r3, r7, #28
 8001452:	2234      	movs	r2, #52	; 0x34
 8001454:	2100      	movs	r1, #0
 8001456:	4618      	mov	r0, r3
 8001458:	f004 fd0e 	bl	8005e78 <memset>
  RCC_ClkInitTypeDef RCC_ClkInitStruct = {0};
 800145c:	f107 0308 	add.w	r3, r7, #8
 8001460:	2200      	movs	r2, #0
 8001462:	601a      	str	r2, [r3, #0]
 8001464:	605a      	str	r2, [r3, #4]
 8001466:	609a      	str	r2, [r3, #8]
 8001468:	60da      	str	r2, [r3, #12]
 800146a:	611a      	str	r2, [r3, #16]

  /** Configure the main internal regulator output voltage
  */
  __HAL_RCC_PWR_CLK_ENABLE();
 800146c:	2300      	movs	r3, #0
 800146e:	607b      	str	r3, [r7, #4]
 8001470:	4b2a      	ldr	r3, [pc, #168]	; (800151c <SystemClock_Config+0xd4>)
 8001472:	6c1b      	ldr	r3, [r3, #64]	; 0x40
 8001474:	4a29      	ldr	r2, [pc, #164]	; (800151c <SystemClock_Config+0xd4>)
 8001476:	f043 5380 	orr.w	r3, r3, #268435456	; 0x10000000
 800147a:	6413      	str	r3, [r2, #64]	; 0x40
 800147c:	4b27      	ldr	r3, [pc, #156]	; (800151c <SystemClock_Config+0xd4>)
 800147e:	6c1b      	ldr	r3, [r3, #64]	; 0x40
 8001480:	f003 5380 	and.w	r3, r3, #268435456	; 0x10000000
 8001484:	607b      	str	r3, [r7, #4]
 8001486:	687b      	ldr	r3, [r7, #4]
  __HAL_PWR_VOLTAGESCALING_CONFIG(PWR_REGULATOR_VOLTAGE_SCALE3);
 8001488:	2300      	movs	r3, #0
 800148a:	603b      	str	r3, [r7, #0]
 800148c:	4b24      	ldr	r3, [pc, #144]	; (8001520 <SystemClock_Config+0xd8>)
 800148e:	681b      	ldr	r3, [r3, #0]
 8001490:	f423 4340 	bic.w	r3, r3, #49152	; 0xc000
 8001494:	4a22      	ldr	r2, [pc, #136]	; (8001520 <SystemClock_Config+0xd8>)
 8001496:	f443 4380 	orr.w	r3, r3, #16384	; 0x4000
 800149a:	6013      	str	r3, [r2, #0]
 800149c:	4b20      	ldr	r3, [pc, #128]	; (8001520 <SystemClock_Config+0xd8>)
 800149e:	681b      	ldr	r3, [r3, #0]
 80014a0:	f403 4340 	and.w	r3, r3, #49152	; 0xc000
 80014a4:	603b      	str	r3, [r7, #0]
 80014a6:	683b      	ldr	r3, [r7, #0]
  /** Initializes the RCC Oscillators according to the specified parameters
  * in the RCC_OscInitTypeDef structure.
  */
  RCC_OscInitStruct.OscillatorType = RCC_OSCILLATORTYPE_HSI;
 80014a8:	2302      	movs	r3, #2
 80014aa:	61fb      	str	r3, [r7, #28]
  RCC_OscInitStruct.HSIState = RCC_HSI_ON;
 80014ac:	2301      	movs	r3, #1
 80014ae:	62bb      	str	r3, [r7, #40]	; 0x28
  RCC_OscInitStruct.HSICalibrationValue = RCC_HSICALIBRATION_DEFAULT;
 80014b0:	2310      	movs	r3, #16
 80014b2:	62fb      	str	r3, [r7, #44]	; 0x2c
  RCC_OscInitStruct.PLL.PLLState = RCC_PLL_ON;
 80014b4:	2302      	movs	r3, #2
 80014b6:	637b      	str	r3, [r7, #52]	; 0x34
  RCC_OscInitStruct.PLL.PLLSource = RCC_PLLSOURCE_HSI;
 80014b8:	2300      	movs	r3, #0
 80014ba:	63bb      	str	r3, [r7, #56]	; 0x38
  RCC_OscInitStruct.PLL.PLLM = 16;
 80014bc:	2310      	movs	r3, #16
 80014be:	63fb      	str	r3, [r7, #60]	; 0x3c
  RCC_OscInitStruct.PLL.PLLN = 336;
 80014c0:	f44f 73a8 	mov.w	r3, #336	; 0x150
 80014c4:	643b      	str	r3, [r7, #64]	; 0x40
  RCC_OscInitStruct.PLL.PLLP = RCC_PLLP_DIV4;
 80014c6:	2304      	movs	r3, #4
 80014c8:	647b      	str	r3, [r7, #68]	; 0x44
  RCC_OscInitStruct.PLL.PLLQ = 2;
 80014ca:	2302      	movs	r3, #2
 80014cc:	64bb      	str	r3, [r7, #72]	; 0x48
  RCC_OscInitStruct.PLL.PLLR = 2;
 80014ce:	2302      	movs	r3, #2
 80014d0:	64fb      	str	r3, [r7, #76]	; 0x4c
  if (HAL_RCC_OscConfig(&RCC_OscInitStruct) != HAL_OK)
 80014d2:	f107 031c 	add.w	r3, r7, #28
 80014d6:	4618      	mov	r0, r3
 80014d8:	f001 fdce 	bl	8003078 <HAL_RCC_OscConfig>
 80014dc:	4603      	mov	r3, r0
 80014de:	2b00      	cmp	r3, #0
 80014e0:	d001      	beq.n	80014e6 <SystemClock_Config+0x9e>
  {
    Error_Handler();
 80014e2:	f000 fbfb 	bl	8001cdc <Error_Handler>
  }
  /** Initializes the CPU, AHB and APB buses clocks
  */
  RCC_ClkInitStruct.ClockType = RCC_CLOCKTYPE_HCLK|RCC_CLOCKTYPE_SYSCLK
 80014e6:	230f      	movs	r3, #15
 80014e8:	60bb      	str	r3, [r7, #8]
                              |RCC_CLOCKTYPE_PCLK1|RCC_CLOCKTYPE_PCLK2;
  RCC_ClkInitStruct.SYSCLKSource = RCC_SYSCLKSOURCE_PLLCLK;
 80014ea:	2302      	movs	r3, #2
 80014ec:	60fb      	str	r3, [r7, #12]
  RCC_ClkInitStruct.AHBCLKDivider = RCC_SYSCLK_DIV1;
 80014ee:	2300      	movs	r3, #0
 80014f0:	613b      	str	r3, [r7, #16]
  RCC_ClkInitStruct.APB1CLKDivider = RCC_HCLK_DIV2;
 80014f2:	f44f 5380 	mov.w	r3, #4096	; 0x1000
 80014f6:	617b      	str	r3, [r7, #20]
  RCC_ClkInitStruct.APB2CLKDivider = RCC_HCLK_DIV1;
 80014f8:	2300      	movs	r3, #0
 80014fa:	61bb      	str	r3, [r7, #24]

  if (HAL_RCC_ClockConfig(&RCC_ClkInitStruct, FLASH_LATENCY_2) != HAL_OK)
 80014fc:	f107 0308 	add.w	r3, r7, #8
 8001500:	2102      	movs	r1, #2
 8001502:	4618      	mov	r0, r3
 8001504:	f001 faec 	bl	8002ae0 <HAL_RCC_ClockConfig>
 8001508:	4603      	mov	r3, r0
 800150a:	2b00      	cmp	r3, #0
 800150c:	d001      	beq.n	8001512 <SystemClock_Config+0xca>
  {
    Error_Handler();
 800150e:	f000 fbe5 	bl	8001cdc <Error_Handler>
  }
}
 8001512:	bf00      	nop
 8001514:	3750      	adds	r7, #80	; 0x50
 8001516:	46bd      	mov	sp, r7
 8001518:	bd80      	pop	{r7, pc}
 800151a:	bf00      	nop
 800151c:	40023800 	.word	0x40023800
 8001520:	40007000 	.word	0x40007000

08001524 <MX_TIM1_Init>:
  * @brief TIM1 Initialization Function
  * @param None
  * @retval None
  */
static void MX_TIM1_Init(void)
{
 8001524:	b580      	push	{r7, lr}
 8001526:	b096      	sub	sp, #88	; 0x58
 8001528:	af00      	add	r7, sp, #0

  /* USER CODE BEGIN TIM1_Init 0 */

  /* USER CODE END TIM1_Init 0 */

  TIM_ClockConfigTypeDef sClockSourceConfig = {0};
 800152a:	f107 0348 	add.w	r3, r7, #72	; 0x48
 800152e:	2200      	movs	r2, #0
 8001530:	601a      	str	r2, [r3, #0]
 8001532:	605a      	str	r2, [r3, #4]
 8001534:	609a      	str	r2, [r3, #8]
 8001536:	60da      	str	r2, [r3, #12]
  TIM_MasterConfigTypeDef sMasterConfig = {0};
 8001538:	f107 0340 	add.w	r3, r7, #64	; 0x40
 800153c:	2200      	movs	r2, #0
 800153e:	601a      	str	r2, [r3, #0]
 8001540:	605a      	str	r2, [r3, #4]
  TIM_OC_InitTypeDef sConfigOC = {0};
 8001542:	f107 0324 	add.w	r3, r7, #36	; 0x24
 8001546:	2200      	movs	r2, #0
 8001548:	601a      	str	r2, [r3, #0]
 800154a:	605a      	str	r2, [r3, #4]
 800154c:	609a      	str	r2, [r3, #8]
 800154e:	60da      	str	r2, [r3, #12]
 8001550:	611a      	str	r2, [r3, #16]
 8001552:	615a      	str	r2, [r3, #20]
 8001554:	619a      	str	r2, [r3, #24]
  TIM_BreakDeadTimeConfigTypeDef sBreakDeadTimeConfig = {0};
 8001556:	1d3b      	adds	r3, r7, #4
 8001558:	2220      	movs	r2, #32
 800155a:	2100      	movs	r1, #0
 800155c:	4618      	mov	r0, r3
 800155e:	f004 fc8b 	bl	8005e78 <memset>

  /* USER CODE BEGIN TIM1_Init 1 */

  /* USER CODE END TIM1_Init 1 */
  htim1.Instance = TIM1;
 8001562:	4b3f      	ldr	r3, [pc, #252]	; (8001660 <MX_TIM1_Init+0x13c>)
 8001564:	4a3f      	ldr	r2, [pc, #252]	; (8001664 <MX_TIM1_Init+0x140>)
 8001566:	601a      	str	r2, [r3, #0]
  htim1.Init.Prescaler = 3000-1;
 8001568:	4b3d      	ldr	r3, [pc, #244]	; (8001660 <MX_TIM1_Init+0x13c>)
 800156a:	f640 32b7 	movw	r2, #2999	; 0xbb7
 800156e:	605a      	str	r2, [r3, #4]
  htim1.Init.CounterMode = TIM_COUNTERMODE_UP;
 8001570:	4b3b      	ldr	r3, [pc, #236]	; (8001660 <MX_TIM1_Init+0x13c>)
 8001572:	2200      	movs	r2, #0
 8001574:	609a      	str	r2, [r3, #8]
  htim1.Init.Period = 65535;
 8001576:	4b3a      	ldr	r3, [pc, #232]	; (8001660 <MX_TIM1_Init+0x13c>)
 8001578:	f64f 72ff 	movw	r2, #65535	; 0xffff
 800157c:	60da      	str	r2, [r3, #12]
  htim1.Init.ClockDivision = TIM_CLOCKDIVISION_DIV1;
 800157e:	4b38      	ldr	r3, [pc, #224]	; (8001660 <MX_TIM1_Init+0x13c>)
 8001580:	2200      	movs	r2, #0
 8001582:	611a      	str	r2, [r3, #16]
  htim1.Init.RepetitionCounter = 0;
 8001584:	4b36      	ldr	r3, [pc, #216]	; (8001660 <MX_TIM1_Init+0x13c>)
 8001586:	2200      	movs	r2, #0
 8001588:	615a      	str	r2, [r3, #20]
  htim1.Init.AutoReloadPreload = TIM_AUTORELOAD_PRELOAD_ENABLE;
 800158a:	4b35      	ldr	r3, [pc, #212]	; (8001660 <MX_TIM1_Init+0x13c>)
 800158c:	2280      	movs	r2, #128	; 0x80
 800158e:	619a      	str	r2, [r3, #24]
  if (HAL_TIM_Base_Init(&htim1) != HAL_OK)
 8001590:	4833      	ldr	r0, [pc, #204]	; (8001660 <MX_TIM1_Init+0x13c>)
 8001592:	f002 f80f 	bl	80035b4 <HAL_TIM_Base_Init>
 8001596:	4603      	mov	r3, r0
 8001598:	2b00      	cmp	r3, #0
 800159a:	d001      	beq.n	80015a0 <MX_TIM1_Init+0x7c>
  {
    Error_Handler();
 800159c:	f000 fb9e 	bl	8001cdc <Error_Handler>
  }
  sClockSourceConfig.ClockSource = TIM_CLOCKSOURCE_INTERNAL;
 80015a0:	f44f 5380 	mov.w	r3, #4096	; 0x1000
 80015a4:	64bb      	str	r3, [r7, #72]	; 0x48
  if (HAL_TIM_ConfigClockSource(&htim1, &sClockSourceConfig) != HAL_OK)
 80015a6:	f107 0348 	add.w	r3, r7, #72	; 0x48
 80015aa:	4619      	mov	r1, r3
 80015ac:	482c      	ldr	r0, [pc, #176]	; (8001660 <MX_TIM1_Init+0x13c>)
 80015ae:	f002 fdc1 	bl	8004134 <HAL_TIM_ConfigClockSource>
 80015b2:	4603      	mov	r3, r0
 80015b4:	2b00      	cmp	r3, #0
 80015b6:	d001      	beq.n	80015bc <MX_TIM1_Init+0x98>
  {
    Error_Handler();
 80015b8:	f000 fb90 	bl	8001cdc <Error_Handler>
  }
  if (HAL_TIM_PWM_Init(&htim1) != HAL_OK)
 80015bc:	4828      	ldr	r0, [pc, #160]	; (8001660 <MX_TIM1_Init+0x13c>)
 80015be:	f002 f8b9 	bl	8003734 <HAL_TIM_PWM_Init>
 80015c2:	4603      	mov	r3, r0
 80015c4:	2b00      	cmp	r3, #0
 80015c6:	d001      	beq.n	80015cc <MX_TIM1_Init+0xa8>
  {
    Error_Handler();
 80015c8:	f000 fb88 	bl	8001cdc <Error_Handler>
  }
  sMasterConfig.MasterOutputTrigger = TIM_TRGO_RESET;
 80015cc:	2300      	movs	r3, #0
 80015ce:	643b      	str	r3, [r7, #64]	; 0x40
  sMasterConfig.MasterSlaveMode = TIM_MASTERSLAVEMODE_DISABLE;
 80015d0:	2300      	movs	r3, #0
 80015d2:	647b      	str	r3, [r7, #68]	; 0x44
  if (HAL_TIMEx_MasterConfigSynchronization(&htim1, &sMasterConfig) != HAL_OK)
 80015d4:	f107 0340 	add.w	r3, r7, #64	; 0x40
 80015d8:	4619      	mov	r1, r3
 80015da:	4821      	ldr	r0, [pc, #132]	; (8001660 <MX_TIM1_Init+0x13c>)
 80015dc:	f003 fb0e 	bl	8004bfc <HAL_TIMEx_MasterConfigSynchronization>
 80015e0:	4603      	mov	r3, r0
 80015e2:	2b00      	cmp	r3, #0
 80015e4:	d001      	beq.n	80015ea <MX_TIM1_Init+0xc6>
  {
    Error_Handler();
 80015e6:	f000 fb79 	bl	8001cdc <Error_Handler>
  }
  sConfigOC.OCMode = TIM_OCMODE_PWM1;
 80015ea:	2360      	movs	r3, #96	; 0x60
 80015ec:	627b      	str	r3, [r7, #36]	; 0x24
  sConfigOC.Pulse = 100;
 80015ee:	2364      	movs	r3, #100	; 0x64
 80015f0:	62bb      	str	r3, [r7, #40]	; 0x28
  sConfigOC.OCPolarity = TIM_OCPOLARITY_HIGH;
 80015f2:	2300      	movs	r3, #0
 80015f4:	62fb      	str	r3, [r7, #44]	; 0x2c
  sConfigOC.OCNPolarity = TIM_OCNPOLARITY_HIGH;
 80015f6:	2300      	movs	r3, #0
 80015f8:	633b      	str	r3, [r7, #48]	; 0x30
  sConfigOC.OCFastMode = TIM_OCFAST_DISABLE;
 80015fa:	2300      	movs	r3, #0
 80015fc:	637b      	str	r3, [r7, #52]	; 0x34
  sConfigOC.OCIdleState = TIM_OCIDLESTATE_RESET;
 80015fe:	2300      	movs	r3, #0
 8001600:	63bb      	str	r3, [r7, #56]	; 0x38
  sConfigOC.OCNIdleState = TIM_OCNIDLESTATE_RESET;
 8001602:	2300      	movs	r3, #0
 8001604:	63fb      	str	r3, [r7, #60]	; 0x3c
  if (HAL_TIM_PWM_ConfigChannel(&htim1, &sConfigOC, TIM_CHANNEL_1) != HAL_OK)
 8001606:	f107 0324 	add.w	r3, r7, #36	; 0x24
 800160a:	2200      	movs	r2, #0
 800160c:	4619      	mov	r1, r3
 800160e:	4814      	ldr	r0, [pc, #80]	; (8001660 <MX_TIM1_Init+0x13c>)
 8001610:	f002 fcce 	bl	8003fb0 <HAL_TIM_PWM_ConfigChannel>
 8001614:	4603      	mov	r3, r0
 8001616:	2b00      	cmp	r3, #0
 8001618:	d001      	beq.n	800161e <MX_TIM1_Init+0xfa>
  {
    Error_Handler();
 800161a:	f000 fb5f 	bl	8001cdc <Error_Handler>
  }
  sBreakDeadTimeConfig.OffStateRunMode = TIM_OSSR_DISABLE;
 800161e:	2300      	movs	r3, #0
 8001620:	607b      	str	r3, [r7, #4]
  sBreakDeadTimeConfig.OffStateIDLEMode = TIM_OSSI_DISABLE;
 8001622:	2300      	movs	r3, #0
 8001624:	60bb      	str	r3, [r7, #8]
  sBreakDeadTimeConfig.LockLevel = TIM_LOCKLEVEL_OFF;
 8001626:	2300      	movs	r3, #0
 8001628:	60fb      	str	r3, [r7, #12]
  sBreakDeadTimeConfig.DeadTime = 0;
 800162a:	2300      	movs	r3, #0
 800162c:	613b      	str	r3, [r7, #16]
  sBreakDeadTimeConfig.BreakState = TIM_BREAK_DISABLE;
 800162e:	2300      	movs	r3, #0
 8001630:	617b      	str	r3, [r7, #20]
  sBreakDeadTimeConfig.BreakPolarity = TIM_BREAKPOLARITY_HIGH;
 8001632:	f44f 5300 	mov.w	r3, #8192	; 0x2000
 8001636:	61bb      	str	r3, [r7, #24]
  sBreakDeadTimeConfig.AutomaticOutput = TIM_AUTOMATICOUTPUT_DISABLE;
 8001638:	2300      	movs	r3, #0
 800163a:	623b      	str	r3, [r7, #32]
  if (HAL_TIMEx_ConfigBreakDeadTime(&htim1, &sBreakDeadTimeConfig) != HAL_OK)
 800163c:	1d3b      	adds	r3, r7, #4
 800163e:	4619      	mov	r1, r3
 8001640:	4807      	ldr	r0, [pc, #28]	; (8001660 <MX_TIM1_Init+0x13c>)
 8001642:	f003 fb57 	bl	8004cf4 <HAL_TIMEx_ConfigBreakDeadTime>
 8001646:	4603      	mov	r3, r0
 8001648:	2b00      	cmp	r3, #0
 800164a:	d001      	beq.n	8001650 <MX_TIM1_Init+0x12c>
  {
    Error_Handler();
 800164c:	f000 fb46 	bl	8001cdc <Error_Handler>
  }
  /* USER CODE BEGIN TIM1_Init 2 */

  /* USER CODE END TIM1_Init 2 */
  HAL_TIM_MspPostInit(&htim1);
 8001650:	4803      	ldr	r0, [pc, #12]	; (8001660 <MX_TIM1_Init+0x13c>)
 8001652:	f000 fc71 	bl	8001f38 <HAL_TIM_MspPostInit>

}
 8001656:	bf00      	nop
 8001658:	3758      	adds	r7, #88	; 0x58
 800165a:	46bd      	mov	sp, r7
 800165c:	bd80      	pop	{r7, pc}
 800165e:	bf00      	nop
 8001660:	20000414 	.word	0x20000414
 8001664:	40010000 	.word	0x40010000

08001668 <MX_TIM3_Init>:
  * @brief TIM3 Initialization Function
  * @param None
  * @retval None
  */
static void MX_TIM3_Init(void)
{
 8001668:	b580      	push	{r7, lr}
 800166a:	b08e      	sub	sp, #56	; 0x38
 800166c:	af00      	add	r7, sp, #0

  /* USER CODE BEGIN TIM3_Init 0 */

  /* USER CODE END TIM3_Init 0 */

  TIM_ClockConfigTypeDef sClockSourceConfig = {0};
 800166e:	f107 0328 	add.w	r3, r7, #40	; 0x28
 8001672:	2200      	movs	r2, #0
 8001674:	601a      	str	r2, [r3, #0]
 8001676:	605a      	str	r2, [r3, #4]
 8001678:	609a      	str	r2, [r3, #8]
 800167a:	60da      	str	r2, [r3, #12]
  TIM_MasterConfigTypeDef sMasterConfig = {0};
 800167c:	f107 0320 	add.w	r3, r7, #32
 8001680:	2200      	movs	r2, #0
 8001682:	601a      	str	r2, [r3, #0]
 8001684:	605a      	str	r2, [r3, #4]
  TIM_OC_InitTypeDef sConfigOC = {0};
 8001686:	1d3b      	adds	r3, r7, #4
 8001688:	2200      	movs	r2, #0
 800168a:	601a      	str	r2, [r3, #0]
 800168c:	605a      	str	r2, [r3, #4]
 800168e:	609a      	str	r2, [r3, #8]
 8001690:	60da      	str	r2, [r3, #12]
 8001692:	611a      	str	r2, [r3, #16]
 8001694:	615a      	str	r2, [r3, #20]
 8001696:	619a      	str	r2, [r3, #24]

  /* USER CODE BEGIN TIM3_Init 1 */

  /* USER CODE END TIM3_Init 1 */
  htim3.Instance = TIM3;
 8001698:	4b2d      	ldr	r3, [pc, #180]	; (8001750 <MX_TIM3_Init+0xe8>)
 800169a:	4a2e      	ldr	r2, [pc, #184]	; (8001754 <MX_TIM3_Init+0xec>)
 800169c:	601a      	str	r2, [r3, #0]
  htim3.Init.Prescaler = 3000-1;
 800169e:	4b2c      	ldr	r3, [pc, #176]	; (8001750 <MX_TIM3_Init+0xe8>)
 80016a0:	f640 32b7 	movw	r2, #2999	; 0xbb7
 80016a4:	605a      	str	r2, [r3, #4]
  htim3.Init.CounterMode = TIM_COUNTERMODE_UP;
 80016a6:	4b2a      	ldr	r3, [pc, #168]	; (8001750 <MX_TIM3_Init+0xe8>)
 80016a8:	2200      	movs	r2, #0
 80016aa:	609a      	str	r2, [r3, #8]
  htim3.Init.Period = 65535;
 80016ac:	4b28      	ldr	r3, [pc, #160]	; (8001750 <MX_TIM3_Init+0xe8>)
 80016ae:	f64f 72ff 	movw	r2, #65535	; 0xffff
 80016b2:	60da      	str	r2, [r3, #12]
  htim3.Init.ClockDivision = TIM_CLOCKDIVISION_DIV1;
 80016b4:	4b26      	ldr	r3, [pc, #152]	; (8001750 <MX_TIM3_Init+0xe8>)
 80016b6:	2200      	movs	r2, #0
 80016b8:	611a      	str	r2, [r3, #16]
  htim3.Init.AutoReloadPreload = TIM_AUTORELOAD_PRELOAD_DISABLE;
 80016ba:	4b25      	ldr	r3, [pc, #148]	; (8001750 <MX_TIM3_Init+0xe8>)
 80016bc:	2200      	movs	r2, #0
 80016be:	619a      	str	r2, [r3, #24]
  if (HAL_TIM_Base_Init(&htim3) != HAL_OK)
 80016c0:	4823      	ldr	r0, [pc, #140]	; (8001750 <MX_TIM3_Init+0xe8>)
 80016c2:	f001 ff77 	bl	80035b4 <HAL_TIM_Base_Init>
 80016c6:	4603      	mov	r3, r0
 80016c8:	2b00      	cmp	r3, #0
 80016ca:	d001      	beq.n	80016d0 <MX_TIM3_Init+0x68>
  {
    Error_Handler();
 80016cc:	f000 fb06 	bl	8001cdc <Error_Handler>
  }
  sClockSourceConfig.ClockSource = TIM_CLOCKSOURCE_INTERNAL;
 80016d0:	f44f 5380 	mov.w	r3, #4096	; 0x1000
 80016d4:	62bb      	str	r3, [r7, #40]	; 0x28
  if (HAL_TIM_ConfigClockSource(&htim3, &sClockSourceConfig) != HAL_OK)
 80016d6:	f107 0328 	add.w	r3, r7, #40	; 0x28
 80016da:	4619      	mov	r1, r3
 80016dc:	481c      	ldr	r0, [pc, #112]	; (8001750 <MX_TIM3_Init+0xe8>)
 80016de:	f002 fd29 	bl	8004134 <HAL_TIM_ConfigClockSource>
 80016e2:	4603      	mov	r3, r0
 80016e4:	2b00      	cmp	r3, #0
 80016e6:	d001      	beq.n	80016ec <MX_TIM3_Init+0x84>
  {
    Error_Handler();
 80016e8:	f000 faf8 	bl	8001cdc <Error_Handler>
  }
  if (HAL_TIM_PWM_Init(&htim3) != HAL_OK)
 80016ec:	4818      	ldr	r0, [pc, #96]	; (8001750 <MX_TIM3_Init+0xe8>)
 80016ee:	f002 f821 	bl	8003734 <HAL_TIM_PWM_Init>
 80016f2:	4603      	mov	r3, r0
 80016f4:	2b00      	cmp	r3, #0
 80016f6:	d001      	beq.n	80016fc <MX_TIM3_Init+0x94>
  {
    Error_Handler();
 80016f8:	f000 faf0 	bl	8001cdc <Error_Handler>
  }
  sMasterConfig.MasterOutputTrigger = TIM_TRGO_RESET;
 80016fc:	2300      	movs	r3, #0
 80016fe:	623b      	str	r3, [r7, #32]
  sMasterConfig.MasterSlaveMode = TIM_MASTERSLAVEMODE_DISABLE;
 8001700:	2300      	movs	r3, #0
 8001702:	627b      	str	r3, [r7, #36]	; 0x24
  if (HAL_TIMEx_MasterConfigSynchronization(&htim3, &sMasterConfig) != HAL_OK)
 8001704:	f107 0320 	add.w	r3, r7, #32
 8001708:	4619      	mov	r1, r3
 800170a:	4811      	ldr	r0, [pc, #68]	; (8001750 <MX_TIM3_Init+0xe8>)
 800170c:	f003 fa76 	bl	8004bfc <HAL_TIMEx_MasterConfigSynchronization>
 8001710:	4603      	mov	r3, r0
 8001712:	2b00      	cmp	r3, #0
 8001714:	d001      	beq.n	800171a <MX_TIM3_Init+0xb2>
  {
    Error_Handler();
 8001716:	f000 fae1 	bl	8001cdc <Error_Handler>
  }
  sConfigOC.OCMode = TIM_OCMODE_PWM1;
 800171a:	2360      	movs	r3, #96	; 0x60
 800171c:	607b      	str	r3, [r7, #4]
  sConfigOC.Pulse = 100;
 800171e:	2364      	movs	r3, #100	; 0x64
 8001720:	60bb      	str	r3, [r7, #8]
  sConfigOC.OCPolarity = TIM_OCPOLARITY_HIGH;
 8001722:	2300      	movs	r3, #0
 8001724:	60fb      	str	r3, [r7, #12]
  sConfigOC.OCFastMode = TIM_OCFAST_DISABLE;
 8001726:	2300      	movs	r3, #0
 8001728:	617b      	str	r3, [r7, #20]
  if (HAL_TIM_PWM_ConfigChannel(&htim3, &sConfigOC, TIM_CHANNEL_1) != HAL_OK)
 800172a:	1d3b      	adds	r3, r7, #4
 800172c:	2200      	movs	r2, #0
 800172e:	4619      	mov	r1, r3
 8001730:	4807      	ldr	r0, [pc, #28]	; (8001750 <MX_TIM3_Init+0xe8>)
 8001732:	f002 fc3d 	bl	8003fb0 <HAL_TIM_PWM_ConfigChannel>
 8001736:	4603      	mov	r3, r0
 8001738:	2b00      	cmp	r3, #0
 800173a:	d001      	beq.n	8001740 <MX_TIM3_Init+0xd8>
  {
    Error_Handler();
 800173c:	f000 face 	bl	8001cdc <Error_Handler>
  }
  /* USER CODE BEGIN TIM3_Init 2 */

  /* USER CODE END TIM3_Init 2 */
  HAL_TIM_MspPostInit(&htim3);
 8001740:	4803      	ldr	r0, [pc, #12]	; (8001750 <MX_TIM3_Init+0xe8>)
 8001742:	f000 fbf9 	bl	8001f38 <HAL_TIM_MspPostInit>

}
 8001746:	bf00      	nop
 8001748:	3738      	adds	r7, #56	; 0x38
 800174a:	46bd      	mov	sp, r7
 800174c:	bd80      	pop	{r7, pc}
 800174e:	bf00      	nop
 8001750:	200003c8 	.word	0x200003c8
 8001754:	40000400 	.word	0x40000400

08001758 <MX_TIM4_Init>:
  * @brief TIM4 Initialization Function
  * @param None
  * @retval None
  */
static void MX_TIM4_Init(void)
{
 8001758:	b580      	push	{r7, lr}
 800175a:	b08e      	sub	sp, #56	; 0x38
 800175c:	af00      	add	r7, sp, #0

  /* USER CODE BEGIN TIM4_Init 0 */

  /* USER CODE END TIM4_Init 0 */

  TIM_ClockConfigTypeDef sClockSourceConfig = {0};
 800175e:	f107 0328 	add.w	r3, r7, #40	; 0x28
 8001762:	2200      	movs	r2, #0
 8001764:	601a      	str	r2, [r3, #0]
 8001766:	605a      	str	r2, [r3, #4]
 8001768:	609a      	str	r2, [r3, #8]
 800176a:	60da      	str	r2, [r3, #12]
  TIM_MasterConfigTypeDef sMasterConfig = {0};
 800176c:	f107 0320 	add.w	r3, r7, #32
 8001770:	2200      	movs	r2, #0
 8001772:	601a      	str	r2, [r3, #0]
 8001774:	605a      	str	r2, [r3, #4]
  TIM_OC_InitTypeDef sConfigOC = {0};
 8001776:	1d3b      	adds	r3, r7, #4
 8001778:	2200      	movs	r2, #0
 800177a:	601a      	str	r2, [r3, #0]
 800177c:	605a      	str	r2, [r3, #4]
 800177e:	609a      	str	r2, [r3, #8]
 8001780:	60da      	str	r2, [r3, #12]
 8001782:	611a      	str	r2, [r3, #16]
 8001784:	615a      	str	r2, [r3, #20]
 8001786:	619a      	str	r2, [r3, #24]

  /* USER CODE BEGIN TIM4_Init 1 */

  /* USER CODE END TIM4_Init 1 */
  htim4.Instance = TIM4;
 8001788:	4b2d      	ldr	r3, [pc, #180]	; (8001840 <MX_TIM4_Init+0xe8>)
 800178a:	4a2e      	ldr	r2, [pc, #184]	; (8001844 <MX_TIM4_Init+0xec>)
 800178c:	601a      	str	r2, [r3, #0]
  htim4.Init.Prescaler = 3000-1;
 800178e:	4b2c      	ldr	r3, [pc, #176]	; (8001840 <MX_TIM4_Init+0xe8>)
 8001790:	f640 32b7 	movw	r2, #2999	; 0xbb7
 8001794:	605a      	str	r2, [r3, #4]
  htim4.Init.CounterMode = TIM_COUNTERMODE_UP;
 8001796:	4b2a      	ldr	r3, [pc, #168]	; (8001840 <MX_TIM4_Init+0xe8>)
 8001798:	2200      	movs	r2, #0
 800179a:	609a      	str	r2, [r3, #8]
  htim4.Init.Period = 65535;
 800179c:	4b28      	ldr	r3, [pc, #160]	; (8001840 <MX_TIM4_Init+0xe8>)
 800179e:	f64f 72ff 	movw	r2, #65535	; 0xffff
 80017a2:	60da      	str	r2, [r3, #12]
  htim4.Init.ClockDivision = TIM_CLOCKDIVISION_DIV1;
 80017a4:	4b26      	ldr	r3, [pc, #152]	; (8001840 <MX_TIM4_Init+0xe8>)
 80017a6:	2200      	movs	r2, #0
 80017a8:	611a      	str	r2, [r3, #16]
  htim4.Init.AutoReloadPreload = TIM_AUTORELOAD_PRELOAD_DISABLE;
 80017aa:	4b25      	ldr	r3, [pc, #148]	; (8001840 <MX_TIM4_Init+0xe8>)
 80017ac:	2200      	movs	r2, #0
 80017ae:	619a      	str	r2, [r3, #24]
  if (HAL_TIM_Base_Init(&htim4) != HAL_OK)
 80017b0:	4823      	ldr	r0, [pc, #140]	; (8001840 <MX_TIM4_Init+0xe8>)
 80017b2:	f001 feff 	bl	80035b4 <HAL_TIM_Base_Init>
 80017b6:	4603      	mov	r3, r0
 80017b8:	2b00      	cmp	r3, #0
 80017ba:	d001      	beq.n	80017c0 <MX_TIM4_Init+0x68>
  {
    Error_Handler();
 80017bc:	f000 fa8e 	bl	8001cdc <Error_Handler>
  }
  sClockSourceConfig.ClockSource = TIM_CLOCKSOURCE_INTERNAL;
 80017c0:	f44f 5380 	mov.w	r3, #4096	; 0x1000
 80017c4:	62bb      	str	r3, [r7, #40]	; 0x28
  if (HAL_TIM_ConfigClockSource(&htim4, &sClockSourceConfig) != HAL_OK)
 80017c6:	f107 0328 	add.w	r3, r7, #40	; 0x28
 80017ca:	4619      	mov	r1, r3
 80017cc:	481c      	ldr	r0, [pc, #112]	; (8001840 <MX_TIM4_Init+0xe8>)
 80017ce:	f002 fcb1 	bl	8004134 <HAL_TIM_ConfigClockSource>
 80017d2:	4603      	mov	r3, r0
 80017d4:	2b00      	cmp	r3, #0
 80017d6:	d001      	beq.n	80017dc <MX_TIM4_Init+0x84>
  {
    Error_Handler();
 80017d8:	f000 fa80 	bl	8001cdc <Error_Handler>
  }
  if (HAL_TIM_PWM_Init(&htim4) != HAL_OK)
 80017dc:	4818      	ldr	r0, [pc, #96]	; (8001840 <MX_TIM4_Init+0xe8>)
 80017de:	f001 ffa9 	bl	8003734 <HAL_TIM_PWM_Init>
 80017e2:	4603      	mov	r3, r0
 80017e4:	2b00      	cmp	r3, #0
 80017e6:	d001      	beq.n	80017ec <MX_TIM4_Init+0x94>
  {
    Error_Handler();
 80017e8:	f000 fa78 	bl	8001cdc <Error_Handler>
  }
  sMasterConfig.MasterOutputTrigger = TIM_TRGO_RESET;
 80017ec:	2300      	movs	r3, #0
 80017ee:	623b      	str	r3, [r7, #32]
  sMasterConfig.MasterSlaveMode = TIM_MASTERSLAVEMODE_DISABLE;
 80017f0:	2300      	movs	r3, #0
 80017f2:	627b      	str	r3, [r7, #36]	; 0x24
  if (HAL_TIMEx_MasterConfigSynchronization(&htim4, &sMasterConfig) != HAL_OK)
 80017f4:	f107 0320 	add.w	r3, r7, #32
 80017f8:	4619      	mov	r1, r3
 80017fa:	4811      	ldr	r0, [pc, #68]	; (8001840 <MX_TIM4_Init+0xe8>)
 80017fc:	f003 f9fe 	bl	8004bfc <HAL_TIMEx_MasterConfigSynchronization>
 8001800:	4603      	mov	r3, r0
 8001802:	2b00      	cmp	r3, #0
 8001804:	d001      	beq.n	800180a <MX_TIM4_Init+0xb2>
  {
    Error_Handler();
 8001806:	f000 fa69 	bl	8001cdc <Error_Handler>
  }
  sConfigOC.OCMode = TIM_OCMODE_PWM1;
 800180a:	2360      	movs	r3, #96	; 0x60
 800180c:	607b      	str	r3, [r7, #4]
  sConfigOC.Pulse = 100;
 800180e:	2364      	movs	r3, #100	; 0x64
 8001810:	60bb      	str	r3, [r7, #8]
  sConfigOC.OCPolarity = TIM_OCPOLARITY_HIGH;
 8001812:	2300      	movs	r3, #0
 8001814:	60fb      	str	r3, [r7, #12]
  sConfigOC.OCFastMode = TIM_OCFAST_DISABLE;
 8001816:	2300      	movs	r3, #0
 8001818:	617b      	str	r3, [r7, #20]
  if (HAL_TIM_PWM_ConfigChannel(&htim4, &sConfigOC, TIM_CHANNEL_1) != HAL_OK)
 800181a:	1d3b      	adds	r3, r7, #4
 800181c:	2200      	movs	r2, #0
 800181e:	4619      	mov	r1, r3
 8001820:	4807      	ldr	r0, [pc, #28]	; (8001840 <MX_TIM4_Init+0xe8>)
 8001822:	f002 fbc5 	bl	8003fb0 <HAL_TIM_PWM_ConfigChannel>
 8001826:	4603      	mov	r3, r0
 8001828:	2b00      	cmp	r3, #0
 800182a:	d001      	beq.n	8001830 <MX_TIM4_Init+0xd8>
  {
    Error_Handler();
 800182c:	f000 fa56 	bl	8001cdc <Error_Handler>
  }
  /* USER CODE BEGIN TIM4_Init 2 */

  /* USER CODE END TIM4_Init 2 */
  HAL_TIM_MspPostInit(&htim4);
 8001830:	4803      	ldr	r0, [pc, #12]	; (8001840 <MX_TIM4_Init+0xe8>)
 8001832:	f000 fb81 	bl	8001f38 <HAL_TIM_MspPostInit>

}
 8001836:	bf00      	nop
 8001838:	3738      	adds	r7, #56	; 0x38
 800183a:	46bd      	mov	sp, r7
 800183c:	bd80      	pop	{r7, pc}
 800183e:	bf00      	nop
 8001840:	20000304 	.word	0x20000304
 8001844:	40000800 	.word	0x40000800

08001848 <MX_TIM5_Init>:
  * @brief TIM5 Initialization Function
  * @param None
  * @retval None
  */
static void MX_TIM5_Init(void)
{
 8001848:	b580      	push	{r7, lr}
 800184a:	b08a      	sub	sp, #40	; 0x28
 800184c:	af00      	add	r7, sp, #0

  /* USER CODE BEGIN TIM5_Init 0 */

  /* USER CODE END TIM5_Init 0 */

  TIM_MasterConfigTypeDef sMasterConfig = {0};
 800184e:	f107 0320 	add.w	r3, r7, #32
 8001852:	2200      	movs	r2, #0
 8001854:	601a      	str	r2, [r3, #0]
 8001856:	605a      	str	r2, [r3, #4]
  TIM_OC_InitTypeDef sConfigOC = {0};
 8001858:	1d3b      	adds	r3, r7, #4
 800185a:	2200      	movs	r2, #0
 800185c:	601a      	str	r2, [r3, #0]
 800185e:	605a      	str	r2, [r3, #4]
 8001860:	609a      	str	r2, [r3, #8]
 8001862:	60da      	str	r2, [r3, #12]
 8001864:	611a      	str	r2, [r3, #16]
 8001866:	615a      	str	r2, [r3, #20]
 8001868:	619a      	str	r2, [r3, #24]

  /* USER CODE BEGIN TIM5_Init 1 */

  /* USER CODE END TIM5_Init 1 */
  htim5.Instance = TIM5;
 800186a:	4b22      	ldr	r3, [pc, #136]	; (80018f4 <MX_TIM5_Init+0xac>)
 800186c:	4a22      	ldr	r2, [pc, #136]	; (80018f8 <MX_TIM5_Init+0xb0>)
 800186e:	601a      	str	r2, [r3, #0]
  htim5.Init.Prescaler = 3000-1;
 8001870:	4b20      	ldr	r3, [pc, #128]	; (80018f4 <MX_TIM5_Init+0xac>)
 8001872:	f640 32b7 	movw	r2, #2999	; 0xbb7
 8001876:	605a      	str	r2, [r3, #4]
  htim5.Init.CounterMode = TIM_COUNTERMODE_UP;
 8001878:	4b1e      	ldr	r3, [pc, #120]	; (80018f4 <MX_TIM5_Init+0xac>)
 800187a:	2200      	movs	r2, #0
 800187c:	609a      	str	r2, [r3, #8]
  htim5.Init.Period = 4294967295;
 800187e:	4b1d      	ldr	r3, [pc, #116]	; (80018f4 <MX_TIM5_Init+0xac>)
 8001880:	f04f 32ff 	mov.w	r2, #4294967295	; 0xffffffff
 8001884:	60da      	str	r2, [r3, #12]
  htim5.Init.ClockDivision = TIM_CLOCKDIVISION_DIV1;
 8001886:	4b1b      	ldr	r3, [pc, #108]	; (80018f4 <MX_TIM5_Init+0xac>)
 8001888:	2200      	movs	r2, #0
 800188a:	611a      	str	r2, [r3, #16]
  htim5.Init.AutoReloadPreload = TIM_AUTORELOAD_PRELOAD_DISABLE;
 800188c:	4b19      	ldr	r3, [pc, #100]	; (80018f4 <MX_TIM5_Init+0xac>)
 800188e:	2200      	movs	r2, #0
 8001890:	619a      	str	r2, [r3, #24]
  if (HAL_TIM_PWM_Init(&htim5) != HAL_OK)
 8001892:	4818      	ldr	r0, [pc, #96]	; (80018f4 <MX_TIM5_Init+0xac>)
 8001894:	f001 ff4e 	bl	8003734 <HAL_TIM_PWM_Init>
 8001898:	4603      	mov	r3, r0
 800189a:	2b00      	cmp	r3, #0
 800189c:	d001      	beq.n	80018a2 <MX_TIM5_Init+0x5a>
  {
    Error_Handler();
 800189e:	f000 fa1d 	bl	8001cdc <Error_Handler>
  }
  sMasterConfig.MasterOutputTrigger = TIM_TRGO_RESET;
 80018a2:	2300      	movs	r3, #0
 80018a4:	623b      	str	r3, [r7, #32]
  sMasterConfig.MasterSlaveMode = TIM_MASTERSLAVEMODE_DISABLE;
 80018a6:	2300      	movs	r3, #0
 80018a8:	627b      	str	r3, [r7, #36]	; 0x24
  if (HAL_TIMEx_MasterConfigSynchronization(&htim5, &sMasterConfig) != HAL_OK)
 80018aa:	f107 0320 	add.w	r3, r7, #32
 80018ae:	4619      	mov	r1, r3
 80018b0:	4810      	ldr	r0, [pc, #64]	; (80018f4 <MX_TIM5_Init+0xac>)
 80018b2:	f003 f9a3 	bl	8004bfc <HAL_TIMEx_MasterConfigSynchronization>
 80018b6:	4603      	mov	r3, r0
 80018b8:	2b00      	cmp	r3, #0
 80018ba:	d001      	beq.n	80018c0 <MX_TIM5_Init+0x78>
  {
    Error_Handler();
 80018bc:	f000 fa0e 	bl	8001cdc <Error_Handler>
  }
  sConfigOC.OCMode = TIM_OCMODE_PWM1;
 80018c0:	2360      	movs	r3, #96	; 0x60
 80018c2:	607b      	str	r3, [r7, #4]
  sConfigOC.Pulse = 100;
 80018c4:	2364      	movs	r3, #100	; 0x64
 80018c6:	60bb      	str	r3, [r7, #8]
  sConfigOC.OCPolarity = TIM_OCPOLARITY_HIGH;
 80018c8:	2300      	movs	r3, #0
 80018ca:	60fb      	str	r3, [r7, #12]
  sConfigOC.OCFastMode = TIM_OCFAST_DISABLE;
 80018cc:	2300      	movs	r3, #0
 80018ce:	617b      	str	r3, [r7, #20]
  if (HAL_TIM_PWM_ConfigChannel(&htim5, &sConfigOC, TIM_CHANNEL_1) != HAL_OK)
 80018d0:	1d3b      	adds	r3, r7, #4
 80018d2:	2200      	movs	r2, #0
 80018d4:	4619      	mov	r1, r3
 80018d6:	4807      	ldr	r0, [pc, #28]	; (80018f4 <MX_TIM5_Init+0xac>)
 80018d8:	f002 fb6a 	bl	8003fb0 <HAL_TIM_PWM_ConfigChannel>
 80018dc:	4603      	mov	r3, r0
 80018de:	2b00      	cmp	r3, #0
 80018e0:	d001      	beq.n	80018e6 <MX_TIM5_Init+0x9e>
  {
    Error_Handler();
 80018e2:	f000 f9fb 	bl	8001cdc <Error_Handler>
  }
  /* USER CODE BEGIN TIM5_Init 2 */

  /* USER CODE END TIM5_Init 2 */
  HAL_TIM_MspPostInit(&htim5);
 80018e6:	4803      	ldr	r0, [pc, #12]	; (80018f4 <MX_TIM5_Init+0xac>)
 80018e8:	f000 fb26 	bl	8001f38 <HAL_TIM_MspPostInit>

}
 80018ec:	bf00      	nop
 80018ee:	3728      	adds	r7, #40	; 0x28
 80018f0:	46bd      	mov	sp, r7
 80018f2:	bd80      	pop	{r7, pc}
 80018f4:	20000380 	.word	0x20000380
 80018f8:	40000c00 	.word	0x40000c00

080018fc <MX_TIM8_Init>:
  * @brief TIM8 Initialization Function
  * @param None
  * @retval None
  */
static void MX_TIM8_Init(void)
{
 80018fc:	b580      	push	{r7, lr}
 80018fe:	b096      	sub	sp, #88	; 0x58
 8001900:	af00      	add	r7, sp, #0

  /* USER CODE BEGIN TIM8_Init 0 */

  /* USER CODE END TIM8_Init 0 */

  TIM_ClockConfigTypeDef sClockSourceConfig = {0};
 8001902:	f107 0348 	add.w	r3, r7, #72	; 0x48
 8001906:	2200      	movs	r2, #0
 8001908:	601a      	str	r2, [r3, #0]
 800190a:	605a      	str	r2, [r3, #4]
 800190c:	609a      	str	r2, [r3, #8]
 800190e:	60da      	str	r2, [r3, #12]
  TIM_MasterConfigTypeDef sMasterConfig = {0};
 8001910:	f107 0340 	add.w	r3, r7, #64	; 0x40
 8001914:	2200      	movs	r2, #0
 8001916:	601a      	str	r2, [r3, #0]
 8001918:	605a      	str	r2, [r3, #4]
  TIM_OC_InitTypeDef sConfigOC = {0};
 800191a:	f107 0324 	add.w	r3, r7, #36	; 0x24
 800191e:	2200      	movs	r2, #0
 8001920:	601a      	str	r2, [r3, #0]
 8001922:	605a      	str	r2, [r3, #4]
 8001924:	609a      	str	r2, [r3, #8]
 8001926:	60da      	str	r2, [r3, #12]
 8001928:	611a      	str	r2, [r3, #16]
 800192a:	615a      	str	r2, [r3, #20]
 800192c:	619a      	str	r2, [r3, #24]
  TIM_BreakDeadTimeConfigTypeDef sBreakDeadTimeConfig = {0};
 800192e:	1d3b      	adds	r3, r7, #4
 8001930:	2220      	movs	r2, #32
 8001932:	2100      	movs	r1, #0
 8001934:	4618      	mov	r0, r3
 8001936:	f004 fa9f 	bl	8005e78 <memset>

  /* USER CODE BEGIN TIM8_Init 1 */

  /* USER CODE END TIM8_Init 1 */
  htim8.Instance = TIM8;
 800193a:	4b3f      	ldr	r3, [pc, #252]	; (8001a38 <MX_TIM8_Init+0x13c>)
 800193c:	4a3f      	ldr	r2, [pc, #252]	; (8001a3c <MX_TIM8_Init+0x140>)
 800193e:	601a      	str	r2, [r3, #0]
  htim8.Init.Prescaler = 3000-1;
 8001940:	4b3d      	ldr	r3, [pc, #244]	; (8001a38 <MX_TIM8_Init+0x13c>)
 8001942:	f640 32b7 	movw	r2, #2999	; 0xbb7
 8001946:	605a      	str	r2, [r3, #4]
  htim8.Init.CounterMode = TIM_COUNTERMODE_UP;
 8001948:	4b3b      	ldr	r3, [pc, #236]	; (8001a38 <MX_TIM8_Init+0x13c>)
 800194a:	2200      	movs	r2, #0
 800194c:	609a      	str	r2, [r3, #8]
  htim8.Init.Period = 65535;
 800194e:	4b3a      	ldr	r3, [pc, #232]	; (8001a38 <MX_TIM8_Init+0x13c>)
 8001950:	f64f 72ff 	movw	r2, #65535	; 0xffff
 8001954:	60da      	str	r2, [r3, #12]
  htim8.Init.ClockDivision = TIM_CLOCKDIVISION_DIV1;
 8001956:	4b38      	ldr	r3, [pc, #224]	; (8001a38 <MX_TIM8_Init+0x13c>)
 8001958:	2200      	movs	r2, #0
 800195a:	611a      	str	r2, [r3, #16]
  htim8.Init.RepetitionCounter = 0;
 800195c:	4b36      	ldr	r3, [pc, #216]	; (8001a38 <MX_TIM8_Init+0x13c>)
 800195e:	2200      	movs	r2, #0
 8001960:	615a      	str	r2, [r3, #20]
  htim8.Init.AutoReloadPreload = TIM_AUTORELOAD_PRELOAD_DISABLE;
 8001962:	4b35      	ldr	r3, [pc, #212]	; (8001a38 <MX_TIM8_Init+0x13c>)
 8001964:	2200      	movs	r2, #0
 8001966:	619a      	str	r2, [r3, #24]
  if (HAL_TIM_Base_Init(&htim8) != HAL_OK)
 8001968:	4833      	ldr	r0, [pc, #204]	; (8001a38 <MX_TIM8_Init+0x13c>)
 800196a:	f001 fe23 	bl	80035b4 <HAL_TIM_Base_Init>
 800196e:	4603      	mov	r3, r0
 8001970:	2b00      	cmp	r3, #0
 8001972:	d001      	beq.n	8001978 <MX_TIM8_Init+0x7c>
  {
    Error_Handler();
 8001974:	f000 f9b2 	bl	8001cdc <Error_Handler>
  }
  sClockSourceConfig.ClockSource = TIM_CLOCKSOURCE_INTERNAL;
 8001978:	f44f 5380 	mov.w	r3, #4096	; 0x1000
 800197c:	64bb      	str	r3, [r7, #72]	; 0x48
  if (HAL_TIM_ConfigClockSource(&htim8, &sClockSourceConfig) != HAL_OK)
 800197e:	f107 0348 	add.w	r3, r7, #72	; 0x48
 8001982:	4619      	mov	r1, r3
 8001984:	482c      	ldr	r0, [pc, #176]	; (8001a38 <MX_TIM8_Init+0x13c>)
 8001986:	f002 fbd5 	bl	8004134 <HAL_TIM_ConfigClockSource>
 800198a:	4603      	mov	r3, r0
 800198c:	2b00      	cmp	r3, #0
 800198e:	d001      	beq.n	8001994 <MX_TIM8_Init+0x98>
  {
    Error_Handler();
 8001990:	f000 f9a4 	bl	8001cdc <Error_Handler>
  }
  if (HAL_TIM_PWM_Init(&htim8) != HAL_OK)
 8001994:	4828      	ldr	r0, [pc, #160]	; (8001a38 <MX_TIM8_Init+0x13c>)
 8001996:	f001 fecd 	bl	8003734 <HAL_TIM_PWM_Init>
 800199a:	4603      	mov	r3, r0
 800199c:	2b00      	cmp	r3, #0
 800199e:	d001      	beq.n	80019a4 <MX_TIM8_Init+0xa8>
  {
    Error_Handler();
 80019a0:	f000 f99c 	bl	8001cdc <Error_Handler>
  }
  sMasterConfig.MasterOutputTrigger = TIM_TRGO_RESET;
 80019a4:	2300      	movs	r3, #0
 80019a6:	643b      	str	r3, [r7, #64]	; 0x40
  sMasterConfig.MasterSlaveMode = TIM_MASTERSLAVEMODE_DISABLE;
 80019a8:	2300      	movs	r3, #0
 80019aa:	647b      	str	r3, [r7, #68]	; 0x44
  if (HAL_TIMEx_MasterConfigSynchronization(&htim8, &sMasterConfig) != HAL_OK)
 80019ac:	f107 0340 	add.w	r3, r7, #64	; 0x40
 80019b0:	4619      	mov	r1, r3
 80019b2:	4821      	ldr	r0, [pc, #132]	; (8001a38 <MX_TIM8_Init+0x13c>)
 80019b4:	f003 f922 	bl	8004bfc <HAL_TIMEx_MasterConfigSynchronization>
 80019b8:	4603      	mov	r3, r0
 80019ba:	2b00      	cmp	r3, #0
 80019bc:	d001      	beq.n	80019c2 <MX_TIM8_Init+0xc6>
  {
    Error_Handler();
 80019be:	f000 f98d 	bl	8001cdc <Error_Handler>
  }
  sConfigOC.OCMode = TIM_OCMODE_PWM1;
 80019c2:	2360      	movs	r3, #96	; 0x60
 80019c4:	627b      	str	r3, [r7, #36]	; 0x24
  sConfigOC.Pulse = 100;
 80019c6:	2364      	movs	r3, #100	; 0x64
 80019c8:	62bb      	str	r3, [r7, #40]	; 0x28
  sConfigOC.OCPolarity = TIM_OCPOLARITY_HIGH;
 80019ca:	2300      	movs	r3, #0
 80019cc:	62fb      	str	r3, [r7, #44]	; 0x2c
  sConfigOC.OCNPolarity = TIM_OCNPOLARITY_HIGH;
 80019ce:	2300      	movs	r3, #0
 80019d0:	633b      	str	r3, [r7, #48]	; 0x30
  sConfigOC.OCFastMode = TIM_OCFAST_DISABLE;
 80019d2:	2300      	movs	r3, #0
 80019d4:	637b      	str	r3, [r7, #52]	; 0x34
  sConfigOC.OCIdleState = TIM_OCIDLESTATE_RESET;
 80019d6:	2300      	movs	r3, #0
 80019d8:	63bb      	str	r3, [r7, #56]	; 0x38
  sConfigOC.OCNIdleState = TIM_OCNIDLESTATE_RESET;
 80019da:	2300      	movs	r3, #0
 80019dc:	63fb      	str	r3, [r7, #60]	; 0x3c
  if (HAL_TIM_PWM_ConfigChannel(&htim8, &sConfigOC, TIM_CHANNEL_1) != HAL_OK)
 80019de:	f107 0324 	add.w	r3, r7, #36	; 0x24
 80019e2:	2200      	movs	r2, #0
 80019e4:	4619      	mov	r1, r3
 80019e6:	4814      	ldr	r0, [pc, #80]	; (8001a38 <MX_TIM8_Init+0x13c>)
 80019e8:	f002 fae2 	bl	8003fb0 <HAL_TIM_PWM_ConfigChannel>
 80019ec:	4603      	mov	r3, r0
 80019ee:	2b00      	cmp	r3, #0
 80019f0:	d001      	beq.n	80019f6 <MX_TIM8_Init+0xfa>
  {
    Error_Handler();
 80019f2:	f000 f973 	bl	8001cdc <Error_Handler>
  }
  sBreakDeadTimeConfig.OffStateRunMode = TIM_OSSR_DISABLE;
 80019f6:	2300      	movs	r3, #0
 80019f8:	607b      	str	r3, [r7, #4]
  sBreakDeadTimeConfig.OffStateIDLEMode = TIM_OSSI_DISABLE;
 80019fa:	2300      	movs	r3, #0
 80019fc:	60bb      	str	r3, [r7, #8]
  sBreakDeadTimeConfig.LockLevel = TIM_LOCKLEVEL_OFF;
 80019fe:	2300      	movs	r3, #0
 8001a00:	60fb      	str	r3, [r7, #12]
  sBreakDeadTimeConfig.DeadTime = 0;
 8001a02:	2300      	movs	r3, #0
 8001a04:	613b      	str	r3, [r7, #16]
  sBreakDeadTimeConfig.BreakState = TIM_BREAK_DISABLE;
 8001a06:	2300      	movs	r3, #0
 8001a08:	617b      	str	r3, [r7, #20]
  sBreakDeadTimeConfig.BreakPolarity = TIM_BREAKPOLARITY_HIGH;
 8001a0a:	f44f 5300 	mov.w	r3, #8192	; 0x2000
 8001a0e:	61bb      	str	r3, [r7, #24]
  sBreakDeadTimeConfig.AutomaticOutput = TIM_AUTOMATICOUTPUT_DISABLE;
 8001a10:	2300      	movs	r3, #0
 8001a12:	623b      	str	r3, [r7, #32]
  if (HAL_TIMEx_ConfigBreakDeadTime(&htim8, &sBreakDeadTimeConfig) != HAL_OK)
 8001a14:	1d3b      	adds	r3, r7, #4
 8001a16:	4619      	mov	r1, r3
 8001a18:	4807      	ldr	r0, [pc, #28]	; (8001a38 <MX_TIM8_Init+0x13c>)
 8001a1a:	f003 f96b 	bl	8004cf4 <HAL_TIMEx_ConfigBreakDeadTime>
 8001a1e:	4603      	mov	r3, r0
 8001a20:	2b00      	cmp	r3, #0
 8001a22:	d001      	beq.n	8001a28 <MX_TIM8_Init+0x12c>
  {
    Error_Handler();
 8001a24:	f000 f95a 	bl	8001cdc <Error_Handler>
  }
  /* USER CODE BEGIN TIM8_Init 2 */

  /* USER CODE END TIM8_Init 2 */
  HAL_TIM_MspPostInit(&htim8);
 8001a28:	4803      	ldr	r0, [pc, #12]	; (8001a38 <MX_TIM8_Init+0x13c>)
 8001a2a:	f000 fa85 	bl	8001f38 <HAL_TIM_MspPostInit>

}
 8001a2e:	bf00      	nop
 8001a30:	3758      	adds	r7, #88	; 0x58
 8001a32:	46bd      	mov	sp, r7
 8001a34:	bd80      	pop	{r7, pc}
 8001a36:	bf00      	nop
 8001a38:	200002bc 	.word	0x200002bc
 8001a3c:	40010400 	.word	0x40010400

08001a40 <MX_TIM12_Init>:
  * @brief TIM12 Initialization Function
  * @param None
  * @retval None
  */
static void MX_TIM12_Init(void)
{
 8001a40:	b580      	push	{r7, lr}
 8001a42:	b08c      	sub	sp, #48	; 0x30
 8001a44:	af00      	add	r7, sp, #0

  /* USER CODE BEGIN TIM12_Init 0 */

  /* USER CODE END TIM12_Init 0 */

  TIM_ClockConfigTypeDef sClockSourceConfig = {0};
 8001a46:	f107 0320 	add.w	r3, r7, #32
 8001a4a:	2200      	movs	r2, #0
 8001a4c:	601a      	str	r2, [r3, #0]
 8001a4e:	605a      	str	r2, [r3, #4]
 8001a50:	609a      	str	r2, [r3, #8]
 8001a52:	60da      	str	r2, [r3, #12]
  TIM_OC_InitTypeDef sConfigOC = {0};
 8001a54:	1d3b      	adds	r3, r7, #4
 8001a56:	2200      	movs	r2, #0
 8001a58:	601a      	str	r2, [r3, #0]
 8001a5a:	605a      	str	r2, [r3, #4]
 8001a5c:	609a      	str	r2, [r3, #8]
 8001a5e:	60da      	str	r2, [r3, #12]
 8001a60:	611a      	str	r2, [r3, #16]
 8001a62:	615a      	str	r2, [r3, #20]
 8001a64:	619a      	str	r2, [r3, #24]

  /* USER CODE BEGIN TIM12_Init 1 */

  /* USER CODE END TIM12_Init 1 */
  htim12.Instance = TIM12;
 8001a66:	4b26      	ldr	r3, [pc, #152]	; (8001b00 <MX_TIM12_Init+0xc0>)
 8001a68:	4a26      	ldr	r2, [pc, #152]	; (8001b04 <MX_TIM12_Init+0xc4>)
 8001a6a:	601a      	str	r2, [r3, #0]
  htim12.Init.Prescaler = 3000-1;
 8001a6c:	4b24      	ldr	r3, [pc, #144]	; (8001b00 <MX_TIM12_Init+0xc0>)
 8001a6e:	f640 32b7 	movw	r2, #2999	; 0xbb7
 8001a72:	605a      	str	r2, [r3, #4]
  htim12.Init.CounterMode = TIM_COUNTERMODE_UP;
 8001a74:	4b22      	ldr	r3, [pc, #136]	; (8001b00 <MX_TIM12_Init+0xc0>)
 8001a76:	2200      	movs	r2, #0
 8001a78:	609a      	str	r2, [r3, #8]
  htim12.Init.Period = 65535;
 8001a7a:	4b21      	ldr	r3, [pc, #132]	; (8001b00 <MX_TIM12_Init+0xc0>)
 8001a7c:	f64f 72ff 	movw	r2, #65535	; 0xffff
 8001a80:	60da      	str	r2, [r3, #12]
  htim12.Init.ClockDivision = TIM_CLOCKDIVISION_DIV1;
 8001a82:	4b1f      	ldr	r3, [pc, #124]	; (8001b00 <MX_TIM12_Init+0xc0>)
 8001a84:	2200      	movs	r2, #0
 8001a86:	611a      	str	r2, [r3, #16]
  htim12.Init.AutoReloadPreload = TIM_AUTORELOAD_PRELOAD_DISABLE;
 8001a88:	4b1d      	ldr	r3, [pc, #116]	; (8001b00 <MX_TIM12_Init+0xc0>)
 8001a8a:	2200      	movs	r2, #0
 8001a8c:	619a      	str	r2, [r3, #24]
  if (HAL_TIM_Base_Init(&htim12) != HAL_OK)
 8001a8e:	481c      	ldr	r0, [pc, #112]	; (8001b00 <MX_TIM12_Init+0xc0>)
 8001a90:	f001 fd90 	bl	80035b4 <HAL_TIM_Base_Init>
 8001a94:	4603      	mov	r3, r0
 8001a96:	2b00      	cmp	r3, #0
 8001a98:	d001      	beq.n	8001a9e <MX_TIM12_Init+0x5e>
  {
    Error_Handler();
 8001a9a:	f000 f91f 	bl	8001cdc <Error_Handler>
  }
  sClockSourceConfig.ClockSource = TIM_CLOCKSOURCE_INTERNAL;
 8001a9e:	f44f 5380 	mov.w	r3, #4096	; 0x1000
 8001aa2:	623b      	str	r3, [r7, #32]
  if (HAL_TIM_ConfigClockSource(&htim12, &sClockSourceConfig) != HAL_OK)
 8001aa4:	f107 0320 	add.w	r3, r7, #32
 8001aa8:	4619      	mov	r1, r3
 8001aaa:	4815      	ldr	r0, [pc, #84]	; (8001b00 <MX_TIM12_Init+0xc0>)
 8001aac:	f002 fb42 	bl	8004134 <HAL_TIM_ConfigClockSource>
 8001ab0:	4603      	mov	r3, r0
 8001ab2:	2b00      	cmp	r3, #0
 8001ab4:	d001      	beq.n	8001aba <MX_TIM12_Init+0x7a>
  {
    Error_Handler();
 8001ab6:	f000 f911 	bl	8001cdc <Error_Handler>
  }
  if (HAL_TIM_PWM_Init(&htim12) != HAL_OK)
 8001aba:	4811      	ldr	r0, [pc, #68]	; (8001b00 <MX_TIM12_Init+0xc0>)
 8001abc:	f001 fe3a 	bl	8003734 <HAL_TIM_PWM_Init>
 8001ac0:	4603      	mov	r3, r0
 8001ac2:	2b00      	cmp	r3, #0
 8001ac4:	d001      	beq.n	8001aca <MX_TIM12_Init+0x8a>
  {
    Error_Handler();
 8001ac6:	f000 f909 	bl	8001cdc <Error_Handler>
  }
  sConfigOC.OCMode = TIM_OCMODE_PWM1;
 8001aca:	2360      	movs	r3, #96	; 0x60
 8001acc:	607b      	str	r3, [r7, #4]
  sConfigOC.Pulse = 100;
 8001ace:	2364      	movs	r3, #100	; 0x64
 8001ad0:	60bb      	str	r3, [r7, #8]
  sConfigOC.OCPolarity = TIM_OCPOLARITY_HIGH;
 8001ad2:	2300      	movs	r3, #0
 8001ad4:	60fb      	str	r3, [r7, #12]
  sConfigOC.OCFastMode = TIM_OCFAST_DISABLE;
 8001ad6:	2300      	movs	r3, #0
 8001ad8:	617b      	str	r3, [r7, #20]
  if (HAL_TIM_PWM_ConfigChannel(&htim12, &sConfigOC, TIM_CHANNEL_1) != HAL_OK)
 8001ada:	1d3b      	adds	r3, r7, #4
 8001adc:	2200      	movs	r2, #0
 8001ade:	4619      	mov	r1, r3
 8001ae0:	4807      	ldr	r0, [pc, #28]	; (8001b00 <MX_TIM12_Init+0xc0>)
 8001ae2:	f002 fa65 	bl	8003fb0 <HAL_TIM_PWM_ConfigChannel>
 8001ae6:	4603      	mov	r3, r0
 8001ae8:	2b00      	cmp	r3, #0
 8001aea:	d001      	beq.n	8001af0 <MX_TIM12_Init+0xb0>
  {
    Error_Handler();
 8001aec:	f000 f8f6 	bl	8001cdc <Error_Handler>
  }
  /* USER CODE BEGIN TIM12_Init 2 */

  /* USER CODE END TIM12_Init 2 */
  HAL_TIM_MspPostInit(&htim12);
 8001af0:	4803      	ldr	r0, [pc, #12]	; (8001b00 <MX_TIM12_Init+0xc0>)
 8001af2:	f000 fa21 	bl	8001f38 <HAL_TIM_MspPostInit>

}
 8001af6:	bf00      	nop
 8001af8:	3730      	adds	r7, #48	; 0x30
 8001afa:	46bd      	mov	sp, r7
 8001afc:	bd80      	pop	{r7, pc}
 8001afe:	bf00      	nop
 8001b00:	200004fc 	.word	0x200004fc
 8001b04:	40001800 	.word	0x40001800

08001b08 <MX_USART2_UART_Init>:
  * @brief USART2 Initialization Function
  * @param None
  * @retval None
  */
static void MX_USART2_UART_Init(void)
{
 8001b08:	b580      	push	{r7, lr}
 8001b0a:	af00      	add	r7, sp, #0
  /* USER CODE END USART2_Init 0 */

  /* USER CODE BEGIN USART2_Init 1 */

  /* USER CODE END USART2_Init 1 */
  huart2.Instance = USART2;
 8001b0c:	4b11      	ldr	r3, [pc, #68]	; (8001b54 <MX_USART2_UART_Init+0x4c>)
 8001b0e:	4a12      	ldr	r2, [pc, #72]	; (8001b58 <MX_USART2_UART_Init+0x50>)
 8001b10:	601a      	str	r2, [r3, #0]
  huart2.Init.BaudRate = 115200;
 8001b12:	4b10      	ldr	r3, [pc, #64]	; (8001b54 <MX_USART2_UART_Init+0x4c>)
 8001b14:	f44f 32e1 	mov.w	r2, #115200	; 0x1c200
 8001b18:	605a      	str	r2, [r3, #4]
  huart2.Init.WordLength = UART_WORDLENGTH_8B;
 8001b1a:	4b0e      	ldr	r3, [pc, #56]	; (8001b54 <MX_USART2_UART_Init+0x4c>)
 8001b1c:	2200      	movs	r2, #0
 8001b1e:	609a      	str	r2, [r3, #8]
  huart2.Init.StopBits = UART_STOPBITS_1;
 8001b20:	4b0c      	ldr	r3, [pc, #48]	; (8001b54 <MX_USART2_UART_Init+0x4c>)
 8001b22:	2200      	movs	r2, #0
 8001b24:	60da      	str	r2, [r3, #12]
  huart2.Init.Parity = UART_PARITY_NONE;
 8001b26:	4b0b      	ldr	r3, [pc, #44]	; (8001b54 <MX_USART2_UART_Init+0x4c>)
 8001b28:	2200      	movs	r2, #0
 8001b2a:	611a      	str	r2, [r3, #16]
  huart2.Init.Mode = UART_MODE_TX_RX;
 8001b2c:	4b09      	ldr	r3, [pc, #36]	; (8001b54 <MX_USART2_UART_Init+0x4c>)
 8001b2e:	220c      	movs	r2, #12
 8001b30:	615a      	str	r2, [r3, #20]
  huart2.Init.HwFlowCtl = UART_HWCONTROL_NONE;
 8001b32:	4b08      	ldr	r3, [pc, #32]	; (8001b54 <MX_USART2_UART_Init+0x4c>)
 8001b34:	2200      	movs	r2, #0
 8001b36:	619a      	str	r2, [r3, #24]
  huart2.Init.OverSampling = UART_OVERSAMPLING_16;
 8001b38:	4b06      	ldr	r3, [pc, #24]	; (8001b54 <MX_USART2_UART_Init+0x4c>)
 8001b3a:	2200      	movs	r2, #0
 8001b3c:	61da      	str	r2, [r3, #28]
  if (HAL_UART_Init(&huart2) != HAL_OK)
 8001b3e:	4805      	ldr	r0, [pc, #20]	; (8001b54 <MX_USART2_UART_Init+0x4c>)
 8001b40:	f003 f93e 	bl	8004dc0 <HAL_UART_Init>
 8001b44:	4603      	mov	r3, r0
 8001b46:	2b00      	cmp	r3, #0
 8001b48:	d001      	beq.n	8001b4e <MX_USART2_UART_Init+0x46>
  {
    Error_Handler();
 8001b4a:	f000 f8c7 	bl	8001cdc <Error_Handler>
  }
  /* USER CODE BEGIN USART2_Init 2 */

  /* USER CODE END USART2_Init 2 */

}
 8001b4e:	bf00      	nop
 8001b50:	bd80      	pop	{r7, pc}
 8001b52:	bf00      	nop
 8001b54:	200004a4 	.word	0x200004a4
 8001b58:	40004400 	.word	0x40004400

08001b5c <MX_GPIO_Init>:
  * @brief GPIO Initialization Function
  * @param None
  * @retval None
  */
static void MX_GPIO_Init(void)
{
 8001b5c:	b580      	push	{r7, lr}
 8001b5e:	b08a      	sub	sp, #40	; 0x28
 8001b60:	af00      	add	r7, sp, #0
  GPIO_InitTypeDef GPIO_InitStruct = {0};
 8001b62:	f107 0314 	add.w	r3, r7, #20
 8001b66:	2200      	movs	r2, #0
 8001b68:	601a      	str	r2, [r3, #0]
 8001b6a:	605a      	str	r2, [r3, #4]
 8001b6c:	609a      	str	r2, [r3, #8]
 8001b6e:	60da      	str	r2, [r3, #12]
 8001b70:	611a      	str	r2, [r3, #16]

  /* GPIO Ports Clock Enable */
  __HAL_RCC_GPIOC_CLK_ENABLE();
 8001b72:	2300      	movs	r3, #0
 8001b74:	613b      	str	r3, [r7, #16]
 8001b76:	4b2d      	ldr	r3, [pc, #180]	; (8001c2c <MX_GPIO_Init+0xd0>)
 8001b78:	6b1b      	ldr	r3, [r3, #48]	; 0x30
 8001b7a:	4a2c      	ldr	r2, [pc, #176]	; (8001c2c <MX_GPIO_Init+0xd0>)
 8001b7c:	f043 0304 	orr.w	r3, r3, #4
 8001b80:	6313      	str	r3, [r2, #48]	; 0x30
 8001b82:	4b2a      	ldr	r3, [pc, #168]	; (8001c2c <MX_GPIO_Init+0xd0>)
 8001b84:	6b1b      	ldr	r3, [r3, #48]	; 0x30
 8001b86:	f003 0304 	and.w	r3, r3, #4
 8001b8a:	613b      	str	r3, [r7, #16]
 8001b8c:	693b      	ldr	r3, [r7, #16]
  __HAL_RCC_GPIOH_CLK_ENABLE();
 8001b8e:	2300      	movs	r3, #0
 8001b90:	60fb      	str	r3, [r7, #12]
 8001b92:	4b26      	ldr	r3, [pc, #152]	; (8001c2c <MX_GPIO_Init+0xd0>)
 8001b94:	6b1b      	ldr	r3, [r3, #48]	; 0x30
 8001b96:	4a25      	ldr	r2, [pc, #148]	; (8001c2c <MX_GPIO_Init+0xd0>)
 8001b98:	f043 0380 	orr.w	r3, r3, #128	; 0x80
 8001b9c:	6313      	str	r3, [r2, #48]	; 0x30
 8001b9e:	4b23      	ldr	r3, [pc, #140]	; (8001c2c <MX_GPIO_Init+0xd0>)
 8001ba0:	6b1b      	ldr	r3, [r3, #48]	; 0x30
 8001ba2:	f003 0380 	and.w	r3, r3, #128	; 0x80
 8001ba6:	60fb      	str	r3, [r7, #12]
 8001ba8:	68fb      	ldr	r3, [r7, #12]
  __HAL_RCC_GPIOA_CLK_ENABLE();
 8001baa:	2300      	movs	r3, #0
 8001bac:	60bb      	str	r3, [r7, #8]
 8001bae:	4b1f      	ldr	r3, [pc, #124]	; (8001c2c <MX_GPIO_Init+0xd0>)
 8001bb0:	6b1b      	ldr	r3, [r3, #48]	; 0x30
 8001bb2:	4a1e      	ldr	r2, [pc, #120]	; (8001c2c <MX_GPIO_Init+0xd0>)
 8001bb4:	f043 0301 	orr.w	r3, r3, #1
 8001bb8:	6313      	str	r3, [r2, #48]	; 0x30
 8001bba:	4b1c      	ldr	r3, [pc, #112]	; (8001c2c <MX_GPIO_Init+0xd0>)
 8001bbc:	6b1b      	ldr	r3, [r3, #48]	; 0x30
 8001bbe:	f003 0301 	and.w	r3, r3, #1
 8001bc2:	60bb      	str	r3, [r7, #8]
 8001bc4:	68bb      	ldr	r3, [r7, #8]
  __HAL_RCC_GPIOB_CLK_ENABLE();
 8001bc6:	2300      	movs	r3, #0
 8001bc8:	607b      	str	r3, [r7, #4]
 8001bca:	4b18      	ldr	r3, [pc, #96]	; (8001c2c <MX_GPIO_Init+0xd0>)
 8001bcc:	6b1b      	ldr	r3, [r3, #48]	; 0x30
 8001bce:	4a17      	ldr	r2, [pc, #92]	; (8001c2c <MX_GPIO_Init+0xd0>)
 8001bd0:	f043 0302 	orr.w	r3, r3, #2
 8001bd4:	6313      	str	r3, [r2, #48]	; 0x30
 8001bd6:	4b15      	ldr	r3, [pc, #84]	; (8001c2c <MX_GPIO_Init+0xd0>)
 8001bd8:	6b1b      	ldr	r3, [r3, #48]	; 0x30
 8001bda:	f003 0302 	and.w	r3, r3, #2
 8001bde:	607b      	str	r3, [r7, #4]
 8001be0:	687b      	ldr	r3, [r7, #4]

  /*Configure GPIO pin Output Level */
  HAL_GPIO_WritePin(LD2_GPIO_Port, LD2_Pin, GPIO_PIN_RESET);
 8001be2:	2200      	movs	r2, #0
 8001be4:	2120      	movs	r1, #32
 8001be6:	4812      	ldr	r0, [pc, #72]	; (8001c30 <MX_GPIO_Init+0xd4>)
 8001be8:	f000 ff60 	bl	8002aac <HAL_GPIO_WritePin>

  /*Configure GPIO pin : B1_Pin */
  GPIO_InitStruct.Pin = B1_Pin;
 8001bec:	f44f 5300 	mov.w	r3, #8192	; 0x2000
 8001bf0:	617b      	str	r3, [r7, #20]
  GPIO_InitStruct.Mode = GPIO_MODE_IT_FALLING;
 8001bf2:	f44f 1304 	mov.w	r3, #2162688	; 0x210000
 8001bf6:	61bb      	str	r3, [r7, #24]
  GPIO_InitStruct.Pull = GPIO_NOPULL;
 8001bf8:	2300      	movs	r3, #0
 8001bfa:	61fb      	str	r3, [r7, #28]
  HAL_GPIO_Init(B1_GPIO_Port, &GPIO_InitStruct);
 8001bfc:	f107 0314 	add.w	r3, r7, #20
 8001c00:	4619      	mov	r1, r3
 8001c02:	480c      	ldr	r0, [pc, #48]	; (8001c34 <MX_GPIO_Init+0xd8>)
 8001c04:	f000 fdbe 	bl	8002784 <HAL_GPIO_Init>

  /*Configure GPIO pin : LD2_Pin */
  GPIO_InitStruct.Pin = LD2_Pin;
 8001c08:	2320      	movs	r3, #32
 8001c0a:	617b      	str	r3, [r7, #20]
  GPIO_InitStruct.Mode = GPIO_MODE_OUTPUT_PP;
 8001c0c:	2301      	movs	r3, #1
 8001c0e:	61bb      	str	r3, [r7, #24]
  GPIO_InitStruct.Pull = GPIO_NOPULL;
 8001c10:	2300      	movs	r3, #0
 8001c12:	61fb      	str	r3, [r7, #28]
  GPIO_InitStruct.Speed = GPIO_SPEED_FREQ_LOW;
 8001c14:	2300      	movs	r3, #0
 8001c16:	623b      	str	r3, [r7, #32]
  HAL_GPIO_Init(LD2_GPIO_Port, &GPIO_InitStruct);
 8001c18:	f107 0314 	add.w	r3, r7, #20
 8001c1c:	4619      	mov	r1, r3
 8001c1e:	4804      	ldr	r0, [pc, #16]	; (8001c30 <MX_GPIO_Init+0xd4>)
 8001c20:	f000 fdb0 	bl	8002784 <HAL_GPIO_Init>

}
 8001c24:	bf00      	nop
 8001c26:	3728      	adds	r7, #40	; 0x28
 8001c28:	46bd      	mov	sp, r7
 8001c2a:	bd80      	pop	{r7, pc}
 8001c2c:	40023800 	.word	0x40023800
 8001c30:	40020000 	.word	0x40020000
 8001c34:	40020800 	.word	0x40020800

08001c38 <HAL_TIM_IC_CaptureCallback>:

/* USER CODE BEGIN 4 */
void HAL_TIM_IC_CaptureCallback(TIM_HandleTypeDef *htim)
{
 8001c38:	b580      	push	{r7, lr}
 8001c3a:	b082      	sub	sp, #8
 8001c3c:	af00      	add	r7, sp, #0
 8001c3e:	6078      	str	r0, [r7, #4]
    HCSR04_TMR_IC_ISR(htim);
 8001c40:	6878      	ldr	r0, [r7, #4]
 8001c42:	f003 fe25 	bl	8005890 <HCSR04_TMR_IC_ISR>
}
 8001c46:	bf00      	nop
 8001c48:	3708      	adds	r7, #8
 8001c4a:	46bd      	mov	sp, r7
 8001c4c:	bd80      	pop	{r7, pc}

08001c4e <HAL_TIM_PeriodElapsedCallback>:
 
void HAL_TIM_PeriodElapsedCallback(TIM_HandleTypeDef* htim)
{
 8001c4e:	b580      	push	{r7, lr}
 8001c50:	b082      	sub	sp, #8
 8001c52:	af00      	add	r7, sp, #0
 8001c54:	6078      	str	r0, [r7, #4]
    HCSR04_TMR_OVF_ISR(htim);
 8001c56:	6878      	ldr	r0, [r7, #4]
 8001c58:	f003 fddc 	bl	8005814 <HCSR04_TMR_OVF_ISR>
}
 8001c5c:	bf00      	nop
 8001c5e:	3708      	adds	r7, #8
 8001c60:	46bd      	mov	sp, r7
 8001c62:	bd80      	pop	{r7, pc}

08001c64 <SysTick_CallBack>:

uint8_t TRIG_Ticks;
uint16_t MOTOR_Ticks;
void SysTick_CallBack(void)
{
 8001c64:	b580      	push	{r7, lr}
 8001c66:	af00      	add	r7, sp, #0
    TRIG_Ticks++;
 8001c68:	4b16      	ldr	r3, [pc, #88]	; (8001cc4 <SysTick_CallBack+0x60>)
 8001c6a:	781b      	ldrb	r3, [r3, #0]
 8001c6c:	3301      	adds	r3, #1
 8001c6e:	b2da      	uxtb	r2, r3
 8001c70:	4b14      	ldr	r3, [pc, #80]	; (8001cc4 <SysTick_CallBack+0x60>)
 8001c72:	701a      	strb	r2, [r3, #0]
    MOTOR_Ticks++;
 8001c74:	4b14      	ldr	r3, [pc, #80]	; (8001cc8 <SysTick_CallBack+0x64>)
 8001c76:	881b      	ldrh	r3, [r3, #0]
 8001c78:	3301      	adds	r3, #1
 8001c7a:	b29a      	uxth	r2, r3
 8001c7c:	4b12      	ldr	r3, [pc, #72]	; (8001cc8 <SysTick_CallBack+0x64>)
 8001c7e:	801a      	strh	r2, [r3, #0]
    if(TRIG_Ticks >= 15) // Each 15msec
 8001c80:	4b10      	ldr	r3, [pc, #64]	; (8001cc4 <SysTick_CallBack+0x60>)
 8001c82:	781b      	ldrb	r3, [r3, #0]
 8001c84:	2b0e      	cmp	r3, #14
 8001c86:	d90e      	bls.n	8001ca6 <SysTick_CallBack+0x42>
    {
        HCSR04_Trigger(HCSR04_SENSOR1);
 8001c88:	2000      	movs	r0, #0
 8001c8a:	f004 f863 	bl	8005d54 <HCSR04_Trigger>
        HCSR04_Trigger(HCSR04_SENSOR2);
 8001c8e:	2001      	movs	r0, #1
 8001c90:	f004 f860 	bl	8005d54 <HCSR04_Trigger>
        HCSR04_Trigger(HCSR04_SENSOR3);
 8001c94:	2002      	movs	r0, #2
 8001c96:	f004 f85d 	bl	8005d54 <HCSR04_Trigger>
        HCSR04_Trigger(HCSR04_SENSOR4);
 8001c9a:	2003      	movs	r0, #3
 8001c9c:	f004 f85a 	bl	8005d54 <HCSR04_Trigger>
        TRIG_Ticks = 0;
 8001ca0:	4b08      	ldr	r3, [pc, #32]	; (8001cc4 <SysTick_CallBack+0x60>)
 8001ca2:	2200      	movs	r2, #0
 8001ca4:	701a      	strb	r2, [r3, #0]
    }
    if(MOTOR_Ticks >= 100){
 8001ca6:	4b08      	ldr	r3, [pc, #32]	; (8001cc8 <SysTick_CallBack+0x64>)
 8001ca8:	881b      	ldrh	r3, [r3, #0]
 8001caa:	2b63      	cmp	r3, #99	; 0x63
 8001cac:	d908      	bls.n	8001cc0 <SysTick_CallBack+0x5c>
      UpdateMotorsFreq(motors, motors_num, motors_channel, distances);
 8001cae:	4b07      	ldr	r3, [pc, #28]	; (8001ccc <SysTick_CallBack+0x68>)
 8001cb0:	4a07      	ldr	r2, [pc, #28]	; (8001cd0 <SysTick_CallBack+0x6c>)
 8001cb2:	4908      	ldr	r1, [pc, #32]	; (8001cd4 <SysTick_CallBack+0x70>)
 8001cb4:	4808      	ldr	r0, [pc, #32]	; (8001cd8 <SysTick_CallBack+0x74>)
 8001cb6:	f7ff fa7b 	bl	80011b0 <UpdateMotorsFreq>
      MOTOR_Ticks = 0;
 8001cba:	4b03      	ldr	r3, [pc, #12]	; (8001cc8 <SysTick_CallBack+0x64>)
 8001cbc:	2200      	movs	r2, #0
 8001cbe:	801a      	strh	r2, [r3, #0]
    }
}
 8001cc0:	bf00      	nop
 8001cc2:	bd80      	pop	{r7, pc}
 8001cc4:	200004f8 	.word	0x200004f8
 8001cc8:	20000410 	.word	0x20000410
 8001ccc:	200004e8 	.word	0x200004e8
 8001cd0:	20000014 	.word	0x20000014
 8001cd4:	20000010 	.word	0x20000010
 8001cd8:	20000000 	.word	0x20000000

08001cdc <Error_Handler>:
/**
  * @brief  This function is executed in case of error occurrence.
  * @retval None
  */
void Error_Handler(void)
{
 8001cdc:	b480      	push	{r7}
 8001cde:	af00      	add	r7, sp, #0
  \details Disables IRQ interrupts by setting the I-bit in the CPSR.
           Can only be executed in Privileged modes.
 */
__STATIC_FORCEINLINE void __disable_irq(void)
{
  __ASM volatile ("cpsid i" : : : "memory");
 8001ce0:	b672      	cpsid	i
}
 8001ce2:	bf00      	nop
  /* USER CODE BEGIN Error_Handler_Debug */
  /* User can add his own implementation to report the HAL error return state */
  __disable_irq();
  while (1)
 8001ce4:	e7fe      	b.n	8001ce4 <Error_Handler+0x8>
	...

08001ce8 <HAL_MspInit>:
void HAL_TIM_MspPostInit(TIM_HandleTypeDef *htim);
                                                                                                                        /**
  * Initializes the Global MSP.
  */
void HAL_MspInit(void)
{
 8001ce8:	b580      	push	{r7, lr}
 8001cea:	b082      	sub	sp, #8
 8001cec:	af00      	add	r7, sp, #0
  /* USER CODE BEGIN MspInit 0 */

  /* USER CODE END MspInit 0 */

  __HAL_RCC_SYSCFG_CLK_ENABLE();
 8001cee:	2300      	movs	r3, #0
 8001cf0:	607b      	str	r3, [r7, #4]
 8001cf2:	4b10      	ldr	r3, [pc, #64]	; (8001d34 <HAL_MspInit+0x4c>)
 8001cf4:	6c5b      	ldr	r3, [r3, #68]	; 0x44
 8001cf6:	4a0f      	ldr	r2, [pc, #60]	; (8001d34 <HAL_MspInit+0x4c>)
 8001cf8:	f443 4380 	orr.w	r3, r3, #16384	; 0x4000
 8001cfc:	6453      	str	r3, [r2, #68]	; 0x44
 8001cfe:	4b0d      	ldr	r3, [pc, #52]	; (8001d34 <HAL_MspInit+0x4c>)
 8001d00:	6c5b      	ldr	r3, [r3, #68]	; 0x44
 8001d02:	f403 4380 	and.w	r3, r3, #16384	; 0x4000
 8001d06:	607b      	str	r3, [r7, #4]
 8001d08:	687b      	ldr	r3, [r7, #4]
  __HAL_RCC_PWR_CLK_ENABLE();
 8001d0a:	2300      	movs	r3, #0
 8001d0c:	603b      	str	r3, [r7, #0]
 8001d0e:	4b09      	ldr	r3, [pc, #36]	; (8001d34 <HAL_MspInit+0x4c>)
 8001d10:	6c1b      	ldr	r3, [r3, #64]	; 0x40
 8001d12:	4a08      	ldr	r2, [pc, #32]	; (8001d34 <HAL_MspInit+0x4c>)
 8001d14:	f043 5380 	orr.w	r3, r3, #268435456	; 0x10000000
 8001d18:	6413      	str	r3, [r2, #64]	; 0x40
 8001d1a:	4b06      	ldr	r3, [pc, #24]	; (8001d34 <HAL_MspInit+0x4c>)
 8001d1c:	6c1b      	ldr	r3, [r3, #64]	; 0x40
 8001d1e:	f003 5380 	and.w	r3, r3, #268435456	; 0x10000000
 8001d22:	603b      	str	r3, [r7, #0]
 8001d24:	683b      	ldr	r3, [r7, #0]

  HAL_NVIC_SetPriorityGrouping(NVIC_PRIORITYGROUP_0);
 8001d26:	2007      	movs	r0, #7
 8001d28:	f000 fcea 	bl	8002700 <HAL_NVIC_SetPriorityGrouping>
  /* System interrupt init*/

  /* USER CODE BEGIN MspInit 1 */

  /* USER CODE END MspInit 1 */
}
 8001d2c:	bf00      	nop
 8001d2e:	3708      	adds	r7, #8
 8001d30:	46bd      	mov	sp, r7
 8001d32:	bd80      	pop	{r7, pc}
 8001d34:	40023800 	.word	0x40023800

08001d38 <HAL_TIM_Base_MspInit>:
* This function configures the hardware resources used in this example
* @param htim_base: TIM_Base handle pointer
* @retval None
*/
void HAL_TIM_Base_MspInit(TIM_HandleTypeDef* htim_base)
{
 8001d38:	b580      	push	{r7, lr}
 8001d3a:	b090      	sub	sp, #64	; 0x40
 8001d3c:	af00      	add	r7, sp, #0
 8001d3e:	6078      	str	r0, [r7, #4]
  GPIO_InitTypeDef GPIO_InitStruct = {0};
 8001d40:	f107 032c 	add.w	r3, r7, #44	; 0x2c
 8001d44:	2200      	movs	r2, #0
 8001d46:	601a      	str	r2, [r3, #0]
 8001d48:	605a      	str	r2, [r3, #4]
 8001d4a:	609a      	str	r2, [r3, #8]
 8001d4c:	60da      	str	r2, [r3, #12]
 8001d4e:	611a      	str	r2, [r3, #16]
  if(htim_base->Instance==TIM1)
 8001d50:	687b      	ldr	r3, [r7, #4]
 8001d52:	681b      	ldr	r3, [r3, #0]
 8001d54:	4a5f      	ldr	r2, [pc, #380]	; (8001ed4 <HAL_TIM_Base_MspInit+0x19c>)
 8001d56:	4293      	cmp	r3, r2
 8001d58:	d10e      	bne.n	8001d78 <HAL_TIM_Base_MspInit+0x40>
  {
  /* USER CODE BEGIN TIM1_MspInit 0 */

  /* USER CODE END TIM1_MspInit 0 */
    /* Peripheral clock enable */
    __HAL_RCC_TIM1_CLK_ENABLE();
 8001d5a:	2300      	movs	r3, #0
 8001d5c:	62bb      	str	r3, [r7, #40]	; 0x28
 8001d5e:	4b5e      	ldr	r3, [pc, #376]	; (8001ed8 <HAL_TIM_Base_MspInit+0x1a0>)
 8001d60:	6c5b      	ldr	r3, [r3, #68]	; 0x44
 8001d62:	4a5d      	ldr	r2, [pc, #372]	; (8001ed8 <HAL_TIM_Base_MspInit+0x1a0>)
 8001d64:	f043 0301 	orr.w	r3, r3, #1
 8001d68:	6453      	str	r3, [r2, #68]	; 0x44
 8001d6a:	4b5b      	ldr	r3, [pc, #364]	; (8001ed8 <HAL_TIM_Base_MspInit+0x1a0>)
 8001d6c:	6c5b      	ldr	r3, [r3, #68]	; 0x44
 8001d6e:	f003 0301 	and.w	r3, r3, #1
 8001d72:	62bb      	str	r3, [r7, #40]	; 0x28
 8001d74:	6abb      	ldr	r3, [r7, #40]	; 0x28
  /* USER CODE BEGIN TIM12_MspInit 1 */

  /* USER CODE END TIM12_MspInit 1 */
  }

}
 8001d76:	e0a8      	b.n	8001eca <HAL_TIM_Base_MspInit+0x192>
  else if(htim_base->Instance==TIM2)
 8001d78:	687b      	ldr	r3, [r7, #4]
 8001d7a:	681b      	ldr	r3, [r3, #0]
 8001d7c:	f1b3 4f80 	cmp.w	r3, #1073741824	; 0x40000000
 8001d80:	d154      	bne.n	8001e2c <HAL_TIM_Base_MspInit+0xf4>
    __HAL_RCC_TIM2_CLK_ENABLE();
 8001d82:	2300      	movs	r3, #0
 8001d84:	627b      	str	r3, [r7, #36]	; 0x24
 8001d86:	4b54      	ldr	r3, [pc, #336]	; (8001ed8 <HAL_TIM_Base_MspInit+0x1a0>)
 8001d88:	6c1b      	ldr	r3, [r3, #64]	; 0x40
 8001d8a:	4a53      	ldr	r2, [pc, #332]	; (8001ed8 <HAL_TIM_Base_MspInit+0x1a0>)
 8001d8c:	f043 0301 	orr.w	r3, r3, #1
 8001d90:	6413      	str	r3, [r2, #64]	; 0x40
 8001d92:	4b51      	ldr	r3, [pc, #324]	; (8001ed8 <HAL_TIM_Base_MspInit+0x1a0>)
 8001d94:	6c1b      	ldr	r3, [r3, #64]	; 0x40
 8001d96:	f003 0301 	and.w	r3, r3, #1
 8001d9a:	627b      	str	r3, [r7, #36]	; 0x24
 8001d9c:	6a7b      	ldr	r3, [r7, #36]	; 0x24
    __HAL_RCC_GPIOA_CLK_ENABLE();
 8001d9e:	2300      	movs	r3, #0
 8001da0:	623b      	str	r3, [r7, #32]
 8001da2:	4b4d      	ldr	r3, [pc, #308]	; (8001ed8 <HAL_TIM_Base_MspInit+0x1a0>)
 8001da4:	6b1b      	ldr	r3, [r3, #48]	; 0x30
 8001da6:	4a4c      	ldr	r2, [pc, #304]	; (8001ed8 <HAL_TIM_Base_MspInit+0x1a0>)
 8001da8:	f043 0301 	orr.w	r3, r3, #1
 8001dac:	6313      	str	r3, [r2, #48]	; 0x30
 8001dae:	4b4a      	ldr	r3, [pc, #296]	; (8001ed8 <HAL_TIM_Base_MspInit+0x1a0>)
 8001db0:	6b1b      	ldr	r3, [r3, #48]	; 0x30
 8001db2:	f003 0301 	and.w	r3, r3, #1
 8001db6:	623b      	str	r3, [r7, #32]
 8001db8:	6a3b      	ldr	r3, [r7, #32]
    __HAL_RCC_GPIOB_CLK_ENABLE();
 8001dba:	2300      	movs	r3, #0
 8001dbc:	61fb      	str	r3, [r7, #28]
 8001dbe:	4b46      	ldr	r3, [pc, #280]	; (8001ed8 <HAL_TIM_Base_MspInit+0x1a0>)
 8001dc0:	6b1b      	ldr	r3, [r3, #48]	; 0x30
 8001dc2:	4a45      	ldr	r2, [pc, #276]	; (8001ed8 <HAL_TIM_Base_MspInit+0x1a0>)
 8001dc4:	f043 0302 	orr.w	r3, r3, #2
 8001dc8:	6313      	str	r3, [r2, #48]	; 0x30
 8001dca:	4b43      	ldr	r3, [pc, #268]	; (8001ed8 <HAL_TIM_Base_MspInit+0x1a0>)
 8001dcc:	6b1b      	ldr	r3, [r3, #48]	; 0x30
 8001dce:	f003 0302 	and.w	r3, r3, #2
 8001dd2:	61fb      	str	r3, [r7, #28]
 8001dd4:	69fb      	ldr	r3, [r7, #28]
    GPIO_InitStruct.Pin = GPIO_PIN_1|GPIO_PIN_15;
 8001dd6:	f248 0302 	movw	r3, #32770	; 0x8002
 8001dda:	62fb      	str	r3, [r7, #44]	; 0x2c
    GPIO_InitStruct.Mode = GPIO_MODE_AF_PP;
 8001ddc:	2302      	movs	r3, #2
 8001dde:	633b      	str	r3, [r7, #48]	; 0x30
    GPIO_InitStruct.Pull = GPIO_NOPULL;
 8001de0:	2300      	movs	r3, #0
 8001de2:	637b      	str	r3, [r7, #52]	; 0x34
    GPIO_InitStruct.Speed = GPIO_SPEED_FREQ_LOW;
 8001de4:	2300      	movs	r3, #0
 8001de6:	63bb      	str	r3, [r7, #56]	; 0x38
    GPIO_InitStruct.Alternate = GPIO_AF1_TIM2;
 8001de8:	2301      	movs	r3, #1
 8001dea:	63fb      	str	r3, [r7, #60]	; 0x3c
    HAL_GPIO_Init(GPIOA, &GPIO_InitStruct);
 8001dec:	f107 032c 	add.w	r3, r7, #44	; 0x2c
 8001df0:	4619      	mov	r1, r3
 8001df2:	483a      	ldr	r0, [pc, #232]	; (8001edc <HAL_TIM_Base_MspInit+0x1a4>)
 8001df4:	f000 fcc6 	bl	8002784 <HAL_GPIO_Init>
    GPIO_InitStruct.Pin = GPIO_PIN_2|GPIO_PIN_10;
 8001df8:	f240 4304 	movw	r3, #1028	; 0x404
 8001dfc:	62fb      	str	r3, [r7, #44]	; 0x2c
    GPIO_InitStruct.Mode = GPIO_MODE_AF_PP;
 8001dfe:	2302      	movs	r3, #2
 8001e00:	633b      	str	r3, [r7, #48]	; 0x30
    GPIO_InitStruct.Pull = GPIO_NOPULL;
 8001e02:	2300      	movs	r3, #0
 8001e04:	637b      	str	r3, [r7, #52]	; 0x34
    GPIO_InitStruct.Speed = GPIO_SPEED_FREQ_LOW;
 8001e06:	2300      	movs	r3, #0
 8001e08:	63bb      	str	r3, [r7, #56]	; 0x38
    GPIO_InitStruct.Alternate = GPIO_AF1_TIM2;
 8001e0a:	2301      	movs	r3, #1
 8001e0c:	63fb      	str	r3, [r7, #60]	; 0x3c
    HAL_GPIO_Init(GPIOB, &GPIO_InitStruct);
 8001e0e:	f107 032c 	add.w	r3, r7, #44	; 0x2c
 8001e12:	4619      	mov	r1, r3
 8001e14:	4832      	ldr	r0, [pc, #200]	; (8001ee0 <HAL_TIM_Base_MspInit+0x1a8>)
 8001e16:	f000 fcb5 	bl	8002784 <HAL_GPIO_Init>
    HAL_NVIC_SetPriority(TIM2_IRQn, 0, 0);
 8001e1a:	2200      	movs	r2, #0
 8001e1c:	2100      	movs	r1, #0
 8001e1e:	201c      	movs	r0, #28
 8001e20:	f000 fc79 	bl	8002716 <HAL_NVIC_SetPriority>
    HAL_NVIC_EnableIRQ(TIM2_IRQn);
 8001e24:	201c      	movs	r0, #28
 8001e26:	f000 fc92 	bl	800274e <HAL_NVIC_EnableIRQ>
}
 8001e2a:	e04e      	b.n	8001eca <HAL_TIM_Base_MspInit+0x192>
  else if(htim_base->Instance==TIM3)
 8001e2c:	687b      	ldr	r3, [r7, #4]
 8001e2e:	681b      	ldr	r3, [r3, #0]
 8001e30:	4a2c      	ldr	r2, [pc, #176]	; (8001ee4 <HAL_TIM_Base_MspInit+0x1ac>)
 8001e32:	4293      	cmp	r3, r2
 8001e34:	d10e      	bne.n	8001e54 <HAL_TIM_Base_MspInit+0x11c>
    __HAL_RCC_TIM3_CLK_ENABLE();
 8001e36:	2300      	movs	r3, #0
 8001e38:	61bb      	str	r3, [r7, #24]
 8001e3a:	4b27      	ldr	r3, [pc, #156]	; (8001ed8 <HAL_TIM_Base_MspInit+0x1a0>)
 8001e3c:	6c1b      	ldr	r3, [r3, #64]	; 0x40
 8001e3e:	4a26      	ldr	r2, [pc, #152]	; (8001ed8 <HAL_TIM_Base_MspInit+0x1a0>)
 8001e40:	f043 0302 	orr.w	r3, r3, #2
 8001e44:	6413      	str	r3, [r2, #64]	; 0x40
 8001e46:	4b24      	ldr	r3, [pc, #144]	; (8001ed8 <HAL_TIM_Base_MspInit+0x1a0>)
 8001e48:	6c1b      	ldr	r3, [r3, #64]	; 0x40
 8001e4a:	f003 0302 	and.w	r3, r3, #2
 8001e4e:	61bb      	str	r3, [r7, #24]
 8001e50:	69bb      	ldr	r3, [r7, #24]
}
 8001e52:	e03a      	b.n	8001eca <HAL_TIM_Base_MspInit+0x192>
  else if(htim_base->Instance==TIM4)
 8001e54:	687b      	ldr	r3, [r7, #4]
 8001e56:	681b      	ldr	r3, [r3, #0]
 8001e58:	4a23      	ldr	r2, [pc, #140]	; (8001ee8 <HAL_TIM_Base_MspInit+0x1b0>)
 8001e5a:	4293      	cmp	r3, r2
 8001e5c:	d10e      	bne.n	8001e7c <HAL_TIM_Base_MspInit+0x144>
    __HAL_RCC_TIM4_CLK_ENABLE();
 8001e5e:	2300      	movs	r3, #0
 8001e60:	617b      	str	r3, [r7, #20]
 8001e62:	4b1d      	ldr	r3, [pc, #116]	; (8001ed8 <HAL_TIM_Base_MspInit+0x1a0>)
 8001e64:	6c1b      	ldr	r3, [r3, #64]	; 0x40
 8001e66:	4a1c      	ldr	r2, [pc, #112]	; (8001ed8 <HAL_TIM_Base_MspInit+0x1a0>)
 8001e68:	f043 0304 	orr.w	r3, r3, #4
 8001e6c:	6413      	str	r3, [r2, #64]	; 0x40
 8001e6e:	4b1a      	ldr	r3, [pc, #104]	; (8001ed8 <HAL_TIM_Base_MspInit+0x1a0>)
 8001e70:	6c1b      	ldr	r3, [r3, #64]	; 0x40
 8001e72:	f003 0304 	and.w	r3, r3, #4
 8001e76:	617b      	str	r3, [r7, #20]
 8001e78:	697b      	ldr	r3, [r7, #20]
}
 8001e7a:	e026      	b.n	8001eca <HAL_TIM_Base_MspInit+0x192>
  else if(htim_base->Instance==TIM8)
 8001e7c:	687b      	ldr	r3, [r7, #4]
 8001e7e:	681b      	ldr	r3, [r3, #0]
 8001e80:	4a1a      	ldr	r2, [pc, #104]	; (8001eec <HAL_TIM_Base_MspInit+0x1b4>)
 8001e82:	4293      	cmp	r3, r2
 8001e84:	d10e      	bne.n	8001ea4 <HAL_TIM_Base_MspInit+0x16c>
    __HAL_RCC_TIM8_CLK_ENABLE();
 8001e86:	2300      	movs	r3, #0
 8001e88:	613b      	str	r3, [r7, #16]
 8001e8a:	4b13      	ldr	r3, [pc, #76]	; (8001ed8 <HAL_TIM_Base_MspInit+0x1a0>)
 8001e8c:	6c5b      	ldr	r3, [r3, #68]	; 0x44
 8001e8e:	4a12      	ldr	r2, [pc, #72]	; (8001ed8 <HAL_TIM_Base_MspInit+0x1a0>)
 8001e90:	f043 0302 	orr.w	r3, r3, #2
 8001e94:	6453      	str	r3, [r2, #68]	; 0x44
 8001e96:	4b10      	ldr	r3, [pc, #64]	; (8001ed8 <HAL_TIM_Base_MspInit+0x1a0>)
 8001e98:	6c5b      	ldr	r3, [r3, #68]	; 0x44
 8001e9a:	f003 0302 	and.w	r3, r3, #2
 8001e9e:	613b      	str	r3, [r7, #16]
 8001ea0:	693b      	ldr	r3, [r7, #16]
}
 8001ea2:	e012      	b.n	8001eca <HAL_TIM_Base_MspInit+0x192>
  else if(htim_base->Instance==TIM12)
 8001ea4:	687b      	ldr	r3, [r7, #4]
 8001ea6:	681b      	ldr	r3, [r3, #0]
 8001ea8:	4a11      	ldr	r2, [pc, #68]	; (8001ef0 <HAL_TIM_Base_MspInit+0x1b8>)
 8001eaa:	4293      	cmp	r3, r2
 8001eac:	d10d      	bne.n	8001eca <HAL_TIM_Base_MspInit+0x192>
    __HAL_RCC_TIM12_CLK_ENABLE();
 8001eae:	2300      	movs	r3, #0
 8001eb0:	60fb      	str	r3, [r7, #12]
 8001eb2:	4b09      	ldr	r3, [pc, #36]	; (8001ed8 <HAL_TIM_Base_MspInit+0x1a0>)
 8001eb4:	6c1b      	ldr	r3, [r3, #64]	; 0x40
 8001eb6:	4a08      	ldr	r2, [pc, #32]	; (8001ed8 <HAL_TIM_Base_MspInit+0x1a0>)
 8001eb8:	f043 0340 	orr.w	r3, r3, #64	; 0x40
 8001ebc:	6413      	str	r3, [r2, #64]	; 0x40
 8001ebe:	4b06      	ldr	r3, [pc, #24]	; (8001ed8 <HAL_TIM_Base_MspInit+0x1a0>)
 8001ec0:	6c1b      	ldr	r3, [r3, #64]	; 0x40
 8001ec2:	f003 0340 	and.w	r3, r3, #64	; 0x40
 8001ec6:	60fb      	str	r3, [r7, #12]
 8001ec8:	68fb      	ldr	r3, [r7, #12]
}
 8001eca:	bf00      	nop
 8001ecc:	3740      	adds	r7, #64	; 0x40
 8001ece:	46bd      	mov	sp, r7
 8001ed0:	bd80      	pop	{r7, pc}
 8001ed2:	bf00      	nop
 8001ed4:	40010000 	.word	0x40010000
 8001ed8:	40023800 	.word	0x40023800
 8001edc:	40020000 	.word	0x40020000
 8001ee0:	40020400 	.word	0x40020400
 8001ee4:	40000400 	.word	0x40000400
 8001ee8:	40000800 	.word	0x40000800
 8001eec:	40010400 	.word	0x40010400
 8001ef0:	40001800 	.word	0x40001800

08001ef4 <HAL_TIM_PWM_MspInit>:
* This function configures the hardware resources used in this example
* @param htim_pwm: TIM_PWM handle pointer
* @retval None
*/
void HAL_TIM_PWM_MspInit(TIM_HandleTypeDef* htim_pwm)
{
 8001ef4:	b480      	push	{r7}
 8001ef6:	b085      	sub	sp, #20
 8001ef8:	af00      	add	r7, sp, #0
 8001efa:	6078      	str	r0, [r7, #4]
  if(htim_pwm->Instance==TIM5)
 8001efc:	687b      	ldr	r3, [r7, #4]
 8001efe:	681b      	ldr	r3, [r3, #0]
 8001f00:	4a0b      	ldr	r2, [pc, #44]	; (8001f30 <HAL_TIM_PWM_MspInit+0x3c>)
 8001f02:	4293      	cmp	r3, r2
 8001f04:	d10d      	bne.n	8001f22 <HAL_TIM_PWM_MspInit+0x2e>
  {
  /* USER CODE BEGIN TIM5_MspInit 0 */

  /* USER CODE END TIM5_MspInit 0 */
    /* Peripheral clock enable */
    __HAL_RCC_TIM5_CLK_ENABLE();
 8001f06:	2300      	movs	r3, #0
 8001f08:	60fb      	str	r3, [r7, #12]
 8001f0a:	4b0a      	ldr	r3, [pc, #40]	; (8001f34 <HAL_TIM_PWM_MspInit+0x40>)
 8001f0c:	6c1b      	ldr	r3, [r3, #64]	; 0x40
 8001f0e:	4a09      	ldr	r2, [pc, #36]	; (8001f34 <HAL_TIM_PWM_MspInit+0x40>)
 8001f10:	f043 0308 	orr.w	r3, r3, #8
 8001f14:	6413      	str	r3, [r2, #64]	; 0x40
 8001f16:	4b07      	ldr	r3, [pc, #28]	; (8001f34 <HAL_TIM_PWM_MspInit+0x40>)
 8001f18:	6c1b      	ldr	r3, [r3, #64]	; 0x40
 8001f1a:	f003 0308 	and.w	r3, r3, #8
 8001f1e:	60fb      	str	r3, [r7, #12]
 8001f20:	68fb      	ldr	r3, [r7, #12]
  /* USER CODE BEGIN TIM5_MspInit 1 */

  /* USER CODE END TIM5_MspInit 1 */
  }

}
 8001f22:	bf00      	nop
 8001f24:	3714      	adds	r7, #20
 8001f26:	46bd      	mov	sp, r7
 8001f28:	f85d 7b04 	ldr.w	r7, [sp], #4
 8001f2c:	4770      	bx	lr
 8001f2e:	bf00      	nop
 8001f30:	40000c00 	.word	0x40000c00
 8001f34:	40023800 	.word	0x40023800

08001f38 <HAL_TIM_MspPostInit>:

void HAL_TIM_MspPostInit(TIM_HandleTypeDef* htim)
{
 8001f38:	b580      	push	{r7, lr}
 8001f3a:	b08e      	sub	sp, #56	; 0x38
 8001f3c:	af00      	add	r7, sp, #0
 8001f3e:	6078      	str	r0, [r7, #4]
  GPIO_InitTypeDef GPIO_InitStruct = {0};
 8001f40:	f107 0324 	add.w	r3, r7, #36	; 0x24
 8001f44:	2200      	movs	r2, #0
 8001f46:	601a      	str	r2, [r3, #0]
 8001f48:	605a      	str	r2, [r3, #4]
 8001f4a:	609a      	str	r2, [r3, #8]
 8001f4c:	60da      	str	r2, [r3, #12]
 8001f4e:	611a      	str	r2, [r3, #16]
  if(htim->Instance==TIM1)
 8001f50:	687b      	ldr	r3, [r7, #4]
 8001f52:	681b      	ldr	r3, [r3, #0]
 8001f54:	4a6d      	ldr	r2, [pc, #436]	; (800210c <HAL_TIM_MspPostInit+0x1d4>)
 8001f56:	4293      	cmp	r3, r2
 8001f58:	d11f      	bne.n	8001f9a <HAL_TIM_MspPostInit+0x62>
  {
  /* USER CODE BEGIN TIM1_MspPostInit 0 */

  /* USER CODE END TIM1_MspPostInit 0 */
    __HAL_RCC_GPIOA_CLK_ENABLE();
 8001f5a:	2300      	movs	r3, #0
 8001f5c:	623b      	str	r3, [r7, #32]
 8001f5e:	4b6c      	ldr	r3, [pc, #432]	; (8002110 <HAL_TIM_MspPostInit+0x1d8>)
 8001f60:	6b1b      	ldr	r3, [r3, #48]	; 0x30
 8001f62:	4a6b      	ldr	r2, [pc, #428]	; (8002110 <HAL_TIM_MspPostInit+0x1d8>)
 8001f64:	f043 0301 	orr.w	r3, r3, #1
 8001f68:	6313      	str	r3, [r2, #48]	; 0x30
 8001f6a:	4b69      	ldr	r3, [pc, #420]	; (8002110 <HAL_TIM_MspPostInit+0x1d8>)
 8001f6c:	6b1b      	ldr	r3, [r3, #48]	; 0x30
 8001f6e:	f003 0301 	and.w	r3, r3, #1
 8001f72:	623b      	str	r3, [r7, #32]
 8001f74:	6a3b      	ldr	r3, [r7, #32]
    /**TIM1 GPIO Configuration
    PA8     ------> TIM1_CH1
    */
    GPIO_InitStruct.Pin = GPIO_PIN_8;
 8001f76:	f44f 7380 	mov.w	r3, #256	; 0x100
 8001f7a:	627b      	str	r3, [r7, #36]	; 0x24
    GPIO_InitStruct.Mode = GPIO_MODE_AF_PP;
 8001f7c:	2302      	movs	r3, #2
 8001f7e:	62bb      	str	r3, [r7, #40]	; 0x28
    GPIO_InitStruct.Pull = GPIO_NOPULL;
 8001f80:	2300      	movs	r3, #0
 8001f82:	62fb      	str	r3, [r7, #44]	; 0x2c
    GPIO_InitStruct.Speed = GPIO_SPEED_FREQ_LOW;
 8001f84:	2300      	movs	r3, #0
 8001f86:	633b      	str	r3, [r7, #48]	; 0x30
    GPIO_InitStruct.Alternate = GPIO_AF1_TIM1;
 8001f88:	2301      	movs	r3, #1
 8001f8a:	637b      	str	r3, [r7, #52]	; 0x34
    HAL_GPIO_Init(GPIOA, &GPIO_InitStruct);
 8001f8c:	f107 0324 	add.w	r3, r7, #36	; 0x24
 8001f90:	4619      	mov	r1, r3
 8001f92:	4860      	ldr	r0, [pc, #384]	; (8002114 <HAL_TIM_MspPostInit+0x1dc>)
 8001f94:	f000 fbf6 	bl	8002784 <HAL_GPIO_Init>
  /* USER CODE BEGIN TIM12_MspPostInit 1 */

  /* USER CODE END TIM12_MspPostInit 1 */
  }

}
 8001f98:	e0b3      	b.n	8002102 <HAL_TIM_MspPostInit+0x1ca>
  else if(htim->Instance==TIM3)
 8001f9a:	687b      	ldr	r3, [r7, #4]
 8001f9c:	681b      	ldr	r3, [r3, #0]
 8001f9e:	4a5e      	ldr	r2, [pc, #376]	; (8002118 <HAL_TIM_MspPostInit+0x1e0>)
 8001fa0:	4293      	cmp	r3, r2
 8001fa2:	d11e      	bne.n	8001fe2 <HAL_TIM_MspPostInit+0xaa>
    __HAL_RCC_GPIOA_CLK_ENABLE();
 8001fa4:	2300      	movs	r3, #0
 8001fa6:	61fb      	str	r3, [r7, #28]
 8001fa8:	4b59      	ldr	r3, [pc, #356]	; (8002110 <HAL_TIM_MspPostInit+0x1d8>)
 8001faa:	6b1b      	ldr	r3, [r3, #48]	; 0x30
 8001fac:	4a58      	ldr	r2, [pc, #352]	; (8002110 <HAL_TIM_MspPostInit+0x1d8>)
 8001fae:	f043 0301 	orr.w	r3, r3, #1
 8001fb2:	6313      	str	r3, [r2, #48]	; 0x30
 8001fb4:	4b56      	ldr	r3, [pc, #344]	; (8002110 <HAL_TIM_MspPostInit+0x1d8>)
 8001fb6:	6b1b      	ldr	r3, [r3, #48]	; 0x30
 8001fb8:	f003 0301 	and.w	r3, r3, #1
 8001fbc:	61fb      	str	r3, [r7, #28]
 8001fbe:	69fb      	ldr	r3, [r7, #28]
    GPIO_InitStruct.Pin = GPIO_PIN_6;
 8001fc0:	2340      	movs	r3, #64	; 0x40
 8001fc2:	627b      	str	r3, [r7, #36]	; 0x24
    GPIO_InitStruct.Mode = GPIO_MODE_AF_PP;
 8001fc4:	2302      	movs	r3, #2
 8001fc6:	62bb      	str	r3, [r7, #40]	; 0x28
    GPIO_InitStruct.Pull = GPIO_NOPULL;
 8001fc8:	2300      	movs	r3, #0
 8001fca:	62fb      	str	r3, [r7, #44]	; 0x2c
    GPIO_InitStruct.Speed = GPIO_SPEED_FREQ_LOW;
 8001fcc:	2300      	movs	r3, #0
 8001fce:	633b      	str	r3, [r7, #48]	; 0x30
    GPIO_InitStruct.Alternate = GPIO_AF2_TIM3;
 8001fd0:	2302      	movs	r3, #2
 8001fd2:	637b      	str	r3, [r7, #52]	; 0x34
    HAL_GPIO_Init(GPIOA, &GPIO_InitStruct);
 8001fd4:	f107 0324 	add.w	r3, r7, #36	; 0x24
 8001fd8:	4619      	mov	r1, r3
 8001fda:	484e      	ldr	r0, [pc, #312]	; (8002114 <HAL_TIM_MspPostInit+0x1dc>)
 8001fdc:	f000 fbd2 	bl	8002784 <HAL_GPIO_Init>
}
 8001fe0:	e08f      	b.n	8002102 <HAL_TIM_MspPostInit+0x1ca>
  else if(htim->Instance==TIM4)
 8001fe2:	687b      	ldr	r3, [r7, #4]
 8001fe4:	681b      	ldr	r3, [r3, #0]
 8001fe6:	4a4d      	ldr	r2, [pc, #308]	; (800211c <HAL_TIM_MspPostInit+0x1e4>)
 8001fe8:	4293      	cmp	r3, r2
 8001fea:	d11e      	bne.n	800202a <HAL_TIM_MspPostInit+0xf2>
    __HAL_RCC_GPIOB_CLK_ENABLE();
 8001fec:	2300      	movs	r3, #0
 8001fee:	61bb      	str	r3, [r7, #24]
 8001ff0:	4b47      	ldr	r3, [pc, #284]	; (8002110 <HAL_TIM_MspPostInit+0x1d8>)
 8001ff2:	6b1b      	ldr	r3, [r3, #48]	; 0x30
 8001ff4:	4a46      	ldr	r2, [pc, #280]	; (8002110 <HAL_TIM_MspPostInit+0x1d8>)
 8001ff6:	f043 0302 	orr.w	r3, r3, #2
 8001ffa:	6313      	str	r3, [r2, #48]	; 0x30
 8001ffc:	4b44      	ldr	r3, [pc, #272]	; (8002110 <HAL_TIM_MspPostInit+0x1d8>)
 8001ffe:	6b1b      	ldr	r3, [r3, #48]	; 0x30
 8002000:	f003 0302 	and.w	r3, r3, #2
 8002004:	61bb      	str	r3, [r7, #24]
 8002006:	69bb      	ldr	r3, [r7, #24]
    GPIO_InitStruct.Pin = GPIO_PIN_6;
 8002008:	2340      	movs	r3, #64	; 0x40
 800200a:	627b      	str	r3, [r7, #36]	; 0x24
    GPIO_InitStruct.Mode = GPIO_MODE_AF_PP;
 800200c:	2302      	movs	r3, #2
 800200e:	62bb      	str	r3, [r7, #40]	; 0x28
    GPIO_InitStruct.Pull = GPIO_NOPULL;
 8002010:	2300      	movs	r3, #0
 8002012:	62fb      	str	r3, [r7, #44]	; 0x2c
    GPIO_InitStruct.Speed = GPIO_SPEED_FREQ_LOW;
 8002014:	2300      	movs	r3, #0
 8002016:	633b      	str	r3, [r7, #48]	; 0x30
    GPIO_InitStruct.Alternate = GPIO_AF2_TIM4;
 8002018:	2302      	movs	r3, #2
 800201a:	637b      	str	r3, [r7, #52]	; 0x34
    HAL_GPIO_Init(GPIOB, &GPIO_InitStruct);
 800201c:	f107 0324 	add.w	r3, r7, #36	; 0x24
 8002020:	4619      	mov	r1, r3
 8002022:	483f      	ldr	r0, [pc, #252]	; (8002120 <HAL_TIM_MspPostInit+0x1e8>)
 8002024:	f000 fbae 	bl	8002784 <HAL_GPIO_Init>
}
 8002028:	e06b      	b.n	8002102 <HAL_TIM_MspPostInit+0x1ca>
  else if(htim->Instance==TIM5)
 800202a:	687b      	ldr	r3, [r7, #4]
 800202c:	681b      	ldr	r3, [r3, #0]
 800202e:	4a3d      	ldr	r2, [pc, #244]	; (8002124 <HAL_TIM_MspPostInit+0x1ec>)
 8002030:	4293      	cmp	r3, r2
 8002032:	d11e      	bne.n	8002072 <HAL_TIM_MspPostInit+0x13a>
    __HAL_RCC_GPIOA_CLK_ENABLE();
 8002034:	2300      	movs	r3, #0
 8002036:	617b      	str	r3, [r7, #20]
 8002038:	4b35      	ldr	r3, [pc, #212]	; (8002110 <HAL_TIM_MspPostInit+0x1d8>)
 800203a:	6b1b      	ldr	r3, [r3, #48]	; 0x30
 800203c:	4a34      	ldr	r2, [pc, #208]	; (8002110 <HAL_TIM_MspPostInit+0x1d8>)
 800203e:	f043 0301 	orr.w	r3, r3, #1
 8002042:	6313      	str	r3, [r2, #48]	; 0x30
 8002044:	4b32      	ldr	r3, [pc, #200]	; (8002110 <HAL_TIM_MspPostInit+0x1d8>)
 8002046:	6b1b      	ldr	r3, [r3, #48]	; 0x30
 8002048:	f003 0301 	and.w	r3, r3, #1
 800204c:	617b      	str	r3, [r7, #20]
 800204e:	697b      	ldr	r3, [r7, #20]
    GPIO_InitStruct.Pin = GPIO_PIN_0;
 8002050:	2301      	movs	r3, #1
 8002052:	627b      	str	r3, [r7, #36]	; 0x24
    GPIO_InitStruct.Mode = GPIO_MODE_AF_PP;
 8002054:	2302      	movs	r3, #2
 8002056:	62bb      	str	r3, [r7, #40]	; 0x28
    GPIO_InitStruct.Pull = GPIO_NOPULL;
 8002058:	2300      	movs	r3, #0
 800205a:	62fb      	str	r3, [r7, #44]	; 0x2c
    GPIO_InitStruct.Speed = GPIO_SPEED_FREQ_LOW;
 800205c:	2300      	movs	r3, #0
 800205e:	633b      	str	r3, [r7, #48]	; 0x30
    GPIO_InitStruct.Alternate = GPIO_AF2_TIM5;
 8002060:	2302      	movs	r3, #2
 8002062:	637b      	str	r3, [r7, #52]	; 0x34
    HAL_GPIO_Init(GPIOA, &GPIO_InitStruct);
 8002064:	f107 0324 	add.w	r3, r7, #36	; 0x24
 8002068:	4619      	mov	r1, r3
 800206a:	482a      	ldr	r0, [pc, #168]	; (8002114 <HAL_TIM_MspPostInit+0x1dc>)
 800206c:	f000 fb8a 	bl	8002784 <HAL_GPIO_Init>
}
 8002070:	e047      	b.n	8002102 <HAL_TIM_MspPostInit+0x1ca>
  else if(htim->Instance==TIM8)
 8002072:	687b      	ldr	r3, [r7, #4]
 8002074:	681b      	ldr	r3, [r3, #0]
 8002076:	4a2c      	ldr	r2, [pc, #176]	; (8002128 <HAL_TIM_MspPostInit+0x1f0>)
 8002078:	4293      	cmp	r3, r2
 800207a:	d11e      	bne.n	80020ba <HAL_TIM_MspPostInit+0x182>
    __HAL_RCC_GPIOC_CLK_ENABLE();
 800207c:	2300      	movs	r3, #0
 800207e:	613b      	str	r3, [r7, #16]
 8002080:	4b23      	ldr	r3, [pc, #140]	; (8002110 <HAL_TIM_MspPostInit+0x1d8>)
 8002082:	6b1b      	ldr	r3, [r3, #48]	; 0x30
 8002084:	4a22      	ldr	r2, [pc, #136]	; (8002110 <HAL_TIM_MspPostInit+0x1d8>)
 8002086:	f043 0304 	orr.w	r3, r3, #4
 800208a:	6313      	str	r3, [r2, #48]	; 0x30
 800208c:	4b20      	ldr	r3, [pc, #128]	; (8002110 <HAL_TIM_MspPostInit+0x1d8>)
 800208e:	6b1b      	ldr	r3, [r3, #48]	; 0x30
 8002090:	f003 0304 	and.w	r3, r3, #4
 8002094:	613b      	str	r3, [r7, #16]
 8002096:	693b      	ldr	r3, [r7, #16]
    GPIO_InitStruct.Pin = GPIO_PIN_6;
 8002098:	2340      	movs	r3, #64	; 0x40
 800209a:	627b      	str	r3, [r7, #36]	; 0x24
    GPIO_InitStruct.Mode = GPIO_MODE_AF_PP;
 800209c:	2302      	movs	r3, #2
 800209e:	62bb      	str	r3, [r7, #40]	; 0x28
    GPIO_InitStruct.Pull = GPIO_NOPULL;
 80020a0:	2300      	movs	r3, #0
 80020a2:	62fb      	str	r3, [r7, #44]	; 0x2c
    GPIO_InitStruct.Speed = GPIO_SPEED_FREQ_LOW;
 80020a4:	2300      	movs	r3, #0
 80020a6:	633b      	str	r3, [r7, #48]	; 0x30
    GPIO_InitStruct.Alternate = GPIO_AF3_TIM8;
 80020a8:	2303      	movs	r3, #3
 80020aa:	637b      	str	r3, [r7, #52]	; 0x34
    HAL_GPIO_Init(GPIOC, &GPIO_InitStruct);
 80020ac:	f107 0324 	add.w	r3, r7, #36	; 0x24
 80020b0:	4619      	mov	r1, r3
 80020b2:	481e      	ldr	r0, [pc, #120]	; (800212c <HAL_TIM_MspPostInit+0x1f4>)
 80020b4:	f000 fb66 	bl	8002784 <HAL_GPIO_Init>
}
 80020b8:	e023      	b.n	8002102 <HAL_TIM_MspPostInit+0x1ca>
  else if(htim->Instance==TIM12)
 80020ba:	687b      	ldr	r3, [r7, #4]
 80020bc:	681b      	ldr	r3, [r3, #0]
 80020be:	4a1c      	ldr	r2, [pc, #112]	; (8002130 <HAL_TIM_MspPostInit+0x1f8>)
 80020c0:	4293      	cmp	r3, r2
 80020c2:	d11e      	bne.n	8002102 <HAL_TIM_MspPostInit+0x1ca>
    __HAL_RCC_GPIOB_CLK_ENABLE();
 80020c4:	2300      	movs	r3, #0
 80020c6:	60fb      	str	r3, [r7, #12]
 80020c8:	4b11      	ldr	r3, [pc, #68]	; (8002110 <HAL_TIM_MspPostInit+0x1d8>)
 80020ca:	6b1b      	ldr	r3, [r3, #48]	; 0x30
 80020cc:	4a10      	ldr	r2, [pc, #64]	; (8002110 <HAL_TIM_MspPostInit+0x1d8>)
 80020ce:	f043 0302 	orr.w	r3, r3, #2
 80020d2:	6313      	str	r3, [r2, #48]	; 0x30
 80020d4:	4b0e      	ldr	r3, [pc, #56]	; (8002110 <HAL_TIM_MspPostInit+0x1d8>)
 80020d6:	6b1b      	ldr	r3, [r3, #48]	; 0x30
 80020d8:	f003 0302 	and.w	r3, r3, #2
 80020dc:	60fb      	str	r3, [r7, #12]
 80020de:	68fb      	ldr	r3, [r7, #12]
    GPIO_InitStruct.Pin = GPIO_PIN_14;
 80020e0:	f44f 4380 	mov.w	r3, #16384	; 0x4000
 80020e4:	627b      	str	r3, [r7, #36]	; 0x24
    GPIO_InitStruct.Mode = GPIO_MODE_AF_PP;
 80020e6:	2302      	movs	r3, #2
 80020e8:	62bb      	str	r3, [r7, #40]	; 0x28
    GPIO_InitStruct.Pull = GPIO_NOPULL;
 80020ea:	2300      	movs	r3, #0
 80020ec:	62fb      	str	r3, [r7, #44]	; 0x2c
    GPIO_InitStruct.Speed = GPIO_SPEED_FREQ_LOW;
 80020ee:	2300      	movs	r3, #0
 80020f0:	633b      	str	r3, [r7, #48]	; 0x30
    GPIO_InitStruct.Alternate = GPIO_AF9_TIM12;
 80020f2:	2309      	movs	r3, #9
 80020f4:	637b      	str	r3, [r7, #52]	; 0x34
    HAL_GPIO_Init(GPIOB, &GPIO_InitStruct);
 80020f6:	f107 0324 	add.w	r3, r7, #36	; 0x24
 80020fa:	4619      	mov	r1, r3
 80020fc:	4808      	ldr	r0, [pc, #32]	; (8002120 <HAL_TIM_MspPostInit+0x1e8>)
 80020fe:	f000 fb41 	bl	8002784 <HAL_GPIO_Init>
}
 8002102:	bf00      	nop
 8002104:	3738      	adds	r7, #56	; 0x38
 8002106:	46bd      	mov	sp, r7
 8002108:	bd80      	pop	{r7, pc}
 800210a:	bf00      	nop
 800210c:	40010000 	.word	0x40010000
 8002110:	40023800 	.word	0x40023800
 8002114:	40020000 	.word	0x40020000
 8002118:	40000400 	.word	0x40000400
 800211c:	40000800 	.word	0x40000800
 8002120:	40020400 	.word	0x40020400
 8002124:	40000c00 	.word	0x40000c00
 8002128:	40010400 	.word	0x40010400
 800212c:	40020800 	.word	0x40020800
 8002130:	40001800 	.word	0x40001800

08002134 <HAL_UART_MspInit>:
* This function configures the hardware resources used in this example
* @param huart: UART handle pointer
* @retval None
*/
void HAL_UART_MspInit(UART_HandleTypeDef* huart)
{
 8002134:	b580      	push	{r7, lr}
 8002136:	b08a      	sub	sp, #40	; 0x28
 8002138:	af00      	add	r7, sp, #0
 800213a:	6078      	str	r0, [r7, #4]
  GPIO_InitTypeDef GPIO_InitStruct = {0};
 800213c:	f107 0314 	add.w	r3, r7, #20
 8002140:	2200      	movs	r2, #0
 8002142:	601a      	str	r2, [r3, #0]
 8002144:	605a      	str	r2, [r3, #4]
 8002146:	609a      	str	r2, [r3, #8]
 8002148:	60da      	str	r2, [r3, #12]
 800214a:	611a      	str	r2, [r3, #16]
  if(huart->Instance==USART2)
 800214c:	687b      	ldr	r3, [r7, #4]
 800214e:	681b      	ldr	r3, [r3, #0]
 8002150:	4a19      	ldr	r2, [pc, #100]	; (80021b8 <HAL_UART_MspInit+0x84>)
 8002152:	4293      	cmp	r3, r2
 8002154:	d12b      	bne.n	80021ae <HAL_UART_MspInit+0x7a>
  {
  /* USER CODE BEGIN USART2_MspInit 0 */

  /* USER CODE END USART2_MspInit 0 */
    /* Peripheral clock enable */
    __HAL_RCC_USART2_CLK_ENABLE();
 8002156:	2300      	movs	r3, #0
 8002158:	613b      	str	r3, [r7, #16]
 800215a:	4b18      	ldr	r3, [pc, #96]	; (80021bc <HAL_UART_MspInit+0x88>)
 800215c:	6c1b      	ldr	r3, [r3, #64]	; 0x40
 800215e:	4a17      	ldr	r2, [pc, #92]	; (80021bc <HAL_UART_MspInit+0x88>)
 8002160:	f443 3300 	orr.w	r3, r3, #131072	; 0x20000
 8002164:	6413      	str	r3, [r2, #64]	; 0x40
 8002166:	4b15      	ldr	r3, [pc, #84]	; (80021bc <HAL_UART_MspInit+0x88>)
 8002168:	6c1b      	ldr	r3, [r3, #64]	; 0x40
 800216a:	f403 3300 	and.w	r3, r3, #131072	; 0x20000
 800216e:	613b      	str	r3, [r7, #16]
 8002170:	693b      	ldr	r3, [r7, #16]

    __HAL_RCC_GPIOA_CLK_ENABLE();
 8002172:	2300      	movs	r3, #0
 8002174:	60fb      	str	r3, [r7, #12]
 8002176:	4b11      	ldr	r3, [pc, #68]	; (80021bc <HAL_UART_MspInit+0x88>)
 8002178:	6b1b      	ldr	r3, [r3, #48]	; 0x30
 800217a:	4a10      	ldr	r2, [pc, #64]	; (80021bc <HAL_UART_MspInit+0x88>)
 800217c:	f043 0301 	orr.w	r3, r3, #1
 8002180:	6313      	str	r3, [r2, #48]	; 0x30
 8002182:	4b0e      	ldr	r3, [pc, #56]	; (80021bc <HAL_UART_MspInit+0x88>)
 8002184:	6b1b      	ldr	r3, [r3, #48]	; 0x30
 8002186:	f003 0301 	and.w	r3, r3, #1
 800218a:	60fb      	str	r3, [r7, #12]
 800218c:	68fb      	ldr	r3, [r7, #12]
    /**USART2 GPIO Configuration
    PA2     ------> USART2_TX
    PA3     ------> USART2_RX
    */
    GPIO_InitStruct.Pin = USART_TX_Pin|USART_RX_Pin;
 800218e:	230c      	movs	r3, #12
 8002190:	617b      	str	r3, [r7, #20]
    GPIO_InitStruct.Mode = GPIO_MODE_AF_PP;
 8002192:	2302      	movs	r3, #2
 8002194:	61bb      	str	r3, [r7, #24]
    GPIO_InitStruct.Pull = GPIO_NOPULL;
 8002196:	2300      	movs	r3, #0
 8002198:	61fb      	str	r3, [r7, #28]
    GPIO_InitStruct.Speed = GPIO_SPEED_FREQ_VERY_HIGH;
 800219a:	2303      	movs	r3, #3
 800219c:	623b      	str	r3, [r7, #32]
    GPIO_InitStruct.Alternate = GPIO_AF7_USART2;
 800219e:	2307      	movs	r3, #7
 80021a0:	627b      	str	r3, [r7, #36]	; 0x24
    HAL_GPIO_Init(GPIOA, &GPIO_InitStruct);
 80021a2:	f107 0314 	add.w	r3, r7, #20
 80021a6:	4619      	mov	r1, r3
 80021a8:	4805      	ldr	r0, [pc, #20]	; (80021c0 <HAL_UART_MspInit+0x8c>)
 80021aa:	f000 faeb 	bl	8002784 <HAL_GPIO_Init>
  /* USER CODE BEGIN USART2_MspInit 1 */

  /* USER CODE END USART2_MspInit 1 */
  }

}
 80021ae:	bf00      	nop
 80021b0:	3728      	adds	r7, #40	; 0x28
 80021b2:	46bd      	mov	sp, r7
 80021b4:	bd80      	pop	{r7, pc}
 80021b6:	bf00      	nop
 80021b8:	40004400 	.word	0x40004400
 80021bc:	40023800 	.word	0x40023800
 80021c0:	40020000 	.word	0x40020000

080021c4 <NMI_Handler>:
/******************************************************************************/
/**
  * @brief This function handles Non maskable interrupt.
  */
void NMI_Handler(void)
{
 80021c4:	b480      	push	{r7}
 80021c6:	af00      	add	r7, sp, #0
  /* USER CODE BEGIN NonMaskableInt_IRQn 0 */

  /* USER CODE END NonMaskableInt_IRQn 0 */
  /* USER CODE BEGIN NonMaskableInt_IRQn 1 */
  while (1)
 80021c8:	e7fe      	b.n	80021c8 <NMI_Handler+0x4>

080021ca <HardFault_Handler>:

/**
  * @brief This function handles Hard fault interrupt.
  */
void HardFault_Handler(void)
{
 80021ca:	b480      	push	{r7}
 80021cc:	af00      	add	r7, sp, #0
  /* USER CODE BEGIN HardFault_IRQn 0 */

  /* USER CODE END HardFault_IRQn 0 */
  while (1)
 80021ce:	e7fe      	b.n	80021ce <HardFault_Handler+0x4>

080021d0 <MemManage_Handler>:

/**
  * @brief This function handles Memory management fault.
  */
void MemManage_Handler(void)
{
 80021d0:	b480      	push	{r7}
 80021d2:	af00      	add	r7, sp, #0
  /* USER CODE BEGIN MemoryManagement_IRQn 0 */

  /* USER CODE END MemoryManagement_IRQn 0 */
  while (1)
 80021d4:	e7fe      	b.n	80021d4 <MemManage_Handler+0x4>

080021d6 <BusFault_Handler>:

/**
  * @brief This function handles Pre-fetch fault, memory access fault.
  */
void BusFault_Handler(void)
{
 80021d6:	b480      	push	{r7}
 80021d8:	af00      	add	r7, sp, #0
  /* USER CODE BEGIN BusFault_IRQn 0 */

  /* USER CODE END BusFault_IRQn 0 */
  while (1)
 80021da:	e7fe      	b.n	80021da <BusFault_Handler+0x4>

080021dc <UsageFault_Handler>:

/**
  * @brief This function handles Undefined instruction or illegal state.
  */
void UsageFault_Handler(void)
{
 80021dc:	b480      	push	{r7}
 80021de:	af00      	add	r7, sp, #0
  /* USER CODE BEGIN UsageFault_IRQn 0 */

  /* USER CODE END UsageFault_IRQn 0 */
  while (1)
 80021e0:	e7fe      	b.n	80021e0 <UsageFault_Handler+0x4>

080021e2 <SVC_Handler>:

/**
  * @brief This function handles System service call via SWI instruction.
  */
void SVC_Handler(void)
{
 80021e2:	b480      	push	{r7}
 80021e4:	af00      	add	r7, sp, #0

  /* USER CODE END SVCall_IRQn 0 */
  /* USER CODE BEGIN SVCall_IRQn 1 */

  /* USER CODE END SVCall_IRQn 1 */
}
 80021e6:	bf00      	nop
 80021e8:	46bd      	mov	sp, r7
 80021ea:	f85d 7b04 	ldr.w	r7, [sp], #4
 80021ee:	4770      	bx	lr

080021f0 <DebugMon_Handler>:

/**
  * @brief This function handles Debug monitor.
  */
void DebugMon_Handler(void)
{
 80021f0:	b480      	push	{r7}
 80021f2:	af00      	add	r7, sp, #0

  /* USER CODE END DebugMonitor_IRQn 0 */
  /* USER CODE BEGIN DebugMonitor_IRQn 1 */

  /* USER CODE END DebugMonitor_IRQn 1 */
}
 80021f4:	bf00      	nop
 80021f6:	46bd      	mov	sp, r7
 80021f8:	f85d 7b04 	ldr.w	r7, [sp], #4
 80021fc:	4770      	bx	lr

080021fe <PendSV_Handler>:

/**
  * @brief This function handles Pendable request for system service.
  */
void PendSV_Handler(void)
{
 80021fe:	b480      	push	{r7}
 8002200:	af00      	add	r7, sp, #0

  /* USER CODE END PendSV_IRQn 0 */
  /* USER CODE BEGIN PendSV_IRQn 1 */

  /* USER CODE END PendSV_IRQn 1 */
}
 8002202:	bf00      	nop
 8002204:	46bd      	mov	sp, r7
 8002206:	f85d 7b04 	ldr.w	r7, [sp], #4
 800220a:	4770      	bx	lr

0800220c <SysTick_Handler>:

/**
  * @brief This function handles System tick timer.
  */
void SysTick_Handler(void)
{
 800220c:	b580      	push	{r7, lr}
 800220e:	af00      	add	r7, sp, #0
  /* USER CODE BEGIN SysTick_IRQn 0 */

  /* USER CODE END SysTick_IRQn 0 */
  HAL_IncTick();
 8002210:	f000 f962 	bl	80024d8 <HAL_IncTick>
  /* USER CODE BEGIN SysTick_IRQn 1 */
  SysTick_CallBack();
 8002214:	f7ff fd26 	bl	8001c64 <SysTick_CallBack>
  /* USER CODE END SysTick_IRQn 1 */
}
 8002218:	bf00      	nop
 800221a:	bd80      	pop	{r7, pc}

0800221c <TIM2_IRQHandler>:

/**
  * @brief This function handles TIM2 global interrupt.
  */
void TIM2_IRQHandler(void)
{
 800221c:	b580      	push	{r7, lr}
 800221e:	af00      	add	r7, sp, #0
  /* USER CODE BEGIN TIM2_IRQn 0 */

  /* USER CODE END TIM2_IRQn 0 */
  HAL_TIM_IRQHandler(&htim2);
 8002220:	4802      	ldr	r0, [pc, #8]	; (800222c <TIM2_IRQHandler+0x10>)
 8002222:	f001 fd21 	bl	8003c68 <HAL_TIM_IRQHandler>
  /* USER CODE BEGIN TIM2_IRQn 1 */

  /* USER CODE END TIM2_IRQn 1 */
}
 8002226:	bf00      	nop
 8002228:	bd80      	pop	{r7, pc}
 800222a:	bf00      	nop
 800222c:	2000045c 	.word	0x2000045c

08002230 <_getpid>:
void initialise_monitor_handles()
{
}

int _getpid(void)
{
 8002230:	b480      	push	{r7}
 8002232:	af00      	add	r7, sp, #0
	return 1;
 8002234:	2301      	movs	r3, #1
}
 8002236:	4618      	mov	r0, r3
 8002238:	46bd      	mov	sp, r7
 800223a:	f85d 7b04 	ldr.w	r7, [sp], #4
 800223e:	4770      	bx	lr

08002240 <_kill>:

int _kill(int pid, int sig)
{
 8002240:	b580      	push	{r7, lr}
 8002242:	b082      	sub	sp, #8
 8002244:	af00      	add	r7, sp, #0
 8002246:	6078      	str	r0, [r7, #4]
 8002248:	6039      	str	r1, [r7, #0]
	errno = EINVAL;
 800224a:	f003 fdeb 	bl	8005e24 <__errno>
 800224e:	4603      	mov	r3, r0
 8002250:	2216      	movs	r2, #22
 8002252:	601a      	str	r2, [r3, #0]
	return -1;
 8002254:	f04f 33ff 	mov.w	r3, #4294967295	; 0xffffffff
}
 8002258:	4618      	mov	r0, r3
 800225a:	3708      	adds	r7, #8
 800225c:	46bd      	mov	sp, r7
 800225e:	bd80      	pop	{r7, pc}

08002260 <_exit>:

void _exit (int status)
{
 8002260:	b580      	push	{r7, lr}
 8002262:	b082      	sub	sp, #8
 8002264:	af00      	add	r7, sp, #0
 8002266:	6078      	str	r0, [r7, #4]
	_kill(status, -1);
 8002268:	f04f 31ff 	mov.w	r1, #4294967295	; 0xffffffff
 800226c:	6878      	ldr	r0, [r7, #4]
 800226e:	f7ff ffe7 	bl	8002240 <_kill>
	while (1) {}		/* Make sure we hang here */
 8002272:	e7fe      	b.n	8002272 <_exit+0x12>

08002274 <_read>:
}

__attribute__((weak)) int _read(int file, char *ptr, int len)
{
 8002274:	b580      	push	{r7, lr}
 8002276:	b086      	sub	sp, #24
 8002278:	af00      	add	r7, sp, #0
 800227a:	60f8      	str	r0, [r7, #12]
 800227c:	60b9      	str	r1, [r7, #8]
 800227e:	607a      	str	r2, [r7, #4]
	int DataIdx;

	for (DataIdx = 0; DataIdx < len; DataIdx++)
 8002280:	2300      	movs	r3, #0
 8002282:	617b      	str	r3, [r7, #20]
 8002284:	e00a      	b.n	800229c <_read+0x28>
	{
		*ptr++ = __io_getchar();
 8002286:	f3af 8000 	nop.w
 800228a:	4601      	mov	r1, r0
 800228c:	68bb      	ldr	r3, [r7, #8]
 800228e:	1c5a      	adds	r2, r3, #1
 8002290:	60ba      	str	r2, [r7, #8]
 8002292:	b2ca      	uxtb	r2, r1
 8002294:	701a      	strb	r2, [r3, #0]
	for (DataIdx = 0; DataIdx < len; DataIdx++)
 8002296:	697b      	ldr	r3, [r7, #20]
 8002298:	3301      	adds	r3, #1
 800229a:	617b      	str	r3, [r7, #20]
 800229c:	697a      	ldr	r2, [r7, #20]
 800229e:	687b      	ldr	r3, [r7, #4]
 80022a0:	429a      	cmp	r2, r3
 80022a2:	dbf0      	blt.n	8002286 <_read+0x12>
	}

return len;
 80022a4:	687b      	ldr	r3, [r7, #4]
}
 80022a6:	4618      	mov	r0, r3
 80022a8:	3718      	adds	r7, #24
 80022aa:	46bd      	mov	sp, r7
 80022ac:	bd80      	pop	{r7, pc}

080022ae <_write>:

__attribute__((weak)) int _write(int file, char *ptr, int len)
{
 80022ae:	b580      	push	{r7, lr}
 80022b0:	b086      	sub	sp, #24
 80022b2:	af00      	add	r7, sp, #0
 80022b4:	60f8      	str	r0, [r7, #12]
 80022b6:	60b9      	str	r1, [r7, #8]
 80022b8:	607a      	str	r2, [r7, #4]
	int DataIdx;

	for (DataIdx = 0; DataIdx < len; DataIdx++)
 80022ba:	2300      	movs	r3, #0
 80022bc:	617b      	str	r3, [r7, #20]
 80022be:	e009      	b.n	80022d4 <_write+0x26>
	{
		__io_putchar(*ptr++);
 80022c0:	68bb      	ldr	r3, [r7, #8]
 80022c2:	1c5a      	adds	r2, r3, #1
 80022c4:	60ba      	str	r2, [r7, #8]
 80022c6:	781b      	ldrb	r3, [r3, #0]
 80022c8:	4618      	mov	r0, r3
 80022ca:	f3af 8000 	nop.w
	for (DataIdx = 0; DataIdx < len; DataIdx++)
 80022ce:	697b      	ldr	r3, [r7, #20]
 80022d0:	3301      	adds	r3, #1
 80022d2:	617b      	str	r3, [r7, #20]
 80022d4:	697a      	ldr	r2, [r7, #20]
 80022d6:	687b      	ldr	r3, [r7, #4]
 80022d8:	429a      	cmp	r2, r3
 80022da:	dbf1      	blt.n	80022c0 <_write+0x12>
	}
	return len;
 80022dc:	687b      	ldr	r3, [r7, #4]
}
 80022de:	4618      	mov	r0, r3
 80022e0:	3718      	adds	r7, #24
 80022e2:	46bd      	mov	sp, r7
 80022e4:	bd80      	pop	{r7, pc}

080022e6 <_close>:

int _close(int file)
{
 80022e6:	b480      	push	{r7}
 80022e8:	b083      	sub	sp, #12
 80022ea:	af00      	add	r7, sp, #0
 80022ec:	6078      	str	r0, [r7, #4]
	return -1;
 80022ee:	f04f 33ff 	mov.w	r3, #4294967295	; 0xffffffff
}
 80022f2:	4618      	mov	r0, r3
 80022f4:	370c      	adds	r7, #12
 80022f6:	46bd      	mov	sp, r7
 80022f8:	f85d 7b04 	ldr.w	r7, [sp], #4
 80022fc:	4770      	bx	lr

080022fe <_fstat>:


int _fstat(int file, struct stat *st)
{
 80022fe:	b480      	push	{r7}
 8002300:	b083      	sub	sp, #12
 8002302:	af00      	add	r7, sp, #0
 8002304:	6078      	str	r0, [r7, #4]
 8002306:	6039      	str	r1, [r7, #0]
	st->st_mode = S_IFCHR;
 8002308:	683b      	ldr	r3, [r7, #0]
 800230a:	f44f 5200 	mov.w	r2, #8192	; 0x2000
 800230e:	605a      	str	r2, [r3, #4]
	return 0;
 8002310:	2300      	movs	r3, #0
}
 8002312:	4618      	mov	r0, r3
 8002314:	370c      	adds	r7, #12
 8002316:	46bd      	mov	sp, r7
 8002318:	f85d 7b04 	ldr.w	r7, [sp], #4
 800231c:	4770      	bx	lr

0800231e <_isatty>:

int _isatty(int file)
{
 800231e:	b480      	push	{r7}
 8002320:	b083      	sub	sp, #12
 8002322:	af00      	add	r7, sp, #0
 8002324:	6078      	str	r0, [r7, #4]
	return 1;
 8002326:	2301      	movs	r3, #1
}
 8002328:	4618      	mov	r0, r3
 800232a:	370c      	adds	r7, #12
 800232c:	46bd      	mov	sp, r7
 800232e:	f85d 7b04 	ldr.w	r7, [sp], #4
 8002332:	4770      	bx	lr

08002334 <_lseek>:

int _lseek(int file, int ptr, int dir)
{
 8002334:	b480      	push	{r7}
 8002336:	b085      	sub	sp, #20
 8002338:	af00      	add	r7, sp, #0
 800233a:	60f8      	str	r0, [r7, #12]
 800233c:	60b9      	str	r1, [r7, #8]
 800233e:	607a      	str	r2, [r7, #4]
	return 0;
 8002340:	2300      	movs	r3, #0
}
 8002342:	4618      	mov	r0, r3
 8002344:	3714      	adds	r7, #20
 8002346:	46bd      	mov	sp, r7
 8002348:	f85d 7b04 	ldr.w	r7, [sp], #4
 800234c:	4770      	bx	lr
	...

08002350 <_sbrk>:
 *
 * @param incr Memory size
 * @return Pointer to allocated memory
 */
void *_sbrk(ptrdiff_t incr)
{
 8002350:	b580      	push	{r7, lr}
 8002352:	b086      	sub	sp, #24
 8002354:	af00      	add	r7, sp, #0
 8002356:	6078      	str	r0, [r7, #4]
  extern uint8_t _end; /* Symbol defined in the linker script */
  extern uint8_t _estack; /* Symbol defined in the linker script */
  extern uint32_t _Min_Stack_Size; /* Symbol defined in the linker script */
  const uint32_t stack_limit = (uint32_t)&_estack - (uint32_t)&_Min_Stack_Size;
 8002358:	4a14      	ldr	r2, [pc, #80]	; (80023ac <_sbrk+0x5c>)
 800235a:	4b15      	ldr	r3, [pc, #84]	; (80023b0 <_sbrk+0x60>)
 800235c:	1ad3      	subs	r3, r2, r3
 800235e:	617b      	str	r3, [r7, #20]
  const uint8_t *max_heap = (uint8_t *)stack_limit;
 8002360:	697b      	ldr	r3, [r7, #20]
 8002362:	613b      	str	r3, [r7, #16]
  uint8_t *prev_heap_end;

  /* Initialize heap end at first call */
  if (NULL == __sbrk_heap_end)
 8002364:	4b13      	ldr	r3, [pc, #76]	; (80023b4 <_sbrk+0x64>)
 8002366:	681b      	ldr	r3, [r3, #0]
 8002368:	2b00      	cmp	r3, #0
 800236a:	d102      	bne.n	8002372 <_sbrk+0x22>
  {
    __sbrk_heap_end = &_end;
 800236c:	4b11      	ldr	r3, [pc, #68]	; (80023b4 <_sbrk+0x64>)
 800236e:	4a12      	ldr	r2, [pc, #72]	; (80023b8 <_sbrk+0x68>)
 8002370:	601a      	str	r2, [r3, #0]
  }

  /* Protect heap from growing into the reserved MSP stack */
  if (__sbrk_heap_end + incr > max_heap)
 8002372:	4b10      	ldr	r3, [pc, #64]	; (80023b4 <_sbrk+0x64>)
 8002374:	681a      	ldr	r2, [r3, #0]
 8002376:	687b      	ldr	r3, [r7, #4]
 8002378:	4413      	add	r3, r2
 800237a:	693a      	ldr	r2, [r7, #16]
 800237c:	429a      	cmp	r2, r3
 800237e:	d207      	bcs.n	8002390 <_sbrk+0x40>
  {
    errno = ENOMEM;
 8002380:	f003 fd50 	bl	8005e24 <__errno>
 8002384:	4603      	mov	r3, r0
 8002386:	220c      	movs	r2, #12
 8002388:	601a      	str	r2, [r3, #0]
    return (void *)-1;
 800238a:	f04f 33ff 	mov.w	r3, #4294967295	; 0xffffffff
 800238e:	e009      	b.n	80023a4 <_sbrk+0x54>
  }

  prev_heap_end = __sbrk_heap_end;
 8002390:	4b08      	ldr	r3, [pc, #32]	; (80023b4 <_sbrk+0x64>)
 8002392:	681b      	ldr	r3, [r3, #0]
 8002394:	60fb      	str	r3, [r7, #12]
  __sbrk_heap_end += incr;
 8002396:	4b07      	ldr	r3, [pc, #28]	; (80023b4 <_sbrk+0x64>)
 8002398:	681a      	ldr	r2, [r3, #0]
 800239a:	687b      	ldr	r3, [r7, #4]
 800239c:	4413      	add	r3, r2
 800239e:	4a05      	ldr	r2, [pc, #20]	; (80023b4 <_sbrk+0x64>)
 80023a0:	6013      	str	r3, [r2, #0]

  return (void *)prev_heap_end;
 80023a2:	68fb      	ldr	r3, [r7, #12]
}
 80023a4:	4618      	mov	r0, r3
 80023a6:	3718      	adds	r7, #24
 80023a8:	46bd      	mov	sp, r7
 80023aa:	bd80      	pop	{r7, pc}
 80023ac:	20020000 	.word	0x20020000
 80023b0:	00000400 	.word	0x00000400
 80023b4:	20000220 	.word	0x20000220
 80023b8:	20000558 	.word	0x20000558

080023bc <SystemInit>:
  *         configuration.
  * @param  None
  * @retval None
  */
void SystemInit(void)
{
 80023bc:	b480      	push	{r7}
 80023be:	af00      	add	r7, sp, #0
  /* FPU settings ------------------------------------------------------------*/
  #if (__FPU_PRESENT == 1) && (__FPU_USED == 1)
    SCB->CPACR |= ((3UL << 10*2)|(3UL << 11*2));  /* set CP10 and CP11 Full Access */
 80023c0:	4b06      	ldr	r3, [pc, #24]	; (80023dc <SystemInit+0x20>)
 80023c2:	f8d3 3088 	ldr.w	r3, [r3, #136]	; 0x88
 80023c6:	4a05      	ldr	r2, [pc, #20]	; (80023dc <SystemInit+0x20>)
 80023c8:	f443 0370 	orr.w	r3, r3, #15728640	; 0xf00000
 80023cc:	f8c2 3088 	str.w	r3, [r2, #136]	; 0x88

  /* Configure the Vector Table location -------------------------------------*/
#if defined(USER_VECT_TAB_ADDRESS)
  SCB->VTOR = VECT_TAB_BASE_ADDRESS | VECT_TAB_OFFSET; /* Vector Table Relocation in Internal SRAM */
#endif /* USER_VECT_TAB_ADDRESS */
}
 80023d0:	bf00      	nop
 80023d2:	46bd      	mov	sp, r7
 80023d4:	f85d 7b04 	ldr.w	r7, [sp], #4
 80023d8:	4770      	bx	lr
 80023da:	bf00      	nop
 80023dc:	e000ed00 	.word	0xe000ed00

080023e0 <Reset_Handler>:

    .section  .text.Reset_Handler
  .weak  Reset_Handler
  .type  Reset_Handler, %function
Reset_Handler:  
  ldr   sp, =_estack      /* set stack pointer */
 80023e0:	f8df d034 	ldr.w	sp, [pc, #52]	; 8002418 <LoopFillZerobss+0x12>

/* Copy the data segment initializers from flash to SRAM */  
  ldr r0, =_sdata
 80023e4:	480d      	ldr	r0, [pc, #52]	; (800241c <LoopFillZerobss+0x16>)
  ldr r1, =_edata
 80023e6:	490e      	ldr	r1, [pc, #56]	; (8002420 <LoopFillZerobss+0x1a>)
  ldr r2, =_sidata
 80023e8:	4a0e      	ldr	r2, [pc, #56]	; (8002424 <LoopFillZerobss+0x1e>)
  movs r3, #0
 80023ea:	2300      	movs	r3, #0
  b LoopCopyDataInit
 80023ec:	e002      	b.n	80023f4 <LoopCopyDataInit>

080023ee <CopyDataInit>:

CopyDataInit:
  ldr r4, [r2, r3]
 80023ee:	58d4      	ldr	r4, [r2, r3]
  str r4, [r0, r3]
 80023f0:	50c4      	str	r4, [r0, r3]
  adds r3, r3, #4
 80023f2:	3304      	adds	r3, #4

080023f4 <LoopCopyDataInit>:

LoopCopyDataInit:
  adds r4, r0, r3
 80023f4:	18c4      	adds	r4, r0, r3
  cmp r4, r1
 80023f6:	428c      	cmp	r4, r1
  bcc CopyDataInit
 80023f8:	d3f9      	bcc.n	80023ee <CopyDataInit>
  
/* Zero fill the bss segment. */
  ldr r2, =_sbss
 80023fa:	4a0b      	ldr	r2, [pc, #44]	; (8002428 <LoopFillZerobss+0x22>)
  ldr r4, =_ebss
 80023fc:	4c0b      	ldr	r4, [pc, #44]	; (800242c <LoopFillZerobss+0x26>)
  movs r3, #0
 80023fe:	2300      	movs	r3, #0
  b LoopFillZerobss
 8002400:	e001      	b.n	8002406 <LoopFillZerobss>

08002402 <FillZerobss>:

FillZerobss:
  str  r3, [r2]
 8002402:	6013      	str	r3, [r2, #0]
  adds r2, r2, #4
 8002404:	3204      	adds	r2, #4

08002406 <LoopFillZerobss>:

LoopFillZerobss:
  cmp r2, r4
 8002406:	42a2      	cmp	r2, r4
  bcc FillZerobss
 8002408:	d3fb      	bcc.n	8002402 <FillZerobss>

/* Call the clock system intitialization function.*/
  bl  SystemInit   
 800240a:	f7ff ffd7 	bl	80023bc <SystemInit>
/* Call static constructors */
    bl __libc_init_array
 800240e:	f003 fd0f 	bl	8005e30 <__libc_init_array>
/* Call the application's entry point.*/
  bl  main
 8002412:	f7fe ff3b 	bl	800128c <main>
  bx  lr    
 8002416:	4770      	bx	lr
  ldr   sp, =_estack      /* set stack pointer */
 8002418:	20020000 	.word	0x20020000
  ldr r0, =_sdata
 800241c:	20000000 	.word	0x20000000
  ldr r1, =_edata
 8002420:	200001f4 	.word	0x200001f4
  ldr r2, =_sidata
 8002424:	0800906c 	.word	0x0800906c
  ldr r2, =_sbss
 8002428:	200001f4 	.word	0x200001f4
  ldr r4, =_ebss
 800242c:	20000558 	.word	0x20000558

08002430 <ADC_IRQHandler>:
 * @retval None       
*/
    .section  .text.Default_Handler,"ax",%progbits
Default_Handler:
Infinite_Loop:
  b  Infinite_Loop
 8002430:	e7fe      	b.n	8002430 <ADC_IRQHandler>
	...

08002434 <HAL_Init>:
  *         need to ensure that the SysTick time base is always set to 1 millisecond
  *         to have correct HAL operation.
  * @retval HAL status
  */
HAL_StatusTypeDef HAL_Init(void)
{
 8002434:	b580      	push	{r7, lr}
 8002436:	af00      	add	r7, sp, #0
  /* Configure Flash prefetch, Instruction cache, Data cache */ 
#if (INSTRUCTION_CACHE_ENABLE != 0U)
  __HAL_FLASH_INSTRUCTION_CACHE_ENABLE();
 8002438:	4b0e      	ldr	r3, [pc, #56]	; (8002474 <HAL_Init+0x40>)
 800243a:	681b      	ldr	r3, [r3, #0]
 800243c:	4a0d      	ldr	r2, [pc, #52]	; (8002474 <HAL_Init+0x40>)
 800243e:	f443 7300 	orr.w	r3, r3, #512	; 0x200
 8002442:	6013      	str	r3, [r2, #0]
#endif /* INSTRUCTION_CACHE_ENABLE */

#if (DATA_CACHE_ENABLE != 0U)
  __HAL_FLASH_DATA_CACHE_ENABLE();
 8002444:	4b0b      	ldr	r3, [pc, #44]	; (8002474 <HAL_Init+0x40>)
 8002446:	681b      	ldr	r3, [r3, #0]
 8002448:	4a0a      	ldr	r2, [pc, #40]	; (8002474 <HAL_Init+0x40>)
 800244a:	f443 6380 	orr.w	r3, r3, #1024	; 0x400
 800244e:	6013      	str	r3, [r2, #0]
#endif /* DATA_CACHE_ENABLE */

#if (PREFETCH_ENABLE != 0U)
  __HAL_FLASH_PREFETCH_BUFFER_ENABLE();
 8002450:	4b08      	ldr	r3, [pc, #32]	; (8002474 <HAL_Init+0x40>)
 8002452:	681b      	ldr	r3, [r3, #0]
 8002454:	4a07      	ldr	r2, [pc, #28]	; (8002474 <HAL_Init+0x40>)
 8002456:	f443 7380 	orr.w	r3, r3, #256	; 0x100
 800245a:	6013      	str	r3, [r2, #0]
#endif /* PREFETCH_ENABLE */

  /* Set Interrupt Group Priority */
  HAL_NVIC_SetPriorityGrouping(NVIC_PRIORITYGROUP_4);
 800245c:	2003      	movs	r0, #3
 800245e:	f000 f94f 	bl	8002700 <HAL_NVIC_SetPriorityGrouping>

  /* Use systick as time base source and configure 1ms tick (default clock after Reset is HSI) */
  HAL_InitTick(TICK_INT_PRIORITY);
 8002462:	2000      	movs	r0, #0
 8002464:	f000 f808 	bl	8002478 <HAL_InitTick>

  /* Init the low level hardware */
  HAL_MspInit();
 8002468:	f7ff fc3e 	bl	8001ce8 <HAL_MspInit>

  /* Return function status */
  return HAL_OK;
 800246c:	2300      	movs	r3, #0
}
 800246e:	4618      	mov	r0, r3
 8002470:	bd80      	pop	{r7, pc}
 8002472:	bf00      	nop
 8002474:	40023c00 	.word	0x40023c00

08002478 <HAL_InitTick>:
  *       implementation  in user file.
  * @param TickPriority Tick interrupt priority.
  * @retval HAL status
  */
__weak HAL_StatusTypeDef HAL_InitTick(uint32_t TickPriority)
{
 8002478:	b580      	push	{r7, lr}
 800247a:	b082      	sub	sp, #8
 800247c:	af00      	add	r7, sp, #0
 800247e:	6078      	str	r0, [r7, #4]
  /* Configure the SysTick to have interrupt in 1ms time basis*/
  if (HAL_SYSTICK_Config(SystemCoreClock / (1000U / uwTickFreq)) > 0U)
 8002480:	4b12      	ldr	r3, [pc, #72]	; (80024cc <HAL_InitTick+0x54>)
 8002482:	681a      	ldr	r2, [r3, #0]
 8002484:	4b12      	ldr	r3, [pc, #72]	; (80024d0 <HAL_InitTick+0x58>)
 8002486:	781b      	ldrb	r3, [r3, #0]
 8002488:	4619      	mov	r1, r3
 800248a:	f44f 737a 	mov.w	r3, #1000	; 0x3e8
 800248e:	fbb3 f3f1 	udiv	r3, r3, r1
 8002492:	fbb2 f3f3 	udiv	r3, r2, r3
 8002496:	4618      	mov	r0, r3
 8002498:	f000 f967 	bl	800276a <HAL_SYSTICK_Config>
 800249c:	4603      	mov	r3, r0
 800249e:	2b00      	cmp	r3, #0
 80024a0:	d001      	beq.n	80024a6 <HAL_InitTick+0x2e>
  {
    return HAL_ERROR;
 80024a2:	2301      	movs	r3, #1
 80024a4:	e00e      	b.n	80024c4 <HAL_InitTick+0x4c>
  }

  /* Configure the SysTick IRQ priority */
  if (TickPriority < (1UL << __NVIC_PRIO_BITS))
 80024a6:	687b      	ldr	r3, [r7, #4]
 80024a8:	2b0f      	cmp	r3, #15
 80024aa:	d80a      	bhi.n	80024c2 <HAL_InitTick+0x4a>
  {
    HAL_NVIC_SetPriority(SysTick_IRQn, TickPriority, 0U);
 80024ac:	2200      	movs	r2, #0
 80024ae:	6879      	ldr	r1, [r7, #4]
 80024b0:	f04f 30ff 	mov.w	r0, #4294967295	; 0xffffffff
 80024b4:	f000 f92f 	bl	8002716 <HAL_NVIC_SetPriority>
    uwTickPrio = TickPriority;
 80024b8:	4a06      	ldr	r2, [pc, #24]	; (80024d4 <HAL_InitTick+0x5c>)
 80024ba:	687b      	ldr	r3, [r7, #4]
 80024bc:	6013      	str	r3, [r2, #0]
  {
    return HAL_ERROR;
  }

  /* Return function status */
  return HAL_OK;
 80024be:	2300      	movs	r3, #0
 80024c0:	e000      	b.n	80024c4 <HAL_InitTick+0x4c>
    return HAL_ERROR;
 80024c2:	2301      	movs	r3, #1
}
 80024c4:	4618      	mov	r0, r3
 80024c6:	3708      	adds	r7, #8
 80024c8:	46bd      	mov	sp, r7
 80024ca:	bd80      	pop	{r7, pc}
 80024cc:	20000018 	.word	0x20000018
 80024d0:	20000020 	.word	0x20000020
 80024d4:	2000001c 	.word	0x2000001c

080024d8 <HAL_IncTick>:
 * @note This function is declared as __weak to be overwritten in case of other 
  *      implementations in user file.
  * @retval None
  */
__weak void HAL_IncTick(void)
{
 80024d8:	b480      	push	{r7}
 80024da:	af00      	add	r7, sp, #0
  uwTick += uwTickFreq;
 80024dc:	4b06      	ldr	r3, [pc, #24]	; (80024f8 <HAL_IncTick+0x20>)
 80024de:	781b      	ldrb	r3, [r3, #0]
 80024e0:	461a      	mov	r2, r3
 80024e2:	4b06      	ldr	r3, [pc, #24]	; (80024fc <HAL_IncTick+0x24>)
 80024e4:	681b      	ldr	r3, [r3, #0]
 80024e6:	4413      	add	r3, r2
 80024e8:	4a04      	ldr	r2, [pc, #16]	; (80024fc <HAL_IncTick+0x24>)
 80024ea:	6013      	str	r3, [r2, #0]
}
 80024ec:	bf00      	nop
 80024ee:	46bd      	mov	sp, r7
 80024f0:	f85d 7b04 	ldr.w	r7, [sp], #4
 80024f4:	4770      	bx	lr
 80024f6:	bf00      	nop
 80024f8:	20000020 	.word	0x20000020
 80024fc:	20000544 	.word	0x20000544

08002500 <HAL_GetTick>:
  * @note This function is declared as __weak to be overwritten in case of other 
  *       implementations in user file.
  * @retval tick value
  */
__weak uint32_t HAL_GetTick(void)
{
 8002500:	b480      	push	{r7}
 8002502:	af00      	add	r7, sp, #0
  return uwTick;
 8002504:	4b03      	ldr	r3, [pc, #12]	; (8002514 <HAL_GetTick+0x14>)
 8002506:	681b      	ldr	r3, [r3, #0]
}
 8002508:	4618      	mov	r0, r3
 800250a:	46bd      	mov	sp, r7
 800250c:	f85d 7b04 	ldr.w	r7, [sp], #4
 8002510:	4770      	bx	lr
 8002512:	bf00      	nop
 8002514:	20000544 	.word	0x20000544

08002518 <HAL_Delay>:
  *       implementations in user file.
  * @param Delay specifies the delay time length, in milliseconds.
  * @retval None
  */
__weak void HAL_Delay(uint32_t Delay)
{
 8002518:	b580      	push	{r7, lr}
 800251a:	b084      	sub	sp, #16
 800251c:	af00      	add	r7, sp, #0
 800251e:	6078      	str	r0, [r7, #4]
  uint32_t tickstart = HAL_GetTick();
 8002520:	f7ff ffee 	bl	8002500 <HAL_GetTick>
 8002524:	60b8      	str	r0, [r7, #8]
  uint32_t wait = Delay;
 8002526:	687b      	ldr	r3, [r7, #4]
 8002528:	60fb      	str	r3, [r7, #12]

  /* Add a freq to guarantee minimum wait */
  if (wait < HAL_MAX_DELAY)
 800252a:	68fb      	ldr	r3, [r7, #12]
 800252c:	f1b3 3fff 	cmp.w	r3, #4294967295	; 0xffffffff
 8002530:	d005      	beq.n	800253e <HAL_Delay+0x26>
  {
    wait += (uint32_t)(uwTickFreq);
 8002532:	4b0a      	ldr	r3, [pc, #40]	; (800255c <HAL_Delay+0x44>)
 8002534:	781b      	ldrb	r3, [r3, #0]
 8002536:	461a      	mov	r2, r3
 8002538:	68fb      	ldr	r3, [r7, #12]
 800253a:	4413      	add	r3, r2
 800253c:	60fb      	str	r3, [r7, #12]
  }

  while((HAL_GetTick() - tickstart) < wait)
 800253e:	bf00      	nop
 8002540:	f7ff ffde 	bl	8002500 <HAL_GetTick>
 8002544:	4602      	mov	r2, r0
 8002546:	68bb      	ldr	r3, [r7, #8]
 8002548:	1ad3      	subs	r3, r2, r3
 800254a:	68fa      	ldr	r2, [r7, #12]
 800254c:	429a      	cmp	r2, r3
 800254e:	d8f7      	bhi.n	8002540 <HAL_Delay+0x28>
  {
  }
}
 8002550:	bf00      	nop
 8002552:	bf00      	nop
 8002554:	3710      	adds	r7, #16
 8002556:	46bd      	mov	sp, r7
 8002558:	bd80      	pop	{r7, pc}
 800255a:	bf00      	nop
 800255c:	20000020 	.word	0x20000020

08002560 <__NVIC_SetPriorityGrouping>:
           In case of a conflict between priority grouping and available
           priority bits (__NVIC_PRIO_BITS), the smallest possible priority group is set.
  \param [in]      PriorityGroup  Priority grouping field.
 */
__STATIC_INLINE void __NVIC_SetPriorityGrouping(uint32_t PriorityGroup)
{
 8002560:	b480      	push	{r7}
 8002562:	b085      	sub	sp, #20
 8002564:	af00      	add	r7, sp, #0
 8002566:	6078      	str	r0, [r7, #4]
  uint32_t reg_value;
  uint32_t PriorityGroupTmp = (PriorityGroup & (uint32_t)0x07UL);             /* only values 0..7 are used          */
 8002568:	687b      	ldr	r3, [r7, #4]
 800256a:	f003 0307 	and.w	r3, r3, #7
 800256e:	60fb      	str	r3, [r7, #12]

  reg_value  =  SCB->AIRCR;                                                   /* read old register configuration    */
 8002570:	4b0c      	ldr	r3, [pc, #48]	; (80025a4 <__NVIC_SetPriorityGrouping+0x44>)
 8002572:	68db      	ldr	r3, [r3, #12]
 8002574:	60bb      	str	r3, [r7, #8]
  reg_value &= ~((uint32_t)(SCB_AIRCR_VECTKEY_Msk | SCB_AIRCR_PRIGROUP_Msk)); /* clear bits to change               */
 8002576:	68ba      	ldr	r2, [r7, #8]
 8002578:	f64f 03ff 	movw	r3, #63743	; 0xf8ff
 800257c:	4013      	ands	r3, r2
 800257e:	60bb      	str	r3, [r7, #8]
  reg_value  =  (reg_value                                   |
                ((uint32_t)0x5FAUL << SCB_AIRCR_VECTKEY_Pos) |
                (PriorityGroupTmp << SCB_AIRCR_PRIGROUP_Pos)  );              /* Insert write key and priority group */
 8002580:	68fb      	ldr	r3, [r7, #12]
 8002582:	021a      	lsls	r2, r3, #8
                ((uint32_t)0x5FAUL << SCB_AIRCR_VECTKEY_Pos) |
 8002584:	68bb      	ldr	r3, [r7, #8]
 8002586:	4313      	orrs	r3, r2
  reg_value  =  (reg_value                                   |
 8002588:	f043 63bf 	orr.w	r3, r3, #100139008	; 0x5f80000
 800258c:	f443 3300 	orr.w	r3, r3, #131072	; 0x20000
 8002590:	60bb      	str	r3, [r7, #8]
  SCB->AIRCR =  reg_value;
 8002592:	4a04      	ldr	r2, [pc, #16]	; (80025a4 <__NVIC_SetPriorityGrouping+0x44>)
 8002594:	68bb      	ldr	r3, [r7, #8]
 8002596:	60d3      	str	r3, [r2, #12]
}
 8002598:	bf00      	nop
 800259a:	3714      	adds	r7, #20
 800259c:	46bd      	mov	sp, r7
 800259e:	f85d 7b04 	ldr.w	r7, [sp], #4
 80025a2:	4770      	bx	lr
 80025a4:	e000ed00 	.word	0xe000ed00

080025a8 <__NVIC_GetPriorityGrouping>:
  \brief   Get Priority Grouping
  \details Reads the priority grouping field from the NVIC Interrupt Controller.
  \return                Priority grouping field (SCB->AIRCR [10:8] PRIGROUP field).
 */
__STATIC_INLINE uint32_t __NVIC_GetPriorityGrouping(void)
{
 80025a8:	b480      	push	{r7}
 80025aa:	af00      	add	r7, sp, #0
  return ((uint32_t)((SCB->AIRCR & SCB_AIRCR_PRIGROUP_Msk) >> SCB_AIRCR_PRIGROUP_Pos));
 80025ac:	4b04      	ldr	r3, [pc, #16]	; (80025c0 <__NVIC_GetPriorityGrouping+0x18>)
 80025ae:	68db      	ldr	r3, [r3, #12]
 80025b0:	0a1b      	lsrs	r3, r3, #8
 80025b2:	f003 0307 	and.w	r3, r3, #7
}
 80025b6:	4618      	mov	r0, r3
 80025b8:	46bd      	mov	sp, r7
 80025ba:	f85d 7b04 	ldr.w	r7, [sp], #4
 80025be:	4770      	bx	lr
 80025c0:	e000ed00 	.word	0xe000ed00

080025c4 <__NVIC_EnableIRQ>:
  \details Enables a device specific interrupt in the NVIC interrupt controller.
  \param [in]      IRQn  Device specific interrupt number.
  \note    IRQn must not be negative.
 */
__STATIC_INLINE void __NVIC_EnableIRQ(IRQn_Type IRQn)
{
 80025c4:	b480      	push	{r7}
 80025c6:	b083      	sub	sp, #12
 80025c8:	af00      	add	r7, sp, #0
 80025ca:	4603      	mov	r3, r0
 80025cc:	71fb      	strb	r3, [r7, #7]
  if ((int32_t)(IRQn) >= 0)
 80025ce:	f997 3007 	ldrsb.w	r3, [r7, #7]
 80025d2:	2b00      	cmp	r3, #0
 80025d4:	db0b      	blt.n	80025ee <__NVIC_EnableIRQ+0x2a>
  {
    NVIC->ISER[(((uint32_t)IRQn) >> 5UL)] = (uint32_t)(1UL << (((uint32_t)IRQn) & 0x1FUL));
 80025d6:	79fb      	ldrb	r3, [r7, #7]
 80025d8:	f003 021f 	and.w	r2, r3, #31
 80025dc:	4907      	ldr	r1, [pc, #28]	; (80025fc <__NVIC_EnableIRQ+0x38>)
 80025de:	f997 3007 	ldrsb.w	r3, [r7, #7]
 80025e2:	095b      	lsrs	r3, r3, #5
 80025e4:	2001      	movs	r0, #1
 80025e6:	fa00 f202 	lsl.w	r2, r0, r2
 80025ea:	f841 2023 	str.w	r2, [r1, r3, lsl #2]
  }
}
 80025ee:	bf00      	nop
 80025f0:	370c      	adds	r7, #12
 80025f2:	46bd      	mov	sp, r7
 80025f4:	f85d 7b04 	ldr.w	r7, [sp], #4
 80025f8:	4770      	bx	lr
 80025fa:	bf00      	nop
 80025fc:	e000e100 	.word	0xe000e100

08002600 <__NVIC_SetPriority>:
  \param [in]      IRQn  Interrupt number.
  \param [in]  priority  Priority to set.
  \note    The priority cannot be set for every processor exception.
 */
__STATIC_INLINE void __NVIC_SetPriority(IRQn_Type IRQn, uint32_t priority)
{
 8002600:	b480      	push	{r7}
 8002602:	b083      	sub	sp, #12
 8002604:	af00      	add	r7, sp, #0
 8002606:	4603      	mov	r3, r0
 8002608:	6039      	str	r1, [r7, #0]
 800260a:	71fb      	strb	r3, [r7, #7]
  if ((int32_t)(IRQn) >= 0)
 800260c:	f997 3007 	ldrsb.w	r3, [r7, #7]
 8002610:	2b00      	cmp	r3, #0
 8002612:	db0a      	blt.n	800262a <__NVIC_SetPriority+0x2a>
  {
    NVIC->IP[((uint32_t)IRQn)]               = (uint8_t)((priority << (8U - __NVIC_PRIO_BITS)) & (uint32_t)0xFFUL);
 8002614:	683b      	ldr	r3, [r7, #0]
 8002616:	b2da      	uxtb	r2, r3
 8002618:	490c      	ldr	r1, [pc, #48]	; (800264c <__NVIC_SetPriority+0x4c>)
 800261a:	f997 3007 	ldrsb.w	r3, [r7, #7]
 800261e:	0112      	lsls	r2, r2, #4
 8002620:	b2d2      	uxtb	r2, r2
 8002622:	440b      	add	r3, r1
 8002624:	f883 2300 	strb.w	r2, [r3, #768]	; 0x300
  }
  else
  {
    SCB->SHP[(((uint32_t)IRQn) & 0xFUL)-4UL] = (uint8_t)((priority << (8U - __NVIC_PRIO_BITS)) & (uint32_t)0xFFUL);
  }
}
 8002628:	e00a      	b.n	8002640 <__NVIC_SetPriority+0x40>
    SCB->SHP[(((uint32_t)IRQn) & 0xFUL)-4UL] = (uint8_t)((priority << (8U - __NVIC_PRIO_BITS)) & (uint32_t)0xFFUL);
 800262a:	683b      	ldr	r3, [r7, #0]
 800262c:	b2da      	uxtb	r2, r3
 800262e:	4908      	ldr	r1, [pc, #32]	; (8002650 <__NVIC_SetPriority+0x50>)
 8002630:	79fb      	ldrb	r3, [r7, #7]
 8002632:	f003 030f 	and.w	r3, r3, #15
 8002636:	3b04      	subs	r3, #4
 8002638:	0112      	lsls	r2, r2, #4
 800263a:	b2d2      	uxtb	r2, r2
 800263c:	440b      	add	r3, r1
 800263e:	761a      	strb	r2, [r3, #24]
}
 8002640:	bf00      	nop
 8002642:	370c      	adds	r7, #12
 8002644:	46bd      	mov	sp, r7
 8002646:	f85d 7b04 	ldr.w	r7, [sp], #4
 800264a:	4770      	bx	lr
 800264c:	e000e100 	.word	0xe000e100
 8002650:	e000ed00 	.word	0xe000ed00

08002654 <NVIC_EncodePriority>:
  \param [in]   PreemptPriority  Preemptive priority value (starting from 0).
  \param [in]       SubPriority  Subpriority value (starting from 0).
  \return                        Encoded priority. Value can be used in the function \ref NVIC_SetPriority().
 */
__STATIC_INLINE uint32_t NVIC_EncodePriority (uint32_t PriorityGroup, uint32_t PreemptPriority, uint32_t SubPriority)
{
 8002654:	b480      	push	{r7}
 8002656:	b089      	sub	sp, #36	; 0x24
 8002658:	af00      	add	r7, sp, #0
 800265a:	60f8      	str	r0, [r7, #12]
 800265c:	60b9      	str	r1, [r7, #8]
 800265e:	607a      	str	r2, [r7, #4]
  uint32_t PriorityGroupTmp = (PriorityGroup & (uint32_t)0x07UL);   /* only values 0..7 are used          */
 8002660:	68fb      	ldr	r3, [r7, #12]
 8002662:	f003 0307 	and.w	r3, r3, #7
 8002666:	61fb      	str	r3, [r7, #28]
  uint32_t PreemptPriorityBits;
  uint32_t SubPriorityBits;

  PreemptPriorityBits = ((7UL - PriorityGroupTmp) > (uint32_t)(__NVIC_PRIO_BITS)) ? (uint32_t)(__NVIC_PRIO_BITS) : (uint32_t)(7UL - PriorityGroupTmp);
 8002668:	69fb      	ldr	r3, [r7, #28]
 800266a:	f1c3 0307 	rsb	r3, r3, #7
 800266e:	2b04      	cmp	r3, #4
 8002670:	bf28      	it	cs
 8002672:	2304      	movcs	r3, #4
 8002674:	61bb      	str	r3, [r7, #24]
  SubPriorityBits     = ((PriorityGroupTmp + (uint32_t)(__NVIC_PRIO_BITS)) < (uint32_t)7UL) ? (uint32_t)0UL : (uint32_t)((PriorityGroupTmp - 7UL) + (uint32_t)(__NVIC_PRIO_BITS));
 8002676:	69fb      	ldr	r3, [r7, #28]
 8002678:	3304      	adds	r3, #4
 800267a:	2b06      	cmp	r3, #6
 800267c:	d902      	bls.n	8002684 <NVIC_EncodePriority+0x30>
 800267e:	69fb      	ldr	r3, [r7, #28]
 8002680:	3b03      	subs	r3, #3
 8002682:	e000      	b.n	8002686 <NVIC_EncodePriority+0x32>
 8002684:	2300      	movs	r3, #0
 8002686:	617b      	str	r3, [r7, #20]

  return (
           ((PreemptPriority & (uint32_t)((1UL << (PreemptPriorityBits)) - 1UL)) << SubPriorityBits) |
 8002688:	f04f 32ff 	mov.w	r2, #4294967295	; 0xffffffff
 800268c:	69bb      	ldr	r3, [r7, #24]
 800268e:	fa02 f303 	lsl.w	r3, r2, r3
 8002692:	43da      	mvns	r2, r3
 8002694:	68bb      	ldr	r3, [r7, #8]
 8002696:	401a      	ands	r2, r3
 8002698:	697b      	ldr	r3, [r7, #20]
 800269a:	409a      	lsls	r2, r3
           ((SubPriority     & (uint32_t)((1UL << (SubPriorityBits    )) - 1UL)))
 800269c:	f04f 31ff 	mov.w	r1, #4294967295	; 0xffffffff
 80026a0:	697b      	ldr	r3, [r7, #20]
 80026a2:	fa01 f303 	lsl.w	r3, r1, r3
 80026a6:	43d9      	mvns	r1, r3
 80026a8:	687b      	ldr	r3, [r7, #4]
 80026aa:	400b      	ands	r3, r1
           ((PreemptPriority & (uint32_t)((1UL << (PreemptPriorityBits)) - 1UL)) << SubPriorityBits) |
 80026ac:	4313      	orrs	r3, r2
         );
}
 80026ae:	4618      	mov	r0, r3
 80026b0:	3724      	adds	r7, #36	; 0x24
 80026b2:	46bd      	mov	sp, r7
 80026b4:	f85d 7b04 	ldr.w	r7, [sp], #4
 80026b8:	4770      	bx	lr
	...

080026bc <SysTick_Config>:
  \note    When the variable <b>__Vendor_SysTickConfig</b> is set to 1, then the
           function <b>SysTick_Config</b> is not included. In this case, the file <b><i>device</i>.h</b>
           must contain a vendor-specific implementation of this function.
 */
__STATIC_INLINE uint32_t SysTick_Config(uint32_t ticks)
{
 80026bc:	b580      	push	{r7, lr}
 80026be:	b082      	sub	sp, #8
 80026c0:	af00      	add	r7, sp, #0
 80026c2:	6078      	str	r0, [r7, #4]
  if ((ticks - 1UL) > SysTick_LOAD_RELOAD_Msk)
 80026c4:	687b      	ldr	r3, [r7, #4]
 80026c6:	3b01      	subs	r3, #1
 80026c8:	f1b3 7f80 	cmp.w	r3, #16777216	; 0x1000000
 80026cc:	d301      	bcc.n	80026d2 <SysTick_Config+0x16>
  {
    return (1UL);                                                   /* Reload value impossible */
 80026ce:	2301      	movs	r3, #1
 80026d0:	e00f      	b.n	80026f2 <SysTick_Config+0x36>
  }

  SysTick->LOAD  = (uint32_t)(ticks - 1UL);                         /* set reload register */
 80026d2:	4a0a      	ldr	r2, [pc, #40]	; (80026fc <SysTick_Config+0x40>)
 80026d4:	687b      	ldr	r3, [r7, #4]
 80026d6:	3b01      	subs	r3, #1
 80026d8:	6053      	str	r3, [r2, #4]
  NVIC_SetPriority (SysTick_IRQn, (1UL << __NVIC_PRIO_BITS) - 1UL); /* set Priority for Systick Interrupt */
 80026da:	210f      	movs	r1, #15
 80026dc:	f04f 30ff 	mov.w	r0, #4294967295	; 0xffffffff
 80026e0:	f7ff ff8e 	bl	8002600 <__NVIC_SetPriority>
  SysTick->VAL   = 0UL;                                             /* Load the SysTick Counter Value */
 80026e4:	4b05      	ldr	r3, [pc, #20]	; (80026fc <SysTick_Config+0x40>)
 80026e6:	2200      	movs	r2, #0
 80026e8:	609a      	str	r2, [r3, #8]
  SysTick->CTRL  = SysTick_CTRL_CLKSOURCE_Msk |
 80026ea:	4b04      	ldr	r3, [pc, #16]	; (80026fc <SysTick_Config+0x40>)
 80026ec:	2207      	movs	r2, #7
 80026ee:	601a      	str	r2, [r3, #0]
                   SysTick_CTRL_TICKINT_Msk   |
                   SysTick_CTRL_ENABLE_Msk;                         /* Enable SysTick IRQ and SysTick Timer */
  return (0UL);                                                     /* Function successful */
 80026f0:	2300      	movs	r3, #0
}
 80026f2:	4618      	mov	r0, r3
 80026f4:	3708      	adds	r7, #8
 80026f6:	46bd      	mov	sp, r7
 80026f8:	bd80      	pop	{r7, pc}
 80026fa:	bf00      	nop
 80026fc:	e000e010 	.word	0xe000e010

08002700 <HAL_NVIC_SetPriorityGrouping>:
  * @note   When the NVIC_PriorityGroup_0 is selected, IRQ preemption is no more possible. 
  *         The pending IRQ priority will be managed only by the subpriority. 
  * @retval None
  */
void HAL_NVIC_SetPriorityGrouping(uint32_t PriorityGroup)
{
 8002700:	b580      	push	{r7, lr}
 8002702:	b082      	sub	sp, #8
 8002704:	af00      	add	r7, sp, #0
 8002706:	6078      	str	r0, [r7, #4]
  /* Check the parameters */
  assert_param(IS_NVIC_PRIORITY_GROUP(PriorityGroup));
  
  /* Set the PRIGROUP[10:8] bits according to the PriorityGroup parameter value */
  NVIC_SetPriorityGrouping(PriorityGroup);
 8002708:	6878      	ldr	r0, [r7, #4]
 800270a:	f7ff ff29 	bl	8002560 <__NVIC_SetPriorityGrouping>
}
 800270e:	bf00      	nop
 8002710:	3708      	adds	r7, #8
 8002712:	46bd      	mov	sp, r7
 8002714:	bd80      	pop	{r7, pc}

08002716 <HAL_NVIC_SetPriority>:
  *         This parameter can be a value between 0 and 15
  *         A lower priority value indicates a higher priority.          
  * @retval None
  */
void HAL_NVIC_SetPriority(IRQn_Type IRQn, uint32_t PreemptPriority, uint32_t SubPriority)
{ 
 8002716:	b580      	push	{r7, lr}
 8002718:	b086      	sub	sp, #24
 800271a:	af00      	add	r7, sp, #0
 800271c:	4603      	mov	r3, r0
 800271e:	60b9      	str	r1, [r7, #8]
 8002720:	607a      	str	r2, [r7, #4]
 8002722:	73fb      	strb	r3, [r7, #15]
  uint32_t prioritygroup = 0x00U;
 8002724:	2300      	movs	r3, #0
 8002726:	617b      	str	r3, [r7, #20]
  
  /* Check the parameters */
  assert_param(IS_NVIC_SUB_PRIORITY(SubPriority));
  assert_param(IS_NVIC_PREEMPTION_PRIORITY(PreemptPriority));
  
  prioritygroup = NVIC_GetPriorityGrouping();
 8002728:	f7ff ff3e 	bl	80025a8 <__NVIC_GetPriorityGrouping>
 800272c:	6178      	str	r0, [r7, #20]
  
  NVIC_SetPriority(IRQn, NVIC_EncodePriority(prioritygroup, PreemptPriority, SubPriority));
 800272e:	687a      	ldr	r2, [r7, #4]
 8002730:	68b9      	ldr	r1, [r7, #8]
 8002732:	6978      	ldr	r0, [r7, #20]
 8002734:	f7ff ff8e 	bl	8002654 <NVIC_EncodePriority>
 8002738:	4602      	mov	r2, r0
 800273a:	f997 300f 	ldrsb.w	r3, [r7, #15]
 800273e:	4611      	mov	r1, r2
 8002740:	4618      	mov	r0, r3
 8002742:	f7ff ff5d 	bl	8002600 <__NVIC_SetPriority>
}
 8002746:	bf00      	nop
 8002748:	3718      	adds	r7, #24
 800274a:	46bd      	mov	sp, r7
 800274c:	bd80      	pop	{r7, pc}

0800274e <HAL_NVIC_EnableIRQ>:
  *         This parameter can be an enumerator of IRQn_Type enumeration
  *         (For the complete STM32 Devices IRQ Channels list, please refer to the appropriate CMSIS device file (stm32f4xxxx.h))
  * @retval None
  */
void HAL_NVIC_EnableIRQ(IRQn_Type IRQn)
{
 800274e:	b580      	push	{r7, lr}
 8002750:	b082      	sub	sp, #8
 8002752:	af00      	add	r7, sp, #0
 8002754:	4603      	mov	r3, r0
 8002756:	71fb      	strb	r3, [r7, #7]
  /* Check the parameters */
  assert_param(IS_NVIC_DEVICE_IRQ(IRQn));
  
  /* Enable interrupt */
  NVIC_EnableIRQ(IRQn);
 8002758:	f997 3007 	ldrsb.w	r3, [r7, #7]
 800275c:	4618      	mov	r0, r3
 800275e:	f7ff ff31 	bl	80025c4 <__NVIC_EnableIRQ>
}
 8002762:	bf00      	nop
 8002764:	3708      	adds	r7, #8
 8002766:	46bd      	mov	sp, r7
 8002768:	bd80      	pop	{r7, pc}

0800276a <HAL_SYSTICK_Config>:
  * @param  TicksNumb Specifies the ticks Number of ticks between two interrupts.
  * @retval status:  - 0  Function succeeded.
  *                  - 1  Function failed.
  */
uint32_t HAL_SYSTICK_Config(uint32_t TicksNumb)
{
 800276a:	b580      	push	{r7, lr}
 800276c:	b082      	sub	sp, #8
 800276e:	af00      	add	r7, sp, #0
 8002770:	6078      	str	r0, [r7, #4]
   return SysTick_Config(TicksNumb);
 8002772:	6878      	ldr	r0, [r7, #4]
 8002774:	f7ff ffa2 	bl	80026bc <SysTick_Config>
 8002778:	4603      	mov	r3, r0
}
 800277a:	4618      	mov	r0, r3
 800277c:	3708      	adds	r7, #8
 800277e:	46bd      	mov	sp, r7
 8002780:	bd80      	pop	{r7, pc}
	...

08002784 <HAL_GPIO_Init>:
  * @param  GPIO_Init pointer to a GPIO_InitTypeDef structure that contains
  *         the configuration information for the specified GPIO peripheral.
  * @retval None
  */
void HAL_GPIO_Init(GPIO_TypeDef  *GPIOx, GPIO_InitTypeDef *GPIO_Init)
{
 8002784:	b480      	push	{r7}
 8002786:	b089      	sub	sp, #36	; 0x24
 8002788:	af00      	add	r7, sp, #0
 800278a:	6078      	str	r0, [r7, #4]
 800278c:	6039      	str	r1, [r7, #0]
  uint32_t position;
  uint32_t ioposition = 0x00U;
 800278e:	2300      	movs	r3, #0
 8002790:	617b      	str	r3, [r7, #20]
  uint32_t iocurrent = 0x00U;
 8002792:	2300      	movs	r3, #0
 8002794:	613b      	str	r3, [r7, #16]
  uint32_t temp = 0x00U;
 8002796:	2300      	movs	r3, #0
 8002798:	61bb      	str	r3, [r7, #24]
  assert_param(IS_GPIO_ALL_INSTANCE(GPIOx));
  assert_param(IS_GPIO_PIN(GPIO_Init->Pin));
  assert_param(IS_GPIO_MODE(GPIO_Init->Mode));

  /* Configure the port pins */
  for(position = 0U; position < GPIO_NUMBER; position++)
 800279a:	2300      	movs	r3, #0
 800279c:	61fb      	str	r3, [r7, #28]
 800279e:	e165      	b.n	8002a6c <HAL_GPIO_Init+0x2e8>
  {
    /* Get the IO position */
    ioposition = 0x01U << position;
 80027a0:	2201      	movs	r2, #1
 80027a2:	69fb      	ldr	r3, [r7, #28]
 80027a4:	fa02 f303 	lsl.w	r3, r2, r3
 80027a8:	617b      	str	r3, [r7, #20]
    /* Get the current IO position */
    iocurrent = (uint32_t)(GPIO_Init->Pin) & ioposition;
 80027aa:	683b      	ldr	r3, [r7, #0]
 80027ac:	681b      	ldr	r3, [r3, #0]
 80027ae:	697a      	ldr	r2, [r7, #20]
 80027b0:	4013      	ands	r3, r2
 80027b2:	613b      	str	r3, [r7, #16]

    if(iocurrent == ioposition)
 80027b4:	693a      	ldr	r2, [r7, #16]
 80027b6:	697b      	ldr	r3, [r7, #20]
 80027b8:	429a      	cmp	r2, r3
 80027ba:	f040 8154 	bne.w	8002a66 <HAL_GPIO_Init+0x2e2>
    {
      /*--------------------- GPIO Mode Configuration ------------------------*/
      /* In case of Output or Alternate function mode selection */
      if(((GPIO_Init->Mode & GPIO_MODE) == MODE_OUTPUT) || \
 80027be:	683b      	ldr	r3, [r7, #0]
 80027c0:	685b      	ldr	r3, [r3, #4]
 80027c2:	f003 0303 	and.w	r3, r3, #3
 80027c6:	2b01      	cmp	r3, #1
 80027c8:	d005      	beq.n	80027d6 <HAL_GPIO_Init+0x52>
          (GPIO_Init->Mode & GPIO_MODE) == MODE_AF)
 80027ca:	683b      	ldr	r3, [r7, #0]
 80027cc:	685b      	ldr	r3, [r3, #4]
 80027ce:	f003 0303 	and.w	r3, r3, #3
      if(((GPIO_Init->Mode & GPIO_MODE) == MODE_OUTPUT) || \
 80027d2:	2b02      	cmp	r3, #2
 80027d4:	d130      	bne.n	8002838 <HAL_GPIO_Init+0xb4>
      {
        /* Check the Speed parameter */
        assert_param(IS_GPIO_SPEED(GPIO_Init->Speed));
        /* Configure the IO Speed */
        temp = GPIOx->OSPEEDR; 
 80027d6:	687b      	ldr	r3, [r7, #4]
 80027d8:	689b      	ldr	r3, [r3, #8]
 80027da:	61bb      	str	r3, [r7, #24]
        temp &= ~(GPIO_OSPEEDER_OSPEEDR0 << (position * 2U));
 80027dc:	69fb      	ldr	r3, [r7, #28]
 80027de:	005b      	lsls	r3, r3, #1
 80027e0:	2203      	movs	r2, #3
 80027e2:	fa02 f303 	lsl.w	r3, r2, r3
 80027e6:	43db      	mvns	r3, r3
 80027e8:	69ba      	ldr	r2, [r7, #24]
 80027ea:	4013      	ands	r3, r2
 80027ec:	61bb      	str	r3, [r7, #24]
        temp |= (GPIO_Init->Speed << (position * 2U));
 80027ee:	683b      	ldr	r3, [r7, #0]
 80027f0:	68da      	ldr	r2, [r3, #12]
 80027f2:	69fb      	ldr	r3, [r7, #28]
 80027f4:	005b      	lsls	r3, r3, #1
 80027f6:	fa02 f303 	lsl.w	r3, r2, r3
 80027fa:	69ba      	ldr	r2, [r7, #24]
 80027fc:	4313      	orrs	r3, r2
 80027fe:	61bb      	str	r3, [r7, #24]
        GPIOx->OSPEEDR = temp;
 8002800:	687b      	ldr	r3, [r7, #4]
 8002802:	69ba      	ldr	r2, [r7, #24]
 8002804:	609a      	str	r2, [r3, #8]

        /* Configure the IO Output Type */
        temp = GPIOx->OTYPER;
 8002806:	687b      	ldr	r3, [r7, #4]
 8002808:	685b      	ldr	r3, [r3, #4]
 800280a:	61bb      	str	r3, [r7, #24]
        temp &= ~(GPIO_OTYPER_OT_0 << position) ;
 800280c:	2201      	movs	r2, #1
 800280e:	69fb      	ldr	r3, [r7, #28]
 8002810:	fa02 f303 	lsl.w	r3, r2, r3
 8002814:	43db      	mvns	r3, r3
 8002816:	69ba      	ldr	r2, [r7, #24]
 8002818:	4013      	ands	r3, r2
 800281a:	61bb      	str	r3, [r7, #24]
        temp |= (((GPIO_Init->Mode & OUTPUT_TYPE) >> OUTPUT_TYPE_Pos) << position);
 800281c:	683b      	ldr	r3, [r7, #0]
 800281e:	685b      	ldr	r3, [r3, #4]
 8002820:	091b      	lsrs	r3, r3, #4
 8002822:	f003 0201 	and.w	r2, r3, #1
 8002826:	69fb      	ldr	r3, [r7, #28]
 8002828:	fa02 f303 	lsl.w	r3, r2, r3
 800282c:	69ba      	ldr	r2, [r7, #24]
 800282e:	4313      	orrs	r3, r2
 8002830:	61bb      	str	r3, [r7, #24]
        GPIOx->OTYPER = temp;
 8002832:	687b      	ldr	r3, [r7, #4]
 8002834:	69ba      	ldr	r2, [r7, #24]
 8002836:	605a      	str	r2, [r3, #4]
       }

      if((GPIO_Init->Mode & GPIO_MODE) != MODE_ANALOG)
 8002838:	683b      	ldr	r3, [r7, #0]
 800283a:	685b      	ldr	r3, [r3, #4]
 800283c:	f003 0303 	and.w	r3, r3, #3
 8002840:	2b03      	cmp	r3, #3
 8002842:	d017      	beq.n	8002874 <HAL_GPIO_Init+0xf0>
      {
        /* Check the parameters */
        assert_param(IS_GPIO_PULL(GPIO_Init->Pull));
        
        /* Activate the Pull-up or Pull down resistor for the current IO */
        temp = GPIOx->PUPDR;
 8002844:	687b      	ldr	r3, [r7, #4]
 8002846:	68db      	ldr	r3, [r3, #12]
 8002848:	61bb      	str	r3, [r7, #24]
        temp &= ~(GPIO_PUPDR_PUPDR0 << (position * 2U));
 800284a:	69fb      	ldr	r3, [r7, #28]
 800284c:	005b      	lsls	r3, r3, #1
 800284e:	2203      	movs	r2, #3
 8002850:	fa02 f303 	lsl.w	r3, r2, r3
 8002854:	43db      	mvns	r3, r3
 8002856:	69ba      	ldr	r2, [r7, #24]
 8002858:	4013      	ands	r3, r2
 800285a:	61bb      	str	r3, [r7, #24]
        temp |= ((GPIO_Init->Pull) << (position * 2U));
 800285c:	683b      	ldr	r3, [r7, #0]
 800285e:	689a      	ldr	r2, [r3, #8]
 8002860:	69fb      	ldr	r3, [r7, #28]
 8002862:	005b      	lsls	r3, r3, #1
 8002864:	fa02 f303 	lsl.w	r3, r2, r3
 8002868:	69ba      	ldr	r2, [r7, #24]
 800286a:	4313      	orrs	r3, r2
 800286c:	61bb      	str	r3, [r7, #24]
        GPIOx->PUPDR = temp;
 800286e:	687b      	ldr	r3, [r7, #4]
 8002870:	69ba      	ldr	r2, [r7, #24]
 8002872:	60da      	str	r2, [r3, #12]
      }

      /* In case of Alternate function mode selection */
      if((GPIO_Init->Mode & GPIO_MODE) == MODE_AF)
 8002874:	683b      	ldr	r3, [r7, #0]
 8002876:	685b      	ldr	r3, [r3, #4]
 8002878:	f003 0303 	and.w	r3, r3, #3
 800287c:	2b02      	cmp	r3, #2
 800287e:	d123      	bne.n	80028c8 <HAL_GPIO_Init+0x144>
      {
        /* Check the Alternate function parameter */
        assert_param(IS_GPIO_AF(GPIO_Init->Alternate));
        /* Configure Alternate function mapped with the current IO */
        temp = GPIOx->AFR[position >> 3U];
 8002880:	69fb      	ldr	r3, [r7, #28]
 8002882:	08da      	lsrs	r2, r3, #3
 8002884:	687b      	ldr	r3, [r7, #4]
 8002886:	3208      	adds	r2, #8
 8002888:	f853 3022 	ldr.w	r3, [r3, r2, lsl #2]
 800288c:	61bb      	str	r3, [r7, #24]
        temp &= ~(0xFU << ((uint32_t)(position & 0x07U) * 4U)) ;
 800288e:	69fb      	ldr	r3, [r7, #28]
 8002890:	f003 0307 	and.w	r3, r3, #7
 8002894:	009b      	lsls	r3, r3, #2
 8002896:	220f      	movs	r2, #15
 8002898:	fa02 f303 	lsl.w	r3, r2, r3
 800289c:	43db      	mvns	r3, r3
 800289e:	69ba      	ldr	r2, [r7, #24]
 80028a0:	4013      	ands	r3, r2
 80028a2:	61bb      	str	r3, [r7, #24]
        temp |= ((uint32_t)(GPIO_Init->Alternate) << (((uint32_t)position & 0x07U) * 4U));
 80028a4:	683b      	ldr	r3, [r7, #0]
 80028a6:	691a      	ldr	r2, [r3, #16]
 80028a8:	69fb      	ldr	r3, [r7, #28]
 80028aa:	f003 0307 	and.w	r3, r3, #7
 80028ae:	009b      	lsls	r3, r3, #2
 80028b0:	fa02 f303 	lsl.w	r3, r2, r3
 80028b4:	69ba      	ldr	r2, [r7, #24]
 80028b6:	4313      	orrs	r3, r2
 80028b8:	61bb      	str	r3, [r7, #24]
        GPIOx->AFR[position >> 3U] = temp;
 80028ba:	69fb      	ldr	r3, [r7, #28]
 80028bc:	08da      	lsrs	r2, r3, #3
 80028be:	687b      	ldr	r3, [r7, #4]
 80028c0:	3208      	adds	r2, #8
 80028c2:	69b9      	ldr	r1, [r7, #24]
 80028c4:	f843 1022 	str.w	r1, [r3, r2, lsl #2]
      }

      /* Configure IO Direction mode (Input, Output, Alternate or Analog) */
      temp = GPIOx->MODER;
 80028c8:	687b      	ldr	r3, [r7, #4]
 80028ca:	681b      	ldr	r3, [r3, #0]
 80028cc:	61bb      	str	r3, [r7, #24]
      temp &= ~(GPIO_MODER_MODER0 << (position * 2U));
 80028ce:	69fb      	ldr	r3, [r7, #28]
 80028d0:	005b      	lsls	r3, r3, #1
 80028d2:	2203      	movs	r2, #3
 80028d4:	fa02 f303 	lsl.w	r3, r2, r3
 80028d8:	43db      	mvns	r3, r3
 80028da:	69ba      	ldr	r2, [r7, #24]
 80028dc:	4013      	ands	r3, r2
 80028de:	61bb      	str	r3, [r7, #24]
      temp |= ((GPIO_Init->Mode & GPIO_MODE) << (position * 2U));
 80028e0:	683b      	ldr	r3, [r7, #0]
 80028e2:	685b      	ldr	r3, [r3, #4]
 80028e4:	f003 0203 	and.w	r2, r3, #3
 80028e8:	69fb      	ldr	r3, [r7, #28]
 80028ea:	005b      	lsls	r3, r3, #1
 80028ec:	fa02 f303 	lsl.w	r3, r2, r3
 80028f0:	69ba      	ldr	r2, [r7, #24]
 80028f2:	4313      	orrs	r3, r2
 80028f4:	61bb      	str	r3, [r7, #24]
      GPIOx->MODER = temp;
 80028f6:	687b      	ldr	r3, [r7, #4]
 80028f8:	69ba      	ldr	r2, [r7, #24]
 80028fa:	601a      	str	r2, [r3, #0]

      /*--------------------- EXTI Mode Configuration ------------------------*/
      /* Configure the External Interrupt or event for the current IO */
      if((GPIO_Init->Mode & EXTI_MODE) != 0x00U)
 80028fc:	683b      	ldr	r3, [r7, #0]
 80028fe:	685b      	ldr	r3, [r3, #4]
 8002900:	f403 3340 	and.w	r3, r3, #196608	; 0x30000
 8002904:	2b00      	cmp	r3, #0
 8002906:	f000 80ae 	beq.w	8002a66 <HAL_GPIO_Init+0x2e2>
      {
        /* Enable SYSCFG Clock */
        __HAL_RCC_SYSCFG_CLK_ENABLE();
 800290a:	2300      	movs	r3, #0
 800290c:	60fb      	str	r3, [r7, #12]
 800290e:	4b5d      	ldr	r3, [pc, #372]	; (8002a84 <HAL_GPIO_Init+0x300>)
 8002910:	6c5b      	ldr	r3, [r3, #68]	; 0x44
 8002912:	4a5c      	ldr	r2, [pc, #368]	; (8002a84 <HAL_GPIO_Init+0x300>)
 8002914:	f443 4380 	orr.w	r3, r3, #16384	; 0x4000
 8002918:	6453      	str	r3, [r2, #68]	; 0x44
 800291a:	4b5a      	ldr	r3, [pc, #360]	; (8002a84 <HAL_GPIO_Init+0x300>)
 800291c:	6c5b      	ldr	r3, [r3, #68]	; 0x44
 800291e:	f403 4380 	and.w	r3, r3, #16384	; 0x4000
 8002922:	60fb      	str	r3, [r7, #12]
 8002924:	68fb      	ldr	r3, [r7, #12]

        temp = SYSCFG->EXTICR[position >> 2U];
 8002926:	4a58      	ldr	r2, [pc, #352]	; (8002a88 <HAL_GPIO_Init+0x304>)
 8002928:	69fb      	ldr	r3, [r7, #28]
 800292a:	089b      	lsrs	r3, r3, #2
 800292c:	3302      	adds	r3, #2
 800292e:	f852 3023 	ldr.w	r3, [r2, r3, lsl #2]
 8002932:	61bb      	str	r3, [r7, #24]
        temp &= ~(0x0FU << (4U * (position & 0x03U)));
 8002934:	69fb      	ldr	r3, [r7, #28]
 8002936:	f003 0303 	and.w	r3, r3, #3
 800293a:	009b      	lsls	r3, r3, #2
 800293c:	220f      	movs	r2, #15
 800293e:	fa02 f303 	lsl.w	r3, r2, r3
 8002942:	43db      	mvns	r3, r3
 8002944:	69ba      	ldr	r2, [r7, #24]
 8002946:	4013      	ands	r3, r2
 8002948:	61bb      	str	r3, [r7, #24]
        temp |= ((uint32_t)(GPIO_GET_INDEX(GPIOx)) << (4U * (position & 0x03U)));
 800294a:	687b      	ldr	r3, [r7, #4]
 800294c:	4a4f      	ldr	r2, [pc, #316]	; (8002a8c <HAL_GPIO_Init+0x308>)
 800294e:	4293      	cmp	r3, r2
 8002950:	d025      	beq.n	800299e <HAL_GPIO_Init+0x21a>
 8002952:	687b      	ldr	r3, [r7, #4]
 8002954:	4a4e      	ldr	r2, [pc, #312]	; (8002a90 <HAL_GPIO_Init+0x30c>)
 8002956:	4293      	cmp	r3, r2
 8002958:	d01f      	beq.n	800299a <HAL_GPIO_Init+0x216>
 800295a:	687b      	ldr	r3, [r7, #4]
 800295c:	4a4d      	ldr	r2, [pc, #308]	; (8002a94 <HAL_GPIO_Init+0x310>)
 800295e:	4293      	cmp	r3, r2
 8002960:	d019      	beq.n	8002996 <HAL_GPIO_Init+0x212>
 8002962:	687b      	ldr	r3, [r7, #4]
 8002964:	4a4c      	ldr	r2, [pc, #304]	; (8002a98 <HAL_GPIO_Init+0x314>)
 8002966:	4293      	cmp	r3, r2
 8002968:	d013      	beq.n	8002992 <HAL_GPIO_Init+0x20e>
 800296a:	687b      	ldr	r3, [r7, #4]
 800296c:	4a4b      	ldr	r2, [pc, #300]	; (8002a9c <HAL_GPIO_Init+0x318>)
 800296e:	4293      	cmp	r3, r2
 8002970:	d00d      	beq.n	800298e <HAL_GPIO_Init+0x20a>
 8002972:	687b      	ldr	r3, [r7, #4]
 8002974:	4a4a      	ldr	r2, [pc, #296]	; (8002aa0 <HAL_GPIO_Init+0x31c>)
 8002976:	4293      	cmp	r3, r2
 8002978:	d007      	beq.n	800298a <HAL_GPIO_Init+0x206>
 800297a:	687b      	ldr	r3, [r7, #4]
 800297c:	4a49      	ldr	r2, [pc, #292]	; (8002aa4 <HAL_GPIO_Init+0x320>)
 800297e:	4293      	cmp	r3, r2
 8002980:	d101      	bne.n	8002986 <HAL_GPIO_Init+0x202>
 8002982:	2306      	movs	r3, #6
 8002984:	e00c      	b.n	80029a0 <HAL_GPIO_Init+0x21c>
 8002986:	2307      	movs	r3, #7
 8002988:	e00a      	b.n	80029a0 <HAL_GPIO_Init+0x21c>
 800298a:	2305      	movs	r3, #5
 800298c:	e008      	b.n	80029a0 <HAL_GPIO_Init+0x21c>
 800298e:	2304      	movs	r3, #4
 8002990:	e006      	b.n	80029a0 <HAL_GPIO_Init+0x21c>
 8002992:	2303      	movs	r3, #3
 8002994:	e004      	b.n	80029a0 <HAL_GPIO_Init+0x21c>
 8002996:	2302      	movs	r3, #2
 8002998:	e002      	b.n	80029a0 <HAL_GPIO_Init+0x21c>
 800299a:	2301      	movs	r3, #1
 800299c:	e000      	b.n	80029a0 <HAL_GPIO_Init+0x21c>
 800299e:	2300      	movs	r3, #0
 80029a0:	69fa      	ldr	r2, [r7, #28]
 80029a2:	f002 0203 	and.w	r2, r2, #3
 80029a6:	0092      	lsls	r2, r2, #2
 80029a8:	4093      	lsls	r3, r2
 80029aa:	69ba      	ldr	r2, [r7, #24]
 80029ac:	4313      	orrs	r3, r2
 80029ae:	61bb      	str	r3, [r7, #24]
        SYSCFG->EXTICR[position >> 2U] = temp;
 80029b0:	4935      	ldr	r1, [pc, #212]	; (8002a88 <HAL_GPIO_Init+0x304>)
 80029b2:	69fb      	ldr	r3, [r7, #28]
 80029b4:	089b      	lsrs	r3, r3, #2
 80029b6:	3302      	adds	r3, #2
 80029b8:	69ba      	ldr	r2, [r7, #24]
 80029ba:	f841 2023 	str.w	r2, [r1, r3, lsl #2]

        /* Clear EXTI line configuration */
        temp = EXTI->IMR;
 80029be:	4b3a      	ldr	r3, [pc, #232]	; (8002aa8 <HAL_GPIO_Init+0x324>)
 80029c0:	681b      	ldr	r3, [r3, #0]
 80029c2:	61bb      	str	r3, [r7, #24]
        temp &= ~((uint32_t)iocurrent);
 80029c4:	693b      	ldr	r3, [r7, #16]
 80029c6:	43db      	mvns	r3, r3
 80029c8:	69ba      	ldr	r2, [r7, #24]
 80029ca:	4013      	ands	r3, r2
 80029cc:	61bb      	str	r3, [r7, #24]
        if((GPIO_Init->Mode & EXTI_IT) != 0x00U)
 80029ce:	683b      	ldr	r3, [r7, #0]
 80029d0:	685b      	ldr	r3, [r3, #4]
 80029d2:	f403 3380 	and.w	r3, r3, #65536	; 0x10000
 80029d6:	2b00      	cmp	r3, #0
 80029d8:	d003      	beq.n	80029e2 <HAL_GPIO_Init+0x25e>
        {
          temp |= iocurrent;
 80029da:	69ba      	ldr	r2, [r7, #24]
 80029dc:	693b      	ldr	r3, [r7, #16]
 80029de:	4313      	orrs	r3, r2
 80029e0:	61bb      	str	r3, [r7, #24]
        }
        EXTI->IMR = temp;
 80029e2:	4a31      	ldr	r2, [pc, #196]	; (8002aa8 <HAL_GPIO_Init+0x324>)
 80029e4:	69bb      	ldr	r3, [r7, #24]
 80029e6:	6013      	str	r3, [r2, #0]

        temp = EXTI->EMR;
 80029e8:	4b2f      	ldr	r3, [pc, #188]	; (8002aa8 <HAL_GPIO_Init+0x324>)
 80029ea:	685b      	ldr	r3, [r3, #4]
 80029ec:	61bb      	str	r3, [r7, #24]
        temp &= ~((uint32_t)iocurrent);
 80029ee:	693b      	ldr	r3, [r7, #16]
 80029f0:	43db      	mvns	r3, r3
 80029f2:	69ba      	ldr	r2, [r7, #24]
 80029f4:	4013      	ands	r3, r2
 80029f6:	61bb      	str	r3, [r7, #24]
        if((GPIO_Init->Mode & EXTI_EVT) != 0x00U)
 80029f8:	683b      	ldr	r3, [r7, #0]
 80029fa:	685b      	ldr	r3, [r3, #4]
 80029fc:	f403 3300 	and.w	r3, r3, #131072	; 0x20000
 8002a00:	2b00      	cmp	r3, #0
 8002a02:	d003      	beq.n	8002a0c <HAL_GPIO_Init+0x288>
        {
          temp |= iocurrent;
 8002a04:	69ba      	ldr	r2, [r7, #24]
 8002a06:	693b      	ldr	r3, [r7, #16]
 8002a08:	4313      	orrs	r3, r2
 8002a0a:	61bb      	str	r3, [r7, #24]
        }
        EXTI->EMR = temp;
 8002a0c:	4a26      	ldr	r2, [pc, #152]	; (8002aa8 <HAL_GPIO_Init+0x324>)
 8002a0e:	69bb      	ldr	r3, [r7, #24]
 8002a10:	6053      	str	r3, [r2, #4]

        /* Clear Rising Falling edge configuration */
        temp = EXTI->RTSR;
 8002a12:	4b25      	ldr	r3, [pc, #148]	; (8002aa8 <HAL_GPIO_Init+0x324>)
 8002a14:	689b      	ldr	r3, [r3, #8]
 8002a16:	61bb      	str	r3, [r7, #24]
        temp &= ~((uint32_t)iocurrent);
 8002a18:	693b      	ldr	r3, [r7, #16]
 8002a1a:	43db      	mvns	r3, r3
 8002a1c:	69ba      	ldr	r2, [r7, #24]
 8002a1e:	4013      	ands	r3, r2
 8002a20:	61bb      	str	r3, [r7, #24]
        if((GPIO_Init->Mode & TRIGGER_RISING) != 0x00U)
 8002a22:	683b      	ldr	r3, [r7, #0]
 8002a24:	685b      	ldr	r3, [r3, #4]
 8002a26:	f403 1380 	and.w	r3, r3, #1048576	; 0x100000
 8002a2a:	2b00      	cmp	r3, #0
 8002a2c:	d003      	beq.n	8002a36 <HAL_GPIO_Init+0x2b2>
        {
          temp |= iocurrent;
 8002a2e:	69ba      	ldr	r2, [r7, #24]
 8002a30:	693b      	ldr	r3, [r7, #16]
 8002a32:	4313      	orrs	r3, r2
 8002a34:	61bb      	str	r3, [r7, #24]
        }
        EXTI->RTSR = temp;
 8002a36:	4a1c      	ldr	r2, [pc, #112]	; (8002aa8 <HAL_GPIO_Init+0x324>)
 8002a38:	69bb      	ldr	r3, [r7, #24]
 8002a3a:	6093      	str	r3, [r2, #8]

        temp = EXTI->FTSR;
 8002a3c:	4b1a      	ldr	r3, [pc, #104]	; (8002aa8 <HAL_GPIO_Init+0x324>)
 8002a3e:	68db      	ldr	r3, [r3, #12]
 8002a40:	61bb      	str	r3, [r7, #24]
        temp &= ~((uint32_t)iocurrent);
 8002a42:	693b      	ldr	r3, [r7, #16]
 8002a44:	43db      	mvns	r3, r3
 8002a46:	69ba      	ldr	r2, [r7, #24]
 8002a48:	4013      	ands	r3, r2
 8002a4a:	61bb      	str	r3, [r7, #24]
        if((GPIO_Init->Mode & TRIGGER_FALLING) != 0x00U)
 8002a4c:	683b      	ldr	r3, [r7, #0]
 8002a4e:	685b      	ldr	r3, [r3, #4]
 8002a50:	f403 1300 	and.w	r3, r3, #2097152	; 0x200000
 8002a54:	2b00      	cmp	r3, #0
 8002a56:	d003      	beq.n	8002a60 <HAL_GPIO_Init+0x2dc>
        {
          temp |= iocurrent;
 8002a58:	69ba      	ldr	r2, [r7, #24]
 8002a5a:	693b      	ldr	r3, [r7, #16]
 8002a5c:	4313      	orrs	r3, r2
 8002a5e:	61bb      	str	r3, [r7, #24]
        }
        EXTI->FTSR = temp;
 8002a60:	4a11      	ldr	r2, [pc, #68]	; (8002aa8 <HAL_GPIO_Init+0x324>)
 8002a62:	69bb      	ldr	r3, [r7, #24]
 8002a64:	60d3      	str	r3, [r2, #12]
  for(position = 0U; position < GPIO_NUMBER; position++)
 8002a66:	69fb      	ldr	r3, [r7, #28]
 8002a68:	3301      	adds	r3, #1
 8002a6a:	61fb      	str	r3, [r7, #28]
 8002a6c:	69fb      	ldr	r3, [r7, #28]
 8002a6e:	2b0f      	cmp	r3, #15
 8002a70:	f67f ae96 	bls.w	80027a0 <HAL_GPIO_Init+0x1c>
      }
    }
  }
}
 8002a74:	bf00      	nop
 8002a76:	bf00      	nop
 8002a78:	3724      	adds	r7, #36	; 0x24
 8002a7a:	46bd      	mov	sp, r7
 8002a7c:	f85d 7b04 	ldr.w	r7, [sp], #4
 8002a80:	4770      	bx	lr
 8002a82:	bf00      	nop
 8002a84:	40023800 	.word	0x40023800
 8002a88:	40013800 	.word	0x40013800
 8002a8c:	40020000 	.word	0x40020000
 8002a90:	40020400 	.word	0x40020400
 8002a94:	40020800 	.word	0x40020800
 8002a98:	40020c00 	.word	0x40020c00
 8002a9c:	40021000 	.word	0x40021000
 8002aa0:	40021400 	.word	0x40021400
 8002aa4:	40021800 	.word	0x40021800
 8002aa8:	40013c00 	.word	0x40013c00

08002aac <HAL_GPIO_WritePin>:
  *            @arg GPIO_PIN_RESET: to clear the port pin
  *            @arg GPIO_PIN_SET: to set the port pin
  * @retval None
  */
void HAL_GPIO_WritePin(GPIO_TypeDef* GPIOx, uint16_t GPIO_Pin, GPIO_PinState PinState)
{
 8002aac:	b480      	push	{r7}
 8002aae:	b083      	sub	sp, #12
 8002ab0:	af00      	add	r7, sp, #0
 8002ab2:	6078      	str	r0, [r7, #4]
 8002ab4:	460b      	mov	r3, r1
 8002ab6:	807b      	strh	r3, [r7, #2]
 8002ab8:	4613      	mov	r3, r2
 8002aba:	707b      	strb	r3, [r7, #1]
  /* Check the parameters */
  assert_param(IS_GPIO_PIN(GPIO_Pin));
  assert_param(IS_GPIO_PIN_ACTION(PinState));

  if(PinState != GPIO_PIN_RESET)
 8002abc:	787b      	ldrb	r3, [r7, #1]
 8002abe:	2b00      	cmp	r3, #0
 8002ac0:	d003      	beq.n	8002aca <HAL_GPIO_WritePin+0x1e>
  {
    GPIOx->BSRR = GPIO_Pin;
 8002ac2:	887a      	ldrh	r2, [r7, #2]
 8002ac4:	687b      	ldr	r3, [r7, #4]
 8002ac6:	619a      	str	r2, [r3, #24]
  }
  else
  {
    GPIOx->BSRR = (uint32_t)GPIO_Pin << 16U;
  }
}
 8002ac8:	e003      	b.n	8002ad2 <HAL_GPIO_WritePin+0x26>
    GPIOx->BSRR = (uint32_t)GPIO_Pin << 16U;
 8002aca:	887b      	ldrh	r3, [r7, #2]
 8002acc:	041a      	lsls	r2, r3, #16
 8002ace:	687b      	ldr	r3, [r7, #4]
 8002ad0:	619a      	str	r2, [r3, #24]
}
 8002ad2:	bf00      	nop
 8002ad4:	370c      	adds	r7, #12
 8002ad6:	46bd      	mov	sp, r7
 8002ad8:	f85d 7b04 	ldr.w	r7, [sp], #4
 8002adc:	4770      	bx	lr
	...

08002ae0 <HAL_RCC_ClockConfig>:
  *         HPRE[3:0] bits to ensure that HCLK not exceed the maximum allowed frequency
  *         (for more details refer to section above "Initialization/de-initialization functions")
  * @retval None
  */
HAL_StatusTypeDef HAL_RCC_ClockConfig(RCC_ClkInitTypeDef  *RCC_ClkInitStruct, uint32_t FLatency)
{
 8002ae0:	b580      	push	{r7, lr}
 8002ae2:	b084      	sub	sp, #16
 8002ae4:	af00      	add	r7, sp, #0
 8002ae6:	6078      	str	r0, [r7, #4]
 8002ae8:	6039      	str	r1, [r7, #0]
  uint32_t tickstart;

  /* Check Null pointer */
  if(RCC_ClkInitStruct == NULL)
 8002aea:	687b      	ldr	r3, [r7, #4]
 8002aec:	2b00      	cmp	r3, #0
 8002aee:	d101      	bne.n	8002af4 <HAL_RCC_ClockConfig+0x14>
  {
    return HAL_ERROR;
 8002af0:	2301      	movs	r3, #1
 8002af2:	e0cc      	b.n	8002c8e <HAL_RCC_ClockConfig+0x1ae>
  /* To correctly read data from FLASH memory, the number of wait states (LATENCY)
    must be correctly programmed according to the frequency of the CPU clock
    (HCLK) and the supply voltage of the device. */

  /* Increasing the number of wait states because of higher CPU frequency */
  if(FLatency > __HAL_FLASH_GET_LATENCY())
 8002af4:	4b68      	ldr	r3, [pc, #416]	; (8002c98 <HAL_RCC_ClockConfig+0x1b8>)
 8002af6:	681b      	ldr	r3, [r3, #0]
 8002af8:	f003 030f 	and.w	r3, r3, #15
 8002afc:	683a      	ldr	r2, [r7, #0]
 8002afe:	429a      	cmp	r2, r3
 8002b00:	d90c      	bls.n	8002b1c <HAL_RCC_ClockConfig+0x3c>
  {
    /* Program the new number of wait states to the LATENCY bits in the FLASH_ACR register */
    __HAL_FLASH_SET_LATENCY(FLatency);
 8002b02:	4b65      	ldr	r3, [pc, #404]	; (8002c98 <HAL_RCC_ClockConfig+0x1b8>)
 8002b04:	683a      	ldr	r2, [r7, #0]
 8002b06:	b2d2      	uxtb	r2, r2
 8002b08:	701a      	strb	r2, [r3, #0]

    /* Check that the new number of wait states is taken into account to access the Flash
    memory by reading the FLASH_ACR register */
    if(__HAL_FLASH_GET_LATENCY() != FLatency)
 8002b0a:	4b63      	ldr	r3, [pc, #396]	; (8002c98 <HAL_RCC_ClockConfig+0x1b8>)
 8002b0c:	681b      	ldr	r3, [r3, #0]
 8002b0e:	f003 030f 	and.w	r3, r3, #15
 8002b12:	683a      	ldr	r2, [r7, #0]
 8002b14:	429a      	cmp	r2, r3
 8002b16:	d001      	beq.n	8002b1c <HAL_RCC_ClockConfig+0x3c>
    {
      return HAL_ERROR;
 8002b18:	2301      	movs	r3, #1
 8002b1a:	e0b8      	b.n	8002c8e <HAL_RCC_ClockConfig+0x1ae>
    }
  }

  /*-------------------------- HCLK Configuration --------------------------*/
  if(((RCC_ClkInitStruct->ClockType) & RCC_CLOCKTYPE_HCLK) == RCC_CLOCKTYPE_HCLK)
 8002b1c:	687b      	ldr	r3, [r7, #4]
 8002b1e:	681b      	ldr	r3, [r3, #0]
 8002b20:	f003 0302 	and.w	r3, r3, #2
 8002b24:	2b00      	cmp	r3, #0
 8002b26:	d020      	beq.n	8002b6a <HAL_RCC_ClockConfig+0x8a>
  {
    /* Set the highest APBx dividers in order to ensure that we do not go through
       a non-spec phase whatever we decrease or increase HCLK. */
    if(((RCC_ClkInitStruct->ClockType) & RCC_CLOCKTYPE_PCLK1) == RCC_CLOCKTYPE_PCLK1)
 8002b28:	687b      	ldr	r3, [r7, #4]
 8002b2a:	681b      	ldr	r3, [r3, #0]
 8002b2c:	f003 0304 	and.w	r3, r3, #4
 8002b30:	2b00      	cmp	r3, #0
 8002b32:	d005      	beq.n	8002b40 <HAL_RCC_ClockConfig+0x60>
    {
      MODIFY_REG(RCC->CFGR, RCC_CFGR_PPRE1, RCC_HCLK_DIV16);
 8002b34:	4b59      	ldr	r3, [pc, #356]	; (8002c9c <HAL_RCC_ClockConfig+0x1bc>)
 8002b36:	689b      	ldr	r3, [r3, #8]
 8002b38:	4a58      	ldr	r2, [pc, #352]	; (8002c9c <HAL_RCC_ClockConfig+0x1bc>)
 8002b3a:	f443 53e0 	orr.w	r3, r3, #7168	; 0x1c00
 8002b3e:	6093      	str	r3, [r2, #8]
    }

    if(((RCC_ClkInitStruct->ClockType) & RCC_CLOCKTYPE_PCLK2) == RCC_CLOCKTYPE_PCLK2)
 8002b40:	687b      	ldr	r3, [r7, #4]
 8002b42:	681b      	ldr	r3, [r3, #0]
 8002b44:	f003 0308 	and.w	r3, r3, #8
 8002b48:	2b00      	cmp	r3, #0
 8002b4a:	d005      	beq.n	8002b58 <HAL_RCC_ClockConfig+0x78>
    {
      MODIFY_REG(RCC->CFGR, RCC_CFGR_PPRE2, (RCC_HCLK_DIV16 << 3));
 8002b4c:	4b53      	ldr	r3, [pc, #332]	; (8002c9c <HAL_RCC_ClockConfig+0x1bc>)
 8002b4e:	689b      	ldr	r3, [r3, #8]
 8002b50:	4a52      	ldr	r2, [pc, #328]	; (8002c9c <HAL_RCC_ClockConfig+0x1bc>)
 8002b52:	f443 4360 	orr.w	r3, r3, #57344	; 0xe000
 8002b56:	6093      	str	r3, [r2, #8]
    }

    assert_param(IS_RCC_HCLK(RCC_ClkInitStruct->AHBCLKDivider));
    MODIFY_REG(RCC->CFGR, RCC_CFGR_HPRE, RCC_ClkInitStruct->AHBCLKDivider);
 8002b58:	4b50      	ldr	r3, [pc, #320]	; (8002c9c <HAL_RCC_ClockConfig+0x1bc>)
 8002b5a:	689b      	ldr	r3, [r3, #8]
 8002b5c:	f023 02f0 	bic.w	r2, r3, #240	; 0xf0
 8002b60:	687b      	ldr	r3, [r7, #4]
 8002b62:	689b      	ldr	r3, [r3, #8]
 8002b64:	494d      	ldr	r1, [pc, #308]	; (8002c9c <HAL_RCC_ClockConfig+0x1bc>)
 8002b66:	4313      	orrs	r3, r2
 8002b68:	608b      	str	r3, [r1, #8]
  }

  /*------------------------- SYSCLK Configuration ---------------------------*/
  if(((RCC_ClkInitStruct->ClockType) & RCC_CLOCKTYPE_SYSCLK) == RCC_CLOCKTYPE_SYSCLK)
 8002b6a:	687b      	ldr	r3, [r7, #4]
 8002b6c:	681b      	ldr	r3, [r3, #0]
 8002b6e:	f003 0301 	and.w	r3, r3, #1
 8002b72:	2b00      	cmp	r3, #0
 8002b74:	d044      	beq.n	8002c00 <HAL_RCC_ClockConfig+0x120>
  {
    assert_param(IS_RCC_SYSCLKSOURCE(RCC_ClkInitStruct->SYSCLKSource));

    /* HSE is selected as System Clock Source */
    if(RCC_ClkInitStruct->SYSCLKSource == RCC_SYSCLKSOURCE_HSE)
 8002b76:	687b      	ldr	r3, [r7, #4]
 8002b78:	685b      	ldr	r3, [r3, #4]
 8002b7a:	2b01      	cmp	r3, #1
 8002b7c:	d107      	bne.n	8002b8e <HAL_RCC_ClockConfig+0xae>
    {
      /* Check the HSE ready flag */
      if(__HAL_RCC_GET_FLAG(RCC_FLAG_HSERDY) == RESET)
 8002b7e:	4b47      	ldr	r3, [pc, #284]	; (8002c9c <HAL_RCC_ClockConfig+0x1bc>)
 8002b80:	681b      	ldr	r3, [r3, #0]
 8002b82:	f403 3300 	and.w	r3, r3, #131072	; 0x20000
 8002b86:	2b00      	cmp	r3, #0
 8002b88:	d119      	bne.n	8002bbe <HAL_RCC_ClockConfig+0xde>
      {
        return HAL_ERROR;
 8002b8a:	2301      	movs	r3, #1
 8002b8c:	e07f      	b.n	8002c8e <HAL_RCC_ClockConfig+0x1ae>
      }
    }
    /* PLL is selected as System Clock Source */
    else if((RCC_ClkInitStruct->SYSCLKSource == RCC_SYSCLKSOURCE_PLLCLK)   ||
 8002b8e:	687b      	ldr	r3, [r7, #4]
 8002b90:	685b      	ldr	r3, [r3, #4]
 8002b92:	2b02      	cmp	r3, #2
 8002b94:	d003      	beq.n	8002b9e <HAL_RCC_ClockConfig+0xbe>
            (RCC_ClkInitStruct->SYSCLKSource == RCC_SYSCLKSOURCE_PLLRCLK))
 8002b96:	687b      	ldr	r3, [r7, #4]
 8002b98:	685b      	ldr	r3, [r3, #4]
    else if((RCC_ClkInitStruct->SYSCLKSource == RCC_SYSCLKSOURCE_PLLCLK)   ||
 8002b9a:	2b03      	cmp	r3, #3
 8002b9c:	d107      	bne.n	8002bae <HAL_RCC_ClockConfig+0xce>
    {
      /* Check the PLL ready flag */
      if(__HAL_RCC_GET_FLAG(RCC_FLAG_PLLRDY) == RESET)
 8002b9e:	4b3f      	ldr	r3, [pc, #252]	; (8002c9c <HAL_RCC_ClockConfig+0x1bc>)
 8002ba0:	681b      	ldr	r3, [r3, #0]
 8002ba2:	f003 7300 	and.w	r3, r3, #33554432	; 0x2000000
 8002ba6:	2b00      	cmp	r3, #0
 8002ba8:	d109      	bne.n	8002bbe <HAL_RCC_ClockConfig+0xde>
      {
        return HAL_ERROR;
 8002baa:	2301      	movs	r3, #1
 8002bac:	e06f      	b.n	8002c8e <HAL_RCC_ClockConfig+0x1ae>
    }
    /* HSI is selected as System Clock Source */
    else
    {
      /* Check the HSI ready flag */
      if(__HAL_RCC_GET_FLAG(RCC_FLAG_HSIRDY) == RESET)
 8002bae:	4b3b      	ldr	r3, [pc, #236]	; (8002c9c <HAL_RCC_ClockConfig+0x1bc>)
 8002bb0:	681b      	ldr	r3, [r3, #0]
 8002bb2:	f003 0302 	and.w	r3, r3, #2
 8002bb6:	2b00      	cmp	r3, #0
 8002bb8:	d101      	bne.n	8002bbe <HAL_RCC_ClockConfig+0xde>
      {
        return HAL_ERROR;
 8002bba:	2301      	movs	r3, #1
 8002bbc:	e067      	b.n	8002c8e <HAL_RCC_ClockConfig+0x1ae>
      }
    }

    __HAL_RCC_SYSCLK_CONFIG(RCC_ClkInitStruct->SYSCLKSource);
 8002bbe:	4b37      	ldr	r3, [pc, #220]	; (8002c9c <HAL_RCC_ClockConfig+0x1bc>)
 8002bc0:	689b      	ldr	r3, [r3, #8]
 8002bc2:	f023 0203 	bic.w	r2, r3, #3
 8002bc6:	687b      	ldr	r3, [r7, #4]
 8002bc8:	685b      	ldr	r3, [r3, #4]
 8002bca:	4934      	ldr	r1, [pc, #208]	; (8002c9c <HAL_RCC_ClockConfig+0x1bc>)
 8002bcc:	4313      	orrs	r3, r2
 8002bce:	608b      	str	r3, [r1, #8]

    /* Get Start Tick */
    tickstart = HAL_GetTick();
 8002bd0:	f7ff fc96 	bl	8002500 <HAL_GetTick>
 8002bd4:	60f8      	str	r0, [r7, #12]

    while (__HAL_RCC_GET_SYSCLK_SOURCE() != (RCC_ClkInitStruct->SYSCLKSource << RCC_CFGR_SWS_Pos))
 8002bd6:	e00a      	b.n	8002bee <HAL_RCC_ClockConfig+0x10e>
    {
      if ((HAL_GetTick() - tickstart) > CLOCKSWITCH_TIMEOUT_VALUE)
 8002bd8:	f7ff fc92 	bl	8002500 <HAL_GetTick>
 8002bdc:	4602      	mov	r2, r0
 8002bde:	68fb      	ldr	r3, [r7, #12]
 8002be0:	1ad3      	subs	r3, r2, r3
 8002be2:	f241 3288 	movw	r2, #5000	; 0x1388
 8002be6:	4293      	cmp	r3, r2
 8002be8:	d901      	bls.n	8002bee <HAL_RCC_ClockConfig+0x10e>
      {
        return HAL_TIMEOUT;
 8002bea:	2303      	movs	r3, #3
 8002bec:	e04f      	b.n	8002c8e <HAL_RCC_ClockConfig+0x1ae>
    while (__HAL_RCC_GET_SYSCLK_SOURCE() != (RCC_ClkInitStruct->SYSCLKSource << RCC_CFGR_SWS_Pos))
 8002bee:	4b2b      	ldr	r3, [pc, #172]	; (8002c9c <HAL_RCC_ClockConfig+0x1bc>)
 8002bf0:	689b      	ldr	r3, [r3, #8]
 8002bf2:	f003 020c 	and.w	r2, r3, #12
 8002bf6:	687b      	ldr	r3, [r7, #4]
 8002bf8:	685b      	ldr	r3, [r3, #4]
 8002bfa:	009b      	lsls	r3, r3, #2
 8002bfc:	429a      	cmp	r2, r3
 8002bfe:	d1eb      	bne.n	8002bd8 <HAL_RCC_ClockConfig+0xf8>
      }
    }
  }

  /* Decreasing the number of wait states because of lower CPU frequency */
  if(FLatency < __HAL_FLASH_GET_LATENCY())
 8002c00:	4b25      	ldr	r3, [pc, #148]	; (8002c98 <HAL_RCC_ClockConfig+0x1b8>)
 8002c02:	681b      	ldr	r3, [r3, #0]
 8002c04:	f003 030f 	and.w	r3, r3, #15
 8002c08:	683a      	ldr	r2, [r7, #0]
 8002c0a:	429a      	cmp	r2, r3
 8002c0c:	d20c      	bcs.n	8002c28 <HAL_RCC_ClockConfig+0x148>
  {
     /* Program the new number of wait states to the LATENCY bits in the FLASH_ACR register */
    __HAL_FLASH_SET_LATENCY(FLatency);
 8002c0e:	4b22      	ldr	r3, [pc, #136]	; (8002c98 <HAL_RCC_ClockConfig+0x1b8>)
 8002c10:	683a      	ldr	r2, [r7, #0]
 8002c12:	b2d2      	uxtb	r2, r2
 8002c14:	701a      	strb	r2, [r3, #0]

    /* Check that the new number of wait states is taken into account to access the Flash
    memory by reading the FLASH_ACR register */
    if(__HAL_FLASH_GET_LATENCY() != FLatency)
 8002c16:	4b20      	ldr	r3, [pc, #128]	; (8002c98 <HAL_RCC_ClockConfig+0x1b8>)
 8002c18:	681b      	ldr	r3, [r3, #0]
 8002c1a:	f003 030f 	and.w	r3, r3, #15
 8002c1e:	683a      	ldr	r2, [r7, #0]
 8002c20:	429a      	cmp	r2, r3
 8002c22:	d001      	beq.n	8002c28 <HAL_RCC_ClockConfig+0x148>
    {
      return HAL_ERROR;
 8002c24:	2301      	movs	r3, #1
 8002c26:	e032      	b.n	8002c8e <HAL_RCC_ClockConfig+0x1ae>
    }
  }

  /*-------------------------- PCLK1 Configuration ---------------------------*/
  if(((RCC_ClkInitStruct->ClockType) & RCC_CLOCKTYPE_PCLK1) == RCC_CLOCKTYPE_PCLK1)
 8002c28:	687b      	ldr	r3, [r7, #4]
 8002c2a:	681b      	ldr	r3, [r3, #0]
 8002c2c:	f003 0304 	and.w	r3, r3, #4
 8002c30:	2b00      	cmp	r3, #0
 8002c32:	d008      	beq.n	8002c46 <HAL_RCC_ClockConfig+0x166>
  {
    assert_param(IS_RCC_PCLK(RCC_ClkInitStruct->APB1CLKDivider));
    MODIFY_REG(RCC->CFGR, RCC_CFGR_PPRE1, RCC_ClkInitStruct->APB1CLKDivider);
 8002c34:	4b19      	ldr	r3, [pc, #100]	; (8002c9c <HAL_RCC_ClockConfig+0x1bc>)
 8002c36:	689b      	ldr	r3, [r3, #8]
 8002c38:	f423 52e0 	bic.w	r2, r3, #7168	; 0x1c00
 8002c3c:	687b      	ldr	r3, [r7, #4]
 8002c3e:	68db      	ldr	r3, [r3, #12]
 8002c40:	4916      	ldr	r1, [pc, #88]	; (8002c9c <HAL_RCC_ClockConfig+0x1bc>)
 8002c42:	4313      	orrs	r3, r2
 8002c44:	608b      	str	r3, [r1, #8]
  }

  /*-------------------------- PCLK2 Configuration ---------------------------*/
  if(((RCC_ClkInitStruct->ClockType) & RCC_CLOCKTYPE_PCLK2) == RCC_CLOCKTYPE_PCLK2)
 8002c46:	687b      	ldr	r3, [r7, #4]
 8002c48:	681b      	ldr	r3, [r3, #0]
 8002c4a:	f003 0308 	and.w	r3, r3, #8
 8002c4e:	2b00      	cmp	r3, #0
 8002c50:	d009      	beq.n	8002c66 <HAL_RCC_ClockConfig+0x186>
  {
    assert_param(IS_RCC_PCLK(RCC_ClkInitStruct->APB2CLKDivider));
    MODIFY_REG(RCC->CFGR, RCC_CFGR_PPRE2, ((RCC_ClkInitStruct->APB2CLKDivider) << 3U));
 8002c52:	4b12      	ldr	r3, [pc, #72]	; (8002c9c <HAL_RCC_ClockConfig+0x1bc>)
 8002c54:	689b      	ldr	r3, [r3, #8]
 8002c56:	f423 4260 	bic.w	r2, r3, #57344	; 0xe000
 8002c5a:	687b      	ldr	r3, [r7, #4]
 8002c5c:	691b      	ldr	r3, [r3, #16]
 8002c5e:	00db      	lsls	r3, r3, #3
 8002c60:	490e      	ldr	r1, [pc, #56]	; (8002c9c <HAL_RCC_ClockConfig+0x1bc>)
 8002c62:	4313      	orrs	r3, r2
 8002c64:	608b      	str	r3, [r1, #8]
  }

  /* Update the SystemCoreClock global variable */
  SystemCoreClock = HAL_RCC_GetSysClockFreq() >> AHBPrescTable[(RCC->CFGR & RCC_CFGR_HPRE)>> RCC_CFGR_HPRE_Pos];
 8002c66:	f000 f855 	bl	8002d14 <HAL_RCC_GetSysClockFreq>
 8002c6a:	4602      	mov	r2, r0
 8002c6c:	4b0b      	ldr	r3, [pc, #44]	; (8002c9c <HAL_RCC_ClockConfig+0x1bc>)
 8002c6e:	689b      	ldr	r3, [r3, #8]
 8002c70:	091b      	lsrs	r3, r3, #4
 8002c72:	f003 030f 	and.w	r3, r3, #15
 8002c76:	490a      	ldr	r1, [pc, #40]	; (8002ca0 <HAL_RCC_ClockConfig+0x1c0>)
 8002c78:	5ccb      	ldrb	r3, [r1, r3]
 8002c7a:	fa22 f303 	lsr.w	r3, r2, r3
 8002c7e:	4a09      	ldr	r2, [pc, #36]	; (8002ca4 <HAL_RCC_ClockConfig+0x1c4>)
 8002c80:	6013      	str	r3, [r2, #0]

  /* Configure the source of time base considering new system clocks settings */
  HAL_InitTick (uwTickPrio);
 8002c82:	4b09      	ldr	r3, [pc, #36]	; (8002ca8 <HAL_RCC_ClockConfig+0x1c8>)
 8002c84:	681b      	ldr	r3, [r3, #0]
 8002c86:	4618      	mov	r0, r3
 8002c88:	f7ff fbf6 	bl	8002478 <HAL_InitTick>

  return HAL_OK;
 8002c8c:	2300      	movs	r3, #0
}
 8002c8e:	4618      	mov	r0, r3
 8002c90:	3710      	adds	r7, #16
 8002c92:	46bd      	mov	sp, r7
 8002c94:	bd80      	pop	{r7, pc}
 8002c96:	bf00      	nop
 8002c98:	40023c00 	.word	0x40023c00
 8002c9c:	40023800 	.word	0x40023800
 8002ca0:	08008c14 	.word	0x08008c14
 8002ca4:	20000018 	.word	0x20000018
 8002ca8:	2000001c 	.word	0x2000001c

08002cac <HAL_RCC_GetHCLKFreq>:
  * @note   The SystemCoreClock CMSIS variable is used to store System Clock Frequency
  *         and updated within this function
  * @retval HCLK frequency
  */
uint32_t HAL_RCC_GetHCLKFreq(void)
{
 8002cac:	b480      	push	{r7}
 8002cae:	af00      	add	r7, sp, #0
  return SystemCoreClock;
 8002cb0:	4b03      	ldr	r3, [pc, #12]	; (8002cc0 <HAL_RCC_GetHCLKFreq+0x14>)
 8002cb2:	681b      	ldr	r3, [r3, #0]
}
 8002cb4:	4618      	mov	r0, r3
 8002cb6:	46bd      	mov	sp, r7
 8002cb8:	f85d 7b04 	ldr.w	r7, [sp], #4
 8002cbc:	4770      	bx	lr
 8002cbe:	bf00      	nop
 8002cc0:	20000018 	.word	0x20000018

08002cc4 <HAL_RCC_GetPCLK1Freq>:
  * @note   Each time PCLK1 changes, this function must be called to update the
  *         right PCLK1 value. Otherwise, any configuration based on this function will be incorrect.
  * @retval PCLK1 frequency
  */
uint32_t HAL_RCC_GetPCLK1Freq(void)
{
 8002cc4:	b580      	push	{r7, lr}
 8002cc6:	af00      	add	r7, sp, #0
  /* Get HCLK source and Compute PCLK1 frequency ---------------------------*/
  return (HAL_RCC_GetHCLKFreq() >> APBPrescTable[(RCC->CFGR & RCC_CFGR_PPRE1)>> RCC_CFGR_PPRE1_Pos]);
 8002cc8:	f7ff fff0 	bl	8002cac <HAL_RCC_GetHCLKFreq>
 8002ccc:	4602      	mov	r2, r0
 8002cce:	4b05      	ldr	r3, [pc, #20]	; (8002ce4 <HAL_RCC_GetPCLK1Freq+0x20>)
 8002cd0:	689b      	ldr	r3, [r3, #8]
 8002cd2:	0a9b      	lsrs	r3, r3, #10
 8002cd4:	f003 0307 	and.w	r3, r3, #7
 8002cd8:	4903      	ldr	r1, [pc, #12]	; (8002ce8 <HAL_RCC_GetPCLK1Freq+0x24>)
 8002cda:	5ccb      	ldrb	r3, [r1, r3]
 8002cdc:	fa22 f303 	lsr.w	r3, r2, r3
}
 8002ce0:	4618      	mov	r0, r3
 8002ce2:	bd80      	pop	{r7, pc}
 8002ce4:	40023800 	.word	0x40023800
 8002ce8:	08008c24 	.word	0x08008c24

08002cec <HAL_RCC_GetPCLK2Freq>:
  * @note   Each time PCLK2 changes, this function must be called to update the
  *         right PCLK2 value. Otherwise, any configuration based on this function will be incorrect.
  * @retval PCLK2 frequency
  */
uint32_t HAL_RCC_GetPCLK2Freq(void)
{
 8002cec:	b580      	push	{r7, lr}
 8002cee:	af00      	add	r7, sp, #0
  /* Get HCLK source and Compute PCLK2 frequency ---------------------------*/
  return (HAL_RCC_GetHCLKFreq()>> APBPrescTable[(RCC->CFGR & RCC_CFGR_PPRE2)>> RCC_CFGR_PPRE2_Pos]);
 8002cf0:	f7ff ffdc 	bl	8002cac <HAL_RCC_GetHCLKFreq>
 8002cf4:	4602      	mov	r2, r0
 8002cf6:	4b05      	ldr	r3, [pc, #20]	; (8002d0c <HAL_RCC_GetPCLK2Freq+0x20>)
 8002cf8:	689b      	ldr	r3, [r3, #8]
 8002cfa:	0b5b      	lsrs	r3, r3, #13
 8002cfc:	f003 0307 	and.w	r3, r3, #7
 8002d00:	4903      	ldr	r1, [pc, #12]	; (8002d10 <HAL_RCC_GetPCLK2Freq+0x24>)
 8002d02:	5ccb      	ldrb	r3, [r1, r3]
 8002d04:	fa22 f303 	lsr.w	r3, r2, r3
}
 8002d08:	4618      	mov	r0, r3
 8002d0a:	bd80      	pop	{r7, pc}
 8002d0c:	40023800 	.word	0x40023800
 8002d10:	08008c24 	.word	0x08008c24

08002d14 <HAL_RCC_GetSysClockFreq>:
  *
  *
  * @retval SYSCLK frequency
  */
uint32_t HAL_RCC_GetSysClockFreq(void)
{
 8002d14:	e92d 4fb0 	stmdb	sp!, {r4, r5, r7, r8, r9, sl, fp, lr}
 8002d18:	b088      	sub	sp, #32
 8002d1a:	af00      	add	r7, sp, #0
  uint32_t pllm = 0U;
 8002d1c:	2300      	movs	r3, #0
 8002d1e:	617b      	str	r3, [r7, #20]
  uint32_t pllvco = 0U;
 8002d20:	2300      	movs	r3, #0
 8002d22:	61fb      	str	r3, [r7, #28]
  uint32_t pllp = 0U;
 8002d24:	2300      	movs	r3, #0
 8002d26:	613b      	str	r3, [r7, #16]
  uint32_t pllr = 0U;
 8002d28:	2300      	movs	r3, #0
 8002d2a:	60fb      	str	r3, [r7, #12]
  uint32_t sysclockfreq = 0U;
 8002d2c:	2300      	movs	r3, #0
 8002d2e:	61bb      	str	r3, [r7, #24]

  /* Get SYSCLK source -------------------------------------------------------*/
  switch (RCC->CFGR & RCC_CFGR_SWS)
 8002d30:	4bce      	ldr	r3, [pc, #824]	; (800306c <HAL_RCC_GetSysClockFreq+0x358>)
 8002d32:	689b      	ldr	r3, [r3, #8]
 8002d34:	f003 030c 	and.w	r3, r3, #12
 8002d38:	2b0c      	cmp	r3, #12
 8002d3a:	f200 818d 	bhi.w	8003058 <HAL_RCC_GetSysClockFreq+0x344>
 8002d3e:	a201      	add	r2, pc, #4	; (adr r2, 8002d44 <HAL_RCC_GetSysClockFreq+0x30>)
 8002d40:	f852 f023 	ldr.w	pc, [r2, r3, lsl #2]
 8002d44:	08002d79 	.word	0x08002d79
 8002d48:	08003059 	.word	0x08003059
 8002d4c:	08003059 	.word	0x08003059
 8002d50:	08003059 	.word	0x08003059
 8002d54:	08002d7f 	.word	0x08002d7f
 8002d58:	08003059 	.word	0x08003059
 8002d5c:	08003059 	.word	0x08003059
 8002d60:	08003059 	.word	0x08003059
 8002d64:	08002d85 	.word	0x08002d85
 8002d68:	08003059 	.word	0x08003059
 8002d6c:	08003059 	.word	0x08003059
 8002d70:	08003059 	.word	0x08003059
 8002d74:	08002ef9 	.word	0x08002ef9
  {
    case RCC_CFGR_SWS_HSI:  /* HSI used as system clock source */
    {
      sysclockfreq = HSI_VALUE;
 8002d78:	4bbd      	ldr	r3, [pc, #756]	; (8003070 <HAL_RCC_GetSysClockFreq+0x35c>)
 8002d7a:	61bb      	str	r3, [r7, #24]
       break;
 8002d7c:	e16f      	b.n	800305e <HAL_RCC_GetSysClockFreq+0x34a>
    }
    case RCC_CFGR_SWS_HSE:  /* HSE used as system clock  source */
    {
      sysclockfreq = HSE_VALUE;
 8002d7e:	4bbd      	ldr	r3, [pc, #756]	; (8003074 <HAL_RCC_GetSysClockFreq+0x360>)
 8002d80:	61bb      	str	r3, [r7, #24]
      break;
 8002d82:	e16c      	b.n	800305e <HAL_RCC_GetSysClockFreq+0x34a>
    }
    case RCC_CFGR_SWS_PLL:  /* PLL/PLLP used as system clock  source */
    {
      /* PLL_VCO = (HSE_VALUE or HSI_VALUE / PLLM) * PLLN
      SYSCLK = PLL_VCO / PLLP */
      pllm = RCC->PLLCFGR & RCC_PLLCFGR_PLLM;
 8002d84:	4bb9      	ldr	r3, [pc, #740]	; (800306c <HAL_RCC_GetSysClockFreq+0x358>)
 8002d86:	685b      	ldr	r3, [r3, #4]
 8002d88:	f003 033f 	and.w	r3, r3, #63	; 0x3f
 8002d8c:	617b      	str	r3, [r7, #20]
      if(__HAL_RCC_GET_PLL_OSCSOURCE() != RCC_PLLSOURCE_HSI)
 8002d8e:	4bb7      	ldr	r3, [pc, #732]	; (800306c <HAL_RCC_GetSysClockFreq+0x358>)
 8002d90:	685b      	ldr	r3, [r3, #4]
 8002d92:	f403 0380 	and.w	r3, r3, #4194304	; 0x400000
 8002d96:	2b00      	cmp	r3, #0
 8002d98:	d053      	beq.n	8002e42 <HAL_RCC_GetSysClockFreq+0x12e>
      {
        /* HSE used as PLL clock source */
        pllvco = (uint32_t) ((((uint64_t) HSE_VALUE * ((uint64_t) ((RCC->PLLCFGR & RCC_PLLCFGR_PLLN) >> RCC_PLLCFGR_PLLN_Pos)))) / (uint64_t)pllm);
 8002d9a:	4bb4      	ldr	r3, [pc, #720]	; (800306c <HAL_RCC_GetSysClockFreq+0x358>)
 8002d9c:	685b      	ldr	r3, [r3, #4]
 8002d9e:	099b      	lsrs	r3, r3, #6
 8002da0:	461a      	mov	r2, r3
 8002da2:	f04f 0300 	mov.w	r3, #0
 8002da6:	f240 10ff 	movw	r0, #511	; 0x1ff
 8002daa:	f04f 0100 	mov.w	r1, #0
 8002dae:	ea02 0400 	and.w	r4, r2, r0
 8002db2:	603c      	str	r4, [r7, #0]
 8002db4:	400b      	ands	r3, r1
 8002db6:	607b      	str	r3, [r7, #4]
 8002db8:	e9d7 4500 	ldrd	r4, r5, [r7]
 8002dbc:	4620      	mov	r0, r4
 8002dbe:	4629      	mov	r1, r5
 8002dc0:	f04f 0200 	mov.w	r2, #0
 8002dc4:	f04f 0300 	mov.w	r3, #0
 8002dc8:	014b      	lsls	r3, r1, #5
 8002dca:	ea43 63d0 	orr.w	r3, r3, r0, lsr #27
 8002dce:	0142      	lsls	r2, r0, #5
 8002dd0:	4610      	mov	r0, r2
 8002dd2:	4619      	mov	r1, r3
 8002dd4:	4623      	mov	r3, r4
 8002dd6:	1ac0      	subs	r0, r0, r3
 8002dd8:	462b      	mov	r3, r5
 8002dda:	eb61 0103 	sbc.w	r1, r1, r3
 8002dde:	f04f 0200 	mov.w	r2, #0
 8002de2:	f04f 0300 	mov.w	r3, #0
 8002de6:	018b      	lsls	r3, r1, #6
 8002de8:	ea43 6390 	orr.w	r3, r3, r0, lsr #26
 8002dec:	0182      	lsls	r2, r0, #6
 8002dee:	1a12      	subs	r2, r2, r0
 8002df0:	eb63 0301 	sbc.w	r3, r3, r1
 8002df4:	f04f 0000 	mov.w	r0, #0
 8002df8:	f04f 0100 	mov.w	r1, #0
 8002dfc:	00d9      	lsls	r1, r3, #3
 8002dfe:	ea41 7152 	orr.w	r1, r1, r2, lsr #29
 8002e02:	00d0      	lsls	r0, r2, #3
 8002e04:	4602      	mov	r2, r0
 8002e06:	460b      	mov	r3, r1
 8002e08:	4621      	mov	r1, r4
 8002e0a:	1852      	adds	r2, r2, r1
 8002e0c:	4629      	mov	r1, r5
 8002e0e:	eb43 0101 	adc.w	r1, r3, r1
 8002e12:	460b      	mov	r3, r1
 8002e14:	f04f 0000 	mov.w	r0, #0
 8002e18:	f04f 0100 	mov.w	r1, #0
 8002e1c:	0259      	lsls	r1, r3, #9
 8002e1e:	ea41 51d2 	orr.w	r1, r1, r2, lsr #23
 8002e22:	0250      	lsls	r0, r2, #9
 8002e24:	4602      	mov	r2, r0
 8002e26:	460b      	mov	r3, r1
 8002e28:	4610      	mov	r0, r2
 8002e2a:	4619      	mov	r1, r3
 8002e2c:	697b      	ldr	r3, [r7, #20]
 8002e2e:	461a      	mov	r2, r3
 8002e30:	f04f 0300 	mov.w	r3, #0
 8002e34:	f7fd ff28 	bl	8000c88 <__aeabi_uldivmod>
 8002e38:	4602      	mov	r2, r0
 8002e3a:	460b      	mov	r3, r1
 8002e3c:	4613      	mov	r3, r2
 8002e3e:	61fb      	str	r3, [r7, #28]
 8002e40:	e04c      	b.n	8002edc <HAL_RCC_GetSysClockFreq+0x1c8>
      }
      else
      {
        /* HSI used as PLL clock source */
        pllvco = (uint32_t) ((((uint64_t) HSI_VALUE * ((uint64_t) ((RCC->PLLCFGR & RCC_PLLCFGR_PLLN) >> RCC_PLLCFGR_PLLN_Pos)))) / (uint64_t)pllm);
 8002e42:	4b8a      	ldr	r3, [pc, #552]	; (800306c <HAL_RCC_GetSysClockFreq+0x358>)
 8002e44:	685b      	ldr	r3, [r3, #4]
 8002e46:	099b      	lsrs	r3, r3, #6
 8002e48:	461a      	mov	r2, r3
 8002e4a:	f04f 0300 	mov.w	r3, #0
 8002e4e:	f240 10ff 	movw	r0, #511	; 0x1ff
 8002e52:	f04f 0100 	mov.w	r1, #0
 8002e56:	ea02 0a00 	and.w	sl, r2, r0
 8002e5a:	ea03 0b01 	and.w	fp, r3, r1
 8002e5e:	4650      	mov	r0, sl
 8002e60:	4659      	mov	r1, fp
 8002e62:	f04f 0200 	mov.w	r2, #0
 8002e66:	f04f 0300 	mov.w	r3, #0
 8002e6a:	014b      	lsls	r3, r1, #5
 8002e6c:	ea43 63d0 	orr.w	r3, r3, r0, lsr #27
 8002e70:	0142      	lsls	r2, r0, #5
 8002e72:	4610      	mov	r0, r2
 8002e74:	4619      	mov	r1, r3
 8002e76:	ebb0 000a 	subs.w	r0, r0, sl
 8002e7a:	eb61 010b 	sbc.w	r1, r1, fp
 8002e7e:	f04f 0200 	mov.w	r2, #0
 8002e82:	f04f 0300 	mov.w	r3, #0
 8002e86:	018b      	lsls	r3, r1, #6
 8002e88:	ea43 6390 	orr.w	r3, r3, r0, lsr #26
 8002e8c:	0182      	lsls	r2, r0, #6
 8002e8e:	1a12      	subs	r2, r2, r0
 8002e90:	eb63 0301 	sbc.w	r3, r3, r1
 8002e94:	f04f 0000 	mov.w	r0, #0
 8002e98:	f04f 0100 	mov.w	r1, #0
 8002e9c:	00d9      	lsls	r1, r3, #3
 8002e9e:	ea41 7152 	orr.w	r1, r1, r2, lsr #29
 8002ea2:	00d0      	lsls	r0, r2, #3
 8002ea4:	4602      	mov	r2, r0
 8002ea6:	460b      	mov	r3, r1
 8002ea8:	eb12 020a 	adds.w	r2, r2, sl
 8002eac:	eb43 030b 	adc.w	r3, r3, fp
 8002eb0:	f04f 0000 	mov.w	r0, #0
 8002eb4:	f04f 0100 	mov.w	r1, #0
 8002eb8:	0299      	lsls	r1, r3, #10
 8002eba:	ea41 5192 	orr.w	r1, r1, r2, lsr #22
 8002ebe:	0290      	lsls	r0, r2, #10
 8002ec0:	4602      	mov	r2, r0
 8002ec2:	460b      	mov	r3, r1
 8002ec4:	4610      	mov	r0, r2
 8002ec6:	4619      	mov	r1, r3
 8002ec8:	697b      	ldr	r3, [r7, #20]
 8002eca:	461a      	mov	r2, r3
 8002ecc:	f04f 0300 	mov.w	r3, #0
 8002ed0:	f7fd feda 	bl	8000c88 <__aeabi_uldivmod>
 8002ed4:	4602      	mov	r2, r0
 8002ed6:	460b      	mov	r3, r1
 8002ed8:	4613      	mov	r3, r2
 8002eda:	61fb      	str	r3, [r7, #28]
      }
      pllp = ((((RCC->PLLCFGR & RCC_PLLCFGR_PLLP) >> RCC_PLLCFGR_PLLP_Pos) + 1U) *2U);
 8002edc:	4b63      	ldr	r3, [pc, #396]	; (800306c <HAL_RCC_GetSysClockFreq+0x358>)
 8002ede:	685b      	ldr	r3, [r3, #4]
 8002ee0:	0c1b      	lsrs	r3, r3, #16
 8002ee2:	f003 0303 	and.w	r3, r3, #3
 8002ee6:	3301      	adds	r3, #1
 8002ee8:	005b      	lsls	r3, r3, #1
 8002eea:	613b      	str	r3, [r7, #16]

      sysclockfreq = pllvco/pllp;
 8002eec:	69fa      	ldr	r2, [r7, #28]
 8002eee:	693b      	ldr	r3, [r7, #16]
 8002ef0:	fbb2 f3f3 	udiv	r3, r2, r3
 8002ef4:	61bb      	str	r3, [r7, #24]
      break;
 8002ef6:	e0b2      	b.n	800305e <HAL_RCC_GetSysClockFreq+0x34a>
    }
    case RCC_CFGR_SWS_PLLR:  /* PLL/PLLR used as system clock  source */
    {
      /* PLL_VCO = (HSE_VALUE or HSI_VALUE / PLLM) * PLLN
      SYSCLK = PLL_VCO / PLLR */
      pllm = RCC->PLLCFGR & RCC_PLLCFGR_PLLM;
 8002ef8:	4b5c      	ldr	r3, [pc, #368]	; (800306c <HAL_RCC_GetSysClockFreq+0x358>)
 8002efa:	685b      	ldr	r3, [r3, #4]
 8002efc:	f003 033f 	and.w	r3, r3, #63	; 0x3f
 8002f00:	617b      	str	r3, [r7, #20]
      if(__HAL_RCC_GET_PLL_OSCSOURCE() != RCC_PLLSOURCE_HSI)
 8002f02:	4b5a      	ldr	r3, [pc, #360]	; (800306c <HAL_RCC_GetSysClockFreq+0x358>)
 8002f04:	685b      	ldr	r3, [r3, #4]
 8002f06:	f403 0380 	and.w	r3, r3, #4194304	; 0x400000
 8002f0a:	2b00      	cmp	r3, #0
 8002f0c:	d04d      	beq.n	8002faa <HAL_RCC_GetSysClockFreq+0x296>
      {
        /* HSE used as PLL clock source */
        pllvco = (uint32_t) ((((uint64_t) HSE_VALUE * ((uint64_t) ((RCC->PLLCFGR & RCC_PLLCFGR_PLLN) >> RCC_PLLCFGR_PLLN_Pos)))) / (uint64_t)pllm);
 8002f0e:	4b57      	ldr	r3, [pc, #348]	; (800306c <HAL_RCC_GetSysClockFreq+0x358>)
 8002f10:	685b      	ldr	r3, [r3, #4]
 8002f12:	099b      	lsrs	r3, r3, #6
 8002f14:	461a      	mov	r2, r3
 8002f16:	f04f 0300 	mov.w	r3, #0
 8002f1a:	f240 10ff 	movw	r0, #511	; 0x1ff
 8002f1e:	f04f 0100 	mov.w	r1, #0
 8002f22:	ea02 0800 	and.w	r8, r2, r0
 8002f26:	ea03 0901 	and.w	r9, r3, r1
 8002f2a:	4640      	mov	r0, r8
 8002f2c:	4649      	mov	r1, r9
 8002f2e:	f04f 0200 	mov.w	r2, #0
 8002f32:	f04f 0300 	mov.w	r3, #0
 8002f36:	014b      	lsls	r3, r1, #5
 8002f38:	ea43 63d0 	orr.w	r3, r3, r0, lsr #27
 8002f3c:	0142      	lsls	r2, r0, #5
 8002f3e:	4610      	mov	r0, r2
 8002f40:	4619      	mov	r1, r3
 8002f42:	ebb0 0008 	subs.w	r0, r0, r8
 8002f46:	eb61 0109 	sbc.w	r1, r1, r9
 8002f4a:	f04f 0200 	mov.w	r2, #0
 8002f4e:	f04f 0300 	mov.w	r3, #0
 8002f52:	018b      	lsls	r3, r1, #6
 8002f54:	ea43 6390 	orr.w	r3, r3, r0, lsr #26
 8002f58:	0182      	lsls	r2, r0, #6
 8002f5a:	1a12      	subs	r2, r2, r0
 8002f5c:	eb63 0301 	sbc.w	r3, r3, r1
 8002f60:	f04f 0000 	mov.w	r0, #0
 8002f64:	f04f 0100 	mov.w	r1, #0
 8002f68:	00d9      	lsls	r1, r3, #3
 8002f6a:	ea41 7152 	orr.w	r1, r1, r2, lsr #29
 8002f6e:	00d0      	lsls	r0, r2, #3
 8002f70:	4602      	mov	r2, r0
 8002f72:	460b      	mov	r3, r1
 8002f74:	eb12 0208 	adds.w	r2, r2, r8
 8002f78:	eb43 0309 	adc.w	r3, r3, r9
 8002f7c:	f04f 0000 	mov.w	r0, #0
 8002f80:	f04f 0100 	mov.w	r1, #0
 8002f84:	0259      	lsls	r1, r3, #9
 8002f86:	ea41 51d2 	orr.w	r1, r1, r2, lsr #23
 8002f8a:	0250      	lsls	r0, r2, #9
 8002f8c:	4602      	mov	r2, r0
 8002f8e:	460b      	mov	r3, r1
 8002f90:	4610      	mov	r0, r2
 8002f92:	4619      	mov	r1, r3
 8002f94:	697b      	ldr	r3, [r7, #20]
 8002f96:	461a      	mov	r2, r3
 8002f98:	f04f 0300 	mov.w	r3, #0
 8002f9c:	f7fd fe74 	bl	8000c88 <__aeabi_uldivmod>
 8002fa0:	4602      	mov	r2, r0
 8002fa2:	460b      	mov	r3, r1
 8002fa4:	4613      	mov	r3, r2
 8002fa6:	61fb      	str	r3, [r7, #28]
 8002fa8:	e04a      	b.n	8003040 <HAL_RCC_GetSysClockFreq+0x32c>
      }
      else
      {
        /* HSI used as PLL clock source */
        pllvco = (uint32_t) ((((uint64_t) HSI_VALUE * ((uint64_t) ((RCC->PLLCFGR & RCC_PLLCFGR_PLLN) >> RCC_PLLCFGR_PLLN_Pos)))) / (uint64_t)pllm);
 8002faa:	4b30      	ldr	r3, [pc, #192]	; (800306c <HAL_RCC_GetSysClockFreq+0x358>)
 8002fac:	685b      	ldr	r3, [r3, #4]
 8002fae:	099b      	lsrs	r3, r3, #6
 8002fb0:	461a      	mov	r2, r3
 8002fb2:	f04f 0300 	mov.w	r3, #0
 8002fb6:	f240 10ff 	movw	r0, #511	; 0x1ff
 8002fba:	f04f 0100 	mov.w	r1, #0
 8002fbe:	ea02 0400 	and.w	r4, r2, r0
 8002fc2:	ea03 0501 	and.w	r5, r3, r1
 8002fc6:	4620      	mov	r0, r4
 8002fc8:	4629      	mov	r1, r5
 8002fca:	f04f 0200 	mov.w	r2, #0
 8002fce:	f04f 0300 	mov.w	r3, #0
 8002fd2:	014b      	lsls	r3, r1, #5
 8002fd4:	ea43 63d0 	orr.w	r3, r3, r0, lsr #27
 8002fd8:	0142      	lsls	r2, r0, #5
 8002fda:	4610      	mov	r0, r2
 8002fdc:	4619      	mov	r1, r3
 8002fde:	1b00      	subs	r0, r0, r4
 8002fe0:	eb61 0105 	sbc.w	r1, r1, r5
 8002fe4:	f04f 0200 	mov.w	r2, #0
 8002fe8:	f04f 0300 	mov.w	r3, #0
 8002fec:	018b      	lsls	r3, r1, #6
 8002fee:	ea43 6390 	orr.w	r3, r3, r0, lsr #26
 8002ff2:	0182      	lsls	r2, r0, #6
 8002ff4:	1a12      	subs	r2, r2, r0
 8002ff6:	eb63 0301 	sbc.w	r3, r3, r1
 8002ffa:	f04f 0000 	mov.w	r0, #0
 8002ffe:	f04f 0100 	mov.w	r1, #0
 8003002:	00d9      	lsls	r1, r3, #3
 8003004:	ea41 7152 	orr.w	r1, r1, r2, lsr #29
 8003008:	00d0      	lsls	r0, r2, #3
 800300a:	4602      	mov	r2, r0
 800300c:	460b      	mov	r3, r1
 800300e:	1912      	adds	r2, r2, r4
 8003010:	eb45 0303 	adc.w	r3, r5, r3
 8003014:	f04f 0000 	mov.w	r0, #0
 8003018:	f04f 0100 	mov.w	r1, #0
 800301c:	0299      	lsls	r1, r3, #10
 800301e:	ea41 5192 	orr.w	r1, r1, r2, lsr #22
 8003022:	0290      	lsls	r0, r2, #10
 8003024:	4602      	mov	r2, r0
 8003026:	460b      	mov	r3, r1
 8003028:	4610      	mov	r0, r2
 800302a:	4619      	mov	r1, r3
 800302c:	697b      	ldr	r3, [r7, #20]
 800302e:	461a      	mov	r2, r3
 8003030:	f04f 0300 	mov.w	r3, #0
 8003034:	f7fd fe28 	bl	8000c88 <__aeabi_uldivmod>
 8003038:	4602      	mov	r2, r0
 800303a:	460b      	mov	r3, r1
 800303c:	4613      	mov	r3, r2
 800303e:	61fb      	str	r3, [r7, #28]
      }
      pllr = ((RCC->PLLCFGR & RCC_PLLCFGR_PLLR) >> RCC_PLLCFGR_PLLR_Pos);
 8003040:	4b0a      	ldr	r3, [pc, #40]	; (800306c <HAL_RCC_GetSysClockFreq+0x358>)
 8003042:	685b      	ldr	r3, [r3, #4]
 8003044:	0f1b      	lsrs	r3, r3, #28
 8003046:	f003 0307 	and.w	r3, r3, #7
 800304a:	60fb      	str	r3, [r7, #12]

      sysclockfreq = pllvco/pllr;
 800304c:	69fa      	ldr	r2, [r7, #28]
 800304e:	68fb      	ldr	r3, [r7, #12]
 8003050:	fbb2 f3f3 	udiv	r3, r2, r3
 8003054:	61bb      	str	r3, [r7, #24]
      break;
 8003056:	e002      	b.n	800305e <HAL_RCC_GetSysClockFreq+0x34a>
    }
    default:
    {
      sysclockfreq = HSI_VALUE;
 8003058:	4b05      	ldr	r3, [pc, #20]	; (8003070 <HAL_RCC_GetSysClockFreq+0x35c>)
 800305a:	61bb      	str	r3, [r7, #24]
      break;
 800305c:	bf00      	nop
    }
  }
  return sysclockfreq;
 800305e:	69bb      	ldr	r3, [r7, #24]
}
 8003060:	4618      	mov	r0, r3
 8003062:	3720      	adds	r7, #32
 8003064:	46bd      	mov	sp, r7
 8003066:	e8bd 8fb0 	ldmia.w	sp!, {r4, r5, r7, r8, r9, sl, fp, pc}
 800306a:	bf00      	nop
 800306c:	40023800 	.word	0x40023800
 8003070:	00f42400 	.word	0x00f42400
 8003074:	007a1200 	.word	0x007a1200

08003078 <HAL_RCC_OscConfig>:
  * @note   This function add the PLL/PLLR factor management during PLL configuration this feature
  *         is only available in STM32F410xx/STM32F446xx/STM32F469xx/STM32F479xx/STM32F412Zx/STM32F412Vx/STM32F412Rx/STM32F412Cx devices
  * @retval HAL status
  */
HAL_StatusTypeDef HAL_RCC_OscConfig(RCC_OscInitTypeDef  *RCC_OscInitStruct)
{
 8003078:	b580      	push	{r7, lr}
 800307a:	b086      	sub	sp, #24
 800307c:	af00      	add	r7, sp, #0
 800307e:	6078      	str	r0, [r7, #4]
  uint32_t tickstart, pll_config;

  /* Check Null pointer */
  if(RCC_OscInitStruct == NULL)
 8003080:	687b      	ldr	r3, [r7, #4]
 8003082:	2b00      	cmp	r3, #0
 8003084:	d101      	bne.n	800308a <HAL_RCC_OscConfig+0x12>
  {
    return HAL_ERROR;
 8003086:	2301      	movs	r3, #1
 8003088:	e28d      	b.n	80035a6 <HAL_RCC_OscConfig+0x52e>
  }

  /* Check the parameters */
  assert_param(IS_RCC_OSCILLATORTYPE(RCC_OscInitStruct->OscillatorType));
  /*------------------------------- HSE Configuration ------------------------*/
  if(((RCC_OscInitStruct->OscillatorType) & RCC_OSCILLATORTYPE_HSE) == RCC_OSCILLATORTYPE_HSE)
 800308a:	687b      	ldr	r3, [r7, #4]
 800308c:	681b      	ldr	r3, [r3, #0]
 800308e:	f003 0301 	and.w	r3, r3, #1
 8003092:	2b00      	cmp	r3, #0
 8003094:	f000 8083 	beq.w	800319e <HAL_RCC_OscConfig+0x126>
  {
    /* Check the parameters */
    assert_param(IS_RCC_HSE(RCC_OscInitStruct->HSEState));
    /* When the HSE is used as system clock or clock source for PLL in these cases HSE will not disabled */
#if defined(STM32F446xx)
    if((__HAL_RCC_GET_SYSCLK_SOURCE() == RCC_CFGR_SWS_HSE)                                                                     ||\
 8003098:	4b94      	ldr	r3, [pc, #592]	; (80032ec <HAL_RCC_OscConfig+0x274>)
 800309a:	689b      	ldr	r3, [r3, #8]
 800309c:	f003 030c 	and.w	r3, r3, #12
 80030a0:	2b04      	cmp	r3, #4
 80030a2:	d019      	beq.n	80030d8 <HAL_RCC_OscConfig+0x60>
      ((__HAL_RCC_GET_SYSCLK_SOURCE() == RCC_CFGR_SWS_PLL) && ((RCC->PLLCFGR & RCC_PLLCFGR_PLLSRC) == RCC_PLLCFGR_PLLSRC_HSE)) ||\
 80030a4:	4b91      	ldr	r3, [pc, #580]	; (80032ec <HAL_RCC_OscConfig+0x274>)
 80030a6:	689b      	ldr	r3, [r3, #8]
 80030a8:	f003 030c 	and.w	r3, r3, #12
    if((__HAL_RCC_GET_SYSCLK_SOURCE() == RCC_CFGR_SWS_HSE)                                                                     ||\
 80030ac:	2b08      	cmp	r3, #8
 80030ae:	d106      	bne.n	80030be <HAL_RCC_OscConfig+0x46>
      ((__HAL_RCC_GET_SYSCLK_SOURCE() == RCC_CFGR_SWS_PLL) && ((RCC->PLLCFGR & RCC_PLLCFGR_PLLSRC) == RCC_PLLCFGR_PLLSRC_HSE)) ||\
 80030b0:	4b8e      	ldr	r3, [pc, #568]	; (80032ec <HAL_RCC_OscConfig+0x274>)
 80030b2:	685b      	ldr	r3, [r3, #4]
 80030b4:	f403 0380 	and.w	r3, r3, #4194304	; 0x400000
 80030b8:	f5b3 0f80 	cmp.w	r3, #4194304	; 0x400000
 80030bc:	d00c      	beq.n	80030d8 <HAL_RCC_OscConfig+0x60>
      ((__HAL_RCC_GET_SYSCLK_SOURCE() == RCC_CFGR_SWS_PLLR) && ((RCC->PLLCFGR & RCC_PLLCFGR_PLLSRC) == RCC_PLLCFGR_PLLSRC_HSE)))
 80030be:	4b8b      	ldr	r3, [pc, #556]	; (80032ec <HAL_RCC_OscConfig+0x274>)
 80030c0:	689b      	ldr	r3, [r3, #8]
 80030c2:	f003 030c 	and.w	r3, r3, #12
      ((__HAL_RCC_GET_SYSCLK_SOURCE() == RCC_CFGR_SWS_PLL) && ((RCC->PLLCFGR & RCC_PLLCFGR_PLLSRC) == RCC_PLLCFGR_PLLSRC_HSE)) ||\
 80030c6:	2b0c      	cmp	r3, #12
 80030c8:	d112      	bne.n	80030f0 <HAL_RCC_OscConfig+0x78>
      ((__HAL_RCC_GET_SYSCLK_SOURCE() == RCC_CFGR_SWS_PLLR) && ((RCC->PLLCFGR & RCC_PLLCFGR_PLLSRC) == RCC_PLLCFGR_PLLSRC_HSE)))
 80030ca:	4b88      	ldr	r3, [pc, #544]	; (80032ec <HAL_RCC_OscConfig+0x274>)
 80030cc:	685b      	ldr	r3, [r3, #4]
 80030ce:	f403 0380 	and.w	r3, r3, #4194304	; 0x400000
 80030d2:	f5b3 0f80 	cmp.w	r3, #4194304	; 0x400000
 80030d6:	d10b      	bne.n	80030f0 <HAL_RCC_OscConfig+0x78>
#else
    if((__HAL_RCC_GET_SYSCLK_SOURCE() == RCC_CFGR_SWS_HSE)                                                                     ||\
      ((__HAL_RCC_GET_SYSCLK_SOURCE() == RCC_CFGR_SWS_PLL) && ((RCC->PLLCFGR & RCC_PLLCFGR_PLLSRC) == RCC_PLLCFGR_PLLSRC_HSE)))
#endif /* STM32F446xx */
    {
      if((__HAL_RCC_GET_FLAG(RCC_FLAG_HSERDY) != RESET) && (RCC_OscInitStruct->HSEState == RCC_HSE_OFF))
 80030d8:	4b84      	ldr	r3, [pc, #528]	; (80032ec <HAL_RCC_OscConfig+0x274>)
 80030da:	681b      	ldr	r3, [r3, #0]
 80030dc:	f403 3300 	and.w	r3, r3, #131072	; 0x20000
 80030e0:	2b00      	cmp	r3, #0
 80030e2:	d05b      	beq.n	800319c <HAL_RCC_OscConfig+0x124>
 80030e4:	687b      	ldr	r3, [r7, #4]
 80030e6:	685b      	ldr	r3, [r3, #4]
 80030e8:	2b00      	cmp	r3, #0
 80030ea:	d157      	bne.n	800319c <HAL_RCC_OscConfig+0x124>
      {
        return HAL_ERROR;
 80030ec:	2301      	movs	r3, #1
 80030ee:	e25a      	b.n	80035a6 <HAL_RCC_OscConfig+0x52e>
      }
    }
    else
    {
      /* Set the new HSE configuration ---------------------------------------*/
      __HAL_RCC_HSE_CONFIG(RCC_OscInitStruct->HSEState);
 80030f0:	687b      	ldr	r3, [r7, #4]
 80030f2:	685b      	ldr	r3, [r3, #4]
 80030f4:	f5b3 3f80 	cmp.w	r3, #65536	; 0x10000
 80030f8:	d106      	bne.n	8003108 <HAL_RCC_OscConfig+0x90>
 80030fa:	4b7c      	ldr	r3, [pc, #496]	; (80032ec <HAL_RCC_OscConfig+0x274>)
 80030fc:	681b      	ldr	r3, [r3, #0]
 80030fe:	4a7b      	ldr	r2, [pc, #492]	; (80032ec <HAL_RCC_OscConfig+0x274>)
 8003100:	f443 3380 	orr.w	r3, r3, #65536	; 0x10000
 8003104:	6013      	str	r3, [r2, #0]
 8003106:	e01d      	b.n	8003144 <HAL_RCC_OscConfig+0xcc>
 8003108:	687b      	ldr	r3, [r7, #4]
 800310a:	685b      	ldr	r3, [r3, #4]
 800310c:	f5b3 2fa0 	cmp.w	r3, #327680	; 0x50000
 8003110:	d10c      	bne.n	800312c <HAL_RCC_OscConfig+0xb4>
 8003112:	4b76      	ldr	r3, [pc, #472]	; (80032ec <HAL_RCC_OscConfig+0x274>)
 8003114:	681b      	ldr	r3, [r3, #0]
 8003116:	4a75      	ldr	r2, [pc, #468]	; (80032ec <HAL_RCC_OscConfig+0x274>)
 8003118:	f443 2380 	orr.w	r3, r3, #262144	; 0x40000
 800311c:	6013      	str	r3, [r2, #0]
 800311e:	4b73      	ldr	r3, [pc, #460]	; (80032ec <HAL_RCC_OscConfig+0x274>)
 8003120:	681b      	ldr	r3, [r3, #0]
 8003122:	4a72      	ldr	r2, [pc, #456]	; (80032ec <HAL_RCC_OscConfig+0x274>)
 8003124:	f443 3380 	orr.w	r3, r3, #65536	; 0x10000
 8003128:	6013      	str	r3, [r2, #0]
 800312a:	e00b      	b.n	8003144 <HAL_RCC_OscConfig+0xcc>
 800312c:	4b6f      	ldr	r3, [pc, #444]	; (80032ec <HAL_RCC_OscConfig+0x274>)
 800312e:	681b      	ldr	r3, [r3, #0]
 8003130:	4a6e      	ldr	r2, [pc, #440]	; (80032ec <HAL_RCC_OscConfig+0x274>)
 8003132:	f423 3380 	bic.w	r3, r3, #65536	; 0x10000
 8003136:	6013      	str	r3, [r2, #0]
 8003138:	4b6c      	ldr	r3, [pc, #432]	; (80032ec <HAL_RCC_OscConfig+0x274>)
 800313a:	681b      	ldr	r3, [r3, #0]
 800313c:	4a6b      	ldr	r2, [pc, #428]	; (80032ec <HAL_RCC_OscConfig+0x274>)
 800313e:	f423 2380 	bic.w	r3, r3, #262144	; 0x40000
 8003142:	6013      	str	r3, [r2, #0]

      /* Check the HSE State */
      if((RCC_OscInitStruct->HSEState) != RCC_HSE_OFF)
 8003144:	687b      	ldr	r3, [r7, #4]
 8003146:	685b      	ldr	r3, [r3, #4]
 8003148:	2b00      	cmp	r3, #0
 800314a:	d013      	beq.n	8003174 <HAL_RCC_OscConfig+0xfc>
      {
        /* Get Start Tick*/
        tickstart = HAL_GetTick();
 800314c:	f7ff f9d8 	bl	8002500 <HAL_GetTick>
 8003150:	6138      	str	r0, [r7, #16]

        /* Wait till HSE is ready */
        while(__HAL_RCC_GET_FLAG(RCC_FLAG_HSERDY) == RESET)
 8003152:	e008      	b.n	8003166 <HAL_RCC_OscConfig+0xee>
        {
          if((HAL_GetTick() - tickstart ) > HSE_TIMEOUT_VALUE)
 8003154:	f7ff f9d4 	bl	8002500 <HAL_GetTick>
 8003158:	4602      	mov	r2, r0
 800315a:	693b      	ldr	r3, [r7, #16]
 800315c:	1ad3      	subs	r3, r2, r3
 800315e:	2b64      	cmp	r3, #100	; 0x64
 8003160:	d901      	bls.n	8003166 <HAL_RCC_OscConfig+0xee>
          {
            return HAL_TIMEOUT;
 8003162:	2303      	movs	r3, #3
 8003164:	e21f      	b.n	80035a6 <HAL_RCC_OscConfig+0x52e>
        while(__HAL_RCC_GET_FLAG(RCC_FLAG_HSERDY) == RESET)
 8003166:	4b61      	ldr	r3, [pc, #388]	; (80032ec <HAL_RCC_OscConfig+0x274>)
 8003168:	681b      	ldr	r3, [r3, #0]
 800316a:	f403 3300 	and.w	r3, r3, #131072	; 0x20000
 800316e:	2b00      	cmp	r3, #0
 8003170:	d0f0      	beq.n	8003154 <HAL_RCC_OscConfig+0xdc>
 8003172:	e014      	b.n	800319e <HAL_RCC_OscConfig+0x126>
        }
      }
      else
      {
        /* Get Start Tick*/
        tickstart = HAL_GetTick();
 8003174:	f7ff f9c4 	bl	8002500 <HAL_GetTick>
 8003178:	6138      	str	r0, [r7, #16]

        /* Wait till HSE is bypassed or disabled */
        while(__HAL_RCC_GET_FLAG(RCC_FLAG_HSERDY) != RESET)
 800317a:	e008      	b.n	800318e <HAL_RCC_OscConfig+0x116>
        {
          if((HAL_GetTick() - tickstart ) > HSE_TIMEOUT_VALUE)
 800317c:	f7ff f9c0 	bl	8002500 <HAL_GetTick>
 8003180:	4602      	mov	r2, r0
 8003182:	693b      	ldr	r3, [r7, #16]
 8003184:	1ad3      	subs	r3, r2, r3
 8003186:	2b64      	cmp	r3, #100	; 0x64
 8003188:	d901      	bls.n	800318e <HAL_RCC_OscConfig+0x116>
          {
            return HAL_TIMEOUT;
 800318a:	2303      	movs	r3, #3
 800318c:	e20b      	b.n	80035a6 <HAL_RCC_OscConfig+0x52e>
        while(__HAL_RCC_GET_FLAG(RCC_FLAG_HSERDY) != RESET)
 800318e:	4b57      	ldr	r3, [pc, #348]	; (80032ec <HAL_RCC_OscConfig+0x274>)
 8003190:	681b      	ldr	r3, [r3, #0]
 8003192:	f403 3300 	and.w	r3, r3, #131072	; 0x20000
 8003196:	2b00      	cmp	r3, #0
 8003198:	d1f0      	bne.n	800317c <HAL_RCC_OscConfig+0x104>
 800319a:	e000      	b.n	800319e <HAL_RCC_OscConfig+0x126>
      if((__HAL_RCC_GET_FLAG(RCC_FLAG_HSERDY) != RESET) && (RCC_OscInitStruct->HSEState == RCC_HSE_OFF))
 800319c:	bf00      	nop
        }
      }
    }
  }
  /*----------------------------- HSI Configuration --------------------------*/
  if(((RCC_OscInitStruct->OscillatorType) & RCC_OSCILLATORTYPE_HSI) == RCC_OSCILLATORTYPE_HSI)
 800319e:	687b      	ldr	r3, [r7, #4]
 80031a0:	681b      	ldr	r3, [r3, #0]
 80031a2:	f003 0302 	and.w	r3, r3, #2
 80031a6:	2b00      	cmp	r3, #0
 80031a8:	d06f      	beq.n	800328a <HAL_RCC_OscConfig+0x212>
    assert_param(IS_RCC_HSI(RCC_OscInitStruct->HSIState));
    assert_param(IS_RCC_CALIBRATION_VALUE(RCC_OscInitStruct->HSICalibrationValue));

    /* Check if HSI is used as system clock or as PLL source when PLL is selected as system clock */
#if defined(STM32F446xx)
    if((__HAL_RCC_GET_SYSCLK_SOURCE() == RCC_CFGR_SWS_HSI)                                                                     ||\
 80031aa:	4b50      	ldr	r3, [pc, #320]	; (80032ec <HAL_RCC_OscConfig+0x274>)
 80031ac:	689b      	ldr	r3, [r3, #8]
 80031ae:	f003 030c 	and.w	r3, r3, #12
 80031b2:	2b00      	cmp	r3, #0
 80031b4:	d017      	beq.n	80031e6 <HAL_RCC_OscConfig+0x16e>
      ((__HAL_RCC_GET_SYSCLK_SOURCE() == RCC_CFGR_SWS_PLL) && ((RCC->PLLCFGR & RCC_PLLCFGR_PLLSRC) == RCC_PLLCFGR_PLLSRC_HSI)) ||\
 80031b6:	4b4d      	ldr	r3, [pc, #308]	; (80032ec <HAL_RCC_OscConfig+0x274>)
 80031b8:	689b      	ldr	r3, [r3, #8]
 80031ba:	f003 030c 	and.w	r3, r3, #12
    if((__HAL_RCC_GET_SYSCLK_SOURCE() == RCC_CFGR_SWS_HSI)                                                                     ||\
 80031be:	2b08      	cmp	r3, #8
 80031c0:	d105      	bne.n	80031ce <HAL_RCC_OscConfig+0x156>
      ((__HAL_RCC_GET_SYSCLK_SOURCE() == RCC_CFGR_SWS_PLL) && ((RCC->PLLCFGR & RCC_PLLCFGR_PLLSRC) == RCC_PLLCFGR_PLLSRC_HSI)) ||\
 80031c2:	4b4a      	ldr	r3, [pc, #296]	; (80032ec <HAL_RCC_OscConfig+0x274>)
 80031c4:	685b      	ldr	r3, [r3, #4]
 80031c6:	f403 0380 	and.w	r3, r3, #4194304	; 0x400000
 80031ca:	2b00      	cmp	r3, #0
 80031cc:	d00b      	beq.n	80031e6 <HAL_RCC_OscConfig+0x16e>
      ((__HAL_RCC_GET_SYSCLK_SOURCE() == RCC_CFGR_SWS_PLLR) && ((RCC->PLLCFGR & RCC_PLLCFGR_PLLSRC) == RCC_PLLCFGR_PLLSRC_HSI)))
 80031ce:	4b47      	ldr	r3, [pc, #284]	; (80032ec <HAL_RCC_OscConfig+0x274>)
 80031d0:	689b      	ldr	r3, [r3, #8]
 80031d2:	f003 030c 	and.w	r3, r3, #12
      ((__HAL_RCC_GET_SYSCLK_SOURCE() == RCC_CFGR_SWS_PLL) && ((RCC->PLLCFGR & RCC_PLLCFGR_PLLSRC) == RCC_PLLCFGR_PLLSRC_HSI)) ||\
 80031d6:	2b0c      	cmp	r3, #12
 80031d8:	d11c      	bne.n	8003214 <HAL_RCC_OscConfig+0x19c>
      ((__HAL_RCC_GET_SYSCLK_SOURCE() == RCC_CFGR_SWS_PLLR) && ((RCC->PLLCFGR & RCC_PLLCFGR_PLLSRC) == RCC_PLLCFGR_PLLSRC_HSI)))
 80031da:	4b44      	ldr	r3, [pc, #272]	; (80032ec <HAL_RCC_OscConfig+0x274>)
 80031dc:	685b      	ldr	r3, [r3, #4]
 80031de:	f403 0380 	and.w	r3, r3, #4194304	; 0x400000
 80031e2:	2b00      	cmp	r3, #0
 80031e4:	d116      	bne.n	8003214 <HAL_RCC_OscConfig+0x19c>
    if((__HAL_RCC_GET_SYSCLK_SOURCE() == RCC_CFGR_SWS_HSI)                                                                     ||\
      ((__HAL_RCC_GET_SYSCLK_SOURCE() == RCC_CFGR_SWS_PLL) && ((RCC->PLLCFGR & RCC_PLLCFGR_PLLSRC) == RCC_PLLCFGR_PLLSRC_HSI)))
#endif /* STM32F446xx */
    {
      /* When HSI is used as system clock it will not disabled */
      if((__HAL_RCC_GET_FLAG(RCC_FLAG_HSIRDY) != RESET) && (RCC_OscInitStruct->HSIState != RCC_HSI_ON))
 80031e6:	4b41      	ldr	r3, [pc, #260]	; (80032ec <HAL_RCC_OscConfig+0x274>)
 80031e8:	681b      	ldr	r3, [r3, #0]
 80031ea:	f003 0302 	and.w	r3, r3, #2
 80031ee:	2b00      	cmp	r3, #0
 80031f0:	d005      	beq.n	80031fe <HAL_RCC_OscConfig+0x186>
 80031f2:	687b      	ldr	r3, [r7, #4]
 80031f4:	68db      	ldr	r3, [r3, #12]
 80031f6:	2b01      	cmp	r3, #1
 80031f8:	d001      	beq.n	80031fe <HAL_RCC_OscConfig+0x186>
      {
        return HAL_ERROR;
 80031fa:	2301      	movs	r3, #1
 80031fc:	e1d3      	b.n	80035a6 <HAL_RCC_OscConfig+0x52e>
      }
      /* Otherwise, just the calibration is allowed */
      else
      {
        /* Adjusts the Internal High Speed oscillator (HSI) calibration value.*/
        __HAL_RCC_HSI_CALIBRATIONVALUE_ADJUST(RCC_OscInitStruct->HSICalibrationValue);
 80031fe:	4b3b      	ldr	r3, [pc, #236]	; (80032ec <HAL_RCC_OscConfig+0x274>)
 8003200:	681b      	ldr	r3, [r3, #0]
 8003202:	f023 02f8 	bic.w	r2, r3, #248	; 0xf8
 8003206:	687b      	ldr	r3, [r7, #4]
 8003208:	691b      	ldr	r3, [r3, #16]
 800320a:	00db      	lsls	r3, r3, #3
 800320c:	4937      	ldr	r1, [pc, #220]	; (80032ec <HAL_RCC_OscConfig+0x274>)
 800320e:	4313      	orrs	r3, r2
 8003210:	600b      	str	r3, [r1, #0]
      if((__HAL_RCC_GET_FLAG(RCC_FLAG_HSIRDY) != RESET) && (RCC_OscInitStruct->HSIState != RCC_HSI_ON))
 8003212:	e03a      	b.n	800328a <HAL_RCC_OscConfig+0x212>
      }
    }
    else
    {
      /* Check the HSI State */
      if((RCC_OscInitStruct->HSIState)!= RCC_HSI_OFF)
 8003214:	687b      	ldr	r3, [r7, #4]
 8003216:	68db      	ldr	r3, [r3, #12]
 8003218:	2b00      	cmp	r3, #0
 800321a:	d020      	beq.n	800325e <HAL_RCC_OscConfig+0x1e6>
      {
        /* Enable the Internal High Speed oscillator (HSI). */
        __HAL_RCC_HSI_ENABLE();
 800321c:	4b34      	ldr	r3, [pc, #208]	; (80032f0 <HAL_RCC_OscConfig+0x278>)
 800321e:	2201      	movs	r2, #1
 8003220:	601a      	str	r2, [r3, #0]

        /* Get Start Tick*/
        tickstart = HAL_GetTick();
 8003222:	f7ff f96d 	bl	8002500 <HAL_GetTick>
 8003226:	6138      	str	r0, [r7, #16]

        /* Wait till HSI is ready */
        while(__HAL_RCC_GET_FLAG(RCC_FLAG_HSIRDY) == RESET)
 8003228:	e008      	b.n	800323c <HAL_RCC_OscConfig+0x1c4>
        {
          if((HAL_GetTick() - tickstart ) > HSI_TIMEOUT_VALUE)
 800322a:	f7ff f969 	bl	8002500 <HAL_GetTick>
 800322e:	4602      	mov	r2, r0
 8003230:	693b      	ldr	r3, [r7, #16]
 8003232:	1ad3      	subs	r3, r2, r3
 8003234:	2b02      	cmp	r3, #2
 8003236:	d901      	bls.n	800323c <HAL_RCC_OscConfig+0x1c4>
          {
            return HAL_TIMEOUT;
 8003238:	2303      	movs	r3, #3
 800323a:	e1b4      	b.n	80035a6 <HAL_RCC_OscConfig+0x52e>
        while(__HAL_RCC_GET_FLAG(RCC_FLAG_HSIRDY) == RESET)
 800323c:	4b2b      	ldr	r3, [pc, #172]	; (80032ec <HAL_RCC_OscConfig+0x274>)
 800323e:	681b      	ldr	r3, [r3, #0]
 8003240:	f003 0302 	and.w	r3, r3, #2
 8003244:	2b00      	cmp	r3, #0
 8003246:	d0f0      	beq.n	800322a <HAL_RCC_OscConfig+0x1b2>
          }
        }

        /* Adjusts the Internal High Speed oscillator (HSI) calibration value.*/
        __HAL_RCC_HSI_CALIBRATIONVALUE_ADJUST(RCC_OscInitStruct->HSICalibrationValue);
 8003248:	4b28      	ldr	r3, [pc, #160]	; (80032ec <HAL_RCC_OscConfig+0x274>)
 800324a:	681b      	ldr	r3, [r3, #0]
 800324c:	f023 02f8 	bic.w	r2, r3, #248	; 0xf8
 8003250:	687b      	ldr	r3, [r7, #4]
 8003252:	691b      	ldr	r3, [r3, #16]
 8003254:	00db      	lsls	r3, r3, #3
 8003256:	4925      	ldr	r1, [pc, #148]	; (80032ec <HAL_RCC_OscConfig+0x274>)
 8003258:	4313      	orrs	r3, r2
 800325a:	600b      	str	r3, [r1, #0]
 800325c:	e015      	b.n	800328a <HAL_RCC_OscConfig+0x212>
      }
      else
      {
        /* Disable the Internal High Speed oscillator (HSI). */
        __HAL_RCC_HSI_DISABLE();
 800325e:	4b24      	ldr	r3, [pc, #144]	; (80032f0 <HAL_RCC_OscConfig+0x278>)
 8003260:	2200      	movs	r2, #0
 8003262:	601a      	str	r2, [r3, #0]

        /* Get Start Tick*/
        tickstart = HAL_GetTick();
 8003264:	f7ff f94c 	bl	8002500 <HAL_GetTick>
 8003268:	6138      	str	r0, [r7, #16]

        /* Wait till HSI is ready */
        while(__HAL_RCC_GET_FLAG(RCC_FLAG_HSIRDY) != RESET)
 800326a:	e008      	b.n	800327e <HAL_RCC_OscConfig+0x206>
        {
          if((HAL_GetTick() - tickstart ) > HSI_TIMEOUT_VALUE)
 800326c:	f7ff f948 	bl	8002500 <HAL_GetTick>
 8003270:	4602      	mov	r2, r0
 8003272:	693b      	ldr	r3, [r7, #16]
 8003274:	1ad3      	subs	r3, r2, r3
 8003276:	2b02      	cmp	r3, #2
 8003278:	d901      	bls.n	800327e <HAL_RCC_OscConfig+0x206>
          {
            return HAL_TIMEOUT;
 800327a:	2303      	movs	r3, #3
 800327c:	e193      	b.n	80035a6 <HAL_RCC_OscConfig+0x52e>
        while(__HAL_RCC_GET_FLAG(RCC_FLAG_HSIRDY) != RESET)
 800327e:	4b1b      	ldr	r3, [pc, #108]	; (80032ec <HAL_RCC_OscConfig+0x274>)
 8003280:	681b      	ldr	r3, [r3, #0]
 8003282:	f003 0302 	and.w	r3, r3, #2
 8003286:	2b00      	cmp	r3, #0
 8003288:	d1f0      	bne.n	800326c <HAL_RCC_OscConfig+0x1f4>
        }
      }
    }
  }
  /*------------------------------ LSI Configuration -------------------------*/
  if(((RCC_OscInitStruct->OscillatorType) & RCC_OSCILLATORTYPE_LSI) == RCC_OSCILLATORTYPE_LSI)
 800328a:	687b      	ldr	r3, [r7, #4]
 800328c:	681b      	ldr	r3, [r3, #0]
 800328e:	f003 0308 	and.w	r3, r3, #8
 8003292:	2b00      	cmp	r3, #0
 8003294:	d036      	beq.n	8003304 <HAL_RCC_OscConfig+0x28c>
  {
    /* Check the parameters */
    assert_param(IS_RCC_LSI(RCC_OscInitStruct->LSIState));

    /* Check the LSI State */
    if((RCC_OscInitStruct->LSIState)!= RCC_LSI_OFF)
 8003296:	687b      	ldr	r3, [r7, #4]
 8003298:	695b      	ldr	r3, [r3, #20]
 800329a:	2b00      	cmp	r3, #0
 800329c:	d016      	beq.n	80032cc <HAL_RCC_OscConfig+0x254>
    {
      /* Enable the Internal Low Speed oscillator (LSI). */
      __HAL_RCC_LSI_ENABLE();
 800329e:	4b15      	ldr	r3, [pc, #84]	; (80032f4 <HAL_RCC_OscConfig+0x27c>)
 80032a0:	2201      	movs	r2, #1
 80032a2:	601a      	str	r2, [r3, #0]

      /* Get Start Tick*/
      tickstart = HAL_GetTick();
 80032a4:	f7ff f92c 	bl	8002500 <HAL_GetTick>
 80032a8:	6138      	str	r0, [r7, #16]

      /* Wait till LSI is ready */
      while(__HAL_RCC_GET_FLAG(RCC_FLAG_LSIRDY) == RESET)
 80032aa:	e008      	b.n	80032be <HAL_RCC_OscConfig+0x246>
      {
        if((HAL_GetTick() - tickstart ) > LSI_TIMEOUT_VALUE)
 80032ac:	f7ff f928 	bl	8002500 <HAL_GetTick>
 80032b0:	4602      	mov	r2, r0
 80032b2:	693b      	ldr	r3, [r7, #16]
 80032b4:	1ad3      	subs	r3, r2, r3
 80032b6:	2b02      	cmp	r3, #2
 80032b8:	d901      	bls.n	80032be <HAL_RCC_OscConfig+0x246>
        {
          return HAL_TIMEOUT;
 80032ba:	2303      	movs	r3, #3
 80032bc:	e173      	b.n	80035a6 <HAL_RCC_OscConfig+0x52e>
      while(__HAL_RCC_GET_FLAG(RCC_FLAG_LSIRDY) == RESET)
 80032be:	4b0b      	ldr	r3, [pc, #44]	; (80032ec <HAL_RCC_OscConfig+0x274>)
 80032c0:	6f5b      	ldr	r3, [r3, #116]	; 0x74
 80032c2:	f003 0302 	and.w	r3, r3, #2
 80032c6:	2b00      	cmp	r3, #0
 80032c8:	d0f0      	beq.n	80032ac <HAL_RCC_OscConfig+0x234>
 80032ca:	e01b      	b.n	8003304 <HAL_RCC_OscConfig+0x28c>
      }
    }
    else
    {
      /* Disable the Internal Low Speed oscillator (LSI). */
      __HAL_RCC_LSI_DISABLE();
 80032cc:	4b09      	ldr	r3, [pc, #36]	; (80032f4 <HAL_RCC_OscConfig+0x27c>)
 80032ce:	2200      	movs	r2, #0
 80032d0:	601a      	str	r2, [r3, #0]

      /* Get Start Tick*/
      tickstart = HAL_GetTick();
 80032d2:	f7ff f915 	bl	8002500 <HAL_GetTick>
 80032d6:	6138      	str	r0, [r7, #16]

      /* Wait till LSI is ready */
      while(__HAL_RCC_GET_FLAG(RCC_FLAG_LSIRDY) != RESET)
 80032d8:	e00e      	b.n	80032f8 <HAL_RCC_OscConfig+0x280>
      {
        if((HAL_GetTick() - tickstart ) > LSI_TIMEOUT_VALUE)
 80032da:	f7ff f911 	bl	8002500 <HAL_GetTick>
 80032de:	4602      	mov	r2, r0
 80032e0:	693b      	ldr	r3, [r7, #16]
 80032e2:	1ad3      	subs	r3, r2, r3
 80032e4:	2b02      	cmp	r3, #2
 80032e6:	d907      	bls.n	80032f8 <HAL_RCC_OscConfig+0x280>
        {
          return HAL_TIMEOUT;
 80032e8:	2303      	movs	r3, #3
 80032ea:	e15c      	b.n	80035a6 <HAL_RCC_OscConfig+0x52e>
 80032ec:	40023800 	.word	0x40023800
 80032f0:	42470000 	.word	0x42470000
 80032f4:	42470e80 	.word	0x42470e80
      while(__HAL_RCC_GET_FLAG(RCC_FLAG_LSIRDY) != RESET)
 80032f8:	4b8a      	ldr	r3, [pc, #552]	; (8003524 <HAL_RCC_OscConfig+0x4ac>)
 80032fa:	6f5b      	ldr	r3, [r3, #116]	; 0x74
 80032fc:	f003 0302 	and.w	r3, r3, #2
 8003300:	2b00      	cmp	r3, #0
 8003302:	d1ea      	bne.n	80032da <HAL_RCC_OscConfig+0x262>
        }
      }
    }
  }
  /*------------------------------ LSE Configuration -------------------------*/
  if(((RCC_OscInitStruct->OscillatorType) & RCC_OSCILLATORTYPE_LSE) == RCC_OSCILLATORTYPE_LSE)
 8003304:	687b      	ldr	r3, [r7, #4]
 8003306:	681b      	ldr	r3, [r3, #0]
 8003308:	f003 0304 	and.w	r3, r3, #4
 800330c:	2b00      	cmp	r3, #0
 800330e:	f000 8097 	beq.w	8003440 <HAL_RCC_OscConfig+0x3c8>
  {
    FlagStatus       pwrclkchanged = RESET;
 8003312:	2300      	movs	r3, #0
 8003314:	75fb      	strb	r3, [r7, #23]
    /* Check the parameters */
    assert_param(IS_RCC_LSE(RCC_OscInitStruct->LSEState));

    /* Update LSE configuration in Backup Domain control register    */
    /* Requires to enable write access to Backup Domain of necessary */
    if(__HAL_RCC_PWR_IS_CLK_DISABLED())
 8003316:	4b83      	ldr	r3, [pc, #524]	; (8003524 <HAL_RCC_OscConfig+0x4ac>)
 8003318:	6c1b      	ldr	r3, [r3, #64]	; 0x40
 800331a:	f003 5380 	and.w	r3, r3, #268435456	; 0x10000000
 800331e:	2b00      	cmp	r3, #0
 8003320:	d10f      	bne.n	8003342 <HAL_RCC_OscConfig+0x2ca>
    {
      __HAL_RCC_PWR_CLK_ENABLE();
 8003322:	2300      	movs	r3, #0
 8003324:	60bb      	str	r3, [r7, #8]
 8003326:	4b7f      	ldr	r3, [pc, #508]	; (8003524 <HAL_RCC_OscConfig+0x4ac>)
 8003328:	6c1b      	ldr	r3, [r3, #64]	; 0x40
 800332a:	4a7e      	ldr	r2, [pc, #504]	; (8003524 <HAL_RCC_OscConfig+0x4ac>)
 800332c:	f043 5380 	orr.w	r3, r3, #268435456	; 0x10000000
 8003330:	6413      	str	r3, [r2, #64]	; 0x40
 8003332:	4b7c      	ldr	r3, [pc, #496]	; (8003524 <HAL_RCC_OscConfig+0x4ac>)
 8003334:	6c1b      	ldr	r3, [r3, #64]	; 0x40
 8003336:	f003 5380 	and.w	r3, r3, #268435456	; 0x10000000
 800333a:	60bb      	str	r3, [r7, #8]
 800333c:	68bb      	ldr	r3, [r7, #8]
      pwrclkchanged = SET;
 800333e:	2301      	movs	r3, #1
 8003340:	75fb      	strb	r3, [r7, #23]
    }

    if(HAL_IS_BIT_CLR(PWR->CR, PWR_CR_DBP))
 8003342:	4b79      	ldr	r3, [pc, #484]	; (8003528 <HAL_RCC_OscConfig+0x4b0>)
 8003344:	681b      	ldr	r3, [r3, #0]
 8003346:	f403 7380 	and.w	r3, r3, #256	; 0x100
 800334a:	2b00      	cmp	r3, #0
 800334c:	d118      	bne.n	8003380 <HAL_RCC_OscConfig+0x308>
    {
      /* Enable write access to Backup domain */
      SET_BIT(PWR->CR, PWR_CR_DBP);
 800334e:	4b76      	ldr	r3, [pc, #472]	; (8003528 <HAL_RCC_OscConfig+0x4b0>)
 8003350:	681b      	ldr	r3, [r3, #0]
 8003352:	4a75      	ldr	r2, [pc, #468]	; (8003528 <HAL_RCC_OscConfig+0x4b0>)
 8003354:	f443 7380 	orr.w	r3, r3, #256	; 0x100
 8003358:	6013      	str	r3, [r2, #0]

      /* Wait for Backup domain Write protection disable */
      tickstart = HAL_GetTick();
 800335a:	f7ff f8d1 	bl	8002500 <HAL_GetTick>
 800335e:	6138      	str	r0, [r7, #16]

      while(HAL_IS_BIT_CLR(PWR->CR, PWR_CR_DBP))
 8003360:	e008      	b.n	8003374 <HAL_RCC_OscConfig+0x2fc>
      {
        if((HAL_GetTick() - tickstart) > RCC_DBP_TIMEOUT_VALUE)
 8003362:	f7ff f8cd 	bl	8002500 <HAL_GetTick>
 8003366:	4602      	mov	r2, r0
 8003368:	693b      	ldr	r3, [r7, #16]
 800336a:	1ad3      	subs	r3, r2, r3
 800336c:	2b02      	cmp	r3, #2
 800336e:	d901      	bls.n	8003374 <HAL_RCC_OscConfig+0x2fc>
        {
          return HAL_TIMEOUT;
 8003370:	2303      	movs	r3, #3
 8003372:	e118      	b.n	80035a6 <HAL_RCC_OscConfig+0x52e>
      while(HAL_IS_BIT_CLR(PWR->CR, PWR_CR_DBP))
 8003374:	4b6c      	ldr	r3, [pc, #432]	; (8003528 <HAL_RCC_OscConfig+0x4b0>)
 8003376:	681b      	ldr	r3, [r3, #0]
 8003378:	f403 7380 	and.w	r3, r3, #256	; 0x100
 800337c:	2b00      	cmp	r3, #0
 800337e:	d0f0      	beq.n	8003362 <HAL_RCC_OscConfig+0x2ea>
        }
      }
    }

    /* Set the new LSE configuration -----------------------------------------*/
    __HAL_RCC_LSE_CONFIG(RCC_OscInitStruct->LSEState);
 8003380:	687b      	ldr	r3, [r7, #4]
 8003382:	689b      	ldr	r3, [r3, #8]
 8003384:	2b01      	cmp	r3, #1
 8003386:	d106      	bne.n	8003396 <HAL_RCC_OscConfig+0x31e>
 8003388:	4b66      	ldr	r3, [pc, #408]	; (8003524 <HAL_RCC_OscConfig+0x4ac>)
 800338a:	6f1b      	ldr	r3, [r3, #112]	; 0x70
 800338c:	4a65      	ldr	r2, [pc, #404]	; (8003524 <HAL_RCC_OscConfig+0x4ac>)
 800338e:	f043 0301 	orr.w	r3, r3, #1
 8003392:	6713      	str	r3, [r2, #112]	; 0x70
 8003394:	e01c      	b.n	80033d0 <HAL_RCC_OscConfig+0x358>
 8003396:	687b      	ldr	r3, [r7, #4]
 8003398:	689b      	ldr	r3, [r3, #8]
 800339a:	2b05      	cmp	r3, #5
 800339c:	d10c      	bne.n	80033b8 <HAL_RCC_OscConfig+0x340>
 800339e:	4b61      	ldr	r3, [pc, #388]	; (8003524 <HAL_RCC_OscConfig+0x4ac>)
 80033a0:	6f1b      	ldr	r3, [r3, #112]	; 0x70
 80033a2:	4a60      	ldr	r2, [pc, #384]	; (8003524 <HAL_RCC_OscConfig+0x4ac>)
 80033a4:	f043 0304 	orr.w	r3, r3, #4
 80033a8:	6713      	str	r3, [r2, #112]	; 0x70
 80033aa:	4b5e      	ldr	r3, [pc, #376]	; (8003524 <HAL_RCC_OscConfig+0x4ac>)
 80033ac:	6f1b      	ldr	r3, [r3, #112]	; 0x70
 80033ae:	4a5d      	ldr	r2, [pc, #372]	; (8003524 <HAL_RCC_OscConfig+0x4ac>)
 80033b0:	f043 0301 	orr.w	r3, r3, #1
 80033b4:	6713      	str	r3, [r2, #112]	; 0x70
 80033b6:	e00b      	b.n	80033d0 <HAL_RCC_OscConfig+0x358>
 80033b8:	4b5a      	ldr	r3, [pc, #360]	; (8003524 <HAL_RCC_OscConfig+0x4ac>)
 80033ba:	6f1b      	ldr	r3, [r3, #112]	; 0x70
 80033bc:	4a59      	ldr	r2, [pc, #356]	; (8003524 <HAL_RCC_OscConfig+0x4ac>)
 80033be:	f023 0301 	bic.w	r3, r3, #1
 80033c2:	6713      	str	r3, [r2, #112]	; 0x70
 80033c4:	4b57      	ldr	r3, [pc, #348]	; (8003524 <HAL_RCC_OscConfig+0x4ac>)
 80033c6:	6f1b      	ldr	r3, [r3, #112]	; 0x70
 80033c8:	4a56      	ldr	r2, [pc, #344]	; (8003524 <HAL_RCC_OscConfig+0x4ac>)
 80033ca:	f023 0304 	bic.w	r3, r3, #4
 80033ce:	6713      	str	r3, [r2, #112]	; 0x70
    /* Check the LSE State */
    if((RCC_OscInitStruct->LSEState) != RCC_LSE_OFF)
 80033d0:	687b      	ldr	r3, [r7, #4]
 80033d2:	689b      	ldr	r3, [r3, #8]
 80033d4:	2b00      	cmp	r3, #0
 80033d6:	d015      	beq.n	8003404 <HAL_RCC_OscConfig+0x38c>
    {
      /* Get Start Tick*/
      tickstart = HAL_GetTick();
 80033d8:	f7ff f892 	bl	8002500 <HAL_GetTick>
 80033dc:	6138      	str	r0, [r7, #16]

      /* Wait till LSE is ready */
      while(__HAL_RCC_GET_FLAG(RCC_FLAG_LSERDY) == RESET)
 80033de:	e00a      	b.n	80033f6 <HAL_RCC_OscConfig+0x37e>
      {
        if((HAL_GetTick() - tickstart ) > RCC_LSE_TIMEOUT_VALUE)
 80033e0:	f7ff f88e 	bl	8002500 <HAL_GetTick>
 80033e4:	4602      	mov	r2, r0
 80033e6:	693b      	ldr	r3, [r7, #16]
 80033e8:	1ad3      	subs	r3, r2, r3
 80033ea:	f241 3288 	movw	r2, #5000	; 0x1388
 80033ee:	4293      	cmp	r3, r2
 80033f0:	d901      	bls.n	80033f6 <HAL_RCC_OscConfig+0x37e>
        {
          return HAL_TIMEOUT;
 80033f2:	2303      	movs	r3, #3
 80033f4:	e0d7      	b.n	80035a6 <HAL_RCC_OscConfig+0x52e>
      while(__HAL_RCC_GET_FLAG(RCC_FLAG_LSERDY) == RESET)
 80033f6:	4b4b      	ldr	r3, [pc, #300]	; (8003524 <HAL_RCC_OscConfig+0x4ac>)
 80033f8:	6f1b      	ldr	r3, [r3, #112]	; 0x70
 80033fa:	f003 0302 	and.w	r3, r3, #2
 80033fe:	2b00      	cmp	r3, #0
 8003400:	d0ee      	beq.n	80033e0 <HAL_RCC_OscConfig+0x368>
 8003402:	e014      	b.n	800342e <HAL_RCC_OscConfig+0x3b6>
      }
    }
    else
    {
      /* Get Start Tick*/
      tickstart = HAL_GetTick();
 8003404:	f7ff f87c 	bl	8002500 <HAL_GetTick>
 8003408:	6138      	str	r0, [r7, #16]

      /* Wait till LSE is ready */
      while(__HAL_RCC_GET_FLAG(RCC_FLAG_LSERDY) != RESET)
 800340a:	e00a      	b.n	8003422 <HAL_RCC_OscConfig+0x3aa>
      {
        if((HAL_GetTick() - tickstart ) > RCC_LSE_TIMEOUT_VALUE)
 800340c:	f7ff f878 	bl	8002500 <HAL_GetTick>
 8003410:	4602      	mov	r2, r0
 8003412:	693b      	ldr	r3, [r7, #16]
 8003414:	1ad3      	subs	r3, r2, r3
 8003416:	f241 3288 	movw	r2, #5000	; 0x1388
 800341a:	4293      	cmp	r3, r2
 800341c:	d901      	bls.n	8003422 <HAL_RCC_OscConfig+0x3aa>
        {
          return HAL_TIMEOUT;
 800341e:	2303      	movs	r3, #3
 8003420:	e0c1      	b.n	80035a6 <HAL_RCC_OscConfig+0x52e>
      while(__HAL_RCC_GET_FLAG(RCC_FLAG_LSERDY) != RESET)
 8003422:	4b40      	ldr	r3, [pc, #256]	; (8003524 <HAL_RCC_OscConfig+0x4ac>)
 8003424:	6f1b      	ldr	r3, [r3, #112]	; 0x70
 8003426:	f003 0302 	and.w	r3, r3, #2
 800342a:	2b00      	cmp	r3, #0
 800342c:	d1ee      	bne.n	800340c <HAL_RCC_OscConfig+0x394>
        }
      }
    }

    /* Restore clock configuration if changed */
    if(pwrclkchanged == SET)
 800342e:	7dfb      	ldrb	r3, [r7, #23]
 8003430:	2b01      	cmp	r3, #1
 8003432:	d105      	bne.n	8003440 <HAL_RCC_OscConfig+0x3c8>
    {
      __HAL_RCC_PWR_CLK_DISABLE();
 8003434:	4b3b      	ldr	r3, [pc, #236]	; (8003524 <HAL_RCC_OscConfig+0x4ac>)
 8003436:	6c1b      	ldr	r3, [r3, #64]	; 0x40
 8003438:	4a3a      	ldr	r2, [pc, #232]	; (8003524 <HAL_RCC_OscConfig+0x4ac>)
 800343a:	f023 5380 	bic.w	r3, r3, #268435456	; 0x10000000
 800343e:	6413      	str	r3, [r2, #64]	; 0x40
    }
  }
  /*-------------------------------- PLL Configuration -----------------------*/
  /* Check the parameters */
  assert_param(IS_RCC_PLL(RCC_OscInitStruct->PLL.PLLState));
  if ((RCC_OscInitStruct->PLL.PLLState) != RCC_PLL_NONE)
 8003440:	687b      	ldr	r3, [r7, #4]
 8003442:	699b      	ldr	r3, [r3, #24]
 8003444:	2b00      	cmp	r3, #0
 8003446:	f000 80ad 	beq.w	80035a4 <HAL_RCC_OscConfig+0x52c>
  {
    /* Check if the PLL is used as system clock or not */
    if(__HAL_RCC_GET_SYSCLK_SOURCE() != RCC_CFGR_SWS_PLL)
 800344a:	4b36      	ldr	r3, [pc, #216]	; (8003524 <HAL_RCC_OscConfig+0x4ac>)
 800344c:	689b      	ldr	r3, [r3, #8]
 800344e:	f003 030c 	and.w	r3, r3, #12
 8003452:	2b08      	cmp	r3, #8
 8003454:	d060      	beq.n	8003518 <HAL_RCC_OscConfig+0x4a0>
    {
      if((RCC_OscInitStruct->PLL.PLLState) == RCC_PLL_ON)
 8003456:	687b      	ldr	r3, [r7, #4]
 8003458:	699b      	ldr	r3, [r3, #24]
 800345a:	2b02      	cmp	r3, #2
 800345c:	d145      	bne.n	80034ea <HAL_RCC_OscConfig+0x472>
        assert_param(IS_RCC_PLLP_VALUE(RCC_OscInitStruct->PLL.PLLP));
        assert_param(IS_RCC_PLLQ_VALUE(RCC_OscInitStruct->PLL.PLLQ));
        assert_param(IS_RCC_PLLR_VALUE(RCC_OscInitStruct->PLL.PLLR));

        /* Disable the main PLL. */
        __HAL_RCC_PLL_DISABLE();
 800345e:	4b33      	ldr	r3, [pc, #204]	; (800352c <HAL_RCC_OscConfig+0x4b4>)
 8003460:	2200      	movs	r2, #0
 8003462:	601a      	str	r2, [r3, #0]

        /* Get Start Tick*/
        tickstart = HAL_GetTick();
 8003464:	f7ff f84c 	bl	8002500 <HAL_GetTick>
 8003468:	6138      	str	r0, [r7, #16]

        /* Wait till PLL is ready */
        while(__HAL_RCC_GET_FLAG(RCC_FLAG_PLLRDY) != RESET)
 800346a:	e008      	b.n	800347e <HAL_RCC_OscConfig+0x406>
        {
          if((HAL_GetTick() - tickstart ) > PLL_TIMEOUT_VALUE)
 800346c:	f7ff f848 	bl	8002500 <HAL_GetTick>
 8003470:	4602      	mov	r2, r0
 8003472:	693b      	ldr	r3, [r7, #16]
 8003474:	1ad3      	subs	r3, r2, r3
 8003476:	2b02      	cmp	r3, #2
 8003478:	d901      	bls.n	800347e <HAL_RCC_OscConfig+0x406>
          {
            return HAL_TIMEOUT;
 800347a:	2303      	movs	r3, #3
 800347c:	e093      	b.n	80035a6 <HAL_RCC_OscConfig+0x52e>
        while(__HAL_RCC_GET_FLAG(RCC_FLAG_PLLRDY) != RESET)
 800347e:	4b29      	ldr	r3, [pc, #164]	; (8003524 <HAL_RCC_OscConfig+0x4ac>)
 8003480:	681b      	ldr	r3, [r3, #0]
 8003482:	f003 7300 	and.w	r3, r3, #33554432	; 0x2000000
 8003486:	2b00      	cmp	r3, #0
 8003488:	d1f0      	bne.n	800346c <HAL_RCC_OscConfig+0x3f4>
          }
        }

        /* Configure the main PLL clock source, multiplication and division factors. */
        WRITE_REG(RCC->PLLCFGR, (RCC_OscInitStruct->PLL.PLLSource                                            | \
 800348a:	687b      	ldr	r3, [r7, #4]
 800348c:	69da      	ldr	r2, [r3, #28]
 800348e:	687b      	ldr	r3, [r7, #4]
 8003490:	6a1b      	ldr	r3, [r3, #32]
 8003492:	431a      	orrs	r2, r3
 8003494:	687b      	ldr	r3, [r7, #4]
 8003496:	6a5b      	ldr	r3, [r3, #36]	; 0x24
 8003498:	019b      	lsls	r3, r3, #6
 800349a:	431a      	orrs	r2, r3
 800349c:	687b      	ldr	r3, [r7, #4]
 800349e:	6a9b      	ldr	r3, [r3, #40]	; 0x28
 80034a0:	085b      	lsrs	r3, r3, #1
 80034a2:	3b01      	subs	r3, #1
 80034a4:	041b      	lsls	r3, r3, #16
 80034a6:	431a      	orrs	r2, r3
 80034a8:	687b      	ldr	r3, [r7, #4]
 80034aa:	6adb      	ldr	r3, [r3, #44]	; 0x2c
 80034ac:	061b      	lsls	r3, r3, #24
 80034ae:	431a      	orrs	r2, r3
 80034b0:	687b      	ldr	r3, [r7, #4]
 80034b2:	6b1b      	ldr	r3, [r3, #48]	; 0x30
 80034b4:	071b      	lsls	r3, r3, #28
 80034b6:	491b      	ldr	r1, [pc, #108]	; (8003524 <HAL_RCC_OscConfig+0x4ac>)
 80034b8:	4313      	orrs	r3, r2
 80034ba:	604b      	str	r3, [r1, #4]
                                 (RCC_OscInitStruct->PLL.PLLN << RCC_PLLCFGR_PLLN_Pos)                       | \
                                 (((RCC_OscInitStruct->PLL.PLLP >> 1U) - 1U) << RCC_PLLCFGR_PLLP_Pos)        | \
                                 (RCC_OscInitStruct->PLL.PLLQ << RCC_PLLCFGR_PLLQ_Pos)                       | \
                                 (RCC_OscInitStruct->PLL.PLLR << RCC_PLLCFGR_PLLR_Pos)));
        /* Enable the main PLL. */
        __HAL_RCC_PLL_ENABLE();
 80034bc:	4b1b      	ldr	r3, [pc, #108]	; (800352c <HAL_RCC_OscConfig+0x4b4>)
 80034be:	2201      	movs	r2, #1
 80034c0:	601a      	str	r2, [r3, #0]

        /* Get Start Tick*/
        tickstart = HAL_GetTick();
 80034c2:	f7ff f81d 	bl	8002500 <HAL_GetTick>
 80034c6:	6138      	str	r0, [r7, #16]

        /* Wait till PLL is ready */
        while(__HAL_RCC_GET_FLAG(RCC_FLAG_PLLRDY) == RESET)
 80034c8:	e008      	b.n	80034dc <HAL_RCC_OscConfig+0x464>
        {
          if((HAL_GetTick() - tickstart ) > PLL_TIMEOUT_VALUE)
 80034ca:	f7ff f819 	bl	8002500 <HAL_GetTick>
 80034ce:	4602      	mov	r2, r0
 80034d0:	693b      	ldr	r3, [r7, #16]
 80034d2:	1ad3      	subs	r3, r2, r3
 80034d4:	2b02      	cmp	r3, #2
 80034d6:	d901      	bls.n	80034dc <HAL_RCC_OscConfig+0x464>
          {
            return HAL_TIMEOUT;
 80034d8:	2303      	movs	r3, #3
 80034da:	e064      	b.n	80035a6 <HAL_RCC_OscConfig+0x52e>
        while(__HAL_RCC_GET_FLAG(RCC_FLAG_PLLRDY) == RESET)
 80034dc:	4b11      	ldr	r3, [pc, #68]	; (8003524 <HAL_RCC_OscConfig+0x4ac>)
 80034de:	681b      	ldr	r3, [r3, #0]
 80034e0:	f003 7300 	and.w	r3, r3, #33554432	; 0x2000000
 80034e4:	2b00      	cmp	r3, #0
 80034e6:	d0f0      	beq.n	80034ca <HAL_RCC_OscConfig+0x452>
 80034e8:	e05c      	b.n	80035a4 <HAL_RCC_OscConfig+0x52c>
        }
      }
      else
      {
        /* Disable the main PLL. */
        __HAL_RCC_PLL_DISABLE();
 80034ea:	4b10      	ldr	r3, [pc, #64]	; (800352c <HAL_RCC_OscConfig+0x4b4>)
 80034ec:	2200      	movs	r2, #0
 80034ee:	601a      	str	r2, [r3, #0]

        /* Get Start Tick*/
        tickstart = HAL_GetTick();
 80034f0:	f7ff f806 	bl	8002500 <HAL_GetTick>
 80034f4:	6138      	str	r0, [r7, #16]

        /* Wait till PLL is ready */
        while(__HAL_RCC_GET_FLAG(RCC_FLAG_PLLRDY) != RESET)
 80034f6:	e008      	b.n	800350a <HAL_RCC_OscConfig+0x492>
        {
          if((HAL_GetTick() - tickstart ) > PLL_TIMEOUT_VALUE)
 80034f8:	f7ff f802 	bl	8002500 <HAL_GetTick>
 80034fc:	4602      	mov	r2, r0
 80034fe:	693b      	ldr	r3, [r7, #16]
 8003500:	1ad3      	subs	r3, r2, r3
 8003502:	2b02      	cmp	r3, #2
 8003504:	d901      	bls.n	800350a <HAL_RCC_OscConfig+0x492>
          {
            return HAL_TIMEOUT;
 8003506:	2303      	movs	r3, #3
 8003508:	e04d      	b.n	80035a6 <HAL_RCC_OscConfig+0x52e>
        while(__HAL_RCC_GET_FLAG(RCC_FLAG_PLLRDY) != RESET)
 800350a:	4b06      	ldr	r3, [pc, #24]	; (8003524 <HAL_RCC_OscConfig+0x4ac>)
 800350c:	681b      	ldr	r3, [r3, #0]
 800350e:	f003 7300 	and.w	r3, r3, #33554432	; 0x2000000
 8003512:	2b00      	cmp	r3, #0
 8003514:	d1f0      	bne.n	80034f8 <HAL_RCC_OscConfig+0x480>
 8003516:	e045      	b.n	80035a4 <HAL_RCC_OscConfig+0x52c>
      }
    }
    else
    {
      /* Check if there is a request to disable the PLL used as System clock source */
      if((RCC_OscInitStruct->PLL.PLLState) == RCC_PLL_OFF)
 8003518:	687b      	ldr	r3, [r7, #4]
 800351a:	699b      	ldr	r3, [r3, #24]
 800351c:	2b01      	cmp	r3, #1
 800351e:	d107      	bne.n	8003530 <HAL_RCC_OscConfig+0x4b8>
      {
        return HAL_ERROR;
 8003520:	2301      	movs	r3, #1
 8003522:	e040      	b.n	80035a6 <HAL_RCC_OscConfig+0x52e>
 8003524:	40023800 	.word	0x40023800
 8003528:	40007000 	.word	0x40007000
 800352c:	42470060 	.word	0x42470060
      }
      else
      {
        /* Do not return HAL_ERROR if request repeats the current configuration */
        pll_config = RCC->PLLCFGR;
 8003530:	4b1f      	ldr	r3, [pc, #124]	; (80035b0 <HAL_RCC_OscConfig+0x538>)
 8003532:	685b      	ldr	r3, [r3, #4]
 8003534:	60fb      	str	r3, [r7, #12]
#if defined (RCC_PLLCFGR_PLLR)
        if (((RCC_OscInitStruct->PLL.PLLState) == RCC_PLL_OFF) ||
 8003536:	687b      	ldr	r3, [r7, #4]
 8003538:	699b      	ldr	r3, [r3, #24]
 800353a:	2b01      	cmp	r3, #1
 800353c:	d030      	beq.n	80035a0 <HAL_RCC_OscConfig+0x528>
            (READ_BIT(pll_config, RCC_PLLCFGR_PLLSRC) != RCC_OscInitStruct->PLL.PLLSource) ||
 800353e:	68fb      	ldr	r3, [r7, #12]
 8003540:	f403 0280 	and.w	r2, r3, #4194304	; 0x400000
 8003544:	687b      	ldr	r3, [r7, #4]
 8003546:	69db      	ldr	r3, [r3, #28]
        if (((RCC_OscInitStruct->PLL.PLLState) == RCC_PLL_OFF) ||
 8003548:	429a      	cmp	r2, r3
 800354a:	d129      	bne.n	80035a0 <HAL_RCC_OscConfig+0x528>
            (READ_BIT(pll_config, RCC_PLLCFGR_PLLM) != (RCC_OscInitStruct->PLL.PLLM) << RCC_PLLCFGR_PLLM_Pos) ||
 800354c:	68fb      	ldr	r3, [r7, #12]
 800354e:	f003 023f 	and.w	r2, r3, #63	; 0x3f
 8003552:	687b      	ldr	r3, [r7, #4]
 8003554:	6a1b      	ldr	r3, [r3, #32]
            (READ_BIT(pll_config, RCC_PLLCFGR_PLLSRC) != RCC_OscInitStruct->PLL.PLLSource) ||
 8003556:	429a      	cmp	r2, r3
 8003558:	d122      	bne.n	80035a0 <HAL_RCC_OscConfig+0x528>
            (READ_BIT(pll_config, RCC_PLLCFGR_PLLN) != (RCC_OscInitStruct->PLL.PLLN) << RCC_PLLCFGR_PLLN_Pos) ||
 800355a:	68fa      	ldr	r2, [r7, #12]
 800355c:	f647 73c0 	movw	r3, #32704	; 0x7fc0
 8003560:	4013      	ands	r3, r2
 8003562:	687a      	ldr	r2, [r7, #4]
 8003564:	6a52      	ldr	r2, [r2, #36]	; 0x24
 8003566:	0192      	lsls	r2, r2, #6
            (READ_BIT(pll_config, RCC_PLLCFGR_PLLM) != (RCC_OscInitStruct->PLL.PLLM) << RCC_PLLCFGR_PLLM_Pos) ||
 8003568:	4293      	cmp	r3, r2
 800356a:	d119      	bne.n	80035a0 <HAL_RCC_OscConfig+0x528>
            (READ_BIT(pll_config, RCC_PLLCFGR_PLLP) != (((RCC_OscInitStruct->PLL.PLLP >> 1U) - 1U)) << RCC_PLLCFGR_PLLP_Pos) ||
 800356c:	68fb      	ldr	r3, [r7, #12]
 800356e:	f403 3240 	and.w	r2, r3, #196608	; 0x30000
 8003572:	687b      	ldr	r3, [r7, #4]
 8003574:	6a9b      	ldr	r3, [r3, #40]	; 0x28
 8003576:	085b      	lsrs	r3, r3, #1
 8003578:	3b01      	subs	r3, #1
 800357a:	041b      	lsls	r3, r3, #16
            (READ_BIT(pll_config, RCC_PLLCFGR_PLLN) != (RCC_OscInitStruct->PLL.PLLN) << RCC_PLLCFGR_PLLN_Pos) ||
 800357c:	429a      	cmp	r2, r3
 800357e:	d10f      	bne.n	80035a0 <HAL_RCC_OscConfig+0x528>
            (READ_BIT(pll_config, RCC_PLLCFGR_PLLQ) != (RCC_OscInitStruct->PLL.PLLQ << RCC_PLLCFGR_PLLQ_Pos)) ||
 8003580:	68fb      	ldr	r3, [r7, #12]
 8003582:	f003 6270 	and.w	r2, r3, #251658240	; 0xf000000
 8003586:	687b      	ldr	r3, [r7, #4]
 8003588:	6adb      	ldr	r3, [r3, #44]	; 0x2c
 800358a:	061b      	lsls	r3, r3, #24
            (READ_BIT(pll_config, RCC_PLLCFGR_PLLP) != (((RCC_OscInitStruct->PLL.PLLP >> 1U) - 1U)) << RCC_PLLCFGR_PLLP_Pos) ||
 800358c:	429a      	cmp	r2, r3
 800358e:	d107      	bne.n	80035a0 <HAL_RCC_OscConfig+0x528>
            (READ_BIT(pll_config, RCC_PLLCFGR_PLLR) != (RCC_OscInitStruct->PLL.PLLR << RCC_PLLCFGR_PLLR_Pos)))
 8003590:	68fb      	ldr	r3, [r7, #12]
 8003592:	f003 42e0 	and.w	r2, r3, #1879048192	; 0x70000000
 8003596:	687b      	ldr	r3, [r7, #4]
 8003598:	6b1b      	ldr	r3, [r3, #48]	; 0x30
 800359a:	071b      	lsls	r3, r3, #28
            (READ_BIT(pll_config, RCC_PLLCFGR_PLLQ) != (RCC_OscInitStruct->PLL.PLLQ << RCC_PLLCFGR_PLLQ_Pos)) ||
 800359c:	429a      	cmp	r2, r3
 800359e:	d001      	beq.n	80035a4 <HAL_RCC_OscConfig+0x52c>
            (READ_BIT(pll_config, RCC_PLLCFGR_PLLN) != (RCC_OscInitStruct->PLL.PLLN) << RCC_PLLCFGR_PLLN_Pos) ||
            (READ_BIT(pll_config, RCC_PLLCFGR_PLLP) != (((RCC_OscInitStruct->PLL.PLLP >> 1U) - 1U)) << RCC_PLLCFGR_PLLP_Pos) ||
            (READ_BIT(pll_config, RCC_PLLCFGR_PLLQ) != (RCC_OscInitStruct->PLL.PLLQ << RCC_PLLCFGR_PLLQ_Pos)))
#endif
        {
          return HAL_ERROR;
 80035a0:	2301      	movs	r3, #1
 80035a2:	e000      	b.n	80035a6 <HAL_RCC_OscConfig+0x52e>
        }
      }
    }
  }
  return HAL_OK;
 80035a4:	2300      	movs	r3, #0
}
 80035a6:	4618      	mov	r0, r3
 80035a8:	3718      	adds	r7, #24
 80035aa:	46bd      	mov	sp, r7
 80035ac:	bd80      	pop	{r7, pc}
 80035ae:	bf00      	nop
 80035b0:	40023800 	.word	0x40023800

080035b4 <HAL_TIM_Base_Init>:
  *         Ex: call @ref HAL_TIM_Base_DeInit() before HAL_TIM_Base_Init()
  * @param  htim TIM Base handle
  * @retval HAL status
  */
HAL_StatusTypeDef HAL_TIM_Base_Init(TIM_HandleTypeDef *htim)
{
 80035b4:	b580      	push	{r7, lr}
 80035b6:	b082      	sub	sp, #8
 80035b8:	af00      	add	r7, sp, #0
 80035ba:	6078      	str	r0, [r7, #4]
  /* Check the TIM handle allocation */
  if (htim == NULL)
 80035bc:	687b      	ldr	r3, [r7, #4]
 80035be:	2b00      	cmp	r3, #0
 80035c0:	d101      	bne.n	80035c6 <HAL_TIM_Base_Init+0x12>
  {
    return HAL_ERROR;
 80035c2:	2301      	movs	r3, #1
 80035c4:	e041      	b.n	800364a <HAL_TIM_Base_Init+0x96>
  assert_param(IS_TIM_INSTANCE(htim->Instance));
  assert_param(IS_TIM_COUNTER_MODE(htim->Init.CounterMode));
  assert_param(IS_TIM_CLOCKDIVISION_DIV(htim->Init.ClockDivision));
  assert_param(IS_TIM_AUTORELOAD_PRELOAD(htim->Init.AutoReloadPreload));

  if (htim->State == HAL_TIM_STATE_RESET)
 80035c6:	687b      	ldr	r3, [r7, #4]
 80035c8:	f893 303d 	ldrb.w	r3, [r3, #61]	; 0x3d
 80035cc:	b2db      	uxtb	r3, r3
 80035ce:	2b00      	cmp	r3, #0
 80035d0:	d106      	bne.n	80035e0 <HAL_TIM_Base_Init+0x2c>
  {
    /* Allocate lock resource and initialize it */
    htim->Lock = HAL_UNLOCKED;
 80035d2:	687b      	ldr	r3, [r7, #4]
 80035d4:	2200      	movs	r2, #0
 80035d6:	f883 203c 	strb.w	r2, [r3, #60]	; 0x3c
    }
    /* Init the low level hardware : GPIO, CLOCK, NVIC */
    htim->Base_MspInitCallback(htim);
#else
    /* Init the low level hardware : GPIO, CLOCK, NVIC */
    HAL_TIM_Base_MspInit(htim);
 80035da:	6878      	ldr	r0, [r7, #4]
 80035dc:	f7fe fbac 	bl	8001d38 <HAL_TIM_Base_MspInit>
#endif /* USE_HAL_TIM_REGISTER_CALLBACKS */
  }

  /* Set the TIM state */
  htim->State = HAL_TIM_STATE_BUSY;
 80035e0:	687b      	ldr	r3, [r7, #4]
 80035e2:	2202      	movs	r2, #2
 80035e4:	f883 203d 	strb.w	r2, [r3, #61]	; 0x3d

  /* Set the Time Base configuration */
  TIM_Base_SetConfig(htim->Instance, &htim->Init);
 80035e8:	687b      	ldr	r3, [r7, #4]
 80035ea:	681a      	ldr	r2, [r3, #0]
 80035ec:	687b      	ldr	r3, [r7, #4]
 80035ee:	3304      	adds	r3, #4
 80035f0:	4619      	mov	r1, r3
 80035f2:	4610      	mov	r0, r2
 80035f4:	f000 fec8 	bl	8004388 <TIM_Base_SetConfig>

  /* Initialize the DMA burst operation state */
  htim->DMABurstState = HAL_DMA_BURST_STATE_READY;
 80035f8:	687b      	ldr	r3, [r7, #4]
 80035fa:	2201      	movs	r2, #1
 80035fc:	f883 2046 	strb.w	r2, [r3, #70]	; 0x46

  /* Initialize the TIM channels state */
  TIM_CHANNEL_STATE_SET_ALL(htim, HAL_TIM_CHANNEL_STATE_READY);
 8003600:	687b      	ldr	r3, [r7, #4]
 8003602:	2201      	movs	r2, #1
 8003604:	f883 203e 	strb.w	r2, [r3, #62]	; 0x3e
 8003608:	687b      	ldr	r3, [r7, #4]
 800360a:	2201      	movs	r2, #1
 800360c:	f883 203f 	strb.w	r2, [r3, #63]	; 0x3f
 8003610:	687b      	ldr	r3, [r7, #4]
 8003612:	2201      	movs	r2, #1
 8003614:	f883 2040 	strb.w	r2, [r3, #64]	; 0x40
 8003618:	687b      	ldr	r3, [r7, #4]
 800361a:	2201      	movs	r2, #1
 800361c:	f883 2041 	strb.w	r2, [r3, #65]	; 0x41
  TIM_CHANNEL_N_STATE_SET_ALL(htim, HAL_TIM_CHANNEL_STATE_READY);
 8003620:	687b      	ldr	r3, [r7, #4]
 8003622:	2201      	movs	r2, #1
 8003624:	f883 2042 	strb.w	r2, [r3, #66]	; 0x42
 8003628:	687b      	ldr	r3, [r7, #4]
 800362a:	2201      	movs	r2, #1
 800362c:	f883 2043 	strb.w	r2, [r3, #67]	; 0x43
 8003630:	687b      	ldr	r3, [r7, #4]
 8003632:	2201      	movs	r2, #1
 8003634:	f883 2044 	strb.w	r2, [r3, #68]	; 0x44
 8003638:	687b      	ldr	r3, [r7, #4]
 800363a:	2201      	movs	r2, #1
 800363c:	f883 2045 	strb.w	r2, [r3, #69]	; 0x45

  /* Initialize the TIM state*/
  htim->State = HAL_TIM_STATE_READY;
 8003640:	687b      	ldr	r3, [r7, #4]
 8003642:	2201      	movs	r2, #1
 8003644:	f883 203d 	strb.w	r2, [r3, #61]	; 0x3d

  return HAL_OK;
 8003648:	2300      	movs	r3, #0
}
 800364a:	4618      	mov	r0, r3
 800364c:	3708      	adds	r7, #8
 800364e:	46bd      	mov	sp, r7
 8003650:	bd80      	pop	{r7, pc}
	...

08003654 <HAL_TIM_Base_Start_IT>:
  * @brief  Starts the TIM Base generation in interrupt mode.
  * @param  htim TIM Base handle
  * @retval HAL status
  */
HAL_StatusTypeDef HAL_TIM_Base_Start_IT(TIM_HandleTypeDef *htim)
{
 8003654:	b480      	push	{r7}
 8003656:	b085      	sub	sp, #20
 8003658:	af00      	add	r7, sp, #0
 800365a:	6078      	str	r0, [r7, #4]

  /* Check the parameters */
  assert_param(IS_TIM_INSTANCE(htim->Instance));

  /* Check the TIM state */
  if (htim->State != HAL_TIM_STATE_READY)
 800365c:	687b      	ldr	r3, [r7, #4]
 800365e:	f893 303d 	ldrb.w	r3, [r3, #61]	; 0x3d
 8003662:	b2db      	uxtb	r3, r3
 8003664:	2b01      	cmp	r3, #1
 8003666:	d001      	beq.n	800366c <HAL_TIM_Base_Start_IT+0x18>
  {
    return HAL_ERROR;
 8003668:	2301      	movs	r3, #1
 800366a:	e04e      	b.n	800370a <HAL_TIM_Base_Start_IT+0xb6>
  }

  /* Set the TIM state */
  htim->State = HAL_TIM_STATE_BUSY;
 800366c:	687b      	ldr	r3, [r7, #4]
 800366e:	2202      	movs	r2, #2
 8003670:	f883 203d 	strb.w	r2, [r3, #61]	; 0x3d

  /* Enable the TIM Update interrupt */
  __HAL_TIM_ENABLE_IT(htim, TIM_IT_UPDATE);
 8003674:	687b      	ldr	r3, [r7, #4]
 8003676:	681b      	ldr	r3, [r3, #0]
 8003678:	68da      	ldr	r2, [r3, #12]
 800367a:	687b      	ldr	r3, [r7, #4]
 800367c:	681b      	ldr	r3, [r3, #0]
 800367e:	f042 0201 	orr.w	r2, r2, #1
 8003682:	60da      	str	r2, [r3, #12]

  /* Enable the Peripheral, except in trigger mode where enable is automatically done with trigger */
  if (IS_TIM_SLAVE_INSTANCE(htim->Instance))
 8003684:	687b      	ldr	r3, [r7, #4]
 8003686:	681b      	ldr	r3, [r3, #0]
 8003688:	4a23      	ldr	r2, [pc, #140]	; (8003718 <HAL_TIM_Base_Start_IT+0xc4>)
 800368a:	4293      	cmp	r3, r2
 800368c:	d022      	beq.n	80036d4 <HAL_TIM_Base_Start_IT+0x80>
 800368e:	687b      	ldr	r3, [r7, #4]
 8003690:	681b      	ldr	r3, [r3, #0]
 8003692:	f1b3 4f80 	cmp.w	r3, #1073741824	; 0x40000000
 8003696:	d01d      	beq.n	80036d4 <HAL_TIM_Base_Start_IT+0x80>
 8003698:	687b      	ldr	r3, [r7, #4]
 800369a:	681b      	ldr	r3, [r3, #0]
 800369c:	4a1f      	ldr	r2, [pc, #124]	; (800371c <HAL_TIM_Base_Start_IT+0xc8>)
 800369e:	4293      	cmp	r3, r2
 80036a0:	d018      	beq.n	80036d4 <HAL_TIM_Base_Start_IT+0x80>
 80036a2:	687b      	ldr	r3, [r7, #4]
 80036a4:	681b      	ldr	r3, [r3, #0]
 80036a6:	4a1e      	ldr	r2, [pc, #120]	; (8003720 <HAL_TIM_Base_Start_IT+0xcc>)
 80036a8:	4293      	cmp	r3, r2
 80036aa:	d013      	beq.n	80036d4 <HAL_TIM_Base_Start_IT+0x80>
 80036ac:	687b      	ldr	r3, [r7, #4]
 80036ae:	681b      	ldr	r3, [r3, #0]
 80036b0:	4a1c      	ldr	r2, [pc, #112]	; (8003724 <HAL_TIM_Base_Start_IT+0xd0>)
 80036b2:	4293      	cmp	r3, r2
 80036b4:	d00e      	beq.n	80036d4 <HAL_TIM_Base_Start_IT+0x80>
 80036b6:	687b      	ldr	r3, [r7, #4]
 80036b8:	681b      	ldr	r3, [r3, #0]
 80036ba:	4a1b      	ldr	r2, [pc, #108]	; (8003728 <HAL_TIM_Base_Start_IT+0xd4>)
 80036bc:	4293      	cmp	r3, r2
 80036be:	d009      	beq.n	80036d4 <HAL_TIM_Base_Start_IT+0x80>
 80036c0:	687b      	ldr	r3, [r7, #4]
 80036c2:	681b      	ldr	r3, [r3, #0]
 80036c4:	4a19      	ldr	r2, [pc, #100]	; (800372c <HAL_TIM_Base_Start_IT+0xd8>)
 80036c6:	4293      	cmp	r3, r2
 80036c8:	d004      	beq.n	80036d4 <HAL_TIM_Base_Start_IT+0x80>
 80036ca:	687b      	ldr	r3, [r7, #4]
 80036cc:	681b      	ldr	r3, [r3, #0]
 80036ce:	4a18      	ldr	r2, [pc, #96]	; (8003730 <HAL_TIM_Base_Start_IT+0xdc>)
 80036d0:	4293      	cmp	r3, r2
 80036d2:	d111      	bne.n	80036f8 <HAL_TIM_Base_Start_IT+0xa4>
  {
    tmpsmcr = htim->Instance->SMCR & TIM_SMCR_SMS;
 80036d4:	687b      	ldr	r3, [r7, #4]
 80036d6:	681b      	ldr	r3, [r3, #0]
 80036d8:	689b      	ldr	r3, [r3, #8]
 80036da:	f003 0307 	and.w	r3, r3, #7
 80036de:	60fb      	str	r3, [r7, #12]
    if (!IS_TIM_SLAVEMODE_TRIGGER_ENABLED(tmpsmcr))
 80036e0:	68fb      	ldr	r3, [r7, #12]
 80036e2:	2b06      	cmp	r3, #6
 80036e4:	d010      	beq.n	8003708 <HAL_TIM_Base_Start_IT+0xb4>
    {
      __HAL_TIM_ENABLE(htim);
 80036e6:	687b      	ldr	r3, [r7, #4]
 80036e8:	681b      	ldr	r3, [r3, #0]
 80036ea:	681a      	ldr	r2, [r3, #0]
 80036ec:	687b      	ldr	r3, [r7, #4]
 80036ee:	681b      	ldr	r3, [r3, #0]
 80036f0:	f042 0201 	orr.w	r2, r2, #1
 80036f4:	601a      	str	r2, [r3, #0]
    if (!IS_TIM_SLAVEMODE_TRIGGER_ENABLED(tmpsmcr))
 80036f6:	e007      	b.n	8003708 <HAL_TIM_Base_Start_IT+0xb4>
    }
  }
  else
  {
    __HAL_TIM_ENABLE(htim);
 80036f8:	687b      	ldr	r3, [r7, #4]
 80036fa:	681b      	ldr	r3, [r3, #0]
 80036fc:	681a      	ldr	r2, [r3, #0]
 80036fe:	687b      	ldr	r3, [r7, #4]
 8003700:	681b      	ldr	r3, [r3, #0]
 8003702:	f042 0201 	orr.w	r2, r2, #1
 8003706:	601a      	str	r2, [r3, #0]
  }

  /* Return function status */
  return HAL_OK;
 8003708:	2300      	movs	r3, #0
}
 800370a:	4618      	mov	r0, r3
 800370c:	3714      	adds	r7, #20
 800370e:	46bd      	mov	sp, r7
 8003710:	f85d 7b04 	ldr.w	r7, [sp], #4
 8003714:	4770      	bx	lr
 8003716:	bf00      	nop
 8003718:	40010000 	.word	0x40010000
 800371c:	40000400 	.word	0x40000400
 8003720:	40000800 	.word	0x40000800
 8003724:	40000c00 	.word	0x40000c00
 8003728:	40010400 	.word	0x40010400
 800372c:	40014000 	.word	0x40014000
 8003730:	40001800 	.word	0x40001800

08003734 <HAL_TIM_PWM_Init>:
  *         Ex: call @ref HAL_TIM_PWM_DeInit() before HAL_TIM_PWM_Init()
  * @param  htim TIM PWM handle
  * @retval HAL status
  */
HAL_StatusTypeDef HAL_TIM_PWM_Init(TIM_HandleTypeDef *htim)
{
 8003734:	b580      	push	{r7, lr}
 8003736:	b082      	sub	sp, #8
 8003738:	af00      	add	r7, sp, #0
 800373a:	6078      	str	r0, [r7, #4]
  /* Check the TIM handle allocation */
  if (htim == NULL)
 800373c:	687b      	ldr	r3, [r7, #4]
 800373e:	2b00      	cmp	r3, #0
 8003740:	d101      	bne.n	8003746 <HAL_TIM_PWM_Init+0x12>
  {
    return HAL_ERROR;
 8003742:	2301      	movs	r3, #1
 8003744:	e041      	b.n	80037ca <HAL_TIM_PWM_Init+0x96>
  assert_param(IS_TIM_INSTANCE(htim->Instance));
  assert_param(IS_TIM_COUNTER_MODE(htim->Init.CounterMode));
  assert_param(IS_TIM_CLOCKDIVISION_DIV(htim->Init.ClockDivision));
  assert_param(IS_TIM_AUTORELOAD_PRELOAD(htim->Init.AutoReloadPreload));

  if (htim->State == HAL_TIM_STATE_RESET)
 8003746:	687b      	ldr	r3, [r7, #4]
 8003748:	f893 303d 	ldrb.w	r3, [r3, #61]	; 0x3d
 800374c:	b2db      	uxtb	r3, r3
 800374e:	2b00      	cmp	r3, #0
 8003750:	d106      	bne.n	8003760 <HAL_TIM_PWM_Init+0x2c>
  {
    /* Allocate lock resource and initialize it */
    htim->Lock = HAL_UNLOCKED;
 8003752:	687b      	ldr	r3, [r7, #4]
 8003754:	2200      	movs	r2, #0
 8003756:	f883 203c 	strb.w	r2, [r3, #60]	; 0x3c
    }
    /* Init the low level hardware : GPIO, CLOCK, NVIC */
    htim->PWM_MspInitCallback(htim);
#else
    /* Init the low level hardware : GPIO, CLOCK, NVIC and DMA */
    HAL_TIM_PWM_MspInit(htim);
 800375a:	6878      	ldr	r0, [r7, #4]
 800375c:	f7fe fbca 	bl	8001ef4 <HAL_TIM_PWM_MspInit>
#endif /* USE_HAL_TIM_REGISTER_CALLBACKS */
  }

  /* Set the TIM state */
  htim->State = HAL_TIM_STATE_BUSY;
 8003760:	687b      	ldr	r3, [r7, #4]
 8003762:	2202      	movs	r2, #2
 8003764:	f883 203d 	strb.w	r2, [r3, #61]	; 0x3d

  /* Init the base time for the PWM */
  TIM_Base_SetConfig(htim->Instance, &htim->Init);
 8003768:	687b      	ldr	r3, [r7, #4]
 800376a:	681a      	ldr	r2, [r3, #0]
 800376c:	687b      	ldr	r3, [r7, #4]
 800376e:	3304      	adds	r3, #4
 8003770:	4619      	mov	r1, r3
 8003772:	4610      	mov	r0, r2
 8003774:	f000 fe08 	bl	8004388 <TIM_Base_SetConfig>

  /* Initialize the DMA burst operation state */
  htim->DMABurstState = HAL_DMA_BURST_STATE_READY;
 8003778:	687b      	ldr	r3, [r7, #4]
 800377a:	2201      	movs	r2, #1
 800377c:	f883 2046 	strb.w	r2, [r3, #70]	; 0x46

  /* Initialize the TIM channels state */
  TIM_CHANNEL_STATE_SET_ALL(htim, HAL_TIM_CHANNEL_STATE_READY);
 8003780:	687b      	ldr	r3, [r7, #4]
 8003782:	2201      	movs	r2, #1
 8003784:	f883 203e 	strb.w	r2, [r3, #62]	; 0x3e
 8003788:	687b      	ldr	r3, [r7, #4]
 800378a:	2201      	movs	r2, #1
 800378c:	f883 203f 	strb.w	r2, [r3, #63]	; 0x3f
 8003790:	687b      	ldr	r3, [r7, #4]
 8003792:	2201      	movs	r2, #1
 8003794:	f883 2040 	strb.w	r2, [r3, #64]	; 0x40
 8003798:	687b      	ldr	r3, [r7, #4]
 800379a:	2201      	movs	r2, #1
 800379c:	f883 2041 	strb.w	r2, [r3, #65]	; 0x41
  TIM_CHANNEL_N_STATE_SET_ALL(htim, HAL_TIM_CHANNEL_STATE_READY);
 80037a0:	687b      	ldr	r3, [r7, #4]
 80037a2:	2201      	movs	r2, #1
 80037a4:	f883 2042 	strb.w	r2, [r3, #66]	; 0x42
 80037a8:	687b      	ldr	r3, [r7, #4]
 80037aa:	2201      	movs	r2, #1
 80037ac:	f883 2043 	strb.w	r2, [r3, #67]	; 0x43
 80037b0:	687b      	ldr	r3, [r7, #4]
 80037b2:	2201      	movs	r2, #1
 80037b4:	f883 2044 	strb.w	r2, [r3, #68]	; 0x44
 80037b8:	687b      	ldr	r3, [r7, #4]
 80037ba:	2201      	movs	r2, #1
 80037bc:	f883 2045 	strb.w	r2, [r3, #69]	; 0x45

  /* Initialize the TIM state*/
  htim->State = HAL_TIM_STATE_READY;
 80037c0:	687b      	ldr	r3, [r7, #4]
 80037c2:	2201      	movs	r2, #1
 80037c4:	f883 203d 	strb.w	r2, [r3, #61]	; 0x3d

  return HAL_OK;
 80037c8:	2300      	movs	r3, #0
}
 80037ca:	4618      	mov	r0, r3
 80037cc:	3708      	adds	r7, #8
 80037ce:	46bd      	mov	sp, r7
 80037d0:	bd80      	pop	{r7, pc}
	...

080037d4 <HAL_TIM_PWM_Start>:
  *            @arg TIM_CHANNEL_3: TIM Channel 3 selected
  *            @arg TIM_CHANNEL_4: TIM Channel 4 selected
  * @retval HAL status
  */
HAL_StatusTypeDef HAL_TIM_PWM_Start(TIM_HandleTypeDef *htim, uint32_t Channel)
{
 80037d4:	b580      	push	{r7, lr}
 80037d6:	b084      	sub	sp, #16
 80037d8:	af00      	add	r7, sp, #0
 80037da:	6078      	str	r0, [r7, #4]
 80037dc:	6039      	str	r1, [r7, #0]

  /* Check the parameters */
  assert_param(IS_TIM_CCX_INSTANCE(htim->Instance, Channel));

  /* Check the TIM channel state */
  if (TIM_CHANNEL_STATE_GET(htim, Channel) != HAL_TIM_CHANNEL_STATE_READY)
 80037de:	683b      	ldr	r3, [r7, #0]
 80037e0:	2b00      	cmp	r3, #0
 80037e2:	d109      	bne.n	80037f8 <HAL_TIM_PWM_Start+0x24>
 80037e4:	687b      	ldr	r3, [r7, #4]
 80037e6:	f893 303e 	ldrb.w	r3, [r3, #62]	; 0x3e
 80037ea:	b2db      	uxtb	r3, r3
 80037ec:	2b01      	cmp	r3, #1
 80037ee:	bf14      	ite	ne
 80037f0:	2301      	movne	r3, #1
 80037f2:	2300      	moveq	r3, #0
 80037f4:	b2db      	uxtb	r3, r3
 80037f6:	e022      	b.n	800383e <HAL_TIM_PWM_Start+0x6a>
 80037f8:	683b      	ldr	r3, [r7, #0]
 80037fa:	2b04      	cmp	r3, #4
 80037fc:	d109      	bne.n	8003812 <HAL_TIM_PWM_Start+0x3e>
 80037fe:	687b      	ldr	r3, [r7, #4]
 8003800:	f893 303f 	ldrb.w	r3, [r3, #63]	; 0x3f
 8003804:	b2db      	uxtb	r3, r3
 8003806:	2b01      	cmp	r3, #1
 8003808:	bf14      	ite	ne
 800380a:	2301      	movne	r3, #1
 800380c:	2300      	moveq	r3, #0
 800380e:	b2db      	uxtb	r3, r3
 8003810:	e015      	b.n	800383e <HAL_TIM_PWM_Start+0x6a>
 8003812:	683b      	ldr	r3, [r7, #0]
 8003814:	2b08      	cmp	r3, #8
 8003816:	d109      	bne.n	800382c <HAL_TIM_PWM_Start+0x58>
 8003818:	687b      	ldr	r3, [r7, #4]
 800381a:	f893 3040 	ldrb.w	r3, [r3, #64]	; 0x40
 800381e:	b2db      	uxtb	r3, r3
 8003820:	2b01      	cmp	r3, #1
 8003822:	bf14      	ite	ne
 8003824:	2301      	movne	r3, #1
 8003826:	2300      	moveq	r3, #0
 8003828:	b2db      	uxtb	r3, r3
 800382a:	e008      	b.n	800383e <HAL_TIM_PWM_Start+0x6a>
 800382c:	687b      	ldr	r3, [r7, #4]
 800382e:	f893 3041 	ldrb.w	r3, [r3, #65]	; 0x41
 8003832:	b2db      	uxtb	r3, r3
 8003834:	2b01      	cmp	r3, #1
 8003836:	bf14      	ite	ne
 8003838:	2301      	movne	r3, #1
 800383a:	2300      	moveq	r3, #0
 800383c:	b2db      	uxtb	r3, r3
 800383e:	2b00      	cmp	r3, #0
 8003840:	d001      	beq.n	8003846 <HAL_TIM_PWM_Start+0x72>
  {
    return HAL_ERROR;
 8003842:	2301      	movs	r3, #1
 8003844:	e07c      	b.n	8003940 <HAL_TIM_PWM_Start+0x16c>
  }

  /* Set the TIM channel state */
  TIM_CHANNEL_STATE_SET(htim, Channel, HAL_TIM_CHANNEL_STATE_BUSY);
 8003846:	683b      	ldr	r3, [r7, #0]
 8003848:	2b00      	cmp	r3, #0
 800384a:	d104      	bne.n	8003856 <HAL_TIM_PWM_Start+0x82>
 800384c:	687b      	ldr	r3, [r7, #4]
 800384e:	2202      	movs	r2, #2
 8003850:	f883 203e 	strb.w	r2, [r3, #62]	; 0x3e
 8003854:	e013      	b.n	800387e <HAL_TIM_PWM_Start+0xaa>
 8003856:	683b      	ldr	r3, [r7, #0]
 8003858:	2b04      	cmp	r3, #4
 800385a:	d104      	bne.n	8003866 <HAL_TIM_PWM_Start+0x92>
 800385c:	687b      	ldr	r3, [r7, #4]
 800385e:	2202      	movs	r2, #2
 8003860:	f883 203f 	strb.w	r2, [r3, #63]	; 0x3f
 8003864:	e00b      	b.n	800387e <HAL_TIM_PWM_Start+0xaa>
 8003866:	683b      	ldr	r3, [r7, #0]
 8003868:	2b08      	cmp	r3, #8
 800386a:	d104      	bne.n	8003876 <HAL_TIM_PWM_Start+0xa2>
 800386c:	687b      	ldr	r3, [r7, #4]
 800386e:	2202      	movs	r2, #2
 8003870:	f883 2040 	strb.w	r2, [r3, #64]	; 0x40
 8003874:	e003      	b.n	800387e <HAL_TIM_PWM_Start+0xaa>
 8003876:	687b      	ldr	r3, [r7, #4]
 8003878:	2202      	movs	r2, #2
 800387a:	f883 2041 	strb.w	r2, [r3, #65]	; 0x41

  /* Enable the Capture compare channel */
  TIM_CCxChannelCmd(htim->Instance, Channel, TIM_CCx_ENABLE);
 800387e:	687b      	ldr	r3, [r7, #4]
 8003880:	681b      	ldr	r3, [r3, #0]
 8003882:	2201      	movs	r2, #1
 8003884:	6839      	ldr	r1, [r7, #0]
 8003886:	4618      	mov	r0, r3
 8003888:	f001 f992 	bl	8004bb0 <TIM_CCxChannelCmd>

  if (IS_TIM_BREAK_INSTANCE(htim->Instance) != RESET)
 800388c:	687b      	ldr	r3, [r7, #4]
 800388e:	681b      	ldr	r3, [r3, #0]
 8003890:	4a2d      	ldr	r2, [pc, #180]	; (8003948 <HAL_TIM_PWM_Start+0x174>)
 8003892:	4293      	cmp	r3, r2
 8003894:	d004      	beq.n	80038a0 <HAL_TIM_PWM_Start+0xcc>
 8003896:	687b      	ldr	r3, [r7, #4]
 8003898:	681b      	ldr	r3, [r3, #0]
 800389a:	4a2c      	ldr	r2, [pc, #176]	; (800394c <HAL_TIM_PWM_Start+0x178>)
 800389c:	4293      	cmp	r3, r2
 800389e:	d101      	bne.n	80038a4 <HAL_TIM_PWM_Start+0xd0>
 80038a0:	2301      	movs	r3, #1
 80038a2:	e000      	b.n	80038a6 <HAL_TIM_PWM_Start+0xd2>
 80038a4:	2300      	movs	r3, #0
 80038a6:	2b00      	cmp	r3, #0
 80038a8:	d007      	beq.n	80038ba <HAL_TIM_PWM_Start+0xe6>
  {
    /* Enable the main output */
    __HAL_TIM_MOE_ENABLE(htim);
 80038aa:	687b      	ldr	r3, [r7, #4]
 80038ac:	681b      	ldr	r3, [r3, #0]
 80038ae:	6c5a      	ldr	r2, [r3, #68]	; 0x44
 80038b0:	687b      	ldr	r3, [r7, #4]
 80038b2:	681b      	ldr	r3, [r3, #0]
 80038b4:	f442 4200 	orr.w	r2, r2, #32768	; 0x8000
 80038b8:	645a      	str	r2, [r3, #68]	; 0x44
  }

  /* Enable the Peripheral, except in trigger mode where enable is automatically done with trigger */
  if (IS_TIM_SLAVE_INSTANCE(htim->Instance))
 80038ba:	687b      	ldr	r3, [r7, #4]
 80038bc:	681b      	ldr	r3, [r3, #0]
 80038be:	4a22      	ldr	r2, [pc, #136]	; (8003948 <HAL_TIM_PWM_Start+0x174>)
 80038c0:	4293      	cmp	r3, r2
 80038c2:	d022      	beq.n	800390a <HAL_TIM_PWM_Start+0x136>
 80038c4:	687b      	ldr	r3, [r7, #4]
 80038c6:	681b      	ldr	r3, [r3, #0]
 80038c8:	f1b3 4f80 	cmp.w	r3, #1073741824	; 0x40000000
 80038cc:	d01d      	beq.n	800390a <HAL_TIM_PWM_Start+0x136>
 80038ce:	687b      	ldr	r3, [r7, #4]
 80038d0:	681b      	ldr	r3, [r3, #0]
 80038d2:	4a1f      	ldr	r2, [pc, #124]	; (8003950 <HAL_TIM_PWM_Start+0x17c>)
 80038d4:	4293      	cmp	r3, r2
 80038d6:	d018      	beq.n	800390a <HAL_TIM_PWM_Start+0x136>
 80038d8:	687b      	ldr	r3, [r7, #4]
 80038da:	681b      	ldr	r3, [r3, #0]
 80038dc:	4a1d      	ldr	r2, [pc, #116]	; (8003954 <HAL_TIM_PWM_Start+0x180>)
 80038de:	4293      	cmp	r3, r2
 80038e0:	d013      	beq.n	800390a <HAL_TIM_PWM_Start+0x136>
 80038e2:	687b      	ldr	r3, [r7, #4]
 80038e4:	681b      	ldr	r3, [r3, #0]
 80038e6:	4a1c      	ldr	r2, [pc, #112]	; (8003958 <HAL_TIM_PWM_Start+0x184>)
 80038e8:	4293      	cmp	r3, r2
 80038ea:	d00e      	beq.n	800390a <HAL_TIM_PWM_Start+0x136>
 80038ec:	687b      	ldr	r3, [r7, #4]
 80038ee:	681b      	ldr	r3, [r3, #0]
 80038f0:	4a16      	ldr	r2, [pc, #88]	; (800394c <HAL_TIM_PWM_Start+0x178>)
 80038f2:	4293      	cmp	r3, r2
 80038f4:	d009      	beq.n	800390a <HAL_TIM_PWM_Start+0x136>
 80038f6:	687b      	ldr	r3, [r7, #4]
 80038f8:	681b      	ldr	r3, [r3, #0]
 80038fa:	4a18      	ldr	r2, [pc, #96]	; (800395c <HAL_TIM_PWM_Start+0x188>)
 80038fc:	4293      	cmp	r3, r2
 80038fe:	d004      	beq.n	800390a <HAL_TIM_PWM_Start+0x136>
 8003900:	687b      	ldr	r3, [r7, #4]
 8003902:	681b      	ldr	r3, [r3, #0]
 8003904:	4a16      	ldr	r2, [pc, #88]	; (8003960 <HAL_TIM_PWM_Start+0x18c>)
 8003906:	4293      	cmp	r3, r2
 8003908:	d111      	bne.n	800392e <HAL_TIM_PWM_Start+0x15a>
  {
    tmpsmcr = htim->Instance->SMCR & TIM_SMCR_SMS;
 800390a:	687b      	ldr	r3, [r7, #4]
 800390c:	681b      	ldr	r3, [r3, #0]
 800390e:	689b      	ldr	r3, [r3, #8]
 8003910:	f003 0307 	and.w	r3, r3, #7
 8003914:	60fb      	str	r3, [r7, #12]
    if (!IS_TIM_SLAVEMODE_TRIGGER_ENABLED(tmpsmcr))
 8003916:	68fb      	ldr	r3, [r7, #12]
 8003918:	2b06      	cmp	r3, #6
 800391a:	d010      	beq.n	800393e <HAL_TIM_PWM_Start+0x16a>
    {
      __HAL_TIM_ENABLE(htim);
 800391c:	687b      	ldr	r3, [r7, #4]
 800391e:	681b      	ldr	r3, [r3, #0]
 8003920:	681a      	ldr	r2, [r3, #0]
 8003922:	687b      	ldr	r3, [r7, #4]
 8003924:	681b      	ldr	r3, [r3, #0]
 8003926:	f042 0201 	orr.w	r2, r2, #1
 800392a:	601a      	str	r2, [r3, #0]
    if (!IS_TIM_SLAVEMODE_TRIGGER_ENABLED(tmpsmcr))
 800392c:	e007      	b.n	800393e <HAL_TIM_PWM_Start+0x16a>
    }
  }
  else
  {
    __HAL_TIM_ENABLE(htim);
 800392e:	687b      	ldr	r3, [r7, #4]
 8003930:	681b      	ldr	r3, [r3, #0]
 8003932:	681a      	ldr	r2, [r3, #0]
 8003934:	687b      	ldr	r3, [r7, #4]
 8003936:	681b      	ldr	r3, [r3, #0]
 8003938:	f042 0201 	orr.w	r2, r2, #1
 800393c:	601a      	str	r2, [r3, #0]
  }

  /* Return function status */
  return HAL_OK;
 800393e:	2300      	movs	r3, #0
}
 8003940:	4618      	mov	r0, r3
 8003942:	3710      	adds	r7, #16
 8003944:	46bd      	mov	sp, r7
 8003946:	bd80      	pop	{r7, pc}
 8003948:	40010000 	.word	0x40010000
 800394c:	40010400 	.word	0x40010400
 8003950:	40000400 	.word	0x40000400
 8003954:	40000800 	.word	0x40000800
 8003958:	40000c00 	.word	0x40000c00
 800395c:	40014000 	.word	0x40014000
 8003960:	40001800 	.word	0x40001800

08003964 <HAL_TIM_IC_Init>:
  *         Ex: call @ref HAL_TIM_IC_DeInit() before HAL_TIM_IC_Init()
  * @param  htim TIM Input Capture handle
  * @retval HAL status
  */
HAL_StatusTypeDef HAL_TIM_IC_Init(TIM_HandleTypeDef *htim)
{
 8003964:	b580      	push	{r7, lr}
 8003966:	b082      	sub	sp, #8
 8003968:	af00      	add	r7, sp, #0
 800396a:	6078      	str	r0, [r7, #4]
  /* Check the TIM handle allocation */
  if (htim == NULL)
 800396c:	687b      	ldr	r3, [r7, #4]
 800396e:	2b00      	cmp	r3, #0
 8003970:	d101      	bne.n	8003976 <HAL_TIM_IC_Init+0x12>
  {
    return HAL_ERROR;
 8003972:	2301      	movs	r3, #1
 8003974:	e041      	b.n	80039fa <HAL_TIM_IC_Init+0x96>
  assert_param(IS_TIM_INSTANCE(htim->Instance));
  assert_param(IS_TIM_COUNTER_MODE(htim->Init.CounterMode));
  assert_param(IS_TIM_CLOCKDIVISION_DIV(htim->Init.ClockDivision));
  assert_param(IS_TIM_AUTORELOAD_PRELOAD(htim->Init.AutoReloadPreload));

  if (htim->State == HAL_TIM_STATE_RESET)
 8003976:	687b      	ldr	r3, [r7, #4]
 8003978:	f893 303d 	ldrb.w	r3, [r3, #61]	; 0x3d
 800397c:	b2db      	uxtb	r3, r3
 800397e:	2b00      	cmp	r3, #0
 8003980:	d106      	bne.n	8003990 <HAL_TIM_IC_Init+0x2c>
  {
    /* Allocate lock resource and initialize it */
    htim->Lock = HAL_UNLOCKED;
 8003982:	687b      	ldr	r3, [r7, #4]
 8003984:	2200      	movs	r2, #0
 8003986:	f883 203c 	strb.w	r2, [r3, #60]	; 0x3c
    }
    /* Init the low level hardware : GPIO, CLOCK, NVIC */
    htim->IC_MspInitCallback(htim);
#else
    /* Init the low level hardware : GPIO, CLOCK, NVIC and DMA */
    HAL_TIM_IC_MspInit(htim);
 800398a:	6878      	ldr	r0, [r7, #4]
 800398c:	f000 f839 	bl	8003a02 <HAL_TIM_IC_MspInit>
#endif /* USE_HAL_TIM_REGISTER_CALLBACKS */
  }

  /* Set the TIM state */
  htim->State = HAL_TIM_STATE_BUSY;
 8003990:	687b      	ldr	r3, [r7, #4]
 8003992:	2202      	movs	r2, #2
 8003994:	f883 203d 	strb.w	r2, [r3, #61]	; 0x3d

  /* Init the base time for the input capture */
  TIM_Base_SetConfig(htim->Instance, &htim->Init);
 8003998:	687b      	ldr	r3, [r7, #4]
 800399a:	681a      	ldr	r2, [r3, #0]
 800399c:	687b      	ldr	r3, [r7, #4]
 800399e:	3304      	adds	r3, #4
 80039a0:	4619      	mov	r1, r3
 80039a2:	4610      	mov	r0, r2
 80039a4:	f000 fcf0 	bl	8004388 <TIM_Base_SetConfig>

  /* Initialize the DMA burst operation state */
  htim->DMABurstState = HAL_DMA_BURST_STATE_READY;
 80039a8:	687b      	ldr	r3, [r7, #4]
 80039aa:	2201      	movs	r2, #1
 80039ac:	f883 2046 	strb.w	r2, [r3, #70]	; 0x46

  /* Initialize the TIM channels state */
  TIM_CHANNEL_STATE_SET_ALL(htim, HAL_TIM_CHANNEL_STATE_READY);
 80039b0:	687b      	ldr	r3, [r7, #4]
 80039b2:	2201      	movs	r2, #1
 80039b4:	f883 203e 	strb.w	r2, [r3, #62]	; 0x3e
 80039b8:	687b      	ldr	r3, [r7, #4]
 80039ba:	2201      	movs	r2, #1
 80039bc:	f883 203f 	strb.w	r2, [r3, #63]	; 0x3f
 80039c0:	687b      	ldr	r3, [r7, #4]
 80039c2:	2201      	movs	r2, #1
 80039c4:	f883 2040 	strb.w	r2, [r3, #64]	; 0x40
 80039c8:	687b      	ldr	r3, [r7, #4]
 80039ca:	2201      	movs	r2, #1
 80039cc:	f883 2041 	strb.w	r2, [r3, #65]	; 0x41
  TIM_CHANNEL_N_STATE_SET_ALL(htim, HAL_TIM_CHANNEL_STATE_READY);
 80039d0:	687b      	ldr	r3, [r7, #4]
 80039d2:	2201      	movs	r2, #1
 80039d4:	f883 2042 	strb.w	r2, [r3, #66]	; 0x42
 80039d8:	687b      	ldr	r3, [r7, #4]
 80039da:	2201      	movs	r2, #1
 80039dc:	f883 2043 	strb.w	r2, [r3, #67]	; 0x43
 80039e0:	687b      	ldr	r3, [r7, #4]
 80039e2:	2201      	movs	r2, #1
 80039e4:	f883 2044 	strb.w	r2, [r3, #68]	; 0x44
 80039e8:	687b      	ldr	r3, [r7, #4]
 80039ea:	2201      	movs	r2, #1
 80039ec:	f883 2045 	strb.w	r2, [r3, #69]	; 0x45

  /* Initialize the TIM state*/
  htim->State = HAL_TIM_STATE_READY;
 80039f0:	687b      	ldr	r3, [r7, #4]
 80039f2:	2201      	movs	r2, #1
 80039f4:	f883 203d 	strb.w	r2, [r3, #61]	; 0x3d

  return HAL_OK;
 80039f8:	2300      	movs	r3, #0
}
 80039fa:	4618      	mov	r0, r3
 80039fc:	3708      	adds	r7, #8
 80039fe:	46bd      	mov	sp, r7
 8003a00:	bd80      	pop	{r7, pc}

08003a02 <HAL_TIM_IC_MspInit>:
  * @brief  Initializes the TIM Input Capture MSP.
  * @param  htim TIM Input Capture handle
  * @retval None
  */
__weak void HAL_TIM_IC_MspInit(TIM_HandleTypeDef *htim)
{
 8003a02:	b480      	push	{r7}
 8003a04:	b083      	sub	sp, #12
 8003a06:	af00      	add	r7, sp, #0
 8003a08:	6078      	str	r0, [r7, #4]
  UNUSED(htim);

  /* NOTE : This function should not be modified, when the callback is needed,
            the HAL_TIM_IC_MspInit could be implemented in the user file
   */
}
 8003a0a:	bf00      	nop
 8003a0c:	370c      	adds	r7, #12
 8003a0e:	46bd      	mov	sp, r7
 8003a10:	f85d 7b04 	ldr.w	r7, [sp], #4
 8003a14:	4770      	bx	lr
	...

08003a18 <HAL_TIM_IC_Start_IT>:
  *            @arg TIM_CHANNEL_3: TIM Channel 3 selected
  *            @arg TIM_CHANNEL_4: TIM Channel 4 selected
  * @retval HAL status
  */
HAL_StatusTypeDef HAL_TIM_IC_Start_IT(TIM_HandleTypeDef *htim, uint32_t Channel)
{
 8003a18:	b580      	push	{r7, lr}
 8003a1a:	b084      	sub	sp, #16
 8003a1c:	af00      	add	r7, sp, #0
 8003a1e:	6078      	str	r0, [r7, #4]
 8003a20:	6039      	str	r1, [r7, #0]
  HAL_StatusTypeDef status = HAL_OK;
 8003a22:	2300      	movs	r3, #0
 8003a24:	73fb      	strb	r3, [r7, #15]
  uint32_t tmpsmcr;

  HAL_TIM_ChannelStateTypeDef channel_state = TIM_CHANNEL_STATE_GET(htim, Channel);
 8003a26:	683b      	ldr	r3, [r7, #0]
 8003a28:	2b00      	cmp	r3, #0
 8003a2a:	d104      	bne.n	8003a36 <HAL_TIM_IC_Start_IT+0x1e>
 8003a2c:	687b      	ldr	r3, [r7, #4]
 8003a2e:	f893 303e 	ldrb.w	r3, [r3, #62]	; 0x3e
 8003a32:	b2db      	uxtb	r3, r3
 8003a34:	e013      	b.n	8003a5e <HAL_TIM_IC_Start_IT+0x46>
 8003a36:	683b      	ldr	r3, [r7, #0]
 8003a38:	2b04      	cmp	r3, #4
 8003a3a:	d104      	bne.n	8003a46 <HAL_TIM_IC_Start_IT+0x2e>
 8003a3c:	687b      	ldr	r3, [r7, #4]
 8003a3e:	f893 303f 	ldrb.w	r3, [r3, #63]	; 0x3f
 8003a42:	b2db      	uxtb	r3, r3
 8003a44:	e00b      	b.n	8003a5e <HAL_TIM_IC_Start_IT+0x46>
 8003a46:	683b      	ldr	r3, [r7, #0]
 8003a48:	2b08      	cmp	r3, #8
 8003a4a:	d104      	bne.n	8003a56 <HAL_TIM_IC_Start_IT+0x3e>
 8003a4c:	687b      	ldr	r3, [r7, #4]
 8003a4e:	f893 3040 	ldrb.w	r3, [r3, #64]	; 0x40
 8003a52:	b2db      	uxtb	r3, r3
 8003a54:	e003      	b.n	8003a5e <HAL_TIM_IC_Start_IT+0x46>
 8003a56:	687b      	ldr	r3, [r7, #4]
 8003a58:	f893 3041 	ldrb.w	r3, [r3, #65]	; 0x41
 8003a5c:	b2db      	uxtb	r3, r3
 8003a5e:	73bb      	strb	r3, [r7, #14]
  HAL_TIM_ChannelStateTypeDef complementary_channel_state = TIM_CHANNEL_N_STATE_GET(htim, Channel);
 8003a60:	683b      	ldr	r3, [r7, #0]
 8003a62:	2b00      	cmp	r3, #0
 8003a64:	d104      	bne.n	8003a70 <HAL_TIM_IC_Start_IT+0x58>
 8003a66:	687b      	ldr	r3, [r7, #4]
 8003a68:	f893 3042 	ldrb.w	r3, [r3, #66]	; 0x42
 8003a6c:	b2db      	uxtb	r3, r3
 8003a6e:	e013      	b.n	8003a98 <HAL_TIM_IC_Start_IT+0x80>
 8003a70:	683b      	ldr	r3, [r7, #0]
 8003a72:	2b04      	cmp	r3, #4
 8003a74:	d104      	bne.n	8003a80 <HAL_TIM_IC_Start_IT+0x68>
 8003a76:	687b      	ldr	r3, [r7, #4]
 8003a78:	f893 3043 	ldrb.w	r3, [r3, #67]	; 0x43
 8003a7c:	b2db      	uxtb	r3, r3
 8003a7e:	e00b      	b.n	8003a98 <HAL_TIM_IC_Start_IT+0x80>
 8003a80:	683b      	ldr	r3, [r7, #0]
 8003a82:	2b08      	cmp	r3, #8
 8003a84:	d104      	bne.n	8003a90 <HAL_TIM_IC_Start_IT+0x78>
 8003a86:	687b      	ldr	r3, [r7, #4]
 8003a88:	f893 3044 	ldrb.w	r3, [r3, #68]	; 0x44
 8003a8c:	b2db      	uxtb	r3, r3
 8003a8e:	e003      	b.n	8003a98 <HAL_TIM_IC_Start_IT+0x80>
 8003a90:	687b      	ldr	r3, [r7, #4]
 8003a92:	f893 3045 	ldrb.w	r3, [r3, #69]	; 0x45
 8003a96:	b2db      	uxtb	r3, r3
 8003a98:	737b      	strb	r3, [r7, #13]

  /* Check the parameters */
  assert_param(IS_TIM_CCX_INSTANCE(htim->Instance, Channel));

  /* Check the TIM channel state */
  if ((channel_state != HAL_TIM_CHANNEL_STATE_READY)
 8003a9a:	7bbb      	ldrb	r3, [r7, #14]
 8003a9c:	2b01      	cmp	r3, #1
 8003a9e:	d102      	bne.n	8003aa6 <HAL_TIM_IC_Start_IT+0x8e>
      || (complementary_channel_state != HAL_TIM_CHANNEL_STATE_READY))
 8003aa0:	7b7b      	ldrb	r3, [r7, #13]
 8003aa2:	2b01      	cmp	r3, #1
 8003aa4:	d001      	beq.n	8003aaa <HAL_TIM_IC_Start_IT+0x92>
  {
    return HAL_ERROR;
 8003aa6:	2301      	movs	r3, #1
 8003aa8:	e0cc      	b.n	8003c44 <HAL_TIM_IC_Start_IT+0x22c>
  }

  /* Set the TIM channel state */
  TIM_CHANNEL_STATE_SET(htim, Channel, HAL_TIM_CHANNEL_STATE_BUSY);
 8003aaa:	683b      	ldr	r3, [r7, #0]
 8003aac:	2b00      	cmp	r3, #0
 8003aae:	d104      	bne.n	8003aba <HAL_TIM_IC_Start_IT+0xa2>
 8003ab0:	687b      	ldr	r3, [r7, #4]
 8003ab2:	2202      	movs	r2, #2
 8003ab4:	f883 203e 	strb.w	r2, [r3, #62]	; 0x3e
 8003ab8:	e013      	b.n	8003ae2 <HAL_TIM_IC_Start_IT+0xca>
 8003aba:	683b      	ldr	r3, [r7, #0]
 8003abc:	2b04      	cmp	r3, #4
 8003abe:	d104      	bne.n	8003aca <HAL_TIM_IC_Start_IT+0xb2>
 8003ac0:	687b      	ldr	r3, [r7, #4]
 8003ac2:	2202      	movs	r2, #2
 8003ac4:	f883 203f 	strb.w	r2, [r3, #63]	; 0x3f
 8003ac8:	e00b      	b.n	8003ae2 <HAL_TIM_IC_Start_IT+0xca>
 8003aca:	683b      	ldr	r3, [r7, #0]
 8003acc:	2b08      	cmp	r3, #8
 8003ace:	d104      	bne.n	8003ada <HAL_TIM_IC_Start_IT+0xc2>
 8003ad0:	687b      	ldr	r3, [r7, #4]
 8003ad2:	2202      	movs	r2, #2
 8003ad4:	f883 2040 	strb.w	r2, [r3, #64]	; 0x40
 8003ad8:	e003      	b.n	8003ae2 <HAL_TIM_IC_Start_IT+0xca>
 8003ada:	687b      	ldr	r3, [r7, #4]
 8003adc:	2202      	movs	r2, #2
 8003ade:	f883 2041 	strb.w	r2, [r3, #65]	; 0x41
  TIM_CHANNEL_N_STATE_SET(htim, Channel, HAL_TIM_CHANNEL_STATE_BUSY);
 8003ae2:	683b      	ldr	r3, [r7, #0]
 8003ae4:	2b00      	cmp	r3, #0
 8003ae6:	d104      	bne.n	8003af2 <HAL_TIM_IC_Start_IT+0xda>
 8003ae8:	687b      	ldr	r3, [r7, #4]
 8003aea:	2202      	movs	r2, #2
 8003aec:	f883 2042 	strb.w	r2, [r3, #66]	; 0x42
 8003af0:	e013      	b.n	8003b1a <HAL_TIM_IC_Start_IT+0x102>
 8003af2:	683b      	ldr	r3, [r7, #0]
 8003af4:	2b04      	cmp	r3, #4
 8003af6:	d104      	bne.n	8003b02 <HAL_TIM_IC_Start_IT+0xea>
 8003af8:	687b      	ldr	r3, [r7, #4]
 8003afa:	2202      	movs	r2, #2
 8003afc:	f883 2043 	strb.w	r2, [r3, #67]	; 0x43
 8003b00:	e00b      	b.n	8003b1a <HAL_TIM_IC_Start_IT+0x102>
 8003b02:	683b      	ldr	r3, [r7, #0]
 8003b04:	2b08      	cmp	r3, #8
 8003b06:	d104      	bne.n	8003b12 <HAL_TIM_IC_Start_IT+0xfa>
 8003b08:	687b      	ldr	r3, [r7, #4]
 8003b0a:	2202      	movs	r2, #2
 8003b0c:	f883 2044 	strb.w	r2, [r3, #68]	; 0x44
 8003b10:	e003      	b.n	8003b1a <HAL_TIM_IC_Start_IT+0x102>
 8003b12:	687b      	ldr	r3, [r7, #4]
 8003b14:	2202      	movs	r2, #2
 8003b16:	f883 2045 	strb.w	r2, [r3, #69]	; 0x45
 8003b1a:	683b      	ldr	r3, [r7, #0]
 8003b1c:	2b0c      	cmp	r3, #12
 8003b1e:	d841      	bhi.n	8003ba4 <HAL_TIM_IC_Start_IT+0x18c>
 8003b20:	a201      	add	r2, pc, #4	; (adr r2, 8003b28 <HAL_TIM_IC_Start_IT+0x110>)
 8003b22:	f852 f023 	ldr.w	pc, [r2, r3, lsl #2]
 8003b26:	bf00      	nop
 8003b28:	08003b5d 	.word	0x08003b5d
 8003b2c:	08003ba5 	.word	0x08003ba5
 8003b30:	08003ba5 	.word	0x08003ba5
 8003b34:	08003ba5 	.word	0x08003ba5
 8003b38:	08003b6f 	.word	0x08003b6f
 8003b3c:	08003ba5 	.word	0x08003ba5
 8003b40:	08003ba5 	.word	0x08003ba5
 8003b44:	08003ba5 	.word	0x08003ba5
 8003b48:	08003b81 	.word	0x08003b81
 8003b4c:	08003ba5 	.word	0x08003ba5
 8003b50:	08003ba5 	.word	0x08003ba5
 8003b54:	08003ba5 	.word	0x08003ba5
 8003b58:	08003b93 	.word	0x08003b93
  switch (Channel)
  {
    case TIM_CHANNEL_1:
    {
      /* Enable the TIM Capture/Compare 1 interrupt */
      __HAL_TIM_ENABLE_IT(htim, TIM_IT_CC1);
 8003b5c:	687b      	ldr	r3, [r7, #4]
 8003b5e:	681b      	ldr	r3, [r3, #0]
 8003b60:	68da      	ldr	r2, [r3, #12]
 8003b62:	687b      	ldr	r3, [r7, #4]
 8003b64:	681b      	ldr	r3, [r3, #0]
 8003b66:	f042 0202 	orr.w	r2, r2, #2
 8003b6a:	60da      	str	r2, [r3, #12]
      break;
 8003b6c:	e01d      	b.n	8003baa <HAL_TIM_IC_Start_IT+0x192>
    }

    case TIM_CHANNEL_2:
    {
      /* Enable the TIM Capture/Compare 2 interrupt */
      __HAL_TIM_ENABLE_IT(htim, TIM_IT_CC2);
 8003b6e:	687b      	ldr	r3, [r7, #4]
 8003b70:	681b      	ldr	r3, [r3, #0]
 8003b72:	68da      	ldr	r2, [r3, #12]
 8003b74:	687b      	ldr	r3, [r7, #4]
 8003b76:	681b      	ldr	r3, [r3, #0]
 8003b78:	f042 0204 	orr.w	r2, r2, #4
 8003b7c:	60da      	str	r2, [r3, #12]
      break;
 8003b7e:	e014      	b.n	8003baa <HAL_TIM_IC_Start_IT+0x192>
    }

    case TIM_CHANNEL_3:
    {
      /* Enable the TIM Capture/Compare 3 interrupt */
      __HAL_TIM_ENABLE_IT(htim, TIM_IT_CC3);
 8003b80:	687b      	ldr	r3, [r7, #4]
 8003b82:	681b      	ldr	r3, [r3, #0]
 8003b84:	68da      	ldr	r2, [r3, #12]
 8003b86:	687b      	ldr	r3, [r7, #4]
 8003b88:	681b      	ldr	r3, [r3, #0]
 8003b8a:	f042 0208 	orr.w	r2, r2, #8
 8003b8e:	60da      	str	r2, [r3, #12]
      break;
 8003b90:	e00b      	b.n	8003baa <HAL_TIM_IC_Start_IT+0x192>
    }

    case TIM_CHANNEL_4:
    {
      /* Enable the TIM Capture/Compare 4 interrupt */
      __HAL_TIM_ENABLE_IT(htim, TIM_IT_CC4);
 8003b92:	687b      	ldr	r3, [r7, #4]
 8003b94:	681b      	ldr	r3, [r3, #0]
 8003b96:	68da      	ldr	r2, [r3, #12]
 8003b98:	687b      	ldr	r3, [r7, #4]
 8003b9a:	681b      	ldr	r3, [r3, #0]
 8003b9c:	f042 0210 	orr.w	r2, r2, #16
 8003ba0:	60da      	str	r2, [r3, #12]
      break;
 8003ba2:	e002      	b.n	8003baa <HAL_TIM_IC_Start_IT+0x192>
    }

    default:
      status = HAL_ERROR;
 8003ba4:	2301      	movs	r3, #1
 8003ba6:	73fb      	strb	r3, [r7, #15]
      break;
 8003ba8:	bf00      	nop
  }

  if (status == HAL_OK)
 8003baa:	7bfb      	ldrb	r3, [r7, #15]
 8003bac:	2b00      	cmp	r3, #0
 8003bae:	d148      	bne.n	8003c42 <HAL_TIM_IC_Start_IT+0x22a>
  {
    /* Enable the Input Capture channel */
    TIM_CCxChannelCmd(htim->Instance, Channel, TIM_CCx_ENABLE);
 8003bb0:	687b      	ldr	r3, [r7, #4]
 8003bb2:	681b      	ldr	r3, [r3, #0]
 8003bb4:	2201      	movs	r2, #1
 8003bb6:	6839      	ldr	r1, [r7, #0]
 8003bb8:	4618      	mov	r0, r3
 8003bba:	f000 fff9 	bl	8004bb0 <TIM_CCxChannelCmd>

    /* Enable the Peripheral, except in trigger mode where enable is automatically done with trigger */
    if (IS_TIM_SLAVE_INSTANCE(htim->Instance))
 8003bbe:	687b      	ldr	r3, [r7, #4]
 8003bc0:	681b      	ldr	r3, [r3, #0]
 8003bc2:	4a22      	ldr	r2, [pc, #136]	; (8003c4c <HAL_TIM_IC_Start_IT+0x234>)
 8003bc4:	4293      	cmp	r3, r2
 8003bc6:	d022      	beq.n	8003c0e <HAL_TIM_IC_Start_IT+0x1f6>
 8003bc8:	687b      	ldr	r3, [r7, #4]
 8003bca:	681b      	ldr	r3, [r3, #0]
 8003bcc:	f1b3 4f80 	cmp.w	r3, #1073741824	; 0x40000000
 8003bd0:	d01d      	beq.n	8003c0e <HAL_TIM_IC_Start_IT+0x1f6>
 8003bd2:	687b      	ldr	r3, [r7, #4]
 8003bd4:	681b      	ldr	r3, [r3, #0]
 8003bd6:	4a1e      	ldr	r2, [pc, #120]	; (8003c50 <HAL_TIM_IC_Start_IT+0x238>)
 8003bd8:	4293      	cmp	r3, r2
 8003bda:	d018      	beq.n	8003c0e <HAL_TIM_IC_Start_IT+0x1f6>
 8003bdc:	687b      	ldr	r3, [r7, #4]
 8003bde:	681b      	ldr	r3, [r3, #0]
 8003be0:	4a1c      	ldr	r2, [pc, #112]	; (8003c54 <HAL_TIM_IC_Start_IT+0x23c>)
 8003be2:	4293      	cmp	r3, r2
 8003be4:	d013      	beq.n	8003c0e <HAL_TIM_IC_Start_IT+0x1f6>
 8003be6:	687b      	ldr	r3, [r7, #4]
 8003be8:	681b      	ldr	r3, [r3, #0]
 8003bea:	4a1b      	ldr	r2, [pc, #108]	; (8003c58 <HAL_TIM_IC_Start_IT+0x240>)
 8003bec:	4293      	cmp	r3, r2
 8003bee:	d00e      	beq.n	8003c0e <HAL_TIM_IC_Start_IT+0x1f6>
 8003bf0:	687b      	ldr	r3, [r7, #4]
 8003bf2:	681b      	ldr	r3, [r3, #0]
 8003bf4:	4a19      	ldr	r2, [pc, #100]	; (8003c5c <HAL_TIM_IC_Start_IT+0x244>)
 8003bf6:	4293      	cmp	r3, r2
 8003bf8:	d009      	beq.n	8003c0e <HAL_TIM_IC_Start_IT+0x1f6>
 8003bfa:	687b      	ldr	r3, [r7, #4]
 8003bfc:	681b      	ldr	r3, [r3, #0]
 8003bfe:	4a18      	ldr	r2, [pc, #96]	; (8003c60 <HAL_TIM_IC_Start_IT+0x248>)
 8003c00:	4293      	cmp	r3, r2
 8003c02:	d004      	beq.n	8003c0e <HAL_TIM_IC_Start_IT+0x1f6>
 8003c04:	687b      	ldr	r3, [r7, #4]
 8003c06:	681b      	ldr	r3, [r3, #0]
 8003c08:	4a16      	ldr	r2, [pc, #88]	; (8003c64 <HAL_TIM_IC_Start_IT+0x24c>)
 8003c0a:	4293      	cmp	r3, r2
 8003c0c:	d111      	bne.n	8003c32 <HAL_TIM_IC_Start_IT+0x21a>
    {
      tmpsmcr = htim->Instance->SMCR & TIM_SMCR_SMS;
 8003c0e:	687b      	ldr	r3, [r7, #4]
 8003c10:	681b      	ldr	r3, [r3, #0]
 8003c12:	689b      	ldr	r3, [r3, #8]
 8003c14:	f003 0307 	and.w	r3, r3, #7
 8003c18:	60bb      	str	r3, [r7, #8]
      if (!IS_TIM_SLAVEMODE_TRIGGER_ENABLED(tmpsmcr))
 8003c1a:	68bb      	ldr	r3, [r7, #8]
 8003c1c:	2b06      	cmp	r3, #6
 8003c1e:	d010      	beq.n	8003c42 <HAL_TIM_IC_Start_IT+0x22a>
      {
        __HAL_TIM_ENABLE(htim);
 8003c20:	687b      	ldr	r3, [r7, #4]
 8003c22:	681b      	ldr	r3, [r3, #0]
 8003c24:	681a      	ldr	r2, [r3, #0]
 8003c26:	687b      	ldr	r3, [r7, #4]
 8003c28:	681b      	ldr	r3, [r3, #0]
 8003c2a:	f042 0201 	orr.w	r2, r2, #1
 8003c2e:	601a      	str	r2, [r3, #0]
      if (!IS_TIM_SLAVEMODE_TRIGGER_ENABLED(tmpsmcr))
 8003c30:	e007      	b.n	8003c42 <HAL_TIM_IC_Start_IT+0x22a>
      }
    }
    else
    {
      __HAL_TIM_ENABLE(htim);
 8003c32:	687b      	ldr	r3, [r7, #4]
 8003c34:	681b      	ldr	r3, [r3, #0]
 8003c36:	681a      	ldr	r2, [r3, #0]
 8003c38:	687b      	ldr	r3, [r7, #4]
 8003c3a:	681b      	ldr	r3, [r3, #0]
 8003c3c:	f042 0201 	orr.w	r2, r2, #1
 8003c40:	601a      	str	r2, [r3, #0]
    }
  }

  /* Return function status */
  return status;
 8003c42:	7bfb      	ldrb	r3, [r7, #15]
}
 8003c44:	4618      	mov	r0, r3
 8003c46:	3710      	adds	r7, #16
 8003c48:	46bd      	mov	sp, r7
 8003c4a:	bd80      	pop	{r7, pc}
 8003c4c:	40010000 	.word	0x40010000
 8003c50:	40000400 	.word	0x40000400
 8003c54:	40000800 	.word	0x40000800
 8003c58:	40000c00 	.word	0x40000c00
 8003c5c:	40010400 	.word	0x40010400
 8003c60:	40014000 	.word	0x40014000
 8003c64:	40001800 	.word	0x40001800

08003c68 <HAL_TIM_IRQHandler>:
  * @brief  This function handles TIM interrupts requests.
  * @param  htim TIM  handle
  * @retval None
  */
void HAL_TIM_IRQHandler(TIM_HandleTypeDef *htim)
{
 8003c68:	b580      	push	{r7, lr}
 8003c6a:	b082      	sub	sp, #8
 8003c6c:	af00      	add	r7, sp, #0
 8003c6e:	6078      	str	r0, [r7, #4]
  /* Capture compare 1 event */
  if (__HAL_TIM_GET_FLAG(htim, TIM_FLAG_CC1) != RESET)
 8003c70:	687b      	ldr	r3, [r7, #4]
 8003c72:	681b      	ldr	r3, [r3, #0]
 8003c74:	691b      	ldr	r3, [r3, #16]
 8003c76:	f003 0302 	and.w	r3, r3, #2
 8003c7a:	2b02      	cmp	r3, #2
 8003c7c:	d122      	bne.n	8003cc4 <HAL_TIM_IRQHandler+0x5c>
  {
    if (__HAL_TIM_GET_IT_SOURCE(htim, TIM_IT_CC1) != RESET)
 8003c7e:	687b      	ldr	r3, [r7, #4]
 8003c80:	681b      	ldr	r3, [r3, #0]
 8003c82:	68db      	ldr	r3, [r3, #12]
 8003c84:	f003 0302 	and.w	r3, r3, #2
 8003c88:	2b02      	cmp	r3, #2
 8003c8a:	d11b      	bne.n	8003cc4 <HAL_TIM_IRQHandler+0x5c>
    {
      {
        __HAL_TIM_CLEAR_IT(htim, TIM_IT_CC1);
 8003c8c:	687b      	ldr	r3, [r7, #4]
 8003c8e:	681b      	ldr	r3, [r3, #0]
 8003c90:	f06f 0202 	mvn.w	r2, #2
 8003c94:	611a      	str	r2, [r3, #16]
        htim->Channel = HAL_TIM_ACTIVE_CHANNEL_1;
 8003c96:	687b      	ldr	r3, [r7, #4]
 8003c98:	2201      	movs	r2, #1
 8003c9a:	771a      	strb	r2, [r3, #28]

        /* Input capture event */
        if ((htim->Instance->CCMR1 & TIM_CCMR1_CC1S) != 0x00U)
 8003c9c:	687b      	ldr	r3, [r7, #4]
 8003c9e:	681b      	ldr	r3, [r3, #0]
 8003ca0:	699b      	ldr	r3, [r3, #24]
 8003ca2:	f003 0303 	and.w	r3, r3, #3
 8003ca6:	2b00      	cmp	r3, #0
 8003ca8:	d003      	beq.n	8003cb2 <HAL_TIM_IRQHandler+0x4a>
        {
#if (USE_HAL_TIM_REGISTER_CALLBACKS == 1)
          htim->IC_CaptureCallback(htim);
#else
          HAL_TIM_IC_CaptureCallback(htim);
 8003caa:	6878      	ldr	r0, [r7, #4]
 8003cac:	f7fd ffc4 	bl	8001c38 <HAL_TIM_IC_CaptureCallback>
 8003cb0:	e005      	b.n	8003cbe <HAL_TIM_IRQHandler+0x56>
        {
#if (USE_HAL_TIM_REGISTER_CALLBACKS == 1)
          htim->OC_DelayElapsedCallback(htim);
          htim->PWM_PulseFinishedCallback(htim);
#else
          HAL_TIM_OC_DelayElapsedCallback(htim);
 8003cb2:	6878      	ldr	r0, [r7, #4]
 8003cb4:	f000 fb4a 	bl	800434c <HAL_TIM_OC_DelayElapsedCallback>
          HAL_TIM_PWM_PulseFinishedCallback(htim);
 8003cb8:	6878      	ldr	r0, [r7, #4]
 8003cba:	f000 fb51 	bl	8004360 <HAL_TIM_PWM_PulseFinishedCallback>
#endif /* USE_HAL_TIM_REGISTER_CALLBACKS */
        }
        htim->Channel = HAL_TIM_ACTIVE_CHANNEL_CLEARED;
 8003cbe:	687b      	ldr	r3, [r7, #4]
 8003cc0:	2200      	movs	r2, #0
 8003cc2:	771a      	strb	r2, [r3, #28]
      }
    }
  }
  /* Capture compare 2 event */
  if (__HAL_TIM_GET_FLAG(htim, TIM_FLAG_CC2) != RESET)
 8003cc4:	687b      	ldr	r3, [r7, #4]
 8003cc6:	681b      	ldr	r3, [r3, #0]
 8003cc8:	691b      	ldr	r3, [r3, #16]
 8003cca:	f003 0304 	and.w	r3, r3, #4
 8003cce:	2b04      	cmp	r3, #4
 8003cd0:	d122      	bne.n	8003d18 <HAL_TIM_IRQHandler+0xb0>
  {
    if (__HAL_TIM_GET_IT_SOURCE(htim, TIM_IT_CC2) != RESET)
 8003cd2:	687b      	ldr	r3, [r7, #4]
 8003cd4:	681b      	ldr	r3, [r3, #0]
 8003cd6:	68db      	ldr	r3, [r3, #12]
 8003cd8:	f003 0304 	and.w	r3, r3, #4
 8003cdc:	2b04      	cmp	r3, #4
 8003cde:	d11b      	bne.n	8003d18 <HAL_TIM_IRQHandler+0xb0>
    {
      __HAL_TIM_CLEAR_IT(htim, TIM_IT_CC2);
 8003ce0:	687b      	ldr	r3, [r7, #4]
 8003ce2:	681b      	ldr	r3, [r3, #0]
 8003ce4:	f06f 0204 	mvn.w	r2, #4
 8003ce8:	611a      	str	r2, [r3, #16]
      htim->Channel = HAL_TIM_ACTIVE_CHANNEL_2;
 8003cea:	687b      	ldr	r3, [r7, #4]
 8003cec:	2202      	movs	r2, #2
 8003cee:	771a      	strb	r2, [r3, #28]
      /* Input capture event */
      if ((htim->Instance->CCMR1 & TIM_CCMR1_CC2S) != 0x00U)
 8003cf0:	687b      	ldr	r3, [r7, #4]
 8003cf2:	681b      	ldr	r3, [r3, #0]
 8003cf4:	699b      	ldr	r3, [r3, #24]
 8003cf6:	f403 7340 	and.w	r3, r3, #768	; 0x300
 8003cfa:	2b00      	cmp	r3, #0
 8003cfc:	d003      	beq.n	8003d06 <HAL_TIM_IRQHandler+0x9e>
      {
#if (USE_HAL_TIM_REGISTER_CALLBACKS == 1)
        htim->IC_CaptureCallback(htim);
#else
        HAL_TIM_IC_CaptureCallback(htim);
 8003cfe:	6878      	ldr	r0, [r7, #4]
 8003d00:	f7fd ff9a 	bl	8001c38 <HAL_TIM_IC_CaptureCallback>
 8003d04:	e005      	b.n	8003d12 <HAL_TIM_IRQHandler+0xaa>
      {
#if (USE_HAL_TIM_REGISTER_CALLBACKS == 1)
        htim->OC_DelayElapsedCallback(htim);
        htim->PWM_PulseFinishedCallback(htim);
#else
        HAL_TIM_OC_DelayElapsedCallback(htim);
 8003d06:	6878      	ldr	r0, [r7, #4]
 8003d08:	f000 fb20 	bl	800434c <HAL_TIM_OC_DelayElapsedCallback>
        HAL_TIM_PWM_PulseFinishedCallback(htim);
 8003d0c:	6878      	ldr	r0, [r7, #4]
 8003d0e:	f000 fb27 	bl	8004360 <HAL_TIM_PWM_PulseFinishedCallback>
#endif /* USE_HAL_TIM_REGISTER_CALLBACKS */
      }
      htim->Channel = HAL_TIM_ACTIVE_CHANNEL_CLEARED;
 8003d12:	687b      	ldr	r3, [r7, #4]
 8003d14:	2200      	movs	r2, #0
 8003d16:	771a      	strb	r2, [r3, #28]
    }
  }
  /* Capture compare 3 event */
  if (__HAL_TIM_GET_FLAG(htim, TIM_FLAG_CC3) != RESET)
 8003d18:	687b      	ldr	r3, [r7, #4]
 8003d1a:	681b      	ldr	r3, [r3, #0]
 8003d1c:	691b      	ldr	r3, [r3, #16]
 8003d1e:	f003 0308 	and.w	r3, r3, #8
 8003d22:	2b08      	cmp	r3, #8
 8003d24:	d122      	bne.n	8003d6c <HAL_TIM_IRQHandler+0x104>
  {
    if (__HAL_TIM_GET_IT_SOURCE(htim, TIM_IT_CC3) != RESET)
 8003d26:	687b      	ldr	r3, [r7, #4]
 8003d28:	681b      	ldr	r3, [r3, #0]
 8003d2a:	68db      	ldr	r3, [r3, #12]
 8003d2c:	f003 0308 	and.w	r3, r3, #8
 8003d30:	2b08      	cmp	r3, #8
 8003d32:	d11b      	bne.n	8003d6c <HAL_TIM_IRQHandler+0x104>
    {
      __HAL_TIM_CLEAR_IT(htim, TIM_IT_CC3);
 8003d34:	687b      	ldr	r3, [r7, #4]
 8003d36:	681b      	ldr	r3, [r3, #0]
 8003d38:	f06f 0208 	mvn.w	r2, #8
 8003d3c:	611a      	str	r2, [r3, #16]
      htim->Channel = HAL_TIM_ACTIVE_CHANNEL_3;
 8003d3e:	687b      	ldr	r3, [r7, #4]
 8003d40:	2204      	movs	r2, #4
 8003d42:	771a      	strb	r2, [r3, #28]
      /* Input capture event */
      if ((htim->Instance->CCMR2 & TIM_CCMR2_CC3S) != 0x00U)
 8003d44:	687b      	ldr	r3, [r7, #4]
 8003d46:	681b      	ldr	r3, [r3, #0]
 8003d48:	69db      	ldr	r3, [r3, #28]
 8003d4a:	f003 0303 	and.w	r3, r3, #3
 8003d4e:	2b00      	cmp	r3, #0
 8003d50:	d003      	beq.n	8003d5a <HAL_TIM_IRQHandler+0xf2>
      {
#if (USE_HAL_TIM_REGISTER_CALLBACKS == 1)
        htim->IC_CaptureCallback(htim);
#else
        HAL_TIM_IC_CaptureCallback(htim);
 8003d52:	6878      	ldr	r0, [r7, #4]
 8003d54:	f7fd ff70 	bl	8001c38 <HAL_TIM_IC_CaptureCallback>
 8003d58:	e005      	b.n	8003d66 <HAL_TIM_IRQHandler+0xfe>
      {
#if (USE_HAL_TIM_REGISTER_CALLBACKS == 1)
        htim->OC_DelayElapsedCallback(htim);
        htim->PWM_PulseFinishedCallback(htim);
#else
        HAL_TIM_OC_DelayElapsedCallback(htim);
 8003d5a:	6878      	ldr	r0, [r7, #4]
 8003d5c:	f000 faf6 	bl	800434c <HAL_TIM_OC_DelayElapsedCallback>
        HAL_TIM_PWM_PulseFinishedCallback(htim);
 8003d60:	6878      	ldr	r0, [r7, #4]
 8003d62:	f000 fafd 	bl	8004360 <HAL_TIM_PWM_PulseFinishedCallback>
#endif /* USE_HAL_TIM_REGISTER_CALLBACKS */
      }
      htim->Channel = HAL_TIM_ACTIVE_CHANNEL_CLEARED;
 8003d66:	687b      	ldr	r3, [r7, #4]
 8003d68:	2200      	movs	r2, #0
 8003d6a:	771a      	strb	r2, [r3, #28]
    }
  }
  /* Capture compare 4 event */
  if (__HAL_TIM_GET_FLAG(htim, TIM_FLAG_CC4) != RESET)
 8003d6c:	687b      	ldr	r3, [r7, #4]
 8003d6e:	681b      	ldr	r3, [r3, #0]
 8003d70:	691b      	ldr	r3, [r3, #16]
 8003d72:	f003 0310 	and.w	r3, r3, #16
 8003d76:	2b10      	cmp	r3, #16
 8003d78:	d122      	bne.n	8003dc0 <HAL_TIM_IRQHandler+0x158>
  {
    if (__HAL_TIM_GET_IT_SOURCE(htim, TIM_IT_CC4) != RESET)
 8003d7a:	687b      	ldr	r3, [r7, #4]
 8003d7c:	681b      	ldr	r3, [r3, #0]
 8003d7e:	68db      	ldr	r3, [r3, #12]
 8003d80:	f003 0310 	and.w	r3, r3, #16
 8003d84:	2b10      	cmp	r3, #16
 8003d86:	d11b      	bne.n	8003dc0 <HAL_TIM_IRQHandler+0x158>
    {
      __HAL_TIM_CLEAR_IT(htim, TIM_IT_CC4);
 8003d88:	687b      	ldr	r3, [r7, #4]
 8003d8a:	681b      	ldr	r3, [r3, #0]
 8003d8c:	f06f 0210 	mvn.w	r2, #16
 8003d90:	611a      	str	r2, [r3, #16]
      htim->Channel = HAL_TIM_ACTIVE_CHANNEL_4;
 8003d92:	687b      	ldr	r3, [r7, #4]
 8003d94:	2208      	movs	r2, #8
 8003d96:	771a      	strb	r2, [r3, #28]
      /* Input capture event */
      if ((htim->Instance->CCMR2 & TIM_CCMR2_CC4S) != 0x00U)
 8003d98:	687b      	ldr	r3, [r7, #4]
 8003d9a:	681b      	ldr	r3, [r3, #0]
 8003d9c:	69db      	ldr	r3, [r3, #28]
 8003d9e:	f403 7340 	and.w	r3, r3, #768	; 0x300
 8003da2:	2b00      	cmp	r3, #0
 8003da4:	d003      	beq.n	8003dae <HAL_TIM_IRQHandler+0x146>
      {
#if (USE_HAL_TIM_REGISTER_CALLBACKS == 1)
        htim->IC_CaptureCallback(htim);
#else
        HAL_TIM_IC_CaptureCallback(htim);
 8003da6:	6878      	ldr	r0, [r7, #4]
 8003da8:	f7fd ff46 	bl	8001c38 <HAL_TIM_IC_CaptureCallback>
 8003dac:	e005      	b.n	8003dba <HAL_TIM_IRQHandler+0x152>
      {
#if (USE_HAL_TIM_REGISTER_CALLBACKS == 1)
        htim->OC_DelayElapsedCallback(htim);
        htim->PWM_PulseFinishedCallback(htim);
#else
        HAL_TIM_OC_DelayElapsedCallback(htim);
 8003dae:	6878      	ldr	r0, [r7, #4]
 8003db0:	f000 facc 	bl	800434c <HAL_TIM_OC_DelayElapsedCallback>
        HAL_TIM_PWM_PulseFinishedCallback(htim);
 8003db4:	6878      	ldr	r0, [r7, #4]
 8003db6:	f000 fad3 	bl	8004360 <HAL_TIM_PWM_PulseFinishedCallback>
#endif /* USE_HAL_TIM_REGISTER_CALLBACKS */
      }
      htim->Channel = HAL_TIM_ACTIVE_CHANNEL_CLEARED;
 8003dba:	687b      	ldr	r3, [r7, #4]
 8003dbc:	2200      	movs	r2, #0
 8003dbe:	771a      	strb	r2, [r3, #28]
    }
  }
  /* TIM Update event */
  if (__HAL_TIM_GET_FLAG(htim, TIM_FLAG_UPDATE) != RESET)
 8003dc0:	687b      	ldr	r3, [r7, #4]
 8003dc2:	681b      	ldr	r3, [r3, #0]
 8003dc4:	691b      	ldr	r3, [r3, #16]
 8003dc6:	f003 0301 	and.w	r3, r3, #1
 8003dca:	2b01      	cmp	r3, #1
 8003dcc:	d10e      	bne.n	8003dec <HAL_TIM_IRQHandler+0x184>
  {
    if (__HAL_TIM_GET_IT_SOURCE(htim, TIM_IT_UPDATE) != RESET)
 8003dce:	687b      	ldr	r3, [r7, #4]
 8003dd0:	681b      	ldr	r3, [r3, #0]
 8003dd2:	68db      	ldr	r3, [r3, #12]
 8003dd4:	f003 0301 	and.w	r3, r3, #1
 8003dd8:	2b01      	cmp	r3, #1
 8003dda:	d107      	bne.n	8003dec <HAL_TIM_IRQHandler+0x184>
    {
      __HAL_TIM_CLEAR_IT(htim, TIM_IT_UPDATE);
 8003ddc:	687b      	ldr	r3, [r7, #4]
 8003dde:	681b      	ldr	r3, [r3, #0]
 8003de0:	f06f 0201 	mvn.w	r2, #1
 8003de4:	611a      	str	r2, [r3, #16]
#if (USE_HAL_TIM_REGISTER_CALLBACKS == 1)
      htim->PeriodElapsedCallback(htim);
#else
      HAL_TIM_PeriodElapsedCallback(htim);
 8003de6:	6878      	ldr	r0, [r7, #4]
 8003de8:	f7fd ff31 	bl	8001c4e <HAL_TIM_PeriodElapsedCallback>
#endif /* USE_HAL_TIM_REGISTER_CALLBACKS */
    }
  }
  /* TIM Break input event */
  if (__HAL_TIM_GET_FLAG(htim, TIM_FLAG_BREAK) != RESET)
 8003dec:	687b      	ldr	r3, [r7, #4]
 8003dee:	681b      	ldr	r3, [r3, #0]
 8003df0:	691b      	ldr	r3, [r3, #16]
 8003df2:	f003 0380 	and.w	r3, r3, #128	; 0x80
 8003df6:	2b80      	cmp	r3, #128	; 0x80
 8003df8:	d10e      	bne.n	8003e18 <HAL_TIM_IRQHandler+0x1b0>
  {
    if (__HAL_TIM_GET_IT_SOURCE(htim, TIM_IT_BREAK) != RESET)
 8003dfa:	687b      	ldr	r3, [r7, #4]
 8003dfc:	681b      	ldr	r3, [r3, #0]
 8003dfe:	68db      	ldr	r3, [r3, #12]
 8003e00:	f003 0380 	and.w	r3, r3, #128	; 0x80
 8003e04:	2b80      	cmp	r3, #128	; 0x80
 8003e06:	d107      	bne.n	8003e18 <HAL_TIM_IRQHandler+0x1b0>
    {
      __HAL_TIM_CLEAR_IT(htim, TIM_IT_BREAK);
 8003e08:	687b      	ldr	r3, [r7, #4]
 8003e0a:	681b      	ldr	r3, [r3, #0]
 8003e0c:	f06f 0280 	mvn.w	r2, #128	; 0x80
 8003e10:	611a      	str	r2, [r3, #16]
#if (USE_HAL_TIM_REGISTER_CALLBACKS == 1)
      htim->BreakCallback(htim);
#else
      HAL_TIMEx_BreakCallback(htim);
 8003e12:	6878      	ldr	r0, [r7, #4]
 8003e14:	f000 ffca 	bl	8004dac <HAL_TIMEx_BreakCallback>
#endif /* USE_HAL_TIM_REGISTER_CALLBACKS */
    }
  }
  /* TIM Trigger detection event */
  if (__HAL_TIM_GET_FLAG(htim, TIM_FLAG_TRIGGER) != RESET)
 8003e18:	687b      	ldr	r3, [r7, #4]
 8003e1a:	681b      	ldr	r3, [r3, #0]
 8003e1c:	691b      	ldr	r3, [r3, #16]
 8003e1e:	f003 0340 	and.w	r3, r3, #64	; 0x40
 8003e22:	2b40      	cmp	r3, #64	; 0x40
 8003e24:	d10e      	bne.n	8003e44 <HAL_TIM_IRQHandler+0x1dc>
  {
    if (__HAL_TIM_GET_IT_SOURCE(htim, TIM_IT_TRIGGER) != RESET)
 8003e26:	687b      	ldr	r3, [r7, #4]
 8003e28:	681b      	ldr	r3, [r3, #0]
 8003e2a:	68db      	ldr	r3, [r3, #12]
 8003e2c:	f003 0340 	and.w	r3, r3, #64	; 0x40
 8003e30:	2b40      	cmp	r3, #64	; 0x40
 8003e32:	d107      	bne.n	8003e44 <HAL_TIM_IRQHandler+0x1dc>
    {
      __HAL_TIM_CLEAR_IT(htim, TIM_IT_TRIGGER);
 8003e34:	687b      	ldr	r3, [r7, #4]
 8003e36:	681b      	ldr	r3, [r3, #0]
 8003e38:	f06f 0240 	mvn.w	r2, #64	; 0x40
 8003e3c:	611a      	str	r2, [r3, #16]
#if (USE_HAL_TIM_REGISTER_CALLBACKS == 1)
      htim->TriggerCallback(htim);
#else
      HAL_TIM_TriggerCallback(htim);
 8003e3e:	6878      	ldr	r0, [r7, #4]
 8003e40:	f000 fa98 	bl	8004374 <HAL_TIM_TriggerCallback>
#endif /* USE_HAL_TIM_REGISTER_CALLBACKS */
    }
  }
  /* TIM commutation event */
  if (__HAL_TIM_GET_FLAG(htim, TIM_FLAG_COM) != RESET)
 8003e44:	687b      	ldr	r3, [r7, #4]
 8003e46:	681b      	ldr	r3, [r3, #0]
 8003e48:	691b      	ldr	r3, [r3, #16]
 8003e4a:	f003 0320 	and.w	r3, r3, #32
 8003e4e:	2b20      	cmp	r3, #32
 8003e50:	d10e      	bne.n	8003e70 <HAL_TIM_IRQHandler+0x208>
  {
    if (__HAL_TIM_GET_IT_SOURCE(htim, TIM_IT_COM) != RESET)
 8003e52:	687b      	ldr	r3, [r7, #4]
 8003e54:	681b      	ldr	r3, [r3, #0]
 8003e56:	68db      	ldr	r3, [r3, #12]
 8003e58:	f003 0320 	and.w	r3, r3, #32
 8003e5c:	2b20      	cmp	r3, #32
 8003e5e:	d107      	bne.n	8003e70 <HAL_TIM_IRQHandler+0x208>
    {
      __HAL_TIM_CLEAR_IT(htim, TIM_FLAG_COM);
 8003e60:	687b      	ldr	r3, [r7, #4]
 8003e62:	681b      	ldr	r3, [r3, #0]
 8003e64:	f06f 0220 	mvn.w	r2, #32
 8003e68:	611a      	str	r2, [r3, #16]
#if (USE_HAL_TIM_REGISTER_CALLBACKS == 1)
      htim->CommutationCallback(htim);
#else
      HAL_TIMEx_CommutCallback(htim);
 8003e6a:	6878      	ldr	r0, [r7, #4]
 8003e6c:	f000 ff94 	bl	8004d98 <HAL_TIMEx_CommutCallback>
#endif /* USE_HAL_TIM_REGISTER_CALLBACKS */
    }
  }
}
 8003e70:	bf00      	nop
 8003e72:	3708      	adds	r7, #8
 8003e74:	46bd      	mov	sp, r7
 8003e76:	bd80      	pop	{r7, pc}

08003e78 <HAL_TIM_IC_ConfigChannel>:
  *            @arg TIM_CHANNEL_3: TIM Channel 3 selected
  *            @arg TIM_CHANNEL_4: TIM Channel 4 selected
  * @retval HAL status
  */
HAL_StatusTypeDef HAL_TIM_IC_ConfigChannel(TIM_HandleTypeDef *htim, TIM_IC_InitTypeDef *sConfig, uint32_t Channel)
{
 8003e78:	b580      	push	{r7, lr}
 8003e7a:	b086      	sub	sp, #24
 8003e7c:	af00      	add	r7, sp, #0
 8003e7e:	60f8      	str	r0, [r7, #12]
 8003e80:	60b9      	str	r1, [r7, #8]
 8003e82:	607a      	str	r2, [r7, #4]
  HAL_StatusTypeDef status = HAL_OK;
 8003e84:	2300      	movs	r3, #0
 8003e86:	75fb      	strb	r3, [r7, #23]
  assert_param(IS_TIM_IC_SELECTION(sConfig->ICSelection));
  assert_param(IS_TIM_IC_PRESCALER(sConfig->ICPrescaler));
  assert_param(IS_TIM_IC_FILTER(sConfig->ICFilter));

  /* Process Locked */
  __HAL_LOCK(htim);
 8003e88:	68fb      	ldr	r3, [r7, #12]
 8003e8a:	f893 303c 	ldrb.w	r3, [r3, #60]	; 0x3c
 8003e8e:	2b01      	cmp	r3, #1
 8003e90:	d101      	bne.n	8003e96 <HAL_TIM_IC_ConfigChannel+0x1e>
 8003e92:	2302      	movs	r3, #2
 8003e94:	e088      	b.n	8003fa8 <HAL_TIM_IC_ConfigChannel+0x130>
 8003e96:	68fb      	ldr	r3, [r7, #12]
 8003e98:	2201      	movs	r2, #1
 8003e9a:	f883 203c 	strb.w	r2, [r3, #60]	; 0x3c

  if (Channel == TIM_CHANNEL_1)
 8003e9e:	687b      	ldr	r3, [r7, #4]
 8003ea0:	2b00      	cmp	r3, #0
 8003ea2:	d11b      	bne.n	8003edc <HAL_TIM_IC_ConfigChannel+0x64>
  {
    /* TI1 Configuration */
    TIM_TI1_SetConfig(htim->Instance,
 8003ea4:	68fb      	ldr	r3, [r7, #12]
 8003ea6:	6818      	ldr	r0, [r3, #0]
 8003ea8:	68bb      	ldr	r3, [r7, #8]
 8003eaa:	6819      	ldr	r1, [r3, #0]
 8003eac:	68bb      	ldr	r3, [r7, #8]
 8003eae:	685a      	ldr	r2, [r3, #4]
 8003eb0:	68bb      	ldr	r3, [r7, #8]
 8003eb2:	68db      	ldr	r3, [r3, #12]
 8003eb4:	f000 fcb8 	bl	8004828 <TIM_TI1_SetConfig>
                      sConfig->ICPolarity,
                      sConfig->ICSelection,
                      sConfig->ICFilter);

    /* Reset the IC1PSC Bits */
    htim->Instance->CCMR1 &= ~TIM_CCMR1_IC1PSC;
 8003eb8:	68fb      	ldr	r3, [r7, #12]
 8003eba:	681b      	ldr	r3, [r3, #0]
 8003ebc:	699a      	ldr	r2, [r3, #24]
 8003ebe:	68fb      	ldr	r3, [r7, #12]
 8003ec0:	681b      	ldr	r3, [r3, #0]
 8003ec2:	f022 020c 	bic.w	r2, r2, #12
 8003ec6:	619a      	str	r2, [r3, #24]

    /* Set the IC1PSC value */
    htim->Instance->CCMR1 |= sConfig->ICPrescaler;
 8003ec8:	68fb      	ldr	r3, [r7, #12]
 8003eca:	681b      	ldr	r3, [r3, #0]
 8003ecc:	6999      	ldr	r1, [r3, #24]
 8003ece:	68bb      	ldr	r3, [r7, #8]
 8003ed0:	689a      	ldr	r2, [r3, #8]
 8003ed2:	68fb      	ldr	r3, [r7, #12]
 8003ed4:	681b      	ldr	r3, [r3, #0]
 8003ed6:	430a      	orrs	r2, r1
 8003ed8:	619a      	str	r2, [r3, #24]
 8003eda:	e060      	b.n	8003f9e <HAL_TIM_IC_ConfigChannel+0x126>
  }
  else if (Channel == TIM_CHANNEL_2)
 8003edc:	687b      	ldr	r3, [r7, #4]
 8003ede:	2b04      	cmp	r3, #4
 8003ee0:	d11c      	bne.n	8003f1c <HAL_TIM_IC_ConfigChannel+0xa4>
  {
    /* TI2 Configuration */
    assert_param(IS_TIM_CC2_INSTANCE(htim->Instance));

    TIM_TI2_SetConfig(htim->Instance,
 8003ee2:	68fb      	ldr	r3, [r7, #12]
 8003ee4:	6818      	ldr	r0, [r3, #0]
 8003ee6:	68bb      	ldr	r3, [r7, #8]
 8003ee8:	6819      	ldr	r1, [r3, #0]
 8003eea:	68bb      	ldr	r3, [r7, #8]
 8003eec:	685a      	ldr	r2, [r3, #4]
 8003eee:	68bb      	ldr	r3, [r7, #8]
 8003ef0:	68db      	ldr	r3, [r3, #12]
 8003ef2:	f000 fd3c 	bl	800496e <TIM_TI2_SetConfig>
                      sConfig->ICPolarity,
                      sConfig->ICSelection,
                      sConfig->ICFilter);

    /* Reset the IC2PSC Bits */
    htim->Instance->CCMR1 &= ~TIM_CCMR1_IC2PSC;
 8003ef6:	68fb      	ldr	r3, [r7, #12]
 8003ef8:	681b      	ldr	r3, [r3, #0]
 8003efa:	699a      	ldr	r2, [r3, #24]
 8003efc:	68fb      	ldr	r3, [r7, #12]
 8003efe:	681b      	ldr	r3, [r3, #0]
 8003f00:	f422 6240 	bic.w	r2, r2, #3072	; 0xc00
 8003f04:	619a      	str	r2, [r3, #24]

    /* Set the IC2PSC value */
    htim->Instance->CCMR1 |= (sConfig->ICPrescaler << 8U);
 8003f06:	68fb      	ldr	r3, [r7, #12]
 8003f08:	681b      	ldr	r3, [r3, #0]
 8003f0a:	6999      	ldr	r1, [r3, #24]
 8003f0c:	68bb      	ldr	r3, [r7, #8]
 8003f0e:	689b      	ldr	r3, [r3, #8]
 8003f10:	021a      	lsls	r2, r3, #8
 8003f12:	68fb      	ldr	r3, [r7, #12]
 8003f14:	681b      	ldr	r3, [r3, #0]
 8003f16:	430a      	orrs	r2, r1
 8003f18:	619a      	str	r2, [r3, #24]
 8003f1a:	e040      	b.n	8003f9e <HAL_TIM_IC_ConfigChannel+0x126>
  }
  else if (Channel == TIM_CHANNEL_3)
 8003f1c:	687b      	ldr	r3, [r7, #4]
 8003f1e:	2b08      	cmp	r3, #8
 8003f20:	d11b      	bne.n	8003f5a <HAL_TIM_IC_ConfigChannel+0xe2>
  {
    /* TI3 Configuration */
    assert_param(IS_TIM_CC3_INSTANCE(htim->Instance));

    TIM_TI3_SetConfig(htim->Instance,
 8003f22:	68fb      	ldr	r3, [r7, #12]
 8003f24:	6818      	ldr	r0, [r3, #0]
 8003f26:	68bb      	ldr	r3, [r7, #8]
 8003f28:	6819      	ldr	r1, [r3, #0]
 8003f2a:	68bb      	ldr	r3, [r7, #8]
 8003f2c:	685a      	ldr	r2, [r3, #4]
 8003f2e:	68bb      	ldr	r3, [r7, #8]
 8003f30:	68db      	ldr	r3, [r3, #12]
 8003f32:	f000 fd89 	bl	8004a48 <TIM_TI3_SetConfig>
                      sConfig->ICPolarity,
                      sConfig->ICSelection,
                      sConfig->ICFilter);

    /* Reset the IC3PSC Bits */
    htim->Instance->CCMR2 &= ~TIM_CCMR2_IC3PSC;
 8003f36:	68fb      	ldr	r3, [r7, #12]
 8003f38:	681b      	ldr	r3, [r3, #0]
 8003f3a:	69da      	ldr	r2, [r3, #28]
 8003f3c:	68fb      	ldr	r3, [r7, #12]
 8003f3e:	681b      	ldr	r3, [r3, #0]
 8003f40:	f022 020c 	bic.w	r2, r2, #12
 8003f44:	61da      	str	r2, [r3, #28]

    /* Set the IC3PSC value */
    htim->Instance->CCMR2 |= sConfig->ICPrescaler;
 8003f46:	68fb      	ldr	r3, [r7, #12]
 8003f48:	681b      	ldr	r3, [r3, #0]
 8003f4a:	69d9      	ldr	r1, [r3, #28]
 8003f4c:	68bb      	ldr	r3, [r7, #8]
 8003f4e:	689a      	ldr	r2, [r3, #8]
 8003f50:	68fb      	ldr	r3, [r7, #12]
 8003f52:	681b      	ldr	r3, [r3, #0]
 8003f54:	430a      	orrs	r2, r1
 8003f56:	61da      	str	r2, [r3, #28]
 8003f58:	e021      	b.n	8003f9e <HAL_TIM_IC_ConfigChannel+0x126>
  }
  else if (Channel == TIM_CHANNEL_4)
 8003f5a:	687b      	ldr	r3, [r7, #4]
 8003f5c:	2b0c      	cmp	r3, #12
 8003f5e:	d11c      	bne.n	8003f9a <HAL_TIM_IC_ConfigChannel+0x122>
  {
    /* TI4 Configuration */
    assert_param(IS_TIM_CC4_INSTANCE(htim->Instance));

    TIM_TI4_SetConfig(htim->Instance,
 8003f60:	68fb      	ldr	r3, [r7, #12]
 8003f62:	6818      	ldr	r0, [r3, #0]
 8003f64:	68bb      	ldr	r3, [r7, #8]
 8003f66:	6819      	ldr	r1, [r3, #0]
 8003f68:	68bb      	ldr	r3, [r7, #8]
 8003f6a:	685a      	ldr	r2, [r3, #4]
 8003f6c:	68bb      	ldr	r3, [r7, #8]
 8003f6e:	68db      	ldr	r3, [r3, #12]
 8003f70:	f000 fda6 	bl	8004ac0 <TIM_TI4_SetConfig>
                      sConfig->ICPolarity,
                      sConfig->ICSelection,
                      sConfig->ICFilter);

    /* Reset the IC4PSC Bits */
    htim->Instance->CCMR2 &= ~TIM_CCMR2_IC4PSC;
 8003f74:	68fb      	ldr	r3, [r7, #12]
 8003f76:	681b      	ldr	r3, [r3, #0]
 8003f78:	69da      	ldr	r2, [r3, #28]
 8003f7a:	68fb      	ldr	r3, [r7, #12]
 8003f7c:	681b      	ldr	r3, [r3, #0]
 8003f7e:	f422 6240 	bic.w	r2, r2, #3072	; 0xc00
 8003f82:	61da      	str	r2, [r3, #28]

    /* Set the IC4PSC value */
    htim->Instance->CCMR2 |= (sConfig->ICPrescaler << 8U);
 8003f84:	68fb      	ldr	r3, [r7, #12]
 8003f86:	681b      	ldr	r3, [r3, #0]
 8003f88:	69d9      	ldr	r1, [r3, #28]
 8003f8a:	68bb      	ldr	r3, [r7, #8]
 8003f8c:	689b      	ldr	r3, [r3, #8]
 8003f8e:	021a      	lsls	r2, r3, #8
 8003f90:	68fb      	ldr	r3, [r7, #12]
 8003f92:	681b      	ldr	r3, [r3, #0]
 8003f94:	430a      	orrs	r2, r1
 8003f96:	61da      	str	r2, [r3, #28]
 8003f98:	e001      	b.n	8003f9e <HAL_TIM_IC_ConfigChannel+0x126>
  }
  else
  {
    status = HAL_ERROR;
 8003f9a:	2301      	movs	r3, #1
 8003f9c:	75fb      	strb	r3, [r7, #23]
  }

  __HAL_UNLOCK(htim);
 8003f9e:	68fb      	ldr	r3, [r7, #12]
 8003fa0:	2200      	movs	r2, #0
 8003fa2:	f883 203c 	strb.w	r2, [r3, #60]	; 0x3c

  return status;
 8003fa6:	7dfb      	ldrb	r3, [r7, #23]
}
 8003fa8:	4618      	mov	r0, r3
 8003faa:	3718      	adds	r7, #24
 8003fac:	46bd      	mov	sp, r7
 8003fae:	bd80      	pop	{r7, pc}

08003fb0 <HAL_TIM_PWM_ConfigChannel>:
  * @retval HAL status
  */
HAL_StatusTypeDef HAL_TIM_PWM_ConfigChannel(TIM_HandleTypeDef *htim,
                                            TIM_OC_InitTypeDef *sConfig,
                                            uint32_t Channel)
{
 8003fb0:	b580      	push	{r7, lr}
 8003fb2:	b086      	sub	sp, #24
 8003fb4:	af00      	add	r7, sp, #0
 8003fb6:	60f8      	str	r0, [r7, #12]
 8003fb8:	60b9      	str	r1, [r7, #8]
 8003fba:	607a      	str	r2, [r7, #4]
  HAL_StatusTypeDef status = HAL_OK;
 8003fbc:	2300      	movs	r3, #0
 8003fbe:	75fb      	strb	r3, [r7, #23]
  assert_param(IS_TIM_PWM_MODE(sConfig->OCMode));
  assert_param(IS_TIM_OC_POLARITY(sConfig->OCPolarity));
  assert_param(IS_TIM_FAST_STATE(sConfig->OCFastMode));

  /* Process Locked */
  __HAL_LOCK(htim);
 8003fc0:	68fb      	ldr	r3, [r7, #12]
 8003fc2:	f893 303c 	ldrb.w	r3, [r3, #60]	; 0x3c
 8003fc6:	2b01      	cmp	r3, #1
 8003fc8:	d101      	bne.n	8003fce <HAL_TIM_PWM_ConfigChannel+0x1e>
 8003fca:	2302      	movs	r3, #2
 8003fcc:	e0ae      	b.n	800412c <HAL_TIM_PWM_ConfigChannel+0x17c>
 8003fce:	68fb      	ldr	r3, [r7, #12]
 8003fd0:	2201      	movs	r2, #1
 8003fd2:	f883 203c 	strb.w	r2, [r3, #60]	; 0x3c
 8003fd6:	687b      	ldr	r3, [r7, #4]
 8003fd8:	2b0c      	cmp	r3, #12
 8003fda:	f200 809f 	bhi.w	800411c <HAL_TIM_PWM_ConfigChannel+0x16c>
 8003fde:	a201      	add	r2, pc, #4	; (adr r2, 8003fe4 <HAL_TIM_PWM_ConfigChannel+0x34>)
 8003fe0:	f852 f023 	ldr.w	pc, [r2, r3, lsl #2]
 8003fe4:	08004019 	.word	0x08004019
 8003fe8:	0800411d 	.word	0x0800411d
 8003fec:	0800411d 	.word	0x0800411d
 8003ff0:	0800411d 	.word	0x0800411d
 8003ff4:	08004059 	.word	0x08004059
 8003ff8:	0800411d 	.word	0x0800411d
 8003ffc:	0800411d 	.word	0x0800411d
 8004000:	0800411d 	.word	0x0800411d
 8004004:	0800409b 	.word	0x0800409b
 8004008:	0800411d 	.word	0x0800411d
 800400c:	0800411d 	.word	0x0800411d
 8004010:	0800411d 	.word	0x0800411d
 8004014:	080040db 	.word	0x080040db
    {
      /* Check the parameters */
      assert_param(IS_TIM_CC1_INSTANCE(htim->Instance));

      /* Configure the Channel 1 in PWM mode */
      TIM_OC1_SetConfig(htim->Instance, sConfig);
 8004018:	68fb      	ldr	r3, [r7, #12]
 800401a:	681b      	ldr	r3, [r3, #0]
 800401c:	68b9      	ldr	r1, [r7, #8]
 800401e:	4618      	mov	r0, r3
 8004020:	f000 fa52 	bl	80044c8 <TIM_OC1_SetConfig>

      /* Set the Preload enable bit for channel1 */
      htim->Instance->CCMR1 |= TIM_CCMR1_OC1PE;
 8004024:	68fb      	ldr	r3, [r7, #12]
 8004026:	681b      	ldr	r3, [r3, #0]
 8004028:	699a      	ldr	r2, [r3, #24]
 800402a:	68fb      	ldr	r3, [r7, #12]
 800402c:	681b      	ldr	r3, [r3, #0]
 800402e:	f042 0208 	orr.w	r2, r2, #8
 8004032:	619a      	str	r2, [r3, #24]

      /* Configure the Output Fast mode */
      htim->Instance->CCMR1 &= ~TIM_CCMR1_OC1FE;
 8004034:	68fb      	ldr	r3, [r7, #12]
 8004036:	681b      	ldr	r3, [r3, #0]
 8004038:	699a      	ldr	r2, [r3, #24]
 800403a:	68fb      	ldr	r3, [r7, #12]
 800403c:	681b      	ldr	r3, [r3, #0]
 800403e:	f022 0204 	bic.w	r2, r2, #4
 8004042:	619a      	str	r2, [r3, #24]
      htim->Instance->CCMR1 |= sConfig->OCFastMode;
 8004044:	68fb      	ldr	r3, [r7, #12]
 8004046:	681b      	ldr	r3, [r3, #0]
 8004048:	6999      	ldr	r1, [r3, #24]
 800404a:	68bb      	ldr	r3, [r7, #8]
 800404c:	691a      	ldr	r2, [r3, #16]
 800404e:	68fb      	ldr	r3, [r7, #12]
 8004050:	681b      	ldr	r3, [r3, #0]
 8004052:	430a      	orrs	r2, r1
 8004054:	619a      	str	r2, [r3, #24]
      break;
 8004056:	e064      	b.n	8004122 <HAL_TIM_PWM_ConfigChannel+0x172>
    {
      /* Check the parameters */
      assert_param(IS_TIM_CC2_INSTANCE(htim->Instance));

      /* Configure the Channel 2 in PWM mode */
      TIM_OC2_SetConfig(htim->Instance, sConfig);
 8004058:	68fb      	ldr	r3, [r7, #12]
 800405a:	681b      	ldr	r3, [r3, #0]
 800405c:	68b9      	ldr	r1, [r7, #8]
 800405e:	4618      	mov	r0, r3
 8004060:	f000 faa2 	bl	80045a8 <TIM_OC2_SetConfig>

      /* Set the Preload enable bit for channel2 */
      htim->Instance->CCMR1 |= TIM_CCMR1_OC2PE;
 8004064:	68fb      	ldr	r3, [r7, #12]
 8004066:	681b      	ldr	r3, [r3, #0]
 8004068:	699a      	ldr	r2, [r3, #24]
 800406a:	68fb      	ldr	r3, [r7, #12]
 800406c:	681b      	ldr	r3, [r3, #0]
 800406e:	f442 6200 	orr.w	r2, r2, #2048	; 0x800
 8004072:	619a      	str	r2, [r3, #24]

      /* Configure the Output Fast mode */
      htim->Instance->CCMR1 &= ~TIM_CCMR1_OC2FE;
 8004074:	68fb      	ldr	r3, [r7, #12]
 8004076:	681b      	ldr	r3, [r3, #0]
 8004078:	699a      	ldr	r2, [r3, #24]
 800407a:	68fb      	ldr	r3, [r7, #12]
 800407c:	681b      	ldr	r3, [r3, #0]
 800407e:	f422 6280 	bic.w	r2, r2, #1024	; 0x400
 8004082:	619a      	str	r2, [r3, #24]
      htim->Instance->CCMR1 |= sConfig->OCFastMode << 8U;
 8004084:	68fb      	ldr	r3, [r7, #12]
 8004086:	681b      	ldr	r3, [r3, #0]
 8004088:	6999      	ldr	r1, [r3, #24]
 800408a:	68bb      	ldr	r3, [r7, #8]
 800408c:	691b      	ldr	r3, [r3, #16]
 800408e:	021a      	lsls	r2, r3, #8
 8004090:	68fb      	ldr	r3, [r7, #12]
 8004092:	681b      	ldr	r3, [r3, #0]
 8004094:	430a      	orrs	r2, r1
 8004096:	619a      	str	r2, [r3, #24]
      break;
 8004098:	e043      	b.n	8004122 <HAL_TIM_PWM_ConfigChannel+0x172>
    {
      /* Check the parameters */
      assert_param(IS_TIM_CC3_INSTANCE(htim->Instance));

      /* Configure the Channel 3 in PWM mode */
      TIM_OC3_SetConfig(htim->Instance, sConfig);
 800409a:	68fb      	ldr	r3, [r7, #12]
 800409c:	681b      	ldr	r3, [r3, #0]
 800409e:	68b9      	ldr	r1, [r7, #8]
 80040a0:	4618      	mov	r0, r3
 80040a2:	f000 faf7 	bl	8004694 <TIM_OC3_SetConfig>

      /* Set the Preload enable bit for channel3 */
      htim->Instance->CCMR2 |= TIM_CCMR2_OC3PE;
 80040a6:	68fb      	ldr	r3, [r7, #12]
 80040a8:	681b      	ldr	r3, [r3, #0]
 80040aa:	69da      	ldr	r2, [r3, #28]
 80040ac:	68fb      	ldr	r3, [r7, #12]
 80040ae:	681b      	ldr	r3, [r3, #0]
 80040b0:	f042 0208 	orr.w	r2, r2, #8
 80040b4:	61da      	str	r2, [r3, #28]

      /* Configure the Output Fast mode */
      htim->Instance->CCMR2 &= ~TIM_CCMR2_OC3FE;
 80040b6:	68fb      	ldr	r3, [r7, #12]
 80040b8:	681b      	ldr	r3, [r3, #0]
 80040ba:	69da      	ldr	r2, [r3, #28]
 80040bc:	68fb      	ldr	r3, [r7, #12]
 80040be:	681b      	ldr	r3, [r3, #0]
 80040c0:	f022 0204 	bic.w	r2, r2, #4
 80040c4:	61da      	str	r2, [r3, #28]
      htim->Instance->CCMR2 |= sConfig->OCFastMode;
 80040c6:	68fb      	ldr	r3, [r7, #12]
 80040c8:	681b      	ldr	r3, [r3, #0]
 80040ca:	69d9      	ldr	r1, [r3, #28]
 80040cc:	68bb      	ldr	r3, [r7, #8]
 80040ce:	691a      	ldr	r2, [r3, #16]
 80040d0:	68fb      	ldr	r3, [r7, #12]
 80040d2:	681b      	ldr	r3, [r3, #0]
 80040d4:	430a      	orrs	r2, r1
 80040d6:	61da      	str	r2, [r3, #28]
      break;
 80040d8:	e023      	b.n	8004122 <HAL_TIM_PWM_ConfigChannel+0x172>
    {
      /* Check the parameters */
      assert_param(IS_TIM_CC4_INSTANCE(htim->Instance));

      /* Configure the Channel 4 in PWM mode */
      TIM_OC4_SetConfig(htim->Instance, sConfig);
 80040da:	68fb      	ldr	r3, [r7, #12]
 80040dc:	681b      	ldr	r3, [r3, #0]
 80040de:	68b9      	ldr	r1, [r7, #8]
 80040e0:	4618      	mov	r0, r3
 80040e2:	f000 fb4b 	bl	800477c <TIM_OC4_SetConfig>

      /* Set the Preload enable bit for channel4 */
      htim->Instance->CCMR2 |= TIM_CCMR2_OC4PE;
 80040e6:	68fb      	ldr	r3, [r7, #12]
 80040e8:	681b      	ldr	r3, [r3, #0]
 80040ea:	69da      	ldr	r2, [r3, #28]
 80040ec:	68fb      	ldr	r3, [r7, #12]
 80040ee:	681b      	ldr	r3, [r3, #0]
 80040f0:	f442 6200 	orr.w	r2, r2, #2048	; 0x800
 80040f4:	61da      	str	r2, [r3, #28]

      /* Configure the Output Fast mode */
      htim->Instance->CCMR2 &= ~TIM_CCMR2_OC4FE;
 80040f6:	68fb      	ldr	r3, [r7, #12]
 80040f8:	681b      	ldr	r3, [r3, #0]
 80040fa:	69da      	ldr	r2, [r3, #28]
 80040fc:	68fb      	ldr	r3, [r7, #12]
 80040fe:	681b      	ldr	r3, [r3, #0]
 8004100:	f422 6280 	bic.w	r2, r2, #1024	; 0x400
 8004104:	61da      	str	r2, [r3, #28]
      htim->Instance->CCMR2 |= sConfig->OCFastMode << 8U;
 8004106:	68fb      	ldr	r3, [r7, #12]
 8004108:	681b      	ldr	r3, [r3, #0]
 800410a:	69d9      	ldr	r1, [r3, #28]
 800410c:	68bb      	ldr	r3, [r7, #8]
 800410e:	691b      	ldr	r3, [r3, #16]
 8004110:	021a      	lsls	r2, r3, #8
 8004112:	68fb      	ldr	r3, [r7, #12]
 8004114:	681b      	ldr	r3, [r3, #0]
 8004116:	430a      	orrs	r2, r1
 8004118:	61da      	str	r2, [r3, #28]
      break;
 800411a:	e002      	b.n	8004122 <HAL_TIM_PWM_ConfigChannel+0x172>
    }

    default:
      status = HAL_ERROR;
 800411c:	2301      	movs	r3, #1
 800411e:	75fb      	strb	r3, [r7, #23]
      break;
 8004120:	bf00      	nop
  }

  __HAL_UNLOCK(htim);
 8004122:	68fb      	ldr	r3, [r7, #12]
 8004124:	2200      	movs	r2, #0
 8004126:	f883 203c 	strb.w	r2, [r3, #60]	; 0x3c

  return status;
 800412a:	7dfb      	ldrb	r3, [r7, #23]
}
 800412c:	4618      	mov	r0, r3
 800412e:	3718      	adds	r7, #24
 8004130:	46bd      	mov	sp, r7
 8004132:	bd80      	pop	{r7, pc}

08004134 <HAL_TIM_ConfigClockSource>:
  * @param  sClockSourceConfig pointer to a TIM_ClockConfigTypeDef structure that
  *         contains the clock source information for the TIM peripheral.
  * @retval HAL status
  */
HAL_StatusTypeDef HAL_TIM_ConfigClockSource(TIM_HandleTypeDef *htim, TIM_ClockConfigTypeDef *sClockSourceConfig)
{
 8004134:	b580      	push	{r7, lr}
 8004136:	b084      	sub	sp, #16
 8004138:	af00      	add	r7, sp, #0
 800413a:	6078      	str	r0, [r7, #4]
 800413c:	6039      	str	r1, [r7, #0]
  HAL_StatusTypeDef status = HAL_OK;
 800413e:	2300      	movs	r3, #0
 8004140:	73fb      	strb	r3, [r7, #15]
  uint32_t tmpsmcr;

  /* Process Locked */
  __HAL_LOCK(htim);
 8004142:	687b      	ldr	r3, [r7, #4]
 8004144:	f893 303c 	ldrb.w	r3, [r3, #60]	; 0x3c
 8004148:	2b01      	cmp	r3, #1
 800414a:	d101      	bne.n	8004150 <HAL_TIM_ConfigClockSource+0x1c>
 800414c:	2302      	movs	r3, #2
 800414e:	e0b4      	b.n	80042ba <HAL_TIM_ConfigClockSource+0x186>
 8004150:	687b      	ldr	r3, [r7, #4]
 8004152:	2201      	movs	r2, #1
 8004154:	f883 203c 	strb.w	r2, [r3, #60]	; 0x3c

  htim->State = HAL_TIM_STATE_BUSY;
 8004158:	687b      	ldr	r3, [r7, #4]
 800415a:	2202      	movs	r2, #2
 800415c:	f883 203d 	strb.w	r2, [r3, #61]	; 0x3d

  /* Check the parameters */
  assert_param(IS_TIM_CLOCKSOURCE(sClockSourceConfig->ClockSource));

  /* Reset the SMS, TS, ECE, ETPS and ETRF bits */
  tmpsmcr = htim->Instance->SMCR;
 8004160:	687b      	ldr	r3, [r7, #4]
 8004162:	681b      	ldr	r3, [r3, #0]
 8004164:	689b      	ldr	r3, [r3, #8]
 8004166:	60bb      	str	r3, [r7, #8]
  tmpsmcr &= ~(TIM_SMCR_SMS | TIM_SMCR_TS);
 8004168:	68bb      	ldr	r3, [r7, #8]
 800416a:	f023 0377 	bic.w	r3, r3, #119	; 0x77
 800416e:	60bb      	str	r3, [r7, #8]
  tmpsmcr &= ~(TIM_SMCR_ETF | TIM_SMCR_ETPS | TIM_SMCR_ECE | TIM_SMCR_ETP);
 8004170:	68bb      	ldr	r3, [r7, #8]
 8004172:	f423 437f 	bic.w	r3, r3, #65280	; 0xff00
 8004176:	60bb      	str	r3, [r7, #8]
  htim->Instance->SMCR = tmpsmcr;
 8004178:	687b      	ldr	r3, [r7, #4]
 800417a:	681b      	ldr	r3, [r3, #0]
 800417c:	68ba      	ldr	r2, [r7, #8]
 800417e:	609a      	str	r2, [r3, #8]

  switch (sClockSourceConfig->ClockSource)
 8004180:	683b      	ldr	r3, [r7, #0]
 8004182:	681b      	ldr	r3, [r3, #0]
 8004184:	f5b3 5f00 	cmp.w	r3, #8192	; 0x2000
 8004188:	d03e      	beq.n	8004208 <HAL_TIM_ConfigClockSource+0xd4>
 800418a:	f5b3 5f00 	cmp.w	r3, #8192	; 0x2000
 800418e:	f200 8087 	bhi.w	80042a0 <HAL_TIM_ConfigClockSource+0x16c>
 8004192:	f5b3 5f80 	cmp.w	r3, #4096	; 0x1000
 8004196:	f000 8086 	beq.w	80042a6 <HAL_TIM_ConfigClockSource+0x172>
 800419a:	f5b3 5f80 	cmp.w	r3, #4096	; 0x1000
 800419e:	d87f      	bhi.n	80042a0 <HAL_TIM_ConfigClockSource+0x16c>
 80041a0:	2b70      	cmp	r3, #112	; 0x70
 80041a2:	d01a      	beq.n	80041da <HAL_TIM_ConfigClockSource+0xa6>
 80041a4:	2b70      	cmp	r3, #112	; 0x70
 80041a6:	d87b      	bhi.n	80042a0 <HAL_TIM_ConfigClockSource+0x16c>
 80041a8:	2b60      	cmp	r3, #96	; 0x60
 80041aa:	d050      	beq.n	800424e <HAL_TIM_ConfigClockSource+0x11a>
 80041ac:	2b60      	cmp	r3, #96	; 0x60
 80041ae:	d877      	bhi.n	80042a0 <HAL_TIM_ConfigClockSource+0x16c>
 80041b0:	2b50      	cmp	r3, #80	; 0x50
 80041b2:	d03c      	beq.n	800422e <HAL_TIM_ConfigClockSource+0xfa>
 80041b4:	2b50      	cmp	r3, #80	; 0x50
 80041b6:	d873      	bhi.n	80042a0 <HAL_TIM_ConfigClockSource+0x16c>
 80041b8:	2b40      	cmp	r3, #64	; 0x40
 80041ba:	d058      	beq.n	800426e <HAL_TIM_ConfigClockSource+0x13a>
 80041bc:	2b40      	cmp	r3, #64	; 0x40
 80041be:	d86f      	bhi.n	80042a0 <HAL_TIM_ConfigClockSource+0x16c>
 80041c0:	2b30      	cmp	r3, #48	; 0x30
 80041c2:	d064      	beq.n	800428e <HAL_TIM_ConfigClockSource+0x15a>
 80041c4:	2b30      	cmp	r3, #48	; 0x30
 80041c6:	d86b      	bhi.n	80042a0 <HAL_TIM_ConfigClockSource+0x16c>
 80041c8:	2b20      	cmp	r3, #32
 80041ca:	d060      	beq.n	800428e <HAL_TIM_ConfigClockSource+0x15a>
 80041cc:	2b20      	cmp	r3, #32
 80041ce:	d867      	bhi.n	80042a0 <HAL_TIM_ConfigClockSource+0x16c>
 80041d0:	2b00      	cmp	r3, #0
 80041d2:	d05c      	beq.n	800428e <HAL_TIM_ConfigClockSource+0x15a>
 80041d4:	2b10      	cmp	r3, #16
 80041d6:	d05a      	beq.n	800428e <HAL_TIM_ConfigClockSource+0x15a>
 80041d8:	e062      	b.n	80042a0 <HAL_TIM_ConfigClockSource+0x16c>
      assert_param(IS_TIM_CLOCKPRESCALER(sClockSourceConfig->ClockPrescaler));
      assert_param(IS_TIM_CLOCKPOLARITY(sClockSourceConfig->ClockPolarity));
      assert_param(IS_TIM_CLOCKFILTER(sClockSourceConfig->ClockFilter));

      /* Configure the ETR Clock source */
      TIM_ETR_SetConfig(htim->Instance,
 80041da:	687b      	ldr	r3, [r7, #4]
 80041dc:	6818      	ldr	r0, [r3, #0]
 80041de:	683b      	ldr	r3, [r7, #0]
 80041e0:	6899      	ldr	r1, [r3, #8]
 80041e2:	683b      	ldr	r3, [r7, #0]
 80041e4:	685a      	ldr	r2, [r3, #4]
 80041e6:	683b      	ldr	r3, [r7, #0]
 80041e8:	68db      	ldr	r3, [r3, #12]
 80041ea:	f000 fcc1 	bl	8004b70 <TIM_ETR_SetConfig>
                        sClockSourceConfig->ClockPrescaler,
                        sClockSourceConfig->ClockPolarity,
                        sClockSourceConfig->ClockFilter);

      /* Select the External clock mode1 and the ETRF trigger */
      tmpsmcr = htim->Instance->SMCR;
 80041ee:	687b      	ldr	r3, [r7, #4]
 80041f0:	681b      	ldr	r3, [r3, #0]
 80041f2:	689b      	ldr	r3, [r3, #8]
 80041f4:	60bb      	str	r3, [r7, #8]
      tmpsmcr |= (TIM_SLAVEMODE_EXTERNAL1 | TIM_CLOCKSOURCE_ETRMODE1);
 80041f6:	68bb      	ldr	r3, [r7, #8]
 80041f8:	f043 0377 	orr.w	r3, r3, #119	; 0x77
 80041fc:	60bb      	str	r3, [r7, #8]
      /* Write to TIMx SMCR */
      htim->Instance->SMCR = tmpsmcr;
 80041fe:	687b      	ldr	r3, [r7, #4]
 8004200:	681b      	ldr	r3, [r3, #0]
 8004202:	68ba      	ldr	r2, [r7, #8]
 8004204:	609a      	str	r2, [r3, #8]
      break;
 8004206:	e04f      	b.n	80042a8 <HAL_TIM_ConfigClockSource+0x174>
      assert_param(IS_TIM_CLOCKPRESCALER(sClockSourceConfig->ClockPrescaler));
      assert_param(IS_TIM_CLOCKPOLARITY(sClockSourceConfig->ClockPolarity));
      assert_param(IS_TIM_CLOCKFILTER(sClockSourceConfig->ClockFilter));

      /* Configure the ETR Clock source */
      TIM_ETR_SetConfig(htim->Instance,
 8004208:	687b      	ldr	r3, [r7, #4]
 800420a:	6818      	ldr	r0, [r3, #0]
 800420c:	683b      	ldr	r3, [r7, #0]
 800420e:	6899      	ldr	r1, [r3, #8]
 8004210:	683b      	ldr	r3, [r7, #0]
 8004212:	685a      	ldr	r2, [r3, #4]
 8004214:	683b      	ldr	r3, [r7, #0]
 8004216:	68db      	ldr	r3, [r3, #12]
 8004218:	f000 fcaa 	bl	8004b70 <TIM_ETR_SetConfig>
                        sClockSourceConfig->ClockPrescaler,
                        sClockSourceConfig->ClockPolarity,
                        sClockSourceConfig->ClockFilter);
      /* Enable the External clock mode2 */
      htim->Instance->SMCR |= TIM_SMCR_ECE;
 800421c:	687b      	ldr	r3, [r7, #4]
 800421e:	681b      	ldr	r3, [r3, #0]
 8004220:	689a      	ldr	r2, [r3, #8]
 8004222:	687b      	ldr	r3, [r7, #4]
 8004224:	681b      	ldr	r3, [r3, #0]
 8004226:	f442 4280 	orr.w	r2, r2, #16384	; 0x4000
 800422a:	609a      	str	r2, [r3, #8]
      break;
 800422c:	e03c      	b.n	80042a8 <HAL_TIM_ConfigClockSource+0x174>

      /* Check TI1 input conditioning related parameters */
      assert_param(IS_TIM_CLOCKPOLARITY(sClockSourceConfig->ClockPolarity));
      assert_param(IS_TIM_CLOCKFILTER(sClockSourceConfig->ClockFilter));

      TIM_TI1_ConfigInputStage(htim->Instance,
 800422e:	687b      	ldr	r3, [r7, #4]
 8004230:	6818      	ldr	r0, [r3, #0]
 8004232:	683b      	ldr	r3, [r7, #0]
 8004234:	6859      	ldr	r1, [r3, #4]
 8004236:	683b      	ldr	r3, [r7, #0]
 8004238:	68db      	ldr	r3, [r3, #12]
 800423a:	461a      	mov	r2, r3
 800423c:	f000 fb68 	bl	8004910 <TIM_TI1_ConfigInputStage>
                               sClockSourceConfig->ClockPolarity,
                               sClockSourceConfig->ClockFilter);
      TIM_ITRx_SetConfig(htim->Instance, TIM_CLOCKSOURCE_TI1);
 8004240:	687b      	ldr	r3, [r7, #4]
 8004242:	681b      	ldr	r3, [r3, #0]
 8004244:	2150      	movs	r1, #80	; 0x50
 8004246:	4618      	mov	r0, r3
 8004248:	f000 fc77 	bl	8004b3a <TIM_ITRx_SetConfig>
      break;
 800424c:	e02c      	b.n	80042a8 <HAL_TIM_ConfigClockSource+0x174>

      /* Check TI2 input conditioning related parameters */
      assert_param(IS_TIM_CLOCKPOLARITY(sClockSourceConfig->ClockPolarity));
      assert_param(IS_TIM_CLOCKFILTER(sClockSourceConfig->ClockFilter));

      TIM_TI2_ConfigInputStage(htim->Instance,
 800424e:	687b      	ldr	r3, [r7, #4]
 8004250:	6818      	ldr	r0, [r3, #0]
 8004252:	683b      	ldr	r3, [r7, #0]
 8004254:	6859      	ldr	r1, [r3, #4]
 8004256:	683b      	ldr	r3, [r7, #0]
 8004258:	68db      	ldr	r3, [r3, #12]
 800425a:	461a      	mov	r2, r3
 800425c:	f000 fbc4 	bl	80049e8 <TIM_TI2_ConfigInputStage>
                               sClockSourceConfig->ClockPolarity,
                               sClockSourceConfig->ClockFilter);
      TIM_ITRx_SetConfig(htim->Instance, TIM_CLOCKSOURCE_TI2);
 8004260:	687b      	ldr	r3, [r7, #4]
 8004262:	681b      	ldr	r3, [r3, #0]
 8004264:	2160      	movs	r1, #96	; 0x60
 8004266:	4618      	mov	r0, r3
 8004268:	f000 fc67 	bl	8004b3a <TIM_ITRx_SetConfig>
      break;
 800426c:	e01c      	b.n	80042a8 <HAL_TIM_ConfigClockSource+0x174>

      /* Check TI1 input conditioning related parameters */
      assert_param(IS_TIM_CLOCKPOLARITY(sClockSourceConfig->ClockPolarity));
      assert_param(IS_TIM_CLOCKFILTER(sClockSourceConfig->ClockFilter));

      TIM_TI1_ConfigInputStage(htim->Instance,
 800426e:	687b      	ldr	r3, [r7, #4]
 8004270:	6818      	ldr	r0, [r3, #0]
 8004272:	683b      	ldr	r3, [r7, #0]
 8004274:	6859      	ldr	r1, [r3, #4]
 8004276:	683b      	ldr	r3, [r7, #0]
 8004278:	68db      	ldr	r3, [r3, #12]
 800427a:	461a      	mov	r2, r3
 800427c:	f000 fb48 	bl	8004910 <TIM_TI1_ConfigInputStage>
                               sClockSourceConfig->ClockPolarity,
                               sClockSourceConfig->ClockFilter);
      TIM_ITRx_SetConfig(htim->Instance, TIM_CLOCKSOURCE_TI1ED);
 8004280:	687b      	ldr	r3, [r7, #4]
 8004282:	681b      	ldr	r3, [r3, #0]
 8004284:	2140      	movs	r1, #64	; 0x40
 8004286:	4618      	mov	r0, r3
 8004288:	f000 fc57 	bl	8004b3a <TIM_ITRx_SetConfig>
      break;
 800428c:	e00c      	b.n	80042a8 <HAL_TIM_ConfigClockSource+0x174>
    case TIM_CLOCKSOURCE_ITR3:
    {
      /* Check whether or not the timer instance supports internal trigger input */
      assert_param(IS_TIM_CLOCKSOURCE_ITRX_INSTANCE(htim->Instance));

      TIM_ITRx_SetConfig(htim->Instance, sClockSourceConfig->ClockSource);
 800428e:	687b      	ldr	r3, [r7, #4]
 8004290:	681a      	ldr	r2, [r3, #0]
 8004292:	683b      	ldr	r3, [r7, #0]
 8004294:	681b      	ldr	r3, [r3, #0]
 8004296:	4619      	mov	r1, r3
 8004298:	4610      	mov	r0, r2
 800429a:	f000 fc4e 	bl	8004b3a <TIM_ITRx_SetConfig>
      break;
 800429e:	e003      	b.n	80042a8 <HAL_TIM_ConfigClockSource+0x174>
    }

    default:
      status = HAL_ERROR;
 80042a0:	2301      	movs	r3, #1
 80042a2:	73fb      	strb	r3, [r7, #15]
      break;
 80042a4:	e000      	b.n	80042a8 <HAL_TIM_ConfigClockSource+0x174>
      break;
 80042a6:	bf00      	nop
  }
  htim->State = HAL_TIM_STATE_READY;
 80042a8:	687b      	ldr	r3, [r7, #4]
 80042aa:	2201      	movs	r2, #1
 80042ac:	f883 203d 	strb.w	r2, [r3, #61]	; 0x3d

  __HAL_UNLOCK(htim);
 80042b0:	687b      	ldr	r3, [r7, #4]
 80042b2:	2200      	movs	r2, #0
 80042b4:	f883 203c 	strb.w	r2, [r3, #60]	; 0x3c

  return status;
 80042b8:	7bfb      	ldrb	r3, [r7, #15]
}
 80042ba:	4618      	mov	r0, r3
 80042bc:	3710      	adds	r7, #16
 80042be:	46bd      	mov	sp, r7
 80042c0:	bd80      	pop	{r7, pc}
	...

080042c4 <HAL_TIM_ReadCapturedValue>:
  *            @arg TIM_CHANNEL_3: TIM Channel 3 selected
  *            @arg TIM_CHANNEL_4: TIM Channel 4 selected
  * @retval Captured value
  */
uint32_t HAL_TIM_ReadCapturedValue(TIM_HandleTypeDef *htim, uint32_t Channel)
{
 80042c4:	b480      	push	{r7}
 80042c6:	b085      	sub	sp, #20
 80042c8:	af00      	add	r7, sp, #0
 80042ca:	6078      	str	r0, [r7, #4]
 80042cc:	6039      	str	r1, [r7, #0]
  uint32_t tmpreg = 0U;
 80042ce:	2300      	movs	r3, #0
 80042d0:	60fb      	str	r3, [r7, #12]
 80042d2:	683b      	ldr	r3, [r7, #0]
 80042d4:	2b0c      	cmp	r3, #12
 80042d6:	d831      	bhi.n	800433c <HAL_TIM_ReadCapturedValue+0x78>
 80042d8:	a201      	add	r2, pc, #4	; (adr r2, 80042e0 <HAL_TIM_ReadCapturedValue+0x1c>)
 80042da:	f852 f023 	ldr.w	pc, [r2, r3, lsl #2]
 80042de:	bf00      	nop
 80042e0:	08004315 	.word	0x08004315
 80042e4:	0800433d 	.word	0x0800433d
 80042e8:	0800433d 	.word	0x0800433d
 80042ec:	0800433d 	.word	0x0800433d
 80042f0:	0800431f 	.word	0x0800431f
 80042f4:	0800433d 	.word	0x0800433d
 80042f8:	0800433d 	.word	0x0800433d
 80042fc:	0800433d 	.word	0x0800433d
 8004300:	08004329 	.word	0x08004329
 8004304:	0800433d 	.word	0x0800433d
 8004308:	0800433d 	.word	0x0800433d
 800430c:	0800433d 	.word	0x0800433d
 8004310:	08004333 	.word	0x08004333
    {
      /* Check the parameters */
      assert_param(IS_TIM_CC1_INSTANCE(htim->Instance));

      /* Return the capture 1 value */
      tmpreg =  htim->Instance->CCR1;
 8004314:	687b      	ldr	r3, [r7, #4]
 8004316:	681b      	ldr	r3, [r3, #0]
 8004318:	6b5b      	ldr	r3, [r3, #52]	; 0x34
 800431a:	60fb      	str	r3, [r7, #12]

      break;
 800431c:	e00f      	b.n	800433e <HAL_TIM_ReadCapturedValue+0x7a>
    {
      /* Check the parameters */
      assert_param(IS_TIM_CC2_INSTANCE(htim->Instance));

      /* Return the capture 2 value */
      tmpreg =   htim->Instance->CCR2;
 800431e:	687b      	ldr	r3, [r7, #4]
 8004320:	681b      	ldr	r3, [r3, #0]
 8004322:	6b9b      	ldr	r3, [r3, #56]	; 0x38
 8004324:	60fb      	str	r3, [r7, #12]

      break;
 8004326:	e00a      	b.n	800433e <HAL_TIM_ReadCapturedValue+0x7a>
    {
      /* Check the parameters */
      assert_param(IS_TIM_CC3_INSTANCE(htim->Instance));

      /* Return the capture 3 value */
      tmpreg =   htim->Instance->CCR3;
 8004328:	687b      	ldr	r3, [r7, #4]
 800432a:	681b      	ldr	r3, [r3, #0]
 800432c:	6bdb      	ldr	r3, [r3, #60]	; 0x3c
 800432e:	60fb      	str	r3, [r7, #12]

      break;
 8004330:	e005      	b.n	800433e <HAL_TIM_ReadCapturedValue+0x7a>
    {
      /* Check the parameters */
      assert_param(IS_TIM_CC4_INSTANCE(htim->Instance));

      /* Return the capture 4 value */
      tmpreg =   htim->Instance->CCR4;
 8004332:	687b      	ldr	r3, [r7, #4]
 8004334:	681b      	ldr	r3, [r3, #0]
 8004336:	6c1b      	ldr	r3, [r3, #64]	; 0x40
 8004338:	60fb      	str	r3, [r7, #12]

      break;
 800433a:	e000      	b.n	800433e <HAL_TIM_ReadCapturedValue+0x7a>
    }

    default:
      break;
 800433c:	bf00      	nop
  }

  return tmpreg;
 800433e:	68fb      	ldr	r3, [r7, #12]
}
 8004340:	4618      	mov	r0, r3
 8004342:	3714      	adds	r7, #20
 8004344:	46bd      	mov	sp, r7
 8004346:	f85d 7b04 	ldr.w	r7, [sp], #4
 800434a:	4770      	bx	lr

0800434c <HAL_TIM_OC_DelayElapsedCallback>:
  * @brief  Output Compare callback in non-blocking mode
  * @param  htim TIM OC handle
  * @retval None
  */
__weak void HAL_TIM_OC_DelayElapsedCallback(TIM_HandleTypeDef *htim)
{
 800434c:	b480      	push	{r7}
 800434e:	b083      	sub	sp, #12
 8004350:	af00      	add	r7, sp, #0
 8004352:	6078      	str	r0, [r7, #4]
  UNUSED(htim);

  /* NOTE : This function should not be modified, when the callback is needed,
            the HAL_TIM_OC_DelayElapsedCallback could be implemented in the user file
   */
}
 8004354:	bf00      	nop
 8004356:	370c      	adds	r7, #12
 8004358:	46bd      	mov	sp, r7
 800435a:	f85d 7b04 	ldr.w	r7, [sp], #4
 800435e:	4770      	bx	lr

08004360 <HAL_TIM_PWM_PulseFinishedCallback>:
  * @brief  PWM Pulse finished callback in non-blocking mode
  * @param  htim TIM handle
  * @retval None
  */
__weak void HAL_TIM_PWM_PulseFinishedCallback(TIM_HandleTypeDef *htim)
{
 8004360:	b480      	push	{r7}
 8004362:	b083      	sub	sp, #12
 8004364:	af00      	add	r7, sp, #0
 8004366:	6078      	str	r0, [r7, #4]
  UNUSED(htim);

  /* NOTE : This function should not be modified, when the callback is needed,
            the HAL_TIM_PWM_PulseFinishedCallback could be implemented in the user file
   */
}
 8004368:	bf00      	nop
 800436a:	370c      	adds	r7, #12
 800436c:	46bd      	mov	sp, r7
 800436e:	f85d 7b04 	ldr.w	r7, [sp], #4
 8004372:	4770      	bx	lr

08004374 <HAL_TIM_TriggerCallback>:
  * @brief  Hall Trigger detection callback in non-blocking mode
  * @param  htim TIM handle
  * @retval None
  */
__weak void HAL_TIM_TriggerCallback(TIM_HandleTypeDef *htim)
{
 8004374:	b480      	push	{r7}
 8004376:	b083      	sub	sp, #12
 8004378:	af00      	add	r7, sp, #0
 800437a:	6078      	str	r0, [r7, #4]
  UNUSED(htim);

  /* NOTE : This function should not be modified, when the callback is needed,
            the HAL_TIM_TriggerCallback could be implemented in the user file
   */
}
 800437c:	bf00      	nop
 800437e:	370c      	adds	r7, #12
 8004380:	46bd      	mov	sp, r7
 8004382:	f85d 7b04 	ldr.w	r7, [sp], #4
 8004386:	4770      	bx	lr

08004388 <TIM_Base_SetConfig>:
  * @param  TIMx TIM peripheral
  * @param  Structure TIM Base configuration structure
  * @retval None
  */
void TIM_Base_SetConfig(TIM_TypeDef *TIMx, TIM_Base_InitTypeDef *Structure)
{
 8004388:	b480      	push	{r7}
 800438a:	b085      	sub	sp, #20
 800438c:	af00      	add	r7, sp, #0
 800438e:	6078      	str	r0, [r7, #4]
 8004390:	6039      	str	r1, [r7, #0]
  uint32_t tmpcr1;
  tmpcr1 = TIMx->CR1;
 8004392:	687b      	ldr	r3, [r7, #4]
 8004394:	681b      	ldr	r3, [r3, #0]
 8004396:	60fb      	str	r3, [r7, #12]

  /* Set TIM Time Base Unit parameters ---------------------------------------*/
  if (IS_TIM_COUNTER_MODE_SELECT_INSTANCE(TIMx))
 8004398:	687b      	ldr	r3, [r7, #4]
 800439a:	4a40      	ldr	r2, [pc, #256]	; (800449c <TIM_Base_SetConfig+0x114>)
 800439c:	4293      	cmp	r3, r2
 800439e:	d013      	beq.n	80043c8 <TIM_Base_SetConfig+0x40>
 80043a0:	687b      	ldr	r3, [r7, #4]
 80043a2:	f1b3 4f80 	cmp.w	r3, #1073741824	; 0x40000000
 80043a6:	d00f      	beq.n	80043c8 <TIM_Base_SetConfig+0x40>
 80043a8:	687b      	ldr	r3, [r7, #4]
 80043aa:	4a3d      	ldr	r2, [pc, #244]	; (80044a0 <TIM_Base_SetConfig+0x118>)
 80043ac:	4293      	cmp	r3, r2
 80043ae:	d00b      	beq.n	80043c8 <TIM_Base_SetConfig+0x40>
 80043b0:	687b      	ldr	r3, [r7, #4]
 80043b2:	4a3c      	ldr	r2, [pc, #240]	; (80044a4 <TIM_Base_SetConfig+0x11c>)
 80043b4:	4293      	cmp	r3, r2
 80043b6:	d007      	beq.n	80043c8 <TIM_Base_SetConfig+0x40>
 80043b8:	687b      	ldr	r3, [r7, #4]
 80043ba:	4a3b      	ldr	r2, [pc, #236]	; (80044a8 <TIM_Base_SetConfig+0x120>)
 80043bc:	4293      	cmp	r3, r2
 80043be:	d003      	beq.n	80043c8 <TIM_Base_SetConfig+0x40>
 80043c0:	687b      	ldr	r3, [r7, #4]
 80043c2:	4a3a      	ldr	r2, [pc, #232]	; (80044ac <TIM_Base_SetConfig+0x124>)
 80043c4:	4293      	cmp	r3, r2
 80043c6:	d108      	bne.n	80043da <TIM_Base_SetConfig+0x52>
  {
    /* Select the Counter Mode */
    tmpcr1 &= ~(TIM_CR1_DIR | TIM_CR1_CMS);
 80043c8:	68fb      	ldr	r3, [r7, #12]
 80043ca:	f023 0370 	bic.w	r3, r3, #112	; 0x70
 80043ce:	60fb      	str	r3, [r7, #12]
    tmpcr1 |= Structure->CounterMode;
 80043d0:	683b      	ldr	r3, [r7, #0]
 80043d2:	685b      	ldr	r3, [r3, #4]
 80043d4:	68fa      	ldr	r2, [r7, #12]
 80043d6:	4313      	orrs	r3, r2
 80043d8:	60fb      	str	r3, [r7, #12]
  }

  if (IS_TIM_CLOCK_DIVISION_INSTANCE(TIMx))
 80043da:	687b      	ldr	r3, [r7, #4]
 80043dc:	4a2f      	ldr	r2, [pc, #188]	; (800449c <TIM_Base_SetConfig+0x114>)
 80043de:	4293      	cmp	r3, r2
 80043e0:	d02b      	beq.n	800443a <TIM_Base_SetConfig+0xb2>
 80043e2:	687b      	ldr	r3, [r7, #4]
 80043e4:	f1b3 4f80 	cmp.w	r3, #1073741824	; 0x40000000
 80043e8:	d027      	beq.n	800443a <TIM_Base_SetConfig+0xb2>
 80043ea:	687b      	ldr	r3, [r7, #4]
 80043ec:	4a2c      	ldr	r2, [pc, #176]	; (80044a0 <TIM_Base_SetConfig+0x118>)
 80043ee:	4293      	cmp	r3, r2
 80043f0:	d023      	beq.n	800443a <TIM_Base_SetConfig+0xb2>
 80043f2:	687b      	ldr	r3, [r7, #4]
 80043f4:	4a2b      	ldr	r2, [pc, #172]	; (80044a4 <TIM_Base_SetConfig+0x11c>)
 80043f6:	4293      	cmp	r3, r2
 80043f8:	d01f      	beq.n	800443a <TIM_Base_SetConfig+0xb2>
 80043fa:	687b      	ldr	r3, [r7, #4]
 80043fc:	4a2a      	ldr	r2, [pc, #168]	; (80044a8 <TIM_Base_SetConfig+0x120>)
 80043fe:	4293      	cmp	r3, r2
 8004400:	d01b      	beq.n	800443a <TIM_Base_SetConfig+0xb2>
 8004402:	687b      	ldr	r3, [r7, #4]
 8004404:	4a29      	ldr	r2, [pc, #164]	; (80044ac <TIM_Base_SetConfig+0x124>)
 8004406:	4293      	cmp	r3, r2
 8004408:	d017      	beq.n	800443a <TIM_Base_SetConfig+0xb2>
 800440a:	687b      	ldr	r3, [r7, #4]
 800440c:	4a28      	ldr	r2, [pc, #160]	; (80044b0 <TIM_Base_SetConfig+0x128>)
 800440e:	4293      	cmp	r3, r2
 8004410:	d013      	beq.n	800443a <TIM_Base_SetConfig+0xb2>
 8004412:	687b      	ldr	r3, [r7, #4]
 8004414:	4a27      	ldr	r2, [pc, #156]	; (80044b4 <TIM_Base_SetConfig+0x12c>)
 8004416:	4293      	cmp	r3, r2
 8004418:	d00f      	beq.n	800443a <TIM_Base_SetConfig+0xb2>
 800441a:	687b      	ldr	r3, [r7, #4]
 800441c:	4a26      	ldr	r2, [pc, #152]	; (80044b8 <TIM_Base_SetConfig+0x130>)
 800441e:	4293      	cmp	r3, r2
 8004420:	d00b      	beq.n	800443a <TIM_Base_SetConfig+0xb2>
 8004422:	687b      	ldr	r3, [r7, #4]
 8004424:	4a25      	ldr	r2, [pc, #148]	; (80044bc <TIM_Base_SetConfig+0x134>)
 8004426:	4293      	cmp	r3, r2
 8004428:	d007      	beq.n	800443a <TIM_Base_SetConfig+0xb2>
 800442a:	687b      	ldr	r3, [r7, #4]
 800442c:	4a24      	ldr	r2, [pc, #144]	; (80044c0 <TIM_Base_SetConfig+0x138>)
 800442e:	4293      	cmp	r3, r2
 8004430:	d003      	beq.n	800443a <TIM_Base_SetConfig+0xb2>
 8004432:	687b      	ldr	r3, [r7, #4]
 8004434:	4a23      	ldr	r2, [pc, #140]	; (80044c4 <TIM_Base_SetConfig+0x13c>)
 8004436:	4293      	cmp	r3, r2
 8004438:	d108      	bne.n	800444c <TIM_Base_SetConfig+0xc4>
  {
    /* Set the clock division */
    tmpcr1 &= ~TIM_CR1_CKD;
 800443a:	68fb      	ldr	r3, [r7, #12]
 800443c:	f423 7340 	bic.w	r3, r3, #768	; 0x300
 8004440:	60fb      	str	r3, [r7, #12]
    tmpcr1 |= (uint32_t)Structure->ClockDivision;
 8004442:	683b      	ldr	r3, [r7, #0]
 8004444:	68db      	ldr	r3, [r3, #12]
 8004446:	68fa      	ldr	r2, [r7, #12]
 8004448:	4313      	orrs	r3, r2
 800444a:	60fb      	str	r3, [r7, #12]
  }

  /* Set the auto-reload preload */
  MODIFY_REG(tmpcr1, TIM_CR1_ARPE, Structure->AutoReloadPreload);
 800444c:	68fb      	ldr	r3, [r7, #12]
 800444e:	f023 0280 	bic.w	r2, r3, #128	; 0x80
 8004452:	683b      	ldr	r3, [r7, #0]
 8004454:	695b      	ldr	r3, [r3, #20]
 8004456:	4313      	orrs	r3, r2
 8004458:	60fb      	str	r3, [r7, #12]

  TIMx->CR1 = tmpcr1;
 800445a:	687b      	ldr	r3, [r7, #4]
 800445c:	68fa      	ldr	r2, [r7, #12]
 800445e:	601a      	str	r2, [r3, #0]

  /* Set the Autoreload value */
  TIMx->ARR = (uint32_t)Structure->Period ;
 8004460:	683b      	ldr	r3, [r7, #0]
 8004462:	689a      	ldr	r2, [r3, #8]
 8004464:	687b      	ldr	r3, [r7, #4]
 8004466:	62da      	str	r2, [r3, #44]	; 0x2c

  /* Set the Prescaler value */
  TIMx->PSC = Structure->Prescaler;
 8004468:	683b      	ldr	r3, [r7, #0]
 800446a:	681a      	ldr	r2, [r3, #0]
 800446c:	687b      	ldr	r3, [r7, #4]
 800446e:	629a      	str	r2, [r3, #40]	; 0x28

  if (IS_TIM_REPETITION_COUNTER_INSTANCE(TIMx))
 8004470:	687b      	ldr	r3, [r7, #4]
 8004472:	4a0a      	ldr	r2, [pc, #40]	; (800449c <TIM_Base_SetConfig+0x114>)
 8004474:	4293      	cmp	r3, r2
 8004476:	d003      	beq.n	8004480 <TIM_Base_SetConfig+0xf8>
 8004478:	687b      	ldr	r3, [r7, #4]
 800447a:	4a0c      	ldr	r2, [pc, #48]	; (80044ac <TIM_Base_SetConfig+0x124>)
 800447c:	4293      	cmp	r3, r2
 800447e:	d103      	bne.n	8004488 <TIM_Base_SetConfig+0x100>
  {
    /* Set the Repetition Counter value */
    TIMx->RCR = Structure->RepetitionCounter;
 8004480:	683b      	ldr	r3, [r7, #0]
 8004482:	691a      	ldr	r2, [r3, #16]
 8004484:	687b      	ldr	r3, [r7, #4]
 8004486:	631a      	str	r2, [r3, #48]	; 0x30
  }

  /* Generate an update event to reload the Prescaler
     and the repetition counter (only for advanced timer) value immediately */
  TIMx->EGR = TIM_EGR_UG;
 8004488:	687b      	ldr	r3, [r7, #4]
 800448a:	2201      	movs	r2, #1
 800448c:	615a      	str	r2, [r3, #20]
}
 800448e:	bf00      	nop
 8004490:	3714      	adds	r7, #20
 8004492:	46bd      	mov	sp, r7
 8004494:	f85d 7b04 	ldr.w	r7, [sp], #4
 8004498:	4770      	bx	lr
 800449a:	bf00      	nop
 800449c:	40010000 	.word	0x40010000
 80044a0:	40000400 	.word	0x40000400
 80044a4:	40000800 	.word	0x40000800
 80044a8:	40000c00 	.word	0x40000c00
 80044ac:	40010400 	.word	0x40010400
 80044b0:	40014000 	.word	0x40014000
 80044b4:	40014400 	.word	0x40014400
 80044b8:	40014800 	.word	0x40014800
 80044bc:	40001800 	.word	0x40001800
 80044c0:	40001c00 	.word	0x40001c00
 80044c4:	40002000 	.word	0x40002000

080044c8 <TIM_OC1_SetConfig>:
  * @param  TIMx to select the TIM peripheral
  * @param  OC_Config The output configuration structure
  * @retval None
  */
static void TIM_OC1_SetConfig(TIM_TypeDef *TIMx, TIM_OC_InitTypeDef *OC_Config)
{
 80044c8:	b480      	push	{r7}
 80044ca:	b087      	sub	sp, #28
 80044cc:	af00      	add	r7, sp, #0
 80044ce:	6078      	str	r0, [r7, #4]
 80044d0:	6039      	str	r1, [r7, #0]
  uint32_t tmpccmrx;
  uint32_t tmpccer;
  uint32_t tmpcr2;

  /* Disable the Channel 1: Reset the CC1E Bit */
  TIMx->CCER &= ~TIM_CCER_CC1E;
 80044d2:	687b      	ldr	r3, [r7, #4]
 80044d4:	6a1b      	ldr	r3, [r3, #32]
 80044d6:	f023 0201 	bic.w	r2, r3, #1
 80044da:	687b      	ldr	r3, [r7, #4]
 80044dc:	621a      	str	r2, [r3, #32]

  /* Get the TIMx CCER register value */
  tmpccer = TIMx->CCER;
 80044de:	687b      	ldr	r3, [r7, #4]
 80044e0:	6a1b      	ldr	r3, [r3, #32]
 80044e2:	617b      	str	r3, [r7, #20]
  /* Get the TIMx CR2 register value */
  tmpcr2 =  TIMx->CR2;
 80044e4:	687b      	ldr	r3, [r7, #4]
 80044e6:	685b      	ldr	r3, [r3, #4]
 80044e8:	613b      	str	r3, [r7, #16]

  /* Get the TIMx CCMR1 register value */
  tmpccmrx = TIMx->CCMR1;
 80044ea:	687b      	ldr	r3, [r7, #4]
 80044ec:	699b      	ldr	r3, [r3, #24]
 80044ee:	60fb      	str	r3, [r7, #12]

  /* Reset the Output Compare Mode Bits */
  tmpccmrx &= ~TIM_CCMR1_OC1M;
 80044f0:	68fb      	ldr	r3, [r7, #12]
 80044f2:	f023 0370 	bic.w	r3, r3, #112	; 0x70
 80044f6:	60fb      	str	r3, [r7, #12]
  tmpccmrx &= ~TIM_CCMR1_CC1S;
 80044f8:	68fb      	ldr	r3, [r7, #12]
 80044fa:	f023 0303 	bic.w	r3, r3, #3
 80044fe:	60fb      	str	r3, [r7, #12]
  /* Select the Output Compare Mode */
  tmpccmrx |= OC_Config->OCMode;
 8004500:	683b      	ldr	r3, [r7, #0]
 8004502:	681b      	ldr	r3, [r3, #0]
 8004504:	68fa      	ldr	r2, [r7, #12]
 8004506:	4313      	orrs	r3, r2
 8004508:	60fb      	str	r3, [r7, #12]

  /* Reset the Output Polarity level */
  tmpccer &= ~TIM_CCER_CC1P;
 800450a:	697b      	ldr	r3, [r7, #20]
 800450c:	f023 0302 	bic.w	r3, r3, #2
 8004510:	617b      	str	r3, [r7, #20]
  /* Set the Output Compare Polarity */
  tmpccer |= OC_Config->OCPolarity;
 8004512:	683b      	ldr	r3, [r7, #0]
 8004514:	689b      	ldr	r3, [r3, #8]
 8004516:	697a      	ldr	r2, [r7, #20]
 8004518:	4313      	orrs	r3, r2
 800451a:	617b      	str	r3, [r7, #20]

  if (IS_TIM_CCXN_INSTANCE(TIMx, TIM_CHANNEL_1))
 800451c:	687b      	ldr	r3, [r7, #4]
 800451e:	4a20      	ldr	r2, [pc, #128]	; (80045a0 <TIM_OC1_SetConfig+0xd8>)
 8004520:	4293      	cmp	r3, r2
 8004522:	d003      	beq.n	800452c <TIM_OC1_SetConfig+0x64>
 8004524:	687b      	ldr	r3, [r7, #4]
 8004526:	4a1f      	ldr	r2, [pc, #124]	; (80045a4 <TIM_OC1_SetConfig+0xdc>)
 8004528:	4293      	cmp	r3, r2
 800452a:	d10c      	bne.n	8004546 <TIM_OC1_SetConfig+0x7e>
  {
    /* Check parameters */
    assert_param(IS_TIM_OCN_POLARITY(OC_Config->OCNPolarity));

    /* Reset the Output N Polarity level */
    tmpccer &= ~TIM_CCER_CC1NP;
 800452c:	697b      	ldr	r3, [r7, #20]
 800452e:	f023 0308 	bic.w	r3, r3, #8
 8004532:	617b      	str	r3, [r7, #20]
    /* Set the Output N Polarity */
    tmpccer |= OC_Config->OCNPolarity;
 8004534:	683b      	ldr	r3, [r7, #0]
 8004536:	68db      	ldr	r3, [r3, #12]
 8004538:	697a      	ldr	r2, [r7, #20]
 800453a:	4313      	orrs	r3, r2
 800453c:	617b      	str	r3, [r7, #20]
    /* Reset the Output N State */
    tmpccer &= ~TIM_CCER_CC1NE;
 800453e:	697b      	ldr	r3, [r7, #20]
 8004540:	f023 0304 	bic.w	r3, r3, #4
 8004544:	617b      	str	r3, [r7, #20]
  }

  if (IS_TIM_BREAK_INSTANCE(TIMx))
 8004546:	687b      	ldr	r3, [r7, #4]
 8004548:	4a15      	ldr	r2, [pc, #84]	; (80045a0 <TIM_OC1_SetConfig+0xd8>)
 800454a:	4293      	cmp	r3, r2
 800454c:	d003      	beq.n	8004556 <TIM_OC1_SetConfig+0x8e>
 800454e:	687b      	ldr	r3, [r7, #4]
 8004550:	4a14      	ldr	r2, [pc, #80]	; (80045a4 <TIM_OC1_SetConfig+0xdc>)
 8004552:	4293      	cmp	r3, r2
 8004554:	d111      	bne.n	800457a <TIM_OC1_SetConfig+0xb2>
    /* Check parameters */
    assert_param(IS_TIM_OCNIDLE_STATE(OC_Config->OCNIdleState));
    assert_param(IS_TIM_OCIDLE_STATE(OC_Config->OCIdleState));

    /* Reset the Output Compare and Output Compare N IDLE State */
    tmpcr2 &= ~TIM_CR2_OIS1;
 8004556:	693b      	ldr	r3, [r7, #16]
 8004558:	f423 7380 	bic.w	r3, r3, #256	; 0x100
 800455c:	613b      	str	r3, [r7, #16]
    tmpcr2 &= ~TIM_CR2_OIS1N;
 800455e:	693b      	ldr	r3, [r7, #16]
 8004560:	f423 7300 	bic.w	r3, r3, #512	; 0x200
 8004564:	613b      	str	r3, [r7, #16]
    /* Set the Output Idle state */
    tmpcr2 |= OC_Config->OCIdleState;
 8004566:	683b      	ldr	r3, [r7, #0]
 8004568:	695b      	ldr	r3, [r3, #20]
 800456a:	693a      	ldr	r2, [r7, #16]
 800456c:	4313      	orrs	r3, r2
 800456e:	613b      	str	r3, [r7, #16]
    /* Set the Output N Idle state */
    tmpcr2 |= OC_Config->OCNIdleState;
 8004570:	683b      	ldr	r3, [r7, #0]
 8004572:	699b      	ldr	r3, [r3, #24]
 8004574:	693a      	ldr	r2, [r7, #16]
 8004576:	4313      	orrs	r3, r2
 8004578:	613b      	str	r3, [r7, #16]
  }

  /* Write to TIMx CR2 */
  TIMx->CR2 = tmpcr2;
 800457a:	687b      	ldr	r3, [r7, #4]
 800457c:	693a      	ldr	r2, [r7, #16]
 800457e:	605a      	str	r2, [r3, #4]

  /* Write to TIMx CCMR1 */
  TIMx->CCMR1 = tmpccmrx;
 8004580:	687b      	ldr	r3, [r7, #4]
 8004582:	68fa      	ldr	r2, [r7, #12]
 8004584:	619a      	str	r2, [r3, #24]

  /* Set the Capture Compare Register value */
  TIMx->CCR1 = OC_Config->Pulse;
 8004586:	683b      	ldr	r3, [r7, #0]
 8004588:	685a      	ldr	r2, [r3, #4]
 800458a:	687b      	ldr	r3, [r7, #4]
 800458c:	635a      	str	r2, [r3, #52]	; 0x34

  /* Write to TIMx CCER */
  TIMx->CCER = tmpccer;
 800458e:	687b      	ldr	r3, [r7, #4]
 8004590:	697a      	ldr	r2, [r7, #20]
 8004592:	621a      	str	r2, [r3, #32]
}
 8004594:	bf00      	nop
 8004596:	371c      	adds	r7, #28
 8004598:	46bd      	mov	sp, r7
 800459a:	f85d 7b04 	ldr.w	r7, [sp], #4
 800459e:	4770      	bx	lr
 80045a0:	40010000 	.word	0x40010000
 80045a4:	40010400 	.word	0x40010400

080045a8 <TIM_OC2_SetConfig>:
  * @param  TIMx to select the TIM peripheral
  * @param  OC_Config The output configuration structure
  * @retval None
  */
void TIM_OC2_SetConfig(TIM_TypeDef *TIMx, TIM_OC_InitTypeDef *OC_Config)
{
 80045a8:	b480      	push	{r7}
 80045aa:	b087      	sub	sp, #28
 80045ac:	af00      	add	r7, sp, #0
 80045ae:	6078      	str	r0, [r7, #4]
 80045b0:	6039      	str	r1, [r7, #0]
  uint32_t tmpccmrx;
  uint32_t tmpccer;
  uint32_t tmpcr2;

  /* Disable the Channel 2: Reset the CC2E Bit */
  TIMx->CCER &= ~TIM_CCER_CC2E;
 80045b2:	687b      	ldr	r3, [r7, #4]
 80045b4:	6a1b      	ldr	r3, [r3, #32]
 80045b6:	f023 0210 	bic.w	r2, r3, #16
 80045ba:	687b      	ldr	r3, [r7, #4]
 80045bc:	621a      	str	r2, [r3, #32]

  /* Get the TIMx CCER register value */
  tmpccer = TIMx->CCER;
 80045be:	687b      	ldr	r3, [r7, #4]
 80045c0:	6a1b      	ldr	r3, [r3, #32]
 80045c2:	617b      	str	r3, [r7, #20]
  /* Get the TIMx CR2 register value */
  tmpcr2 =  TIMx->CR2;
 80045c4:	687b      	ldr	r3, [r7, #4]
 80045c6:	685b      	ldr	r3, [r3, #4]
 80045c8:	613b      	str	r3, [r7, #16]

  /* Get the TIMx CCMR1 register value */
  tmpccmrx = TIMx->CCMR1;
 80045ca:	687b      	ldr	r3, [r7, #4]
 80045cc:	699b      	ldr	r3, [r3, #24]
 80045ce:	60fb      	str	r3, [r7, #12]

  /* Reset the Output Compare mode and Capture/Compare selection Bits */
  tmpccmrx &= ~TIM_CCMR1_OC2M;
 80045d0:	68fb      	ldr	r3, [r7, #12]
 80045d2:	f423 43e0 	bic.w	r3, r3, #28672	; 0x7000
 80045d6:	60fb      	str	r3, [r7, #12]
  tmpccmrx &= ~TIM_CCMR1_CC2S;
 80045d8:	68fb      	ldr	r3, [r7, #12]
 80045da:	f423 7340 	bic.w	r3, r3, #768	; 0x300
 80045de:	60fb      	str	r3, [r7, #12]

  /* Select the Output Compare Mode */
  tmpccmrx |= (OC_Config->OCMode << 8U);
 80045e0:	683b      	ldr	r3, [r7, #0]
 80045e2:	681b      	ldr	r3, [r3, #0]
 80045e4:	021b      	lsls	r3, r3, #8
 80045e6:	68fa      	ldr	r2, [r7, #12]
 80045e8:	4313      	orrs	r3, r2
 80045ea:	60fb      	str	r3, [r7, #12]

  /* Reset the Output Polarity level */
  tmpccer &= ~TIM_CCER_CC2P;
 80045ec:	697b      	ldr	r3, [r7, #20]
 80045ee:	f023 0320 	bic.w	r3, r3, #32
 80045f2:	617b      	str	r3, [r7, #20]
  /* Set the Output Compare Polarity */
  tmpccer |= (OC_Config->OCPolarity << 4U);
 80045f4:	683b      	ldr	r3, [r7, #0]
 80045f6:	689b      	ldr	r3, [r3, #8]
 80045f8:	011b      	lsls	r3, r3, #4
 80045fa:	697a      	ldr	r2, [r7, #20]
 80045fc:	4313      	orrs	r3, r2
 80045fe:	617b      	str	r3, [r7, #20]

  if (IS_TIM_CCXN_INSTANCE(TIMx, TIM_CHANNEL_2))
 8004600:	687b      	ldr	r3, [r7, #4]
 8004602:	4a22      	ldr	r2, [pc, #136]	; (800468c <TIM_OC2_SetConfig+0xe4>)
 8004604:	4293      	cmp	r3, r2
 8004606:	d003      	beq.n	8004610 <TIM_OC2_SetConfig+0x68>
 8004608:	687b      	ldr	r3, [r7, #4]
 800460a:	4a21      	ldr	r2, [pc, #132]	; (8004690 <TIM_OC2_SetConfig+0xe8>)
 800460c:	4293      	cmp	r3, r2
 800460e:	d10d      	bne.n	800462c <TIM_OC2_SetConfig+0x84>
  {
    assert_param(IS_TIM_OCN_POLARITY(OC_Config->OCNPolarity));

    /* Reset the Output N Polarity level */
    tmpccer &= ~TIM_CCER_CC2NP;
 8004610:	697b      	ldr	r3, [r7, #20]
 8004612:	f023 0380 	bic.w	r3, r3, #128	; 0x80
 8004616:	617b      	str	r3, [r7, #20]
    /* Set the Output N Polarity */
    tmpccer |= (OC_Config->OCNPolarity << 4U);
 8004618:	683b      	ldr	r3, [r7, #0]
 800461a:	68db      	ldr	r3, [r3, #12]
 800461c:	011b      	lsls	r3, r3, #4
 800461e:	697a      	ldr	r2, [r7, #20]
 8004620:	4313      	orrs	r3, r2
 8004622:	617b      	str	r3, [r7, #20]
    /* Reset the Output N State */
    tmpccer &= ~TIM_CCER_CC2NE;
 8004624:	697b      	ldr	r3, [r7, #20]
 8004626:	f023 0340 	bic.w	r3, r3, #64	; 0x40
 800462a:	617b      	str	r3, [r7, #20]

  }

  if (IS_TIM_BREAK_INSTANCE(TIMx))
 800462c:	687b      	ldr	r3, [r7, #4]
 800462e:	4a17      	ldr	r2, [pc, #92]	; (800468c <TIM_OC2_SetConfig+0xe4>)
 8004630:	4293      	cmp	r3, r2
 8004632:	d003      	beq.n	800463c <TIM_OC2_SetConfig+0x94>
 8004634:	687b      	ldr	r3, [r7, #4]
 8004636:	4a16      	ldr	r2, [pc, #88]	; (8004690 <TIM_OC2_SetConfig+0xe8>)
 8004638:	4293      	cmp	r3, r2
 800463a:	d113      	bne.n	8004664 <TIM_OC2_SetConfig+0xbc>
    /* Check parameters */
    assert_param(IS_TIM_OCNIDLE_STATE(OC_Config->OCNIdleState));
    assert_param(IS_TIM_OCIDLE_STATE(OC_Config->OCIdleState));

    /* Reset the Output Compare and Output Compare N IDLE State */
    tmpcr2 &= ~TIM_CR2_OIS2;
 800463c:	693b      	ldr	r3, [r7, #16]
 800463e:	f423 6380 	bic.w	r3, r3, #1024	; 0x400
 8004642:	613b      	str	r3, [r7, #16]
    tmpcr2 &= ~TIM_CR2_OIS2N;
 8004644:	693b      	ldr	r3, [r7, #16]
 8004646:	f423 6300 	bic.w	r3, r3, #2048	; 0x800
 800464a:	613b      	str	r3, [r7, #16]
    /* Set the Output Idle state */
    tmpcr2 |= (OC_Config->OCIdleState << 2U);
 800464c:	683b      	ldr	r3, [r7, #0]
 800464e:	695b      	ldr	r3, [r3, #20]
 8004650:	009b      	lsls	r3, r3, #2
 8004652:	693a      	ldr	r2, [r7, #16]
 8004654:	4313      	orrs	r3, r2
 8004656:	613b      	str	r3, [r7, #16]
    /* Set the Output N Idle state */
    tmpcr2 |= (OC_Config->OCNIdleState << 2U);
 8004658:	683b      	ldr	r3, [r7, #0]
 800465a:	699b      	ldr	r3, [r3, #24]
 800465c:	009b      	lsls	r3, r3, #2
 800465e:	693a      	ldr	r2, [r7, #16]
 8004660:	4313      	orrs	r3, r2
 8004662:	613b      	str	r3, [r7, #16]
  }

  /* Write to TIMx CR2 */
  TIMx->CR2 = tmpcr2;
 8004664:	687b      	ldr	r3, [r7, #4]
 8004666:	693a      	ldr	r2, [r7, #16]
 8004668:	605a      	str	r2, [r3, #4]

  /* Write to TIMx CCMR1 */
  TIMx->CCMR1 = tmpccmrx;
 800466a:	687b      	ldr	r3, [r7, #4]
 800466c:	68fa      	ldr	r2, [r7, #12]
 800466e:	619a      	str	r2, [r3, #24]

  /* Set the Capture Compare Register value */
  TIMx->CCR2 = OC_Config->Pulse;
 8004670:	683b      	ldr	r3, [r7, #0]
 8004672:	685a      	ldr	r2, [r3, #4]
 8004674:	687b      	ldr	r3, [r7, #4]
 8004676:	639a      	str	r2, [r3, #56]	; 0x38

  /* Write to TIMx CCER */
  TIMx->CCER = tmpccer;
 8004678:	687b      	ldr	r3, [r7, #4]
 800467a:	697a      	ldr	r2, [r7, #20]
 800467c:	621a      	str	r2, [r3, #32]
}
 800467e:	bf00      	nop
 8004680:	371c      	adds	r7, #28
 8004682:	46bd      	mov	sp, r7
 8004684:	f85d 7b04 	ldr.w	r7, [sp], #4
 8004688:	4770      	bx	lr
 800468a:	bf00      	nop
 800468c:	40010000 	.word	0x40010000
 8004690:	40010400 	.word	0x40010400

08004694 <TIM_OC3_SetConfig>:
  * @param  TIMx to select the TIM peripheral
  * @param  OC_Config The output configuration structure
  * @retval None
  */
static void TIM_OC3_SetConfig(TIM_TypeDef *TIMx, TIM_OC_InitTypeDef *OC_Config)
{
 8004694:	b480      	push	{r7}
 8004696:	b087      	sub	sp, #28
 8004698:	af00      	add	r7, sp, #0
 800469a:	6078      	str	r0, [r7, #4]
 800469c:	6039      	str	r1, [r7, #0]
  uint32_t tmpccmrx;
  uint32_t tmpccer;
  uint32_t tmpcr2;

  /* Disable the Channel 3: Reset the CC2E Bit */
  TIMx->CCER &= ~TIM_CCER_CC3E;
 800469e:	687b      	ldr	r3, [r7, #4]
 80046a0:	6a1b      	ldr	r3, [r3, #32]
 80046a2:	f423 7280 	bic.w	r2, r3, #256	; 0x100
 80046a6:	687b      	ldr	r3, [r7, #4]
 80046a8:	621a      	str	r2, [r3, #32]

  /* Get the TIMx CCER register value */
  tmpccer = TIMx->CCER;
 80046aa:	687b      	ldr	r3, [r7, #4]
 80046ac:	6a1b      	ldr	r3, [r3, #32]
 80046ae:	617b      	str	r3, [r7, #20]
  /* Get the TIMx CR2 register value */
  tmpcr2 =  TIMx->CR2;
 80046b0:	687b      	ldr	r3, [r7, #4]
 80046b2:	685b      	ldr	r3, [r3, #4]
 80046b4:	613b      	str	r3, [r7, #16]

  /* Get the TIMx CCMR2 register value */
  tmpccmrx = TIMx->CCMR2;
 80046b6:	687b      	ldr	r3, [r7, #4]
 80046b8:	69db      	ldr	r3, [r3, #28]
 80046ba:	60fb      	str	r3, [r7, #12]

  /* Reset the Output Compare mode and Capture/Compare selection Bits */
  tmpccmrx &= ~TIM_CCMR2_OC3M;
 80046bc:	68fb      	ldr	r3, [r7, #12]
 80046be:	f023 0370 	bic.w	r3, r3, #112	; 0x70
 80046c2:	60fb      	str	r3, [r7, #12]
  tmpccmrx &= ~TIM_CCMR2_CC3S;
 80046c4:	68fb      	ldr	r3, [r7, #12]
 80046c6:	f023 0303 	bic.w	r3, r3, #3
 80046ca:	60fb      	str	r3, [r7, #12]
  /* Select the Output Compare Mode */
  tmpccmrx |= OC_Config->OCMode;
 80046cc:	683b      	ldr	r3, [r7, #0]
 80046ce:	681b      	ldr	r3, [r3, #0]
 80046d0:	68fa      	ldr	r2, [r7, #12]
 80046d2:	4313      	orrs	r3, r2
 80046d4:	60fb      	str	r3, [r7, #12]

  /* Reset the Output Polarity level */
  tmpccer &= ~TIM_CCER_CC3P;
 80046d6:	697b      	ldr	r3, [r7, #20]
 80046d8:	f423 7300 	bic.w	r3, r3, #512	; 0x200
 80046dc:	617b      	str	r3, [r7, #20]
  /* Set the Output Compare Polarity */
  tmpccer |= (OC_Config->OCPolarity << 8U);
 80046de:	683b      	ldr	r3, [r7, #0]
 80046e0:	689b      	ldr	r3, [r3, #8]
 80046e2:	021b      	lsls	r3, r3, #8
 80046e4:	697a      	ldr	r2, [r7, #20]
 80046e6:	4313      	orrs	r3, r2
 80046e8:	617b      	str	r3, [r7, #20]

  if (IS_TIM_CCXN_INSTANCE(TIMx, TIM_CHANNEL_3))
 80046ea:	687b      	ldr	r3, [r7, #4]
 80046ec:	4a21      	ldr	r2, [pc, #132]	; (8004774 <TIM_OC3_SetConfig+0xe0>)
 80046ee:	4293      	cmp	r3, r2
 80046f0:	d003      	beq.n	80046fa <TIM_OC3_SetConfig+0x66>
 80046f2:	687b      	ldr	r3, [r7, #4]
 80046f4:	4a20      	ldr	r2, [pc, #128]	; (8004778 <TIM_OC3_SetConfig+0xe4>)
 80046f6:	4293      	cmp	r3, r2
 80046f8:	d10d      	bne.n	8004716 <TIM_OC3_SetConfig+0x82>
  {
    assert_param(IS_TIM_OCN_POLARITY(OC_Config->OCNPolarity));

    /* Reset the Output N Polarity level */
    tmpccer &= ~TIM_CCER_CC3NP;
 80046fa:	697b      	ldr	r3, [r7, #20]
 80046fc:	f423 6300 	bic.w	r3, r3, #2048	; 0x800
 8004700:	617b      	str	r3, [r7, #20]
    /* Set the Output N Polarity */
    tmpccer |= (OC_Config->OCNPolarity << 8U);
 8004702:	683b      	ldr	r3, [r7, #0]
 8004704:	68db      	ldr	r3, [r3, #12]
 8004706:	021b      	lsls	r3, r3, #8
 8004708:	697a      	ldr	r2, [r7, #20]
 800470a:	4313      	orrs	r3, r2
 800470c:	617b      	str	r3, [r7, #20]
    /* Reset the Output N State */
    tmpccer &= ~TIM_CCER_CC3NE;
 800470e:	697b      	ldr	r3, [r7, #20]
 8004710:	f423 6380 	bic.w	r3, r3, #1024	; 0x400
 8004714:	617b      	str	r3, [r7, #20]
  }

  if (IS_TIM_BREAK_INSTANCE(TIMx))
 8004716:	687b      	ldr	r3, [r7, #4]
 8004718:	4a16      	ldr	r2, [pc, #88]	; (8004774 <TIM_OC3_SetConfig+0xe0>)
 800471a:	4293      	cmp	r3, r2
 800471c:	d003      	beq.n	8004726 <TIM_OC3_SetConfig+0x92>
 800471e:	687b      	ldr	r3, [r7, #4]
 8004720:	4a15      	ldr	r2, [pc, #84]	; (8004778 <TIM_OC3_SetConfig+0xe4>)
 8004722:	4293      	cmp	r3, r2
 8004724:	d113      	bne.n	800474e <TIM_OC3_SetConfig+0xba>
    /* Check parameters */
    assert_param(IS_TIM_OCNIDLE_STATE(OC_Config->OCNIdleState));
    assert_param(IS_TIM_OCIDLE_STATE(OC_Config->OCIdleState));

    /* Reset the Output Compare and Output Compare N IDLE State */
    tmpcr2 &= ~TIM_CR2_OIS3;
 8004726:	693b      	ldr	r3, [r7, #16]
 8004728:	f423 5380 	bic.w	r3, r3, #4096	; 0x1000
 800472c:	613b      	str	r3, [r7, #16]
    tmpcr2 &= ~TIM_CR2_OIS3N;
 800472e:	693b      	ldr	r3, [r7, #16]
 8004730:	f423 5300 	bic.w	r3, r3, #8192	; 0x2000
 8004734:	613b      	str	r3, [r7, #16]
    /* Set the Output Idle state */
    tmpcr2 |= (OC_Config->OCIdleState << 4U);
 8004736:	683b      	ldr	r3, [r7, #0]
 8004738:	695b      	ldr	r3, [r3, #20]
 800473a:	011b      	lsls	r3, r3, #4
 800473c:	693a      	ldr	r2, [r7, #16]
 800473e:	4313      	orrs	r3, r2
 8004740:	613b      	str	r3, [r7, #16]
    /* Set the Output N Idle state */
    tmpcr2 |= (OC_Config->OCNIdleState << 4U);
 8004742:	683b      	ldr	r3, [r7, #0]
 8004744:	699b      	ldr	r3, [r3, #24]
 8004746:	011b      	lsls	r3, r3, #4
 8004748:	693a      	ldr	r2, [r7, #16]
 800474a:	4313      	orrs	r3, r2
 800474c:	613b      	str	r3, [r7, #16]
  }

  /* Write to TIMx CR2 */
  TIMx->CR2 = tmpcr2;
 800474e:	687b      	ldr	r3, [r7, #4]
 8004750:	693a      	ldr	r2, [r7, #16]
 8004752:	605a      	str	r2, [r3, #4]

  /* Write to TIMx CCMR2 */
  TIMx->CCMR2 = tmpccmrx;
 8004754:	687b      	ldr	r3, [r7, #4]
 8004756:	68fa      	ldr	r2, [r7, #12]
 8004758:	61da      	str	r2, [r3, #28]

  /* Set the Capture Compare Register value */
  TIMx->CCR3 = OC_Config->Pulse;
 800475a:	683b      	ldr	r3, [r7, #0]
 800475c:	685a      	ldr	r2, [r3, #4]
 800475e:	687b      	ldr	r3, [r7, #4]
 8004760:	63da      	str	r2, [r3, #60]	; 0x3c

  /* Write to TIMx CCER */
  TIMx->CCER = tmpccer;
 8004762:	687b      	ldr	r3, [r7, #4]
 8004764:	697a      	ldr	r2, [r7, #20]
 8004766:	621a      	str	r2, [r3, #32]
}
 8004768:	bf00      	nop
 800476a:	371c      	adds	r7, #28
 800476c:	46bd      	mov	sp, r7
 800476e:	f85d 7b04 	ldr.w	r7, [sp], #4
 8004772:	4770      	bx	lr
 8004774:	40010000 	.word	0x40010000
 8004778:	40010400 	.word	0x40010400

0800477c <TIM_OC4_SetConfig>:
  * @param  TIMx to select the TIM peripheral
  * @param  OC_Config The output configuration structure
  * @retval None
  */
static void TIM_OC4_SetConfig(TIM_TypeDef *TIMx, TIM_OC_InitTypeDef *OC_Config)
{
 800477c:	b480      	push	{r7}
 800477e:	b087      	sub	sp, #28
 8004780:	af00      	add	r7, sp, #0
 8004782:	6078      	str	r0, [r7, #4]
 8004784:	6039      	str	r1, [r7, #0]
  uint32_t tmpccmrx;
  uint32_t tmpccer;
  uint32_t tmpcr2;

  /* Disable the Channel 4: Reset the CC4E Bit */
  TIMx->CCER &= ~TIM_CCER_CC4E;
 8004786:	687b      	ldr	r3, [r7, #4]
 8004788:	6a1b      	ldr	r3, [r3, #32]
 800478a:	f423 5280 	bic.w	r2, r3, #4096	; 0x1000
 800478e:	687b      	ldr	r3, [r7, #4]
 8004790:	621a      	str	r2, [r3, #32]

  /* Get the TIMx CCER register value */
  tmpccer = TIMx->CCER;
 8004792:	687b      	ldr	r3, [r7, #4]
 8004794:	6a1b      	ldr	r3, [r3, #32]
 8004796:	613b      	str	r3, [r7, #16]
  /* Get the TIMx CR2 register value */
  tmpcr2 =  TIMx->CR2;
 8004798:	687b      	ldr	r3, [r7, #4]
 800479a:	685b      	ldr	r3, [r3, #4]
 800479c:	617b      	str	r3, [r7, #20]

  /* Get the TIMx CCMR2 register value */
  tmpccmrx = TIMx->CCMR2;
 800479e:	687b      	ldr	r3, [r7, #4]
 80047a0:	69db      	ldr	r3, [r3, #28]
 80047a2:	60fb      	str	r3, [r7, #12]

  /* Reset the Output Compare mode and Capture/Compare selection Bits */
  tmpccmrx &= ~TIM_CCMR2_OC4M;
 80047a4:	68fb      	ldr	r3, [r7, #12]
 80047a6:	f423 43e0 	bic.w	r3, r3, #28672	; 0x7000
 80047aa:	60fb      	str	r3, [r7, #12]
  tmpccmrx &= ~TIM_CCMR2_CC4S;
 80047ac:	68fb      	ldr	r3, [r7, #12]
 80047ae:	f423 7340 	bic.w	r3, r3, #768	; 0x300
 80047b2:	60fb      	str	r3, [r7, #12]

  /* Select the Output Compare Mode */
  tmpccmrx |= (OC_Config->OCMode << 8U);
 80047b4:	683b      	ldr	r3, [r7, #0]
 80047b6:	681b      	ldr	r3, [r3, #0]
 80047b8:	021b      	lsls	r3, r3, #8
 80047ba:	68fa      	ldr	r2, [r7, #12]
 80047bc:	4313      	orrs	r3, r2
 80047be:	60fb      	str	r3, [r7, #12]

  /* Reset the Output Polarity level */
  tmpccer &= ~TIM_CCER_CC4P;
 80047c0:	693b      	ldr	r3, [r7, #16]
 80047c2:	f423 5300 	bic.w	r3, r3, #8192	; 0x2000
 80047c6:	613b      	str	r3, [r7, #16]
  /* Set the Output Compare Polarity */
  tmpccer |= (OC_Config->OCPolarity << 12U);
 80047c8:	683b      	ldr	r3, [r7, #0]
 80047ca:	689b      	ldr	r3, [r3, #8]
 80047cc:	031b      	lsls	r3, r3, #12
 80047ce:	693a      	ldr	r2, [r7, #16]
 80047d0:	4313      	orrs	r3, r2
 80047d2:	613b      	str	r3, [r7, #16]

  if (IS_TIM_BREAK_INSTANCE(TIMx))
 80047d4:	687b      	ldr	r3, [r7, #4]
 80047d6:	4a12      	ldr	r2, [pc, #72]	; (8004820 <TIM_OC4_SetConfig+0xa4>)
 80047d8:	4293      	cmp	r3, r2
 80047da:	d003      	beq.n	80047e4 <TIM_OC4_SetConfig+0x68>
 80047dc:	687b      	ldr	r3, [r7, #4]
 80047de:	4a11      	ldr	r2, [pc, #68]	; (8004824 <TIM_OC4_SetConfig+0xa8>)
 80047e0:	4293      	cmp	r3, r2
 80047e2:	d109      	bne.n	80047f8 <TIM_OC4_SetConfig+0x7c>
  {
    /* Check parameters */
    assert_param(IS_TIM_OCIDLE_STATE(OC_Config->OCIdleState));

    /* Reset the Output Compare IDLE State */
    tmpcr2 &= ~TIM_CR2_OIS4;
 80047e4:	697b      	ldr	r3, [r7, #20]
 80047e6:	f423 4380 	bic.w	r3, r3, #16384	; 0x4000
 80047ea:	617b      	str	r3, [r7, #20]

    /* Set the Output Idle state */
    tmpcr2 |= (OC_Config->OCIdleState << 6U);
 80047ec:	683b      	ldr	r3, [r7, #0]
 80047ee:	695b      	ldr	r3, [r3, #20]
 80047f0:	019b      	lsls	r3, r3, #6
 80047f2:	697a      	ldr	r2, [r7, #20]
 80047f4:	4313      	orrs	r3, r2
 80047f6:	617b      	str	r3, [r7, #20]
  }

  /* Write to TIMx CR2 */
  TIMx->CR2 = tmpcr2;
 80047f8:	687b      	ldr	r3, [r7, #4]
 80047fa:	697a      	ldr	r2, [r7, #20]
 80047fc:	605a      	str	r2, [r3, #4]

  /* Write to TIMx CCMR2 */
  TIMx->CCMR2 = tmpccmrx;
 80047fe:	687b      	ldr	r3, [r7, #4]
 8004800:	68fa      	ldr	r2, [r7, #12]
 8004802:	61da      	str	r2, [r3, #28]

  /* Set the Capture Compare Register value */
  TIMx->CCR4 = OC_Config->Pulse;
 8004804:	683b      	ldr	r3, [r7, #0]
 8004806:	685a      	ldr	r2, [r3, #4]
 8004808:	687b      	ldr	r3, [r7, #4]
 800480a:	641a      	str	r2, [r3, #64]	; 0x40

  /* Write to TIMx CCER */
  TIMx->CCER = tmpccer;
 800480c:	687b      	ldr	r3, [r7, #4]
 800480e:	693a      	ldr	r2, [r7, #16]
 8004810:	621a      	str	r2, [r3, #32]
}
 8004812:	bf00      	nop
 8004814:	371c      	adds	r7, #28
 8004816:	46bd      	mov	sp, r7
 8004818:	f85d 7b04 	ldr.w	r7, [sp], #4
 800481c:	4770      	bx	lr
 800481e:	bf00      	nop
 8004820:	40010000 	.word	0x40010000
 8004824:	40010400 	.word	0x40010400

08004828 <TIM_TI1_SetConfig>:
  *       (on channel2 path) is used as the input signal. Therefore CCMR1 must be
  *        protected against un-initialized filter and polarity values.
  */
void TIM_TI1_SetConfig(TIM_TypeDef *TIMx, uint32_t TIM_ICPolarity, uint32_t TIM_ICSelection,
                       uint32_t TIM_ICFilter)
{
 8004828:	b480      	push	{r7}
 800482a:	b087      	sub	sp, #28
 800482c:	af00      	add	r7, sp, #0
 800482e:	60f8      	str	r0, [r7, #12]
 8004830:	60b9      	str	r1, [r7, #8]
 8004832:	607a      	str	r2, [r7, #4]
 8004834:	603b      	str	r3, [r7, #0]
  uint32_t tmpccmr1;
  uint32_t tmpccer;

  /* Disable the Channel 1: Reset the CC1E Bit */
  TIMx->CCER &= ~TIM_CCER_CC1E;
 8004836:	68fb      	ldr	r3, [r7, #12]
 8004838:	6a1b      	ldr	r3, [r3, #32]
 800483a:	f023 0201 	bic.w	r2, r3, #1
 800483e:	68fb      	ldr	r3, [r7, #12]
 8004840:	621a      	str	r2, [r3, #32]
  tmpccmr1 = TIMx->CCMR1;
 8004842:	68fb      	ldr	r3, [r7, #12]
 8004844:	699b      	ldr	r3, [r3, #24]
 8004846:	617b      	str	r3, [r7, #20]
  tmpccer = TIMx->CCER;
 8004848:	68fb      	ldr	r3, [r7, #12]
 800484a:	6a1b      	ldr	r3, [r3, #32]
 800484c:	613b      	str	r3, [r7, #16]

  /* Select the Input */
  if (IS_TIM_CC2_INSTANCE(TIMx) != RESET)
 800484e:	68fb      	ldr	r3, [r7, #12]
 8004850:	4a28      	ldr	r2, [pc, #160]	; (80048f4 <TIM_TI1_SetConfig+0xcc>)
 8004852:	4293      	cmp	r3, r2
 8004854:	d01b      	beq.n	800488e <TIM_TI1_SetConfig+0x66>
 8004856:	68fb      	ldr	r3, [r7, #12]
 8004858:	f1b3 4f80 	cmp.w	r3, #1073741824	; 0x40000000
 800485c:	d017      	beq.n	800488e <TIM_TI1_SetConfig+0x66>
 800485e:	68fb      	ldr	r3, [r7, #12]
 8004860:	4a25      	ldr	r2, [pc, #148]	; (80048f8 <TIM_TI1_SetConfig+0xd0>)
 8004862:	4293      	cmp	r3, r2
 8004864:	d013      	beq.n	800488e <TIM_TI1_SetConfig+0x66>
 8004866:	68fb      	ldr	r3, [r7, #12]
 8004868:	4a24      	ldr	r2, [pc, #144]	; (80048fc <TIM_TI1_SetConfig+0xd4>)
 800486a:	4293      	cmp	r3, r2
 800486c:	d00f      	beq.n	800488e <TIM_TI1_SetConfig+0x66>
 800486e:	68fb      	ldr	r3, [r7, #12]
 8004870:	4a23      	ldr	r2, [pc, #140]	; (8004900 <TIM_TI1_SetConfig+0xd8>)
 8004872:	4293      	cmp	r3, r2
 8004874:	d00b      	beq.n	800488e <TIM_TI1_SetConfig+0x66>
 8004876:	68fb      	ldr	r3, [r7, #12]
 8004878:	4a22      	ldr	r2, [pc, #136]	; (8004904 <TIM_TI1_SetConfig+0xdc>)
 800487a:	4293      	cmp	r3, r2
 800487c:	d007      	beq.n	800488e <TIM_TI1_SetConfig+0x66>
 800487e:	68fb      	ldr	r3, [r7, #12]
 8004880:	4a21      	ldr	r2, [pc, #132]	; (8004908 <TIM_TI1_SetConfig+0xe0>)
 8004882:	4293      	cmp	r3, r2
 8004884:	d003      	beq.n	800488e <TIM_TI1_SetConfig+0x66>
 8004886:	68fb      	ldr	r3, [r7, #12]
 8004888:	4a20      	ldr	r2, [pc, #128]	; (800490c <TIM_TI1_SetConfig+0xe4>)
 800488a:	4293      	cmp	r3, r2
 800488c:	d101      	bne.n	8004892 <TIM_TI1_SetConfig+0x6a>
 800488e:	2301      	movs	r3, #1
 8004890:	e000      	b.n	8004894 <TIM_TI1_SetConfig+0x6c>
 8004892:	2300      	movs	r3, #0
 8004894:	2b00      	cmp	r3, #0
 8004896:	d008      	beq.n	80048aa <TIM_TI1_SetConfig+0x82>
  {
    tmpccmr1 &= ~TIM_CCMR1_CC1S;
 8004898:	697b      	ldr	r3, [r7, #20]
 800489a:	f023 0303 	bic.w	r3, r3, #3
 800489e:	617b      	str	r3, [r7, #20]
    tmpccmr1 |= TIM_ICSelection;
 80048a0:	697a      	ldr	r2, [r7, #20]
 80048a2:	687b      	ldr	r3, [r7, #4]
 80048a4:	4313      	orrs	r3, r2
 80048a6:	617b      	str	r3, [r7, #20]
 80048a8:	e003      	b.n	80048b2 <TIM_TI1_SetConfig+0x8a>
  }
  else
  {
    tmpccmr1 |= TIM_CCMR1_CC1S_0;
 80048aa:	697b      	ldr	r3, [r7, #20]
 80048ac:	f043 0301 	orr.w	r3, r3, #1
 80048b0:	617b      	str	r3, [r7, #20]
  }

  /* Set the filter */
  tmpccmr1 &= ~TIM_CCMR1_IC1F;
 80048b2:	697b      	ldr	r3, [r7, #20]
 80048b4:	f023 03f0 	bic.w	r3, r3, #240	; 0xf0
 80048b8:	617b      	str	r3, [r7, #20]
  tmpccmr1 |= ((TIM_ICFilter << 4U) & TIM_CCMR1_IC1F);
 80048ba:	683b      	ldr	r3, [r7, #0]
 80048bc:	011b      	lsls	r3, r3, #4
 80048be:	b2db      	uxtb	r3, r3
 80048c0:	697a      	ldr	r2, [r7, #20]
 80048c2:	4313      	orrs	r3, r2
 80048c4:	617b      	str	r3, [r7, #20]

  /* Select the Polarity and set the CC1E Bit */
  tmpccer &= ~(TIM_CCER_CC1P | TIM_CCER_CC1NP);
 80048c6:	693b      	ldr	r3, [r7, #16]
 80048c8:	f023 030a 	bic.w	r3, r3, #10
 80048cc:	613b      	str	r3, [r7, #16]
  tmpccer |= (TIM_ICPolarity & (TIM_CCER_CC1P | TIM_CCER_CC1NP));
 80048ce:	68bb      	ldr	r3, [r7, #8]
 80048d0:	f003 030a 	and.w	r3, r3, #10
 80048d4:	693a      	ldr	r2, [r7, #16]
 80048d6:	4313      	orrs	r3, r2
 80048d8:	613b      	str	r3, [r7, #16]

  /* Write to TIMx CCMR1 and CCER registers */
  TIMx->CCMR1 = tmpccmr1;
 80048da:	68fb      	ldr	r3, [r7, #12]
 80048dc:	697a      	ldr	r2, [r7, #20]
 80048de:	619a      	str	r2, [r3, #24]
  TIMx->CCER = tmpccer;
 80048e0:	68fb      	ldr	r3, [r7, #12]
 80048e2:	693a      	ldr	r2, [r7, #16]
 80048e4:	621a      	str	r2, [r3, #32]
}
 80048e6:	bf00      	nop
 80048e8:	371c      	adds	r7, #28
 80048ea:	46bd      	mov	sp, r7
 80048ec:	f85d 7b04 	ldr.w	r7, [sp], #4
 80048f0:	4770      	bx	lr
 80048f2:	bf00      	nop
 80048f4:	40010000 	.word	0x40010000
 80048f8:	40000400 	.word	0x40000400
 80048fc:	40000800 	.word	0x40000800
 8004900:	40000c00 	.word	0x40000c00
 8004904:	40010400 	.word	0x40010400
 8004908:	40014000 	.word	0x40014000
 800490c:	40001800 	.word	0x40001800

08004910 <TIM_TI1_ConfigInputStage>:
  * @param  TIM_ICFilter Specifies the Input Capture Filter.
  *          This parameter must be a value between 0x00 and 0x0F.
  * @retval None
  */
static void TIM_TI1_ConfigInputStage(TIM_TypeDef *TIMx, uint32_t TIM_ICPolarity, uint32_t TIM_ICFilter)
{
 8004910:	b480      	push	{r7}
 8004912:	b087      	sub	sp, #28
 8004914:	af00      	add	r7, sp, #0
 8004916:	60f8      	str	r0, [r7, #12]
 8004918:	60b9      	str	r1, [r7, #8]
 800491a:	607a      	str	r2, [r7, #4]
  uint32_t tmpccmr1;
  uint32_t tmpccer;

  /* Disable the Channel 1: Reset the CC1E Bit */
  tmpccer = TIMx->CCER;
 800491c:	68fb      	ldr	r3, [r7, #12]
 800491e:	6a1b      	ldr	r3, [r3, #32]
 8004920:	617b      	str	r3, [r7, #20]
  TIMx->CCER &= ~TIM_CCER_CC1E;
 8004922:	68fb      	ldr	r3, [r7, #12]
 8004924:	6a1b      	ldr	r3, [r3, #32]
 8004926:	f023 0201 	bic.w	r2, r3, #1
 800492a:	68fb      	ldr	r3, [r7, #12]
 800492c:	621a      	str	r2, [r3, #32]
  tmpccmr1 = TIMx->CCMR1;
 800492e:	68fb      	ldr	r3, [r7, #12]
 8004930:	699b      	ldr	r3, [r3, #24]
 8004932:	613b      	str	r3, [r7, #16]

  /* Set the filter */
  tmpccmr1 &= ~TIM_CCMR1_IC1F;
 8004934:	693b      	ldr	r3, [r7, #16]
 8004936:	f023 03f0 	bic.w	r3, r3, #240	; 0xf0
 800493a:	613b      	str	r3, [r7, #16]
  tmpccmr1 |= (TIM_ICFilter << 4U);
 800493c:	687b      	ldr	r3, [r7, #4]
 800493e:	011b      	lsls	r3, r3, #4
 8004940:	693a      	ldr	r2, [r7, #16]
 8004942:	4313      	orrs	r3, r2
 8004944:	613b      	str	r3, [r7, #16]

  /* Select the Polarity and set the CC1E Bit */
  tmpccer &= ~(TIM_CCER_CC1P | TIM_CCER_CC1NP);
 8004946:	697b      	ldr	r3, [r7, #20]
 8004948:	f023 030a 	bic.w	r3, r3, #10
 800494c:	617b      	str	r3, [r7, #20]
  tmpccer |= TIM_ICPolarity;
 800494e:	697a      	ldr	r2, [r7, #20]
 8004950:	68bb      	ldr	r3, [r7, #8]
 8004952:	4313      	orrs	r3, r2
 8004954:	617b      	str	r3, [r7, #20]

  /* Write to TIMx CCMR1 and CCER registers */
  TIMx->CCMR1 = tmpccmr1;
 8004956:	68fb      	ldr	r3, [r7, #12]
 8004958:	693a      	ldr	r2, [r7, #16]
 800495a:	619a      	str	r2, [r3, #24]
  TIMx->CCER = tmpccer;
 800495c:	68fb      	ldr	r3, [r7, #12]
 800495e:	697a      	ldr	r2, [r7, #20]
 8004960:	621a      	str	r2, [r3, #32]
}
 8004962:	bf00      	nop
 8004964:	371c      	adds	r7, #28
 8004966:	46bd      	mov	sp, r7
 8004968:	f85d 7b04 	ldr.w	r7, [sp], #4
 800496c:	4770      	bx	lr

0800496e <TIM_TI2_SetConfig>:
  *       (on channel1 path) is used as the input signal. Therefore CCMR1 must be
  *        protected against un-initialized filter and polarity values.
  */
static void TIM_TI2_SetConfig(TIM_TypeDef *TIMx, uint32_t TIM_ICPolarity, uint32_t TIM_ICSelection,
                              uint32_t TIM_ICFilter)
{
 800496e:	b480      	push	{r7}
 8004970:	b087      	sub	sp, #28
 8004972:	af00      	add	r7, sp, #0
 8004974:	60f8      	str	r0, [r7, #12]
 8004976:	60b9      	str	r1, [r7, #8]
 8004978:	607a      	str	r2, [r7, #4]
 800497a:	603b      	str	r3, [r7, #0]
  uint32_t tmpccmr1;
  uint32_t tmpccer;

  /* Disable the Channel 2: Reset the CC2E Bit */
  TIMx->CCER &= ~TIM_CCER_CC2E;
 800497c:	68fb      	ldr	r3, [r7, #12]
 800497e:	6a1b      	ldr	r3, [r3, #32]
 8004980:	f023 0210 	bic.w	r2, r3, #16
 8004984:	68fb      	ldr	r3, [r7, #12]
 8004986:	621a      	str	r2, [r3, #32]
  tmpccmr1 = TIMx->CCMR1;
 8004988:	68fb      	ldr	r3, [r7, #12]
 800498a:	699b      	ldr	r3, [r3, #24]
 800498c:	617b      	str	r3, [r7, #20]
  tmpccer = TIMx->CCER;
 800498e:	68fb      	ldr	r3, [r7, #12]
 8004990:	6a1b      	ldr	r3, [r3, #32]
 8004992:	613b      	str	r3, [r7, #16]

  /* Select the Input */
  tmpccmr1 &= ~TIM_CCMR1_CC2S;
 8004994:	697b      	ldr	r3, [r7, #20]
 8004996:	f423 7340 	bic.w	r3, r3, #768	; 0x300
 800499a:	617b      	str	r3, [r7, #20]
  tmpccmr1 |= (TIM_ICSelection << 8U);
 800499c:	687b      	ldr	r3, [r7, #4]
 800499e:	021b      	lsls	r3, r3, #8
 80049a0:	697a      	ldr	r2, [r7, #20]
 80049a2:	4313      	orrs	r3, r2
 80049a4:	617b      	str	r3, [r7, #20]

  /* Set the filter */
  tmpccmr1 &= ~TIM_CCMR1_IC2F;
 80049a6:	697b      	ldr	r3, [r7, #20]
 80049a8:	f423 4370 	bic.w	r3, r3, #61440	; 0xf000
 80049ac:	617b      	str	r3, [r7, #20]
  tmpccmr1 |= ((TIM_ICFilter << 12U) & TIM_CCMR1_IC2F);
 80049ae:	683b      	ldr	r3, [r7, #0]
 80049b0:	031b      	lsls	r3, r3, #12
 80049b2:	b29b      	uxth	r3, r3
 80049b4:	697a      	ldr	r2, [r7, #20]
 80049b6:	4313      	orrs	r3, r2
 80049b8:	617b      	str	r3, [r7, #20]

  /* Select the Polarity and set the CC2E Bit */
  tmpccer &= ~(TIM_CCER_CC2P | TIM_CCER_CC2NP);
 80049ba:	693b      	ldr	r3, [r7, #16]
 80049bc:	f023 03a0 	bic.w	r3, r3, #160	; 0xa0
 80049c0:	613b      	str	r3, [r7, #16]
  tmpccer |= ((TIM_ICPolarity << 4U) & (TIM_CCER_CC2P | TIM_CCER_CC2NP));
 80049c2:	68bb      	ldr	r3, [r7, #8]
 80049c4:	011b      	lsls	r3, r3, #4
 80049c6:	f003 03a0 	and.w	r3, r3, #160	; 0xa0
 80049ca:	693a      	ldr	r2, [r7, #16]
 80049cc:	4313      	orrs	r3, r2
 80049ce:	613b      	str	r3, [r7, #16]

  /* Write to TIMx CCMR1 and CCER registers */
  TIMx->CCMR1 = tmpccmr1 ;
 80049d0:	68fb      	ldr	r3, [r7, #12]
 80049d2:	697a      	ldr	r2, [r7, #20]
 80049d4:	619a      	str	r2, [r3, #24]
  TIMx->CCER = tmpccer;
 80049d6:	68fb      	ldr	r3, [r7, #12]
 80049d8:	693a      	ldr	r2, [r7, #16]
 80049da:	621a      	str	r2, [r3, #32]
}
 80049dc:	bf00      	nop
 80049de:	371c      	adds	r7, #28
 80049e0:	46bd      	mov	sp, r7
 80049e2:	f85d 7b04 	ldr.w	r7, [sp], #4
 80049e6:	4770      	bx	lr

080049e8 <TIM_TI2_ConfigInputStage>:
  * @param  TIM_ICFilter Specifies the Input Capture Filter.
  *          This parameter must be a value between 0x00 and 0x0F.
  * @retval None
  */
static void TIM_TI2_ConfigInputStage(TIM_TypeDef *TIMx, uint32_t TIM_ICPolarity, uint32_t TIM_ICFilter)
{
 80049e8:	b480      	push	{r7}
 80049ea:	b087      	sub	sp, #28
 80049ec:	af00      	add	r7, sp, #0
 80049ee:	60f8      	str	r0, [r7, #12]
 80049f0:	60b9      	str	r1, [r7, #8]
 80049f2:	607a      	str	r2, [r7, #4]
  uint32_t tmpccmr1;
  uint32_t tmpccer;

  /* Disable the Channel 2: Reset the CC2E Bit */
  TIMx->CCER &= ~TIM_CCER_CC2E;
 80049f4:	68fb      	ldr	r3, [r7, #12]
 80049f6:	6a1b      	ldr	r3, [r3, #32]
 80049f8:	f023 0210 	bic.w	r2, r3, #16
 80049fc:	68fb      	ldr	r3, [r7, #12]
 80049fe:	621a      	str	r2, [r3, #32]
  tmpccmr1 = TIMx->CCMR1;
 8004a00:	68fb      	ldr	r3, [r7, #12]
 8004a02:	699b      	ldr	r3, [r3, #24]
 8004a04:	617b      	str	r3, [r7, #20]
  tmpccer = TIMx->CCER;
 8004a06:	68fb      	ldr	r3, [r7, #12]
 8004a08:	6a1b      	ldr	r3, [r3, #32]
 8004a0a:	613b      	str	r3, [r7, #16]

  /* Set the filter */
  tmpccmr1 &= ~TIM_CCMR1_IC2F;
 8004a0c:	697b      	ldr	r3, [r7, #20]
 8004a0e:	f423 4370 	bic.w	r3, r3, #61440	; 0xf000
 8004a12:	617b      	str	r3, [r7, #20]
  tmpccmr1 |= (TIM_ICFilter << 12U);
 8004a14:	687b      	ldr	r3, [r7, #4]
 8004a16:	031b      	lsls	r3, r3, #12
 8004a18:	697a      	ldr	r2, [r7, #20]
 8004a1a:	4313      	orrs	r3, r2
 8004a1c:	617b      	str	r3, [r7, #20]

  /* Select the Polarity and set the CC2E Bit */
  tmpccer &= ~(TIM_CCER_CC2P | TIM_CCER_CC2NP);
 8004a1e:	693b      	ldr	r3, [r7, #16]
 8004a20:	f023 03a0 	bic.w	r3, r3, #160	; 0xa0
 8004a24:	613b      	str	r3, [r7, #16]
  tmpccer |= (TIM_ICPolarity << 4U);
 8004a26:	68bb      	ldr	r3, [r7, #8]
 8004a28:	011b      	lsls	r3, r3, #4
 8004a2a:	693a      	ldr	r2, [r7, #16]
 8004a2c:	4313      	orrs	r3, r2
 8004a2e:	613b      	str	r3, [r7, #16]

  /* Write to TIMx CCMR1 and CCER registers */
  TIMx->CCMR1 = tmpccmr1 ;
 8004a30:	68fb      	ldr	r3, [r7, #12]
 8004a32:	697a      	ldr	r2, [r7, #20]
 8004a34:	619a      	str	r2, [r3, #24]
  TIMx->CCER = tmpccer;
 8004a36:	68fb      	ldr	r3, [r7, #12]
 8004a38:	693a      	ldr	r2, [r7, #16]
 8004a3a:	621a      	str	r2, [r3, #32]
}
 8004a3c:	bf00      	nop
 8004a3e:	371c      	adds	r7, #28
 8004a40:	46bd      	mov	sp, r7
 8004a42:	f85d 7b04 	ldr.w	r7, [sp], #4
 8004a46:	4770      	bx	lr

08004a48 <TIM_TI3_SetConfig>:
  *       (on channel1 path) is used as the input signal. Therefore CCMR2 must be
  *        protected against un-initialized filter and polarity values.
  */
static void TIM_TI3_SetConfig(TIM_TypeDef *TIMx, uint32_t TIM_ICPolarity, uint32_t TIM_ICSelection,
                              uint32_t TIM_ICFilter)
{
 8004a48:	b480      	push	{r7}
 8004a4a:	b087      	sub	sp, #28
 8004a4c:	af00      	add	r7, sp, #0
 8004a4e:	60f8      	str	r0, [r7, #12]
 8004a50:	60b9      	str	r1, [r7, #8]
 8004a52:	607a      	str	r2, [r7, #4]
 8004a54:	603b      	str	r3, [r7, #0]
  uint32_t tmpccmr2;
  uint32_t tmpccer;

  /* Disable the Channel 3: Reset the CC3E Bit */
  TIMx->CCER &= ~TIM_CCER_CC3E;
 8004a56:	68fb      	ldr	r3, [r7, #12]
 8004a58:	6a1b      	ldr	r3, [r3, #32]
 8004a5a:	f423 7280 	bic.w	r2, r3, #256	; 0x100
 8004a5e:	68fb      	ldr	r3, [r7, #12]
 8004a60:	621a      	str	r2, [r3, #32]
  tmpccmr2 = TIMx->CCMR2;
 8004a62:	68fb      	ldr	r3, [r7, #12]
 8004a64:	69db      	ldr	r3, [r3, #28]
 8004a66:	617b      	str	r3, [r7, #20]
  tmpccer = TIMx->CCER;
 8004a68:	68fb      	ldr	r3, [r7, #12]
 8004a6a:	6a1b      	ldr	r3, [r3, #32]
 8004a6c:	613b      	str	r3, [r7, #16]

  /* Select the Input */
  tmpccmr2 &= ~TIM_CCMR2_CC3S;
 8004a6e:	697b      	ldr	r3, [r7, #20]
 8004a70:	f023 0303 	bic.w	r3, r3, #3
 8004a74:	617b      	str	r3, [r7, #20]
  tmpccmr2 |= TIM_ICSelection;
 8004a76:	697a      	ldr	r2, [r7, #20]
 8004a78:	687b      	ldr	r3, [r7, #4]
 8004a7a:	4313      	orrs	r3, r2
 8004a7c:	617b      	str	r3, [r7, #20]

  /* Set the filter */
  tmpccmr2 &= ~TIM_CCMR2_IC3F;
 8004a7e:	697b      	ldr	r3, [r7, #20]
 8004a80:	f023 03f0 	bic.w	r3, r3, #240	; 0xf0
 8004a84:	617b      	str	r3, [r7, #20]
  tmpccmr2 |= ((TIM_ICFilter << 4U) & TIM_CCMR2_IC3F);
 8004a86:	683b      	ldr	r3, [r7, #0]
 8004a88:	011b      	lsls	r3, r3, #4
 8004a8a:	b2db      	uxtb	r3, r3
 8004a8c:	697a      	ldr	r2, [r7, #20]
 8004a8e:	4313      	orrs	r3, r2
 8004a90:	617b      	str	r3, [r7, #20]

  /* Select the Polarity and set the CC3E Bit */
  tmpccer &= ~(TIM_CCER_CC3P | TIM_CCER_CC3NP);
 8004a92:	693b      	ldr	r3, [r7, #16]
 8004a94:	f423 6320 	bic.w	r3, r3, #2560	; 0xa00
 8004a98:	613b      	str	r3, [r7, #16]
  tmpccer |= ((TIM_ICPolarity << 8U) & (TIM_CCER_CC3P | TIM_CCER_CC3NP));
 8004a9a:	68bb      	ldr	r3, [r7, #8]
 8004a9c:	021b      	lsls	r3, r3, #8
 8004a9e:	f403 6320 	and.w	r3, r3, #2560	; 0xa00
 8004aa2:	693a      	ldr	r2, [r7, #16]
 8004aa4:	4313      	orrs	r3, r2
 8004aa6:	613b      	str	r3, [r7, #16]

  /* Write to TIMx CCMR2 and CCER registers */
  TIMx->CCMR2 = tmpccmr2;
 8004aa8:	68fb      	ldr	r3, [r7, #12]
 8004aaa:	697a      	ldr	r2, [r7, #20]
 8004aac:	61da      	str	r2, [r3, #28]
  TIMx->CCER = tmpccer;
 8004aae:	68fb      	ldr	r3, [r7, #12]
 8004ab0:	693a      	ldr	r2, [r7, #16]
 8004ab2:	621a      	str	r2, [r3, #32]
}
 8004ab4:	bf00      	nop
 8004ab6:	371c      	adds	r7, #28
 8004ab8:	46bd      	mov	sp, r7
 8004aba:	f85d 7b04 	ldr.w	r7, [sp], #4
 8004abe:	4770      	bx	lr

08004ac0 <TIM_TI4_SetConfig>:
  *        protected against un-initialized filter and polarity values.
  * @retval None
  */
static void TIM_TI4_SetConfig(TIM_TypeDef *TIMx, uint32_t TIM_ICPolarity, uint32_t TIM_ICSelection,
                              uint32_t TIM_ICFilter)
{
 8004ac0:	b480      	push	{r7}
 8004ac2:	b087      	sub	sp, #28
 8004ac4:	af00      	add	r7, sp, #0
 8004ac6:	60f8      	str	r0, [r7, #12]
 8004ac8:	60b9      	str	r1, [r7, #8]
 8004aca:	607a      	str	r2, [r7, #4]
 8004acc:	603b      	str	r3, [r7, #0]
  uint32_t tmpccmr2;
  uint32_t tmpccer;

  /* Disable the Channel 4: Reset the CC4E Bit */
  TIMx->CCER &= ~TIM_CCER_CC4E;
 8004ace:	68fb      	ldr	r3, [r7, #12]
 8004ad0:	6a1b      	ldr	r3, [r3, #32]
 8004ad2:	f423 5280 	bic.w	r2, r3, #4096	; 0x1000
 8004ad6:	68fb      	ldr	r3, [r7, #12]
 8004ad8:	621a      	str	r2, [r3, #32]
  tmpccmr2 = TIMx->CCMR2;
 8004ada:	68fb      	ldr	r3, [r7, #12]
 8004adc:	69db      	ldr	r3, [r3, #28]
 8004ade:	617b      	str	r3, [r7, #20]
  tmpccer = TIMx->CCER;
 8004ae0:	68fb      	ldr	r3, [r7, #12]
 8004ae2:	6a1b      	ldr	r3, [r3, #32]
 8004ae4:	613b      	str	r3, [r7, #16]

  /* Select the Input */
  tmpccmr2 &= ~TIM_CCMR2_CC4S;
 8004ae6:	697b      	ldr	r3, [r7, #20]
 8004ae8:	f423 7340 	bic.w	r3, r3, #768	; 0x300
 8004aec:	617b      	str	r3, [r7, #20]
  tmpccmr2 |= (TIM_ICSelection << 8U);
 8004aee:	687b      	ldr	r3, [r7, #4]
 8004af0:	021b      	lsls	r3, r3, #8
 8004af2:	697a      	ldr	r2, [r7, #20]
 8004af4:	4313      	orrs	r3, r2
 8004af6:	617b      	str	r3, [r7, #20]

  /* Set the filter */
  tmpccmr2 &= ~TIM_CCMR2_IC4F;
 8004af8:	697b      	ldr	r3, [r7, #20]
 8004afa:	f423 4370 	bic.w	r3, r3, #61440	; 0xf000
 8004afe:	617b      	str	r3, [r7, #20]
  tmpccmr2 |= ((TIM_ICFilter << 12U) & TIM_CCMR2_IC4F);
 8004b00:	683b      	ldr	r3, [r7, #0]
 8004b02:	031b      	lsls	r3, r3, #12
 8004b04:	b29b      	uxth	r3, r3
 8004b06:	697a      	ldr	r2, [r7, #20]
 8004b08:	4313      	orrs	r3, r2
 8004b0a:	617b      	str	r3, [r7, #20]

  /* Select the Polarity and set the CC4E Bit */
  tmpccer &= ~(TIM_CCER_CC4P | TIM_CCER_CC4NP);
 8004b0c:	693b      	ldr	r3, [r7, #16]
 8004b0e:	f423 4320 	bic.w	r3, r3, #40960	; 0xa000
 8004b12:	613b      	str	r3, [r7, #16]
  tmpccer |= ((TIM_ICPolarity << 12U) & (TIM_CCER_CC4P | TIM_CCER_CC4NP));
 8004b14:	68bb      	ldr	r3, [r7, #8]
 8004b16:	031b      	lsls	r3, r3, #12
 8004b18:	f403 4320 	and.w	r3, r3, #40960	; 0xa000
 8004b1c:	693a      	ldr	r2, [r7, #16]
 8004b1e:	4313      	orrs	r3, r2
 8004b20:	613b      	str	r3, [r7, #16]

  /* Write to TIMx CCMR2 and CCER registers */
  TIMx->CCMR2 = tmpccmr2;
 8004b22:	68fb      	ldr	r3, [r7, #12]
 8004b24:	697a      	ldr	r2, [r7, #20]
 8004b26:	61da      	str	r2, [r3, #28]
  TIMx->CCER = tmpccer ;
 8004b28:	68fb      	ldr	r3, [r7, #12]
 8004b2a:	693a      	ldr	r2, [r7, #16]
 8004b2c:	621a      	str	r2, [r3, #32]
}
 8004b2e:	bf00      	nop
 8004b30:	371c      	adds	r7, #28
 8004b32:	46bd      	mov	sp, r7
 8004b34:	f85d 7b04 	ldr.w	r7, [sp], #4
 8004b38:	4770      	bx	lr

08004b3a <TIM_ITRx_SetConfig>:
  *            @arg TIM_TS_TI2FP2: Filtered Timer Input 2
  *            @arg TIM_TS_ETRF: External Trigger input
  * @retval None
  */
static void TIM_ITRx_SetConfig(TIM_TypeDef *TIMx, uint32_t InputTriggerSource)
{
 8004b3a:	b480      	push	{r7}
 8004b3c:	b085      	sub	sp, #20
 8004b3e:	af00      	add	r7, sp, #0
 8004b40:	6078      	str	r0, [r7, #4]
 8004b42:	6039      	str	r1, [r7, #0]
  uint32_t tmpsmcr;

  /* Get the TIMx SMCR register value */
  tmpsmcr = TIMx->SMCR;
 8004b44:	687b      	ldr	r3, [r7, #4]
 8004b46:	689b      	ldr	r3, [r3, #8]
 8004b48:	60fb      	str	r3, [r7, #12]
  /* Reset the TS Bits */
  tmpsmcr &= ~TIM_SMCR_TS;
 8004b4a:	68fb      	ldr	r3, [r7, #12]
 8004b4c:	f023 0370 	bic.w	r3, r3, #112	; 0x70
 8004b50:	60fb      	str	r3, [r7, #12]
  /* Set the Input Trigger source and the slave mode*/
  tmpsmcr |= (InputTriggerSource | TIM_SLAVEMODE_EXTERNAL1);
 8004b52:	683a      	ldr	r2, [r7, #0]
 8004b54:	68fb      	ldr	r3, [r7, #12]
 8004b56:	4313      	orrs	r3, r2
 8004b58:	f043 0307 	orr.w	r3, r3, #7
 8004b5c:	60fb      	str	r3, [r7, #12]
  /* Write to TIMx SMCR */
  TIMx->SMCR = tmpsmcr;
 8004b5e:	687b      	ldr	r3, [r7, #4]
 8004b60:	68fa      	ldr	r2, [r7, #12]
 8004b62:	609a      	str	r2, [r3, #8]
}
 8004b64:	bf00      	nop
 8004b66:	3714      	adds	r7, #20
 8004b68:	46bd      	mov	sp, r7
 8004b6a:	f85d 7b04 	ldr.w	r7, [sp], #4
 8004b6e:	4770      	bx	lr

08004b70 <TIM_ETR_SetConfig>:
  *          This parameter must be a value between 0x00 and 0x0F
  * @retval None
  */
void TIM_ETR_SetConfig(TIM_TypeDef *TIMx, uint32_t TIM_ExtTRGPrescaler,
                       uint32_t TIM_ExtTRGPolarity, uint32_t ExtTRGFilter)
{
 8004b70:	b480      	push	{r7}
 8004b72:	b087      	sub	sp, #28
 8004b74:	af00      	add	r7, sp, #0
 8004b76:	60f8      	str	r0, [r7, #12]
 8004b78:	60b9      	str	r1, [r7, #8]
 8004b7a:	607a      	str	r2, [r7, #4]
 8004b7c:	603b      	str	r3, [r7, #0]
  uint32_t tmpsmcr;

  tmpsmcr = TIMx->SMCR;
 8004b7e:	68fb      	ldr	r3, [r7, #12]
 8004b80:	689b      	ldr	r3, [r3, #8]
 8004b82:	617b      	str	r3, [r7, #20]

  /* Reset the ETR Bits */
  tmpsmcr &= ~(TIM_SMCR_ETF | TIM_SMCR_ETPS | TIM_SMCR_ECE | TIM_SMCR_ETP);
 8004b84:	697b      	ldr	r3, [r7, #20]
 8004b86:	f423 437f 	bic.w	r3, r3, #65280	; 0xff00
 8004b8a:	617b      	str	r3, [r7, #20]

  /* Set the Prescaler, the Filter value and the Polarity */
  tmpsmcr |= (uint32_t)(TIM_ExtTRGPrescaler | (TIM_ExtTRGPolarity | (ExtTRGFilter << 8U)));
 8004b8c:	683b      	ldr	r3, [r7, #0]
 8004b8e:	021a      	lsls	r2, r3, #8
 8004b90:	687b      	ldr	r3, [r7, #4]
 8004b92:	431a      	orrs	r2, r3
 8004b94:	68bb      	ldr	r3, [r7, #8]
 8004b96:	4313      	orrs	r3, r2
 8004b98:	697a      	ldr	r2, [r7, #20]
 8004b9a:	4313      	orrs	r3, r2
 8004b9c:	617b      	str	r3, [r7, #20]

  /* Write to TIMx SMCR */
  TIMx->SMCR = tmpsmcr;
 8004b9e:	68fb      	ldr	r3, [r7, #12]
 8004ba0:	697a      	ldr	r2, [r7, #20]
 8004ba2:	609a      	str	r2, [r3, #8]
}
 8004ba4:	bf00      	nop
 8004ba6:	371c      	adds	r7, #28
 8004ba8:	46bd      	mov	sp, r7
 8004baa:	f85d 7b04 	ldr.w	r7, [sp], #4
 8004bae:	4770      	bx	lr

08004bb0 <TIM_CCxChannelCmd>:
  * @param  ChannelState specifies the TIM Channel CCxE bit new state.
  *          This parameter can be: TIM_CCx_ENABLE or TIM_CCx_DISABLE.
  * @retval None
  */
void TIM_CCxChannelCmd(TIM_TypeDef *TIMx, uint32_t Channel, uint32_t ChannelState)
{
 8004bb0:	b480      	push	{r7}
 8004bb2:	b087      	sub	sp, #28
 8004bb4:	af00      	add	r7, sp, #0
 8004bb6:	60f8      	str	r0, [r7, #12]
 8004bb8:	60b9      	str	r1, [r7, #8]
 8004bba:	607a      	str	r2, [r7, #4]

  /* Check the parameters */
  assert_param(IS_TIM_CC1_INSTANCE(TIMx));
  assert_param(IS_TIM_CHANNELS(Channel));

  tmp = TIM_CCER_CC1E << (Channel & 0x1FU); /* 0x1FU = 31 bits max shift */
 8004bbc:	68bb      	ldr	r3, [r7, #8]
 8004bbe:	f003 031f 	and.w	r3, r3, #31
 8004bc2:	2201      	movs	r2, #1
 8004bc4:	fa02 f303 	lsl.w	r3, r2, r3
 8004bc8:	617b      	str	r3, [r7, #20]

  /* Reset the CCxE Bit */
  TIMx->CCER &= ~tmp;
 8004bca:	68fb      	ldr	r3, [r7, #12]
 8004bcc:	6a1a      	ldr	r2, [r3, #32]
 8004bce:	697b      	ldr	r3, [r7, #20]
 8004bd0:	43db      	mvns	r3, r3
 8004bd2:	401a      	ands	r2, r3
 8004bd4:	68fb      	ldr	r3, [r7, #12]
 8004bd6:	621a      	str	r2, [r3, #32]

  /* Set or reset the CCxE Bit */
  TIMx->CCER |= (uint32_t)(ChannelState << (Channel & 0x1FU)); /* 0x1FU = 31 bits max shift */
 8004bd8:	68fb      	ldr	r3, [r7, #12]
 8004bda:	6a1a      	ldr	r2, [r3, #32]
 8004bdc:	68bb      	ldr	r3, [r7, #8]
 8004bde:	f003 031f 	and.w	r3, r3, #31
 8004be2:	6879      	ldr	r1, [r7, #4]
 8004be4:	fa01 f303 	lsl.w	r3, r1, r3
 8004be8:	431a      	orrs	r2, r3
 8004bea:	68fb      	ldr	r3, [r7, #12]
 8004bec:	621a      	str	r2, [r3, #32]
}
 8004bee:	bf00      	nop
 8004bf0:	371c      	adds	r7, #28
 8004bf2:	46bd      	mov	sp, r7
 8004bf4:	f85d 7b04 	ldr.w	r7, [sp], #4
 8004bf8:	4770      	bx	lr
	...

08004bfc <HAL_TIMEx_MasterConfigSynchronization>:
  *         mode.
  * @retval HAL status
  */
HAL_StatusTypeDef HAL_TIMEx_MasterConfigSynchronization(TIM_HandleTypeDef *htim,
                                                        TIM_MasterConfigTypeDef *sMasterConfig)
{
 8004bfc:	b480      	push	{r7}
 8004bfe:	b085      	sub	sp, #20
 8004c00:	af00      	add	r7, sp, #0
 8004c02:	6078      	str	r0, [r7, #4]
 8004c04:	6039      	str	r1, [r7, #0]
  assert_param(IS_TIM_MASTER_INSTANCE(htim->Instance));
  assert_param(IS_TIM_TRGO_SOURCE(sMasterConfig->MasterOutputTrigger));
  assert_param(IS_TIM_MSM_STATE(sMasterConfig->MasterSlaveMode));

  /* Check input state */
  __HAL_LOCK(htim);
 8004c06:	687b      	ldr	r3, [r7, #4]
 8004c08:	f893 303c 	ldrb.w	r3, [r3, #60]	; 0x3c
 8004c0c:	2b01      	cmp	r3, #1
 8004c0e:	d101      	bne.n	8004c14 <HAL_TIMEx_MasterConfigSynchronization+0x18>
 8004c10:	2302      	movs	r3, #2
 8004c12:	e05a      	b.n	8004cca <HAL_TIMEx_MasterConfigSynchronization+0xce>
 8004c14:	687b      	ldr	r3, [r7, #4]
 8004c16:	2201      	movs	r2, #1
 8004c18:	f883 203c 	strb.w	r2, [r3, #60]	; 0x3c

  /* Change the handler state */
  htim->State = HAL_TIM_STATE_BUSY;
 8004c1c:	687b      	ldr	r3, [r7, #4]
 8004c1e:	2202      	movs	r2, #2
 8004c20:	f883 203d 	strb.w	r2, [r3, #61]	; 0x3d

  /* Get the TIMx CR2 register value */
  tmpcr2 = htim->Instance->CR2;
 8004c24:	687b      	ldr	r3, [r7, #4]
 8004c26:	681b      	ldr	r3, [r3, #0]
 8004c28:	685b      	ldr	r3, [r3, #4]
 8004c2a:	60fb      	str	r3, [r7, #12]

  /* Get the TIMx SMCR register value */
  tmpsmcr = htim->Instance->SMCR;
 8004c2c:	687b      	ldr	r3, [r7, #4]
 8004c2e:	681b      	ldr	r3, [r3, #0]
 8004c30:	689b      	ldr	r3, [r3, #8]
 8004c32:	60bb      	str	r3, [r7, #8]

  /* Reset the MMS Bits */
  tmpcr2 &= ~TIM_CR2_MMS;
 8004c34:	68fb      	ldr	r3, [r7, #12]
 8004c36:	f023 0370 	bic.w	r3, r3, #112	; 0x70
 8004c3a:	60fb      	str	r3, [r7, #12]
  /* Select the TRGO source */
  tmpcr2 |=  sMasterConfig->MasterOutputTrigger;
 8004c3c:	683b      	ldr	r3, [r7, #0]
 8004c3e:	681b      	ldr	r3, [r3, #0]
 8004c40:	68fa      	ldr	r2, [r7, #12]
 8004c42:	4313      	orrs	r3, r2
 8004c44:	60fb      	str	r3, [r7, #12]

  /* Update TIMx CR2 */
  htim->Instance->CR2 = tmpcr2;
 8004c46:	687b      	ldr	r3, [r7, #4]
 8004c48:	681b      	ldr	r3, [r3, #0]
 8004c4a:	68fa      	ldr	r2, [r7, #12]
 8004c4c:	605a      	str	r2, [r3, #4]

  if (IS_TIM_SLAVE_INSTANCE(htim->Instance))
 8004c4e:	687b      	ldr	r3, [r7, #4]
 8004c50:	681b      	ldr	r3, [r3, #0]
 8004c52:	4a21      	ldr	r2, [pc, #132]	; (8004cd8 <HAL_TIMEx_MasterConfigSynchronization+0xdc>)
 8004c54:	4293      	cmp	r3, r2
 8004c56:	d022      	beq.n	8004c9e <HAL_TIMEx_MasterConfigSynchronization+0xa2>
 8004c58:	687b      	ldr	r3, [r7, #4]
 8004c5a:	681b      	ldr	r3, [r3, #0]
 8004c5c:	f1b3 4f80 	cmp.w	r3, #1073741824	; 0x40000000
 8004c60:	d01d      	beq.n	8004c9e <HAL_TIMEx_MasterConfigSynchronization+0xa2>
 8004c62:	687b      	ldr	r3, [r7, #4]
 8004c64:	681b      	ldr	r3, [r3, #0]
 8004c66:	4a1d      	ldr	r2, [pc, #116]	; (8004cdc <HAL_TIMEx_MasterConfigSynchronization+0xe0>)
 8004c68:	4293      	cmp	r3, r2
 8004c6a:	d018      	beq.n	8004c9e <HAL_TIMEx_MasterConfigSynchronization+0xa2>
 8004c6c:	687b      	ldr	r3, [r7, #4]
 8004c6e:	681b      	ldr	r3, [r3, #0]
 8004c70:	4a1b      	ldr	r2, [pc, #108]	; (8004ce0 <HAL_TIMEx_MasterConfigSynchronization+0xe4>)
 8004c72:	4293      	cmp	r3, r2
 8004c74:	d013      	beq.n	8004c9e <HAL_TIMEx_MasterConfigSynchronization+0xa2>
 8004c76:	687b      	ldr	r3, [r7, #4]
 8004c78:	681b      	ldr	r3, [r3, #0]
 8004c7a:	4a1a      	ldr	r2, [pc, #104]	; (8004ce4 <HAL_TIMEx_MasterConfigSynchronization+0xe8>)
 8004c7c:	4293      	cmp	r3, r2
 8004c7e:	d00e      	beq.n	8004c9e <HAL_TIMEx_MasterConfigSynchronization+0xa2>
 8004c80:	687b      	ldr	r3, [r7, #4]
 8004c82:	681b      	ldr	r3, [r3, #0]
 8004c84:	4a18      	ldr	r2, [pc, #96]	; (8004ce8 <HAL_TIMEx_MasterConfigSynchronization+0xec>)
 8004c86:	4293      	cmp	r3, r2
 8004c88:	d009      	beq.n	8004c9e <HAL_TIMEx_MasterConfigSynchronization+0xa2>
 8004c8a:	687b      	ldr	r3, [r7, #4]
 8004c8c:	681b      	ldr	r3, [r3, #0]
 8004c8e:	4a17      	ldr	r2, [pc, #92]	; (8004cec <HAL_TIMEx_MasterConfigSynchronization+0xf0>)
 8004c90:	4293      	cmp	r3, r2
 8004c92:	d004      	beq.n	8004c9e <HAL_TIMEx_MasterConfigSynchronization+0xa2>
 8004c94:	687b      	ldr	r3, [r7, #4]
 8004c96:	681b      	ldr	r3, [r3, #0]
 8004c98:	4a15      	ldr	r2, [pc, #84]	; (8004cf0 <HAL_TIMEx_MasterConfigSynchronization+0xf4>)
 8004c9a:	4293      	cmp	r3, r2
 8004c9c:	d10c      	bne.n	8004cb8 <HAL_TIMEx_MasterConfigSynchronization+0xbc>
  {
    /* Reset the MSM Bit */
    tmpsmcr &= ~TIM_SMCR_MSM;
 8004c9e:	68bb      	ldr	r3, [r7, #8]
 8004ca0:	f023 0380 	bic.w	r3, r3, #128	; 0x80
 8004ca4:	60bb      	str	r3, [r7, #8]
    /* Set master mode */
    tmpsmcr |= sMasterConfig->MasterSlaveMode;
 8004ca6:	683b      	ldr	r3, [r7, #0]
 8004ca8:	685b      	ldr	r3, [r3, #4]
 8004caa:	68ba      	ldr	r2, [r7, #8]
 8004cac:	4313      	orrs	r3, r2
 8004cae:	60bb      	str	r3, [r7, #8]

    /* Update TIMx SMCR */
    htim->Instance->SMCR = tmpsmcr;
 8004cb0:	687b      	ldr	r3, [r7, #4]
 8004cb2:	681b      	ldr	r3, [r3, #0]
 8004cb4:	68ba      	ldr	r2, [r7, #8]
 8004cb6:	609a      	str	r2, [r3, #8]
  }

  /* Change the htim state */
  htim->State = HAL_TIM_STATE_READY;
 8004cb8:	687b      	ldr	r3, [r7, #4]
 8004cba:	2201      	movs	r2, #1
 8004cbc:	f883 203d 	strb.w	r2, [r3, #61]	; 0x3d

  __HAL_UNLOCK(htim);
 8004cc0:	687b      	ldr	r3, [r7, #4]
 8004cc2:	2200      	movs	r2, #0
 8004cc4:	f883 203c 	strb.w	r2, [r3, #60]	; 0x3c

  return HAL_OK;
 8004cc8:	2300      	movs	r3, #0
}
 8004cca:	4618      	mov	r0, r3
 8004ccc:	3714      	adds	r7, #20
 8004cce:	46bd      	mov	sp, r7
 8004cd0:	f85d 7b04 	ldr.w	r7, [sp], #4
 8004cd4:	4770      	bx	lr
 8004cd6:	bf00      	nop
 8004cd8:	40010000 	.word	0x40010000
 8004cdc:	40000400 	.word	0x40000400
 8004ce0:	40000800 	.word	0x40000800
 8004ce4:	40000c00 	.word	0x40000c00
 8004ce8:	40010400 	.word	0x40010400
 8004cec:	40014000 	.word	0x40014000
 8004cf0:	40001800 	.word	0x40001800

08004cf4 <HAL_TIMEx_ConfigBreakDeadTime>:
  *         interrupt can be enabled by calling the @ref __HAL_TIM_ENABLE_IT macro.
  * @retval HAL status
  */
HAL_StatusTypeDef HAL_TIMEx_ConfigBreakDeadTime(TIM_HandleTypeDef *htim,
                                                TIM_BreakDeadTimeConfigTypeDef *sBreakDeadTimeConfig)
{
 8004cf4:	b480      	push	{r7}
 8004cf6:	b085      	sub	sp, #20
 8004cf8:	af00      	add	r7, sp, #0
 8004cfa:	6078      	str	r0, [r7, #4]
 8004cfc:	6039      	str	r1, [r7, #0]
  /* Keep this variable initialized to 0 as it is used to configure BDTR register */
  uint32_t tmpbdtr = 0U;
 8004cfe:	2300      	movs	r3, #0
 8004d00:	60fb      	str	r3, [r7, #12]
  assert_param(IS_TIM_BREAK_STATE(sBreakDeadTimeConfig->BreakState));
  assert_param(IS_TIM_BREAK_POLARITY(sBreakDeadTimeConfig->BreakPolarity));
  assert_param(IS_TIM_AUTOMATIC_OUTPUT_STATE(sBreakDeadTimeConfig->AutomaticOutput));

  /* Check input state */
  __HAL_LOCK(htim);
 8004d02:	687b      	ldr	r3, [r7, #4]
 8004d04:	f893 303c 	ldrb.w	r3, [r3, #60]	; 0x3c
 8004d08:	2b01      	cmp	r3, #1
 8004d0a:	d101      	bne.n	8004d10 <HAL_TIMEx_ConfigBreakDeadTime+0x1c>
 8004d0c:	2302      	movs	r3, #2
 8004d0e:	e03d      	b.n	8004d8c <HAL_TIMEx_ConfigBreakDeadTime+0x98>
 8004d10:	687b      	ldr	r3, [r7, #4]
 8004d12:	2201      	movs	r2, #1
 8004d14:	f883 203c 	strb.w	r2, [r3, #60]	; 0x3c

  /* Set the Lock level, the Break enable Bit and the Polarity, the OSSR State,
     the OSSI State, the dead time value and the Automatic Output Enable Bit */

  /* Set the BDTR bits */
  MODIFY_REG(tmpbdtr, TIM_BDTR_DTG, sBreakDeadTimeConfig->DeadTime);
 8004d18:	68fb      	ldr	r3, [r7, #12]
 8004d1a:	f023 02ff 	bic.w	r2, r3, #255	; 0xff
 8004d1e:	683b      	ldr	r3, [r7, #0]
 8004d20:	68db      	ldr	r3, [r3, #12]
 8004d22:	4313      	orrs	r3, r2
 8004d24:	60fb      	str	r3, [r7, #12]
  MODIFY_REG(tmpbdtr, TIM_BDTR_LOCK, sBreakDeadTimeConfig->LockLevel);
 8004d26:	68fb      	ldr	r3, [r7, #12]
 8004d28:	f423 7240 	bic.w	r2, r3, #768	; 0x300
 8004d2c:	683b      	ldr	r3, [r7, #0]
 8004d2e:	689b      	ldr	r3, [r3, #8]
 8004d30:	4313      	orrs	r3, r2
 8004d32:	60fb      	str	r3, [r7, #12]
  MODIFY_REG(tmpbdtr, TIM_BDTR_OSSI, sBreakDeadTimeConfig->OffStateIDLEMode);
 8004d34:	68fb      	ldr	r3, [r7, #12]
 8004d36:	f423 6280 	bic.w	r2, r3, #1024	; 0x400
 8004d3a:	683b      	ldr	r3, [r7, #0]
 8004d3c:	685b      	ldr	r3, [r3, #4]
 8004d3e:	4313      	orrs	r3, r2
 8004d40:	60fb      	str	r3, [r7, #12]
  MODIFY_REG(tmpbdtr, TIM_BDTR_OSSR, sBreakDeadTimeConfig->OffStateRunMode);
 8004d42:	68fb      	ldr	r3, [r7, #12]
 8004d44:	f423 6200 	bic.w	r2, r3, #2048	; 0x800
 8004d48:	683b      	ldr	r3, [r7, #0]
 8004d4a:	681b      	ldr	r3, [r3, #0]
 8004d4c:	4313      	orrs	r3, r2
 8004d4e:	60fb      	str	r3, [r7, #12]
  MODIFY_REG(tmpbdtr, TIM_BDTR_BKE, sBreakDeadTimeConfig->BreakState);
 8004d50:	68fb      	ldr	r3, [r7, #12]
 8004d52:	f423 5280 	bic.w	r2, r3, #4096	; 0x1000
 8004d56:	683b      	ldr	r3, [r7, #0]
 8004d58:	691b      	ldr	r3, [r3, #16]
 8004d5a:	4313      	orrs	r3, r2
 8004d5c:	60fb      	str	r3, [r7, #12]
  MODIFY_REG(tmpbdtr, TIM_BDTR_BKP, sBreakDeadTimeConfig->BreakPolarity);
 8004d5e:	68fb      	ldr	r3, [r7, #12]
 8004d60:	f423 5200 	bic.w	r2, r3, #8192	; 0x2000
 8004d64:	683b      	ldr	r3, [r7, #0]
 8004d66:	695b      	ldr	r3, [r3, #20]
 8004d68:	4313      	orrs	r3, r2
 8004d6a:	60fb      	str	r3, [r7, #12]
  MODIFY_REG(tmpbdtr, TIM_BDTR_AOE, sBreakDeadTimeConfig->AutomaticOutput);
 8004d6c:	68fb      	ldr	r3, [r7, #12]
 8004d6e:	f423 4280 	bic.w	r2, r3, #16384	; 0x4000
 8004d72:	683b      	ldr	r3, [r7, #0]
 8004d74:	69db      	ldr	r3, [r3, #28]
 8004d76:	4313      	orrs	r3, r2
 8004d78:	60fb      	str	r3, [r7, #12]


  /* Set TIMx_BDTR */
  htim->Instance->BDTR = tmpbdtr;
 8004d7a:	687b      	ldr	r3, [r7, #4]
 8004d7c:	681b      	ldr	r3, [r3, #0]
 8004d7e:	68fa      	ldr	r2, [r7, #12]
 8004d80:	645a      	str	r2, [r3, #68]	; 0x44

  __HAL_UNLOCK(htim);
 8004d82:	687b      	ldr	r3, [r7, #4]
 8004d84:	2200      	movs	r2, #0
 8004d86:	f883 203c 	strb.w	r2, [r3, #60]	; 0x3c

  return HAL_OK;
 8004d8a:	2300      	movs	r3, #0
}
 8004d8c:	4618      	mov	r0, r3
 8004d8e:	3714      	adds	r7, #20
 8004d90:	46bd      	mov	sp, r7
 8004d92:	f85d 7b04 	ldr.w	r7, [sp], #4
 8004d96:	4770      	bx	lr

08004d98 <HAL_TIMEx_CommutCallback>:
  * @brief  Hall commutation changed callback in non-blocking mode
  * @param  htim TIM handle
  * @retval None
  */
__weak void HAL_TIMEx_CommutCallback(TIM_HandleTypeDef *htim)
{
 8004d98:	b480      	push	{r7}
 8004d9a:	b083      	sub	sp, #12
 8004d9c:	af00      	add	r7, sp, #0
 8004d9e:	6078      	str	r0, [r7, #4]
  UNUSED(htim);

  /* NOTE : This function should not be modified, when the callback is needed,
            the HAL_TIMEx_CommutCallback could be implemented in the user file
   */
}
 8004da0:	bf00      	nop
 8004da2:	370c      	adds	r7, #12
 8004da4:	46bd      	mov	sp, r7
 8004da6:	f85d 7b04 	ldr.w	r7, [sp], #4
 8004daa:	4770      	bx	lr

08004dac <HAL_TIMEx_BreakCallback>:
  * @brief  Hall Break detection callback in non-blocking mode
  * @param  htim TIM handle
  * @retval None
  */
__weak void HAL_TIMEx_BreakCallback(TIM_HandleTypeDef *htim)
{
 8004dac:	b480      	push	{r7}
 8004dae:	b083      	sub	sp, #12
 8004db0:	af00      	add	r7, sp, #0
 8004db2:	6078      	str	r0, [r7, #4]
  UNUSED(htim);

  /* NOTE : This function should not be modified, when the callback is needed,
            the HAL_TIMEx_BreakCallback could be implemented in the user file
   */
}
 8004db4:	bf00      	nop
 8004db6:	370c      	adds	r7, #12
 8004db8:	46bd      	mov	sp, r7
 8004dba:	f85d 7b04 	ldr.w	r7, [sp], #4
 8004dbe:	4770      	bx	lr

08004dc0 <HAL_UART_Init>:
  * @param  huart  Pointer to a UART_HandleTypeDef structure that contains
  *                the configuration information for the specified UART module.
  * @retval HAL status
  */
HAL_StatusTypeDef HAL_UART_Init(UART_HandleTypeDef *huart)
{
 8004dc0:	b580      	push	{r7, lr}
 8004dc2:	b082      	sub	sp, #8
 8004dc4:	af00      	add	r7, sp, #0
 8004dc6:	6078      	str	r0, [r7, #4]
  /* Check the UART handle allocation */
  if (huart == NULL)
 8004dc8:	687b      	ldr	r3, [r7, #4]
 8004dca:	2b00      	cmp	r3, #0
 8004dcc:	d101      	bne.n	8004dd2 <HAL_UART_Init+0x12>
  {
    return HAL_ERROR;
 8004dce:	2301      	movs	r3, #1
 8004dd0:	e03f      	b.n	8004e52 <HAL_UART_Init+0x92>
    assert_param(IS_UART_INSTANCE(huart->Instance));
  }
  assert_param(IS_UART_WORD_LENGTH(huart->Init.WordLength));
  assert_param(IS_UART_OVERSAMPLING(huart->Init.OverSampling));

  if (huart->gState == HAL_UART_STATE_RESET)
 8004dd2:	687b      	ldr	r3, [r7, #4]
 8004dd4:	f893 303d 	ldrb.w	r3, [r3, #61]	; 0x3d
 8004dd8:	b2db      	uxtb	r3, r3
 8004dda:	2b00      	cmp	r3, #0
 8004ddc:	d106      	bne.n	8004dec <HAL_UART_Init+0x2c>
  {
    /* Allocate lock resource and initialize it */
    huart->Lock = HAL_UNLOCKED;
 8004dde:	687b      	ldr	r3, [r7, #4]
 8004de0:	2200      	movs	r2, #0
 8004de2:	f883 203c 	strb.w	r2, [r3, #60]	; 0x3c

    /* Init the low level hardware */
    huart->MspInitCallback(huart);
#else
    /* Init the low level hardware : GPIO, CLOCK */
    HAL_UART_MspInit(huart);
 8004de6:	6878      	ldr	r0, [r7, #4]
 8004de8:	f7fd f9a4 	bl	8002134 <HAL_UART_MspInit>
#endif /* (USE_HAL_UART_REGISTER_CALLBACKS) */
  }

  huart->gState = HAL_UART_STATE_BUSY;
 8004dec:	687b      	ldr	r3, [r7, #4]
 8004dee:	2224      	movs	r2, #36	; 0x24
 8004df0:	f883 203d 	strb.w	r2, [r3, #61]	; 0x3d

  /* Disable the peripheral */
  __HAL_UART_DISABLE(huart);
 8004df4:	687b      	ldr	r3, [r7, #4]
 8004df6:	681b      	ldr	r3, [r3, #0]
 8004df8:	68da      	ldr	r2, [r3, #12]
 8004dfa:	687b      	ldr	r3, [r7, #4]
 8004dfc:	681b      	ldr	r3, [r3, #0]
 8004dfe:	f422 5200 	bic.w	r2, r2, #8192	; 0x2000
 8004e02:	60da      	str	r2, [r3, #12]

  /* Set the UART Communication parameters */
  UART_SetConfig(huart);
 8004e04:	6878      	ldr	r0, [r7, #4]
 8004e06:	f000 f929 	bl	800505c <UART_SetConfig>

  /* In asynchronous mode, the following bits must be kept cleared:
     - LINEN and CLKEN bits in the USART_CR2 register,
     - SCEN, HDSEL and IREN  bits in the USART_CR3 register.*/
  CLEAR_BIT(huart->Instance->CR2, (USART_CR2_LINEN | USART_CR2_CLKEN));
 8004e0a:	687b      	ldr	r3, [r7, #4]
 8004e0c:	681b      	ldr	r3, [r3, #0]
 8004e0e:	691a      	ldr	r2, [r3, #16]
 8004e10:	687b      	ldr	r3, [r7, #4]
 8004e12:	681b      	ldr	r3, [r3, #0]
 8004e14:	f422 4290 	bic.w	r2, r2, #18432	; 0x4800
 8004e18:	611a      	str	r2, [r3, #16]
  CLEAR_BIT(huart->Instance->CR3, (USART_CR3_SCEN | USART_CR3_HDSEL | USART_CR3_IREN));
 8004e1a:	687b      	ldr	r3, [r7, #4]
 8004e1c:	681b      	ldr	r3, [r3, #0]
 8004e1e:	695a      	ldr	r2, [r3, #20]
 8004e20:	687b      	ldr	r3, [r7, #4]
 8004e22:	681b      	ldr	r3, [r3, #0]
 8004e24:	f022 022a 	bic.w	r2, r2, #42	; 0x2a
 8004e28:	615a      	str	r2, [r3, #20]

  /* Enable the peripheral */
  __HAL_UART_ENABLE(huart);
 8004e2a:	687b      	ldr	r3, [r7, #4]
 8004e2c:	681b      	ldr	r3, [r3, #0]
 8004e2e:	68da      	ldr	r2, [r3, #12]
 8004e30:	687b      	ldr	r3, [r7, #4]
 8004e32:	681b      	ldr	r3, [r3, #0]
 8004e34:	f442 5200 	orr.w	r2, r2, #8192	; 0x2000
 8004e38:	60da      	str	r2, [r3, #12]

  /* Initialize the UART state */
  huart->ErrorCode = HAL_UART_ERROR_NONE;
 8004e3a:	687b      	ldr	r3, [r7, #4]
 8004e3c:	2200      	movs	r2, #0
 8004e3e:	641a      	str	r2, [r3, #64]	; 0x40
  huart->gState = HAL_UART_STATE_READY;
 8004e40:	687b      	ldr	r3, [r7, #4]
 8004e42:	2220      	movs	r2, #32
 8004e44:	f883 203d 	strb.w	r2, [r3, #61]	; 0x3d
  huart->RxState = HAL_UART_STATE_READY;
 8004e48:	687b      	ldr	r3, [r7, #4]
 8004e4a:	2220      	movs	r2, #32
 8004e4c:	f883 203e 	strb.w	r2, [r3, #62]	; 0x3e

  return HAL_OK;
 8004e50:	2300      	movs	r3, #0
}
 8004e52:	4618      	mov	r0, r3
 8004e54:	3708      	adds	r7, #8
 8004e56:	46bd      	mov	sp, r7
 8004e58:	bd80      	pop	{r7, pc}

08004e5a <HAL_UART_Transmit>:
  * @param  Size  Amount of data elements (u8 or u16) to be sent
  * @param  Timeout Timeout duration
  * @retval HAL status
  */
HAL_StatusTypeDef HAL_UART_Transmit(UART_HandleTypeDef *huart, uint8_t *pData, uint16_t Size, uint32_t Timeout)
{
 8004e5a:	b580      	push	{r7, lr}
 8004e5c:	b08a      	sub	sp, #40	; 0x28
 8004e5e:	af02      	add	r7, sp, #8
 8004e60:	60f8      	str	r0, [r7, #12]
 8004e62:	60b9      	str	r1, [r7, #8]
 8004e64:	603b      	str	r3, [r7, #0]
 8004e66:	4613      	mov	r3, r2
 8004e68:	80fb      	strh	r3, [r7, #6]
  uint8_t  *pdata8bits;
  uint16_t *pdata16bits;
  uint32_t tickstart = 0U;
 8004e6a:	2300      	movs	r3, #0
 8004e6c:	617b      	str	r3, [r7, #20]

  /* Check that a Tx process is not already ongoing */
  if (huart->gState == HAL_UART_STATE_READY)
 8004e6e:	68fb      	ldr	r3, [r7, #12]
 8004e70:	f893 303d 	ldrb.w	r3, [r3, #61]	; 0x3d
 8004e74:	b2db      	uxtb	r3, r3
 8004e76:	2b20      	cmp	r3, #32
 8004e78:	d17c      	bne.n	8004f74 <HAL_UART_Transmit+0x11a>
  {
    if ((pData == NULL) || (Size == 0U))
 8004e7a:	68bb      	ldr	r3, [r7, #8]
 8004e7c:	2b00      	cmp	r3, #0
 8004e7e:	d002      	beq.n	8004e86 <HAL_UART_Transmit+0x2c>
 8004e80:	88fb      	ldrh	r3, [r7, #6]
 8004e82:	2b00      	cmp	r3, #0
 8004e84:	d101      	bne.n	8004e8a <HAL_UART_Transmit+0x30>
    {
      return  HAL_ERROR;
 8004e86:	2301      	movs	r3, #1
 8004e88:	e075      	b.n	8004f76 <HAL_UART_Transmit+0x11c>
    }

    /* Process Locked */
    __HAL_LOCK(huart);
 8004e8a:	68fb      	ldr	r3, [r7, #12]
 8004e8c:	f893 303c 	ldrb.w	r3, [r3, #60]	; 0x3c
 8004e90:	2b01      	cmp	r3, #1
 8004e92:	d101      	bne.n	8004e98 <HAL_UART_Transmit+0x3e>
 8004e94:	2302      	movs	r3, #2
 8004e96:	e06e      	b.n	8004f76 <HAL_UART_Transmit+0x11c>
 8004e98:	68fb      	ldr	r3, [r7, #12]
 8004e9a:	2201      	movs	r2, #1
 8004e9c:	f883 203c 	strb.w	r2, [r3, #60]	; 0x3c

    huart->ErrorCode = HAL_UART_ERROR_NONE;
 8004ea0:	68fb      	ldr	r3, [r7, #12]
 8004ea2:	2200      	movs	r2, #0
 8004ea4:	641a      	str	r2, [r3, #64]	; 0x40
    huart->gState = HAL_UART_STATE_BUSY_TX;
 8004ea6:	68fb      	ldr	r3, [r7, #12]
 8004ea8:	2221      	movs	r2, #33	; 0x21
 8004eaa:	f883 203d 	strb.w	r2, [r3, #61]	; 0x3d

    /* Init tickstart for timeout management */
    tickstart = HAL_GetTick();
 8004eae:	f7fd fb27 	bl	8002500 <HAL_GetTick>
 8004eb2:	6178      	str	r0, [r7, #20]

    huart->TxXferSize = Size;
 8004eb4:	68fb      	ldr	r3, [r7, #12]
 8004eb6:	88fa      	ldrh	r2, [r7, #6]
 8004eb8:	849a      	strh	r2, [r3, #36]	; 0x24
    huart->TxXferCount = Size;
 8004eba:	68fb      	ldr	r3, [r7, #12]
 8004ebc:	88fa      	ldrh	r2, [r7, #6]
 8004ebe:	84da      	strh	r2, [r3, #38]	; 0x26

    /* In case of 9bits/No Parity transfer, pData needs to be handled as a uint16_t pointer */
    if ((huart->Init.WordLength == UART_WORDLENGTH_9B) && (huart->Init.Parity == UART_PARITY_NONE))
 8004ec0:	68fb      	ldr	r3, [r7, #12]
 8004ec2:	689b      	ldr	r3, [r3, #8]
 8004ec4:	f5b3 5f80 	cmp.w	r3, #4096	; 0x1000
 8004ec8:	d108      	bne.n	8004edc <HAL_UART_Transmit+0x82>
 8004eca:	68fb      	ldr	r3, [r7, #12]
 8004ecc:	691b      	ldr	r3, [r3, #16]
 8004ece:	2b00      	cmp	r3, #0
 8004ed0:	d104      	bne.n	8004edc <HAL_UART_Transmit+0x82>
    {
      pdata8bits  = NULL;
 8004ed2:	2300      	movs	r3, #0
 8004ed4:	61fb      	str	r3, [r7, #28]
      pdata16bits = (uint16_t *) pData;
 8004ed6:	68bb      	ldr	r3, [r7, #8]
 8004ed8:	61bb      	str	r3, [r7, #24]
 8004eda:	e003      	b.n	8004ee4 <HAL_UART_Transmit+0x8a>
    }
    else
    {
      pdata8bits  = pData;
 8004edc:	68bb      	ldr	r3, [r7, #8]
 8004ede:	61fb      	str	r3, [r7, #28]
      pdata16bits = NULL;
 8004ee0:	2300      	movs	r3, #0
 8004ee2:	61bb      	str	r3, [r7, #24]
    }

    /* Process Unlocked */
    __HAL_UNLOCK(huart);
 8004ee4:	68fb      	ldr	r3, [r7, #12]
 8004ee6:	2200      	movs	r2, #0
 8004ee8:	f883 203c 	strb.w	r2, [r3, #60]	; 0x3c

    while (huart->TxXferCount > 0U)
 8004eec:	e02a      	b.n	8004f44 <HAL_UART_Transmit+0xea>
    {
      if (UART_WaitOnFlagUntilTimeout(huart, UART_FLAG_TXE, RESET, tickstart, Timeout) != HAL_OK)
 8004eee:	683b      	ldr	r3, [r7, #0]
 8004ef0:	9300      	str	r3, [sp, #0]
 8004ef2:	697b      	ldr	r3, [r7, #20]
 8004ef4:	2200      	movs	r2, #0
 8004ef6:	2180      	movs	r1, #128	; 0x80
 8004ef8:	68f8      	ldr	r0, [r7, #12]
 8004efa:	f000 f840 	bl	8004f7e <UART_WaitOnFlagUntilTimeout>
 8004efe:	4603      	mov	r3, r0
 8004f00:	2b00      	cmp	r3, #0
 8004f02:	d001      	beq.n	8004f08 <HAL_UART_Transmit+0xae>
      {
        return HAL_TIMEOUT;
 8004f04:	2303      	movs	r3, #3
 8004f06:	e036      	b.n	8004f76 <HAL_UART_Transmit+0x11c>
      }
      if (pdata8bits == NULL)
 8004f08:	69fb      	ldr	r3, [r7, #28]
 8004f0a:	2b00      	cmp	r3, #0
 8004f0c:	d10b      	bne.n	8004f26 <HAL_UART_Transmit+0xcc>
      {
        huart->Instance->DR = (uint16_t)(*pdata16bits & 0x01FFU);
 8004f0e:	69bb      	ldr	r3, [r7, #24]
 8004f10:	881b      	ldrh	r3, [r3, #0]
 8004f12:	461a      	mov	r2, r3
 8004f14:	68fb      	ldr	r3, [r7, #12]
 8004f16:	681b      	ldr	r3, [r3, #0]
 8004f18:	f3c2 0208 	ubfx	r2, r2, #0, #9
 8004f1c:	605a      	str	r2, [r3, #4]
        pdata16bits++;
 8004f1e:	69bb      	ldr	r3, [r7, #24]
 8004f20:	3302      	adds	r3, #2
 8004f22:	61bb      	str	r3, [r7, #24]
 8004f24:	e007      	b.n	8004f36 <HAL_UART_Transmit+0xdc>
      }
      else
      {
        huart->Instance->DR = (uint8_t)(*pdata8bits & 0xFFU);
 8004f26:	69fb      	ldr	r3, [r7, #28]
 8004f28:	781a      	ldrb	r2, [r3, #0]
 8004f2a:	68fb      	ldr	r3, [r7, #12]
 8004f2c:	681b      	ldr	r3, [r3, #0]
 8004f2e:	605a      	str	r2, [r3, #4]
        pdata8bits++;
 8004f30:	69fb      	ldr	r3, [r7, #28]
 8004f32:	3301      	adds	r3, #1
 8004f34:	61fb      	str	r3, [r7, #28]
      }
      huart->TxXferCount--;
 8004f36:	68fb      	ldr	r3, [r7, #12]
 8004f38:	8cdb      	ldrh	r3, [r3, #38]	; 0x26
 8004f3a:	b29b      	uxth	r3, r3
 8004f3c:	3b01      	subs	r3, #1
 8004f3e:	b29a      	uxth	r2, r3
 8004f40:	68fb      	ldr	r3, [r7, #12]
 8004f42:	84da      	strh	r2, [r3, #38]	; 0x26
    while (huart->TxXferCount > 0U)
 8004f44:	68fb      	ldr	r3, [r7, #12]
 8004f46:	8cdb      	ldrh	r3, [r3, #38]	; 0x26
 8004f48:	b29b      	uxth	r3, r3
 8004f4a:	2b00      	cmp	r3, #0
 8004f4c:	d1cf      	bne.n	8004eee <HAL_UART_Transmit+0x94>
    }

    if (UART_WaitOnFlagUntilTimeout(huart, UART_FLAG_TC, RESET, tickstart, Timeout) != HAL_OK)
 8004f4e:	683b      	ldr	r3, [r7, #0]
 8004f50:	9300      	str	r3, [sp, #0]
 8004f52:	697b      	ldr	r3, [r7, #20]
 8004f54:	2200      	movs	r2, #0
 8004f56:	2140      	movs	r1, #64	; 0x40
 8004f58:	68f8      	ldr	r0, [r7, #12]
 8004f5a:	f000 f810 	bl	8004f7e <UART_WaitOnFlagUntilTimeout>
 8004f5e:	4603      	mov	r3, r0
 8004f60:	2b00      	cmp	r3, #0
 8004f62:	d001      	beq.n	8004f68 <HAL_UART_Transmit+0x10e>
    {
      return HAL_TIMEOUT;
 8004f64:	2303      	movs	r3, #3
 8004f66:	e006      	b.n	8004f76 <HAL_UART_Transmit+0x11c>
    }

    /* At end of Tx process, restore huart->gState to Ready */
    huart->gState = HAL_UART_STATE_READY;
 8004f68:	68fb      	ldr	r3, [r7, #12]
 8004f6a:	2220      	movs	r2, #32
 8004f6c:	f883 203d 	strb.w	r2, [r3, #61]	; 0x3d

    return HAL_OK;
 8004f70:	2300      	movs	r3, #0
 8004f72:	e000      	b.n	8004f76 <HAL_UART_Transmit+0x11c>
  }
  else
  {
    return HAL_BUSY;
 8004f74:	2302      	movs	r3, #2
  }
}
 8004f76:	4618      	mov	r0, r3
 8004f78:	3720      	adds	r7, #32
 8004f7a:	46bd      	mov	sp, r7
 8004f7c:	bd80      	pop	{r7, pc}

08004f7e <UART_WaitOnFlagUntilTimeout>:
  * @param  Timeout Timeout duration
  * @retval HAL status
  */
static HAL_StatusTypeDef UART_WaitOnFlagUntilTimeout(UART_HandleTypeDef *huart, uint32_t Flag, FlagStatus Status,
                                                     uint32_t Tickstart, uint32_t Timeout)
{
 8004f7e:	b580      	push	{r7, lr}
 8004f80:	b090      	sub	sp, #64	; 0x40
 8004f82:	af00      	add	r7, sp, #0
 8004f84:	60f8      	str	r0, [r7, #12]
 8004f86:	60b9      	str	r1, [r7, #8]
 8004f88:	603b      	str	r3, [r7, #0]
 8004f8a:	4613      	mov	r3, r2
 8004f8c:	71fb      	strb	r3, [r7, #7]
  /* Wait until flag is set */
  while ((__HAL_UART_GET_FLAG(huart, Flag) ? SET : RESET) == Status)
 8004f8e:	e050      	b.n	8005032 <UART_WaitOnFlagUntilTimeout+0xb4>
  {
    /* Check for the Timeout */
    if (Timeout != HAL_MAX_DELAY)
 8004f90:	6cbb      	ldr	r3, [r7, #72]	; 0x48
 8004f92:	f1b3 3fff 	cmp.w	r3, #4294967295	; 0xffffffff
 8004f96:	d04c      	beq.n	8005032 <UART_WaitOnFlagUntilTimeout+0xb4>
    {
      if ((Timeout == 0U) || ((HAL_GetTick() - Tickstart) > Timeout))
 8004f98:	6cbb      	ldr	r3, [r7, #72]	; 0x48
 8004f9a:	2b00      	cmp	r3, #0
 8004f9c:	d007      	beq.n	8004fae <UART_WaitOnFlagUntilTimeout+0x30>
 8004f9e:	f7fd faaf 	bl	8002500 <HAL_GetTick>
 8004fa2:	4602      	mov	r2, r0
 8004fa4:	683b      	ldr	r3, [r7, #0]
 8004fa6:	1ad3      	subs	r3, r2, r3
 8004fa8:	6cba      	ldr	r2, [r7, #72]	; 0x48
 8004faa:	429a      	cmp	r2, r3
 8004fac:	d241      	bcs.n	8005032 <UART_WaitOnFlagUntilTimeout+0xb4>
      {
        /* Disable TXE, RXNE, PE and ERR (Frame error, noise error, overrun error) interrupts for the interrupt process */
        ATOMIC_CLEAR_BIT(huart->Instance->CR1, (USART_CR1_RXNEIE | USART_CR1_PEIE | USART_CR1_TXEIE));
 8004fae:	68fb      	ldr	r3, [r7, #12]
 8004fb0:	681b      	ldr	r3, [r3, #0]
 8004fb2:	330c      	adds	r3, #12
 8004fb4:	62bb      	str	r3, [r7, #40]	; 0x28
 */
__STATIC_FORCEINLINE uint32_t __LDREXW(volatile uint32_t *addr)
{
    uint32_t result;

   __ASM volatile ("ldrex %0, %1" : "=r" (result) : "Q" (*addr) );
 8004fb6:	6abb      	ldr	r3, [r7, #40]	; 0x28
 8004fb8:	e853 3f00 	ldrex	r3, [r3]
 8004fbc:	627b      	str	r3, [r7, #36]	; 0x24
   return(result);
 8004fbe:	6a7b      	ldr	r3, [r7, #36]	; 0x24
 8004fc0:	f423 73d0 	bic.w	r3, r3, #416	; 0x1a0
 8004fc4:	63fb      	str	r3, [r7, #60]	; 0x3c
 8004fc6:	68fb      	ldr	r3, [r7, #12]
 8004fc8:	681b      	ldr	r3, [r3, #0]
 8004fca:	330c      	adds	r3, #12
 8004fcc:	6bfa      	ldr	r2, [r7, #60]	; 0x3c
 8004fce:	637a      	str	r2, [r7, #52]	; 0x34
 8004fd0:	633b      	str	r3, [r7, #48]	; 0x30
 */
__STATIC_FORCEINLINE uint32_t __STREXW(uint32_t value, volatile uint32_t *addr)
{
   uint32_t result;

   __ASM volatile ("strex %0, %2, %1" : "=&r" (result), "=Q" (*addr) : "r" (value) );
 8004fd2:	6b39      	ldr	r1, [r7, #48]	; 0x30
 8004fd4:	6b7a      	ldr	r2, [r7, #52]	; 0x34
 8004fd6:	e841 2300 	strex	r3, r2, [r1]
 8004fda:	62fb      	str	r3, [r7, #44]	; 0x2c
   return(result);
 8004fdc:	6afb      	ldr	r3, [r7, #44]	; 0x2c
 8004fde:	2b00      	cmp	r3, #0
 8004fe0:	d1e5      	bne.n	8004fae <UART_WaitOnFlagUntilTimeout+0x30>
        ATOMIC_CLEAR_BIT(huart->Instance->CR3, USART_CR3_EIE);
 8004fe2:	68fb      	ldr	r3, [r7, #12]
 8004fe4:	681b      	ldr	r3, [r3, #0]
 8004fe6:	3314      	adds	r3, #20
 8004fe8:	617b      	str	r3, [r7, #20]
   __ASM volatile ("ldrex %0, %1" : "=r" (result) : "Q" (*addr) );
 8004fea:	697b      	ldr	r3, [r7, #20]
 8004fec:	e853 3f00 	ldrex	r3, [r3]
 8004ff0:	613b      	str	r3, [r7, #16]
   return(result);
 8004ff2:	693b      	ldr	r3, [r7, #16]
 8004ff4:	f023 0301 	bic.w	r3, r3, #1
 8004ff8:	63bb      	str	r3, [r7, #56]	; 0x38
 8004ffa:	68fb      	ldr	r3, [r7, #12]
 8004ffc:	681b      	ldr	r3, [r3, #0]
 8004ffe:	3314      	adds	r3, #20
 8005000:	6bba      	ldr	r2, [r7, #56]	; 0x38
 8005002:	623a      	str	r2, [r7, #32]
 8005004:	61fb      	str	r3, [r7, #28]
   __ASM volatile ("strex %0, %2, %1" : "=&r" (result), "=Q" (*addr) : "r" (value) );
 8005006:	69f9      	ldr	r1, [r7, #28]
 8005008:	6a3a      	ldr	r2, [r7, #32]
 800500a:	e841 2300 	strex	r3, r2, [r1]
 800500e:	61bb      	str	r3, [r7, #24]
   return(result);
 8005010:	69bb      	ldr	r3, [r7, #24]
 8005012:	2b00      	cmp	r3, #0
 8005014:	d1e5      	bne.n	8004fe2 <UART_WaitOnFlagUntilTimeout+0x64>

        huart->gState  = HAL_UART_STATE_READY;
 8005016:	68fb      	ldr	r3, [r7, #12]
 8005018:	2220      	movs	r2, #32
 800501a:	f883 203d 	strb.w	r2, [r3, #61]	; 0x3d
        huart->RxState = HAL_UART_STATE_READY;
 800501e:	68fb      	ldr	r3, [r7, #12]
 8005020:	2220      	movs	r2, #32
 8005022:	f883 203e 	strb.w	r2, [r3, #62]	; 0x3e

        /* Process Unlocked */
        __HAL_UNLOCK(huart);
 8005026:	68fb      	ldr	r3, [r7, #12]
 8005028:	2200      	movs	r2, #0
 800502a:	f883 203c 	strb.w	r2, [r3, #60]	; 0x3c

        return HAL_TIMEOUT;
 800502e:	2303      	movs	r3, #3
 8005030:	e00f      	b.n	8005052 <UART_WaitOnFlagUntilTimeout+0xd4>
  while ((__HAL_UART_GET_FLAG(huart, Flag) ? SET : RESET) == Status)
 8005032:	68fb      	ldr	r3, [r7, #12]
 8005034:	681b      	ldr	r3, [r3, #0]
 8005036:	681a      	ldr	r2, [r3, #0]
 8005038:	68bb      	ldr	r3, [r7, #8]
 800503a:	4013      	ands	r3, r2
 800503c:	68ba      	ldr	r2, [r7, #8]
 800503e:	429a      	cmp	r2, r3
 8005040:	bf0c      	ite	eq
 8005042:	2301      	moveq	r3, #1
 8005044:	2300      	movne	r3, #0
 8005046:	b2db      	uxtb	r3, r3
 8005048:	461a      	mov	r2, r3
 800504a:	79fb      	ldrb	r3, [r7, #7]
 800504c:	429a      	cmp	r2, r3
 800504e:	d09f      	beq.n	8004f90 <UART_WaitOnFlagUntilTimeout+0x12>
      }
    }
  }
  return HAL_OK;
 8005050:	2300      	movs	r3, #0
}
 8005052:	4618      	mov	r0, r3
 8005054:	3740      	adds	r7, #64	; 0x40
 8005056:	46bd      	mov	sp, r7
 8005058:	bd80      	pop	{r7, pc}
	...

0800505c <UART_SetConfig>:
  * @param  huart  Pointer to a UART_HandleTypeDef structure that contains
  *                the configuration information for the specified UART module.
  * @retval None
  */
static void UART_SetConfig(UART_HandleTypeDef *huart)
{
 800505c:	e92d 4ff0 	stmdb	sp!, {r4, r5, r6, r7, r8, r9, sl, fp, lr}
 8005060:	b09f      	sub	sp, #124	; 0x7c
 8005062:	af00      	add	r7, sp, #0
 8005064:	66f8      	str	r0, [r7, #108]	; 0x6c
  assert_param(IS_UART_MODE(huart->Init.Mode));

  /*-------------------------- USART CR2 Configuration -----------------------*/
  /* Configure the UART Stop Bits: Set STOP[13:12] bits
     according to huart->Init.StopBits value */
  MODIFY_REG(huart->Instance->CR2, USART_CR2_STOP, huart->Init.StopBits);
 8005066:	6efb      	ldr	r3, [r7, #108]	; 0x6c
 8005068:	681b      	ldr	r3, [r3, #0]
 800506a:	691b      	ldr	r3, [r3, #16]
 800506c:	f423 5040 	bic.w	r0, r3, #12288	; 0x3000
 8005070:	6efb      	ldr	r3, [r7, #108]	; 0x6c
 8005072:	68d9      	ldr	r1, [r3, #12]
 8005074:	6efb      	ldr	r3, [r7, #108]	; 0x6c
 8005076:	681a      	ldr	r2, [r3, #0]
 8005078:	ea40 0301 	orr.w	r3, r0, r1
 800507c:	6113      	str	r3, [r2, #16]
     Set the M bits according to huart->Init.WordLength value
     Set PCE and PS bits according to huart->Init.Parity value
     Set TE and RE bits according to huart->Init.Mode value
     Set OVER8 bit according to huart->Init.OverSampling value */

  tmpreg = (uint32_t)huart->Init.WordLength | huart->Init.Parity | huart->Init.Mode | huart->Init.OverSampling;
 800507e:	6efb      	ldr	r3, [r7, #108]	; 0x6c
 8005080:	689a      	ldr	r2, [r3, #8]
 8005082:	6efb      	ldr	r3, [r7, #108]	; 0x6c
 8005084:	691b      	ldr	r3, [r3, #16]
 8005086:	431a      	orrs	r2, r3
 8005088:	6efb      	ldr	r3, [r7, #108]	; 0x6c
 800508a:	695b      	ldr	r3, [r3, #20]
 800508c:	431a      	orrs	r2, r3
 800508e:	6efb      	ldr	r3, [r7, #108]	; 0x6c
 8005090:	69db      	ldr	r3, [r3, #28]
 8005092:	4313      	orrs	r3, r2
 8005094:	673b      	str	r3, [r7, #112]	; 0x70
  MODIFY_REG(huart->Instance->CR1,
 8005096:	6efb      	ldr	r3, [r7, #108]	; 0x6c
 8005098:	681b      	ldr	r3, [r3, #0]
 800509a:	68db      	ldr	r3, [r3, #12]
 800509c:	f423 4116 	bic.w	r1, r3, #38400	; 0x9600
 80050a0:	f021 010c 	bic.w	r1, r1, #12
 80050a4:	6efb      	ldr	r3, [r7, #108]	; 0x6c
 80050a6:	681a      	ldr	r2, [r3, #0]
 80050a8:	6f3b      	ldr	r3, [r7, #112]	; 0x70
 80050aa:	430b      	orrs	r3, r1
 80050ac:	60d3      	str	r3, [r2, #12]
             (uint32_t)(USART_CR1_M | USART_CR1_PCE | USART_CR1_PS | USART_CR1_TE | USART_CR1_RE | USART_CR1_OVER8),
             tmpreg);

  /*-------------------------- USART CR3 Configuration -----------------------*/
  /* Configure the UART HFC: Set CTSE and RTSE bits according to huart->Init.HwFlowCtl value */
  MODIFY_REG(huart->Instance->CR3, (USART_CR3_RTSE | USART_CR3_CTSE), huart->Init.HwFlowCtl);
 80050ae:	6efb      	ldr	r3, [r7, #108]	; 0x6c
 80050b0:	681b      	ldr	r3, [r3, #0]
 80050b2:	695b      	ldr	r3, [r3, #20]
 80050b4:	f423 7040 	bic.w	r0, r3, #768	; 0x300
 80050b8:	6efb      	ldr	r3, [r7, #108]	; 0x6c
 80050ba:	6999      	ldr	r1, [r3, #24]
 80050bc:	6efb      	ldr	r3, [r7, #108]	; 0x6c
 80050be:	681a      	ldr	r2, [r3, #0]
 80050c0:	ea40 0301 	orr.w	r3, r0, r1
 80050c4:	6153      	str	r3, [r2, #20]
    if ((huart->Instance == USART1) || (huart->Instance == USART6) || (huart->Instance == UART9) || (huart->Instance == UART10))
    {
      pclk = HAL_RCC_GetPCLK2Freq();
    }
#elif defined(USART6)
    if ((huart->Instance == USART1) || (huart->Instance == USART6))
 80050c6:	6efb      	ldr	r3, [r7, #108]	; 0x6c
 80050c8:	681a      	ldr	r2, [r3, #0]
 80050ca:	4bc5      	ldr	r3, [pc, #788]	; (80053e0 <UART_SetConfig+0x384>)
 80050cc:	429a      	cmp	r2, r3
 80050ce:	d004      	beq.n	80050da <UART_SetConfig+0x7e>
 80050d0:	6efb      	ldr	r3, [r7, #108]	; 0x6c
 80050d2:	681a      	ldr	r2, [r3, #0]
 80050d4:	4bc3      	ldr	r3, [pc, #780]	; (80053e4 <UART_SetConfig+0x388>)
 80050d6:	429a      	cmp	r2, r3
 80050d8:	d103      	bne.n	80050e2 <UART_SetConfig+0x86>
    {
      pclk = HAL_RCC_GetPCLK2Freq();
 80050da:	f7fd fe07 	bl	8002cec <HAL_RCC_GetPCLK2Freq>
 80050de:	6778      	str	r0, [r7, #116]	; 0x74
 80050e0:	e002      	b.n	80050e8 <UART_SetConfig+0x8c>
      pclk = HAL_RCC_GetPCLK2Freq();
    }
#endif /* USART6 */
    else
    {
      pclk = HAL_RCC_GetPCLK1Freq();
 80050e2:	f7fd fdef 	bl	8002cc4 <HAL_RCC_GetPCLK1Freq>
 80050e6:	6778      	str	r0, [r7, #116]	; 0x74
    }
  /*-------------------------- USART BRR Configuration ---------------------*/
  if (huart->Init.OverSampling == UART_OVERSAMPLING_8)
 80050e8:	6efb      	ldr	r3, [r7, #108]	; 0x6c
 80050ea:	69db      	ldr	r3, [r3, #28]
 80050ec:	f5b3 4f00 	cmp.w	r3, #32768	; 0x8000
 80050f0:	f040 80b6 	bne.w	8005260 <UART_SetConfig+0x204>
  {
    huart->Instance->BRR = UART_BRR_SAMPLING8(pclk, huart->Init.BaudRate);
 80050f4:	6f7b      	ldr	r3, [r7, #116]	; 0x74
 80050f6:	461c      	mov	r4, r3
 80050f8:	f04f 0500 	mov.w	r5, #0
 80050fc:	4622      	mov	r2, r4
 80050fe:	462b      	mov	r3, r5
 8005100:	1891      	adds	r1, r2, r2
 8005102:	6439      	str	r1, [r7, #64]	; 0x40
 8005104:	415b      	adcs	r3, r3
 8005106:	647b      	str	r3, [r7, #68]	; 0x44
 8005108:	e9d7 2310 	ldrd	r2, r3, [r7, #64]	; 0x40
 800510c:	1912      	adds	r2, r2, r4
 800510e:	eb45 0303 	adc.w	r3, r5, r3
 8005112:	f04f 0000 	mov.w	r0, #0
 8005116:	f04f 0100 	mov.w	r1, #0
 800511a:	00d9      	lsls	r1, r3, #3
 800511c:	ea41 7152 	orr.w	r1, r1, r2, lsr #29
 8005120:	00d0      	lsls	r0, r2, #3
 8005122:	4602      	mov	r2, r0
 8005124:	460b      	mov	r3, r1
 8005126:	1911      	adds	r1, r2, r4
 8005128:	6639      	str	r1, [r7, #96]	; 0x60
 800512a:	416b      	adcs	r3, r5
 800512c:	667b      	str	r3, [r7, #100]	; 0x64
 800512e:	6efb      	ldr	r3, [r7, #108]	; 0x6c
 8005130:	685b      	ldr	r3, [r3, #4]
 8005132:	461a      	mov	r2, r3
 8005134:	f04f 0300 	mov.w	r3, #0
 8005138:	1891      	adds	r1, r2, r2
 800513a:	63b9      	str	r1, [r7, #56]	; 0x38
 800513c:	415b      	adcs	r3, r3
 800513e:	63fb      	str	r3, [r7, #60]	; 0x3c
 8005140:	e9d7 230e 	ldrd	r2, r3, [r7, #56]	; 0x38
 8005144:	e9d7 0118 	ldrd	r0, r1, [r7, #96]	; 0x60
 8005148:	f7fb fd9e 	bl	8000c88 <__aeabi_uldivmod>
 800514c:	4602      	mov	r2, r0
 800514e:	460b      	mov	r3, r1
 8005150:	4ba5      	ldr	r3, [pc, #660]	; (80053e8 <UART_SetConfig+0x38c>)
 8005152:	fba3 2302 	umull	r2, r3, r3, r2
 8005156:	095b      	lsrs	r3, r3, #5
 8005158:	011e      	lsls	r6, r3, #4
 800515a:	6f7b      	ldr	r3, [r7, #116]	; 0x74
 800515c:	461c      	mov	r4, r3
 800515e:	f04f 0500 	mov.w	r5, #0
 8005162:	4622      	mov	r2, r4
 8005164:	462b      	mov	r3, r5
 8005166:	1891      	adds	r1, r2, r2
 8005168:	6339      	str	r1, [r7, #48]	; 0x30
 800516a:	415b      	adcs	r3, r3
 800516c:	637b      	str	r3, [r7, #52]	; 0x34
 800516e:	e9d7 230c 	ldrd	r2, r3, [r7, #48]	; 0x30
 8005172:	1912      	adds	r2, r2, r4
 8005174:	eb45 0303 	adc.w	r3, r5, r3
 8005178:	f04f 0000 	mov.w	r0, #0
 800517c:	f04f 0100 	mov.w	r1, #0
 8005180:	00d9      	lsls	r1, r3, #3
 8005182:	ea41 7152 	orr.w	r1, r1, r2, lsr #29
 8005186:	00d0      	lsls	r0, r2, #3
 8005188:	4602      	mov	r2, r0
 800518a:	460b      	mov	r3, r1
 800518c:	1911      	adds	r1, r2, r4
 800518e:	65b9      	str	r1, [r7, #88]	; 0x58
 8005190:	416b      	adcs	r3, r5
 8005192:	65fb      	str	r3, [r7, #92]	; 0x5c
 8005194:	6efb      	ldr	r3, [r7, #108]	; 0x6c
 8005196:	685b      	ldr	r3, [r3, #4]
 8005198:	461a      	mov	r2, r3
 800519a:	f04f 0300 	mov.w	r3, #0
 800519e:	1891      	adds	r1, r2, r2
 80051a0:	62b9      	str	r1, [r7, #40]	; 0x28
 80051a2:	415b      	adcs	r3, r3
 80051a4:	62fb      	str	r3, [r7, #44]	; 0x2c
 80051a6:	e9d7 230a 	ldrd	r2, r3, [r7, #40]	; 0x28
 80051aa:	e9d7 0116 	ldrd	r0, r1, [r7, #88]	; 0x58
 80051ae:	f7fb fd6b 	bl	8000c88 <__aeabi_uldivmod>
 80051b2:	4602      	mov	r2, r0
 80051b4:	460b      	mov	r3, r1
 80051b6:	4b8c      	ldr	r3, [pc, #560]	; (80053e8 <UART_SetConfig+0x38c>)
 80051b8:	fba3 1302 	umull	r1, r3, r3, r2
 80051bc:	095b      	lsrs	r3, r3, #5
 80051be:	2164      	movs	r1, #100	; 0x64
 80051c0:	fb01 f303 	mul.w	r3, r1, r3
 80051c4:	1ad3      	subs	r3, r2, r3
 80051c6:	00db      	lsls	r3, r3, #3
 80051c8:	3332      	adds	r3, #50	; 0x32
 80051ca:	4a87      	ldr	r2, [pc, #540]	; (80053e8 <UART_SetConfig+0x38c>)
 80051cc:	fba2 2303 	umull	r2, r3, r2, r3
 80051d0:	095b      	lsrs	r3, r3, #5
 80051d2:	005b      	lsls	r3, r3, #1
 80051d4:	f403 73f8 	and.w	r3, r3, #496	; 0x1f0
 80051d8:	441e      	add	r6, r3
 80051da:	6f7b      	ldr	r3, [r7, #116]	; 0x74
 80051dc:	4618      	mov	r0, r3
 80051de:	f04f 0100 	mov.w	r1, #0
 80051e2:	4602      	mov	r2, r0
 80051e4:	460b      	mov	r3, r1
 80051e6:	1894      	adds	r4, r2, r2
 80051e8:	623c      	str	r4, [r7, #32]
 80051ea:	415b      	adcs	r3, r3
 80051ec:	627b      	str	r3, [r7, #36]	; 0x24
 80051ee:	e9d7 2308 	ldrd	r2, r3, [r7, #32]
 80051f2:	1812      	adds	r2, r2, r0
 80051f4:	eb41 0303 	adc.w	r3, r1, r3
 80051f8:	f04f 0400 	mov.w	r4, #0
 80051fc:	f04f 0500 	mov.w	r5, #0
 8005200:	00dd      	lsls	r5, r3, #3
 8005202:	ea45 7552 	orr.w	r5, r5, r2, lsr #29
 8005206:	00d4      	lsls	r4, r2, #3
 8005208:	4622      	mov	r2, r4
 800520a:	462b      	mov	r3, r5
 800520c:	1814      	adds	r4, r2, r0
 800520e:	653c      	str	r4, [r7, #80]	; 0x50
 8005210:	414b      	adcs	r3, r1
 8005212:	657b      	str	r3, [r7, #84]	; 0x54
 8005214:	6efb      	ldr	r3, [r7, #108]	; 0x6c
 8005216:	685b      	ldr	r3, [r3, #4]
 8005218:	461a      	mov	r2, r3
 800521a:	f04f 0300 	mov.w	r3, #0
 800521e:	1891      	adds	r1, r2, r2
 8005220:	61b9      	str	r1, [r7, #24]
 8005222:	415b      	adcs	r3, r3
 8005224:	61fb      	str	r3, [r7, #28]
 8005226:	e9d7 2306 	ldrd	r2, r3, [r7, #24]
 800522a:	e9d7 0114 	ldrd	r0, r1, [r7, #80]	; 0x50
 800522e:	f7fb fd2b 	bl	8000c88 <__aeabi_uldivmod>
 8005232:	4602      	mov	r2, r0
 8005234:	460b      	mov	r3, r1
 8005236:	4b6c      	ldr	r3, [pc, #432]	; (80053e8 <UART_SetConfig+0x38c>)
 8005238:	fba3 1302 	umull	r1, r3, r3, r2
 800523c:	095b      	lsrs	r3, r3, #5
 800523e:	2164      	movs	r1, #100	; 0x64
 8005240:	fb01 f303 	mul.w	r3, r1, r3
 8005244:	1ad3      	subs	r3, r2, r3
 8005246:	00db      	lsls	r3, r3, #3
 8005248:	3332      	adds	r3, #50	; 0x32
 800524a:	4a67      	ldr	r2, [pc, #412]	; (80053e8 <UART_SetConfig+0x38c>)
 800524c:	fba2 2303 	umull	r2, r3, r2, r3
 8005250:	095b      	lsrs	r3, r3, #5
 8005252:	f003 0207 	and.w	r2, r3, #7
 8005256:	6efb      	ldr	r3, [r7, #108]	; 0x6c
 8005258:	681b      	ldr	r3, [r3, #0]
 800525a:	4432      	add	r2, r6
 800525c:	609a      	str	r2, [r3, #8]
  }
  else
  {
    huart->Instance->BRR = UART_BRR_SAMPLING16(pclk, huart->Init.BaudRate);
  }
}
 800525e:	e0b9      	b.n	80053d4 <UART_SetConfig+0x378>
    huart->Instance->BRR = UART_BRR_SAMPLING16(pclk, huart->Init.BaudRate);
 8005260:	6f7b      	ldr	r3, [r7, #116]	; 0x74
 8005262:	461c      	mov	r4, r3
 8005264:	f04f 0500 	mov.w	r5, #0
 8005268:	4622      	mov	r2, r4
 800526a:	462b      	mov	r3, r5
 800526c:	1891      	adds	r1, r2, r2
 800526e:	6139      	str	r1, [r7, #16]
 8005270:	415b      	adcs	r3, r3
 8005272:	617b      	str	r3, [r7, #20]
 8005274:	e9d7 2304 	ldrd	r2, r3, [r7, #16]
 8005278:	1912      	adds	r2, r2, r4
 800527a:	eb45 0303 	adc.w	r3, r5, r3
 800527e:	f04f 0000 	mov.w	r0, #0
 8005282:	f04f 0100 	mov.w	r1, #0
 8005286:	00d9      	lsls	r1, r3, #3
 8005288:	ea41 7152 	orr.w	r1, r1, r2, lsr #29
 800528c:	00d0      	lsls	r0, r2, #3
 800528e:	4602      	mov	r2, r0
 8005290:	460b      	mov	r3, r1
 8005292:	eb12 0804 	adds.w	r8, r2, r4
 8005296:	eb43 0905 	adc.w	r9, r3, r5
 800529a:	6efb      	ldr	r3, [r7, #108]	; 0x6c
 800529c:	685b      	ldr	r3, [r3, #4]
 800529e:	4618      	mov	r0, r3
 80052a0:	f04f 0100 	mov.w	r1, #0
 80052a4:	f04f 0200 	mov.w	r2, #0
 80052a8:	f04f 0300 	mov.w	r3, #0
 80052ac:	008b      	lsls	r3, r1, #2
 80052ae:	ea43 7390 	orr.w	r3, r3, r0, lsr #30
 80052b2:	0082      	lsls	r2, r0, #2
 80052b4:	4640      	mov	r0, r8
 80052b6:	4649      	mov	r1, r9
 80052b8:	f7fb fce6 	bl	8000c88 <__aeabi_uldivmod>
 80052bc:	4602      	mov	r2, r0
 80052be:	460b      	mov	r3, r1
 80052c0:	4b49      	ldr	r3, [pc, #292]	; (80053e8 <UART_SetConfig+0x38c>)
 80052c2:	fba3 2302 	umull	r2, r3, r3, r2
 80052c6:	095b      	lsrs	r3, r3, #5
 80052c8:	011e      	lsls	r6, r3, #4
 80052ca:	6f7b      	ldr	r3, [r7, #116]	; 0x74
 80052cc:	4618      	mov	r0, r3
 80052ce:	f04f 0100 	mov.w	r1, #0
 80052d2:	4602      	mov	r2, r0
 80052d4:	460b      	mov	r3, r1
 80052d6:	1894      	adds	r4, r2, r2
 80052d8:	60bc      	str	r4, [r7, #8]
 80052da:	415b      	adcs	r3, r3
 80052dc:	60fb      	str	r3, [r7, #12]
 80052de:	e9d7 2302 	ldrd	r2, r3, [r7, #8]
 80052e2:	1812      	adds	r2, r2, r0
 80052e4:	eb41 0303 	adc.w	r3, r1, r3
 80052e8:	f04f 0400 	mov.w	r4, #0
 80052ec:	f04f 0500 	mov.w	r5, #0
 80052f0:	00dd      	lsls	r5, r3, #3
 80052f2:	ea45 7552 	orr.w	r5, r5, r2, lsr #29
 80052f6:	00d4      	lsls	r4, r2, #3
 80052f8:	4622      	mov	r2, r4
 80052fa:	462b      	mov	r3, r5
 80052fc:	1814      	adds	r4, r2, r0
 80052fe:	64bc      	str	r4, [r7, #72]	; 0x48
 8005300:	414b      	adcs	r3, r1
 8005302:	64fb      	str	r3, [r7, #76]	; 0x4c
 8005304:	6efb      	ldr	r3, [r7, #108]	; 0x6c
 8005306:	685b      	ldr	r3, [r3, #4]
 8005308:	4618      	mov	r0, r3
 800530a:	f04f 0100 	mov.w	r1, #0
 800530e:	f04f 0200 	mov.w	r2, #0
 8005312:	f04f 0300 	mov.w	r3, #0
 8005316:	008b      	lsls	r3, r1, #2
 8005318:	ea43 7390 	orr.w	r3, r3, r0, lsr #30
 800531c:	0082      	lsls	r2, r0, #2
 800531e:	e9d7 0112 	ldrd	r0, r1, [r7, #72]	; 0x48
 8005322:	f7fb fcb1 	bl	8000c88 <__aeabi_uldivmod>
 8005326:	4602      	mov	r2, r0
 8005328:	460b      	mov	r3, r1
 800532a:	4b2f      	ldr	r3, [pc, #188]	; (80053e8 <UART_SetConfig+0x38c>)
 800532c:	fba3 1302 	umull	r1, r3, r3, r2
 8005330:	095b      	lsrs	r3, r3, #5
 8005332:	2164      	movs	r1, #100	; 0x64
 8005334:	fb01 f303 	mul.w	r3, r1, r3
 8005338:	1ad3      	subs	r3, r2, r3
 800533a:	011b      	lsls	r3, r3, #4
 800533c:	3332      	adds	r3, #50	; 0x32
 800533e:	4a2a      	ldr	r2, [pc, #168]	; (80053e8 <UART_SetConfig+0x38c>)
 8005340:	fba2 2303 	umull	r2, r3, r2, r3
 8005344:	095b      	lsrs	r3, r3, #5
 8005346:	f003 03f0 	and.w	r3, r3, #240	; 0xf0
 800534a:	441e      	add	r6, r3
 800534c:	6f7b      	ldr	r3, [r7, #116]	; 0x74
 800534e:	4618      	mov	r0, r3
 8005350:	f04f 0100 	mov.w	r1, #0
 8005354:	4602      	mov	r2, r0
 8005356:	460b      	mov	r3, r1
 8005358:	1894      	adds	r4, r2, r2
 800535a:	603c      	str	r4, [r7, #0]
 800535c:	415b      	adcs	r3, r3
 800535e:	607b      	str	r3, [r7, #4]
 8005360:	e9d7 2300 	ldrd	r2, r3, [r7]
 8005364:	1812      	adds	r2, r2, r0
 8005366:	eb41 0303 	adc.w	r3, r1, r3
 800536a:	f04f 0400 	mov.w	r4, #0
 800536e:	f04f 0500 	mov.w	r5, #0
 8005372:	00dd      	lsls	r5, r3, #3
 8005374:	ea45 7552 	orr.w	r5, r5, r2, lsr #29
 8005378:	00d4      	lsls	r4, r2, #3
 800537a:	4622      	mov	r2, r4
 800537c:	462b      	mov	r3, r5
 800537e:	eb12 0a00 	adds.w	sl, r2, r0
 8005382:	eb43 0b01 	adc.w	fp, r3, r1
 8005386:	6efb      	ldr	r3, [r7, #108]	; 0x6c
 8005388:	685b      	ldr	r3, [r3, #4]
 800538a:	4618      	mov	r0, r3
 800538c:	f04f 0100 	mov.w	r1, #0
 8005390:	f04f 0200 	mov.w	r2, #0
 8005394:	f04f 0300 	mov.w	r3, #0
 8005398:	008b      	lsls	r3, r1, #2
 800539a:	ea43 7390 	orr.w	r3, r3, r0, lsr #30
 800539e:	0082      	lsls	r2, r0, #2
 80053a0:	4650      	mov	r0, sl
 80053a2:	4659      	mov	r1, fp
 80053a4:	f7fb fc70 	bl	8000c88 <__aeabi_uldivmod>
 80053a8:	4602      	mov	r2, r0
 80053aa:	460b      	mov	r3, r1
 80053ac:	4b0e      	ldr	r3, [pc, #56]	; (80053e8 <UART_SetConfig+0x38c>)
 80053ae:	fba3 1302 	umull	r1, r3, r3, r2
 80053b2:	095b      	lsrs	r3, r3, #5
 80053b4:	2164      	movs	r1, #100	; 0x64
 80053b6:	fb01 f303 	mul.w	r3, r1, r3
 80053ba:	1ad3      	subs	r3, r2, r3
 80053bc:	011b      	lsls	r3, r3, #4
 80053be:	3332      	adds	r3, #50	; 0x32
 80053c0:	4a09      	ldr	r2, [pc, #36]	; (80053e8 <UART_SetConfig+0x38c>)
 80053c2:	fba2 2303 	umull	r2, r3, r2, r3
 80053c6:	095b      	lsrs	r3, r3, #5
 80053c8:	f003 020f 	and.w	r2, r3, #15
 80053cc:	6efb      	ldr	r3, [r7, #108]	; 0x6c
 80053ce:	681b      	ldr	r3, [r3, #0]
 80053d0:	4432      	add	r2, r6
 80053d2:	609a      	str	r2, [r3, #8]
}
 80053d4:	bf00      	nop
 80053d6:	377c      	adds	r7, #124	; 0x7c
 80053d8:	46bd      	mov	sp, r7
 80053da:	e8bd 8ff0 	ldmia.w	sp!, {r4, r5, r6, r7, r8, r9, sl, fp, pc}
 80053de:	bf00      	nop
 80053e0:	40011000 	.word	0x40011000
 80053e4:	40011400 	.word	0x40011400
 80053e8:	51eb851f 	.word	0x51eb851f

080053ec <DWT_Delay_us>:
uint32_t DWT_Delay_Init(void);


// This Function Provides Delay In Microseconds Using DWT
__STATIC_INLINE void DWT_Delay_us(volatile uint32_t au32_microseconds)
{
 80053ec:	b580      	push	{r7, lr}
 80053ee:	b084      	sub	sp, #16
 80053f0:	af00      	add	r7, sp, #0
 80053f2:	6078      	str	r0, [r7, #4]
  uint32_t au32_initial_ticks = DWT->CYCCNT;
 80053f4:	4b0f      	ldr	r3, [pc, #60]	; (8005434 <DWT_Delay_us+0x48>)
 80053f6:	685b      	ldr	r3, [r3, #4]
 80053f8:	60fb      	str	r3, [r7, #12]
  uint32_t au32_ticks = (HAL_RCC_GetHCLKFreq() / 1000000);
 80053fa:	f7fd fc57 	bl	8002cac <HAL_RCC_GetHCLKFreq>
 80053fe:	4603      	mov	r3, r0
 8005400:	4a0d      	ldr	r2, [pc, #52]	; (8005438 <DWT_Delay_us+0x4c>)
 8005402:	fba2 2303 	umull	r2, r3, r2, r3
 8005406:	0c9b      	lsrs	r3, r3, #18
 8005408:	60bb      	str	r3, [r7, #8]
  au32_microseconds *= au32_ticks;
 800540a:	687b      	ldr	r3, [r7, #4]
 800540c:	68ba      	ldr	r2, [r7, #8]
 800540e:	fb02 f303 	mul.w	r3, r2, r3
 8005412:	607b      	str	r3, [r7, #4]
  while ((DWT->CYCCNT - au32_initial_ticks) < au32_microseconds-au32_ticks);
 8005414:	bf00      	nop
 8005416:	4b07      	ldr	r3, [pc, #28]	; (8005434 <DWT_Delay_us+0x48>)
 8005418:	685a      	ldr	r2, [r3, #4]
 800541a:	68fb      	ldr	r3, [r7, #12]
 800541c:	1ad2      	subs	r2, r2, r3
 800541e:	6879      	ldr	r1, [r7, #4]
 8005420:	68bb      	ldr	r3, [r7, #8]
 8005422:	1acb      	subs	r3, r1, r3
 8005424:	429a      	cmp	r2, r3
 8005426:	d3f6      	bcc.n	8005416 <DWT_Delay_us+0x2a>
}
 8005428:	bf00      	nop
 800542a:	bf00      	nop
 800542c:	3710      	adds	r7, #16
 800542e:	46bd      	mov	sp, r7
 8005430:	bd80      	pop	{r7, pc}
 8005432:	bf00      	nop
 8005434:	e0001000 	.word	0xe0001000
 8005438:	431bde83 	.word	0x431bde83

0800543c <HCSR04_Init>:
static HCSR04_info gs_HCSR04_info[HCSR04_UNITS] = {0};



void HCSR04_Init(uint8_t au8_HCSR04_Instance, TIM_HandleTypeDef* TMR_Handle)
{
 800543c:	b580      	push	{r7, lr}
 800543e:	b096      	sub	sp, #88	; 0x58
 8005440:	af00      	add	r7, sp, #0
 8005442:	4603      	mov	r3, r0
 8005444:	6039      	str	r1, [r7, #0]
 8005446:	71fb      	strb	r3, [r7, #7]
	GPIO_InitTypeDef TRIG_GPIO_InitStruct = {0};
 8005448:	f107 0344 	add.w	r3, r7, #68	; 0x44
 800544c:	2200      	movs	r2, #0
 800544e:	601a      	str	r2, [r3, #0]
 8005450:	605a      	str	r2, [r3, #4]
 8005452:	609a      	str	r2, [r3, #8]
 8005454:	60da      	str	r2, [r3, #12]
 8005456:	611a      	str	r2, [r3, #16]
	TIM_ClockConfigTypeDef sClockSourceConfig = {0};
 8005458:	f107 0334 	add.w	r3, r7, #52	; 0x34
 800545c:	2200      	movs	r2, #0
 800545e:	601a      	str	r2, [r3, #0]
 8005460:	605a      	str	r2, [r3, #4]
 8005462:	609a      	str	r2, [r3, #8]
 8005464:	60da      	str	r2, [r3, #12]
	TIM_MasterConfigTypeDef sMasterConfig = {0};
 8005466:	f107 032c 	add.w	r3, r7, #44	; 0x2c
 800546a:	2200      	movs	r2, #0
 800546c:	601a      	str	r2, [r3, #0]
 800546e:	605a      	str	r2, [r3, #4]
	TIM_IC_InitTypeDef sConfigIC = {0};
 8005470:	f107 031c 	add.w	r3, r7, #28
 8005474:	2200      	movs	r2, #0
 8005476:	601a      	str	r2, [r3, #0]
 8005478:	605a      	str	r2, [r3, #4]
 800547a:	609a      	str	r2, [r3, #8]
 800547c:	60da      	str	r2, [r3, #12]

    DWT_Delay_Init();
 800547e:	f000 fca1 	bl	8005dc4 <DWT_Delay_Init>

	/*--------[ Configure The HCSR04 TRIGGER GPIO Pin ]-------*/

    if(HCSR04_CfgParam[au8_HCSR04_Instance].TRIG_GPIO == GPIOA)
 8005482:	79fa      	ldrb	r2, [r7, #7]
 8005484:	4997      	ldr	r1, [pc, #604]	; (80056e4 <HCSR04_Init+0x2a8>)
 8005486:	4613      	mov	r3, r2
 8005488:	009b      	lsls	r3, r3, #2
 800548a:	4413      	add	r3, r2
 800548c:	009b      	lsls	r3, r3, #2
 800548e:	440b      	add	r3, r1
 8005490:	681b      	ldr	r3, [r3, #0]
 8005492:	4a95      	ldr	r2, [pc, #596]	; (80056e8 <HCSR04_Init+0x2ac>)
 8005494:	4293      	cmp	r3, r2
 8005496:	d10e      	bne.n	80054b6 <HCSR04_Init+0x7a>
    {
    	__HAL_RCC_GPIOA_CLK_ENABLE();
 8005498:	2300      	movs	r3, #0
 800549a:	61bb      	str	r3, [r7, #24]
 800549c:	4b93      	ldr	r3, [pc, #588]	; (80056ec <HCSR04_Init+0x2b0>)
 800549e:	6b1b      	ldr	r3, [r3, #48]	; 0x30
 80054a0:	4a92      	ldr	r2, [pc, #584]	; (80056ec <HCSR04_Init+0x2b0>)
 80054a2:	f043 0301 	orr.w	r3, r3, #1
 80054a6:	6313      	str	r3, [r2, #48]	; 0x30
 80054a8:	4b90      	ldr	r3, [pc, #576]	; (80056ec <HCSR04_Init+0x2b0>)
 80054aa:	6b1b      	ldr	r3, [r3, #48]	; 0x30
 80054ac:	f003 0301 	and.w	r3, r3, #1
 80054b0:	61bb      	str	r3, [r7, #24]
 80054b2:	69bb      	ldr	r3, [r7, #24]
 80054b4:	e066      	b.n	8005584 <HCSR04_Init+0x148>
    }
    else if(HCSR04_CfgParam[au8_HCSR04_Instance].TRIG_GPIO == GPIOB)
 80054b6:	79fa      	ldrb	r2, [r7, #7]
 80054b8:	498a      	ldr	r1, [pc, #552]	; (80056e4 <HCSR04_Init+0x2a8>)
 80054ba:	4613      	mov	r3, r2
 80054bc:	009b      	lsls	r3, r3, #2
 80054be:	4413      	add	r3, r2
 80054c0:	009b      	lsls	r3, r3, #2
 80054c2:	440b      	add	r3, r1
 80054c4:	681b      	ldr	r3, [r3, #0]
 80054c6:	4a8a      	ldr	r2, [pc, #552]	; (80056f0 <HCSR04_Init+0x2b4>)
 80054c8:	4293      	cmp	r3, r2
 80054ca:	d10e      	bne.n	80054ea <HCSR04_Init+0xae>
    {
    	__HAL_RCC_GPIOB_CLK_ENABLE();
 80054cc:	2300      	movs	r3, #0
 80054ce:	617b      	str	r3, [r7, #20]
 80054d0:	4b86      	ldr	r3, [pc, #536]	; (80056ec <HCSR04_Init+0x2b0>)
 80054d2:	6b1b      	ldr	r3, [r3, #48]	; 0x30
 80054d4:	4a85      	ldr	r2, [pc, #532]	; (80056ec <HCSR04_Init+0x2b0>)
 80054d6:	f043 0302 	orr.w	r3, r3, #2
 80054da:	6313      	str	r3, [r2, #48]	; 0x30
 80054dc:	4b83      	ldr	r3, [pc, #524]	; (80056ec <HCSR04_Init+0x2b0>)
 80054de:	6b1b      	ldr	r3, [r3, #48]	; 0x30
 80054e0:	f003 0302 	and.w	r3, r3, #2
 80054e4:	617b      	str	r3, [r7, #20]
 80054e6:	697b      	ldr	r3, [r7, #20]
 80054e8:	e04c      	b.n	8005584 <HCSR04_Init+0x148>
    }
    else if(HCSR04_CfgParam[au8_HCSR04_Instance].TRIG_GPIO == GPIOC)
 80054ea:	79fa      	ldrb	r2, [r7, #7]
 80054ec:	497d      	ldr	r1, [pc, #500]	; (80056e4 <HCSR04_Init+0x2a8>)
 80054ee:	4613      	mov	r3, r2
 80054f0:	009b      	lsls	r3, r3, #2
 80054f2:	4413      	add	r3, r2
 80054f4:	009b      	lsls	r3, r3, #2
 80054f6:	440b      	add	r3, r1
 80054f8:	681b      	ldr	r3, [r3, #0]
 80054fa:	4a7e      	ldr	r2, [pc, #504]	; (80056f4 <HCSR04_Init+0x2b8>)
 80054fc:	4293      	cmp	r3, r2
 80054fe:	d10e      	bne.n	800551e <HCSR04_Init+0xe2>
    {
        __HAL_RCC_GPIOC_CLK_ENABLE();
 8005500:	2300      	movs	r3, #0
 8005502:	613b      	str	r3, [r7, #16]
 8005504:	4b79      	ldr	r3, [pc, #484]	; (80056ec <HCSR04_Init+0x2b0>)
 8005506:	6b1b      	ldr	r3, [r3, #48]	; 0x30
 8005508:	4a78      	ldr	r2, [pc, #480]	; (80056ec <HCSR04_Init+0x2b0>)
 800550a:	f043 0304 	orr.w	r3, r3, #4
 800550e:	6313      	str	r3, [r2, #48]	; 0x30
 8005510:	4b76      	ldr	r3, [pc, #472]	; (80056ec <HCSR04_Init+0x2b0>)
 8005512:	6b1b      	ldr	r3, [r3, #48]	; 0x30
 8005514:	f003 0304 	and.w	r3, r3, #4
 8005518:	613b      	str	r3, [r7, #16]
 800551a:	693b      	ldr	r3, [r7, #16]
 800551c:	e032      	b.n	8005584 <HCSR04_Init+0x148>
    }
    else if(HCSR04_CfgParam[au8_HCSR04_Instance].TRIG_GPIO == GPIOD)
 800551e:	79fa      	ldrb	r2, [r7, #7]
 8005520:	4970      	ldr	r1, [pc, #448]	; (80056e4 <HCSR04_Init+0x2a8>)
 8005522:	4613      	mov	r3, r2
 8005524:	009b      	lsls	r3, r3, #2
 8005526:	4413      	add	r3, r2
 8005528:	009b      	lsls	r3, r3, #2
 800552a:	440b      	add	r3, r1
 800552c:	681b      	ldr	r3, [r3, #0]
 800552e:	4a72      	ldr	r2, [pc, #456]	; (80056f8 <HCSR04_Init+0x2bc>)
 8005530:	4293      	cmp	r3, r2
 8005532:	d10e      	bne.n	8005552 <HCSR04_Init+0x116>
    {
        __HAL_RCC_GPIOD_CLK_ENABLE();
 8005534:	2300      	movs	r3, #0
 8005536:	60fb      	str	r3, [r7, #12]
 8005538:	4b6c      	ldr	r3, [pc, #432]	; (80056ec <HCSR04_Init+0x2b0>)
 800553a:	6b1b      	ldr	r3, [r3, #48]	; 0x30
 800553c:	4a6b      	ldr	r2, [pc, #428]	; (80056ec <HCSR04_Init+0x2b0>)
 800553e:	f043 0308 	orr.w	r3, r3, #8
 8005542:	6313      	str	r3, [r2, #48]	; 0x30
 8005544:	4b69      	ldr	r3, [pc, #420]	; (80056ec <HCSR04_Init+0x2b0>)
 8005546:	6b1b      	ldr	r3, [r3, #48]	; 0x30
 8005548:	f003 0308 	and.w	r3, r3, #8
 800554c:	60fb      	str	r3, [r7, #12]
 800554e:	68fb      	ldr	r3, [r7, #12]
 8005550:	e018      	b.n	8005584 <HCSR04_Init+0x148>
    }
    else if(HCSR04_CfgParam[au8_HCSR04_Instance].TRIG_GPIO == GPIOE)
 8005552:	79fa      	ldrb	r2, [r7, #7]
 8005554:	4963      	ldr	r1, [pc, #396]	; (80056e4 <HCSR04_Init+0x2a8>)
 8005556:	4613      	mov	r3, r2
 8005558:	009b      	lsls	r3, r3, #2
 800555a:	4413      	add	r3, r2
 800555c:	009b      	lsls	r3, r3, #2
 800555e:	440b      	add	r3, r1
 8005560:	681b      	ldr	r3, [r3, #0]
 8005562:	4a66      	ldr	r2, [pc, #408]	; (80056fc <HCSR04_Init+0x2c0>)
 8005564:	4293      	cmp	r3, r2
 8005566:	d10d      	bne.n	8005584 <HCSR04_Init+0x148>
    {
        __HAL_RCC_GPIOE_CLK_ENABLE();
 8005568:	2300      	movs	r3, #0
 800556a:	60bb      	str	r3, [r7, #8]
 800556c:	4b5f      	ldr	r3, [pc, #380]	; (80056ec <HCSR04_Init+0x2b0>)
 800556e:	6b1b      	ldr	r3, [r3, #48]	; 0x30
 8005570:	4a5e      	ldr	r2, [pc, #376]	; (80056ec <HCSR04_Init+0x2b0>)
 8005572:	f043 0310 	orr.w	r3, r3, #16
 8005576:	6313      	str	r3, [r2, #48]	; 0x30
 8005578:	4b5c      	ldr	r3, [pc, #368]	; (80056ec <HCSR04_Init+0x2b0>)
 800557a:	6b1b      	ldr	r3, [r3, #48]	; 0x30
 800557c:	f003 0310 	and.w	r3, r3, #16
 8005580:	60bb      	str	r3, [r7, #8]
 8005582:	68bb      	ldr	r3, [r7, #8]
    }
    TRIG_GPIO_InitStruct.Pin = HCSR04_CfgParam[au8_HCSR04_Instance].TRIG_PIN;
 8005584:	79fa      	ldrb	r2, [r7, #7]
 8005586:	4957      	ldr	r1, [pc, #348]	; (80056e4 <HCSR04_Init+0x2a8>)
 8005588:	4613      	mov	r3, r2
 800558a:	009b      	lsls	r3, r3, #2
 800558c:	4413      	add	r3, r2
 800558e:	009b      	lsls	r3, r3, #2
 8005590:	440b      	add	r3, r1
 8005592:	3304      	adds	r3, #4
 8005594:	881b      	ldrh	r3, [r3, #0]
 8005596:	647b      	str	r3, [r7, #68]	; 0x44
    TRIG_GPIO_InitStruct.Mode = GPIO_MODE_OUTPUT_PP;
 8005598:	2301      	movs	r3, #1
 800559a:	64bb      	str	r3, [r7, #72]	; 0x48
    TRIG_GPIO_InitStruct.Pull = GPIO_NOPULL;
 800559c:	2300      	movs	r3, #0
 800559e:	64fb      	str	r3, [r7, #76]	; 0x4c
    TRIG_GPIO_InitStruct.Speed = GPIO_SPEED_FREQ_LOW;
 80055a0:	2300      	movs	r3, #0
 80055a2:	653b      	str	r3, [r7, #80]	; 0x50
	HAL_GPIO_Init(HCSR04_CfgParam[au8_HCSR04_Instance].TRIG_GPIO, &TRIG_GPIO_InitStruct);
 80055a4:	79fa      	ldrb	r2, [r7, #7]
 80055a6:	494f      	ldr	r1, [pc, #316]	; (80056e4 <HCSR04_Init+0x2a8>)
 80055a8:	4613      	mov	r3, r2
 80055aa:	009b      	lsls	r3, r3, #2
 80055ac:	4413      	add	r3, r2
 80055ae:	009b      	lsls	r3, r3, #2
 80055b0:	440b      	add	r3, r1
 80055b2:	681b      	ldr	r3, [r3, #0]
 80055b4:	f107 0244 	add.w	r2, r7, #68	; 0x44
 80055b8:	4611      	mov	r1, r2
 80055ba:	4618      	mov	r0, r3
 80055bc:	f7fd f8e2 	bl	8002784 <HAL_GPIO_Init>

	/*--------[ Initialize The HCSR04 Static Global Info ]-------*/

	gs_HCSR04_info[au8_HCSR04_Instance].TMR_PSC = HCSR04_CfgParam[au8_HCSR04_Instance].TIM_Instance->PSC;
 80055c0:	79fa      	ldrb	r2, [r7, #7]
 80055c2:	4948      	ldr	r1, [pc, #288]	; (80056e4 <HCSR04_Init+0x2a8>)
 80055c4:	4613      	mov	r3, r2
 80055c6:	009b      	lsls	r3, r3, #2
 80055c8:	4413      	add	r3, r2
 80055ca:	009b      	lsls	r3, r3, #2
 80055cc:	440b      	add	r3, r1
 80055ce:	3308      	adds	r3, #8
 80055d0:	681b      	ldr	r3, [r3, #0]
 80055d2:	79fa      	ldrb	r2, [r7, #7]
 80055d4:	6a99      	ldr	r1, [r3, #40]	; 0x28
 80055d6:	484a      	ldr	r0, [pc, #296]	; (8005700 <HCSR04_Init+0x2c4>)
 80055d8:	4613      	mov	r3, r2
 80055da:	00db      	lsls	r3, r3, #3
 80055dc:	4413      	add	r3, r2
 80055de:	009b      	lsls	r3, r3, #2
 80055e0:	4403      	add	r3, r0
 80055e2:	3304      	adds	r3, #4
 80055e4:	6019      	str	r1, [r3, #0]
	gs_HCSR04_info[au8_HCSR04_Instance].TMR_ARR = HCSR04_CfgParam[au8_HCSR04_Instance].TIM_Instance->ARR;
 80055e6:	79fa      	ldrb	r2, [r7, #7]
 80055e8:	493e      	ldr	r1, [pc, #248]	; (80056e4 <HCSR04_Init+0x2a8>)
 80055ea:	4613      	mov	r3, r2
 80055ec:	009b      	lsls	r3, r3, #2
 80055ee:	4413      	add	r3, r2
 80055f0:	009b      	lsls	r3, r3, #2
 80055f2:	440b      	add	r3, r1
 80055f4:	3308      	adds	r3, #8
 80055f6:	681b      	ldr	r3, [r3, #0]
 80055f8:	79fa      	ldrb	r2, [r7, #7]
 80055fa:	6ad9      	ldr	r1, [r3, #44]	; 0x2c
 80055fc:	4840      	ldr	r0, [pc, #256]	; (8005700 <HCSR04_Init+0x2c4>)
 80055fe:	4613      	mov	r3, r2
 8005600:	00db      	lsls	r3, r3, #3
 8005602:	4413      	add	r3, r2
 8005604:	009b      	lsls	r3, r3, #2
 8005606:	4403      	add	r3, r0
 8005608:	3308      	adds	r3, #8
 800560a:	6019      	str	r1, [r3, #0]
	gs_HCSR04_info[au8_HCSR04_Instance].TMR_OVC = 0;
 800560c:	79fa      	ldrb	r2, [r7, #7]
 800560e:	493c      	ldr	r1, [pc, #240]	; (8005700 <HCSR04_Init+0x2c4>)
 8005610:	4613      	mov	r3, r2
 8005612:	00db      	lsls	r3, r3, #3
 8005614:	4413      	add	r3, r2
 8005616:	009b      	lsls	r3, r3, #2
 8005618:	440b      	add	r3, r1
 800561a:	3302      	adds	r3, #2
 800561c:	2200      	movs	r2, #0
 800561e:	801a      	strh	r2, [r3, #0]
		gs_HCSR04_info[au8_HCSR04_Instance].HTIM = TMR_Handle;
 8005620:	79fa      	ldrb	r2, [r7, #7]
 8005622:	4937      	ldr	r1, [pc, #220]	; (8005700 <HCSR04_Init+0x2c4>)
 8005624:	4613      	mov	r3, r2
 8005626:	00db      	lsls	r3, r3, #3
 8005628:	4413      	add	r3, r2
 800562a:	009b      	lsls	r3, r3, #2
 800562c:	440b      	add	r3, r1
 800562e:	331c      	adds	r3, #28
 8005630:	683a      	ldr	r2, [r7, #0]
 8005632:	601a      	str	r2, [r3, #0]
	if(gs_HCSR04_info[au8_HCSR04_Instance].TMR_ARR == 0)
 8005634:	79fa      	ldrb	r2, [r7, #7]
 8005636:	4932      	ldr	r1, [pc, #200]	; (8005700 <HCSR04_Init+0x2c4>)
 8005638:	4613      	mov	r3, r2
 800563a:	00db      	lsls	r3, r3, #3
 800563c:	4413      	add	r3, r2
 800563e:	009b      	lsls	r3, r3, #2
 8005640:	440b      	add	r3, r1
 8005642:	3308      	adds	r3, #8
 8005644:	681b      	ldr	r3, [r3, #0]
 8005646:	2b00      	cmp	r3, #0
 8005648:	d10a      	bne.n	8005660 <HCSR04_Init+0x224>
	{
		gs_HCSR04_info[au8_HCSR04_Instance].TMR_ARR = 65535;
 800564a:	79fa      	ldrb	r2, [r7, #7]
 800564c:	492c      	ldr	r1, [pc, #176]	; (8005700 <HCSR04_Init+0x2c4>)
 800564e:	4613      	mov	r3, r2
 8005650:	00db      	lsls	r3, r3, #3
 8005652:	4413      	add	r3, r2
 8005654:	009b      	lsls	r3, r3, #2
 8005656:	440b      	add	r3, r1
 8005658:	3308      	adds	r3, #8
 800565a:	f64f 72ff 	movw	r2, #65535	; 0xffff
 800565e:	601a      	str	r2, [r3, #0]
	}
	if(HCSR04_CfgParam[au8_HCSR04_Instance].IC_TIM_CH == TIM_CHANNEL_1)
 8005660:	79fa      	ldrb	r2, [r7, #7]
 8005662:	4920      	ldr	r1, [pc, #128]	; (80056e4 <HCSR04_Init+0x2a8>)
 8005664:	4613      	mov	r3, r2
 8005666:	009b      	lsls	r3, r3, #2
 8005668:	4413      	add	r3, r2
 800566a:	009b      	lsls	r3, r3, #2
 800566c:	440b      	add	r3, r1
 800566e:	330c      	adds	r3, #12
 8005670:	681b      	ldr	r3, [r3, #0]
 8005672:	2b00      	cmp	r3, #0
 8005674:	d10a      	bne.n	800568c <HCSR04_Init+0x250>
	{
		gs_HCSR04_info[au8_HCSR04_Instance].ACTIV_CH = HAL_TIM_ACTIVE_CHANNEL_1;
 8005676:	79fa      	ldrb	r2, [r7, #7]
 8005678:	4921      	ldr	r1, [pc, #132]	; (8005700 <HCSR04_Init+0x2c4>)
 800567a:	4613      	mov	r3, r2
 800567c:	00db      	lsls	r3, r3, #3
 800567e:	4413      	add	r3, r2
 8005680:	009b      	lsls	r3, r3, #2
 8005682:	440b      	add	r3, r1
 8005684:	3320      	adds	r3, #32
 8005686:	2201      	movs	r2, #1
 8005688:	701a      	strb	r2, [r3, #0]
 800568a:	e050      	b.n	800572e <HCSR04_Init+0x2f2>
	}
	else if(HCSR04_CfgParam[au8_HCSR04_Instance].IC_TIM_CH == TIM_CHANNEL_2)
 800568c:	79fa      	ldrb	r2, [r7, #7]
 800568e:	4915      	ldr	r1, [pc, #84]	; (80056e4 <HCSR04_Init+0x2a8>)
 8005690:	4613      	mov	r3, r2
 8005692:	009b      	lsls	r3, r3, #2
 8005694:	4413      	add	r3, r2
 8005696:	009b      	lsls	r3, r3, #2
 8005698:	440b      	add	r3, r1
 800569a:	330c      	adds	r3, #12
 800569c:	681b      	ldr	r3, [r3, #0]
 800569e:	2b04      	cmp	r3, #4
 80056a0:	d10a      	bne.n	80056b8 <HCSR04_Init+0x27c>
	{
		gs_HCSR04_info[au8_HCSR04_Instance].ACTIV_CH = HAL_TIM_ACTIVE_CHANNEL_2;
 80056a2:	79fa      	ldrb	r2, [r7, #7]
 80056a4:	4916      	ldr	r1, [pc, #88]	; (8005700 <HCSR04_Init+0x2c4>)
 80056a6:	4613      	mov	r3, r2
 80056a8:	00db      	lsls	r3, r3, #3
 80056aa:	4413      	add	r3, r2
 80056ac:	009b      	lsls	r3, r3, #2
 80056ae:	440b      	add	r3, r1
 80056b0:	3320      	adds	r3, #32
 80056b2:	2202      	movs	r2, #2
 80056b4:	701a      	strb	r2, [r3, #0]
 80056b6:	e03a      	b.n	800572e <HCSR04_Init+0x2f2>
	}
	else if(HCSR04_CfgParam[au8_HCSR04_Instance].IC_TIM_CH == TIM_CHANNEL_3)
 80056b8:	79fa      	ldrb	r2, [r7, #7]
 80056ba:	490a      	ldr	r1, [pc, #40]	; (80056e4 <HCSR04_Init+0x2a8>)
 80056bc:	4613      	mov	r3, r2
 80056be:	009b      	lsls	r3, r3, #2
 80056c0:	4413      	add	r3, r2
 80056c2:	009b      	lsls	r3, r3, #2
 80056c4:	440b      	add	r3, r1
 80056c6:	330c      	adds	r3, #12
 80056c8:	681b      	ldr	r3, [r3, #0]
 80056ca:	2b08      	cmp	r3, #8
 80056cc:	d11a      	bne.n	8005704 <HCSR04_Init+0x2c8>
	{
		gs_HCSR04_info[au8_HCSR04_Instance].ACTIV_CH = HAL_TIM_ACTIVE_CHANNEL_3;
 80056ce:	79fa      	ldrb	r2, [r7, #7]
 80056d0:	490b      	ldr	r1, [pc, #44]	; (8005700 <HCSR04_Init+0x2c4>)
 80056d2:	4613      	mov	r3, r2
 80056d4:	00db      	lsls	r3, r3, #3
 80056d6:	4413      	add	r3, r2
 80056d8:	009b      	lsls	r3, r3, #2
 80056da:	440b      	add	r3, r1
 80056dc:	3320      	adds	r3, #32
 80056de:	2204      	movs	r2, #4
 80056e0:	701a      	strb	r2, [r3, #0]
 80056e2:	e024      	b.n	800572e <HCSR04_Init+0x2f2>
 80056e4:	08008c2c 	.word	0x08008c2c
 80056e8:	40020000 	.word	0x40020000
 80056ec:	40023800 	.word	0x40023800
 80056f0:	40020400 	.word	0x40020400
 80056f4:	40020800 	.word	0x40020800
 80056f8:	40020c00 	.word	0x40020c00
 80056fc:	40021000 	.word	0x40021000
 8005700:	20000224 	.word	0x20000224
	}
	else if(HCSR04_CfgParam[au8_HCSR04_Instance].IC_TIM_CH == TIM_CHANNEL_4)
 8005704:	79fa      	ldrb	r2, [r7, #7]
 8005706:	4941      	ldr	r1, [pc, #260]	; (800580c <HCSR04_Init+0x3d0>)
 8005708:	4613      	mov	r3, r2
 800570a:	009b      	lsls	r3, r3, #2
 800570c:	4413      	add	r3, r2
 800570e:	009b      	lsls	r3, r3, #2
 8005710:	440b      	add	r3, r1
 8005712:	330c      	adds	r3, #12
 8005714:	681b      	ldr	r3, [r3, #0]
 8005716:	2b0c      	cmp	r3, #12
 8005718:	d109      	bne.n	800572e <HCSR04_Init+0x2f2>
	{
		gs_HCSR04_info[au8_HCSR04_Instance].ACTIV_CH = HAL_TIM_ACTIVE_CHANNEL_4;
 800571a:	79fa      	ldrb	r2, [r7, #7]
 800571c:	493c      	ldr	r1, [pc, #240]	; (8005810 <HCSR04_Init+0x3d4>)
 800571e:	4613      	mov	r3, r2
 8005720:	00db      	lsls	r3, r3, #3
 8005722:	4413      	add	r3, r2
 8005724:	009b      	lsls	r3, r3, #2
 8005726:	440b      	add	r3, r1
 8005728:	3320      	adds	r3, #32
 800572a:	2208      	movs	r2, #8
 800572c:	701a      	strb	r2, [r3, #0]
	}

	/*--------[ Configure The HCSR04 IC Timer Channel ]-------*/

	TMR_Handle->Instance = HCSR04_CfgParam[au8_HCSR04_Instance].TIM_Instance;
 800572e:	79fa      	ldrb	r2, [r7, #7]
 8005730:	4936      	ldr	r1, [pc, #216]	; (800580c <HCSR04_Init+0x3d0>)
 8005732:	4613      	mov	r3, r2
 8005734:	009b      	lsls	r3, r3, #2
 8005736:	4413      	add	r3, r2
 8005738:	009b      	lsls	r3, r3, #2
 800573a:	440b      	add	r3, r1
 800573c:	3308      	adds	r3, #8
 800573e:	681a      	ldr	r2, [r3, #0]
 8005740:	683b      	ldr	r3, [r7, #0]
 8005742:	601a      	str	r2, [r3, #0]
	TMR_Handle->Init.Prescaler = gs_HCSR04_info[au8_HCSR04_Instance].TMR_PSC;
 8005744:	79fa      	ldrb	r2, [r7, #7]
 8005746:	4932      	ldr	r1, [pc, #200]	; (8005810 <HCSR04_Init+0x3d4>)
 8005748:	4613      	mov	r3, r2
 800574a:	00db      	lsls	r3, r3, #3
 800574c:	4413      	add	r3, r2
 800574e:	009b      	lsls	r3, r3, #2
 8005750:	440b      	add	r3, r1
 8005752:	3304      	adds	r3, #4
 8005754:	681a      	ldr	r2, [r3, #0]
 8005756:	683b      	ldr	r3, [r7, #0]
 8005758:	605a      	str	r2, [r3, #4]
	TMR_Handle->Init.CounterMode = TIM_COUNTERMODE_UP;
 800575a:	683b      	ldr	r3, [r7, #0]
 800575c:	2200      	movs	r2, #0
 800575e:	609a      	str	r2, [r3, #8]
	TMR_Handle->Init.Period = gs_HCSR04_info[au8_HCSR04_Instance].TMR_ARR;
 8005760:	79fa      	ldrb	r2, [r7, #7]
 8005762:	492b      	ldr	r1, [pc, #172]	; (8005810 <HCSR04_Init+0x3d4>)
 8005764:	4613      	mov	r3, r2
 8005766:	00db      	lsls	r3, r3, #3
 8005768:	4413      	add	r3, r2
 800576a:	009b      	lsls	r3, r3, #2
 800576c:	440b      	add	r3, r1
 800576e:	3308      	adds	r3, #8
 8005770:	681a      	ldr	r2, [r3, #0]
 8005772:	683b      	ldr	r3, [r7, #0]
 8005774:	60da      	str	r2, [r3, #12]
	TMR_Handle->Init.ClockDivision = TIM_CLOCKDIVISION_DIV1;
 8005776:	683b      	ldr	r3, [r7, #0]
 8005778:	2200      	movs	r2, #0
 800577a:	611a      	str	r2, [r3, #16]
	TMR_Handle->Init.AutoReloadPreload = TIM_AUTORELOAD_PRELOAD_ENABLE;
 800577c:	683b      	ldr	r3, [r7, #0]
 800577e:	2280      	movs	r2, #128	; 0x80
 8005780:	619a      	str	r2, [r3, #24]
	HAL_TIM_Base_Init(TMR_Handle);
 8005782:	6838      	ldr	r0, [r7, #0]
 8005784:	f7fd ff16 	bl	80035b4 <HAL_TIM_Base_Init>
	sClockSourceConfig.ClockSource = TIM_CLOCKSOURCE_INTERNAL;
 8005788:	f44f 5380 	mov.w	r3, #4096	; 0x1000
 800578c:	637b      	str	r3, [r7, #52]	; 0x34
	HAL_TIM_ConfigClockSource(TMR_Handle, &sClockSourceConfig);
 800578e:	f107 0334 	add.w	r3, r7, #52	; 0x34
 8005792:	4619      	mov	r1, r3
 8005794:	6838      	ldr	r0, [r7, #0]
 8005796:	f7fe fccd 	bl	8004134 <HAL_TIM_ConfigClockSource>
	HAL_TIM_IC_Init(TMR_Handle);
 800579a:	6838      	ldr	r0, [r7, #0]
 800579c:	f7fe f8e2 	bl	8003964 <HAL_TIM_IC_Init>
	sMasterConfig.MasterOutputTrigger = TIM_TRGO_RESET;
 80057a0:	2300      	movs	r3, #0
 80057a2:	62fb      	str	r3, [r7, #44]	; 0x2c
	sMasterConfig.MasterSlaveMode = TIM_MASTERSLAVEMODE_DISABLE;
 80057a4:	2300      	movs	r3, #0
 80057a6:	633b      	str	r3, [r7, #48]	; 0x30
	HAL_TIMEx_MasterConfigSynchronization(TMR_Handle, &sMasterConfig);
 80057a8:	f107 032c 	add.w	r3, r7, #44	; 0x2c
 80057ac:	4619      	mov	r1, r3
 80057ae:	6838      	ldr	r0, [r7, #0]
 80057b0:	f7ff fa24 	bl	8004bfc <HAL_TIMEx_MasterConfigSynchronization>
	sConfigIC.ICPolarity = TIM_INPUTCHANNELPOLARITY_RISING;
 80057b4:	2300      	movs	r3, #0
 80057b6:	61fb      	str	r3, [r7, #28]
	sConfigIC.ICSelection = TIM_ICSELECTION_DIRECTTI;
 80057b8:	2301      	movs	r3, #1
 80057ba:	623b      	str	r3, [r7, #32]
	sConfigIC.ICPrescaler = TIM_ICPSC_DIV1;
 80057bc:	2300      	movs	r3, #0
 80057be:	627b      	str	r3, [r7, #36]	; 0x24
	sConfigIC.ICFilter = 0;
 80057c0:	2300      	movs	r3, #0
 80057c2:	62bb      	str	r3, [r7, #40]	; 0x28
	HAL_TIM_IC_ConfigChannel(TMR_Handle, &sConfigIC, HCSR04_CfgParam[au8_HCSR04_Instance].IC_TIM_CH);
 80057c4:	79fa      	ldrb	r2, [r7, #7]
 80057c6:	4911      	ldr	r1, [pc, #68]	; (800580c <HCSR04_Init+0x3d0>)
 80057c8:	4613      	mov	r3, r2
 80057ca:	009b      	lsls	r3, r3, #2
 80057cc:	4413      	add	r3, r2
 80057ce:	009b      	lsls	r3, r3, #2
 80057d0:	440b      	add	r3, r1
 80057d2:	330c      	adds	r3, #12
 80057d4:	681a      	ldr	r2, [r3, #0]
 80057d6:	f107 031c 	add.w	r3, r7, #28
 80057da:	4619      	mov	r1, r3
 80057dc:	6838      	ldr	r0, [r7, #0]
 80057de:	f7fe fb4b 	bl	8003e78 <HAL_TIM_IC_ConfigChannel>

	/*--------[ Start The ICU Channel ]-------*/

	HAL_TIM_Base_Start_IT(TMR_Handle);
 80057e2:	6838      	ldr	r0, [r7, #0]
 80057e4:	f7fd ff36 	bl	8003654 <HAL_TIM_Base_Start_IT>
	HAL_TIM_IC_Start_IT(TMR_Handle, HCSR04_CfgParam[au8_HCSR04_Instance].IC_TIM_CH);
 80057e8:	79fa      	ldrb	r2, [r7, #7]
 80057ea:	4908      	ldr	r1, [pc, #32]	; (800580c <HCSR04_Init+0x3d0>)
 80057ec:	4613      	mov	r3, r2
 80057ee:	009b      	lsls	r3, r3, #2
 80057f0:	4413      	add	r3, r2
 80057f2:	009b      	lsls	r3, r3, #2
 80057f4:	440b      	add	r3, r1
 80057f6:	330c      	adds	r3, #12
 80057f8:	681b      	ldr	r3, [r3, #0]
 80057fa:	4619      	mov	r1, r3
 80057fc:	6838      	ldr	r0, [r7, #0]
 80057fe:	f7fe f90b 	bl	8003a18 <HAL_TIM_IC_Start_IT>
}
 8005802:	bf00      	nop
 8005804:	3758      	adds	r7, #88	; 0x58
 8005806:	46bd      	mov	sp, r7
 8005808:	bd80      	pop	{r7, pc}
 800580a:	bf00      	nop
 800580c:	08008c2c 	.word	0x08008c2c
 8005810:	20000224 	.word	0x20000224

08005814 <HCSR04_TMR_OVF_ISR>:


void HCSR04_TMR_OVF_ISR(TIM_HandleTypeDef* htim)
{
 8005814:	b480      	push	{r7}
 8005816:	b085      	sub	sp, #20
 8005818:	af00      	add	r7, sp, #0
 800581a:	6078      	str	r0, [r7, #4]
	uint8_t i = 0;
 800581c:	2300      	movs	r3, #0
 800581e:	73fb      	strb	r3, [r7, #15]
	for(i=0; i<HCSR04_UNITS; i++)
 8005820:	2300      	movs	r3, #0
 8005822:	73fb      	strb	r3, [r7, #15]
 8005824:	e023      	b.n	800586e <HCSR04_TMR_OVF_ISR+0x5a>
	{
		if(htim->Instance == HCSR04_CfgParam[i].TIM_Instance)
 8005826:	687b      	ldr	r3, [r7, #4]
 8005828:	6819      	ldr	r1, [r3, #0]
 800582a:	7bfa      	ldrb	r2, [r7, #15]
 800582c:	4815      	ldr	r0, [pc, #84]	; (8005884 <HCSR04_TMR_OVF_ISR+0x70>)
 800582e:	4613      	mov	r3, r2
 8005830:	009b      	lsls	r3, r3, #2
 8005832:	4413      	add	r3, r2
 8005834:	009b      	lsls	r3, r3, #2
 8005836:	4403      	add	r3, r0
 8005838:	3308      	adds	r3, #8
 800583a:	681b      	ldr	r3, [r3, #0]
 800583c:	4299      	cmp	r1, r3
 800583e:	d113      	bne.n	8005868 <HCSR04_TMR_OVF_ISR+0x54>
		{
			gs_HCSR04_info[i].TMR_OVC++;
 8005840:	7bfa      	ldrb	r2, [r7, #15]
 8005842:	4911      	ldr	r1, [pc, #68]	; (8005888 <HCSR04_TMR_OVF_ISR+0x74>)
 8005844:	4613      	mov	r3, r2
 8005846:	00db      	lsls	r3, r3, #3
 8005848:	4413      	add	r3, r2
 800584a:	009b      	lsls	r3, r3, #2
 800584c:	440b      	add	r3, r1
 800584e:	3302      	adds	r3, #2
 8005850:	881b      	ldrh	r3, [r3, #0]
 8005852:	3301      	adds	r3, #1
 8005854:	b298      	uxth	r0, r3
 8005856:	490c      	ldr	r1, [pc, #48]	; (8005888 <HCSR04_TMR_OVF_ISR+0x74>)
 8005858:	4613      	mov	r3, r2
 800585a:	00db      	lsls	r3, r3, #3
 800585c:	4413      	add	r3, r2
 800585e:	009b      	lsls	r3, r3, #2
 8005860:	440b      	add	r3, r1
 8005862:	3302      	adds	r3, #2
 8005864:	4602      	mov	r2, r0
 8005866:	801a      	strh	r2, [r3, #0]
	for(i=0; i<HCSR04_UNITS; i++)
 8005868:	7bfb      	ldrb	r3, [r7, #15]
 800586a:	3301      	adds	r3, #1
 800586c:	73fb      	strb	r3, [r7, #15]
 800586e:	7bfb      	ldrb	r3, [r7, #15]
 8005870:	2b03      	cmp	r3, #3
 8005872:	d9d8      	bls.n	8005826 <HCSR04_TMR_OVF_ISR+0x12>
		}
	}
}
 8005874:	bf00      	nop
 8005876:	bf00      	nop
 8005878:	3714      	adds	r7, #20
 800587a:	46bd      	mov	sp, r7
 800587c:	f85d 7b04 	ldr.w	r7, [sp], #4
 8005880:	4770      	bx	lr
 8005882:	bf00      	nop
 8005884:	08008c2c 	.word	0x08008c2c
 8005888:	20000224 	.word	0x20000224
 800588c:	00000000 	.word	0x00000000

08005890 <HCSR04_TMR_IC_ISR>:


void HCSR04_TMR_IC_ISR(TIM_HandleTypeDef* htim)
{
 8005890:	b5b0      	push	{r4, r5, r7, lr}
 8005892:	b084      	sub	sp, #16
 8005894:	af00      	add	r7, sp, #0
 8005896:	6078      	str	r0, [r7, #4]
	uint8_t i = 0;
 8005898:	2300      	movs	r3, #0
 800589a:	73fb      	strb	r3, [r7, #15]
	uint32_t PS = 0;
 800589c:	2300      	movs	r3, #0
 800589e:	60bb      	str	r3, [r7, #8]
	for(i=0; i<HCSR04_UNITS; i++)
 80058a0:	2300      	movs	r3, #0
 80058a2:	73fb      	strb	r3, [r7, #15]
 80058a4:	e22a      	b.n	8005cfc <HCSR04_TMR_IC_ISR+0x46c>
	{
		if((htim->Instance == HCSR04_CfgParam[i].TIM_Instance) && (htim->Channel == gs_HCSR04_info[i].ACTIV_CH))
 80058a6:	687b      	ldr	r3, [r7, #4]
 80058a8:	6819      	ldr	r1, [r3, #0]
 80058aa:	7bfa      	ldrb	r2, [r7, #15]
 80058ac:	486b      	ldr	r0, [pc, #428]	; (8005a5c <HCSR04_TMR_IC_ISR+0x1cc>)
 80058ae:	4613      	mov	r3, r2
 80058b0:	009b      	lsls	r3, r3, #2
 80058b2:	4413      	add	r3, r2
 80058b4:	009b      	lsls	r3, r3, #2
 80058b6:	4403      	add	r3, r0
 80058b8:	3308      	adds	r3, #8
 80058ba:	681b      	ldr	r3, [r3, #0]
 80058bc:	4299      	cmp	r1, r3
 80058be:	f040 821a 	bne.w	8005cf6 <HCSR04_TMR_IC_ISR+0x466>
 80058c2:	687b      	ldr	r3, [r7, #4]
 80058c4:	7f19      	ldrb	r1, [r3, #28]
 80058c6:	7bfa      	ldrb	r2, [r7, #15]
 80058c8:	4865      	ldr	r0, [pc, #404]	; (8005a60 <HCSR04_TMR_IC_ISR+0x1d0>)
 80058ca:	4613      	mov	r3, r2
 80058cc:	00db      	lsls	r3, r3, #3
 80058ce:	4413      	add	r3, r2
 80058d0:	009b      	lsls	r3, r3, #2
 80058d2:	4403      	add	r3, r0
 80058d4:	3320      	adds	r3, #32
 80058d6:	781b      	ldrb	r3, [r3, #0]
 80058d8:	4299      	cmp	r1, r3
 80058da:	f040 820c 	bne.w	8005cf6 <HCSR04_TMR_IC_ISR+0x466>
		{
			if (gs_HCSR04_info[i].EDGE_STATE == 0)
 80058de:	7bfa      	ldrb	r2, [r7, #15]
 80058e0:	495f      	ldr	r1, [pc, #380]	; (8005a60 <HCSR04_TMR_IC_ISR+0x1d0>)
 80058e2:	4613      	mov	r3, r2
 80058e4:	00db      	lsls	r3, r3, #3
 80058e6:	4413      	add	r3, r2
 80058e8:	009b      	lsls	r3, r3, #2
 80058ea:	440b      	add	r3, r1
 80058ec:	781b      	ldrb	r3, [r3, #0]
 80058ee:	2b00      	cmp	r3, #0
 80058f0:	f040 80b8 	bne.w	8005a64 <HCSR04_TMR_IC_ISR+0x1d4>
			{
				// Capture T1 & Reverse The ICU Edge Polarity
				gs_HCSR04_info[i].T1 = HAL_TIM_ReadCapturedValue(htim, HCSR04_CfgParam[i].IC_TIM_CH);
 80058f4:	7bfa      	ldrb	r2, [r7, #15]
 80058f6:	4959      	ldr	r1, [pc, #356]	; (8005a5c <HCSR04_TMR_IC_ISR+0x1cc>)
 80058f8:	4613      	mov	r3, r2
 80058fa:	009b      	lsls	r3, r3, #2
 80058fc:	4413      	add	r3, r2
 80058fe:	009b      	lsls	r3, r3, #2
 8005900:	440b      	add	r3, r1
 8005902:	330c      	adds	r3, #12
 8005904:	681b      	ldr	r3, [r3, #0]
 8005906:	7bfc      	ldrb	r4, [r7, #15]
 8005908:	4619      	mov	r1, r3
 800590a:	6878      	ldr	r0, [r7, #4]
 800590c:	f7fe fcda 	bl	80042c4 <HAL_TIM_ReadCapturedValue>
 8005910:	4602      	mov	r2, r0
 8005912:	4953      	ldr	r1, [pc, #332]	; (8005a60 <HCSR04_TMR_IC_ISR+0x1d0>)
 8005914:	4623      	mov	r3, r4
 8005916:	00db      	lsls	r3, r3, #3
 8005918:	4423      	add	r3, r4
 800591a:	009b      	lsls	r3, r3, #2
 800591c:	440b      	add	r3, r1
 800591e:	330c      	adds	r3, #12
 8005920:	601a      	str	r2, [r3, #0]
				gs_HCSR04_info[i].EDGE_STATE = 1;
 8005922:	7bfa      	ldrb	r2, [r7, #15]
 8005924:	494e      	ldr	r1, [pc, #312]	; (8005a60 <HCSR04_TMR_IC_ISR+0x1d0>)
 8005926:	4613      	mov	r3, r2
 8005928:	00db      	lsls	r3, r3, #3
 800592a:	4413      	add	r3, r2
 800592c:	009b      	lsls	r3, r3, #2
 800592e:	440b      	add	r3, r1
 8005930:	2201      	movs	r2, #1
 8005932:	701a      	strb	r2, [r3, #0]
				__HAL_TIM_SET_CAPTUREPOLARITY(htim, HCSR04_CfgParam[i].IC_TIM_CH, TIM_INPUTCHANNELPOLARITY_FALLING);
 8005934:	7bfa      	ldrb	r2, [r7, #15]
 8005936:	4949      	ldr	r1, [pc, #292]	; (8005a5c <HCSR04_TMR_IC_ISR+0x1cc>)
 8005938:	4613      	mov	r3, r2
 800593a:	009b      	lsls	r3, r3, #2
 800593c:	4413      	add	r3, r2
 800593e:	009b      	lsls	r3, r3, #2
 8005940:	440b      	add	r3, r1
 8005942:	330c      	adds	r3, #12
 8005944:	681b      	ldr	r3, [r3, #0]
 8005946:	2b00      	cmp	r3, #0
 8005948:	d108      	bne.n	800595c <HCSR04_TMR_IC_ISR+0xcc>
 800594a:	687b      	ldr	r3, [r7, #4]
 800594c:	681b      	ldr	r3, [r3, #0]
 800594e:	6a1a      	ldr	r2, [r3, #32]
 8005950:	687b      	ldr	r3, [r7, #4]
 8005952:	681b      	ldr	r3, [r3, #0]
 8005954:	f022 020a 	bic.w	r2, r2, #10
 8005958:	621a      	str	r2, [r3, #32]
 800595a:	e02f      	b.n	80059bc <HCSR04_TMR_IC_ISR+0x12c>
 800595c:	7bfa      	ldrb	r2, [r7, #15]
 800595e:	493f      	ldr	r1, [pc, #252]	; (8005a5c <HCSR04_TMR_IC_ISR+0x1cc>)
 8005960:	4613      	mov	r3, r2
 8005962:	009b      	lsls	r3, r3, #2
 8005964:	4413      	add	r3, r2
 8005966:	009b      	lsls	r3, r3, #2
 8005968:	440b      	add	r3, r1
 800596a:	330c      	adds	r3, #12
 800596c:	681b      	ldr	r3, [r3, #0]
 800596e:	2b04      	cmp	r3, #4
 8005970:	d108      	bne.n	8005984 <HCSR04_TMR_IC_ISR+0xf4>
 8005972:	687b      	ldr	r3, [r7, #4]
 8005974:	681b      	ldr	r3, [r3, #0]
 8005976:	6a1b      	ldr	r3, [r3, #32]
 8005978:	687a      	ldr	r2, [r7, #4]
 800597a:	6812      	ldr	r2, [r2, #0]
 800597c:	f023 03a0 	bic.w	r3, r3, #160	; 0xa0
 8005980:	6213      	str	r3, [r2, #32]
 8005982:	e01b      	b.n	80059bc <HCSR04_TMR_IC_ISR+0x12c>
 8005984:	7bfa      	ldrb	r2, [r7, #15]
 8005986:	4935      	ldr	r1, [pc, #212]	; (8005a5c <HCSR04_TMR_IC_ISR+0x1cc>)
 8005988:	4613      	mov	r3, r2
 800598a:	009b      	lsls	r3, r3, #2
 800598c:	4413      	add	r3, r2
 800598e:	009b      	lsls	r3, r3, #2
 8005990:	440b      	add	r3, r1
 8005992:	330c      	adds	r3, #12
 8005994:	681b      	ldr	r3, [r3, #0]
 8005996:	2b08      	cmp	r3, #8
 8005998:	d108      	bne.n	80059ac <HCSR04_TMR_IC_ISR+0x11c>
 800599a:	687b      	ldr	r3, [r7, #4]
 800599c:	681b      	ldr	r3, [r3, #0]
 800599e:	6a1b      	ldr	r3, [r3, #32]
 80059a0:	687a      	ldr	r2, [r7, #4]
 80059a2:	6812      	ldr	r2, [r2, #0]
 80059a4:	f423 6320 	bic.w	r3, r3, #2560	; 0xa00
 80059a8:	6213      	str	r3, [r2, #32]
 80059aa:	e007      	b.n	80059bc <HCSR04_TMR_IC_ISR+0x12c>
 80059ac:	687b      	ldr	r3, [r7, #4]
 80059ae:	681b      	ldr	r3, [r3, #0]
 80059b0:	6a1b      	ldr	r3, [r3, #32]
 80059b2:	687a      	ldr	r2, [r7, #4]
 80059b4:	6812      	ldr	r2, [r2, #0]
 80059b6:	f423 4320 	bic.w	r3, r3, #40960	; 0xa000
 80059ba:	6213      	str	r3, [r2, #32]
 80059bc:	7bfa      	ldrb	r2, [r7, #15]
 80059be:	4927      	ldr	r1, [pc, #156]	; (8005a5c <HCSR04_TMR_IC_ISR+0x1cc>)
 80059c0:	4613      	mov	r3, r2
 80059c2:	009b      	lsls	r3, r3, #2
 80059c4:	4413      	add	r3, r2
 80059c6:	009b      	lsls	r3, r3, #2
 80059c8:	440b      	add	r3, r1
 80059ca:	330c      	adds	r3, #12
 80059cc:	681b      	ldr	r3, [r3, #0]
 80059ce:	2b00      	cmp	r3, #0
 80059d0:	d108      	bne.n	80059e4 <HCSR04_TMR_IC_ISR+0x154>
 80059d2:	687b      	ldr	r3, [r7, #4]
 80059d4:	681b      	ldr	r3, [r3, #0]
 80059d6:	6a1a      	ldr	r2, [r3, #32]
 80059d8:	687b      	ldr	r3, [r7, #4]
 80059da:	681b      	ldr	r3, [r3, #0]
 80059dc:	f042 0202 	orr.w	r2, r2, #2
 80059e0:	621a      	str	r2, [r3, #32]
 80059e2:	e02f      	b.n	8005a44 <HCSR04_TMR_IC_ISR+0x1b4>
 80059e4:	7bfa      	ldrb	r2, [r7, #15]
 80059e6:	491d      	ldr	r1, [pc, #116]	; (8005a5c <HCSR04_TMR_IC_ISR+0x1cc>)
 80059e8:	4613      	mov	r3, r2
 80059ea:	009b      	lsls	r3, r3, #2
 80059ec:	4413      	add	r3, r2
 80059ee:	009b      	lsls	r3, r3, #2
 80059f0:	440b      	add	r3, r1
 80059f2:	330c      	adds	r3, #12
 80059f4:	681b      	ldr	r3, [r3, #0]
 80059f6:	2b04      	cmp	r3, #4
 80059f8:	d108      	bne.n	8005a0c <HCSR04_TMR_IC_ISR+0x17c>
 80059fa:	687b      	ldr	r3, [r7, #4]
 80059fc:	681b      	ldr	r3, [r3, #0]
 80059fe:	6a1b      	ldr	r3, [r3, #32]
 8005a00:	687a      	ldr	r2, [r7, #4]
 8005a02:	6812      	ldr	r2, [r2, #0]
 8005a04:	f043 0320 	orr.w	r3, r3, #32
 8005a08:	6213      	str	r3, [r2, #32]
 8005a0a:	e01b      	b.n	8005a44 <HCSR04_TMR_IC_ISR+0x1b4>
 8005a0c:	7bfa      	ldrb	r2, [r7, #15]
 8005a0e:	4913      	ldr	r1, [pc, #76]	; (8005a5c <HCSR04_TMR_IC_ISR+0x1cc>)
 8005a10:	4613      	mov	r3, r2
 8005a12:	009b      	lsls	r3, r3, #2
 8005a14:	4413      	add	r3, r2
 8005a16:	009b      	lsls	r3, r3, #2
 8005a18:	440b      	add	r3, r1
 8005a1a:	330c      	adds	r3, #12
 8005a1c:	681b      	ldr	r3, [r3, #0]
 8005a1e:	2b08      	cmp	r3, #8
 8005a20:	d108      	bne.n	8005a34 <HCSR04_TMR_IC_ISR+0x1a4>
 8005a22:	687b      	ldr	r3, [r7, #4]
 8005a24:	681b      	ldr	r3, [r3, #0]
 8005a26:	6a1b      	ldr	r3, [r3, #32]
 8005a28:	687a      	ldr	r2, [r7, #4]
 8005a2a:	6812      	ldr	r2, [r2, #0]
 8005a2c:	f443 7300 	orr.w	r3, r3, #512	; 0x200
 8005a30:	6213      	str	r3, [r2, #32]
 8005a32:	e007      	b.n	8005a44 <HCSR04_TMR_IC_ISR+0x1b4>
 8005a34:	687b      	ldr	r3, [r7, #4]
 8005a36:	681b      	ldr	r3, [r3, #0]
 8005a38:	6a1b      	ldr	r3, [r3, #32]
 8005a3a:	687a      	ldr	r2, [r7, #4]
 8005a3c:	6812      	ldr	r2, [r2, #0]
 8005a3e:	f443 5300 	orr.w	r3, r3, #8192	; 0x2000
 8005a42:	6213      	str	r3, [r2, #32]
				gs_HCSR04_info[i].TMR_OVC = 0;
 8005a44:	7bfa      	ldrb	r2, [r7, #15]
 8005a46:	4906      	ldr	r1, [pc, #24]	; (8005a60 <HCSR04_TMR_IC_ISR+0x1d0>)
 8005a48:	4613      	mov	r3, r2
 8005a4a:	00db      	lsls	r3, r3, #3
 8005a4c:	4413      	add	r3, r2
 8005a4e:	009b      	lsls	r3, r3, #2
 8005a50:	440b      	add	r3, r1
 8005a52:	3302      	adds	r3, #2
 8005a54:	2200      	movs	r2, #0
 8005a56:	801a      	strh	r2, [r3, #0]
 8005a58:	e14d      	b.n	8005cf6 <HCSR04_TMR_IC_ISR+0x466>
 8005a5a:	bf00      	nop
 8005a5c:	08008c2c 	.word	0x08008c2c
 8005a60:	20000224 	.word	0x20000224
			}
			else if (gs_HCSR04_info[i].EDGE_STATE == 1)
 8005a64:	7bfa      	ldrb	r2, [r7, #15]
 8005a66:	49ac      	ldr	r1, [pc, #688]	; (8005d18 <HCSR04_TMR_IC_ISR+0x488>)
 8005a68:	4613      	mov	r3, r2
 8005a6a:	00db      	lsls	r3, r3, #3
 8005a6c:	4413      	add	r3, r2
 8005a6e:	009b      	lsls	r3, r3, #2
 8005a70:	440b      	add	r3, r1
 8005a72:	781b      	ldrb	r3, [r3, #0]
 8005a74:	2b01      	cmp	r3, #1
 8005a76:	f040 813e 	bne.w	8005cf6 <HCSR04_TMR_IC_ISR+0x466>
			{
				// Read The Current ARR & Prescaler Values For The Timer
				PS = HCSR04_CfgParam[i].TIM_Instance->PSC;
 8005a7a:	7bfa      	ldrb	r2, [r7, #15]
 8005a7c:	49a7      	ldr	r1, [pc, #668]	; (8005d1c <HCSR04_TMR_IC_ISR+0x48c>)
 8005a7e:	4613      	mov	r3, r2
 8005a80:	009b      	lsls	r3, r3, #2
 8005a82:	4413      	add	r3, r2
 8005a84:	009b      	lsls	r3, r3, #2
 8005a86:	440b      	add	r3, r1
 8005a88:	3308      	adds	r3, #8
 8005a8a:	681b      	ldr	r3, [r3, #0]
 8005a8c:	6a9b      	ldr	r3, [r3, #40]	; 0x28
 8005a8e:	60bb      	str	r3, [r7, #8]
				gs_HCSR04_info[i].TMR_ARR = HCSR04_CfgParam[i].TIM_Instance->ARR;
 8005a90:	7bfa      	ldrb	r2, [r7, #15]
 8005a92:	49a2      	ldr	r1, [pc, #648]	; (8005d1c <HCSR04_TMR_IC_ISR+0x48c>)
 8005a94:	4613      	mov	r3, r2
 8005a96:	009b      	lsls	r3, r3, #2
 8005a98:	4413      	add	r3, r2
 8005a9a:	009b      	lsls	r3, r3, #2
 8005a9c:	440b      	add	r3, r1
 8005a9e:	3308      	adds	r3, #8
 8005aa0:	681b      	ldr	r3, [r3, #0]
 8005aa2:	7bfa      	ldrb	r2, [r7, #15]
 8005aa4:	6ad9      	ldr	r1, [r3, #44]	; 0x2c
 8005aa6:	489c      	ldr	r0, [pc, #624]	; (8005d18 <HCSR04_TMR_IC_ISR+0x488>)
 8005aa8:	4613      	mov	r3, r2
 8005aaa:	00db      	lsls	r3, r3, #3
 8005aac:	4413      	add	r3, r2
 8005aae:	009b      	lsls	r3, r3, #2
 8005ab0:	4403      	add	r3, r0
 8005ab2:	3308      	adds	r3, #8
 8005ab4:	6019      	str	r1, [r3, #0]
				// Capture T2 & Calculate The Distance
				gs_HCSR04_info[i].T2 = HAL_TIM_ReadCapturedValue(htim, HCSR04_CfgParam[i].IC_TIM_CH);
 8005ab6:	7bfa      	ldrb	r2, [r7, #15]
 8005ab8:	4998      	ldr	r1, [pc, #608]	; (8005d1c <HCSR04_TMR_IC_ISR+0x48c>)
 8005aba:	4613      	mov	r3, r2
 8005abc:	009b      	lsls	r3, r3, #2
 8005abe:	4413      	add	r3, r2
 8005ac0:	009b      	lsls	r3, r3, #2
 8005ac2:	440b      	add	r3, r1
 8005ac4:	330c      	adds	r3, #12
 8005ac6:	681b      	ldr	r3, [r3, #0]
 8005ac8:	7bfc      	ldrb	r4, [r7, #15]
 8005aca:	4619      	mov	r1, r3
 8005acc:	6878      	ldr	r0, [r7, #4]
 8005ace:	f7fe fbf9 	bl	80042c4 <HAL_TIM_ReadCapturedValue>
 8005ad2:	4602      	mov	r2, r0
 8005ad4:	4990      	ldr	r1, [pc, #576]	; (8005d18 <HCSR04_TMR_IC_ISR+0x488>)
 8005ad6:	4623      	mov	r3, r4
 8005ad8:	00db      	lsls	r3, r3, #3
 8005ada:	4423      	add	r3, r4
 8005adc:	009b      	lsls	r3, r3, #2
 8005ade:	440b      	add	r3, r1
 8005ae0:	3310      	adds	r3, #16
 8005ae2:	601a      	str	r2, [r3, #0]
				gs_HCSR04_info[i].T2 += (gs_HCSR04_info[i].TMR_OVC * (gs_HCSR04_info[i].TMR_ARR+1));
 8005ae4:	7bfa      	ldrb	r2, [r7, #15]
 8005ae6:	498c      	ldr	r1, [pc, #560]	; (8005d18 <HCSR04_TMR_IC_ISR+0x488>)
 8005ae8:	4613      	mov	r3, r2
 8005aea:	00db      	lsls	r3, r3, #3
 8005aec:	4413      	add	r3, r2
 8005aee:	009b      	lsls	r3, r3, #2
 8005af0:	440b      	add	r3, r1
 8005af2:	3310      	adds	r3, #16
 8005af4:	6819      	ldr	r1, [r3, #0]
 8005af6:	7bfa      	ldrb	r2, [r7, #15]
 8005af8:	4887      	ldr	r0, [pc, #540]	; (8005d18 <HCSR04_TMR_IC_ISR+0x488>)
 8005afa:	4613      	mov	r3, r2
 8005afc:	00db      	lsls	r3, r3, #3
 8005afe:	4413      	add	r3, r2
 8005b00:	009b      	lsls	r3, r3, #2
 8005b02:	4403      	add	r3, r0
 8005b04:	3302      	adds	r3, #2
 8005b06:	881b      	ldrh	r3, [r3, #0]
 8005b08:	461c      	mov	r4, r3
 8005b0a:	7bfa      	ldrb	r2, [r7, #15]
 8005b0c:	4882      	ldr	r0, [pc, #520]	; (8005d18 <HCSR04_TMR_IC_ISR+0x488>)
 8005b0e:	4613      	mov	r3, r2
 8005b10:	00db      	lsls	r3, r3, #3
 8005b12:	4413      	add	r3, r2
 8005b14:	009b      	lsls	r3, r3, #2
 8005b16:	4403      	add	r3, r0
 8005b18:	3308      	adds	r3, #8
 8005b1a:	681b      	ldr	r3, [r3, #0]
 8005b1c:	3301      	adds	r3, #1
 8005b1e:	fb03 f304 	mul.w	r3, r3, r4
 8005b22:	7bfa      	ldrb	r2, [r7, #15]
 8005b24:	4419      	add	r1, r3
 8005b26:	487c      	ldr	r0, [pc, #496]	; (8005d18 <HCSR04_TMR_IC_ISR+0x488>)
 8005b28:	4613      	mov	r3, r2
 8005b2a:	00db      	lsls	r3, r3, #3
 8005b2c:	4413      	add	r3, r2
 8005b2e:	009b      	lsls	r3, r3, #2
 8005b30:	4403      	add	r3, r0
 8005b32:	3310      	adds	r3, #16
 8005b34:	6019      	str	r1, [r3, #0]
				gs_HCSR04_info[i].DIFF = gs_HCSR04_info[i].T2 - gs_HCSR04_info[i].T1;
 8005b36:	7bfa      	ldrb	r2, [r7, #15]
 8005b38:	4977      	ldr	r1, [pc, #476]	; (8005d18 <HCSR04_TMR_IC_ISR+0x488>)
 8005b3a:	4613      	mov	r3, r2
 8005b3c:	00db      	lsls	r3, r3, #3
 8005b3e:	4413      	add	r3, r2
 8005b40:	009b      	lsls	r3, r3, #2
 8005b42:	440b      	add	r3, r1
 8005b44:	3310      	adds	r3, #16
 8005b46:	6819      	ldr	r1, [r3, #0]
 8005b48:	7bfa      	ldrb	r2, [r7, #15]
 8005b4a:	4873      	ldr	r0, [pc, #460]	; (8005d18 <HCSR04_TMR_IC_ISR+0x488>)
 8005b4c:	4613      	mov	r3, r2
 8005b4e:	00db      	lsls	r3, r3, #3
 8005b50:	4413      	add	r3, r2
 8005b52:	009b      	lsls	r3, r3, #2
 8005b54:	4403      	add	r3, r0
 8005b56:	330c      	adds	r3, #12
 8005b58:	681b      	ldr	r3, [r3, #0]
 8005b5a:	7bfa      	ldrb	r2, [r7, #15]
 8005b5c:	1ac9      	subs	r1, r1, r3
 8005b5e:	486e      	ldr	r0, [pc, #440]	; (8005d18 <HCSR04_TMR_IC_ISR+0x488>)
 8005b60:	4613      	mov	r3, r2
 8005b62:	00db      	lsls	r3, r3, #3
 8005b64:	4413      	add	r3, r2
 8005b66:	009b      	lsls	r3, r3, #2
 8005b68:	4403      	add	r3, r0
 8005b6a:	3314      	adds	r3, #20
 8005b6c:	6019      	str	r1, [r3, #0]
				// Write The Distance Value To The Global Struct & Reverse The ICU Edge
				gs_HCSR04_info[i].DISTANCE = (gs_HCSR04_info[i].DIFF * 0.017)/(HCSR04_CfgParam[i].TIM_CLK_MHz/(PS+1));
 8005b6e:	7bfa      	ldrb	r2, [r7, #15]
 8005b70:	4969      	ldr	r1, [pc, #420]	; (8005d18 <HCSR04_TMR_IC_ISR+0x488>)
 8005b72:	4613      	mov	r3, r2
 8005b74:	00db      	lsls	r3, r3, #3
 8005b76:	4413      	add	r3, r2
 8005b78:	009b      	lsls	r3, r3, #2
 8005b7a:	440b      	add	r3, r1
 8005b7c:	3314      	adds	r3, #20
 8005b7e:	681b      	ldr	r3, [r3, #0]
 8005b80:	4618      	mov	r0, r3
 8005b82:	f7fa fcdf 	bl	8000544 <__aeabi_ui2d>
 8005b86:	a362      	add	r3, pc, #392	; (adr r3, 8005d10 <HCSR04_TMR_IC_ISR+0x480>)
 8005b88:	e9d3 2300 	ldrd	r2, r3, [r3]
 8005b8c:	f7fa fd54 	bl	8000638 <__aeabi_dmul>
 8005b90:	4602      	mov	r2, r0
 8005b92:	460b      	mov	r3, r1
 8005b94:	4614      	mov	r4, r2
 8005b96:	461d      	mov	r5, r3
 8005b98:	7bfa      	ldrb	r2, [r7, #15]
 8005b9a:	4960      	ldr	r1, [pc, #384]	; (8005d1c <HCSR04_TMR_IC_ISR+0x48c>)
 8005b9c:	4613      	mov	r3, r2
 8005b9e:	009b      	lsls	r3, r3, #2
 8005ba0:	4413      	add	r3, r2
 8005ba2:	009b      	lsls	r3, r3, #2
 8005ba4:	440b      	add	r3, r1
 8005ba6:	3310      	adds	r3, #16
 8005ba8:	681a      	ldr	r2, [r3, #0]
 8005baa:	68bb      	ldr	r3, [r7, #8]
 8005bac:	3301      	adds	r3, #1
 8005bae:	fbb2 f3f3 	udiv	r3, r2, r3
 8005bb2:	4618      	mov	r0, r3
 8005bb4:	f7fa fcc6 	bl	8000544 <__aeabi_ui2d>
 8005bb8:	4602      	mov	r2, r0
 8005bba:	460b      	mov	r3, r1
 8005bbc:	4620      	mov	r0, r4
 8005bbe:	4629      	mov	r1, r5
 8005bc0:	f7fa fe64 	bl	800088c <__aeabi_ddiv>
 8005bc4:	4602      	mov	r2, r0
 8005bc6:	460b      	mov	r3, r1
 8005bc8:	7bfc      	ldrb	r4, [r7, #15]
 8005bca:	4610      	mov	r0, r2
 8005bcc:	4619      	mov	r1, r3
 8005bce:	f7fb f80b 	bl	8000be8 <__aeabi_d2f>
 8005bd2:	4602      	mov	r2, r0
 8005bd4:	4950      	ldr	r1, [pc, #320]	; (8005d18 <HCSR04_TMR_IC_ISR+0x488>)
 8005bd6:	4623      	mov	r3, r4
 8005bd8:	00db      	lsls	r3, r3, #3
 8005bda:	4423      	add	r3, r4
 8005bdc:	009b      	lsls	r3, r3, #2
 8005bde:	440b      	add	r3, r1
 8005be0:	3318      	adds	r3, #24
 8005be2:	601a      	str	r2, [r3, #0]
				gs_HCSR04_info[i].EDGE_STATE = 0;
 8005be4:	7bfa      	ldrb	r2, [r7, #15]
 8005be6:	494c      	ldr	r1, [pc, #304]	; (8005d18 <HCSR04_TMR_IC_ISR+0x488>)
 8005be8:	4613      	mov	r3, r2
 8005bea:	00db      	lsls	r3, r3, #3
 8005bec:	4413      	add	r3, r2
 8005bee:	009b      	lsls	r3, r3, #2
 8005bf0:	440b      	add	r3, r1
 8005bf2:	2200      	movs	r2, #0
 8005bf4:	701a      	strb	r2, [r3, #0]
				__HAL_TIM_SET_CAPTUREPOLARITY(htim, HCSR04_CfgParam[i].IC_TIM_CH, TIM_INPUTCHANNELPOLARITY_RISING);
 8005bf6:	7bfa      	ldrb	r2, [r7, #15]
 8005bf8:	4948      	ldr	r1, [pc, #288]	; (8005d1c <HCSR04_TMR_IC_ISR+0x48c>)
 8005bfa:	4613      	mov	r3, r2
 8005bfc:	009b      	lsls	r3, r3, #2
 8005bfe:	4413      	add	r3, r2
 8005c00:	009b      	lsls	r3, r3, #2
 8005c02:	440b      	add	r3, r1
 8005c04:	330c      	adds	r3, #12
 8005c06:	681b      	ldr	r3, [r3, #0]
 8005c08:	2b00      	cmp	r3, #0
 8005c0a:	d108      	bne.n	8005c1e <HCSR04_TMR_IC_ISR+0x38e>
 8005c0c:	687b      	ldr	r3, [r7, #4]
 8005c0e:	681b      	ldr	r3, [r3, #0]
 8005c10:	6a1a      	ldr	r2, [r3, #32]
 8005c12:	687b      	ldr	r3, [r7, #4]
 8005c14:	681b      	ldr	r3, [r3, #0]
 8005c16:	f022 020a 	bic.w	r2, r2, #10
 8005c1a:	621a      	str	r2, [r3, #32]
 8005c1c:	e02f      	b.n	8005c7e <HCSR04_TMR_IC_ISR+0x3ee>
 8005c1e:	7bfa      	ldrb	r2, [r7, #15]
 8005c20:	493e      	ldr	r1, [pc, #248]	; (8005d1c <HCSR04_TMR_IC_ISR+0x48c>)
 8005c22:	4613      	mov	r3, r2
 8005c24:	009b      	lsls	r3, r3, #2
 8005c26:	4413      	add	r3, r2
 8005c28:	009b      	lsls	r3, r3, #2
 8005c2a:	440b      	add	r3, r1
 8005c2c:	330c      	adds	r3, #12
 8005c2e:	681b      	ldr	r3, [r3, #0]
 8005c30:	2b04      	cmp	r3, #4
 8005c32:	d108      	bne.n	8005c46 <HCSR04_TMR_IC_ISR+0x3b6>
 8005c34:	687b      	ldr	r3, [r7, #4]
 8005c36:	681b      	ldr	r3, [r3, #0]
 8005c38:	6a1b      	ldr	r3, [r3, #32]
 8005c3a:	687a      	ldr	r2, [r7, #4]
 8005c3c:	6812      	ldr	r2, [r2, #0]
 8005c3e:	f023 03a0 	bic.w	r3, r3, #160	; 0xa0
 8005c42:	6213      	str	r3, [r2, #32]
 8005c44:	e01b      	b.n	8005c7e <HCSR04_TMR_IC_ISR+0x3ee>
 8005c46:	7bfa      	ldrb	r2, [r7, #15]
 8005c48:	4934      	ldr	r1, [pc, #208]	; (8005d1c <HCSR04_TMR_IC_ISR+0x48c>)
 8005c4a:	4613      	mov	r3, r2
 8005c4c:	009b      	lsls	r3, r3, #2
 8005c4e:	4413      	add	r3, r2
 8005c50:	009b      	lsls	r3, r3, #2
 8005c52:	440b      	add	r3, r1
 8005c54:	330c      	adds	r3, #12
 8005c56:	681b      	ldr	r3, [r3, #0]
 8005c58:	2b08      	cmp	r3, #8
 8005c5a:	d108      	bne.n	8005c6e <HCSR04_TMR_IC_ISR+0x3de>
 8005c5c:	687b      	ldr	r3, [r7, #4]
 8005c5e:	681b      	ldr	r3, [r3, #0]
 8005c60:	6a1b      	ldr	r3, [r3, #32]
 8005c62:	687a      	ldr	r2, [r7, #4]
 8005c64:	6812      	ldr	r2, [r2, #0]
 8005c66:	f423 6320 	bic.w	r3, r3, #2560	; 0xa00
 8005c6a:	6213      	str	r3, [r2, #32]
 8005c6c:	e007      	b.n	8005c7e <HCSR04_TMR_IC_ISR+0x3ee>
 8005c6e:	687b      	ldr	r3, [r7, #4]
 8005c70:	681b      	ldr	r3, [r3, #0]
 8005c72:	6a1b      	ldr	r3, [r3, #32]
 8005c74:	687a      	ldr	r2, [r7, #4]
 8005c76:	6812      	ldr	r2, [r2, #0]
 8005c78:	f423 4320 	bic.w	r3, r3, #40960	; 0xa000
 8005c7c:	6213      	str	r3, [r2, #32]
 8005c7e:	7bfa      	ldrb	r2, [r7, #15]
 8005c80:	4926      	ldr	r1, [pc, #152]	; (8005d1c <HCSR04_TMR_IC_ISR+0x48c>)
 8005c82:	4613      	mov	r3, r2
 8005c84:	009b      	lsls	r3, r3, #2
 8005c86:	4413      	add	r3, r2
 8005c88:	009b      	lsls	r3, r3, #2
 8005c8a:	440b      	add	r3, r1
 8005c8c:	330c      	adds	r3, #12
 8005c8e:	681b      	ldr	r3, [r3, #0]
 8005c90:	2b00      	cmp	r3, #0
 8005c92:	d106      	bne.n	8005ca2 <HCSR04_TMR_IC_ISR+0x412>
 8005c94:	687b      	ldr	r3, [r7, #4]
 8005c96:	681a      	ldr	r2, [r3, #0]
 8005c98:	687b      	ldr	r3, [r7, #4]
 8005c9a:	681b      	ldr	r3, [r3, #0]
 8005c9c:	6a12      	ldr	r2, [r2, #32]
 8005c9e:	621a      	str	r2, [r3, #32]
 8005ca0:	e029      	b.n	8005cf6 <HCSR04_TMR_IC_ISR+0x466>
 8005ca2:	7bfa      	ldrb	r2, [r7, #15]
 8005ca4:	491d      	ldr	r1, [pc, #116]	; (8005d1c <HCSR04_TMR_IC_ISR+0x48c>)
 8005ca6:	4613      	mov	r3, r2
 8005ca8:	009b      	lsls	r3, r3, #2
 8005caa:	4413      	add	r3, r2
 8005cac:	009b      	lsls	r3, r3, #2
 8005cae:	440b      	add	r3, r1
 8005cb0:	330c      	adds	r3, #12
 8005cb2:	681b      	ldr	r3, [r3, #0]
 8005cb4:	2b04      	cmp	r3, #4
 8005cb6:	d106      	bne.n	8005cc6 <HCSR04_TMR_IC_ISR+0x436>
 8005cb8:	687b      	ldr	r3, [r7, #4]
 8005cba:	681b      	ldr	r3, [r3, #0]
 8005cbc:	687a      	ldr	r2, [r7, #4]
 8005cbe:	6812      	ldr	r2, [r2, #0]
 8005cc0:	6a1b      	ldr	r3, [r3, #32]
 8005cc2:	6213      	str	r3, [r2, #32]
 8005cc4:	e017      	b.n	8005cf6 <HCSR04_TMR_IC_ISR+0x466>
 8005cc6:	7bfa      	ldrb	r2, [r7, #15]
 8005cc8:	4914      	ldr	r1, [pc, #80]	; (8005d1c <HCSR04_TMR_IC_ISR+0x48c>)
 8005cca:	4613      	mov	r3, r2
 8005ccc:	009b      	lsls	r3, r3, #2
 8005cce:	4413      	add	r3, r2
 8005cd0:	009b      	lsls	r3, r3, #2
 8005cd2:	440b      	add	r3, r1
 8005cd4:	330c      	adds	r3, #12
 8005cd6:	681b      	ldr	r3, [r3, #0]
 8005cd8:	2b08      	cmp	r3, #8
 8005cda:	d106      	bne.n	8005cea <HCSR04_TMR_IC_ISR+0x45a>
 8005cdc:	687b      	ldr	r3, [r7, #4]
 8005cde:	681b      	ldr	r3, [r3, #0]
 8005ce0:	687a      	ldr	r2, [r7, #4]
 8005ce2:	6812      	ldr	r2, [r2, #0]
 8005ce4:	6a1b      	ldr	r3, [r3, #32]
 8005ce6:	6213      	str	r3, [r2, #32]
 8005ce8:	e005      	b.n	8005cf6 <HCSR04_TMR_IC_ISR+0x466>
 8005cea:	687b      	ldr	r3, [r7, #4]
 8005cec:	681b      	ldr	r3, [r3, #0]
 8005cee:	687a      	ldr	r2, [r7, #4]
 8005cf0:	6812      	ldr	r2, [r2, #0]
 8005cf2:	6a1b      	ldr	r3, [r3, #32]
 8005cf4:	6213      	str	r3, [r2, #32]
	for(i=0; i<HCSR04_UNITS; i++)
 8005cf6:	7bfb      	ldrb	r3, [r7, #15]
 8005cf8:	3301      	adds	r3, #1
 8005cfa:	73fb      	strb	r3, [r7, #15]
 8005cfc:	7bfb      	ldrb	r3, [r7, #15]
 8005cfe:	2b03      	cmp	r3, #3
 8005d00:	f67f add1 	bls.w	80058a6 <HCSR04_TMR_IC_ISR+0x16>
			}
		}
	}
}
 8005d04:	bf00      	nop
 8005d06:	bf00      	nop
 8005d08:	3710      	adds	r7, #16
 8005d0a:	46bd      	mov	sp, r7
 8005d0c:	bdb0      	pop	{r4, r5, r7, pc}
 8005d0e:	bf00      	nop
 8005d10:	b020c49c 	.word	0xb020c49c
 8005d14:	3f916872 	.word	0x3f916872
 8005d18:	20000224 	.word	0x20000224
 8005d1c:	08008c2c 	.word	0x08008c2c

08005d20 <HCSR04_Read>:

float HCSR04_Read(uint8_t au8_HCSR04_Instance)
{
 8005d20:	b480      	push	{r7}
 8005d22:	b083      	sub	sp, #12
 8005d24:	af00      	add	r7, sp, #0
 8005d26:	4603      	mov	r3, r0
 8005d28:	71fb      	strb	r3, [r7, #7]
	return gs_HCSR04_info[au8_HCSR04_Instance].DISTANCE;
 8005d2a:	79fa      	ldrb	r2, [r7, #7]
 8005d2c:	4908      	ldr	r1, [pc, #32]	; (8005d50 <HCSR04_Read+0x30>)
 8005d2e:	4613      	mov	r3, r2
 8005d30:	00db      	lsls	r3, r3, #3
 8005d32:	4413      	add	r3, r2
 8005d34:	009b      	lsls	r3, r3, #2
 8005d36:	440b      	add	r3, r1
 8005d38:	3318      	adds	r3, #24
 8005d3a:	681b      	ldr	r3, [r3, #0]
 8005d3c:	ee07 3a90 	vmov	s15, r3
}
 8005d40:	eeb0 0a67 	vmov.f32	s0, s15
 8005d44:	370c      	adds	r7, #12
 8005d46:	46bd      	mov	sp, r7
 8005d48:	f85d 7b04 	ldr.w	r7, [sp], #4
 8005d4c:	4770      	bx	lr
 8005d4e:	bf00      	nop
 8005d50:	20000224 	.word	0x20000224

08005d54 <HCSR04_Trigger>:

void HCSR04_Trigger(uint8_t au8_HCSR04_Instance)
{
 8005d54:	b580      	push	{r7, lr}
 8005d56:	b082      	sub	sp, #8
 8005d58:	af00      	add	r7, sp, #0
 8005d5a:	4603      	mov	r3, r0
 8005d5c:	71fb      	strb	r3, [r7, #7]
	HAL_GPIO_WritePin(HCSR04_CfgParam[au8_HCSR04_Instance].TRIG_GPIO, HCSR04_CfgParam[au8_HCSR04_Instance].TRIG_PIN, 1);
 8005d5e:	79fa      	ldrb	r2, [r7, #7]
 8005d60:	4917      	ldr	r1, [pc, #92]	; (8005dc0 <HCSR04_Trigger+0x6c>)
 8005d62:	4613      	mov	r3, r2
 8005d64:	009b      	lsls	r3, r3, #2
 8005d66:	4413      	add	r3, r2
 8005d68:	009b      	lsls	r3, r3, #2
 8005d6a:	440b      	add	r3, r1
 8005d6c:	6818      	ldr	r0, [r3, #0]
 8005d6e:	79fa      	ldrb	r2, [r7, #7]
 8005d70:	4913      	ldr	r1, [pc, #76]	; (8005dc0 <HCSR04_Trigger+0x6c>)
 8005d72:	4613      	mov	r3, r2
 8005d74:	009b      	lsls	r3, r3, #2
 8005d76:	4413      	add	r3, r2
 8005d78:	009b      	lsls	r3, r3, #2
 8005d7a:	440b      	add	r3, r1
 8005d7c:	3304      	adds	r3, #4
 8005d7e:	881b      	ldrh	r3, [r3, #0]
 8005d80:	2201      	movs	r2, #1
 8005d82:	4619      	mov	r1, r3
 8005d84:	f7fc fe92 	bl	8002aac <HAL_GPIO_WritePin>
	DWT_Delay_us(2);
 8005d88:	2002      	movs	r0, #2
 8005d8a:	f7ff fb2f 	bl	80053ec <DWT_Delay_us>
	HAL_GPIO_WritePin(HCSR04_CfgParam[au8_HCSR04_Instance].TRIG_GPIO, HCSR04_CfgParam[au8_HCSR04_Instance].TRIG_PIN, 0);
 8005d8e:	79fa      	ldrb	r2, [r7, #7]
 8005d90:	490b      	ldr	r1, [pc, #44]	; (8005dc0 <HCSR04_Trigger+0x6c>)
 8005d92:	4613      	mov	r3, r2
 8005d94:	009b      	lsls	r3, r3, #2
 8005d96:	4413      	add	r3, r2
 8005d98:	009b      	lsls	r3, r3, #2
 8005d9a:	440b      	add	r3, r1
 8005d9c:	6818      	ldr	r0, [r3, #0]
 8005d9e:	79fa      	ldrb	r2, [r7, #7]
 8005da0:	4907      	ldr	r1, [pc, #28]	; (8005dc0 <HCSR04_Trigger+0x6c>)
 8005da2:	4613      	mov	r3, r2
 8005da4:	009b      	lsls	r3, r3, #2
 8005da6:	4413      	add	r3, r2
 8005da8:	009b      	lsls	r3, r3, #2
 8005daa:	440b      	add	r3, r1
 8005dac:	3304      	adds	r3, #4
 8005dae:	881b      	ldrh	r3, [r3, #0]
 8005db0:	2200      	movs	r2, #0
 8005db2:	4619      	mov	r1, r3
 8005db4:	f7fc fe7a 	bl	8002aac <HAL_GPIO_WritePin>
}
 8005db8:	bf00      	nop
 8005dba:	3708      	adds	r7, #8
 8005dbc:	46bd      	mov	sp, r7
 8005dbe:	bd80      	pop	{r7, pc}
 8005dc0:	08008c2c 	.word	0x08008c2c

08005dc4 <DWT_Delay_Init>:

#include "DWT_Delay.h"


uint32_t DWT_Delay_Init(void)
{
 8005dc4:	b480      	push	{r7}
 8005dc6:	af00      	add	r7, sp, #0
    /* Disable TRC */
    CoreDebug->DEMCR &= ~CoreDebug_DEMCR_TRCENA_Msk; // ~0x01000000;
 8005dc8:	4b14      	ldr	r3, [pc, #80]	; (8005e1c <DWT_Delay_Init+0x58>)
 8005dca:	68db      	ldr	r3, [r3, #12]
 8005dcc:	4a13      	ldr	r2, [pc, #76]	; (8005e1c <DWT_Delay_Init+0x58>)
 8005dce:	f023 7380 	bic.w	r3, r3, #16777216	; 0x1000000
 8005dd2:	60d3      	str	r3, [r2, #12]
    /* Enable TRC */
    CoreDebug->DEMCR |=  CoreDebug_DEMCR_TRCENA_Msk; // 0x01000000;
 8005dd4:	4b11      	ldr	r3, [pc, #68]	; (8005e1c <DWT_Delay_Init+0x58>)
 8005dd6:	68db      	ldr	r3, [r3, #12]
 8005dd8:	4a10      	ldr	r2, [pc, #64]	; (8005e1c <DWT_Delay_Init+0x58>)
 8005dda:	f043 7380 	orr.w	r3, r3, #16777216	; 0x1000000
 8005dde:	60d3      	str	r3, [r2, #12]

    /* Disable clock cycle counter */
    DWT->CTRL &= ~DWT_CTRL_CYCCNTENA_Msk; //~0x00000001;
 8005de0:	4b0f      	ldr	r3, [pc, #60]	; (8005e20 <DWT_Delay_Init+0x5c>)
 8005de2:	681b      	ldr	r3, [r3, #0]
 8005de4:	4a0e      	ldr	r2, [pc, #56]	; (8005e20 <DWT_Delay_Init+0x5c>)
 8005de6:	f023 0301 	bic.w	r3, r3, #1
 8005dea:	6013      	str	r3, [r2, #0]
    /* Enable  clock cycle counter */
    DWT->CTRL |=  DWT_CTRL_CYCCNTENA_Msk; //0x00000001;
 8005dec:	4b0c      	ldr	r3, [pc, #48]	; (8005e20 <DWT_Delay_Init+0x5c>)
 8005dee:	681b      	ldr	r3, [r3, #0]
 8005df0:	4a0b      	ldr	r2, [pc, #44]	; (8005e20 <DWT_Delay_Init+0x5c>)
 8005df2:	f043 0301 	orr.w	r3, r3, #1
 8005df6:	6013      	str	r3, [r2, #0]

    /* Reset the clock cycle counter value */
    DWT->CYCCNT = 0;
 8005df8:	4b09      	ldr	r3, [pc, #36]	; (8005e20 <DWT_Delay_Init+0x5c>)
 8005dfa:	2200      	movs	r2, #0
 8005dfc:	605a      	str	r2, [r3, #4]

    /* 3 NO OPERATION instructions */
    __ASM volatile ("NOP");
 8005dfe:	bf00      	nop
    __ASM volatile ("NOP");
 8005e00:	bf00      	nop
    __ASM volatile ("NOP");
 8005e02:	bf00      	nop

    /* Check if clock cycle counter has started */
    if(DWT->CYCCNT)
 8005e04:	4b06      	ldr	r3, [pc, #24]	; (8005e20 <DWT_Delay_Init+0x5c>)
 8005e06:	685b      	ldr	r3, [r3, #4]
 8005e08:	2b00      	cmp	r3, #0
 8005e0a:	d001      	beq.n	8005e10 <DWT_Delay_Init+0x4c>
    {
       return 0; /*clock cycle counter started*/
 8005e0c:	2300      	movs	r3, #0
 8005e0e:	e000      	b.n	8005e12 <DWT_Delay_Init+0x4e>
    }
    else
    {
      return 1; /*clock cycle counter not started*/
 8005e10:	2301      	movs	r3, #1
    }
}
 8005e12:	4618      	mov	r0, r3
 8005e14:	46bd      	mov	sp, r7
 8005e16:	f85d 7b04 	ldr.w	r7, [sp], #4
 8005e1a:	4770      	bx	lr
 8005e1c:	e000edf0 	.word	0xe000edf0
 8005e20:	e0001000 	.word	0xe0001000

08005e24 <__errno>:
 8005e24:	4b01      	ldr	r3, [pc, #4]	; (8005e2c <__errno+0x8>)
 8005e26:	6818      	ldr	r0, [r3, #0]
 8005e28:	4770      	bx	lr
 8005e2a:	bf00      	nop
 8005e2c:	20000024 	.word	0x20000024

08005e30 <__libc_init_array>:
 8005e30:	b570      	push	{r4, r5, r6, lr}
 8005e32:	4d0d      	ldr	r5, [pc, #52]	; (8005e68 <__libc_init_array+0x38>)
 8005e34:	4c0d      	ldr	r4, [pc, #52]	; (8005e6c <__libc_init_array+0x3c>)
 8005e36:	1b64      	subs	r4, r4, r5
 8005e38:	10a4      	asrs	r4, r4, #2
 8005e3a:	2600      	movs	r6, #0
 8005e3c:	42a6      	cmp	r6, r4
 8005e3e:	d109      	bne.n	8005e54 <__libc_init_array+0x24>
 8005e40:	4d0b      	ldr	r5, [pc, #44]	; (8005e70 <__libc_init_array+0x40>)
 8005e42:	4c0c      	ldr	r4, [pc, #48]	; (8005e74 <__libc_init_array+0x44>)
 8005e44:	f002 feb6 	bl	8008bb4 <_init>
 8005e48:	1b64      	subs	r4, r4, r5
 8005e4a:	10a4      	asrs	r4, r4, #2
 8005e4c:	2600      	movs	r6, #0
 8005e4e:	42a6      	cmp	r6, r4
 8005e50:	d105      	bne.n	8005e5e <__libc_init_array+0x2e>
 8005e52:	bd70      	pop	{r4, r5, r6, pc}
 8005e54:	f855 3b04 	ldr.w	r3, [r5], #4
 8005e58:	4798      	blx	r3
 8005e5a:	3601      	adds	r6, #1
 8005e5c:	e7ee      	b.n	8005e3c <__libc_init_array+0xc>
 8005e5e:	f855 3b04 	ldr.w	r3, [r5], #4
 8005e62:	4798      	blx	r3
 8005e64:	3601      	adds	r6, #1
 8005e66:	e7f2      	b.n	8005e4e <__libc_init_array+0x1e>
 8005e68:	08009064 	.word	0x08009064
 8005e6c:	08009064 	.word	0x08009064
 8005e70:	08009064 	.word	0x08009064
 8005e74:	08009068 	.word	0x08009068

08005e78 <memset>:
 8005e78:	4402      	add	r2, r0
 8005e7a:	4603      	mov	r3, r0
 8005e7c:	4293      	cmp	r3, r2
 8005e7e:	d100      	bne.n	8005e82 <memset+0xa>
 8005e80:	4770      	bx	lr
 8005e82:	f803 1b01 	strb.w	r1, [r3], #1
 8005e86:	e7f9      	b.n	8005e7c <memset+0x4>

08005e88 <__cvt>:
 8005e88:	e92d 47ff 	stmdb	sp!, {r0, r1, r2, r3, r4, r5, r6, r7, r8, r9, sl, lr}
 8005e8c:	ec55 4b10 	vmov	r4, r5, d0
 8005e90:	2d00      	cmp	r5, #0
 8005e92:	460e      	mov	r6, r1
 8005e94:	4619      	mov	r1, r3
 8005e96:	462b      	mov	r3, r5
 8005e98:	bfbb      	ittet	lt
 8005e9a:	f105 4300 	addlt.w	r3, r5, #2147483648	; 0x80000000
 8005e9e:	461d      	movlt	r5, r3
 8005ea0:	2300      	movge	r3, #0
 8005ea2:	232d      	movlt	r3, #45	; 0x2d
 8005ea4:	700b      	strb	r3, [r1, #0]
 8005ea6:	9b0d      	ldr	r3, [sp, #52]	; 0x34
 8005ea8:	f8dd a030 	ldr.w	sl, [sp, #48]	; 0x30
 8005eac:	4691      	mov	r9, r2
 8005eae:	f023 0820 	bic.w	r8, r3, #32
 8005eb2:	bfbc      	itt	lt
 8005eb4:	4622      	movlt	r2, r4
 8005eb6:	4614      	movlt	r4, r2
 8005eb8:	f1b8 0f46 	cmp.w	r8, #70	; 0x46
 8005ebc:	d005      	beq.n	8005eca <__cvt+0x42>
 8005ebe:	f1b8 0f45 	cmp.w	r8, #69	; 0x45
 8005ec2:	d100      	bne.n	8005ec6 <__cvt+0x3e>
 8005ec4:	3601      	adds	r6, #1
 8005ec6:	2102      	movs	r1, #2
 8005ec8:	e000      	b.n	8005ecc <__cvt+0x44>
 8005eca:	2103      	movs	r1, #3
 8005ecc:	ab03      	add	r3, sp, #12
 8005ece:	9301      	str	r3, [sp, #4]
 8005ed0:	ab02      	add	r3, sp, #8
 8005ed2:	9300      	str	r3, [sp, #0]
 8005ed4:	ec45 4b10 	vmov	d0, r4, r5
 8005ed8:	4653      	mov	r3, sl
 8005eda:	4632      	mov	r2, r6
 8005edc:	f000 fcec 	bl	80068b8 <_dtoa_r>
 8005ee0:	f1b8 0f47 	cmp.w	r8, #71	; 0x47
 8005ee4:	4607      	mov	r7, r0
 8005ee6:	d102      	bne.n	8005eee <__cvt+0x66>
 8005ee8:	f019 0f01 	tst.w	r9, #1
 8005eec:	d022      	beq.n	8005f34 <__cvt+0xac>
 8005eee:	f1b8 0f46 	cmp.w	r8, #70	; 0x46
 8005ef2:	eb07 0906 	add.w	r9, r7, r6
 8005ef6:	d110      	bne.n	8005f1a <__cvt+0x92>
 8005ef8:	783b      	ldrb	r3, [r7, #0]
 8005efa:	2b30      	cmp	r3, #48	; 0x30
 8005efc:	d10a      	bne.n	8005f14 <__cvt+0x8c>
 8005efe:	2200      	movs	r2, #0
 8005f00:	2300      	movs	r3, #0
 8005f02:	4620      	mov	r0, r4
 8005f04:	4629      	mov	r1, r5
 8005f06:	f7fa fdff 	bl	8000b08 <__aeabi_dcmpeq>
 8005f0a:	b918      	cbnz	r0, 8005f14 <__cvt+0x8c>
 8005f0c:	f1c6 0601 	rsb	r6, r6, #1
 8005f10:	f8ca 6000 	str.w	r6, [sl]
 8005f14:	f8da 3000 	ldr.w	r3, [sl]
 8005f18:	4499      	add	r9, r3
 8005f1a:	2200      	movs	r2, #0
 8005f1c:	2300      	movs	r3, #0
 8005f1e:	4620      	mov	r0, r4
 8005f20:	4629      	mov	r1, r5
 8005f22:	f7fa fdf1 	bl	8000b08 <__aeabi_dcmpeq>
 8005f26:	b108      	cbz	r0, 8005f2c <__cvt+0xa4>
 8005f28:	f8cd 900c 	str.w	r9, [sp, #12]
 8005f2c:	2230      	movs	r2, #48	; 0x30
 8005f2e:	9b03      	ldr	r3, [sp, #12]
 8005f30:	454b      	cmp	r3, r9
 8005f32:	d307      	bcc.n	8005f44 <__cvt+0xbc>
 8005f34:	9b03      	ldr	r3, [sp, #12]
 8005f36:	9a0e      	ldr	r2, [sp, #56]	; 0x38
 8005f38:	1bdb      	subs	r3, r3, r7
 8005f3a:	4638      	mov	r0, r7
 8005f3c:	6013      	str	r3, [r2, #0]
 8005f3e:	b004      	add	sp, #16
 8005f40:	e8bd 87f0 	ldmia.w	sp!, {r4, r5, r6, r7, r8, r9, sl, pc}
 8005f44:	1c59      	adds	r1, r3, #1
 8005f46:	9103      	str	r1, [sp, #12]
 8005f48:	701a      	strb	r2, [r3, #0]
 8005f4a:	e7f0      	b.n	8005f2e <__cvt+0xa6>

08005f4c <__exponent>:
 8005f4c:	b5f7      	push	{r0, r1, r2, r4, r5, r6, r7, lr}
 8005f4e:	4603      	mov	r3, r0
 8005f50:	2900      	cmp	r1, #0
 8005f52:	bfb8      	it	lt
 8005f54:	4249      	neglt	r1, r1
 8005f56:	f803 2b02 	strb.w	r2, [r3], #2
 8005f5a:	bfb4      	ite	lt
 8005f5c:	222d      	movlt	r2, #45	; 0x2d
 8005f5e:	222b      	movge	r2, #43	; 0x2b
 8005f60:	2909      	cmp	r1, #9
 8005f62:	7042      	strb	r2, [r0, #1]
 8005f64:	dd2a      	ble.n	8005fbc <__exponent+0x70>
 8005f66:	f10d 0407 	add.w	r4, sp, #7
 8005f6a:	46a4      	mov	ip, r4
 8005f6c:	270a      	movs	r7, #10
 8005f6e:	46a6      	mov	lr, r4
 8005f70:	460a      	mov	r2, r1
 8005f72:	fb91 f6f7 	sdiv	r6, r1, r7
 8005f76:	fb07 1516 	mls	r5, r7, r6, r1
 8005f7a:	3530      	adds	r5, #48	; 0x30
 8005f7c:	2a63      	cmp	r2, #99	; 0x63
 8005f7e:	f104 34ff 	add.w	r4, r4, #4294967295	; 0xffffffff
 8005f82:	f80e 5c01 	strb.w	r5, [lr, #-1]
 8005f86:	4631      	mov	r1, r6
 8005f88:	dcf1      	bgt.n	8005f6e <__exponent+0x22>
 8005f8a:	3130      	adds	r1, #48	; 0x30
 8005f8c:	f1ae 0502 	sub.w	r5, lr, #2
 8005f90:	f804 1c01 	strb.w	r1, [r4, #-1]
 8005f94:	1c44      	adds	r4, r0, #1
 8005f96:	4629      	mov	r1, r5
 8005f98:	4561      	cmp	r1, ip
 8005f9a:	d30a      	bcc.n	8005fb2 <__exponent+0x66>
 8005f9c:	f10d 0209 	add.w	r2, sp, #9
 8005fa0:	eba2 020e 	sub.w	r2, r2, lr
 8005fa4:	4565      	cmp	r5, ip
 8005fa6:	bf88      	it	hi
 8005fa8:	2200      	movhi	r2, #0
 8005faa:	4413      	add	r3, r2
 8005fac:	1a18      	subs	r0, r3, r0
 8005fae:	b003      	add	sp, #12
 8005fb0:	bdf0      	pop	{r4, r5, r6, r7, pc}
 8005fb2:	f811 2b01 	ldrb.w	r2, [r1], #1
 8005fb6:	f804 2f01 	strb.w	r2, [r4, #1]!
 8005fba:	e7ed      	b.n	8005f98 <__exponent+0x4c>
 8005fbc:	2330      	movs	r3, #48	; 0x30
 8005fbe:	3130      	adds	r1, #48	; 0x30
 8005fc0:	7083      	strb	r3, [r0, #2]
 8005fc2:	70c1      	strb	r1, [r0, #3]
 8005fc4:	1d03      	adds	r3, r0, #4
 8005fc6:	e7f1      	b.n	8005fac <__exponent+0x60>

08005fc8 <_printf_float>:
 8005fc8:	e92d 4ff0 	stmdb	sp!, {r4, r5, r6, r7, r8, r9, sl, fp, lr}
 8005fcc:	ed2d 8b02 	vpush	{d8}
 8005fd0:	b08d      	sub	sp, #52	; 0x34
 8005fd2:	460c      	mov	r4, r1
 8005fd4:	f8dd 8060 	ldr.w	r8, [sp, #96]	; 0x60
 8005fd8:	4616      	mov	r6, r2
 8005fda:	461f      	mov	r7, r3
 8005fdc:	4605      	mov	r5, r0
 8005fde:	f001 fa57 	bl	8007490 <_localeconv_r>
 8005fe2:	f8d0 a000 	ldr.w	sl, [r0]
 8005fe6:	4650      	mov	r0, sl
 8005fe8:	f7fa f912 	bl	8000210 <strlen>
 8005fec:	2300      	movs	r3, #0
 8005fee:	930a      	str	r3, [sp, #40]	; 0x28
 8005ff0:	6823      	ldr	r3, [r4, #0]
 8005ff2:	9305      	str	r3, [sp, #20]
 8005ff4:	f8d8 3000 	ldr.w	r3, [r8]
 8005ff8:	f894 b018 	ldrb.w	fp, [r4, #24]
 8005ffc:	3307      	adds	r3, #7
 8005ffe:	f023 0307 	bic.w	r3, r3, #7
 8006002:	f103 0208 	add.w	r2, r3, #8
 8006006:	f8c8 2000 	str.w	r2, [r8]
 800600a:	e9d3 2300 	ldrd	r2, r3, [r3]
 800600e:	e9c4 2312 	strd	r2, r3, [r4, #72]	; 0x48
 8006012:	e9d4 8912 	ldrd	r8, r9, [r4, #72]	; 0x48
 8006016:	f029 4300 	bic.w	r3, r9, #2147483648	; 0x80000000
 800601a:	9307      	str	r3, [sp, #28]
 800601c:	f8cd 8018 	str.w	r8, [sp, #24]
 8006020:	ee08 0a10 	vmov	s16, r0
 8006024:	4b9f      	ldr	r3, [pc, #636]	; (80062a4 <_printf_float+0x2dc>)
 8006026:	e9dd 0106 	ldrd	r0, r1, [sp, #24]
 800602a:	f04f 32ff 	mov.w	r2, #4294967295	; 0xffffffff
 800602e:	f7fa fd9d 	bl	8000b6c <__aeabi_dcmpun>
 8006032:	bb88      	cbnz	r0, 8006098 <_printf_float+0xd0>
 8006034:	e9dd 0106 	ldrd	r0, r1, [sp, #24]
 8006038:	4b9a      	ldr	r3, [pc, #616]	; (80062a4 <_printf_float+0x2dc>)
 800603a:	f04f 32ff 	mov.w	r2, #4294967295	; 0xffffffff
 800603e:	f7fa fd77 	bl	8000b30 <__aeabi_dcmple>
 8006042:	bb48      	cbnz	r0, 8006098 <_printf_float+0xd0>
 8006044:	2200      	movs	r2, #0
 8006046:	2300      	movs	r3, #0
 8006048:	4640      	mov	r0, r8
 800604a:	4649      	mov	r1, r9
 800604c:	f7fa fd66 	bl	8000b1c <__aeabi_dcmplt>
 8006050:	b110      	cbz	r0, 8006058 <_printf_float+0x90>
 8006052:	232d      	movs	r3, #45	; 0x2d
 8006054:	f884 3043 	strb.w	r3, [r4, #67]	; 0x43
 8006058:	4b93      	ldr	r3, [pc, #588]	; (80062a8 <_printf_float+0x2e0>)
 800605a:	4894      	ldr	r0, [pc, #592]	; (80062ac <_printf_float+0x2e4>)
 800605c:	f1bb 0f47 	cmp.w	fp, #71	; 0x47
 8006060:	bf94      	ite	ls
 8006062:	4698      	movls	r8, r3
 8006064:	4680      	movhi	r8, r0
 8006066:	2303      	movs	r3, #3
 8006068:	6123      	str	r3, [r4, #16]
 800606a:	9b05      	ldr	r3, [sp, #20]
 800606c:	f023 0204 	bic.w	r2, r3, #4
 8006070:	6022      	str	r2, [r4, #0]
 8006072:	f04f 0900 	mov.w	r9, #0
 8006076:	9700      	str	r7, [sp, #0]
 8006078:	4633      	mov	r3, r6
 800607a:	aa0b      	add	r2, sp, #44	; 0x2c
 800607c:	4621      	mov	r1, r4
 800607e:	4628      	mov	r0, r5
 8006080:	f000 f9d8 	bl	8006434 <_printf_common>
 8006084:	3001      	adds	r0, #1
 8006086:	f040 8090 	bne.w	80061aa <_printf_float+0x1e2>
 800608a:	f04f 30ff 	mov.w	r0, #4294967295	; 0xffffffff
 800608e:	b00d      	add	sp, #52	; 0x34
 8006090:	ecbd 8b02 	vpop	{d8}
 8006094:	e8bd 8ff0 	ldmia.w	sp!, {r4, r5, r6, r7, r8, r9, sl, fp, pc}
 8006098:	4642      	mov	r2, r8
 800609a:	464b      	mov	r3, r9
 800609c:	4640      	mov	r0, r8
 800609e:	4649      	mov	r1, r9
 80060a0:	f7fa fd64 	bl	8000b6c <__aeabi_dcmpun>
 80060a4:	b140      	cbz	r0, 80060b8 <_printf_float+0xf0>
 80060a6:	464b      	mov	r3, r9
 80060a8:	2b00      	cmp	r3, #0
 80060aa:	bfbc      	itt	lt
 80060ac:	232d      	movlt	r3, #45	; 0x2d
 80060ae:	f884 3043 	strblt.w	r3, [r4, #67]	; 0x43
 80060b2:	487f      	ldr	r0, [pc, #508]	; (80062b0 <_printf_float+0x2e8>)
 80060b4:	4b7f      	ldr	r3, [pc, #508]	; (80062b4 <_printf_float+0x2ec>)
 80060b6:	e7d1      	b.n	800605c <_printf_float+0x94>
 80060b8:	6863      	ldr	r3, [r4, #4]
 80060ba:	f00b 02df 	and.w	r2, fp, #223	; 0xdf
 80060be:	9206      	str	r2, [sp, #24]
 80060c0:	1c5a      	adds	r2, r3, #1
 80060c2:	d13f      	bne.n	8006144 <_printf_float+0x17c>
 80060c4:	2306      	movs	r3, #6
 80060c6:	6063      	str	r3, [r4, #4]
 80060c8:	9b05      	ldr	r3, [sp, #20]
 80060ca:	6861      	ldr	r1, [r4, #4]
 80060cc:	f443 6280 	orr.w	r2, r3, #1024	; 0x400
 80060d0:	2300      	movs	r3, #0
 80060d2:	9303      	str	r3, [sp, #12]
 80060d4:	ab0a      	add	r3, sp, #40	; 0x28
 80060d6:	e9cd b301 	strd	fp, r3, [sp, #4]
 80060da:	ab09      	add	r3, sp, #36	; 0x24
 80060dc:	ec49 8b10 	vmov	d0, r8, r9
 80060e0:	9300      	str	r3, [sp, #0]
 80060e2:	6022      	str	r2, [r4, #0]
 80060e4:	f10d 0323 	add.w	r3, sp, #35	; 0x23
 80060e8:	4628      	mov	r0, r5
 80060ea:	f7ff fecd 	bl	8005e88 <__cvt>
 80060ee:	9b06      	ldr	r3, [sp, #24]
 80060f0:	9909      	ldr	r1, [sp, #36]	; 0x24
 80060f2:	2b47      	cmp	r3, #71	; 0x47
 80060f4:	4680      	mov	r8, r0
 80060f6:	d108      	bne.n	800610a <_printf_float+0x142>
 80060f8:	1cc8      	adds	r0, r1, #3
 80060fa:	db02      	blt.n	8006102 <_printf_float+0x13a>
 80060fc:	6863      	ldr	r3, [r4, #4]
 80060fe:	4299      	cmp	r1, r3
 8006100:	dd41      	ble.n	8006186 <_printf_float+0x1be>
 8006102:	f1ab 0b02 	sub.w	fp, fp, #2
 8006106:	fa5f fb8b 	uxtb.w	fp, fp
 800610a:	f1bb 0f65 	cmp.w	fp, #101	; 0x65
 800610e:	d820      	bhi.n	8006152 <_printf_float+0x18a>
 8006110:	3901      	subs	r1, #1
 8006112:	465a      	mov	r2, fp
 8006114:	f104 0050 	add.w	r0, r4, #80	; 0x50
 8006118:	9109      	str	r1, [sp, #36]	; 0x24
 800611a:	f7ff ff17 	bl	8005f4c <__exponent>
 800611e:	9a0a      	ldr	r2, [sp, #40]	; 0x28
 8006120:	1813      	adds	r3, r2, r0
 8006122:	2a01      	cmp	r2, #1
 8006124:	4681      	mov	r9, r0
 8006126:	6123      	str	r3, [r4, #16]
 8006128:	dc02      	bgt.n	8006130 <_printf_float+0x168>
 800612a:	6822      	ldr	r2, [r4, #0]
 800612c:	07d2      	lsls	r2, r2, #31
 800612e:	d501      	bpl.n	8006134 <_printf_float+0x16c>
 8006130:	3301      	adds	r3, #1
 8006132:	6123      	str	r3, [r4, #16]
 8006134:	f89d 3023 	ldrb.w	r3, [sp, #35]	; 0x23
 8006138:	2b00      	cmp	r3, #0
 800613a:	d09c      	beq.n	8006076 <_printf_float+0xae>
 800613c:	232d      	movs	r3, #45	; 0x2d
 800613e:	f884 3043 	strb.w	r3, [r4, #67]	; 0x43
 8006142:	e798      	b.n	8006076 <_printf_float+0xae>
 8006144:	9a06      	ldr	r2, [sp, #24]
 8006146:	2a47      	cmp	r2, #71	; 0x47
 8006148:	d1be      	bne.n	80060c8 <_printf_float+0x100>
 800614a:	2b00      	cmp	r3, #0
 800614c:	d1bc      	bne.n	80060c8 <_printf_float+0x100>
 800614e:	2301      	movs	r3, #1
 8006150:	e7b9      	b.n	80060c6 <_printf_float+0xfe>
 8006152:	f1bb 0f66 	cmp.w	fp, #102	; 0x66
 8006156:	d118      	bne.n	800618a <_printf_float+0x1c2>
 8006158:	2900      	cmp	r1, #0
 800615a:	6863      	ldr	r3, [r4, #4]
 800615c:	dd0b      	ble.n	8006176 <_printf_float+0x1ae>
 800615e:	6121      	str	r1, [r4, #16]
 8006160:	b913      	cbnz	r3, 8006168 <_printf_float+0x1a0>
 8006162:	6822      	ldr	r2, [r4, #0]
 8006164:	07d0      	lsls	r0, r2, #31
 8006166:	d502      	bpl.n	800616e <_printf_float+0x1a6>
 8006168:	3301      	adds	r3, #1
 800616a:	440b      	add	r3, r1
 800616c:	6123      	str	r3, [r4, #16]
 800616e:	65a1      	str	r1, [r4, #88]	; 0x58
 8006170:	f04f 0900 	mov.w	r9, #0
 8006174:	e7de      	b.n	8006134 <_printf_float+0x16c>
 8006176:	b913      	cbnz	r3, 800617e <_printf_float+0x1b6>
 8006178:	6822      	ldr	r2, [r4, #0]
 800617a:	07d2      	lsls	r2, r2, #31
 800617c:	d501      	bpl.n	8006182 <_printf_float+0x1ba>
 800617e:	3302      	adds	r3, #2
 8006180:	e7f4      	b.n	800616c <_printf_float+0x1a4>
 8006182:	2301      	movs	r3, #1
 8006184:	e7f2      	b.n	800616c <_printf_float+0x1a4>
 8006186:	f04f 0b67 	mov.w	fp, #103	; 0x67
 800618a:	9b0a      	ldr	r3, [sp, #40]	; 0x28
 800618c:	4299      	cmp	r1, r3
 800618e:	db05      	blt.n	800619c <_printf_float+0x1d4>
 8006190:	6823      	ldr	r3, [r4, #0]
 8006192:	6121      	str	r1, [r4, #16]
 8006194:	07d8      	lsls	r0, r3, #31
 8006196:	d5ea      	bpl.n	800616e <_printf_float+0x1a6>
 8006198:	1c4b      	adds	r3, r1, #1
 800619a:	e7e7      	b.n	800616c <_printf_float+0x1a4>
 800619c:	2900      	cmp	r1, #0
 800619e:	bfd4      	ite	le
 80061a0:	f1c1 0202 	rsble	r2, r1, #2
 80061a4:	2201      	movgt	r2, #1
 80061a6:	4413      	add	r3, r2
 80061a8:	e7e0      	b.n	800616c <_printf_float+0x1a4>
 80061aa:	6823      	ldr	r3, [r4, #0]
 80061ac:	055a      	lsls	r2, r3, #21
 80061ae:	d407      	bmi.n	80061c0 <_printf_float+0x1f8>
 80061b0:	6923      	ldr	r3, [r4, #16]
 80061b2:	4642      	mov	r2, r8
 80061b4:	4631      	mov	r1, r6
 80061b6:	4628      	mov	r0, r5
 80061b8:	47b8      	blx	r7
 80061ba:	3001      	adds	r0, #1
 80061bc:	d12c      	bne.n	8006218 <_printf_float+0x250>
 80061be:	e764      	b.n	800608a <_printf_float+0xc2>
 80061c0:	f1bb 0f65 	cmp.w	fp, #101	; 0x65
 80061c4:	f240 80e0 	bls.w	8006388 <_printf_float+0x3c0>
 80061c8:	e9d4 0112 	ldrd	r0, r1, [r4, #72]	; 0x48
 80061cc:	2200      	movs	r2, #0
 80061ce:	2300      	movs	r3, #0
 80061d0:	f7fa fc9a 	bl	8000b08 <__aeabi_dcmpeq>
 80061d4:	2800      	cmp	r0, #0
 80061d6:	d034      	beq.n	8006242 <_printf_float+0x27a>
 80061d8:	4a37      	ldr	r2, [pc, #220]	; (80062b8 <_printf_float+0x2f0>)
 80061da:	2301      	movs	r3, #1
 80061dc:	4631      	mov	r1, r6
 80061de:	4628      	mov	r0, r5
 80061e0:	47b8      	blx	r7
 80061e2:	3001      	adds	r0, #1
 80061e4:	f43f af51 	beq.w	800608a <_printf_float+0xc2>
 80061e8:	e9dd 2309 	ldrd	r2, r3, [sp, #36]	; 0x24
 80061ec:	429a      	cmp	r2, r3
 80061ee:	db02      	blt.n	80061f6 <_printf_float+0x22e>
 80061f0:	6823      	ldr	r3, [r4, #0]
 80061f2:	07d8      	lsls	r0, r3, #31
 80061f4:	d510      	bpl.n	8006218 <_printf_float+0x250>
 80061f6:	ee18 3a10 	vmov	r3, s16
 80061fa:	4652      	mov	r2, sl
 80061fc:	4631      	mov	r1, r6
 80061fe:	4628      	mov	r0, r5
 8006200:	47b8      	blx	r7
 8006202:	3001      	adds	r0, #1
 8006204:	f43f af41 	beq.w	800608a <_printf_float+0xc2>
 8006208:	f04f 0800 	mov.w	r8, #0
 800620c:	f104 091a 	add.w	r9, r4, #26
 8006210:	9b0a      	ldr	r3, [sp, #40]	; 0x28
 8006212:	3b01      	subs	r3, #1
 8006214:	4543      	cmp	r3, r8
 8006216:	dc09      	bgt.n	800622c <_printf_float+0x264>
 8006218:	6823      	ldr	r3, [r4, #0]
 800621a:	079b      	lsls	r3, r3, #30
 800621c:	f100 8105 	bmi.w	800642a <_printf_float+0x462>
 8006220:	68e0      	ldr	r0, [r4, #12]
 8006222:	9b0b      	ldr	r3, [sp, #44]	; 0x2c
 8006224:	4298      	cmp	r0, r3
 8006226:	bfb8      	it	lt
 8006228:	4618      	movlt	r0, r3
 800622a:	e730      	b.n	800608e <_printf_float+0xc6>
 800622c:	2301      	movs	r3, #1
 800622e:	464a      	mov	r2, r9
 8006230:	4631      	mov	r1, r6
 8006232:	4628      	mov	r0, r5
 8006234:	47b8      	blx	r7
 8006236:	3001      	adds	r0, #1
 8006238:	f43f af27 	beq.w	800608a <_printf_float+0xc2>
 800623c:	f108 0801 	add.w	r8, r8, #1
 8006240:	e7e6      	b.n	8006210 <_printf_float+0x248>
 8006242:	9b09      	ldr	r3, [sp, #36]	; 0x24
 8006244:	2b00      	cmp	r3, #0
 8006246:	dc39      	bgt.n	80062bc <_printf_float+0x2f4>
 8006248:	4a1b      	ldr	r2, [pc, #108]	; (80062b8 <_printf_float+0x2f0>)
 800624a:	2301      	movs	r3, #1
 800624c:	4631      	mov	r1, r6
 800624e:	4628      	mov	r0, r5
 8006250:	47b8      	blx	r7
 8006252:	3001      	adds	r0, #1
 8006254:	f43f af19 	beq.w	800608a <_printf_float+0xc2>
 8006258:	e9dd 2309 	ldrd	r2, r3, [sp, #36]	; 0x24
 800625c:	4313      	orrs	r3, r2
 800625e:	d102      	bne.n	8006266 <_printf_float+0x29e>
 8006260:	6823      	ldr	r3, [r4, #0]
 8006262:	07d9      	lsls	r1, r3, #31
 8006264:	d5d8      	bpl.n	8006218 <_printf_float+0x250>
 8006266:	ee18 3a10 	vmov	r3, s16
 800626a:	4652      	mov	r2, sl
 800626c:	4631      	mov	r1, r6
 800626e:	4628      	mov	r0, r5
 8006270:	47b8      	blx	r7
 8006272:	3001      	adds	r0, #1
 8006274:	f43f af09 	beq.w	800608a <_printf_float+0xc2>
 8006278:	f04f 0900 	mov.w	r9, #0
 800627c:	f104 0a1a 	add.w	sl, r4, #26
 8006280:	9b09      	ldr	r3, [sp, #36]	; 0x24
 8006282:	425b      	negs	r3, r3
 8006284:	454b      	cmp	r3, r9
 8006286:	dc01      	bgt.n	800628c <_printf_float+0x2c4>
 8006288:	9b0a      	ldr	r3, [sp, #40]	; 0x28
 800628a:	e792      	b.n	80061b2 <_printf_float+0x1ea>
 800628c:	2301      	movs	r3, #1
 800628e:	4652      	mov	r2, sl
 8006290:	4631      	mov	r1, r6
 8006292:	4628      	mov	r0, r5
 8006294:	47b8      	blx	r7
 8006296:	3001      	adds	r0, #1
 8006298:	f43f aef7 	beq.w	800608a <_printf_float+0xc2>
 800629c:	f109 0901 	add.w	r9, r9, #1
 80062a0:	e7ee      	b.n	8006280 <_printf_float+0x2b8>
 80062a2:	bf00      	nop
 80062a4:	7fefffff 	.word	0x7fefffff
 80062a8:	08008c80 	.word	0x08008c80
 80062ac:	08008c84 	.word	0x08008c84
 80062b0:	08008c8c 	.word	0x08008c8c
 80062b4:	08008c88 	.word	0x08008c88
 80062b8:	08008c90 	.word	0x08008c90
 80062bc:	9a0a      	ldr	r2, [sp, #40]	; 0x28
 80062be:	6da3      	ldr	r3, [r4, #88]	; 0x58
 80062c0:	429a      	cmp	r2, r3
 80062c2:	bfa8      	it	ge
 80062c4:	461a      	movge	r2, r3
 80062c6:	2a00      	cmp	r2, #0
 80062c8:	4691      	mov	r9, r2
 80062ca:	dc37      	bgt.n	800633c <_printf_float+0x374>
 80062cc:	f04f 0b00 	mov.w	fp, #0
 80062d0:	ea29 79e9 	bic.w	r9, r9, r9, asr #31
 80062d4:	f104 021a 	add.w	r2, r4, #26
 80062d8:	6da3      	ldr	r3, [r4, #88]	; 0x58
 80062da:	9305      	str	r3, [sp, #20]
 80062dc:	eba3 0309 	sub.w	r3, r3, r9
 80062e0:	455b      	cmp	r3, fp
 80062e2:	dc33      	bgt.n	800634c <_printf_float+0x384>
 80062e4:	e9dd 2309 	ldrd	r2, r3, [sp, #36]	; 0x24
 80062e8:	429a      	cmp	r2, r3
 80062ea:	db3b      	blt.n	8006364 <_printf_float+0x39c>
 80062ec:	6823      	ldr	r3, [r4, #0]
 80062ee:	07da      	lsls	r2, r3, #31
 80062f0:	d438      	bmi.n	8006364 <_printf_float+0x39c>
 80062f2:	9a0a      	ldr	r2, [sp, #40]	; 0x28
 80062f4:	9b05      	ldr	r3, [sp, #20]
 80062f6:	9909      	ldr	r1, [sp, #36]	; 0x24
 80062f8:	1ad3      	subs	r3, r2, r3
 80062fa:	eba2 0901 	sub.w	r9, r2, r1
 80062fe:	4599      	cmp	r9, r3
 8006300:	bfa8      	it	ge
 8006302:	4699      	movge	r9, r3
 8006304:	f1b9 0f00 	cmp.w	r9, #0
 8006308:	dc35      	bgt.n	8006376 <_printf_float+0x3ae>
 800630a:	f04f 0800 	mov.w	r8, #0
 800630e:	ea29 79e9 	bic.w	r9, r9, r9, asr #31
 8006312:	f104 0a1a 	add.w	sl, r4, #26
 8006316:	e9dd 2309 	ldrd	r2, r3, [sp, #36]	; 0x24
 800631a:	1a9b      	subs	r3, r3, r2
 800631c:	eba3 0309 	sub.w	r3, r3, r9
 8006320:	4543      	cmp	r3, r8
 8006322:	f77f af79 	ble.w	8006218 <_printf_float+0x250>
 8006326:	2301      	movs	r3, #1
 8006328:	4652      	mov	r2, sl
 800632a:	4631      	mov	r1, r6
 800632c:	4628      	mov	r0, r5
 800632e:	47b8      	blx	r7
 8006330:	3001      	adds	r0, #1
 8006332:	f43f aeaa 	beq.w	800608a <_printf_float+0xc2>
 8006336:	f108 0801 	add.w	r8, r8, #1
 800633a:	e7ec      	b.n	8006316 <_printf_float+0x34e>
 800633c:	4613      	mov	r3, r2
 800633e:	4631      	mov	r1, r6
 8006340:	4642      	mov	r2, r8
 8006342:	4628      	mov	r0, r5
 8006344:	47b8      	blx	r7
 8006346:	3001      	adds	r0, #1
 8006348:	d1c0      	bne.n	80062cc <_printf_float+0x304>
 800634a:	e69e      	b.n	800608a <_printf_float+0xc2>
 800634c:	2301      	movs	r3, #1
 800634e:	4631      	mov	r1, r6
 8006350:	4628      	mov	r0, r5
 8006352:	9205      	str	r2, [sp, #20]
 8006354:	47b8      	blx	r7
 8006356:	3001      	adds	r0, #1
 8006358:	f43f ae97 	beq.w	800608a <_printf_float+0xc2>
 800635c:	9a05      	ldr	r2, [sp, #20]
 800635e:	f10b 0b01 	add.w	fp, fp, #1
 8006362:	e7b9      	b.n	80062d8 <_printf_float+0x310>
 8006364:	ee18 3a10 	vmov	r3, s16
 8006368:	4652      	mov	r2, sl
 800636a:	4631      	mov	r1, r6
 800636c:	4628      	mov	r0, r5
 800636e:	47b8      	blx	r7
 8006370:	3001      	adds	r0, #1
 8006372:	d1be      	bne.n	80062f2 <_printf_float+0x32a>
 8006374:	e689      	b.n	800608a <_printf_float+0xc2>
 8006376:	9a05      	ldr	r2, [sp, #20]
 8006378:	464b      	mov	r3, r9
 800637a:	4442      	add	r2, r8
 800637c:	4631      	mov	r1, r6
 800637e:	4628      	mov	r0, r5
 8006380:	47b8      	blx	r7
 8006382:	3001      	adds	r0, #1
 8006384:	d1c1      	bne.n	800630a <_printf_float+0x342>
 8006386:	e680      	b.n	800608a <_printf_float+0xc2>
 8006388:	9a0a      	ldr	r2, [sp, #40]	; 0x28
 800638a:	2a01      	cmp	r2, #1
 800638c:	dc01      	bgt.n	8006392 <_printf_float+0x3ca>
 800638e:	07db      	lsls	r3, r3, #31
 8006390:	d538      	bpl.n	8006404 <_printf_float+0x43c>
 8006392:	2301      	movs	r3, #1
 8006394:	4642      	mov	r2, r8
 8006396:	4631      	mov	r1, r6
 8006398:	4628      	mov	r0, r5
 800639a:	47b8      	blx	r7
 800639c:	3001      	adds	r0, #1
 800639e:	f43f ae74 	beq.w	800608a <_printf_float+0xc2>
 80063a2:	ee18 3a10 	vmov	r3, s16
 80063a6:	4652      	mov	r2, sl
 80063a8:	4631      	mov	r1, r6
 80063aa:	4628      	mov	r0, r5
 80063ac:	47b8      	blx	r7
 80063ae:	3001      	adds	r0, #1
 80063b0:	f43f ae6b 	beq.w	800608a <_printf_float+0xc2>
 80063b4:	e9d4 0112 	ldrd	r0, r1, [r4, #72]	; 0x48
 80063b8:	2200      	movs	r2, #0
 80063ba:	2300      	movs	r3, #0
 80063bc:	f7fa fba4 	bl	8000b08 <__aeabi_dcmpeq>
 80063c0:	b9d8      	cbnz	r0, 80063fa <_printf_float+0x432>
 80063c2:	9b0a      	ldr	r3, [sp, #40]	; 0x28
 80063c4:	f108 0201 	add.w	r2, r8, #1
 80063c8:	3b01      	subs	r3, #1
 80063ca:	4631      	mov	r1, r6
 80063cc:	4628      	mov	r0, r5
 80063ce:	47b8      	blx	r7
 80063d0:	3001      	adds	r0, #1
 80063d2:	d10e      	bne.n	80063f2 <_printf_float+0x42a>
 80063d4:	e659      	b.n	800608a <_printf_float+0xc2>
 80063d6:	2301      	movs	r3, #1
 80063d8:	4652      	mov	r2, sl
 80063da:	4631      	mov	r1, r6
 80063dc:	4628      	mov	r0, r5
 80063de:	47b8      	blx	r7
 80063e0:	3001      	adds	r0, #1
 80063e2:	f43f ae52 	beq.w	800608a <_printf_float+0xc2>
 80063e6:	f108 0801 	add.w	r8, r8, #1
 80063ea:	9b0a      	ldr	r3, [sp, #40]	; 0x28
 80063ec:	3b01      	subs	r3, #1
 80063ee:	4543      	cmp	r3, r8
 80063f0:	dcf1      	bgt.n	80063d6 <_printf_float+0x40e>
 80063f2:	464b      	mov	r3, r9
 80063f4:	f104 0250 	add.w	r2, r4, #80	; 0x50
 80063f8:	e6dc      	b.n	80061b4 <_printf_float+0x1ec>
 80063fa:	f04f 0800 	mov.w	r8, #0
 80063fe:	f104 0a1a 	add.w	sl, r4, #26
 8006402:	e7f2      	b.n	80063ea <_printf_float+0x422>
 8006404:	2301      	movs	r3, #1
 8006406:	4642      	mov	r2, r8
 8006408:	e7df      	b.n	80063ca <_printf_float+0x402>
 800640a:	2301      	movs	r3, #1
 800640c:	464a      	mov	r2, r9
 800640e:	4631      	mov	r1, r6
 8006410:	4628      	mov	r0, r5
 8006412:	47b8      	blx	r7
 8006414:	3001      	adds	r0, #1
 8006416:	f43f ae38 	beq.w	800608a <_printf_float+0xc2>
 800641a:	f108 0801 	add.w	r8, r8, #1
 800641e:	68e3      	ldr	r3, [r4, #12]
 8006420:	990b      	ldr	r1, [sp, #44]	; 0x2c
 8006422:	1a5b      	subs	r3, r3, r1
 8006424:	4543      	cmp	r3, r8
 8006426:	dcf0      	bgt.n	800640a <_printf_float+0x442>
 8006428:	e6fa      	b.n	8006220 <_printf_float+0x258>
 800642a:	f04f 0800 	mov.w	r8, #0
 800642e:	f104 0919 	add.w	r9, r4, #25
 8006432:	e7f4      	b.n	800641e <_printf_float+0x456>

08006434 <_printf_common>:
 8006434:	e92d 47f0 	stmdb	sp!, {r4, r5, r6, r7, r8, r9, sl, lr}
 8006438:	4616      	mov	r6, r2
 800643a:	4699      	mov	r9, r3
 800643c:	688a      	ldr	r2, [r1, #8]
 800643e:	690b      	ldr	r3, [r1, #16]
 8006440:	f8dd 8020 	ldr.w	r8, [sp, #32]
 8006444:	4293      	cmp	r3, r2
 8006446:	bfb8      	it	lt
 8006448:	4613      	movlt	r3, r2
 800644a:	6033      	str	r3, [r6, #0]
 800644c:	f891 2043 	ldrb.w	r2, [r1, #67]	; 0x43
 8006450:	4607      	mov	r7, r0
 8006452:	460c      	mov	r4, r1
 8006454:	b10a      	cbz	r2, 800645a <_printf_common+0x26>
 8006456:	3301      	adds	r3, #1
 8006458:	6033      	str	r3, [r6, #0]
 800645a:	6823      	ldr	r3, [r4, #0]
 800645c:	0699      	lsls	r1, r3, #26
 800645e:	bf42      	ittt	mi
 8006460:	6833      	ldrmi	r3, [r6, #0]
 8006462:	3302      	addmi	r3, #2
 8006464:	6033      	strmi	r3, [r6, #0]
 8006466:	6825      	ldr	r5, [r4, #0]
 8006468:	f015 0506 	ands.w	r5, r5, #6
 800646c:	d106      	bne.n	800647c <_printf_common+0x48>
 800646e:	f104 0a19 	add.w	sl, r4, #25
 8006472:	68e3      	ldr	r3, [r4, #12]
 8006474:	6832      	ldr	r2, [r6, #0]
 8006476:	1a9b      	subs	r3, r3, r2
 8006478:	42ab      	cmp	r3, r5
 800647a:	dc26      	bgt.n	80064ca <_printf_common+0x96>
 800647c:	f894 2043 	ldrb.w	r2, [r4, #67]	; 0x43
 8006480:	1e13      	subs	r3, r2, #0
 8006482:	6822      	ldr	r2, [r4, #0]
 8006484:	bf18      	it	ne
 8006486:	2301      	movne	r3, #1
 8006488:	0692      	lsls	r2, r2, #26
 800648a:	d42b      	bmi.n	80064e4 <_printf_common+0xb0>
 800648c:	f104 0243 	add.w	r2, r4, #67	; 0x43
 8006490:	4649      	mov	r1, r9
 8006492:	4638      	mov	r0, r7
 8006494:	47c0      	blx	r8
 8006496:	3001      	adds	r0, #1
 8006498:	d01e      	beq.n	80064d8 <_printf_common+0xa4>
 800649a:	6823      	ldr	r3, [r4, #0]
 800649c:	68e5      	ldr	r5, [r4, #12]
 800649e:	6832      	ldr	r2, [r6, #0]
 80064a0:	f003 0306 	and.w	r3, r3, #6
 80064a4:	2b04      	cmp	r3, #4
 80064a6:	bf08      	it	eq
 80064a8:	1aad      	subeq	r5, r5, r2
 80064aa:	68a3      	ldr	r3, [r4, #8]
 80064ac:	6922      	ldr	r2, [r4, #16]
 80064ae:	bf0c      	ite	eq
 80064b0:	ea25 75e5 	biceq.w	r5, r5, r5, asr #31
 80064b4:	2500      	movne	r5, #0
 80064b6:	4293      	cmp	r3, r2
 80064b8:	bfc4      	itt	gt
 80064ba:	1a9b      	subgt	r3, r3, r2
 80064bc:	18ed      	addgt	r5, r5, r3
 80064be:	2600      	movs	r6, #0
 80064c0:	341a      	adds	r4, #26
 80064c2:	42b5      	cmp	r5, r6
 80064c4:	d11a      	bne.n	80064fc <_printf_common+0xc8>
 80064c6:	2000      	movs	r0, #0
 80064c8:	e008      	b.n	80064dc <_printf_common+0xa8>
 80064ca:	2301      	movs	r3, #1
 80064cc:	4652      	mov	r2, sl
 80064ce:	4649      	mov	r1, r9
 80064d0:	4638      	mov	r0, r7
 80064d2:	47c0      	blx	r8
 80064d4:	3001      	adds	r0, #1
 80064d6:	d103      	bne.n	80064e0 <_printf_common+0xac>
 80064d8:	f04f 30ff 	mov.w	r0, #4294967295	; 0xffffffff
 80064dc:	e8bd 87f0 	ldmia.w	sp!, {r4, r5, r6, r7, r8, r9, sl, pc}
 80064e0:	3501      	adds	r5, #1
 80064e2:	e7c6      	b.n	8006472 <_printf_common+0x3e>
 80064e4:	18e1      	adds	r1, r4, r3
 80064e6:	1c5a      	adds	r2, r3, #1
 80064e8:	2030      	movs	r0, #48	; 0x30
 80064ea:	f881 0043 	strb.w	r0, [r1, #67]	; 0x43
 80064ee:	4422      	add	r2, r4
 80064f0:	f894 1045 	ldrb.w	r1, [r4, #69]	; 0x45
 80064f4:	f882 1043 	strb.w	r1, [r2, #67]	; 0x43
 80064f8:	3302      	adds	r3, #2
 80064fa:	e7c7      	b.n	800648c <_printf_common+0x58>
 80064fc:	2301      	movs	r3, #1
 80064fe:	4622      	mov	r2, r4
 8006500:	4649      	mov	r1, r9
 8006502:	4638      	mov	r0, r7
 8006504:	47c0      	blx	r8
 8006506:	3001      	adds	r0, #1
 8006508:	d0e6      	beq.n	80064d8 <_printf_common+0xa4>
 800650a:	3601      	adds	r6, #1
 800650c:	e7d9      	b.n	80064c2 <_printf_common+0x8e>
	...

08006510 <_printf_i>:
 8006510:	e92d 47ff 	stmdb	sp!, {r0, r1, r2, r3, r4, r5, r6, r7, r8, r9, sl, lr}
 8006514:	460c      	mov	r4, r1
 8006516:	4691      	mov	r9, r2
 8006518:	7e27      	ldrb	r7, [r4, #24]
 800651a:	990c      	ldr	r1, [sp, #48]	; 0x30
 800651c:	2f78      	cmp	r7, #120	; 0x78
 800651e:	4680      	mov	r8, r0
 8006520:	469a      	mov	sl, r3
 8006522:	f104 0243 	add.w	r2, r4, #67	; 0x43
 8006526:	d807      	bhi.n	8006538 <_printf_i+0x28>
 8006528:	2f62      	cmp	r7, #98	; 0x62
 800652a:	d80a      	bhi.n	8006542 <_printf_i+0x32>
 800652c:	2f00      	cmp	r7, #0
 800652e:	f000 80d8 	beq.w	80066e2 <_printf_i+0x1d2>
 8006532:	2f58      	cmp	r7, #88	; 0x58
 8006534:	f000 80a3 	beq.w	800667e <_printf_i+0x16e>
 8006538:	f104 0642 	add.w	r6, r4, #66	; 0x42
 800653c:	f884 7042 	strb.w	r7, [r4, #66]	; 0x42
 8006540:	e03a      	b.n	80065b8 <_printf_i+0xa8>
 8006542:	f1a7 0363 	sub.w	r3, r7, #99	; 0x63
 8006546:	2b15      	cmp	r3, #21
 8006548:	d8f6      	bhi.n	8006538 <_printf_i+0x28>
 800654a:	a001      	add	r0, pc, #4	; (adr r0, 8006550 <_printf_i+0x40>)
 800654c:	f850 f023 	ldr.w	pc, [r0, r3, lsl #2]
 8006550:	080065a9 	.word	0x080065a9
 8006554:	080065bd 	.word	0x080065bd
 8006558:	08006539 	.word	0x08006539
 800655c:	08006539 	.word	0x08006539
 8006560:	08006539 	.word	0x08006539
 8006564:	08006539 	.word	0x08006539
 8006568:	080065bd 	.word	0x080065bd
 800656c:	08006539 	.word	0x08006539
 8006570:	08006539 	.word	0x08006539
 8006574:	08006539 	.word	0x08006539
 8006578:	08006539 	.word	0x08006539
 800657c:	080066c9 	.word	0x080066c9
 8006580:	080065ed 	.word	0x080065ed
 8006584:	080066ab 	.word	0x080066ab
 8006588:	08006539 	.word	0x08006539
 800658c:	08006539 	.word	0x08006539
 8006590:	080066eb 	.word	0x080066eb
 8006594:	08006539 	.word	0x08006539
 8006598:	080065ed 	.word	0x080065ed
 800659c:	08006539 	.word	0x08006539
 80065a0:	08006539 	.word	0x08006539
 80065a4:	080066b3 	.word	0x080066b3
 80065a8:	680b      	ldr	r3, [r1, #0]
 80065aa:	1d1a      	adds	r2, r3, #4
 80065ac:	681b      	ldr	r3, [r3, #0]
 80065ae:	600a      	str	r2, [r1, #0]
 80065b0:	f104 0642 	add.w	r6, r4, #66	; 0x42
 80065b4:	f884 3042 	strb.w	r3, [r4, #66]	; 0x42
 80065b8:	2301      	movs	r3, #1
 80065ba:	e0a3      	b.n	8006704 <_printf_i+0x1f4>
 80065bc:	6825      	ldr	r5, [r4, #0]
 80065be:	6808      	ldr	r0, [r1, #0]
 80065c0:	062e      	lsls	r6, r5, #24
 80065c2:	f100 0304 	add.w	r3, r0, #4
 80065c6:	d50a      	bpl.n	80065de <_printf_i+0xce>
 80065c8:	6805      	ldr	r5, [r0, #0]
 80065ca:	600b      	str	r3, [r1, #0]
 80065cc:	2d00      	cmp	r5, #0
 80065ce:	da03      	bge.n	80065d8 <_printf_i+0xc8>
 80065d0:	232d      	movs	r3, #45	; 0x2d
 80065d2:	426d      	negs	r5, r5
 80065d4:	f884 3043 	strb.w	r3, [r4, #67]	; 0x43
 80065d8:	485e      	ldr	r0, [pc, #376]	; (8006754 <_printf_i+0x244>)
 80065da:	230a      	movs	r3, #10
 80065dc:	e019      	b.n	8006612 <_printf_i+0x102>
 80065de:	f015 0f40 	tst.w	r5, #64	; 0x40
 80065e2:	6805      	ldr	r5, [r0, #0]
 80065e4:	600b      	str	r3, [r1, #0]
 80065e6:	bf18      	it	ne
 80065e8:	b22d      	sxthne	r5, r5
 80065ea:	e7ef      	b.n	80065cc <_printf_i+0xbc>
 80065ec:	680b      	ldr	r3, [r1, #0]
 80065ee:	6825      	ldr	r5, [r4, #0]
 80065f0:	1d18      	adds	r0, r3, #4
 80065f2:	6008      	str	r0, [r1, #0]
 80065f4:	0628      	lsls	r0, r5, #24
 80065f6:	d501      	bpl.n	80065fc <_printf_i+0xec>
 80065f8:	681d      	ldr	r5, [r3, #0]
 80065fa:	e002      	b.n	8006602 <_printf_i+0xf2>
 80065fc:	0669      	lsls	r1, r5, #25
 80065fe:	d5fb      	bpl.n	80065f8 <_printf_i+0xe8>
 8006600:	881d      	ldrh	r5, [r3, #0]
 8006602:	4854      	ldr	r0, [pc, #336]	; (8006754 <_printf_i+0x244>)
 8006604:	2f6f      	cmp	r7, #111	; 0x6f
 8006606:	bf0c      	ite	eq
 8006608:	2308      	moveq	r3, #8
 800660a:	230a      	movne	r3, #10
 800660c:	2100      	movs	r1, #0
 800660e:	f884 1043 	strb.w	r1, [r4, #67]	; 0x43
 8006612:	6866      	ldr	r6, [r4, #4]
 8006614:	60a6      	str	r6, [r4, #8]
 8006616:	2e00      	cmp	r6, #0
 8006618:	bfa2      	ittt	ge
 800661a:	6821      	ldrge	r1, [r4, #0]
 800661c:	f021 0104 	bicge.w	r1, r1, #4
 8006620:	6021      	strge	r1, [r4, #0]
 8006622:	b90d      	cbnz	r5, 8006628 <_printf_i+0x118>
 8006624:	2e00      	cmp	r6, #0
 8006626:	d04d      	beq.n	80066c4 <_printf_i+0x1b4>
 8006628:	4616      	mov	r6, r2
 800662a:	fbb5 f1f3 	udiv	r1, r5, r3
 800662e:	fb03 5711 	mls	r7, r3, r1, r5
 8006632:	5dc7      	ldrb	r7, [r0, r7]
 8006634:	f806 7d01 	strb.w	r7, [r6, #-1]!
 8006638:	462f      	mov	r7, r5
 800663a:	42bb      	cmp	r3, r7
 800663c:	460d      	mov	r5, r1
 800663e:	d9f4      	bls.n	800662a <_printf_i+0x11a>
 8006640:	2b08      	cmp	r3, #8
 8006642:	d10b      	bne.n	800665c <_printf_i+0x14c>
 8006644:	6823      	ldr	r3, [r4, #0]
 8006646:	07df      	lsls	r7, r3, #31
 8006648:	d508      	bpl.n	800665c <_printf_i+0x14c>
 800664a:	6923      	ldr	r3, [r4, #16]
 800664c:	6861      	ldr	r1, [r4, #4]
 800664e:	4299      	cmp	r1, r3
 8006650:	bfde      	ittt	le
 8006652:	2330      	movle	r3, #48	; 0x30
 8006654:	f806 3c01 	strble.w	r3, [r6, #-1]
 8006658:	f106 36ff 	addle.w	r6, r6, #4294967295	; 0xffffffff
 800665c:	1b92      	subs	r2, r2, r6
 800665e:	6122      	str	r2, [r4, #16]
 8006660:	f8cd a000 	str.w	sl, [sp]
 8006664:	464b      	mov	r3, r9
 8006666:	aa03      	add	r2, sp, #12
 8006668:	4621      	mov	r1, r4
 800666a:	4640      	mov	r0, r8
 800666c:	f7ff fee2 	bl	8006434 <_printf_common>
 8006670:	3001      	adds	r0, #1
 8006672:	d14c      	bne.n	800670e <_printf_i+0x1fe>
 8006674:	f04f 30ff 	mov.w	r0, #4294967295	; 0xffffffff
 8006678:	b004      	add	sp, #16
 800667a:	e8bd 87f0 	ldmia.w	sp!, {r4, r5, r6, r7, r8, r9, sl, pc}
 800667e:	4835      	ldr	r0, [pc, #212]	; (8006754 <_printf_i+0x244>)
 8006680:	f884 7045 	strb.w	r7, [r4, #69]	; 0x45
 8006684:	6823      	ldr	r3, [r4, #0]
 8006686:	680e      	ldr	r6, [r1, #0]
 8006688:	061f      	lsls	r7, r3, #24
 800668a:	f856 5b04 	ldr.w	r5, [r6], #4
 800668e:	600e      	str	r6, [r1, #0]
 8006690:	d514      	bpl.n	80066bc <_printf_i+0x1ac>
 8006692:	07d9      	lsls	r1, r3, #31
 8006694:	bf44      	itt	mi
 8006696:	f043 0320 	orrmi.w	r3, r3, #32
 800669a:	6023      	strmi	r3, [r4, #0]
 800669c:	b91d      	cbnz	r5, 80066a6 <_printf_i+0x196>
 800669e:	6823      	ldr	r3, [r4, #0]
 80066a0:	f023 0320 	bic.w	r3, r3, #32
 80066a4:	6023      	str	r3, [r4, #0]
 80066a6:	2310      	movs	r3, #16
 80066a8:	e7b0      	b.n	800660c <_printf_i+0xfc>
 80066aa:	6823      	ldr	r3, [r4, #0]
 80066ac:	f043 0320 	orr.w	r3, r3, #32
 80066b0:	6023      	str	r3, [r4, #0]
 80066b2:	2378      	movs	r3, #120	; 0x78
 80066b4:	4828      	ldr	r0, [pc, #160]	; (8006758 <_printf_i+0x248>)
 80066b6:	f884 3045 	strb.w	r3, [r4, #69]	; 0x45
 80066ba:	e7e3      	b.n	8006684 <_printf_i+0x174>
 80066bc:	065e      	lsls	r6, r3, #25
 80066be:	bf48      	it	mi
 80066c0:	b2ad      	uxthmi	r5, r5
 80066c2:	e7e6      	b.n	8006692 <_printf_i+0x182>
 80066c4:	4616      	mov	r6, r2
 80066c6:	e7bb      	b.n	8006640 <_printf_i+0x130>
 80066c8:	680b      	ldr	r3, [r1, #0]
 80066ca:	6826      	ldr	r6, [r4, #0]
 80066cc:	6960      	ldr	r0, [r4, #20]
 80066ce:	1d1d      	adds	r5, r3, #4
 80066d0:	600d      	str	r5, [r1, #0]
 80066d2:	0635      	lsls	r5, r6, #24
 80066d4:	681b      	ldr	r3, [r3, #0]
 80066d6:	d501      	bpl.n	80066dc <_printf_i+0x1cc>
 80066d8:	6018      	str	r0, [r3, #0]
 80066da:	e002      	b.n	80066e2 <_printf_i+0x1d2>
 80066dc:	0671      	lsls	r1, r6, #25
 80066de:	d5fb      	bpl.n	80066d8 <_printf_i+0x1c8>
 80066e0:	8018      	strh	r0, [r3, #0]
 80066e2:	2300      	movs	r3, #0
 80066e4:	6123      	str	r3, [r4, #16]
 80066e6:	4616      	mov	r6, r2
 80066e8:	e7ba      	b.n	8006660 <_printf_i+0x150>
 80066ea:	680b      	ldr	r3, [r1, #0]
 80066ec:	1d1a      	adds	r2, r3, #4
 80066ee:	600a      	str	r2, [r1, #0]
 80066f0:	681e      	ldr	r6, [r3, #0]
 80066f2:	6862      	ldr	r2, [r4, #4]
 80066f4:	2100      	movs	r1, #0
 80066f6:	4630      	mov	r0, r6
 80066f8:	f7f9 fd92 	bl	8000220 <memchr>
 80066fc:	b108      	cbz	r0, 8006702 <_printf_i+0x1f2>
 80066fe:	1b80      	subs	r0, r0, r6
 8006700:	6060      	str	r0, [r4, #4]
 8006702:	6863      	ldr	r3, [r4, #4]
 8006704:	6123      	str	r3, [r4, #16]
 8006706:	2300      	movs	r3, #0
 8006708:	f884 3043 	strb.w	r3, [r4, #67]	; 0x43
 800670c:	e7a8      	b.n	8006660 <_printf_i+0x150>
 800670e:	6923      	ldr	r3, [r4, #16]
 8006710:	4632      	mov	r2, r6
 8006712:	4649      	mov	r1, r9
 8006714:	4640      	mov	r0, r8
 8006716:	47d0      	blx	sl
 8006718:	3001      	adds	r0, #1
 800671a:	d0ab      	beq.n	8006674 <_printf_i+0x164>
 800671c:	6823      	ldr	r3, [r4, #0]
 800671e:	079b      	lsls	r3, r3, #30
 8006720:	d413      	bmi.n	800674a <_printf_i+0x23a>
 8006722:	68e0      	ldr	r0, [r4, #12]
 8006724:	9b03      	ldr	r3, [sp, #12]
 8006726:	4298      	cmp	r0, r3
 8006728:	bfb8      	it	lt
 800672a:	4618      	movlt	r0, r3
 800672c:	e7a4      	b.n	8006678 <_printf_i+0x168>
 800672e:	2301      	movs	r3, #1
 8006730:	4632      	mov	r2, r6
 8006732:	4649      	mov	r1, r9
 8006734:	4640      	mov	r0, r8
 8006736:	47d0      	blx	sl
 8006738:	3001      	adds	r0, #1
 800673a:	d09b      	beq.n	8006674 <_printf_i+0x164>
 800673c:	3501      	adds	r5, #1
 800673e:	68e3      	ldr	r3, [r4, #12]
 8006740:	9903      	ldr	r1, [sp, #12]
 8006742:	1a5b      	subs	r3, r3, r1
 8006744:	42ab      	cmp	r3, r5
 8006746:	dcf2      	bgt.n	800672e <_printf_i+0x21e>
 8006748:	e7eb      	b.n	8006722 <_printf_i+0x212>
 800674a:	2500      	movs	r5, #0
 800674c:	f104 0619 	add.w	r6, r4, #25
 8006750:	e7f5      	b.n	800673e <_printf_i+0x22e>
 8006752:	bf00      	nop
 8006754:	08008c92 	.word	0x08008c92
 8006758:	08008ca3 	.word	0x08008ca3

0800675c <siprintf>:
 800675c:	b40e      	push	{r1, r2, r3}
 800675e:	b500      	push	{lr}
 8006760:	b09c      	sub	sp, #112	; 0x70
 8006762:	ab1d      	add	r3, sp, #116	; 0x74
 8006764:	9002      	str	r0, [sp, #8]
 8006766:	9006      	str	r0, [sp, #24]
 8006768:	f06f 4100 	mvn.w	r1, #2147483648	; 0x80000000
 800676c:	4809      	ldr	r0, [pc, #36]	; (8006794 <siprintf+0x38>)
 800676e:	9107      	str	r1, [sp, #28]
 8006770:	9104      	str	r1, [sp, #16]
 8006772:	4909      	ldr	r1, [pc, #36]	; (8006798 <siprintf+0x3c>)
 8006774:	f853 2b04 	ldr.w	r2, [r3], #4
 8006778:	9105      	str	r1, [sp, #20]
 800677a:	6800      	ldr	r0, [r0, #0]
 800677c:	9301      	str	r3, [sp, #4]
 800677e:	a902      	add	r1, sp, #8
 8006780:	f001 fb34 	bl	8007dec <_svfiprintf_r>
 8006784:	9b02      	ldr	r3, [sp, #8]
 8006786:	2200      	movs	r2, #0
 8006788:	701a      	strb	r2, [r3, #0]
 800678a:	b01c      	add	sp, #112	; 0x70
 800678c:	f85d eb04 	ldr.w	lr, [sp], #4
 8006790:	b003      	add	sp, #12
 8006792:	4770      	bx	lr
 8006794:	20000024 	.word	0x20000024
 8006798:	ffff0208 	.word	0xffff0208

0800679c <quorem>:
 800679c:	e92d 4ff7 	stmdb	sp!, {r0, r1, r2, r4, r5, r6, r7, r8, r9, sl, fp, lr}
 80067a0:	6903      	ldr	r3, [r0, #16]
 80067a2:	690c      	ldr	r4, [r1, #16]
 80067a4:	42a3      	cmp	r3, r4
 80067a6:	4607      	mov	r7, r0
 80067a8:	f2c0 8081 	blt.w	80068ae <quorem+0x112>
 80067ac:	3c01      	subs	r4, #1
 80067ae:	f101 0814 	add.w	r8, r1, #20
 80067b2:	f100 0514 	add.w	r5, r0, #20
 80067b6:	eb05 0384 	add.w	r3, r5, r4, lsl #2
 80067ba:	9301      	str	r3, [sp, #4]
 80067bc:	f858 3024 	ldr.w	r3, [r8, r4, lsl #2]
 80067c0:	f855 2024 	ldr.w	r2, [r5, r4, lsl #2]
 80067c4:	3301      	adds	r3, #1
 80067c6:	429a      	cmp	r2, r3
 80067c8:	ea4f 0b84 	mov.w	fp, r4, lsl #2
 80067cc:	eb08 0984 	add.w	r9, r8, r4, lsl #2
 80067d0:	fbb2 f6f3 	udiv	r6, r2, r3
 80067d4:	d331      	bcc.n	800683a <quorem+0x9e>
 80067d6:	f04f 0e00 	mov.w	lr, #0
 80067da:	4640      	mov	r0, r8
 80067dc:	46ac      	mov	ip, r5
 80067de:	46f2      	mov	sl, lr
 80067e0:	f850 2b04 	ldr.w	r2, [r0], #4
 80067e4:	b293      	uxth	r3, r2
 80067e6:	fb06 e303 	mla	r3, r6, r3, lr
 80067ea:	ea4f 4e13 	mov.w	lr, r3, lsr #16
 80067ee:	b29b      	uxth	r3, r3
 80067f0:	ebaa 0303 	sub.w	r3, sl, r3
 80067f4:	0c12      	lsrs	r2, r2, #16
 80067f6:	f8dc a000 	ldr.w	sl, [ip]
 80067fa:	fb06 e202 	mla	r2, r6, r2, lr
 80067fe:	fa13 f38a 	uxtah	r3, r3, sl
 8006802:	ea4f 4e12 	mov.w	lr, r2, lsr #16
 8006806:	fa1f fa82 	uxth.w	sl, r2
 800680a:	f8dc 2000 	ldr.w	r2, [ip]
 800680e:	ebca 4212 	rsb	r2, sl, r2, lsr #16
 8006812:	eb02 4223 	add.w	r2, r2, r3, asr #16
 8006816:	b29b      	uxth	r3, r3
 8006818:	ea43 4302 	orr.w	r3, r3, r2, lsl #16
 800681c:	4581      	cmp	r9, r0
 800681e:	f84c 3b04 	str.w	r3, [ip], #4
 8006822:	ea4f 4a22 	mov.w	sl, r2, asr #16
 8006826:	d2db      	bcs.n	80067e0 <quorem+0x44>
 8006828:	f855 300b 	ldr.w	r3, [r5, fp]
 800682c:	b92b      	cbnz	r3, 800683a <quorem+0x9e>
 800682e:	9b01      	ldr	r3, [sp, #4]
 8006830:	3b04      	subs	r3, #4
 8006832:	429d      	cmp	r5, r3
 8006834:	461a      	mov	r2, r3
 8006836:	d32e      	bcc.n	8006896 <quorem+0xfa>
 8006838:	613c      	str	r4, [r7, #16]
 800683a:	4638      	mov	r0, r7
 800683c:	f001 f8c0 	bl	80079c0 <__mcmp>
 8006840:	2800      	cmp	r0, #0
 8006842:	db24      	blt.n	800688e <quorem+0xf2>
 8006844:	3601      	adds	r6, #1
 8006846:	4628      	mov	r0, r5
 8006848:	f04f 0c00 	mov.w	ip, #0
 800684c:	f858 2b04 	ldr.w	r2, [r8], #4
 8006850:	f8d0 e000 	ldr.w	lr, [r0]
 8006854:	b293      	uxth	r3, r2
 8006856:	ebac 0303 	sub.w	r3, ip, r3
 800685a:	0c12      	lsrs	r2, r2, #16
 800685c:	fa13 f38e 	uxtah	r3, r3, lr
 8006860:	ebc2 421e 	rsb	r2, r2, lr, lsr #16
 8006864:	eb02 4223 	add.w	r2, r2, r3, asr #16
 8006868:	b29b      	uxth	r3, r3
 800686a:	ea43 4302 	orr.w	r3, r3, r2, lsl #16
 800686e:	45c1      	cmp	r9, r8
 8006870:	f840 3b04 	str.w	r3, [r0], #4
 8006874:	ea4f 4c22 	mov.w	ip, r2, asr #16
 8006878:	d2e8      	bcs.n	800684c <quorem+0xb0>
 800687a:	f855 2024 	ldr.w	r2, [r5, r4, lsl #2]
 800687e:	eb05 0384 	add.w	r3, r5, r4, lsl #2
 8006882:	b922      	cbnz	r2, 800688e <quorem+0xf2>
 8006884:	3b04      	subs	r3, #4
 8006886:	429d      	cmp	r5, r3
 8006888:	461a      	mov	r2, r3
 800688a:	d30a      	bcc.n	80068a2 <quorem+0x106>
 800688c:	613c      	str	r4, [r7, #16]
 800688e:	4630      	mov	r0, r6
 8006890:	b003      	add	sp, #12
 8006892:	e8bd 8ff0 	ldmia.w	sp!, {r4, r5, r6, r7, r8, r9, sl, fp, pc}
 8006896:	6812      	ldr	r2, [r2, #0]
 8006898:	3b04      	subs	r3, #4
 800689a:	2a00      	cmp	r2, #0
 800689c:	d1cc      	bne.n	8006838 <quorem+0x9c>
 800689e:	3c01      	subs	r4, #1
 80068a0:	e7c7      	b.n	8006832 <quorem+0x96>
 80068a2:	6812      	ldr	r2, [r2, #0]
 80068a4:	3b04      	subs	r3, #4
 80068a6:	2a00      	cmp	r2, #0
 80068a8:	d1f0      	bne.n	800688c <quorem+0xf0>
 80068aa:	3c01      	subs	r4, #1
 80068ac:	e7eb      	b.n	8006886 <quorem+0xea>
 80068ae:	2000      	movs	r0, #0
 80068b0:	e7ee      	b.n	8006890 <quorem+0xf4>
 80068b2:	0000      	movs	r0, r0
 80068b4:	0000      	movs	r0, r0
	...

080068b8 <_dtoa_r>:
 80068b8:	e92d 4ff0 	stmdb	sp!, {r4, r5, r6, r7, r8, r9, sl, fp, lr}
 80068bc:	ed2d 8b02 	vpush	{d8}
 80068c0:	ec57 6b10 	vmov	r6, r7, d0
 80068c4:	b095      	sub	sp, #84	; 0x54
 80068c6:	6a45      	ldr	r5, [r0, #36]	; 0x24
 80068c8:	f8dd 8080 	ldr.w	r8, [sp, #128]	; 0x80
 80068cc:	9105      	str	r1, [sp, #20]
 80068ce:	e9cd 6702 	strd	r6, r7, [sp, #8]
 80068d2:	4604      	mov	r4, r0
 80068d4:	9209      	str	r2, [sp, #36]	; 0x24
 80068d6:	930f      	str	r3, [sp, #60]	; 0x3c
 80068d8:	b975      	cbnz	r5, 80068f8 <_dtoa_r+0x40>
 80068da:	2010      	movs	r0, #16
 80068dc:	f000 fddc 	bl	8007498 <malloc>
 80068e0:	4602      	mov	r2, r0
 80068e2:	6260      	str	r0, [r4, #36]	; 0x24
 80068e4:	b920      	cbnz	r0, 80068f0 <_dtoa_r+0x38>
 80068e6:	4bb2      	ldr	r3, [pc, #712]	; (8006bb0 <_dtoa_r+0x2f8>)
 80068e8:	21ea      	movs	r1, #234	; 0xea
 80068ea:	48b2      	ldr	r0, [pc, #712]	; (8006bb4 <_dtoa_r+0x2fc>)
 80068ec:	f001 fb8e 	bl	800800c <__assert_func>
 80068f0:	e9c0 5501 	strd	r5, r5, [r0, #4]
 80068f4:	6005      	str	r5, [r0, #0]
 80068f6:	60c5      	str	r5, [r0, #12]
 80068f8:	6a63      	ldr	r3, [r4, #36]	; 0x24
 80068fa:	6819      	ldr	r1, [r3, #0]
 80068fc:	b151      	cbz	r1, 8006914 <_dtoa_r+0x5c>
 80068fe:	685a      	ldr	r2, [r3, #4]
 8006900:	604a      	str	r2, [r1, #4]
 8006902:	2301      	movs	r3, #1
 8006904:	4093      	lsls	r3, r2
 8006906:	608b      	str	r3, [r1, #8]
 8006908:	4620      	mov	r0, r4
 800690a:	f000 fe1b 	bl	8007544 <_Bfree>
 800690e:	6a63      	ldr	r3, [r4, #36]	; 0x24
 8006910:	2200      	movs	r2, #0
 8006912:	601a      	str	r2, [r3, #0]
 8006914:	1e3b      	subs	r3, r7, #0
 8006916:	bfb9      	ittee	lt
 8006918:	f023 4300 	biclt.w	r3, r3, #2147483648	; 0x80000000
 800691c:	9303      	strlt	r3, [sp, #12]
 800691e:	2300      	movge	r3, #0
 8006920:	f8c8 3000 	strge.w	r3, [r8]
 8006924:	f8dd 900c 	ldr.w	r9, [sp, #12]
 8006928:	4ba3      	ldr	r3, [pc, #652]	; (8006bb8 <_dtoa_r+0x300>)
 800692a:	bfbc      	itt	lt
 800692c:	2201      	movlt	r2, #1
 800692e:	f8c8 2000 	strlt.w	r2, [r8]
 8006932:	ea33 0309 	bics.w	r3, r3, r9
 8006936:	d11b      	bne.n	8006970 <_dtoa_r+0xb8>
 8006938:	9a0f      	ldr	r2, [sp, #60]	; 0x3c
 800693a:	f242 730f 	movw	r3, #9999	; 0x270f
 800693e:	6013      	str	r3, [r2, #0]
 8006940:	f3c9 0313 	ubfx	r3, r9, #0, #20
 8006944:	4333      	orrs	r3, r6
 8006946:	f000 857a 	beq.w	800743e <_dtoa_r+0xb86>
 800694a:	9b21      	ldr	r3, [sp, #132]	; 0x84
 800694c:	b963      	cbnz	r3, 8006968 <_dtoa_r+0xb0>
 800694e:	4b9b      	ldr	r3, [pc, #620]	; (8006bbc <_dtoa_r+0x304>)
 8006950:	e024      	b.n	800699c <_dtoa_r+0xe4>
 8006952:	4b9b      	ldr	r3, [pc, #620]	; (8006bc0 <_dtoa_r+0x308>)
 8006954:	9300      	str	r3, [sp, #0]
 8006956:	3308      	adds	r3, #8
 8006958:	9a21      	ldr	r2, [sp, #132]	; 0x84
 800695a:	6013      	str	r3, [r2, #0]
 800695c:	9800      	ldr	r0, [sp, #0]
 800695e:	b015      	add	sp, #84	; 0x54
 8006960:	ecbd 8b02 	vpop	{d8}
 8006964:	e8bd 8ff0 	ldmia.w	sp!, {r4, r5, r6, r7, r8, r9, sl, fp, pc}
 8006968:	4b94      	ldr	r3, [pc, #592]	; (8006bbc <_dtoa_r+0x304>)
 800696a:	9300      	str	r3, [sp, #0]
 800696c:	3303      	adds	r3, #3
 800696e:	e7f3      	b.n	8006958 <_dtoa_r+0xa0>
 8006970:	ed9d 7b02 	vldr	d7, [sp, #8]
 8006974:	2200      	movs	r2, #0
 8006976:	ec51 0b17 	vmov	r0, r1, d7
 800697a:	2300      	movs	r3, #0
 800697c:	ed8d 7b0a 	vstr	d7, [sp, #40]	; 0x28
 8006980:	f7fa f8c2 	bl	8000b08 <__aeabi_dcmpeq>
 8006984:	4680      	mov	r8, r0
 8006986:	b158      	cbz	r0, 80069a0 <_dtoa_r+0xe8>
 8006988:	9a0f      	ldr	r2, [sp, #60]	; 0x3c
 800698a:	2301      	movs	r3, #1
 800698c:	6013      	str	r3, [r2, #0]
 800698e:	9b21      	ldr	r3, [sp, #132]	; 0x84
 8006990:	2b00      	cmp	r3, #0
 8006992:	f000 8551 	beq.w	8007438 <_dtoa_r+0xb80>
 8006996:	488b      	ldr	r0, [pc, #556]	; (8006bc4 <_dtoa_r+0x30c>)
 8006998:	6018      	str	r0, [r3, #0]
 800699a:	1e43      	subs	r3, r0, #1
 800699c:	9300      	str	r3, [sp, #0]
 800699e:	e7dd      	b.n	800695c <_dtoa_r+0xa4>
 80069a0:	ed9d 0b0a 	vldr	d0, [sp, #40]	; 0x28
 80069a4:	aa12      	add	r2, sp, #72	; 0x48
 80069a6:	a913      	add	r1, sp, #76	; 0x4c
 80069a8:	4620      	mov	r0, r4
 80069aa:	f001 f8ad 	bl	8007b08 <__d2b>
 80069ae:	f3c9 550a 	ubfx	r5, r9, #20, #11
 80069b2:	4683      	mov	fp, r0
 80069b4:	2d00      	cmp	r5, #0
 80069b6:	d07c      	beq.n	8006ab2 <_dtoa_r+0x1fa>
 80069b8:	9b0b      	ldr	r3, [sp, #44]	; 0x2c
 80069ba:	f8cd 8040 	str.w	r8, [sp, #64]	; 0x40
 80069be:	f3c3 0313 	ubfx	r3, r3, #0, #20
 80069c2:	e9dd 670a 	ldrd	r6, r7, [sp, #40]	; 0x28
 80069c6:	f043 577f 	orr.w	r7, r3, #1069547520	; 0x3fc00000
 80069ca:	f447 1740 	orr.w	r7, r7, #3145728	; 0x300000
 80069ce:	f2a5 35ff 	subw	r5, r5, #1023	; 0x3ff
 80069d2:	4b7d      	ldr	r3, [pc, #500]	; (8006bc8 <_dtoa_r+0x310>)
 80069d4:	2200      	movs	r2, #0
 80069d6:	4630      	mov	r0, r6
 80069d8:	4639      	mov	r1, r7
 80069da:	f7f9 fc75 	bl	80002c8 <__aeabi_dsub>
 80069de:	a36e      	add	r3, pc, #440	; (adr r3, 8006b98 <_dtoa_r+0x2e0>)
 80069e0:	e9d3 2300 	ldrd	r2, r3, [r3]
 80069e4:	f7f9 fe28 	bl	8000638 <__aeabi_dmul>
 80069e8:	a36d      	add	r3, pc, #436	; (adr r3, 8006ba0 <_dtoa_r+0x2e8>)
 80069ea:	e9d3 2300 	ldrd	r2, r3, [r3]
 80069ee:	f7f9 fc6d 	bl	80002cc <__adddf3>
 80069f2:	4606      	mov	r6, r0
 80069f4:	4628      	mov	r0, r5
 80069f6:	460f      	mov	r7, r1
 80069f8:	f7f9 fdb4 	bl	8000564 <__aeabi_i2d>
 80069fc:	a36a      	add	r3, pc, #424	; (adr r3, 8006ba8 <_dtoa_r+0x2f0>)
 80069fe:	e9d3 2300 	ldrd	r2, r3, [r3]
 8006a02:	f7f9 fe19 	bl	8000638 <__aeabi_dmul>
 8006a06:	4602      	mov	r2, r0
 8006a08:	460b      	mov	r3, r1
 8006a0a:	4630      	mov	r0, r6
 8006a0c:	4639      	mov	r1, r7
 8006a0e:	f7f9 fc5d 	bl	80002cc <__adddf3>
 8006a12:	4606      	mov	r6, r0
 8006a14:	460f      	mov	r7, r1
 8006a16:	f7fa f8bf 	bl	8000b98 <__aeabi_d2iz>
 8006a1a:	2200      	movs	r2, #0
 8006a1c:	4682      	mov	sl, r0
 8006a1e:	2300      	movs	r3, #0
 8006a20:	4630      	mov	r0, r6
 8006a22:	4639      	mov	r1, r7
 8006a24:	f7fa f87a 	bl	8000b1c <__aeabi_dcmplt>
 8006a28:	b148      	cbz	r0, 8006a3e <_dtoa_r+0x186>
 8006a2a:	4650      	mov	r0, sl
 8006a2c:	f7f9 fd9a 	bl	8000564 <__aeabi_i2d>
 8006a30:	4632      	mov	r2, r6
 8006a32:	463b      	mov	r3, r7
 8006a34:	f7fa f868 	bl	8000b08 <__aeabi_dcmpeq>
 8006a38:	b908      	cbnz	r0, 8006a3e <_dtoa_r+0x186>
 8006a3a:	f10a 3aff 	add.w	sl, sl, #4294967295	; 0xffffffff
 8006a3e:	f1ba 0f16 	cmp.w	sl, #22
 8006a42:	d854      	bhi.n	8006aee <_dtoa_r+0x236>
 8006a44:	4b61      	ldr	r3, [pc, #388]	; (8006bcc <_dtoa_r+0x314>)
 8006a46:	eb03 03ca 	add.w	r3, r3, sl, lsl #3
 8006a4a:	e9d3 2300 	ldrd	r2, r3, [r3]
 8006a4e:	e9dd 010a 	ldrd	r0, r1, [sp, #40]	; 0x28
 8006a52:	f7fa f863 	bl	8000b1c <__aeabi_dcmplt>
 8006a56:	2800      	cmp	r0, #0
 8006a58:	d04b      	beq.n	8006af2 <_dtoa_r+0x23a>
 8006a5a:	f10a 3aff 	add.w	sl, sl, #4294967295	; 0xffffffff
 8006a5e:	2300      	movs	r3, #0
 8006a60:	930e      	str	r3, [sp, #56]	; 0x38
 8006a62:	9b12      	ldr	r3, [sp, #72]	; 0x48
 8006a64:	1b5d      	subs	r5, r3, r5
 8006a66:	1e6b      	subs	r3, r5, #1
 8006a68:	9304      	str	r3, [sp, #16]
 8006a6a:	bf43      	ittte	mi
 8006a6c:	2300      	movmi	r3, #0
 8006a6e:	f1c5 0801 	rsbmi	r8, r5, #1
 8006a72:	9304      	strmi	r3, [sp, #16]
 8006a74:	f04f 0800 	movpl.w	r8, #0
 8006a78:	f1ba 0f00 	cmp.w	sl, #0
 8006a7c:	db3b      	blt.n	8006af6 <_dtoa_r+0x23e>
 8006a7e:	9b04      	ldr	r3, [sp, #16]
 8006a80:	f8cd a034 	str.w	sl, [sp, #52]	; 0x34
 8006a84:	4453      	add	r3, sl
 8006a86:	9304      	str	r3, [sp, #16]
 8006a88:	2300      	movs	r3, #0
 8006a8a:	9306      	str	r3, [sp, #24]
 8006a8c:	9b05      	ldr	r3, [sp, #20]
 8006a8e:	2b09      	cmp	r3, #9
 8006a90:	d869      	bhi.n	8006b66 <_dtoa_r+0x2ae>
 8006a92:	2b05      	cmp	r3, #5
 8006a94:	bfc4      	itt	gt
 8006a96:	3b04      	subgt	r3, #4
 8006a98:	9305      	strgt	r3, [sp, #20]
 8006a9a:	9b05      	ldr	r3, [sp, #20]
 8006a9c:	f1a3 0302 	sub.w	r3, r3, #2
 8006aa0:	bfcc      	ite	gt
 8006aa2:	2500      	movgt	r5, #0
 8006aa4:	2501      	movle	r5, #1
 8006aa6:	2b03      	cmp	r3, #3
 8006aa8:	d869      	bhi.n	8006b7e <_dtoa_r+0x2c6>
 8006aaa:	e8df f003 	tbb	[pc, r3]
 8006aae:	4e2c      	.short	0x4e2c
 8006ab0:	5a4c      	.short	0x5a4c
 8006ab2:	e9dd 5312 	ldrd	r5, r3, [sp, #72]	; 0x48
 8006ab6:	441d      	add	r5, r3
 8006ab8:	f205 4332 	addw	r3, r5, #1074	; 0x432
 8006abc:	2b20      	cmp	r3, #32
 8006abe:	bfc1      	itttt	gt
 8006ac0:	f1c3 0340 	rsbgt	r3, r3, #64	; 0x40
 8006ac4:	f205 4012 	addwgt	r0, r5, #1042	; 0x412
 8006ac8:	fa09 f303 	lslgt.w	r3, r9, r3
 8006acc:	fa26 f000 	lsrgt.w	r0, r6, r0
 8006ad0:	bfda      	itte	le
 8006ad2:	f1c3 0320 	rsble	r3, r3, #32
 8006ad6:	fa06 f003 	lslle.w	r0, r6, r3
 8006ada:	4318      	orrgt	r0, r3
 8006adc:	f7f9 fd32 	bl	8000544 <__aeabi_ui2d>
 8006ae0:	2301      	movs	r3, #1
 8006ae2:	4606      	mov	r6, r0
 8006ae4:	f1a1 77f8 	sub.w	r7, r1, #32505856	; 0x1f00000
 8006ae8:	3d01      	subs	r5, #1
 8006aea:	9310      	str	r3, [sp, #64]	; 0x40
 8006aec:	e771      	b.n	80069d2 <_dtoa_r+0x11a>
 8006aee:	2301      	movs	r3, #1
 8006af0:	e7b6      	b.n	8006a60 <_dtoa_r+0x1a8>
 8006af2:	900e      	str	r0, [sp, #56]	; 0x38
 8006af4:	e7b5      	b.n	8006a62 <_dtoa_r+0x1aa>
 8006af6:	f1ca 0300 	rsb	r3, sl, #0
 8006afa:	9306      	str	r3, [sp, #24]
 8006afc:	2300      	movs	r3, #0
 8006afe:	eba8 080a 	sub.w	r8, r8, sl
 8006b02:	930d      	str	r3, [sp, #52]	; 0x34
 8006b04:	e7c2      	b.n	8006a8c <_dtoa_r+0x1d4>
 8006b06:	2300      	movs	r3, #0
 8006b08:	9308      	str	r3, [sp, #32]
 8006b0a:	9b09      	ldr	r3, [sp, #36]	; 0x24
 8006b0c:	2b00      	cmp	r3, #0
 8006b0e:	dc39      	bgt.n	8006b84 <_dtoa_r+0x2cc>
 8006b10:	f04f 0901 	mov.w	r9, #1
 8006b14:	f8cd 9004 	str.w	r9, [sp, #4]
 8006b18:	464b      	mov	r3, r9
 8006b1a:	f8cd 9024 	str.w	r9, [sp, #36]	; 0x24
 8006b1e:	6a60      	ldr	r0, [r4, #36]	; 0x24
 8006b20:	2200      	movs	r2, #0
 8006b22:	6042      	str	r2, [r0, #4]
 8006b24:	2204      	movs	r2, #4
 8006b26:	f102 0614 	add.w	r6, r2, #20
 8006b2a:	429e      	cmp	r6, r3
 8006b2c:	6841      	ldr	r1, [r0, #4]
 8006b2e:	d92f      	bls.n	8006b90 <_dtoa_r+0x2d8>
 8006b30:	4620      	mov	r0, r4
 8006b32:	f000 fcc7 	bl	80074c4 <_Balloc>
 8006b36:	9000      	str	r0, [sp, #0]
 8006b38:	2800      	cmp	r0, #0
 8006b3a:	d14b      	bne.n	8006bd4 <_dtoa_r+0x31c>
 8006b3c:	4b24      	ldr	r3, [pc, #144]	; (8006bd0 <_dtoa_r+0x318>)
 8006b3e:	4602      	mov	r2, r0
 8006b40:	f44f 71d5 	mov.w	r1, #426	; 0x1aa
 8006b44:	e6d1      	b.n	80068ea <_dtoa_r+0x32>
 8006b46:	2301      	movs	r3, #1
 8006b48:	e7de      	b.n	8006b08 <_dtoa_r+0x250>
 8006b4a:	2300      	movs	r3, #0
 8006b4c:	9308      	str	r3, [sp, #32]
 8006b4e:	9b09      	ldr	r3, [sp, #36]	; 0x24
 8006b50:	eb0a 0903 	add.w	r9, sl, r3
 8006b54:	f109 0301 	add.w	r3, r9, #1
 8006b58:	2b01      	cmp	r3, #1
 8006b5a:	9301      	str	r3, [sp, #4]
 8006b5c:	bfb8      	it	lt
 8006b5e:	2301      	movlt	r3, #1
 8006b60:	e7dd      	b.n	8006b1e <_dtoa_r+0x266>
 8006b62:	2301      	movs	r3, #1
 8006b64:	e7f2      	b.n	8006b4c <_dtoa_r+0x294>
 8006b66:	2501      	movs	r5, #1
 8006b68:	2300      	movs	r3, #0
 8006b6a:	9305      	str	r3, [sp, #20]
 8006b6c:	9508      	str	r5, [sp, #32]
 8006b6e:	f04f 39ff 	mov.w	r9, #4294967295	; 0xffffffff
 8006b72:	2200      	movs	r2, #0
 8006b74:	f8cd 9004 	str.w	r9, [sp, #4]
 8006b78:	2312      	movs	r3, #18
 8006b7a:	9209      	str	r2, [sp, #36]	; 0x24
 8006b7c:	e7cf      	b.n	8006b1e <_dtoa_r+0x266>
 8006b7e:	2301      	movs	r3, #1
 8006b80:	9308      	str	r3, [sp, #32]
 8006b82:	e7f4      	b.n	8006b6e <_dtoa_r+0x2b6>
 8006b84:	f8dd 9024 	ldr.w	r9, [sp, #36]	; 0x24
 8006b88:	f8cd 9004 	str.w	r9, [sp, #4]
 8006b8c:	464b      	mov	r3, r9
 8006b8e:	e7c6      	b.n	8006b1e <_dtoa_r+0x266>
 8006b90:	3101      	adds	r1, #1
 8006b92:	6041      	str	r1, [r0, #4]
 8006b94:	0052      	lsls	r2, r2, #1
 8006b96:	e7c6      	b.n	8006b26 <_dtoa_r+0x26e>
 8006b98:	636f4361 	.word	0x636f4361
 8006b9c:	3fd287a7 	.word	0x3fd287a7
 8006ba0:	8b60c8b3 	.word	0x8b60c8b3
 8006ba4:	3fc68a28 	.word	0x3fc68a28
 8006ba8:	509f79fb 	.word	0x509f79fb
 8006bac:	3fd34413 	.word	0x3fd34413
 8006bb0:	08008cc1 	.word	0x08008cc1
 8006bb4:	08008cd8 	.word	0x08008cd8
 8006bb8:	7ff00000 	.word	0x7ff00000
 8006bbc:	08008cbd 	.word	0x08008cbd
 8006bc0:	08008cb4 	.word	0x08008cb4
 8006bc4:	08008c91 	.word	0x08008c91
 8006bc8:	3ff80000 	.word	0x3ff80000
 8006bcc:	08008dd0 	.word	0x08008dd0
 8006bd0:	08008d37 	.word	0x08008d37
 8006bd4:	6a63      	ldr	r3, [r4, #36]	; 0x24
 8006bd6:	9a00      	ldr	r2, [sp, #0]
 8006bd8:	601a      	str	r2, [r3, #0]
 8006bda:	9b01      	ldr	r3, [sp, #4]
 8006bdc:	2b0e      	cmp	r3, #14
 8006bde:	f200 80ad 	bhi.w	8006d3c <_dtoa_r+0x484>
 8006be2:	2d00      	cmp	r5, #0
 8006be4:	f000 80aa 	beq.w	8006d3c <_dtoa_r+0x484>
 8006be8:	f1ba 0f00 	cmp.w	sl, #0
 8006bec:	dd36      	ble.n	8006c5c <_dtoa_r+0x3a4>
 8006bee:	4ac3      	ldr	r2, [pc, #780]	; (8006efc <_dtoa_r+0x644>)
 8006bf0:	f00a 030f 	and.w	r3, sl, #15
 8006bf4:	eb02 03c3 	add.w	r3, r2, r3, lsl #3
 8006bf8:	ed93 7b00 	vldr	d7, [r3]
 8006bfc:	f41a 7f80 	tst.w	sl, #256	; 0x100
 8006c00:	ea4f 172a 	mov.w	r7, sl, asr #4
 8006c04:	eeb0 8a47 	vmov.f32	s16, s14
 8006c08:	eef0 8a67 	vmov.f32	s17, s15
 8006c0c:	d016      	beq.n	8006c3c <_dtoa_r+0x384>
 8006c0e:	4bbc      	ldr	r3, [pc, #752]	; (8006f00 <_dtoa_r+0x648>)
 8006c10:	e9dd 010a 	ldrd	r0, r1, [sp, #40]	; 0x28
 8006c14:	e9d3 2308 	ldrd	r2, r3, [r3, #32]
 8006c18:	f7f9 fe38 	bl	800088c <__aeabi_ddiv>
 8006c1c:	e9cd 0102 	strd	r0, r1, [sp, #8]
 8006c20:	f007 070f 	and.w	r7, r7, #15
 8006c24:	2503      	movs	r5, #3
 8006c26:	4eb6      	ldr	r6, [pc, #728]	; (8006f00 <_dtoa_r+0x648>)
 8006c28:	b957      	cbnz	r7, 8006c40 <_dtoa_r+0x388>
 8006c2a:	e9dd 0102 	ldrd	r0, r1, [sp, #8]
 8006c2e:	ec53 2b18 	vmov	r2, r3, d8
 8006c32:	f7f9 fe2b 	bl	800088c <__aeabi_ddiv>
 8006c36:	e9cd 0102 	strd	r0, r1, [sp, #8]
 8006c3a:	e029      	b.n	8006c90 <_dtoa_r+0x3d8>
 8006c3c:	2502      	movs	r5, #2
 8006c3e:	e7f2      	b.n	8006c26 <_dtoa_r+0x36e>
 8006c40:	07f9      	lsls	r1, r7, #31
 8006c42:	d508      	bpl.n	8006c56 <_dtoa_r+0x39e>
 8006c44:	ec51 0b18 	vmov	r0, r1, d8
 8006c48:	e9d6 2300 	ldrd	r2, r3, [r6]
 8006c4c:	f7f9 fcf4 	bl	8000638 <__aeabi_dmul>
 8006c50:	ec41 0b18 	vmov	d8, r0, r1
 8006c54:	3501      	adds	r5, #1
 8006c56:	107f      	asrs	r7, r7, #1
 8006c58:	3608      	adds	r6, #8
 8006c5a:	e7e5      	b.n	8006c28 <_dtoa_r+0x370>
 8006c5c:	f000 80a6 	beq.w	8006dac <_dtoa_r+0x4f4>
 8006c60:	f1ca 0600 	rsb	r6, sl, #0
 8006c64:	4ba5      	ldr	r3, [pc, #660]	; (8006efc <_dtoa_r+0x644>)
 8006c66:	4fa6      	ldr	r7, [pc, #664]	; (8006f00 <_dtoa_r+0x648>)
 8006c68:	f006 020f 	and.w	r2, r6, #15
 8006c6c:	eb03 03c2 	add.w	r3, r3, r2, lsl #3
 8006c70:	e9d3 2300 	ldrd	r2, r3, [r3]
 8006c74:	e9dd 010a 	ldrd	r0, r1, [sp, #40]	; 0x28
 8006c78:	f7f9 fcde 	bl	8000638 <__aeabi_dmul>
 8006c7c:	e9cd 0102 	strd	r0, r1, [sp, #8]
 8006c80:	1136      	asrs	r6, r6, #4
 8006c82:	2300      	movs	r3, #0
 8006c84:	2502      	movs	r5, #2
 8006c86:	2e00      	cmp	r6, #0
 8006c88:	f040 8085 	bne.w	8006d96 <_dtoa_r+0x4de>
 8006c8c:	2b00      	cmp	r3, #0
 8006c8e:	d1d2      	bne.n	8006c36 <_dtoa_r+0x37e>
 8006c90:	9b0e      	ldr	r3, [sp, #56]	; 0x38
 8006c92:	2b00      	cmp	r3, #0
 8006c94:	f000 808c 	beq.w	8006db0 <_dtoa_r+0x4f8>
 8006c98:	e9dd 6702 	ldrd	r6, r7, [sp, #8]
 8006c9c:	4b99      	ldr	r3, [pc, #612]	; (8006f04 <_dtoa_r+0x64c>)
 8006c9e:	2200      	movs	r2, #0
 8006ca0:	4630      	mov	r0, r6
 8006ca2:	4639      	mov	r1, r7
 8006ca4:	f7f9 ff3a 	bl	8000b1c <__aeabi_dcmplt>
 8006ca8:	2800      	cmp	r0, #0
 8006caa:	f000 8081 	beq.w	8006db0 <_dtoa_r+0x4f8>
 8006cae:	9b01      	ldr	r3, [sp, #4]
 8006cb0:	2b00      	cmp	r3, #0
 8006cb2:	d07d      	beq.n	8006db0 <_dtoa_r+0x4f8>
 8006cb4:	f1b9 0f00 	cmp.w	r9, #0
 8006cb8:	dd3c      	ble.n	8006d34 <_dtoa_r+0x47c>
 8006cba:	f10a 33ff 	add.w	r3, sl, #4294967295	; 0xffffffff
 8006cbe:	9307      	str	r3, [sp, #28]
 8006cc0:	2200      	movs	r2, #0
 8006cc2:	4b91      	ldr	r3, [pc, #580]	; (8006f08 <_dtoa_r+0x650>)
 8006cc4:	4630      	mov	r0, r6
 8006cc6:	4639      	mov	r1, r7
 8006cc8:	f7f9 fcb6 	bl	8000638 <__aeabi_dmul>
 8006ccc:	e9cd 0102 	strd	r0, r1, [sp, #8]
 8006cd0:	3501      	adds	r5, #1
 8006cd2:	f8cd 9030 	str.w	r9, [sp, #48]	; 0x30
 8006cd6:	e9dd 6702 	ldrd	r6, r7, [sp, #8]
 8006cda:	4628      	mov	r0, r5
 8006cdc:	f7f9 fc42 	bl	8000564 <__aeabi_i2d>
 8006ce0:	4632      	mov	r2, r6
 8006ce2:	463b      	mov	r3, r7
 8006ce4:	f7f9 fca8 	bl	8000638 <__aeabi_dmul>
 8006ce8:	4b88      	ldr	r3, [pc, #544]	; (8006f0c <_dtoa_r+0x654>)
 8006cea:	2200      	movs	r2, #0
 8006cec:	f7f9 faee 	bl	80002cc <__adddf3>
 8006cf0:	f1a1 7350 	sub.w	r3, r1, #54525952	; 0x3400000
 8006cf4:	e9cd 0102 	strd	r0, r1, [sp, #8]
 8006cf8:	9303      	str	r3, [sp, #12]
 8006cfa:	9b0c      	ldr	r3, [sp, #48]	; 0x30
 8006cfc:	2b00      	cmp	r3, #0
 8006cfe:	d15c      	bne.n	8006dba <_dtoa_r+0x502>
 8006d00:	4b83      	ldr	r3, [pc, #524]	; (8006f10 <_dtoa_r+0x658>)
 8006d02:	2200      	movs	r2, #0
 8006d04:	4630      	mov	r0, r6
 8006d06:	4639      	mov	r1, r7
 8006d08:	f7f9 fade 	bl	80002c8 <__aeabi_dsub>
 8006d0c:	e9dd 2302 	ldrd	r2, r3, [sp, #8]
 8006d10:	4606      	mov	r6, r0
 8006d12:	460f      	mov	r7, r1
 8006d14:	f7f9 ff20 	bl	8000b58 <__aeabi_dcmpgt>
 8006d18:	2800      	cmp	r0, #0
 8006d1a:	f040 8296 	bne.w	800724a <_dtoa_r+0x992>
 8006d1e:	e9dd 2102 	ldrd	r2, r1, [sp, #8]
 8006d22:	4630      	mov	r0, r6
 8006d24:	f101 4300 	add.w	r3, r1, #2147483648	; 0x80000000
 8006d28:	4639      	mov	r1, r7
 8006d2a:	f7f9 fef7 	bl	8000b1c <__aeabi_dcmplt>
 8006d2e:	2800      	cmp	r0, #0
 8006d30:	f040 8288 	bne.w	8007244 <_dtoa_r+0x98c>
 8006d34:	e9dd 230a 	ldrd	r2, r3, [sp, #40]	; 0x28
 8006d38:	e9cd 2302 	strd	r2, r3, [sp, #8]
 8006d3c:	9b13      	ldr	r3, [sp, #76]	; 0x4c
 8006d3e:	2b00      	cmp	r3, #0
 8006d40:	f2c0 8158 	blt.w	8006ff4 <_dtoa_r+0x73c>
 8006d44:	f1ba 0f0e 	cmp.w	sl, #14
 8006d48:	f300 8154 	bgt.w	8006ff4 <_dtoa_r+0x73c>
 8006d4c:	4b6b      	ldr	r3, [pc, #428]	; (8006efc <_dtoa_r+0x644>)
 8006d4e:	eb03 03ca 	add.w	r3, r3, sl, lsl #3
 8006d52:	e9d3 8900 	ldrd	r8, r9, [r3]
 8006d56:	9b09      	ldr	r3, [sp, #36]	; 0x24
 8006d58:	2b00      	cmp	r3, #0
 8006d5a:	f280 80e3 	bge.w	8006f24 <_dtoa_r+0x66c>
 8006d5e:	9b01      	ldr	r3, [sp, #4]
 8006d60:	2b00      	cmp	r3, #0
 8006d62:	f300 80df 	bgt.w	8006f24 <_dtoa_r+0x66c>
 8006d66:	f040 826d 	bne.w	8007244 <_dtoa_r+0x98c>
 8006d6a:	4b69      	ldr	r3, [pc, #420]	; (8006f10 <_dtoa_r+0x658>)
 8006d6c:	2200      	movs	r2, #0
 8006d6e:	4640      	mov	r0, r8
 8006d70:	4649      	mov	r1, r9
 8006d72:	f7f9 fc61 	bl	8000638 <__aeabi_dmul>
 8006d76:	e9dd 2302 	ldrd	r2, r3, [sp, #8]
 8006d7a:	f7f9 fee3 	bl	8000b44 <__aeabi_dcmpge>
 8006d7e:	9e01      	ldr	r6, [sp, #4]
 8006d80:	4637      	mov	r7, r6
 8006d82:	2800      	cmp	r0, #0
 8006d84:	f040 8243 	bne.w	800720e <_dtoa_r+0x956>
 8006d88:	9d00      	ldr	r5, [sp, #0]
 8006d8a:	2331      	movs	r3, #49	; 0x31
 8006d8c:	f805 3b01 	strb.w	r3, [r5], #1
 8006d90:	f10a 0a01 	add.w	sl, sl, #1
 8006d94:	e23f      	b.n	8007216 <_dtoa_r+0x95e>
 8006d96:	07f2      	lsls	r2, r6, #31
 8006d98:	d505      	bpl.n	8006da6 <_dtoa_r+0x4ee>
 8006d9a:	e9d7 2300 	ldrd	r2, r3, [r7]
 8006d9e:	f7f9 fc4b 	bl	8000638 <__aeabi_dmul>
 8006da2:	3501      	adds	r5, #1
 8006da4:	2301      	movs	r3, #1
 8006da6:	1076      	asrs	r6, r6, #1
 8006da8:	3708      	adds	r7, #8
 8006daa:	e76c      	b.n	8006c86 <_dtoa_r+0x3ce>
 8006dac:	2502      	movs	r5, #2
 8006dae:	e76f      	b.n	8006c90 <_dtoa_r+0x3d8>
 8006db0:	9b01      	ldr	r3, [sp, #4]
 8006db2:	f8cd a01c 	str.w	sl, [sp, #28]
 8006db6:	930c      	str	r3, [sp, #48]	; 0x30
 8006db8:	e78d      	b.n	8006cd6 <_dtoa_r+0x41e>
 8006dba:	9900      	ldr	r1, [sp, #0]
 8006dbc:	980c      	ldr	r0, [sp, #48]	; 0x30
 8006dbe:	9a0c      	ldr	r2, [sp, #48]	; 0x30
 8006dc0:	4b4e      	ldr	r3, [pc, #312]	; (8006efc <_dtoa_r+0x644>)
 8006dc2:	ed9d 7b02 	vldr	d7, [sp, #8]
 8006dc6:	4401      	add	r1, r0
 8006dc8:	9102      	str	r1, [sp, #8]
 8006dca:	9908      	ldr	r1, [sp, #32]
 8006dcc:	eeb0 8a47 	vmov.f32	s16, s14
 8006dd0:	eef0 8a67 	vmov.f32	s17, s15
 8006dd4:	eb03 03c2 	add.w	r3, r3, r2, lsl #3
 8006dd8:	e953 2302 	ldrd	r2, r3, [r3, #-8]
 8006ddc:	2900      	cmp	r1, #0
 8006dde:	d045      	beq.n	8006e6c <_dtoa_r+0x5b4>
 8006de0:	494c      	ldr	r1, [pc, #304]	; (8006f14 <_dtoa_r+0x65c>)
 8006de2:	2000      	movs	r0, #0
 8006de4:	f7f9 fd52 	bl	800088c <__aeabi_ddiv>
 8006de8:	ec53 2b18 	vmov	r2, r3, d8
 8006dec:	f7f9 fa6c 	bl	80002c8 <__aeabi_dsub>
 8006df0:	9d00      	ldr	r5, [sp, #0]
 8006df2:	ec41 0b18 	vmov	d8, r0, r1
 8006df6:	4639      	mov	r1, r7
 8006df8:	4630      	mov	r0, r6
 8006dfa:	f7f9 fecd 	bl	8000b98 <__aeabi_d2iz>
 8006dfe:	900c      	str	r0, [sp, #48]	; 0x30
 8006e00:	f7f9 fbb0 	bl	8000564 <__aeabi_i2d>
 8006e04:	4602      	mov	r2, r0
 8006e06:	460b      	mov	r3, r1
 8006e08:	4630      	mov	r0, r6
 8006e0a:	4639      	mov	r1, r7
 8006e0c:	f7f9 fa5c 	bl	80002c8 <__aeabi_dsub>
 8006e10:	9b0c      	ldr	r3, [sp, #48]	; 0x30
 8006e12:	3330      	adds	r3, #48	; 0x30
 8006e14:	f805 3b01 	strb.w	r3, [r5], #1
 8006e18:	ec53 2b18 	vmov	r2, r3, d8
 8006e1c:	4606      	mov	r6, r0
 8006e1e:	460f      	mov	r7, r1
 8006e20:	f7f9 fe7c 	bl	8000b1c <__aeabi_dcmplt>
 8006e24:	2800      	cmp	r0, #0
 8006e26:	d165      	bne.n	8006ef4 <_dtoa_r+0x63c>
 8006e28:	4632      	mov	r2, r6
 8006e2a:	463b      	mov	r3, r7
 8006e2c:	4935      	ldr	r1, [pc, #212]	; (8006f04 <_dtoa_r+0x64c>)
 8006e2e:	2000      	movs	r0, #0
 8006e30:	f7f9 fa4a 	bl	80002c8 <__aeabi_dsub>
 8006e34:	ec53 2b18 	vmov	r2, r3, d8
 8006e38:	f7f9 fe70 	bl	8000b1c <__aeabi_dcmplt>
 8006e3c:	2800      	cmp	r0, #0
 8006e3e:	f040 80b9 	bne.w	8006fb4 <_dtoa_r+0x6fc>
 8006e42:	9b02      	ldr	r3, [sp, #8]
 8006e44:	429d      	cmp	r5, r3
 8006e46:	f43f af75 	beq.w	8006d34 <_dtoa_r+0x47c>
 8006e4a:	4b2f      	ldr	r3, [pc, #188]	; (8006f08 <_dtoa_r+0x650>)
 8006e4c:	ec51 0b18 	vmov	r0, r1, d8
 8006e50:	2200      	movs	r2, #0
 8006e52:	f7f9 fbf1 	bl	8000638 <__aeabi_dmul>
 8006e56:	4b2c      	ldr	r3, [pc, #176]	; (8006f08 <_dtoa_r+0x650>)
 8006e58:	ec41 0b18 	vmov	d8, r0, r1
 8006e5c:	2200      	movs	r2, #0
 8006e5e:	4630      	mov	r0, r6
 8006e60:	4639      	mov	r1, r7
 8006e62:	f7f9 fbe9 	bl	8000638 <__aeabi_dmul>
 8006e66:	4606      	mov	r6, r0
 8006e68:	460f      	mov	r7, r1
 8006e6a:	e7c4      	b.n	8006df6 <_dtoa_r+0x53e>
 8006e6c:	ec51 0b17 	vmov	r0, r1, d7
 8006e70:	f7f9 fbe2 	bl	8000638 <__aeabi_dmul>
 8006e74:	9b02      	ldr	r3, [sp, #8]
 8006e76:	9d00      	ldr	r5, [sp, #0]
 8006e78:	930c      	str	r3, [sp, #48]	; 0x30
 8006e7a:	ec41 0b18 	vmov	d8, r0, r1
 8006e7e:	4639      	mov	r1, r7
 8006e80:	4630      	mov	r0, r6
 8006e82:	f7f9 fe89 	bl	8000b98 <__aeabi_d2iz>
 8006e86:	9011      	str	r0, [sp, #68]	; 0x44
 8006e88:	f7f9 fb6c 	bl	8000564 <__aeabi_i2d>
 8006e8c:	4602      	mov	r2, r0
 8006e8e:	460b      	mov	r3, r1
 8006e90:	4630      	mov	r0, r6
 8006e92:	4639      	mov	r1, r7
 8006e94:	f7f9 fa18 	bl	80002c8 <__aeabi_dsub>
 8006e98:	9b11      	ldr	r3, [sp, #68]	; 0x44
 8006e9a:	3330      	adds	r3, #48	; 0x30
 8006e9c:	f805 3b01 	strb.w	r3, [r5], #1
 8006ea0:	9b02      	ldr	r3, [sp, #8]
 8006ea2:	429d      	cmp	r5, r3
 8006ea4:	4606      	mov	r6, r0
 8006ea6:	460f      	mov	r7, r1
 8006ea8:	f04f 0200 	mov.w	r2, #0
 8006eac:	d134      	bne.n	8006f18 <_dtoa_r+0x660>
 8006eae:	4b19      	ldr	r3, [pc, #100]	; (8006f14 <_dtoa_r+0x65c>)
 8006eb0:	ec51 0b18 	vmov	r0, r1, d8
 8006eb4:	f7f9 fa0a 	bl	80002cc <__adddf3>
 8006eb8:	4602      	mov	r2, r0
 8006eba:	460b      	mov	r3, r1
 8006ebc:	4630      	mov	r0, r6
 8006ebe:	4639      	mov	r1, r7
 8006ec0:	f7f9 fe4a 	bl	8000b58 <__aeabi_dcmpgt>
 8006ec4:	2800      	cmp	r0, #0
 8006ec6:	d175      	bne.n	8006fb4 <_dtoa_r+0x6fc>
 8006ec8:	ec53 2b18 	vmov	r2, r3, d8
 8006ecc:	4911      	ldr	r1, [pc, #68]	; (8006f14 <_dtoa_r+0x65c>)
 8006ece:	2000      	movs	r0, #0
 8006ed0:	f7f9 f9fa 	bl	80002c8 <__aeabi_dsub>
 8006ed4:	4602      	mov	r2, r0
 8006ed6:	460b      	mov	r3, r1
 8006ed8:	4630      	mov	r0, r6
 8006eda:	4639      	mov	r1, r7
 8006edc:	f7f9 fe1e 	bl	8000b1c <__aeabi_dcmplt>
 8006ee0:	2800      	cmp	r0, #0
 8006ee2:	f43f af27 	beq.w	8006d34 <_dtoa_r+0x47c>
 8006ee6:	9d0c      	ldr	r5, [sp, #48]	; 0x30
 8006ee8:	1e6b      	subs	r3, r5, #1
 8006eea:	930c      	str	r3, [sp, #48]	; 0x30
 8006eec:	f815 3c01 	ldrb.w	r3, [r5, #-1]
 8006ef0:	2b30      	cmp	r3, #48	; 0x30
 8006ef2:	d0f8      	beq.n	8006ee6 <_dtoa_r+0x62e>
 8006ef4:	f8dd a01c 	ldr.w	sl, [sp, #28]
 8006ef8:	e04a      	b.n	8006f90 <_dtoa_r+0x6d8>
 8006efa:	bf00      	nop
 8006efc:	08008dd0 	.word	0x08008dd0
 8006f00:	08008da8 	.word	0x08008da8
 8006f04:	3ff00000 	.word	0x3ff00000
 8006f08:	40240000 	.word	0x40240000
 8006f0c:	401c0000 	.word	0x401c0000
 8006f10:	40140000 	.word	0x40140000
 8006f14:	3fe00000 	.word	0x3fe00000
 8006f18:	4baf      	ldr	r3, [pc, #700]	; (80071d8 <_dtoa_r+0x920>)
 8006f1a:	f7f9 fb8d 	bl	8000638 <__aeabi_dmul>
 8006f1e:	4606      	mov	r6, r0
 8006f20:	460f      	mov	r7, r1
 8006f22:	e7ac      	b.n	8006e7e <_dtoa_r+0x5c6>
 8006f24:	e9dd 6702 	ldrd	r6, r7, [sp, #8]
 8006f28:	9d00      	ldr	r5, [sp, #0]
 8006f2a:	4642      	mov	r2, r8
 8006f2c:	464b      	mov	r3, r9
 8006f2e:	4630      	mov	r0, r6
 8006f30:	4639      	mov	r1, r7
 8006f32:	f7f9 fcab 	bl	800088c <__aeabi_ddiv>
 8006f36:	f7f9 fe2f 	bl	8000b98 <__aeabi_d2iz>
 8006f3a:	9002      	str	r0, [sp, #8]
 8006f3c:	f7f9 fb12 	bl	8000564 <__aeabi_i2d>
 8006f40:	4642      	mov	r2, r8
 8006f42:	464b      	mov	r3, r9
 8006f44:	f7f9 fb78 	bl	8000638 <__aeabi_dmul>
 8006f48:	4602      	mov	r2, r0
 8006f4a:	460b      	mov	r3, r1
 8006f4c:	4630      	mov	r0, r6
 8006f4e:	4639      	mov	r1, r7
 8006f50:	f7f9 f9ba 	bl	80002c8 <__aeabi_dsub>
 8006f54:	9e02      	ldr	r6, [sp, #8]
 8006f56:	9f01      	ldr	r7, [sp, #4]
 8006f58:	3630      	adds	r6, #48	; 0x30
 8006f5a:	f805 6b01 	strb.w	r6, [r5], #1
 8006f5e:	9e00      	ldr	r6, [sp, #0]
 8006f60:	1bae      	subs	r6, r5, r6
 8006f62:	42b7      	cmp	r7, r6
 8006f64:	4602      	mov	r2, r0
 8006f66:	460b      	mov	r3, r1
 8006f68:	d137      	bne.n	8006fda <_dtoa_r+0x722>
 8006f6a:	f7f9 f9af 	bl	80002cc <__adddf3>
 8006f6e:	4642      	mov	r2, r8
 8006f70:	464b      	mov	r3, r9
 8006f72:	4606      	mov	r6, r0
 8006f74:	460f      	mov	r7, r1
 8006f76:	f7f9 fdef 	bl	8000b58 <__aeabi_dcmpgt>
 8006f7a:	b9c8      	cbnz	r0, 8006fb0 <_dtoa_r+0x6f8>
 8006f7c:	4642      	mov	r2, r8
 8006f7e:	464b      	mov	r3, r9
 8006f80:	4630      	mov	r0, r6
 8006f82:	4639      	mov	r1, r7
 8006f84:	f7f9 fdc0 	bl	8000b08 <__aeabi_dcmpeq>
 8006f88:	b110      	cbz	r0, 8006f90 <_dtoa_r+0x6d8>
 8006f8a:	9b02      	ldr	r3, [sp, #8]
 8006f8c:	07d9      	lsls	r1, r3, #31
 8006f8e:	d40f      	bmi.n	8006fb0 <_dtoa_r+0x6f8>
 8006f90:	4620      	mov	r0, r4
 8006f92:	4659      	mov	r1, fp
 8006f94:	f000 fad6 	bl	8007544 <_Bfree>
 8006f98:	2300      	movs	r3, #0
 8006f9a:	702b      	strb	r3, [r5, #0]
 8006f9c:	9b0f      	ldr	r3, [sp, #60]	; 0x3c
 8006f9e:	f10a 0001 	add.w	r0, sl, #1
 8006fa2:	6018      	str	r0, [r3, #0]
 8006fa4:	9b21      	ldr	r3, [sp, #132]	; 0x84
 8006fa6:	2b00      	cmp	r3, #0
 8006fa8:	f43f acd8 	beq.w	800695c <_dtoa_r+0xa4>
 8006fac:	601d      	str	r5, [r3, #0]
 8006fae:	e4d5      	b.n	800695c <_dtoa_r+0xa4>
 8006fb0:	f8cd a01c 	str.w	sl, [sp, #28]
 8006fb4:	462b      	mov	r3, r5
 8006fb6:	461d      	mov	r5, r3
 8006fb8:	f813 2d01 	ldrb.w	r2, [r3, #-1]!
 8006fbc:	2a39      	cmp	r2, #57	; 0x39
 8006fbe:	d108      	bne.n	8006fd2 <_dtoa_r+0x71a>
 8006fc0:	9a00      	ldr	r2, [sp, #0]
 8006fc2:	429a      	cmp	r2, r3
 8006fc4:	d1f7      	bne.n	8006fb6 <_dtoa_r+0x6fe>
 8006fc6:	9a07      	ldr	r2, [sp, #28]
 8006fc8:	9900      	ldr	r1, [sp, #0]
 8006fca:	3201      	adds	r2, #1
 8006fcc:	9207      	str	r2, [sp, #28]
 8006fce:	2230      	movs	r2, #48	; 0x30
 8006fd0:	700a      	strb	r2, [r1, #0]
 8006fd2:	781a      	ldrb	r2, [r3, #0]
 8006fd4:	3201      	adds	r2, #1
 8006fd6:	701a      	strb	r2, [r3, #0]
 8006fd8:	e78c      	b.n	8006ef4 <_dtoa_r+0x63c>
 8006fda:	4b7f      	ldr	r3, [pc, #508]	; (80071d8 <_dtoa_r+0x920>)
 8006fdc:	2200      	movs	r2, #0
 8006fde:	f7f9 fb2b 	bl	8000638 <__aeabi_dmul>
 8006fe2:	2200      	movs	r2, #0
 8006fe4:	2300      	movs	r3, #0
 8006fe6:	4606      	mov	r6, r0
 8006fe8:	460f      	mov	r7, r1
 8006fea:	f7f9 fd8d 	bl	8000b08 <__aeabi_dcmpeq>
 8006fee:	2800      	cmp	r0, #0
 8006ff0:	d09b      	beq.n	8006f2a <_dtoa_r+0x672>
 8006ff2:	e7cd      	b.n	8006f90 <_dtoa_r+0x6d8>
 8006ff4:	9a08      	ldr	r2, [sp, #32]
 8006ff6:	2a00      	cmp	r2, #0
 8006ff8:	f000 80c4 	beq.w	8007184 <_dtoa_r+0x8cc>
 8006ffc:	9a05      	ldr	r2, [sp, #20]
 8006ffe:	2a01      	cmp	r2, #1
 8007000:	f300 80a8 	bgt.w	8007154 <_dtoa_r+0x89c>
 8007004:	9a10      	ldr	r2, [sp, #64]	; 0x40
 8007006:	2a00      	cmp	r2, #0
 8007008:	f000 80a0 	beq.w	800714c <_dtoa_r+0x894>
 800700c:	f203 4333 	addw	r3, r3, #1075	; 0x433
 8007010:	9e06      	ldr	r6, [sp, #24]
 8007012:	4645      	mov	r5, r8
 8007014:	9a04      	ldr	r2, [sp, #16]
 8007016:	2101      	movs	r1, #1
 8007018:	441a      	add	r2, r3
 800701a:	4620      	mov	r0, r4
 800701c:	4498      	add	r8, r3
 800701e:	9204      	str	r2, [sp, #16]
 8007020:	f000 fb4c 	bl	80076bc <__i2b>
 8007024:	4607      	mov	r7, r0
 8007026:	2d00      	cmp	r5, #0
 8007028:	dd0b      	ble.n	8007042 <_dtoa_r+0x78a>
 800702a:	9b04      	ldr	r3, [sp, #16]
 800702c:	2b00      	cmp	r3, #0
 800702e:	dd08      	ble.n	8007042 <_dtoa_r+0x78a>
 8007030:	42ab      	cmp	r3, r5
 8007032:	9a04      	ldr	r2, [sp, #16]
 8007034:	bfa8      	it	ge
 8007036:	462b      	movge	r3, r5
 8007038:	eba8 0803 	sub.w	r8, r8, r3
 800703c:	1aed      	subs	r5, r5, r3
 800703e:	1ad3      	subs	r3, r2, r3
 8007040:	9304      	str	r3, [sp, #16]
 8007042:	9b06      	ldr	r3, [sp, #24]
 8007044:	b1fb      	cbz	r3, 8007086 <_dtoa_r+0x7ce>
 8007046:	9b08      	ldr	r3, [sp, #32]
 8007048:	2b00      	cmp	r3, #0
 800704a:	f000 809f 	beq.w	800718c <_dtoa_r+0x8d4>
 800704e:	2e00      	cmp	r6, #0
 8007050:	dd11      	ble.n	8007076 <_dtoa_r+0x7be>
 8007052:	4639      	mov	r1, r7
 8007054:	4632      	mov	r2, r6
 8007056:	4620      	mov	r0, r4
 8007058:	f000 fbec 	bl	8007834 <__pow5mult>
 800705c:	465a      	mov	r2, fp
 800705e:	4601      	mov	r1, r0
 8007060:	4607      	mov	r7, r0
 8007062:	4620      	mov	r0, r4
 8007064:	f000 fb40 	bl	80076e8 <__multiply>
 8007068:	4659      	mov	r1, fp
 800706a:	9007      	str	r0, [sp, #28]
 800706c:	4620      	mov	r0, r4
 800706e:	f000 fa69 	bl	8007544 <_Bfree>
 8007072:	9b07      	ldr	r3, [sp, #28]
 8007074:	469b      	mov	fp, r3
 8007076:	9b06      	ldr	r3, [sp, #24]
 8007078:	1b9a      	subs	r2, r3, r6
 800707a:	d004      	beq.n	8007086 <_dtoa_r+0x7ce>
 800707c:	4659      	mov	r1, fp
 800707e:	4620      	mov	r0, r4
 8007080:	f000 fbd8 	bl	8007834 <__pow5mult>
 8007084:	4683      	mov	fp, r0
 8007086:	2101      	movs	r1, #1
 8007088:	4620      	mov	r0, r4
 800708a:	f000 fb17 	bl	80076bc <__i2b>
 800708e:	9b0d      	ldr	r3, [sp, #52]	; 0x34
 8007090:	2b00      	cmp	r3, #0
 8007092:	4606      	mov	r6, r0
 8007094:	dd7c      	ble.n	8007190 <_dtoa_r+0x8d8>
 8007096:	461a      	mov	r2, r3
 8007098:	4601      	mov	r1, r0
 800709a:	4620      	mov	r0, r4
 800709c:	f000 fbca 	bl	8007834 <__pow5mult>
 80070a0:	9b05      	ldr	r3, [sp, #20]
 80070a2:	2b01      	cmp	r3, #1
 80070a4:	4606      	mov	r6, r0
 80070a6:	dd76      	ble.n	8007196 <_dtoa_r+0x8de>
 80070a8:	2300      	movs	r3, #0
 80070aa:	9306      	str	r3, [sp, #24]
 80070ac:	6933      	ldr	r3, [r6, #16]
 80070ae:	eb06 0383 	add.w	r3, r6, r3, lsl #2
 80070b2:	6918      	ldr	r0, [r3, #16]
 80070b4:	f000 fab2 	bl	800761c <__hi0bits>
 80070b8:	f1c0 0020 	rsb	r0, r0, #32
 80070bc:	9b04      	ldr	r3, [sp, #16]
 80070be:	4418      	add	r0, r3
 80070c0:	f010 001f 	ands.w	r0, r0, #31
 80070c4:	f000 8086 	beq.w	80071d4 <_dtoa_r+0x91c>
 80070c8:	f1c0 0320 	rsb	r3, r0, #32
 80070cc:	2b04      	cmp	r3, #4
 80070ce:	dd7f      	ble.n	80071d0 <_dtoa_r+0x918>
 80070d0:	f1c0 001c 	rsb	r0, r0, #28
 80070d4:	9b04      	ldr	r3, [sp, #16]
 80070d6:	4403      	add	r3, r0
 80070d8:	4480      	add	r8, r0
 80070da:	4405      	add	r5, r0
 80070dc:	9304      	str	r3, [sp, #16]
 80070de:	f1b8 0f00 	cmp.w	r8, #0
 80070e2:	dd05      	ble.n	80070f0 <_dtoa_r+0x838>
 80070e4:	4659      	mov	r1, fp
 80070e6:	4642      	mov	r2, r8
 80070e8:	4620      	mov	r0, r4
 80070ea:	f000 fbfd 	bl	80078e8 <__lshift>
 80070ee:	4683      	mov	fp, r0
 80070f0:	9b04      	ldr	r3, [sp, #16]
 80070f2:	2b00      	cmp	r3, #0
 80070f4:	dd05      	ble.n	8007102 <_dtoa_r+0x84a>
 80070f6:	4631      	mov	r1, r6
 80070f8:	461a      	mov	r2, r3
 80070fa:	4620      	mov	r0, r4
 80070fc:	f000 fbf4 	bl	80078e8 <__lshift>
 8007100:	4606      	mov	r6, r0
 8007102:	9b0e      	ldr	r3, [sp, #56]	; 0x38
 8007104:	2b00      	cmp	r3, #0
 8007106:	d069      	beq.n	80071dc <_dtoa_r+0x924>
 8007108:	4631      	mov	r1, r6
 800710a:	4658      	mov	r0, fp
 800710c:	f000 fc58 	bl	80079c0 <__mcmp>
 8007110:	2800      	cmp	r0, #0
 8007112:	da63      	bge.n	80071dc <_dtoa_r+0x924>
 8007114:	2300      	movs	r3, #0
 8007116:	4659      	mov	r1, fp
 8007118:	220a      	movs	r2, #10
 800711a:	4620      	mov	r0, r4
 800711c:	f000 fa34 	bl	8007588 <__multadd>
 8007120:	9b08      	ldr	r3, [sp, #32]
 8007122:	f10a 3aff 	add.w	sl, sl, #4294967295	; 0xffffffff
 8007126:	4683      	mov	fp, r0
 8007128:	2b00      	cmp	r3, #0
 800712a:	f000 818f 	beq.w	800744c <_dtoa_r+0xb94>
 800712e:	4639      	mov	r1, r7
 8007130:	2300      	movs	r3, #0
 8007132:	220a      	movs	r2, #10
 8007134:	4620      	mov	r0, r4
 8007136:	f000 fa27 	bl	8007588 <__multadd>
 800713a:	f1b9 0f00 	cmp.w	r9, #0
 800713e:	4607      	mov	r7, r0
 8007140:	f300 808e 	bgt.w	8007260 <_dtoa_r+0x9a8>
 8007144:	9b05      	ldr	r3, [sp, #20]
 8007146:	2b02      	cmp	r3, #2
 8007148:	dc50      	bgt.n	80071ec <_dtoa_r+0x934>
 800714a:	e089      	b.n	8007260 <_dtoa_r+0x9a8>
 800714c:	9b12      	ldr	r3, [sp, #72]	; 0x48
 800714e:	f1c3 0336 	rsb	r3, r3, #54	; 0x36
 8007152:	e75d      	b.n	8007010 <_dtoa_r+0x758>
 8007154:	9b01      	ldr	r3, [sp, #4]
 8007156:	1e5e      	subs	r6, r3, #1
 8007158:	9b06      	ldr	r3, [sp, #24]
 800715a:	42b3      	cmp	r3, r6
 800715c:	bfbf      	itttt	lt
 800715e:	9b06      	ldrlt	r3, [sp, #24]
 8007160:	9606      	strlt	r6, [sp, #24]
 8007162:	1af2      	sublt	r2, r6, r3
 8007164:	9b0d      	ldrlt	r3, [sp, #52]	; 0x34
 8007166:	bfb6      	itet	lt
 8007168:	189b      	addlt	r3, r3, r2
 800716a:	1b9e      	subge	r6, r3, r6
 800716c:	930d      	strlt	r3, [sp, #52]	; 0x34
 800716e:	9b01      	ldr	r3, [sp, #4]
 8007170:	bfb8      	it	lt
 8007172:	2600      	movlt	r6, #0
 8007174:	2b00      	cmp	r3, #0
 8007176:	bfb5      	itete	lt
 8007178:	eba8 0503 	sublt.w	r5, r8, r3
 800717c:	9b01      	ldrge	r3, [sp, #4]
 800717e:	2300      	movlt	r3, #0
 8007180:	4645      	movge	r5, r8
 8007182:	e747      	b.n	8007014 <_dtoa_r+0x75c>
 8007184:	9e06      	ldr	r6, [sp, #24]
 8007186:	9f08      	ldr	r7, [sp, #32]
 8007188:	4645      	mov	r5, r8
 800718a:	e74c      	b.n	8007026 <_dtoa_r+0x76e>
 800718c:	9a06      	ldr	r2, [sp, #24]
 800718e:	e775      	b.n	800707c <_dtoa_r+0x7c4>
 8007190:	9b05      	ldr	r3, [sp, #20]
 8007192:	2b01      	cmp	r3, #1
 8007194:	dc18      	bgt.n	80071c8 <_dtoa_r+0x910>
 8007196:	9b02      	ldr	r3, [sp, #8]
 8007198:	b9b3      	cbnz	r3, 80071c8 <_dtoa_r+0x910>
 800719a:	9b03      	ldr	r3, [sp, #12]
 800719c:	f3c3 0313 	ubfx	r3, r3, #0, #20
 80071a0:	b9a3      	cbnz	r3, 80071cc <_dtoa_r+0x914>
 80071a2:	9b03      	ldr	r3, [sp, #12]
 80071a4:	f023 4300 	bic.w	r3, r3, #2147483648	; 0x80000000
 80071a8:	0d1b      	lsrs	r3, r3, #20
 80071aa:	051b      	lsls	r3, r3, #20
 80071ac:	b12b      	cbz	r3, 80071ba <_dtoa_r+0x902>
 80071ae:	9b04      	ldr	r3, [sp, #16]
 80071b0:	3301      	adds	r3, #1
 80071b2:	9304      	str	r3, [sp, #16]
 80071b4:	f108 0801 	add.w	r8, r8, #1
 80071b8:	2301      	movs	r3, #1
 80071ba:	9306      	str	r3, [sp, #24]
 80071bc:	9b0d      	ldr	r3, [sp, #52]	; 0x34
 80071be:	2b00      	cmp	r3, #0
 80071c0:	f47f af74 	bne.w	80070ac <_dtoa_r+0x7f4>
 80071c4:	2001      	movs	r0, #1
 80071c6:	e779      	b.n	80070bc <_dtoa_r+0x804>
 80071c8:	2300      	movs	r3, #0
 80071ca:	e7f6      	b.n	80071ba <_dtoa_r+0x902>
 80071cc:	9b02      	ldr	r3, [sp, #8]
 80071ce:	e7f4      	b.n	80071ba <_dtoa_r+0x902>
 80071d0:	d085      	beq.n	80070de <_dtoa_r+0x826>
 80071d2:	4618      	mov	r0, r3
 80071d4:	301c      	adds	r0, #28
 80071d6:	e77d      	b.n	80070d4 <_dtoa_r+0x81c>
 80071d8:	40240000 	.word	0x40240000
 80071dc:	9b01      	ldr	r3, [sp, #4]
 80071de:	2b00      	cmp	r3, #0
 80071e0:	dc38      	bgt.n	8007254 <_dtoa_r+0x99c>
 80071e2:	9b05      	ldr	r3, [sp, #20]
 80071e4:	2b02      	cmp	r3, #2
 80071e6:	dd35      	ble.n	8007254 <_dtoa_r+0x99c>
 80071e8:	f8dd 9004 	ldr.w	r9, [sp, #4]
 80071ec:	f1b9 0f00 	cmp.w	r9, #0
 80071f0:	d10d      	bne.n	800720e <_dtoa_r+0x956>
 80071f2:	4631      	mov	r1, r6
 80071f4:	464b      	mov	r3, r9
 80071f6:	2205      	movs	r2, #5
 80071f8:	4620      	mov	r0, r4
 80071fa:	f000 f9c5 	bl	8007588 <__multadd>
 80071fe:	4601      	mov	r1, r0
 8007200:	4606      	mov	r6, r0
 8007202:	4658      	mov	r0, fp
 8007204:	f000 fbdc 	bl	80079c0 <__mcmp>
 8007208:	2800      	cmp	r0, #0
 800720a:	f73f adbd 	bgt.w	8006d88 <_dtoa_r+0x4d0>
 800720e:	9b09      	ldr	r3, [sp, #36]	; 0x24
 8007210:	9d00      	ldr	r5, [sp, #0]
 8007212:	ea6f 0a03 	mvn.w	sl, r3
 8007216:	f04f 0800 	mov.w	r8, #0
 800721a:	4631      	mov	r1, r6
 800721c:	4620      	mov	r0, r4
 800721e:	f000 f991 	bl	8007544 <_Bfree>
 8007222:	2f00      	cmp	r7, #0
 8007224:	f43f aeb4 	beq.w	8006f90 <_dtoa_r+0x6d8>
 8007228:	f1b8 0f00 	cmp.w	r8, #0
 800722c:	d005      	beq.n	800723a <_dtoa_r+0x982>
 800722e:	45b8      	cmp	r8, r7
 8007230:	d003      	beq.n	800723a <_dtoa_r+0x982>
 8007232:	4641      	mov	r1, r8
 8007234:	4620      	mov	r0, r4
 8007236:	f000 f985 	bl	8007544 <_Bfree>
 800723a:	4639      	mov	r1, r7
 800723c:	4620      	mov	r0, r4
 800723e:	f000 f981 	bl	8007544 <_Bfree>
 8007242:	e6a5      	b.n	8006f90 <_dtoa_r+0x6d8>
 8007244:	2600      	movs	r6, #0
 8007246:	4637      	mov	r7, r6
 8007248:	e7e1      	b.n	800720e <_dtoa_r+0x956>
 800724a:	9e0c      	ldr	r6, [sp, #48]	; 0x30
 800724c:	f8dd a01c 	ldr.w	sl, [sp, #28]
 8007250:	4637      	mov	r7, r6
 8007252:	e599      	b.n	8006d88 <_dtoa_r+0x4d0>
 8007254:	9b08      	ldr	r3, [sp, #32]
 8007256:	f8dd 9004 	ldr.w	r9, [sp, #4]
 800725a:	2b00      	cmp	r3, #0
 800725c:	f000 80fd 	beq.w	800745a <_dtoa_r+0xba2>
 8007260:	2d00      	cmp	r5, #0
 8007262:	dd05      	ble.n	8007270 <_dtoa_r+0x9b8>
 8007264:	4639      	mov	r1, r7
 8007266:	462a      	mov	r2, r5
 8007268:	4620      	mov	r0, r4
 800726a:	f000 fb3d 	bl	80078e8 <__lshift>
 800726e:	4607      	mov	r7, r0
 8007270:	9b06      	ldr	r3, [sp, #24]
 8007272:	2b00      	cmp	r3, #0
 8007274:	d05c      	beq.n	8007330 <_dtoa_r+0xa78>
 8007276:	6879      	ldr	r1, [r7, #4]
 8007278:	4620      	mov	r0, r4
 800727a:	f000 f923 	bl	80074c4 <_Balloc>
 800727e:	4605      	mov	r5, r0
 8007280:	b928      	cbnz	r0, 800728e <_dtoa_r+0x9d6>
 8007282:	4b80      	ldr	r3, [pc, #512]	; (8007484 <_dtoa_r+0xbcc>)
 8007284:	4602      	mov	r2, r0
 8007286:	f240 21ea 	movw	r1, #746	; 0x2ea
 800728a:	f7ff bb2e 	b.w	80068ea <_dtoa_r+0x32>
 800728e:	693a      	ldr	r2, [r7, #16]
 8007290:	3202      	adds	r2, #2
 8007292:	0092      	lsls	r2, r2, #2
 8007294:	f107 010c 	add.w	r1, r7, #12
 8007298:	300c      	adds	r0, #12
 800729a:	f000 f905 	bl	80074a8 <memcpy>
 800729e:	2201      	movs	r2, #1
 80072a0:	4629      	mov	r1, r5
 80072a2:	4620      	mov	r0, r4
 80072a4:	f000 fb20 	bl	80078e8 <__lshift>
 80072a8:	9b00      	ldr	r3, [sp, #0]
 80072aa:	3301      	adds	r3, #1
 80072ac:	9301      	str	r3, [sp, #4]
 80072ae:	9b00      	ldr	r3, [sp, #0]
 80072b0:	444b      	add	r3, r9
 80072b2:	9307      	str	r3, [sp, #28]
 80072b4:	9b02      	ldr	r3, [sp, #8]
 80072b6:	f003 0301 	and.w	r3, r3, #1
 80072ba:	46b8      	mov	r8, r7
 80072bc:	9306      	str	r3, [sp, #24]
 80072be:	4607      	mov	r7, r0
 80072c0:	9b01      	ldr	r3, [sp, #4]
 80072c2:	4631      	mov	r1, r6
 80072c4:	3b01      	subs	r3, #1
 80072c6:	4658      	mov	r0, fp
 80072c8:	9302      	str	r3, [sp, #8]
 80072ca:	f7ff fa67 	bl	800679c <quorem>
 80072ce:	4603      	mov	r3, r0
 80072d0:	3330      	adds	r3, #48	; 0x30
 80072d2:	9004      	str	r0, [sp, #16]
 80072d4:	4641      	mov	r1, r8
 80072d6:	4658      	mov	r0, fp
 80072d8:	9308      	str	r3, [sp, #32]
 80072da:	f000 fb71 	bl	80079c0 <__mcmp>
 80072de:	463a      	mov	r2, r7
 80072e0:	4681      	mov	r9, r0
 80072e2:	4631      	mov	r1, r6
 80072e4:	4620      	mov	r0, r4
 80072e6:	f000 fb87 	bl	80079f8 <__mdiff>
 80072ea:	68c2      	ldr	r2, [r0, #12]
 80072ec:	9b08      	ldr	r3, [sp, #32]
 80072ee:	4605      	mov	r5, r0
 80072f0:	bb02      	cbnz	r2, 8007334 <_dtoa_r+0xa7c>
 80072f2:	4601      	mov	r1, r0
 80072f4:	4658      	mov	r0, fp
 80072f6:	f000 fb63 	bl	80079c0 <__mcmp>
 80072fa:	9b08      	ldr	r3, [sp, #32]
 80072fc:	4602      	mov	r2, r0
 80072fe:	4629      	mov	r1, r5
 8007300:	4620      	mov	r0, r4
 8007302:	e9cd 3208 	strd	r3, r2, [sp, #32]
 8007306:	f000 f91d 	bl	8007544 <_Bfree>
 800730a:	9b05      	ldr	r3, [sp, #20]
 800730c:	9a09      	ldr	r2, [sp, #36]	; 0x24
 800730e:	9d01      	ldr	r5, [sp, #4]
 8007310:	ea43 0102 	orr.w	r1, r3, r2
 8007314:	9b06      	ldr	r3, [sp, #24]
 8007316:	430b      	orrs	r3, r1
 8007318:	9b08      	ldr	r3, [sp, #32]
 800731a:	d10d      	bne.n	8007338 <_dtoa_r+0xa80>
 800731c:	2b39      	cmp	r3, #57	; 0x39
 800731e:	d029      	beq.n	8007374 <_dtoa_r+0xabc>
 8007320:	f1b9 0f00 	cmp.w	r9, #0
 8007324:	dd01      	ble.n	800732a <_dtoa_r+0xa72>
 8007326:	9b04      	ldr	r3, [sp, #16]
 8007328:	3331      	adds	r3, #49	; 0x31
 800732a:	9a02      	ldr	r2, [sp, #8]
 800732c:	7013      	strb	r3, [r2, #0]
 800732e:	e774      	b.n	800721a <_dtoa_r+0x962>
 8007330:	4638      	mov	r0, r7
 8007332:	e7b9      	b.n	80072a8 <_dtoa_r+0x9f0>
 8007334:	2201      	movs	r2, #1
 8007336:	e7e2      	b.n	80072fe <_dtoa_r+0xa46>
 8007338:	f1b9 0f00 	cmp.w	r9, #0
 800733c:	db06      	blt.n	800734c <_dtoa_r+0xa94>
 800733e:	9905      	ldr	r1, [sp, #20]
 8007340:	ea41 0909 	orr.w	r9, r1, r9
 8007344:	9906      	ldr	r1, [sp, #24]
 8007346:	ea59 0101 	orrs.w	r1, r9, r1
 800734a:	d120      	bne.n	800738e <_dtoa_r+0xad6>
 800734c:	2a00      	cmp	r2, #0
 800734e:	ddec      	ble.n	800732a <_dtoa_r+0xa72>
 8007350:	4659      	mov	r1, fp
 8007352:	2201      	movs	r2, #1
 8007354:	4620      	mov	r0, r4
 8007356:	9301      	str	r3, [sp, #4]
 8007358:	f000 fac6 	bl	80078e8 <__lshift>
 800735c:	4631      	mov	r1, r6
 800735e:	4683      	mov	fp, r0
 8007360:	f000 fb2e 	bl	80079c0 <__mcmp>
 8007364:	2800      	cmp	r0, #0
 8007366:	9b01      	ldr	r3, [sp, #4]
 8007368:	dc02      	bgt.n	8007370 <_dtoa_r+0xab8>
 800736a:	d1de      	bne.n	800732a <_dtoa_r+0xa72>
 800736c:	07da      	lsls	r2, r3, #31
 800736e:	d5dc      	bpl.n	800732a <_dtoa_r+0xa72>
 8007370:	2b39      	cmp	r3, #57	; 0x39
 8007372:	d1d8      	bne.n	8007326 <_dtoa_r+0xa6e>
 8007374:	9a02      	ldr	r2, [sp, #8]
 8007376:	2339      	movs	r3, #57	; 0x39
 8007378:	7013      	strb	r3, [r2, #0]
 800737a:	462b      	mov	r3, r5
 800737c:	461d      	mov	r5, r3
 800737e:	3b01      	subs	r3, #1
 8007380:	f815 2c01 	ldrb.w	r2, [r5, #-1]
 8007384:	2a39      	cmp	r2, #57	; 0x39
 8007386:	d050      	beq.n	800742a <_dtoa_r+0xb72>
 8007388:	3201      	adds	r2, #1
 800738a:	701a      	strb	r2, [r3, #0]
 800738c:	e745      	b.n	800721a <_dtoa_r+0x962>
 800738e:	2a00      	cmp	r2, #0
 8007390:	dd03      	ble.n	800739a <_dtoa_r+0xae2>
 8007392:	2b39      	cmp	r3, #57	; 0x39
 8007394:	d0ee      	beq.n	8007374 <_dtoa_r+0xabc>
 8007396:	3301      	adds	r3, #1
 8007398:	e7c7      	b.n	800732a <_dtoa_r+0xa72>
 800739a:	9a01      	ldr	r2, [sp, #4]
 800739c:	9907      	ldr	r1, [sp, #28]
 800739e:	f802 3c01 	strb.w	r3, [r2, #-1]
 80073a2:	428a      	cmp	r2, r1
 80073a4:	d02a      	beq.n	80073fc <_dtoa_r+0xb44>
 80073a6:	4659      	mov	r1, fp
 80073a8:	2300      	movs	r3, #0
 80073aa:	220a      	movs	r2, #10
 80073ac:	4620      	mov	r0, r4
 80073ae:	f000 f8eb 	bl	8007588 <__multadd>
 80073b2:	45b8      	cmp	r8, r7
 80073b4:	4683      	mov	fp, r0
 80073b6:	f04f 0300 	mov.w	r3, #0
 80073ba:	f04f 020a 	mov.w	r2, #10
 80073be:	4641      	mov	r1, r8
 80073c0:	4620      	mov	r0, r4
 80073c2:	d107      	bne.n	80073d4 <_dtoa_r+0xb1c>
 80073c4:	f000 f8e0 	bl	8007588 <__multadd>
 80073c8:	4680      	mov	r8, r0
 80073ca:	4607      	mov	r7, r0
 80073cc:	9b01      	ldr	r3, [sp, #4]
 80073ce:	3301      	adds	r3, #1
 80073d0:	9301      	str	r3, [sp, #4]
 80073d2:	e775      	b.n	80072c0 <_dtoa_r+0xa08>
 80073d4:	f000 f8d8 	bl	8007588 <__multadd>
 80073d8:	4639      	mov	r1, r7
 80073da:	4680      	mov	r8, r0
 80073dc:	2300      	movs	r3, #0
 80073de:	220a      	movs	r2, #10
 80073e0:	4620      	mov	r0, r4
 80073e2:	f000 f8d1 	bl	8007588 <__multadd>
 80073e6:	4607      	mov	r7, r0
 80073e8:	e7f0      	b.n	80073cc <_dtoa_r+0xb14>
 80073ea:	f1b9 0f00 	cmp.w	r9, #0
 80073ee:	9a00      	ldr	r2, [sp, #0]
 80073f0:	bfcc      	ite	gt
 80073f2:	464d      	movgt	r5, r9
 80073f4:	2501      	movle	r5, #1
 80073f6:	4415      	add	r5, r2
 80073f8:	f04f 0800 	mov.w	r8, #0
 80073fc:	4659      	mov	r1, fp
 80073fe:	2201      	movs	r2, #1
 8007400:	4620      	mov	r0, r4
 8007402:	9301      	str	r3, [sp, #4]
 8007404:	f000 fa70 	bl	80078e8 <__lshift>
 8007408:	4631      	mov	r1, r6
 800740a:	4683      	mov	fp, r0
 800740c:	f000 fad8 	bl	80079c0 <__mcmp>
 8007410:	2800      	cmp	r0, #0
 8007412:	dcb2      	bgt.n	800737a <_dtoa_r+0xac2>
 8007414:	d102      	bne.n	800741c <_dtoa_r+0xb64>
 8007416:	9b01      	ldr	r3, [sp, #4]
 8007418:	07db      	lsls	r3, r3, #31
 800741a:	d4ae      	bmi.n	800737a <_dtoa_r+0xac2>
 800741c:	462b      	mov	r3, r5
 800741e:	461d      	mov	r5, r3
 8007420:	f813 2d01 	ldrb.w	r2, [r3, #-1]!
 8007424:	2a30      	cmp	r2, #48	; 0x30
 8007426:	d0fa      	beq.n	800741e <_dtoa_r+0xb66>
 8007428:	e6f7      	b.n	800721a <_dtoa_r+0x962>
 800742a:	9a00      	ldr	r2, [sp, #0]
 800742c:	429a      	cmp	r2, r3
 800742e:	d1a5      	bne.n	800737c <_dtoa_r+0xac4>
 8007430:	f10a 0a01 	add.w	sl, sl, #1
 8007434:	2331      	movs	r3, #49	; 0x31
 8007436:	e779      	b.n	800732c <_dtoa_r+0xa74>
 8007438:	4b13      	ldr	r3, [pc, #76]	; (8007488 <_dtoa_r+0xbd0>)
 800743a:	f7ff baaf 	b.w	800699c <_dtoa_r+0xe4>
 800743e:	9b21      	ldr	r3, [sp, #132]	; 0x84
 8007440:	2b00      	cmp	r3, #0
 8007442:	f47f aa86 	bne.w	8006952 <_dtoa_r+0x9a>
 8007446:	4b11      	ldr	r3, [pc, #68]	; (800748c <_dtoa_r+0xbd4>)
 8007448:	f7ff baa8 	b.w	800699c <_dtoa_r+0xe4>
 800744c:	f1b9 0f00 	cmp.w	r9, #0
 8007450:	dc03      	bgt.n	800745a <_dtoa_r+0xba2>
 8007452:	9b05      	ldr	r3, [sp, #20]
 8007454:	2b02      	cmp	r3, #2
 8007456:	f73f aec9 	bgt.w	80071ec <_dtoa_r+0x934>
 800745a:	9d00      	ldr	r5, [sp, #0]
 800745c:	4631      	mov	r1, r6
 800745e:	4658      	mov	r0, fp
 8007460:	f7ff f99c 	bl	800679c <quorem>
 8007464:	f100 0330 	add.w	r3, r0, #48	; 0x30
 8007468:	f805 3b01 	strb.w	r3, [r5], #1
 800746c:	9a00      	ldr	r2, [sp, #0]
 800746e:	1aaa      	subs	r2, r5, r2
 8007470:	4591      	cmp	r9, r2
 8007472:	ddba      	ble.n	80073ea <_dtoa_r+0xb32>
 8007474:	4659      	mov	r1, fp
 8007476:	2300      	movs	r3, #0
 8007478:	220a      	movs	r2, #10
 800747a:	4620      	mov	r0, r4
 800747c:	f000 f884 	bl	8007588 <__multadd>
 8007480:	4683      	mov	fp, r0
 8007482:	e7eb      	b.n	800745c <_dtoa_r+0xba4>
 8007484:	08008d37 	.word	0x08008d37
 8007488:	08008c90 	.word	0x08008c90
 800748c:	08008cb4 	.word	0x08008cb4

08007490 <_localeconv_r>:
 8007490:	4800      	ldr	r0, [pc, #0]	; (8007494 <_localeconv_r+0x4>)
 8007492:	4770      	bx	lr
 8007494:	20000178 	.word	0x20000178

08007498 <malloc>:
 8007498:	4b02      	ldr	r3, [pc, #8]	; (80074a4 <malloc+0xc>)
 800749a:	4601      	mov	r1, r0
 800749c:	6818      	ldr	r0, [r3, #0]
 800749e:	f000 bbef 	b.w	8007c80 <_malloc_r>
 80074a2:	bf00      	nop
 80074a4:	20000024 	.word	0x20000024

080074a8 <memcpy>:
 80074a8:	440a      	add	r2, r1
 80074aa:	4291      	cmp	r1, r2
 80074ac:	f100 33ff 	add.w	r3, r0, #4294967295	; 0xffffffff
 80074b0:	d100      	bne.n	80074b4 <memcpy+0xc>
 80074b2:	4770      	bx	lr
 80074b4:	b510      	push	{r4, lr}
 80074b6:	f811 4b01 	ldrb.w	r4, [r1], #1
 80074ba:	f803 4f01 	strb.w	r4, [r3, #1]!
 80074be:	4291      	cmp	r1, r2
 80074c0:	d1f9      	bne.n	80074b6 <memcpy+0xe>
 80074c2:	bd10      	pop	{r4, pc}

080074c4 <_Balloc>:
 80074c4:	b570      	push	{r4, r5, r6, lr}
 80074c6:	6a46      	ldr	r6, [r0, #36]	; 0x24
 80074c8:	4604      	mov	r4, r0
 80074ca:	460d      	mov	r5, r1
 80074cc:	b976      	cbnz	r6, 80074ec <_Balloc+0x28>
 80074ce:	2010      	movs	r0, #16
 80074d0:	f7ff ffe2 	bl	8007498 <malloc>
 80074d4:	4602      	mov	r2, r0
 80074d6:	6260      	str	r0, [r4, #36]	; 0x24
 80074d8:	b920      	cbnz	r0, 80074e4 <_Balloc+0x20>
 80074da:	4b18      	ldr	r3, [pc, #96]	; (800753c <_Balloc+0x78>)
 80074dc:	4818      	ldr	r0, [pc, #96]	; (8007540 <_Balloc+0x7c>)
 80074de:	2166      	movs	r1, #102	; 0x66
 80074e0:	f000 fd94 	bl	800800c <__assert_func>
 80074e4:	e9c0 6601 	strd	r6, r6, [r0, #4]
 80074e8:	6006      	str	r6, [r0, #0]
 80074ea:	60c6      	str	r6, [r0, #12]
 80074ec:	6a66      	ldr	r6, [r4, #36]	; 0x24
 80074ee:	68f3      	ldr	r3, [r6, #12]
 80074f0:	b183      	cbz	r3, 8007514 <_Balloc+0x50>
 80074f2:	6a63      	ldr	r3, [r4, #36]	; 0x24
 80074f4:	68db      	ldr	r3, [r3, #12]
 80074f6:	f853 0025 	ldr.w	r0, [r3, r5, lsl #2]
 80074fa:	b9b8      	cbnz	r0, 800752c <_Balloc+0x68>
 80074fc:	2101      	movs	r1, #1
 80074fe:	fa01 f605 	lsl.w	r6, r1, r5
 8007502:	1d72      	adds	r2, r6, #5
 8007504:	0092      	lsls	r2, r2, #2
 8007506:	4620      	mov	r0, r4
 8007508:	f000 fb5a 	bl	8007bc0 <_calloc_r>
 800750c:	b160      	cbz	r0, 8007528 <_Balloc+0x64>
 800750e:	e9c0 5601 	strd	r5, r6, [r0, #4]
 8007512:	e00e      	b.n	8007532 <_Balloc+0x6e>
 8007514:	2221      	movs	r2, #33	; 0x21
 8007516:	2104      	movs	r1, #4
 8007518:	4620      	mov	r0, r4
 800751a:	f000 fb51 	bl	8007bc0 <_calloc_r>
 800751e:	6a63      	ldr	r3, [r4, #36]	; 0x24
 8007520:	60f0      	str	r0, [r6, #12]
 8007522:	68db      	ldr	r3, [r3, #12]
 8007524:	2b00      	cmp	r3, #0
 8007526:	d1e4      	bne.n	80074f2 <_Balloc+0x2e>
 8007528:	2000      	movs	r0, #0
 800752a:	bd70      	pop	{r4, r5, r6, pc}
 800752c:	6802      	ldr	r2, [r0, #0]
 800752e:	f843 2025 	str.w	r2, [r3, r5, lsl #2]
 8007532:	2300      	movs	r3, #0
 8007534:	e9c0 3303 	strd	r3, r3, [r0, #12]
 8007538:	e7f7      	b.n	800752a <_Balloc+0x66>
 800753a:	bf00      	nop
 800753c:	08008cc1 	.word	0x08008cc1
 8007540:	08008d48 	.word	0x08008d48

08007544 <_Bfree>:
 8007544:	b570      	push	{r4, r5, r6, lr}
 8007546:	6a46      	ldr	r6, [r0, #36]	; 0x24
 8007548:	4605      	mov	r5, r0
 800754a:	460c      	mov	r4, r1
 800754c:	b976      	cbnz	r6, 800756c <_Bfree+0x28>
 800754e:	2010      	movs	r0, #16
 8007550:	f7ff ffa2 	bl	8007498 <malloc>
 8007554:	4602      	mov	r2, r0
 8007556:	6268      	str	r0, [r5, #36]	; 0x24
 8007558:	b920      	cbnz	r0, 8007564 <_Bfree+0x20>
 800755a:	4b09      	ldr	r3, [pc, #36]	; (8007580 <_Bfree+0x3c>)
 800755c:	4809      	ldr	r0, [pc, #36]	; (8007584 <_Bfree+0x40>)
 800755e:	218a      	movs	r1, #138	; 0x8a
 8007560:	f000 fd54 	bl	800800c <__assert_func>
 8007564:	e9c0 6601 	strd	r6, r6, [r0, #4]
 8007568:	6006      	str	r6, [r0, #0]
 800756a:	60c6      	str	r6, [r0, #12]
 800756c:	b13c      	cbz	r4, 800757e <_Bfree+0x3a>
 800756e:	6a6b      	ldr	r3, [r5, #36]	; 0x24
 8007570:	6862      	ldr	r2, [r4, #4]
 8007572:	68db      	ldr	r3, [r3, #12]
 8007574:	f853 1022 	ldr.w	r1, [r3, r2, lsl #2]
 8007578:	6021      	str	r1, [r4, #0]
 800757a:	f843 4022 	str.w	r4, [r3, r2, lsl #2]
 800757e:	bd70      	pop	{r4, r5, r6, pc}
 8007580:	08008cc1 	.word	0x08008cc1
 8007584:	08008d48 	.word	0x08008d48

08007588 <__multadd>:
 8007588:	e92d 41f0 	stmdb	sp!, {r4, r5, r6, r7, r8, lr}
 800758c:	690e      	ldr	r6, [r1, #16]
 800758e:	4607      	mov	r7, r0
 8007590:	4698      	mov	r8, r3
 8007592:	460c      	mov	r4, r1
 8007594:	f101 0014 	add.w	r0, r1, #20
 8007598:	2300      	movs	r3, #0
 800759a:	6805      	ldr	r5, [r0, #0]
 800759c:	b2a9      	uxth	r1, r5
 800759e:	fb02 8101 	mla	r1, r2, r1, r8
 80075a2:	ea4f 4c11 	mov.w	ip, r1, lsr #16
 80075a6:	0c2d      	lsrs	r5, r5, #16
 80075a8:	fb02 c505 	mla	r5, r2, r5, ip
 80075ac:	b289      	uxth	r1, r1
 80075ae:	3301      	adds	r3, #1
 80075b0:	eb01 4105 	add.w	r1, r1, r5, lsl #16
 80075b4:	429e      	cmp	r6, r3
 80075b6:	f840 1b04 	str.w	r1, [r0], #4
 80075ba:	ea4f 4815 	mov.w	r8, r5, lsr #16
 80075be:	dcec      	bgt.n	800759a <__multadd+0x12>
 80075c0:	f1b8 0f00 	cmp.w	r8, #0
 80075c4:	d022      	beq.n	800760c <__multadd+0x84>
 80075c6:	68a3      	ldr	r3, [r4, #8]
 80075c8:	42b3      	cmp	r3, r6
 80075ca:	dc19      	bgt.n	8007600 <__multadd+0x78>
 80075cc:	6861      	ldr	r1, [r4, #4]
 80075ce:	4638      	mov	r0, r7
 80075d0:	3101      	adds	r1, #1
 80075d2:	f7ff ff77 	bl	80074c4 <_Balloc>
 80075d6:	4605      	mov	r5, r0
 80075d8:	b928      	cbnz	r0, 80075e6 <__multadd+0x5e>
 80075da:	4602      	mov	r2, r0
 80075dc:	4b0d      	ldr	r3, [pc, #52]	; (8007614 <__multadd+0x8c>)
 80075de:	480e      	ldr	r0, [pc, #56]	; (8007618 <__multadd+0x90>)
 80075e0:	21b5      	movs	r1, #181	; 0xb5
 80075e2:	f000 fd13 	bl	800800c <__assert_func>
 80075e6:	6922      	ldr	r2, [r4, #16]
 80075e8:	3202      	adds	r2, #2
 80075ea:	f104 010c 	add.w	r1, r4, #12
 80075ee:	0092      	lsls	r2, r2, #2
 80075f0:	300c      	adds	r0, #12
 80075f2:	f7ff ff59 	bl	80074a8 <memcpy>
 80075f6:	4621      	mov	r1, r4
 80075f8:	4638      	mov	r0, r7
 80075fa:	f7ff ffa3 	bl	8007544 <_Bfree>
 80075fe:	462c      	mov	r4, r5
 8007600:	eb04 0386 	add.w	r3, r4, r6, lsl #2
 8007604:	3601      	adds	r6, #1
 8007606:	f8c3 8014 	str.w	r8, [r3, #20]
 800760a:	6126      	str	r6, [r4, #16]
 800760c:	4620      	mov	r0, r4
 800760e:	e8bd 81f0 	ldmia.w	sp!, {r4, r5, r6, r7, r8, pc}
 8007612:	bf00      	nop
 8007614:	08008d37 	.word	0x08008d37
 8007618:	08008d48 	.word	0x08008d48

0800761c <__hi0bits>:
 800761c:	0c03      	lsrs	r3, r0, #16
 800761e:	041b      	lsls	r3, r3, #16
 8007620:	b9d3      	cbnz	r3, 8007658 <__hi0bits+0x3c>
 8007622:	0400      	lsls	r0, r0, #16
 8007624:	2310      	movs	r3, #16
 8007626:	f010 4f7f 	tst.w	r0, #4278190080	; 0xff000000
 800762a:	bf04      	itt	eq
 800762c:	0200      	lsleq	r0, r0, #8
 800762e:	3308      	addeq	r3, #8
 8007630:	f010 4f70 	tst.w	r0, #4026531840	; 0xf0000000
 8007634:	bf04      	itt	eq
 8007636:	0100      	lsleq	r0, r0, #4
 8007638:	3304      	addeq	r3, #4
 800763a:	f010 4f40 	tst.w	r0, #3221225472	; 0xc0000000
 800763e:	bf04      	itt	eq
 8007640:	0080      	lsleq	r0, r0, #2
 8007642:	3302      	addeq	r3, #2
 8007644:	2800      	cmp	r0, #0
 8007646:	db05      	blt.n	8007654 <__hi0bits+0x38>
 8007648:	f010 4f80 	tst.w	r0, #1073741824	; 0x40000000
 800764c:	f103 0301 	add.w	r3, r3, #1
 8007650:	bf08      	it	eq
 8007652:	2320      	moveq	r3, #32
 8007654:	4618      	mov	r0, r3
 8007656:	4770      	bx	lr
 8007658:	2300      	movs	r3, #0
 800765a:	e7e4      	b.n	8007626 <__hi0bits+0xa>

0800765c <__lo0bits>:
 800765c:	6803      	ldr	r3, [r0, #0]
 800765e:	f013 0207 	ands.w	r2, r3, #7
 8007662:	4601      	mov	r1, r0
 8007664:	d00b      	beq.n	800767e <__lo0bits+0x22>
 8007666:	07da      	lsls	r2, r3, #31
 8007668:	d424      	bmi.n	80076b4 <__lo0bits+0x58>
 800766a:	0798      	lsls	r0, r3, #30
 800766c:	bf49      	itett	mi
 800766e:	085b      	lsrmi	r3, r3, #1
 8007670:	089b      	lsrpl	r3, r3, #2
 8007672:	2001      	movmi	r0, #1
 8007674:	600b      	strmi	r3, [r1, #0]
 8007676:	bf5c      	itt	pl
 8007678:	600b      	strpl	r3, [r1, #0]
 800767a:	2002      	movpl	r0, #2
 800767c:	4770      	bx	lr
 800767e:	b298      	uxth	r0, r3
 8007680:	b9b0      	cbnz	r0, 80076b0 <__lo0bits+0x54>
 8007682:	0c1b      	lsrs	r3, r3, #16
 8007684:	2010      	movs	r0, #16
 8007686:	f013 0fff 	tst.w	r3, #255	; 0xff
 800768a:	bf04      	itt	eq
 800768c:	0a1b      	lsreq	r3, r3, #8
 800768e:	3008      	addeq	r0, #8
 8007690:	071a      	lsls	r2, r3, #28
 8007692:	bf04      	itt	eq
 8007694:	091b      	lsreq	r3, r3, #4
 8007696:	3004      	addeq	r0, #4
 8007698:	079a      	lsls	r2, r3, #30
 800769a:	bf04      	itt	eq
 800769c:	089b      	lsreq	r3, r3, #2
 800769e:	3002      	addeq	r0, #2
 80076a0:	07da      	lsls	r2, r3, #31
 80076a2:	d403      	bmi.n	80076ac <__lo0bits+0x50>
 80076a4:	085b      	lsrs	r3, r3, #1
 80076a6:	f100 0001 	add.w	r0, r0, #1
 80076aa:	d005      	beq.n	80076b8 <__lo0bits+0x5c>
 80076ac:	600b      	str	r3, [r1, #0]
 80076ae:	4770      	bx	lr
 80076b0:	4610      	mov	r0, r2
 80076b2:	e7e8      	b.n	8007686 <__lo0bits+0x2a>
 80076b4:	2000      	movs	r0, #0
 80076b6:	4770      	bx	lr
 80076b8:	2020      	movs	r0, #32
 80076ba:	4770      	bx	lr

080076bc <__i2b>:
 80076bc:	b510      	push	{r4, lr}
 80076be:	460c      	mov	r4, r1
 80076c0:	2101      	movs	r1, #1
 80076c2:	f7ff feff 	bl	80074c4 <_Balloc>
 80076c6:	4602      	mov	r2, r0
 80076c8:	b928      	cbnz	r0, 80076d6 <__i2b+0x1a>
 80076ca:	4b05      	ldr	r3, [pc, #20]	; (80076e0 <__i2b+0x24>)
 80076cc:	4805      	ldr	r0, [pc, #20]	; (80076e4 <__i2b+0x28>)
 80076ce:	f44f 71a0 	mov.w	r1, #320	; 0x140
 80076d2:	f000 fc9b 	bl	800800c <__assert_func>
 80076d6:	2301      	movs	r3, #1
 80076d8:	6144      	str	r4, [r0, #20]
 80076da:	6103      	str	r3, [r0, #16]
 80076dc:	bd10      	pop	{r4, pc}
 80076de:	bf00      	nop
 80076e0:	08008d37 	.word	0x08008d37
 80076e4:	08008d48 	.word	0x08008d48

080076e8 <__multiply>:
 80076e8:	e92d 4ff0 	stmdb	sp!, {r4, r5, r6, r7, r8, r9, sl, fp, lr}
 80076ec:	4614      	mov	r4, r2
 80076ee:	690a      	ldr	r2, [r1, #16]
 80076f0:	6923      	ldr	r3, [r4, #16]
 80076f2:	429a      	cmp	r2, r3
 80076f4:	bfb8      	it	lt
 80076f6:	460b      	movlt	r3, r1
 80076f8:	460d      	mov	r5, r1
 80076fa:	bfbc      	itt	lt
 80076fc:	4625      	movlt	r5, r4
 80076fe:	461c      	movlt	r4, r3
 8007700:	f8d5 a010 	ldr.w	sl, [r5, #16]
 8007704:	f8d4 9010 	ldr.w	r9, [r4, #16]
 8007708:	68ab      	ldr	r3, [r5, #8]
 800770a:	6869      	ldr	r1, [r5, #4]
 800770c:	eb0a 0709 	add.w	r7, sl, r9
 8007710:	42bb      	cmp	r3, r7
 8007712:	b085      	sub	sp, #20
 8007714:	bfb8      	it	lt
 8007716:	3101      	addlt	r1, #1
 8007718:	f7ff fed4 	bl	80074c4 <_Balloc>
 800771c:	b930      	cbnz	r0, 800772c <__multiply+0x44>
 800771e:	4602      	mov	r2, r0
 8007720:	4b42      	ldr	r3, [pc, #264]	; (800782c <__multiply+0x144>)
 8007722:	4843      	ldr	r0, [pc, #268]	; (8007830 <__multiply+0x148>)
 8007724:	f240 115d 	movw	r1, #349	; 0x15d
 8007728:	f000 fc70 	bl	800800c <__assert_func>
 800772c:	f100 0614 	add.w	r6, r0, #20
 8007730:	eb06 0887 	add.w	r8, r6, r7, lsl #2
 8007734:	4633      	mov	r3, r6
 8007736:	2200      	movs	r2, #0
 8007738:	4543      	cmp	r3, r8
 800773a:	d31e      	bcc.n	800777a <__multiply+0x92>
 800773c:	f105 0c14 	add.w	ip, r5, #20
 8007740:	f104 0314 	add.w	r3, r4, #20
 8007744:	eb0c 0c8a 	add.w	ip, ip, sl, lsl #2
 8007748:	eb03 0289 	add.w	r2, r3, r9, lsl #2
 800774c:	9202      	str	r2, [sp, #8]
 800774e:	ebac 0205 	sub.w	r2, ip, r5
 8007752:	3a15      	subs	r2, #21
 8007754:	f022 0203 	bic.w	r2, r2, #3
 8007758:	3204      	adds	r2, #4
 800775a:	f105 0115 	add.w	r1, r5, #21
 800775e:	458c      	cmp	ip, r1
 8007760:	bf38      	it	cc
 8007762:	2204      	movcc	r2, #4
 8007764:	9201      	str	r2, [sp, #4]
 8007766:	9a02      	ldr	r2, [sp, #8]
 8007768:	9303      	str	r3, [sp, #12]
 800776a:	429a      	cmp	r2, r3
 800776c:	d808      	bhi.n	8007780 <__multiply+0x98>
 800776e:	2f00      	cmp	r7, #0
 8007770:	dc55      	bgt.n	800781e <__multiply+0x136>
 8007772:	6107      	str	r7, [r0, #16]
 8007774:	b005      	add	sp, #20
 8007776:	e8bd 8ff0 	ldmia.w	sp!, {r4, r5, r6, r7, r8, r9, sl, fp, pc}
 800777a:	f843 2b04 	str.w	r2, [r3], #4
 800777e:	e7db      	b.n	8007738 <__multiply+0x50>
 8007780:	f8b3 a000 	ldrh.w	sl, [r3]
 8007784:	f1ba 0f00 	cmp.w	sl, #0
 8007788:	d020      	beq.n	80077cc <__multiply+0xe4>
 800778a:	f105 0e14 	add.w	lr, r5, #20
 800778e:	46b1      	mov	r9, r6
 8007790:	2200      	movs	r2, #0
 8007792:	f85e 4b04 	ldr.w	r4, [lr], #4
 8007796:	f8d9 b000 	ldr.w	fp, [r9]
 800779a:	b2a1      	uxth	r1, r4
 800779c:	fa1f fb8b 	uxth.w	fp, fp
 80077a0:	fb0a b101 	mla	r1, sl, r1, fp
 80077a4:	4411      	add	r1, r2
 80077a6:	f8d9 2000 	ldr.w	r2, [r9]
 80077aa:	0c24      	lsrs	r4, r4, #16
 80077ac:	0c12      	lsrs	r2, r2, #16
 80077ae:	fb0a 2404 	mla	r4, sl, r4, r2
 80077b2:	eb04 4411 	add.w	r4, r4, r1, lsr #16
 80077b6:	b289      	uxth	r1, r1
 80077b8:	ea41 4104 	orr.w	r1, r1, r4, lsl #16
 80077bc:	45f4      	cmp	ip, lr
 80077be:	f849 1b04 	str.w	r1, [r9], #4
 80077c2:	ea4f 4214 	mov.w	r2, r4, lsr #16
 80077c6:	d8e4      	bhi.n	8007792 <__multiply+0xaa>
 80077c8:	9901      	ldr	r1, [sp, #4]
 80077ca:	5072      	str	r2, [r6, r1]
 80077cc:	9a03      	ldr	r2, [sp, #12]
 80077ce:	f8b2 9002 	ldrh.w	r9, [r2, #2]
 80077d2:	3304      	adds	r3, #4
 80077d4:	f1b9 0f00 	cmp.w	r9, #0
 80077d8:	d01f      	beq.n	800781a <__multiply+0x132>
 80077da:	6834      	ldr	r4, [r6, #0]
 80077dc:	f105 0114 	add.w	r1, r5, #20
 80077e0:	46b6      	mov	lr, r6
 80077e2:	f04f 0a00 	mov.w	sl, #0
 80077e6:	880a      	ldrh	r2, [r1, #0]
 80077e8:	f8be b002 	ldrh.w	fp, [lr, #2]
 80077ec:	fb09 b202 	mla	r2, r9, r2, fp
 80077f0:	4492      	add	sl, r2
 80077f2:	b2a4      	uxth	r4, r4
 80077f4:	ea44 440a 	orr.w	r4, r4, sl, lsl #16
 80077f8:	f84e 4b04 	str.w	r4, [lr], #4
 80077fc:	f851 4b04 	ldr.w	r4, [r1], #4
 8007800:	f8be 2000 	ldrh.w	r2, [lr]
 8007804:	0c24      	lsrs	r4, r4, #16
 8007806:	fb09 2404 	mla	r4, r9, r4, r2
 800780a:	eb04 441a 	add.w	r4, r4, sl, lsr #16
 800780e:	458c      	cmp	ip, r1
 8007810:	ea4f 4a14 	mov.w	sl, r4, lsr #16
 8007814:	d8e7      	bhi.n	80077e6 <__multiply+0xfe>
 8007816:	9a01      	ldr	r2, [sp, #4]
 8007818:	50b4      	str	r4, [r6, r2]
 800781a:	3604      	adds	r6, #4
 800781c:	e7a3      	b.n	8007766 <__multiply+0x7e>
 800781e:	f858 3d04 	ldr.w	r3, [r8, #-4]!
 8007822:	2b00      	cmp	r3, #0
 8007824:	d1a5      	bne.n	8007772 <__multiply+0x8a>
 8007826:	3f01      	subs	r7, #1
 8007828:	e7a1      	b.n	800776e <__multiply+0x86>
 800782a:	bf00      	nop
 800782c:	08008d37 	.word	0x08008d37
 8007830:	08008d48 	.word	0x08008d48

08007834 <__pow5mult>:
 8007834:	e92d 43f8 	stmdb	sp!, {r3, r4, r5, r6, r7, r8, r9, lr}
 8007838:	4615      	mov	r5, r2
 800783a:	f012 0203 	ands.w	r2, r2, #3
 800783e:	4606      	mov	r6, r0
 8007840:	460f      	mov	r7, r1
 8007842:	d007      	beq.n	8007854 <__pow5mult+0x20>
 8007844:	4c25      	ldr	r4, [pc, #148]	; (80078dc <__pow5mult+0xa8>)
 8007846:	3a01      	subs	r2, #1
 8007848:	2300      	movs	r3, #0
 800784a:	f854 2022 	ldr.w	r2, [r4, r2, lsl #2]
 800784e:	f7ff fe9b 	bl	8007588 <__multadd>
 8007852:	4607      	mov	r7, r0
 8007854:	10ad      	asrs	r5, r5, #2
 8007856:	d03d      	beq.n	80078d4 <__pow5mult+0xa0>
 8007858:	6a74      	ldr	r4, [r6, #36]	; 0x24
 800785a:	b97c      	cbnz	r4, 800787c <__pow5mult+0x48>
 800785c:	2010      	movs	r0, #16
 800785e:	f7ff fe1b 	bl	8007498 <malloc>
 8007862:	4602      	mov	r2, r0
 8007864:	6270      	str	r0, [r6, #36]	; 0x24
 8007866:	b928      	cbnz	r0, 8007874 <__pow5mult+0x40>
 8007868:	4b1d      	ldr	r3, [pc, #116]	; (80078e0 <__pow5mult+0xac>)
 800786a:	481e      	ldr	r0, [pc, #120]	; (80078e4 <__pow5mult+0xb0>)
 800786c:	f44f 71d7 	mov.w	r1, #430	; 0x1ae
 8007870:	f000 fbcc 	bl	800800c <__assert_func>
 8007874:	e9c0 4401 	strd	r4, r4, [r0, #4]
 8007878:	6004      	str	r4, [r0, #0]
 800787a:	60c4      	str	r4, [r0, #12]
 800787c:	f8d6 8024 	ldr.w	r8, [r6, #36]	; 0x24
 8007880:	f8d8 4008 	ldr.w	r4, [r8, #8]
 8007884:	b94c      	cbnz	r4, 800789a <__pow5mult+0x66>
 8007886:	f240 2171 	movw	r1, #625	; 0x271
 800788a:	4630      	mov	r0, r6
 800788c:	f7ff ff16 	bl	80076bc <__i2b>
 8007890:	2300      	movs	r3, #0
 8007892:	f8c8 0008 	str.w	r0, [r8, #8]
 8007896:	4604      	mov	r4, r0
 8007898:	6003      	str	r3, [r0, #0]
 800789a:	f04f 0900 	mov.w	r9, #0
 800789e:	07eb      	lsls	r3, r5, #31
 80078a0:	d50a      	bpl.n	80078b8 <__pow5mult+0x84>
 80078a2:	4639      	mov	r1, r7
 80078a4:	4622      	mov	r2, r4
 80078a6:	4630      	mov	r0, r6
 80078a8:	f7ff ff1e 	bl	80076e8 <__multiply>
 80078ac:	4639      	mov	r1, r7
 80078ae:	4680      	mov	r8, r0
 80078b0:	4630      	mov	r0, r6
 80078b2:	f7ff fe47 	bl	8007544 <_Bfree>
 80078b6:	4647      	mov	r7, r8
 80078b8:	106d      	asrs	r5, r5, #1
 80078ba:	d00b      	beq.n	80078d4 <__pow5mult+0xa0>
 80078bc:	6820      	ldr	r0, [r4, #0]
 80078be:	b938      	cbnz	r0, 80078d0 <__pow5mult+0x9c>
 80078c0:	4622      	mov	r2, r4
 80078c2:	4621      	mov	r1, r4
 80078c4:	4630      	mov	r0, r6
 80078c6:	f7ff ff0f 	bl	80076e8 <__multiply>
 80078ca:	6020      	str	r0, [r4, #0]
 80078cc:	f8c0 9000 	str.w	r9, [r0]
 80078d0:	4604      	mov	r4, r0
 80078d2:	e7e4      	b.n	800789e <__pow5mult+0x6a>
 80078d4:	4638      	mov	r0, r7
 80078d6:	e8bd 83f8 	ldmia.w	sp!, {r3, r4, r5, r6, r7, r8, r9, pc}
 80078da:	bf00      	nop
 80078dc:	08008e98 	.word	0x08008e98
 80078e0:	08008cc1 	.word	0x08008cc1
 80078e4:	08008d48 	.word	0x08008d48

080078e8 <__lshift>:
 80078e8:	e92d 47f0 	stmdb	sp!, {r4, r5, r6, r7, r8, r9, sl, lr}
 80078ec:	460c      	mov	r4, r1
 80078ee:	6849      	ldr	r1, [r1, #4]
 80078f0:	6923      	ldr	r3, [r4, #16]
 80078f2:	eb03 1862 	add.w	r8, r3, r2, asr #5
 80078f6:	68a3      	ldr	r3, [r4, #8]
 80078f8:	4607      	mov	r7, r0
 80078fa:	4691      	mov	r9, r2
 80078fc:	ea4f 1a62 	mov.w	sl, r2, asr #5
 8007900:	f108 0601 	add.w	r6, r8, #1
 8007904:	42b3      	cmp	r3, r6
 8007906:	db0b      	blt.n	8007920 <__lshift+0x38>
 8007908:	4638      	mov	r0, r7
 800790a:	f7ff fddb 	bl	80074c4 <_Balloc>
 800790e:	4605      	mov	r5, r0
 8007910:	b948      	cbnz	r0, 8007926 <__lshift+0x3e>
 8007912:	4602      	mov	r2, r0
 8007914:	4b28      	ldr	r3, [pc, #160]	; (80079b8 <__lshift+0xd0>)
 8007916:	4829      	ldr	r0, [pc, #164]	; (80079bc <__lshift+0xd4>)
 8007918:	f240 11d9 	movw	r1, #473	; 0x1d9
 800791c:	f000 fb76 	bl	800800c <__assert_func>
 8007920:	3101      	adds	r1, #1
 8007922:	005b      	lsls	r3, r3, #1
 8007924:	e7ee      	b.n	8007904 <__lshift+0x1c>
 8007926:	2300      	movs	r3, #0
 8007928:	f100 0114 	add.w	r1, r0, #20
 800792c:	f100 0210 	add.w	r2, r0, #16
 8007930:	4618      	mov	r0, r3
 8007932:	4553      	cmp	r3, sl
 8007934:	db33      	blt.n	800799e <__lshift+0xb6>
 8007936:	6920      	ldr	r0, [r4, #16]
 8007938:	ea2a 7aea 	bic.w	sl, sl, sl, asr #31
 800793c:	f104 0314 	add.w	r3, r4, #20
 8007940:	f019 091f 	ands.w	r9, r9, #31
 8007944:	eb01 018a 	add.w	r1, r1, sl, lsl #2
 8007948:	eb03 0c80 	add.w	ip, r3, r0, lsl #2
 800794c:	d02b      	beq.n	80079a6 <__lshift+0xbe>
 800794e:	f1c9 0e20 	rsb	lr, r9, #32
 8007952:	468a      	mov	sl, r1
 8007954:	2200      	movs	r2, #0
 8007956:	6818      	ldr	r0, [r3, #0]
 8007958:	fa00 f009 	lsl.w	r0, r0, r9
 800795c:	4302      	orrs	r2, r0
 800795e:	f84a 2b04 	str.w	r2, [sl], #4
 8007962:	f853 2b04 	ldr.w	r2, [r3], #4
 8007966:	459c      	cmp	ip, r3
 8007968:	fa22 f20e 	lsr.w	r2, r2, lr
 800796c:	d8f3      	bhi.n	8007956 <__lshift+0x6e>
 800796e:	ebac 0304 	sub.w	r3, ip, r4
 8007972:	3b15      	subs	r3, #21
 8007974:	f023 0303 	bic.w	r3, r3, #3
 8007978:	3304      	adds	r3, #4
 800797a:	f104 0015 	add.w	r0, r4, #21
 800797e:	4584      	cmp	ip, r0
 8007980:	bf38      	it	cc
 8007982:	2304      	movcc	r3, #4
 8007984:	50ca      	str	r2, [r1, r3]
 8007986:	b10a      	cbz	r2, 800798c <__lshift+0xa4>
 8007988:	f108 0602 	add.w	r6, r8, #2
 800798c:	3e01      	subs	r6, #1
 800798e:	4638      	mov	r0, r7
 8007990:	612e      	str	r6, [r5, #16]
 8007992:	4621      	mov	r1, r4
 8007994:	f7ff fdd6 	bl	8007544 <_Bfree>
 8007998:	4628      	mov	r0, r5
 800799a:	e8bd 87f0 	ldmia.w	sp!, {r4, r5, r6, r7, r8, r9, sl, pc}
 800799e:	f842 0f04 	str.w	r0, [r2, #4]!
 80079a2:	3301      	adds	r3, #1
 80079a4:	e7c5      	b.n	8007932 <__lshift+0x4a>
 80079a6:	3904      	subs	r1, #4
 80079a8:	f853 2b04 	ldr.w	r2, [r3], #4
 80079ac:	f841 2f04 	str.w	r2, [r1, #4]!
 80079b0:	459c      	cmp	ip, r3
 80079b2:	d8f9      	bhi.n	80079a8 <__lshift+0xc0>
 80079b4:	e7ea      	b.n	800798c <__lshift+0xa4>
 80079b6:	bf00      	nop
 80079b8:	08008d37 	.word	0x08008d37
 80079bc:	08008d48 	.word	0x08008d48

080079c0 <__mcmp>:
 80079c0:	b530      	push	{r4, r5, lr}
 80079c2:	6902      	ldr	r2, [r0, #16]
 80079c4:	690c      	ldr	r4, [r1, #16]
 80079c6:	1b12      	subs	r2, r2, r4
 80079c8:	d10e      	bne.n	80079e8 <__mcmp+0x28>
 80079ca:	f100 0314 	add.w	r3, r0, #20
 80079ce:	3114      	adds	r1, #20
 80079d0:	eb03 0084 	add.w	r0, r3, r4, lsl #2
 80079d4:	eb01 0184 	add.w	r1, r1, r4, lsl #2
 80079d8:	f850 5d04 	ldr.w	r5, [r0, #-4]!
 80079dc:	f851 4d04 	ldr.w	r4, [r1, #-4]!
 80079e0:	42a5      	cmp	r5, r4
 80079e2:	d003      	beq.n	80079ec <__mcmp+0x2c>
 80079e4:	d305      	bcc.n	80079f2 <__mcmp+0x32>
 80079e6:	2201      	movs	r2, #1
 80079e8:	4610      	mov	r0, r2
 80079ea:	bd30      	pop	{r4, r5, pc}
 80079ec:	4283      	cmp	r3, r0
 80079ee:	d3f3      	bcc.n	80079d8 <__mcmp+0x18>
 80079f0:	e7fa      	b.n	80079e8 <__mcmp+0x28>
 80079f2:	f04f 32ff 	mov.w	r2, #4294967295	; 0xffffffff
 80079f6:	e7f7      	b.n	80079e8 <__mcmp+0x28>

080079f8 <__mdiff>:
 80079f8:	e92d 4ff8 	stmdb	sp!, {r3, r4, r5, r6, r7, r8, r9, sl, fp, lr}
 80079fc:	460c      	mov	r4, r1
 80079fe:	4606      	mov	r6, r0
 8007a00:	4611      	mov	r1, r2
 8007a02:	4620      	mov	r0, r4
 8007a04:	4617      	mov	r7, r2
 8007a06:	f7ff ffdb 	bl	80079c0 <__mcmp>
 8007a0a:	1e05      	subs	r5, r0, #0
 8007a0c:	d110      	bne.n	8007a30 <__mdiff+0x38>
 8007a0e:	4629      	mov	r1, r5
 8007a10:	4630      	mov	r0, r6
 8007a12:	f7ff fd57 	bl	80074c4 <_Balloc>
 8007a16:	b930      	cbnz	r0, 8007a26 <__mdiff+0x2e>
 8007a18:	4b39      	ldr	r3, [pc, #228]	; (8007b00 <__mdiff+0x108>)
 8007a1a:	4602      	mov	r2, r0
 8007a1c:	f240 2132 	movw	r1, #562	; 0x232
 8007a20:	4838      	ldr	r0, [pc, #224]	; (8007b04 <__mdiff+0x10c>)
 8007a22:	f000 faf3 	bl	800800c <__assert_func>
 8007a26:	2301      	movs	r3, #1
 8007a28:	e9c0 3504 	strd	r3, r5, [r0, #16]
 8007a2c:	e8bd 8ff8 	ldmia.w	sp!, {r3, r4, r5, r6, r7, r8, r9, sl, fp, pc}
 8007a30:	bfa4      	itt	ge
 8007a32:	463b      	movge	r3, r7
 8007a34:	4627      	movge	r7, r4
 8007a36:	4630      	mov	r0, r6
 8007a38:	6879      	ldr	r1, [r7, #4]
 8007a3a:	bfa6      	itte	ge
 8007a3c:	461c      	movge	r4, r3
 8007a3e:	2500      	movge	r5, #0
 8007a40:	2501      	movlt	r5, #1
 8007a42:	f7ff fd3f 	bl	80074c4 <_Balloc>
 8007a46:	b920      	cbnz	r0, 8007a52 <__mdiff+0x5a>
 8007a48:	4b2d      	ldr	r3, [pc, #180]	; (8007b00 <__mdiff+0x108>)
 8007a4a:	4602      	mov	r2, r0
 8007a4c:	f44f 7110 	mov.w	r1, #576	; 0x240
 8007a50:	e7e6      	b.n	8007a20 <__mdiff+0x28>
 8007a52:	693e      	ldr	r6, [r7, #16]
 8007a54:	60c5      	str	r5, [r0, #12]
 8007a56:	6925      	ldr	r5, [r4, #16]
 8007a58:	f107 0114 	add.w	r1, r7, #20
 8007a5c:	f104 0914 	add.w	r9, r4, #20
 8007a60:	f100 0e14 	add.w	lr, r0, #20
 8007a64:	f107 0210 	add.w	r2, r7, #16
 8007a68:	eb01 0c86 	add.w	ip, r1, r6, lsl #2
 8007a6c:	eb09 0585 	add.w	r5, r9, r5, lsl #2
 8007a70:	46f2      	mov	sl, lr
 8007a72:	2700      	movs	r7, #0
 8007a74:	f859 3b04 	ldr.w	r3, [r9], #4
 8007a78:	f852 bf04 	ldr.w	fp, [r2, #4]!
 8007a7c:	fa1f f883 	uxth.w	r8, r3
 8007a80:	fa17 f78b 	uxtah	r7, r7, fp
 8007a84:	0c1b      	lsrs	r3, r3, #16
 8007a86:	eba7 0808 	sub.w	r8, r7, r8
 8007a8a:	ebc3 431b 	rsb	r3, r3, fp, lsr #16
 8007a8e:	eb03 4328 	add.w	r3, r3, r8, asr #16
 8007a92:	fa1f f888 	uxth.w	r8, r8
 8007a96:	141f      	asrs	r7, r3, #16
 8007a98:	454d      	cmp	r5, r9
 8007a9a:	ea48 4303 	orr.w	r3, r8, r3, lsl #16
 8007a9e:	f84a 3b04 	str.w	r3, [sl], #4
 8007aa2:	d8e7      	bhi.n	8007a74 <__mdiff+0x7c>
 8007aa4:	1b2b      	subs	r3, r5, r4
 8007aa6:	3b15      	subs	r3, #21
 8007aa8:	f023 0303 	bic.w	r3, r3, #3
 8007aac:	3304      	adds	r3, #4
 8007aae:	3415      	adds	r4, #21
 8007ab0:	42a5      	cmp	r5, r4
 8007ab2:	bf38      	it	cc
 8007ab4:	2304      	movcc	r3, #4
 8007ab6:	4419      	add	r1, r3
 8007ab8:	4473      	add	r3, lr
 8007aba:	469e      	mov	lr, r3
 8007abc:	460d      	mov	r5, r1
 8007abe:	4565      	cmp	r5, ip
 8007ac0:	d30e      	bcc.n	8007ae0 <__mdiff+0xe8>
 8007ac2:	f10c 0203 	add.w	r2, ip, #3
 8007ac6:	1a52      	subs	r2, r2, r1
 8007ac8:	f022 0203 	bic.w	r2, r2, #3
 8007acc:	3903      	subs	r1, #3
 8007ace:	458c      	cmp	ip, r1
 8007ad0:	bf38      	it	cc
 8007ad2:	2200      	movcc	r2, #0
 8007ad4:	441a      	add	r2, r3
 8007ad6:	f852 3d04 	ldr.w	r3, [r2, #-4]!
 8007ada:	b17b      	cbz	r3, 8007afc <__mdiff+0x104>
 8007adc:	6106      	str	r6, [r0, #16]
 8007ade:	e7a5      	b.n	8007a2c <__mdiff+0x34>
 8007ae0:	f855 8b04 	ldr.w	r8, [r5], #4
 8007ae4:	fa17 f488 	uxtah	r4, r7, r8
 8007ae8:	1422      	asrs	r2, r4, #16
 8007aea:	eb02 4218 	add.w	r2, r2, r8, lsr #16
 8007aee:	b2a4      	uxth	r4, r4
 8007af0:	ea44 4402 	orr.w	r4, r4, r2, lsl #16
 8007af4:	f84e 4b04 	str.w	r4, [lr], #4
 8007af8:	1417      	asrs	r7, r2, #16
 8007afa:	e7e0      	b.n	8007abe <__mdiff+0xc6>
 8007afc:	3e01      	subs	r6, #1
 8007afe:	e7ea      	b.n	8007ad6 <__mdiff+0xde>
 8007b00:	08008d37 	.word	0x08008d37
 8007b04:	08008d48 	.word	0x08008d48

08007b08 <__d2b>:
 8007b08:	e92d 43f7 	stmdb	sp!, {r0, r1, r2, r4, r5, r6, r7, r8, r9, lr}
 8007b0c:	4689      	mov	r9, r1
 8007b0e:	2101      	movs	r1, #1
 8007b10:	ec57 6b10 	vmov	r6, r7, d0
 8007b14:	4690      	mov	r8, r2
 8007b16:	f7ff fcd5 	bl	80074c4 <_Balloc>
 8007b1a:	4604      	mov	r4, r0
 8007b1c:	b930      	cbnz	r0, 8007b2c <__d2b+0x24>
 8007b1e:	4602      	mov	r2, r0
 8007b20:	4b25      	ldr	r3, [pc, #148]	; (8007bb8 <__d2b+0xb0>)
 8007b22:	4826      	ldr	r0, [pc, #152]	; (8007bbc <__d2b+0xb4>)
 8007b24:	f240 310a 	movw	r1, #778	; 0x30a
 8007b28:	f000 fa70 	bl	800800c <__assert_func>
 8007b2c:	f3c7 550a 	ubfx	r5, r7, #20, #11
 8007b30:	f3c7 0313 	ubfx	r3, r7, #0, #20
 8007b34:	bb35      	cbnz	r5, 8007b84 <__d2b+0x7c>
 8007b36:	2e00      	cmp	r6, #0
 8007b38:	9301      	str	r3, [sp, #4]
 8007b3a:	d028      	beq.n	8007b8e <__d2b+0x86>
 8007b3c:	4668      	mov	r0, sp
 8007b3e:	9600      	str	r6, [sp, #0]
 8007b40:	f7ff fd8c 	bl	800765c <__lo0bits>
 8007b44:	9900      	ldr	r1, [sp, #0]
 8007b46:	b300      	cbz	r0, 8007b8a <__d2b+0x82>
 8007b48:	9a01      	ldr	r2, [sp, #4]
 8007b4a:	f1c0 0320 	rsb	r3, r0, #32
 8007b4e:	fa02 f303 	lsl.w	r3, r2, r3
 8007b52:	430b      	orrs	r3, r1
 8007b54:	40c2      	lsrs	r2, r0
 8007b56:	6163      	str	r3, [r4, #20]
 8007b58:	9201      	str	r2, [sp, #4]
 8007b5a:	9b01      	ldr	r3, [sp, #4]
 8007b5c:	61a3      	str	r3, [r4, #24]
 8007b5e:	2b00      	cmp	r3, #0
 8007b60:	bf14      	ite	ne
 8007b62:	2202      	movne	r2, #2
 8007b64:	2201      	moveq	r2, #1
 8007b66:	6122      	str	r2, [r4, #16]
 8007b68:	b1d5      	cbz	r5, 8007ba0 <__d2b+0x98>
 8007b6a:	f2a5 4533 	subw	r5, r5, #1075	; 0x433
 8007b6e:	4405      	add	r5, r0
 8007b70:	f8c9 5000 	str.w	r5, [r9]
 8007b74:	f1c0 0035 	rsb	r0, r0, #53	; 0x35
 8007b78:	f8c8 0000 	str.w	r0, [r8]
 8007b7c:	4620      	mov	r0, r4
 8007b7e:	b003      	add	sp, #12
 8007b80:	e8bd 83f0 	ldmia.w	sp!, {r4, r5, r6, r7, r8, r9, pc}
 8007b84:	f443 1380 	orr.w	r3, r3, #1048576	; 0x100000
 8007b88:	e7d5      	b.n	8007b36 <__d2b+0x2e>
 8007b8a:	6161      	str	r1, [r4, #20]
 8007b8c:	e7e5      	b.n	8007b5a <__d2b+0x52>
 8007b8e:	a801      	add	r0, sp, #4
 8007b90:	f7ff fd64 	bl	800765c <__lo0bits>
 8007b94:	9b01      	ldr	r3, [sp, #4]
 8007b96:	6163      	str	r3, [r4, #20]
 8007b98:	2201      	movs	r2, #1
 8007b9a:	6122      	str	r2, [r4, #16]
 8007b9c:	3020      	adds	r0, #32
 8007b9e:	e7e3      	b.n	8007b68 <__d2b+0x60>
 8007ba0:	eb04 0382 	add.w	r3, r4, r2, lsl #2
 8007ba4:	f2a0 4032 	subw	r0, r0, #1074	; 0x432
 8007ba8:	f8c9 0000 	str.w	r0, [r9]
 8007bac:	6918      	ldr	r0, [r3, #16]
 8007bae:	f7ff fd35 	bl	800761c <__hi0bits>
 8007bb2:	ebc0 1042 	rsb	r0, r0, r2, lsl #5
 8007bb6:	e7df      	b.n	8007b78 <__d2b+0x70>
 8007bb8:	08008d37 	.word	0x08008d37
 8007bbc:	08008d48 	.word	0x08008d48

08007bc0 <_calloc_r>:
 8007bc0:	b513      	push	{r0, r1, r4, lr}
 8007bc2:	434a      	muls	r2, r1
 8007bc4:	4611      	mov	r1, r2
 8007bc6:	9201      	str	r2, [sp, #4]
 8007bc8:	f000 f85a 	bl	8007c80 <_malloc_r>
 8007bcc:	4604      	mov	r4, r0
 8007bce:	b118      	cbz	r0, 8007bd8 <_calloc_r+0x18>
 8007bd0:	9a01      	ldr	r2, [sp, #4]
 8007bd2:	2100      	movs	r1, #0
 8007bd4:	f7fe f950 	bl	8005e78 <memset>
 8007bd8:	4620      	mov	r0, r4
 8007bda:	b002      	add	sp, #8
 8007bdc:	bd10      	pop	{r4, pc}
	...

08007be0 <_free_r>:
 8007be0:	b537      	push	{r0, r1, r2, r4, r5, lr}
 8007be2:	2900      	cmp	r1, #0
 8007be4:	d048      	beq.n	8007c78 <_free_r+0x98>
 8007be6:	f851 3c04 	ldr.w	r3, [r1, #-4]
 8007bea:	9001      	str	r0, [sp, #4]
 8007bec:	2b00      	cmp	r3, #0
 8007bee:	f1a1 0404 	sub.w	r4, r1, #4
 8007bf2:	bfb8      	it	lt
 8007bf4:	18e4      	addlt	r4, r4, r3
 8007bf6:	f000 fa65 	bl	80080c4 <__malloc_lock>
 8007bfa:	4a20      	ldr	r2, [pc, #128]	; (8007c7c <_free_r+0x9c>)
 8007bfc:	9801      	ldr	r0, [sp, #4]
 8007bfe:	6813      	ldr	r3, [r2, #0]
 8007c00:	4615      	mov	r5, r2
 8007c02:	b933      	cbnz	r3, 8007c12 <_free_r+0x32>
 8007c04:	6063      	str	r3, [r4, #4]
 8007c06:	6014      	str	r4, [r2, #0]
 8007c08:	b003      	add	sp, #12
 8007c0a:	e8bd 4030 	ldmia.w	sp!, {r4, r5, lr}
 8007c0e:	f000 ba5f 	b.w	80080d0 <__malloc_unlock>
 8007c12:	42a3      	cmp	r3, r4
 8007c14:	d90b      	bls.n	8007c2e <_free_r+0x4e>
 8007c16:	6821      	ldr	r1, [r4, #0]
 8007c18:	1862      	adds	r2, r4, r1
 8007c1a:	4293      	cmp	r3, r2
 8007c1c:	bf04      	itt	eq
 8007c1e:	681a      	ldreq	r2, [r3, #0]
 8007c20:	685b      	ldreq	r3, [r3, #4]
 8007c22:	6063      	str	r3, [r4, #4]
 8007c24:	bf04      	itt	eq
 8007c26:	1852      	addeq	r2, r2, r1
 8007c28:	6022      	streq	r2, [r4, #0]
 8007c2a:	602c      	str	r4, [r5, #0]
 8007c2c:	e7ec      	b.n	8007c08 <_free_r+0x28>
 8007c2e:	461a      	mov	r2, r3
 8007c30:	685b      	ldr	r3, [r3, #4]
 8007c32:	b10b      	cbz	r3, 8007c38 <_free_r+0x58>
 8007c34:	42a3      	cmp	r3, r4
 8007c36:	d9fa      	bls.n	8007c2e <_free_r+0x4e>
 8007c38:	6811      	ldr	r1, [r2, #0]
 8007c3a:	1855      	adds	r5, r2, r1
 8007c3c:	42a5      	cmp	r5, r4
 8007c3e:	d10b      	bne.n	8007c58 <_free_r+0x78>
 8007c40:	6824      	ldr	r4, [r4, #0]
 8007c42:	4421      	add	r1, r4
 8007c44:	1854      	adds	r4, r2, r1
 8007c46:	42a3      	cmp	r3, r4
 8007c48:	6011      	str	r1, [r2, #0]
 8007c4a:	d1dd      	bne.n	8007c08 <_free_r+0x28>
 8007c4c:	681c      	ldr	r4, [r3, #0]
 8007c4e:	685b      	ldr	r3, [r3, #4]
 8007c50:	6053      	str	r3, [r2, #4]
 8007c52:	4421      	add	r1, r4
 8007c54:	6011      	str	r1, [r2, #0]
 8007c56:	e7d7      	b.n	8007c08 <_free_r+0x28>
 8007c58:	d902      	bls.n	8007c60 <_free_r+0x80>
 8007c5a:	230c      	movs	r3, #12
 8007c5c:	6003      	str	r3, [r0, #0]
 8007c5e:	e7d3      	b.n	8007c08 <_free_r+0x28>
 8007c60:	6825      	ldr	r5, [r4, #0]
 8007c62:	1961      	adds	r1, r4, r5
 8007c64:	428b      	cmp	r3, r1
 8007c66:	bf04      	itt	eq
 8007c68:	6819      	ldreq	r1, [r3, #0]
 8007c6a:	685b      	ldreq	r3, [r3, #4]
 8007c6c:	6063      	str	r3, [r4, #4]
 8007c6e:	bf04      	itt	eq
 8007c70:	1949      	addeq	r1, r1, r5
 8007c72:	6021      	streq	r1, [r4, #0]
 8007c74:	6054      	str	r4, [r2, #4]
 8007c76:	e7c7      	b.n	8007c08 <_free_r+0x28>
 8007c78:	b003      	add	sp, #12
 8007c7a:	bd30      	pop	{r4, r5, pc}
 8007c7c:	200002b4 	.word	0x200002b4

08007c80 <_malloc_r>:
 8007c80:	b5f8      	push	{r3, r4, r5, r6, r7, lr}
 8007c82:	1ccd      	adds	r5, r1, #3
 8007c84:	f025 0503 	bic.w	r5, r5, #3
 8007c88:	3508      	adds	r5, #8
 8007c8a:	2d0c      	cmp	r5, #12
 8007c8c:	bf38      	it	cc
 8007c8e:	250c      	movcc	r5, #12
 8007c90:	2d00      	cmp	r5, #0
 8007c92:	4606      	mov	r6, r0
 8007c94:	db01      	blt.n	8007c9a <_malloc_r+0x1a>
 8007c96:	42a9      	cmp	r1, r5
 8007c98:	d903      	bls.n	8007ca2 <_malloc_r+0x22>
 8007c9a:	230c      	movs	r3, #12
 8007c9c:	6033      	str	r3, [r6, #0]
 8007c9e:	2000      	movs	r0, #0
 8007ca0:	bdf8      	pop	{r3, r4, r5, r6, r7, pc}
 8007ca2:	f000 fa0f 	bl	80080c4 <__malloc_lock>
 8007ca6:	4921      	ldr	r1, [pc, #132]	; (8007d2c <_malloc_r+0xac>)
 8007ca8:	680a      	ldr	r2, [r1, #0]
 8007caa:	4614      	mov	r4, r2
 8007cac:	b99c      	cbnz	r4, 8007cd6 <_malloc_r+0x56>
 8007cae:	4f20      	ldr	r7, [pc, #128]	; (8007d30 <_malloc_r+0xb0>)
 8007cb0:	683b      	ldr	r3, [r7, #0]
 8007cb2:	b923      	cbnz	r3, 8007cbe <_malloc_r+0x3e>
 8007cb4:	4621      	mov	r1, r4
 8007cb6:	4630      	mov	r0, r6
 8007cb8:	f000 f998 	bl	8007fec <_sbrk_r>
 8007cbc:	6038      	str	r0, [r7, #0]
 8007cbe:	4629      	mov	r1, r5
 8007cc0:	4630      	mov	r0, r6
 8007cc2:	f000 f993 	bl	8007fec <_sbrk_r>
 8007cc6:	1c43      	adds	r3, r0, #1
 8007cc8:	d123      	bne.n	8007d12 <_malloc_r+0x92>
 8007cca:	230c      	movs	r3, #12
 8007ccc:	6033      	str	r3, [r6, #0]
 8007cce:	4630      	mov	r0, r6
 8007cd0:	f000 f9fe 	bl	80080d0 <__malloc_unlock>
 8007cd4:	e7e3      	b.n	8007c9e <_malloc_r+0x1e>
 8007cd6:	6823      	ldr	r3, [r4, #0]
 8007cd8:	1b5b      	subs	r3, r3, r5
 8007cda:	d417      	bmi.n	8007d0c <_malloc_r+0x8c>
 8007cdc:	2b0b      	cmp	r3, #11
 8007cde:	d903      	bls.n	8007ce8 <_malloc_r+0x68>
 8007ce0:	6023      	str	r3, [r4, #0]
 8007ce2:	441c      	add	r4, r3
 8007ce4:	6025      	str	r5, [r4, #0]
 8007ce6:	e004      	b.n	8007cf2 <_malloc_r+0x72>
 8007ce8:	6863      	ldr	r3, [r4, #4]
 8007cea:	42a2      	cmp	r2, r4
 8007cec:	bf0c      	ite	eq
 8007cee:	600b      	streq	r3, [r1, #0]
 8007cf0:	6053      	strne	r3, [r2, #4]
 8007cf2:	4630      	mov	r0, r6
 8007cf4:	f000 f9ec 	bl	80080d0 <__malloc_unlock>
 8007cf8:	f104 000b 	add.w	r0, r4, #11
 8007cfc:	1d23      	adds	r3, r4, #4
 8007cfe:	f020 0007 	bic.w	r0, r0, #7
 8007d02:	1ac2      	subs	r2, r0, r3
 8007d04:	d0cc      	beq.n	8007ca0 <_malloc_r+0x20>
 8007d06:	1a1b      	subs	r3, r3, r0
 8007d08:	50a3      	str	r3, [r4, r2]
 8007d0a:	e7c9      	b.n	8007ca0 <_malloc_r+0x20>
 8007d0c:	4622      	mov	r2, r4
 8007d0e:	6864      	ldr	r4, [r4, #4]
 8007d10:	e7cc      	b.n	8007cac <_malloc_r+0x2c>
 8007d12:	1cc4      	adds	r4, r0, #3
 8007d14:	f024 0403 	bic.w	r4, r4, #3
 8007d18:	42a0      	cmp	r0, r4
 8007d1a:	d0e3      	beq.n	8007ce4 <_malloc_r+0x64>
 8007d1c:	1a21      	subs	r1, r4, r0
 8007d1e:	4630      	mov	r0, r6
 8007d20:	f000 f964 	bl	8007fec <_sbrk_r>
 8007d24:	3001      	adds	r0, #1
 8007d26:	d1dd      	bne.n	8007ce4 <_malloc_r+0x64>
 8007d28:	e7cf      	b.n	8007cca <_malloc_r+0x4a>
 8007d2a:	bf00      	nop
 8007d2c:	200002b4 	.word	0x200002b4
 8007d30:	200002b8 	.word	0x200002b8

08007d34 <__ssputs_r>:
 8007d34:	e92d 47f0 	stmdb	sp!, {r4, r5, r6, r7, r8, r9, sl, lr}
 8007d38:	688e      	ldr	r6, [r1, #8]
 8007d3a:	429e      	cmp	r6, r3
 8007d3c:	4682      	mov	sl, r0
 8007d3e:	460c      	mov	r4, r1
 8007d40:	4690      	mov	r8, r2
 8007d42:	461f      	mov	r7, r3
 8007d44:	d838      	bhi.n	8007db8 <__ssputs_r+0x84>
 8007d46:	898a      	ldrh	r2, [r1, #12]
 8007d48:	f412 6f90 	tst.w	r2, #1152	; 0x480
 8007d4c:	d032      	beq.n	8007db4 <__ssputs_r+0x80>
 8007d4e:	6825      	ldr	r5, [r4, #0]
 8007d50:	6909      	ldr	r1, [r1, #16]
 8007d52:	eba5 0901 	sub.w	r9, r5, r1
 8007d56:	6965      	ldr	r5, [r4, #20]
 8007d58:	eb05 0545 	add.w	r5, r5, r5, lsl #1
 8007d5c:	eb05 75d5 	add.w	r5, r5, r5, lsr #31
 8007d60:	3301      	adds	r3, #1
 8007d62:	444b      	add	r3, r9
 8007d64:	106d      	asrs	r5, r5, #1
 8007d66:	429d      	cmp	r5, r3
 8007d68:	bf38      	it	cc
 8007d6a:	461d      	movcc	r5, r3
 8007d6c:	0553      	lsls	r3, r2, #21
 8007d6e:	d531      	bpl.n	8007dd4 <__ssputs_r+0xa0>
 8007d70:	4629      	mov	r1, r5
 8007d72:	f7ff ff85 	bl	8007c80 <_malloc_r>
 8007d76:	4606      	mov	r6, r0
 8007d78:	b950      	cbnz	r0, 8007d90 <__ssputs_r+0x5c>
 8007d7a:	230c      	movs	r3, #12
 8007d7c:	f8ca 3000 	str.w	r3, [sl]
 8007d80:	89a3      	ldrh	r3, [r4, #12]
 8007d82:	f043 0340 	orr.w	r3, r3, #64	; 0x40
 8007d86:	81a3      	strh	r3, [r4, #12]
 8007d88:	f04f 30ff 	mov.w	r0, #4294967295	; 0xffffffff
 8007d8c:	e8bd 87f0 	ldmia.w	sp!, {r4, r5, r6, r7, r8, r9, sl, pc}
 8007d90:	6921      	ldr	r1, [r4, #16]
 8007d92:	464a      	mov	r2, r9
 8007d94:	f7ff fb88 	bl	80074a8 <memcpy>
 8007d98:	89a3      	ldrh	r3, [r4, #12]
 8007d9a:	f423 6390 	bic.w	r3, r3, #1152	; 0x480
 8007d9e:	f043 0380 	orr.w	r3, r3, #128	; 0x80
 8007da2:	81a3      	strh	r3, [r4, #12]
 8007da4:	6126      	str	r6, [r4, #16]
 8007da6:	6165      	str	r5, [r4, #20]
 8007da8:	444e      	add	r6, r9
 8007daa:	eba5 0509 	sub.w	r5, r5, r9
 8007dae:	6026      	str	r6, [r4, #0]
 8007db0:	60a5      	str	r5, [r4, #8]
 8007db2:	463e      	mov	r6, r7
 8007db4:	42be      	cmp	r6, r7
 8007db6:	d900      	bls.n	8007dba <__ssputs_r+0x86>
 8007db8:	463e      	mov	r6, r7
 8007dba:	4632      	mov	r2, r6
 8007dbc:	6820      	ldr	r0, [r4, #0]
 8007dbe:	4641      	mov	r1, r8
 8007dc0:	f000 f966 	bl	8008090 <memmove>
 8007dc4:	68a3      	ldr	r3, [r4, #8]
 8007dc6:	6822      	ldr	r2, [r4, #0]
 8007dc8:	1b9b      	subs	r3, r3, r6
 8007dca:	4432      	add	r2, r6
 8007dcc:	60a3      	str	r3, [r4, #8]
 8007dce:	6022      	str	r2, [r4, #0]
 8007dd0:	2000      	movs	r0, #0
 8007dd2:	e7db      	b.n	8007d8c <__ssputs_r+0x58>
 8007dd4:	462a      	mov	r2, r5
 8007dd6:	f000 f981 	bl	80080dc <_realloc_r>
 8007dda:	4606      	mov	r6, r0
 8007ddc:	2800      	cmp	r0, #0
 8007dde:	d1e1      	bne.n	8007da4 <__ssputs_r+0x70>
 8007de0:	6921      	ldr	r1, [r4, #16]
 8007de2:	4650      	mov	r0, sl
 8007de4:	f7ff fefc 	bl	8007be0 <_free_r>
 8007de8:	e7c7      	b.n	8007d7a <__ssputs_r+0x46>
	...

08007dec <_svfiprintf_r>:
 8007dec:	e92d 4ff0 	stmdb	sp!, {r4, r5, r6, r7, r8, r9, sl, fp, lr}
 8007df0:	4698      	mov	r8, r3
 8007df2:	898b      	ldrh	r3, [r1, #12]
 8007df4:	061b      	lsls	r3, r3, #24
 8007df6:	b09d      	sub	sp, #116	; 0x74
 8007df8:	4607      	mov	r7, r0
 8007dfa:	460d      	mov	r5, r1
 8007dfc:	4614      	mov	r4, r2
 8007dfe:	d50e      	bpl.n	8007e1e <_svfiprintf_r+0x32>
 8007e00:	690b      	ldr	r3, [r1, #16]
 8007e02:	b963      	cbnz	r3, 8007e1e <_svfiprintf_r+0x32>
 8007e04:	2140      	movs	r1, #64	; 0x40
 8007e06:	f7ff ff3b 	bl	8007c80 <_malloc_r>
 8007e0a:	6028      	str	r0, [r5, #0]
 8007e0c:	6128      	str	r0, [r5, #16]
 8007e0e:	b920      	cbnz	r0, 8007e1a <_svfiprintf_r+0x2e>
 8007e10:	230c      	movs	r3, #12
 8007e12:	603b      	str	r3, [r7, #0]
 8007e14:	f04f 30ff 	mov.w	r0, #4294967295	; 0xffffffff
 8007e18:	e0d1      	b.n	8007fbe <_svfiprintf_r+0x1d2>
 8007e1a:	2340      	movs	r3, #64	; 0x40
 8007e1c:	616b      	str	r3, [r5, #20]
 8007e1e:	2300      	movs	r3, #0
 8007e20:	9309      	str	r3, [sp, #36]	; 0x24
 8007e22:	2320      	movs	r3, #32
 8007e24:	f88d 3029 	strb.w	r3, [sp, #41]	; 0x29
 8007e28:	f8cd 800c 	str.w	r8, [sp, #12]
 8007e2c:	2330      	movs	r3, #48	; 0x30
 8007e2e:	f8df 81a8 	ldr.w	r8, [pc, #424]	; 8007fd8 <_svfiprintf_r+0x1ec>
 8007e32:	f88d 302a 	strb.w	r3, [sp, #42]	; 0x2a
 8007e36:	f04f 0901 	mov.w	r9, #1
 8007e3a:	4623      	mov	r3, r4
 8007e3c:	469a      	mov	sl, r3
 8007e3e:	f813 2b01 	ldrb.w	r2, [r3], #1
 8007e42:	b10a      	cbz	r2, 8007e48 <_svfiprintf_r+0x5c>
 8007e44:	2a25      	cmp	r2, #37	; 0x25
 8007e46:	d1f9      	bne.n	8007e3c <_svfiprintf_r+0x50>
 8007e48:	ebba 0b04 	subs.w	fp, sl, r4
 8007e4c:	d00b      	beq.n	8007e66 <_svfiprintf_r+0x7a>
 8007e4e:	465b      	mov	r3, fp
 8007e50:	4622      	mov	r2, r4
 8007e52:	4629      	mov	r1, r5
 8007e54:	4638      	mov	r0, r7
 8007e56:	f7ff ff6d 	bl	8007d34 <__ssputs_r>
 8007e5a:	3001      	adds	r0, #1
 8007e5c:	f000 80aa 	beq.w	8007fb4 <_svfiprintf_r+0x1c8>
 8007e60:	9a09      	ldr	r2, [sp, #36]	; 0x24
 8007e62:	445a      	add	r2, fp
 8007e64:	9209      	str	r2, [sp, #36]	; 0x24
 8007e66:	f89a 3000 	ldrb.w	r3, [sl]
 8007e6a:	2b00      	cmp	r3, #0
 8007e6c:	f000 80a2 	beq.w	8007fb4 <_svfiprintf_r+0x1c8>
 8007e70:	2300      	movs	r3, #0
 8007e72:	f04f 32ff 	mov.w	r2, #4294967295	; 0xffffffff
 8007e76:	e9cd 2305 	strd	r2, r3, [sp, #20]
 8007e7a:	f10a 0a01 	add.w	sl, sl, #1
 8007e7e:	9304      	str	r3, [sp, #16]
 8007e80:	9307      	str	r3, [sp, #28]
 8007e82:	f88d 3053 	strb.w	r3, [sp, #83]	; 0x53
 8007e86:	931a      	str	r3, [sp, #104]	; 0x68
 8007e88:	4654      	mov	r4, sl
 8007e8a:	2205      	movs	r2, #5
 8007e8c:	f814 1b01 	ldrb.w	r1, [r4], #1
 8007e90:	4851      	ldr	r0, [pc, #324]	; (8007fd8 <_svfiprintf_r+0x1ec>)
 8007e92:	f7f8 f9c5 	bl	8000220 <memchr>
 8007e96:	9a04      	ldr	r2, [sp, #16]
 8007e98:	b9d8      	cbnz	r0, 8007ed2 <_svfiprintf_r+0xe6>
 8007e9a:	06d0      	lsls	r0, r2, #27
 8007e9c:	bf44      	itt	mi
 8007e9e:	2320      	movmi	r3, #32
 8007ea0:	f88d 3053 	strbmi.w	r3, [sp, #83]	; 0x53
 8007ea4:	0711      	lsls	r1, r2, #28
 8007ea6:	bf44      	itt	mi
 8007ea8:	232b      	movmi	r3, #43	; 0x2b
 8007eaa:	f88d 3053 	strbmi.w	r3, [sp, #83]	; 0x53
 8007eae:	f89a 3000 	ldrb.w	r3, [sl]
 8007eb2:	2b2a      	cmp	r3, #42	; 0x2a
 8007eb4:	d015      	beq.n	8007ee2 <_svfiprintf_r+0xf6>
 8007eb6:	9a07      	ldr	r2, [sp, #28]
 8007eb8:	4654      	mov	r4, sl
 8007eba:	2000      	movs	r0, #0
 8007ebc:	f04f 0c0a 	mov.w	ip, #10
 8007ec0:	4621      	mov	r1, r4
 8007ec2:	f811 3b01 	ldrb.w	r3, [r1], #1
 8007ec6:	3b30      	subs	r3, #48	; 0x30
 8007ec8:	2b09      	cmp	r3, #9
 8007eca:	d94e      	bls.n	8007f6a <_svfiprintf_r+0x17e>
 8007ecc:	b1b0      	cbz	r0, 8007efc <_svfiprintf_r+0x110>
 8007ece:	9207      	str	r2, [sp, #28]
 8007ed0:	e014      	b.n	8007efc <_svfiprintf_r+0x110>
 8007ed2:	eba0 0308 	sub.w	r3, r0, r8
 8007ed6:	fa09 f303 	lsl.w	r3, r9, r3
 8007eda:	4313      	orrs	r3, r2
 8007edc:	9304      	str	r3, [sp, #16]
 8007ede:	46a2      	mov	sl, r4
 8007ee0:	e7d2      	b.n	8007e88 <_svfiprintf_r+0x9c>
 8007ee2:	9b03      	ldr	r3, [sp, #12]
 8007ee4:	1d19      	adds	r1, r3, #4
 8007ee6:	681b      	ldr	r3, [r3, #0]
 8007ee8:	9103      	str	r1, [sp, #12]
 8007eea:	2b00      	cmp	r3, #0
 8007eec:	bfbb      	ittet	lt
 8007eee:	425b      	neglt	r3, r3
 8007ef0:	f042 0202 	orrlt.w	r2, r2, #2
 8007ef4:	9307      	strge	r3, [sp, #28]
 8007ef6:	9307      	strlt	r3, [sp, #28]
 8007ef8:	bfb8      	it	lt
 8007efa:	9204      	strlt	r2, [sp, #16]
 8007efc:	7823      	ldrb	r3, [r4, #0]
 8007efe:	2b2e      	cmp	r3, #46	; 0x2e
 8007f00:	d10c      	bne.n	8007f1c <_svfiprintf_r+0x130>
 8007f02:	7863      	ldrb	r3, [r4, #1]
 8007f04:	2b2a      	cmp	r3, #42	; 0x2a
 8007f06:	d135      	bne.n	8007f74 <_svfiprintf_r+0x188>
 8007f08:	9b03      	ldr	r3, [sp, #12]
 8007f0a:	1d1a      	adds	r2, r3, #4
 8007f0c:	681b      	ldr	r3, [r3, #0]
 8007f0e:	9203      	str	r2, [sp, #12]
 8007f10:	2b00      	cmp	r3, #0
 8007f12:	bfb8      	it	lt
 8007f14:	f04f 33ff 	movlt.w	r3, #4294967295	; 0xffffffff
 8007f18:	3402      	adds	r4, #2
 8007f1a:	9305      	str	r3, [sp, #20]
 8007f1c:	f8df a0c8 	ldr.w	sl, [pc, #200]	; 8007fe8 <_svfiprintf_r+0x1fc>
 8007f20:	7821      	ldrb	r1, [r4, #0]
 8007f22:	2203      	movs	r2, #3
 8007f24:	4650      	mov	r0, sl
 8007f26:	f7f8 f97b 	bl	8000220 <memchr>
 8007f2a:	b140      	cbz	r0, 8007f3e <_svfiprintf_r+0x152>
 8007f2c:	2340      	movs	r3, #64	; 0x40
 8007f2e:	eba0 000a 	sub.w	r0, r0, sl
 8007f32:	fa03 f000 	lsl.w	r0, r3, r0
 8007f36:	9b04      	ldr	r3, [sp, #16]
 8007f38:	4303      	orrs	r3, r0
 8007f3a:	3401      	adds	r4, #1
 8007f3c:	9304      	str	r3, [sp, #16]
 8007f3e:	f814 1b01 	ldrb.w	r1, [r4], #1
 8007f42:	4826      	ldr	r0, [pc, #152]	; (8007fdc <_svfiprintf_r+0x1f0>)
 8007f44:	f88d 1028 	strb.w	r1, [sp, #40]	; 0x28
 8007f48:	2206      	movs	r2, #6
 8007f4a:	f7f8 f969 	bl	8000220 <memchr>
 8007f4e:	2800      	cmp	r0, #0
 8007f50:	d038      	beq.n	8007fc4 <_svfiprintf_r+0x1d8>
 8007f52:	4b23      	ldr	r3, [pc, #140]	; (8007fe0 <_svfiprintf_r+0x1f4>)
 8007f54:	bb1b      	cbnz	r3, 8007f9e <_svfiprintf_r+0x1b2>
 8007f56:	9b03      	ldr	r3, [sp, #12]
 8007f58:	3307      	adds	r3, #7
 8007f5a:	f023 0307 	bic.w	r3, r3, #7
 8007f5e:	3308      	adds	r3, #8
 8007f60:	9303      	str	r3, [sp, #12]
 8007f62:	9b09      	ldr	r3, [sp, #36]	; 0x24
 8007f64:	4433      	add	r3, r6
 8007f66:	9309      	str	r3, [sp, #36]	; 0x24
 8007f68:	e767      	b.n	8007e3a <_svfiprintf_r+0x4e>
 8007f6a:	fb0c 3202 	mla	r2, ip, r2, r3
 8007f6e:	460c      	mov	r4, r1
 8007f70:	2001      	movs	r0, #1
 8007f72:	e7a5      	b.n	8007ec0 <_svfiprintf_r+0xd4>
 8007f74:	2300      	movs	r3, #0
 8007f76:	3401      	adds	r4, #1
 8007f78:	9305      	str	r3, [sp, #20]
 8007f7a:	4619      	mov	r1, r3
 8007f7c:	f04f 0c0a 	mov.w	ip, #10
 8007f80:	4620      	mov	r0, r4
 8007f82:	f810 2b01 	ldrb.w	r2, [r0], #1
 8007f86:	3a30      	subs	r2, #48	; 0x30
 8007f88:	2a09      	cmp	r2, #9
 8007f8a:	d903      	bls.n	8007f94 <_svfiprintf_r+0x1a8>
 8007f8c:	2b00      	cmp	r3, #0
 8007f8e:	d0c5      	beq.n	8007f1c <_svfiprintf_r+0x130>
 8007f90:	9105      	str	r1, [sp, #20]
 8007f92:	e7c3      	b.n	8007f1c <_svfiprintf_r+0x130>
 8007f94:	fb0c 2101 	mla	r1, ip, r1, r2
 8007f98:	4604      	mov	r4, r0
 8007f9a:	2301      	movs	r3, #1
 8007f9c:	e7f0      	b.n	8007f80 <_svfiprintf_r+0x194>
 8007f9e:	ab03      	add	r3, sp, #12
 8007fa0:	9300      	str	r3, [sp, #0]
 8007fa2:	462a      	mov	r2, r5
 8007fa4:	4b0f      	ldr	r3, [pc, #60]	; (8007fe4 <_svfiprintf_r+0x1f8>)
 8007fa6:	a904      	add	r1, sp, #16
 8007fa8:	4638      	mov	r0, r7
 8007faa:	f7fe f80d 	bl	8005fc8 <_printf_float>
 8007fae:	1c42      	adds	r2, r0, #1
 8007fb0:	4606      	mov	r6, r0
 8007fb2:	d1d6      	bne.n	8007f62 <_svfiprintf_r+0x176>
 8007fb4:	89ab      	ldrh	r3, [r5, #12]
 8007fb6:	065b      	lsls	r3, r3, #25
 8007fb8:	f53f af2c 	bmi.w	8007e14 <_svfiprintf_r+0x28>
 8007fbc:	9809      	ldr	r0, [sp, #36]	; 0x24
 8007fbe:	b01d      	add	sp, #116	; 0x74
 8007fc0:	e8bd 8ff0 	ldmia.w	sp!, {r4, r5, r6, r7, r8, r9, sl, fp, pc}
 8007fc4:	ab03      	add	r3, sp, #12
 8007fc6:	9300      	str	r3, [sp, #0]
 8007fc8:	462a      	mov	r2, r5
 8007fca:	4b06      	ldr	r3, [pc, #24]	; (8007fe4 <_svfiprintf_r+0x1f8>)
 8007fcc:	a904      	add	r1, sp, #16
 8007fce:	4638      	mov	r0, r7
 8007fd0:	f7fe fa9e 	bl	8006510 <_printf_i>
 8007fd4:	e7eb      	b.n	8007fae <_svfiprintf_r+0x1c2>
 8007fd6:	bf00      	nop
 8007fd8:	08008ea4 	.word	0x08008ea4
 8007fdc:	08008eae 	.word	0x08008eae
 8007fe0:	08005fc9 	.word	0x08005fc9
 8007fe4:	08007d35 	.word	0x08007d35
 8007fe8:	08008eaa 	.word	0x08008eaa

08007fec <_sbrk_r>:
 8007fec:	b538      	push	{r3, r4, r5, lr}
 8007fee:	4d06      	ldr	r5, [pc, #24]	; (8008008 <_sbrk_r+0x1c>)
 8007ff0:	2300      	movs	r3, #0
 8007ff2:	4604      	mov	r4, r0
 8007ff4:	4608      	mov	r0, r1
 8007ff6:	602b      	str	r3, [r5, #0]
 8007ff8:	f7fa f9aa 	bl	8002350 <_sbrk>
 8007ffc:	1c43      	adds	r3, r0, #1
 8007ffe:	d102      	bne.n	8008006 <_sbrk_r+0x1a>
 8008000:	682b      	ldr	r3, [r5, #0]
 8008002:	b103      	cbz	r3, 8008006 <_sbrk_r+0x1a>
 8008004:	6023      	str	r3, [r4, #0]
 8008006:	bd38      	pop	{r3, r4, r5, pc}
 8008008:	20000548 	.word	0x20000548

0800800c <__assert_func>:
 800800c:	b51f      	push	{r0, r1, r2, r3, r4, lr}
 800800e:	4614      	mov	r4, r2
 8008010:	461a      	mov	r2, r3
 8008012:	4b09      	ldr	r3, [pc, #36]	; (8008038 <__assert_func+0x2c>)
 8008014:	681b      	ldr	r3, [r3, #0]
 8008016:	4605      	mov	r5, r0
 8008018:	68d8      	ldr	r0, [r3, #12]
 800801a:	b14c      	cbz	r4, 8008030 <__assert_func+0x24>
 800801c:	4b07      	ldr	r3, [pc, #28]	; (800803c <__assert_func+0x30>)
 800801e:	9100      	str	r1, [sp, #0]
 8008020:	e9cd 3401 	strd	r3, r4, [sp, #4]
 8008024:	4906      	ldr	r1, [pc, #24]	; (8008040 <__assert_func+0x34>)
 8008026:	462b      	mov	r3, r5
 8008028:	f000 f80e 	bl	8008048 <fiprintf>
 800802c:	f000 faa4 	bl	8008578 <abort>
 8008030:	4b04      	ldr	r3, [pc, #16]	; (8008044 <__assert_func+0x38>)
 8008032:	461c      	mov	r4, r3
 8008034:	e7f3      	b.n	800801e <__assert_func+0x12>
 8008036:	bf00      	nop
 8008038:	20000024 	.word	0x20000024
 800803c:	08008eb5 	.word	0x08008eb5
 8008040:	08008ec2 	.word	0x08008ec2
 8008044:	08008ef0 	.word	0x08008ef0

08008048 <fiprintf>:
 8008048:	b40e      	push	{r1, r2, r3}
 800804a:	b503      	push	{r0, r1, lr}
 800804c:	4601      	mov	r1, r0
 800804e:	ab03      	add	r3, sp, #12
 8008050:	4805      	ldr	r0, [pc, #20]	; (8008068 <fiprintf+0x20>)
 8008052:	f853 2b04 	ldr.w	r2, [r3], #4
 8008056:	6800      	ldr	r0, [r0, #0]
 8008058:	9301      	str	r3, [sp, #4]
 800805a:	f000 f88f 	bl	800817c <_vfiprintf_r>
 800805e:	b002      	add	sp, #8
 8008060:	f85d eb04 	ldr.w	lr, [sp], #4
 8008064:	b003      	add	sp, #12
 8008066:	4770      	bx	lr
 8008068:	20000024 	.word	0x20000024

0800806c <__ascii_mbtowc>:
 800806c:	b082      	sub	sp, #8
 800806e:	b901      	cbnz	r1, 8008072 <__ascii_mbtowc+0x6>
 8008070:	a901      	add	r1, sp, #4
 8008072:	b142      	cbz	r2, 8008086 <__ascii_mbtowc+0x1a>
 8008074:	b14b      	cbz	r3, 800808a <__ascii_mbtowc+0x1e>
 8008076:	7813      	ldrb	r3, [r2, #0]
 8008078:	600b      	str	r3, [r1, #0]
 800807a:	7812      	ldrb	r2, [r2, #0]
 800807c:	1e10      	subs	r0, r2, #0
 800807e:	bf18      	it	ne
 8008080:	2001      	movne	r0, #1
 8008082:	b002      	add	sp, #8
 8008084:	4770      	bx	lr
 8008086:	4610      	mov	r0, r2
 8008088:	e7fb      	b.n	8008082 <__ascii_mbtowc+0x16>
 800808a:	f06f 0001 	mvn.w	r0, #1
 800808e:	e7f8      	b.n	8008082 <__ascii_mbtowc+0x16>

08008090 <memmove>:
 8008090:	4288      	cmp	r0, r1
 8008092:	b510      	push	{r4, lr}
 8008094:	eb01 0402 	add.w	r4, r1, r2
 8008098:	d902      	bls.n	80080a0 <memmove+0x10>
 800809a:	4284      	cmp	r4, r0
 800809c:	4623      	mov	r3, r4
 800809e:	d807      	bhi.n	80080b0 <memmove+0x20>
 80080a0:	1e43      	subs	r3, r0, #1
 80080a2:	42a1      	cmp	r1, r4
 80080a4:	d008      	beq.n	80080b8 <memmove+0x28>
 80080a6:	f811 2b01 	ldrb.w	r2, [r1], #1
 80080aa:	f803 2f01 	strb.w	r2, [r3, #1]!
 80080ae:	e7f8      	b.n	80080a2 <memmove+0x12>
 80080b0:	4402      	add	r2, r0
 80080b2:	4601      	mov	r1, r0
 80080b4:	428a      	cmp	r2, r1
 80080b6:	d100      	bne.n	80080ba <memmove+0x2a>
 80080b8:	bd10      	pop	{r4, pc}
 80080ba:	f813 4d01 	ldrb.w	r4, [r3, #-1]!
 80080be:	f802 4d01 	strb.w	r4, [r2, #-1]!
 80080c2:	e7f7      	b.n	80080b4 <memmove+0x24>

080080c4 <__malloc_lock>:
 80080c4:	4801      	ldr	r0, [pc, #4]	; (80080cc <__malloc_lock+0x8>)
 80080c6:	f000 bc17 	b.w	80088f8 <__retarget_lock_acquire_recursive>
 80080ca:	bf00      	nop
 80080cc:	20000550 	.word	0x20000550

080080d0 <__malloc_unlock>:
 80080d0:	4801      	ldr	r0, [pc, #4]	; (80080d8 <__malloc_unlock+0x8>)
 80080d2:	f000 bc12 	b.w	80088fa <__retarget_lock_release_recursive>
 80080d6:	bf00      	nop
 80080d8:	20000550 	.word	0x20000550

080080dc <_realloc_r>:
 80080dc:	b5f8      	push	{r3, r4, r5, r6, r7, lr}
 80080de:	4607      	mov	r7, r0
 80080e0:	4614      	mov	r4, r2
 80080e2:	460e      	mov	r6, r1
 80080e4:	b921      	cbnz	r1, 80080f0 <_realloc_r+0x14>
 80080e6:	e8bd 40f8 	ldmia.w	sp!, {r3, r4, r5, r6, r7, lr}
 80080ea:	4611      	mov	r1, r2
 80080ec:	f7ff bdc8 	b.w	8007c80 <_malloc_r>
 80080f0:	b922      	cbnz	r2, 80080fc <_realloc_r+0x20>
 80080f2:	f7ff fd75 	bl	8007be0 <_free_r>
 80080f6:	4625      	mov	r5, r4
 80080f8:	4628      	mov	r0, r5
 80080fa:	bdf8      	pop	{r3, r4, r5, r6, r7, pc}
 80080fc:	f000 fc62 	bl	80089c4 <_malloc_usable_size_r>
 8008100:	42a0      	cmp	r0, r4
 8008102:	d20f      	bcs.n	8008124 <_realloc_r+0x48>
 8008104:	4621      	mov	r1, r4
 8008106:	4638      	mov	r0, r7
 8008108:	f7ff fdba 	bl	8007c80 <_malloc_r>
 800810c:	4605      	mov	r5, r0
 800810e:	2800      	cmp	r0, #0
 8008110:	d0f2      	beq.n	80080f8 <_realloc_r+0x1c>
 8008112:	4631      	mov	r1, r6
 8008114:	4622      	mov	r2, r4
 8008116:	f7ff f9c7 	bl	80074a8 <memcpy>
 800811a:	4631      	mov	r1, r6
 800811c:	4638      	mov	r0, r7
 800811e:	f7ff fd5f 	bl	8007be0 <_free_r>
 8008122:	e7e9      	b.n	80080f8 <_realloc_r+0x1c>
 8008124:	4635      	mov	r5, r6
 8008126:	e7e7      	b.n	80080f8 <_realloc_r+0x1c>

08008128 <__sfputc_r>:
 8008128:	6893      	ldr	r3, [r2, #8]
 800812a:	3b01      	subs	r3, #1
 800812c:	2b00      	cmp	r3, #0
 800812e:	b410      	push	{r4}
 8008130:	6093      	str	r3, [r2, #8]
 8008132:	da08      	bge.n	8008146 <__sfputc_r+0x1e>
 8008134:	6994      	ldr	r4, [r2, #24]
 8008136:	42a3      	cmp	r3, r4
 8008138:	db01      	blt.n	800813e <__sfputc_r+0x16>
 800813a:	290a      	cmp	r1, #10
 800813c:	d103      	bne.n	8008146 <__sfputc_r+0x1e>
 800813e:	f85d 4b04 	ldr.w	r4, [sp], #4
 8008142:	f000 b94b 	b.w	80083dc <__swbuf_r>
 8008146:	6813      	ldr	r3, [r2, #0]
 8008148:	1c58      	adds	r0, r3, #1
 800814a:	6010      	str	r0, [r2, #0]
 800814c:	7019      	strb	r1, [r3, #0]
 800814e:	4608      	mov	r0, r1
 8008150:	f85d 4b04 	ldr.w	r4, [sp], #4
 8008154:	4770      	bx	lr

08008156 <__sfputs_r>:
 8008156:	b5f8      	push	{r3, r4, r5, r6, r7, lr}
 8008158:	4606      	mov	r6, r0
 800815a:	460f      	mov	r7, r1
 800815c:	4614      	mov	r4, r2
 800815e:	18d5      	adds	r5, r2, r3
 8008160:	42ac      	cmp	r4, r5
 8008162:	d101      	bne.n	8008168 <__sfputs_r+0x12>
 8008164:	2000      	movs	r0, #0
 8008166:	e007      	b.n	8008178 <__sfputs_r+0x22>
 8008168:	f814 1b01 	ldrb.w	r1, [r4], #1
 800816c:	463a      	mov	r2, r7
 800816e:	4630      	mov	r0, r6
 8008170:	f7ff ffda 	bl	8008128 <__sfputc_r>
 8008174:	1c43      	adds	r3, r0, #1
 8008176:	d1f3      	bne.n	8008160 <__sfputs_r+0xa>
 8008178:	bdf8      	pop	{r3, r4, r5, r6, r7, pc}
	...

0800817c <_vfiprintf_r>:
 800817c:	e92d 4ff0 	stmdb	sp!, {r4, r5, r6, r7, r8, r9, sl, fp, lr}
 8008180:	460d      	mov	r5, r1
 8008182:	b09d      	sub	sp, #116	; 0x74
 8008184:	4614      	mov	r4, r2
 8008186:	4698      	mov	r8, r3
 8008188:	4606      	mov	r6, r0
 800818a:	b118      	cbz	r0, 8008194 <_vfiprintf_r+0x18>
 800818c:	6983      	ldr	r3, [r0, #24]
 800818e:	b90b      	cbnz	r3, 8008194 <_vfiprintf_r+0x18>
 8008190:	f000 fb14 	bl	80087bc <__sinit>
 8008194:	4b89      	ldr	r3, [pc, #548]	; (80083bc <_vfiprintf_r+0x240>)
 8008196:	429d      	cmp	r5, r3
 8008198:	d11b      	bne.n	80081d2 <_vfiprintf_r+0x56>
 800819a:	6875      	ldr	r5, [r6, #4]
 800819c:	6e6b      	ldr	r3, [r5, #100]	; 0x64
 800819e:	07d9      	lsls	r1, r3, #31
 80081a0:	d405      	bmi.n	80081ae <_vfiprintf_r+0x32>
 80081a2:	89ab      	ldrh	r3, [r5, #12]
 80081a4:	059a      	lsls	r2, r3, #22
 80081a6:	d402      	bmi.n	80081ae <_vfiprintf_r+0x32>
 80081a8:	6da8      	ldr	r0, [r5, #88]	; 0x58
 80081aa:	f000 fba5 	bl	80088f8 <__retarget_lock_acquire_recursive>
 80081ae:	89ab      	ldrh	r3, [r5, #12]
 80081b0:	071b      	lsls	r3, r3, #28
 80081b2:	d501      	bpl.n	80081b8 <_vfiprintf_r+0x3c>
 80081b4:	692b      	ldr	r3, [r5, #16]
 80081b6:	b9eb      	cbnz	r3, 80081f4 <_vfiprintf_r+0x78>
 80081b8:	4629      	mov	r1, r5
 80081ba:	4630      	mov	r0, r6
 80081bc:	f000 f96e 	bl	800849c <__swsetup_r>
 80081c0:	b1c0      	cbz	r0, 80081f4 <_vfiprintf_r+0x78>
 80081c2:	6e6b      	ldr	r3, [r5, #100]	; 0x64
 80081c4:	07dc      	lsls	r4, r3, #31
 80081c6:	d50e      	bpl.n	80081e6 <_vfiprintf_r+0x6a>
 80081c8:	f04f 30ff 	mov.w	r0, #4294967295	; 0xffffffff
 80081cc:	b01d      	add	sp, #116	; 0x74
 80081ce:	e8bd 8ff0 	ldmia.w	sp!, {r4, r5, r6, r7, r8, r9, sl, fp, pc}
 80081d2:	4b7b      	ldr	r3, [pc, #492]	; (80083c0 <_vfiprintf_r+0x244>)
 80081d4:	429d      	cmp	r5, r3
 80081d6:	d101      	bne.n	80081dc <_vfiprintf_r+0x60>
 80081d8:	68b5      	ldr	r5, [r6, #8]
 80081da:	e7df      	b.n	800819c <_vfiprintf_r+0x20>
 80081dc:	4b79      	ldr	r3, [pc, #484]	; (80083c4 <_vfiprintf_r+0x248>)
 80081de:	429d      	cmp	r5, r3
 80081e0:	bf08      	it	eq
 80081e2:	68f5      	ldreq	r5, [r6, #12]
 80081e4:	e7da      	b.n	800819c <_vfiprintf_r+0x20>
 80081e6:	89ab      	ldrh	r3, [r5, #12]
 80081e8:	0598      	lsls	r0, r3, #22
 80081ea:	d4ed      	bmi.n	80081c8 <_vfiprintf_r+0x4c>
 80081ec:	6da8      	ldr	r0, [r5, #88]	; 0x58
 80081ee:	f000 fb84 	bl	80088fa <__retarget_lock_release_recursive>
 80081f2:	e7e9      	b.n	80081c8 <_vfiprintf_r+0x4c>
 80081f4:	2300      	movs	r3, #0
 80081f6:	9309      	str	r3, [sp, #36]	; 0x24
 80081f8:	2320      	movs	r3, #32
 80081fa:	f88d 3029 	strb.w	r3, [sp, #41]	; 0x29
 80081fe:	f8cd 800c 	str.w	r8, [sp, #12]
 8008202:	2330      	movs	r3, #48	; 0x30
 8008204:	f8df 81c0 	ldr.w	r8, [pc, #448]	; 80083c8 <_vfiprintf_r+0x24c>
 8008208:	f88d 302a 	strb.w	r3, [sp, #42]	; 0x2a
 800820c:	f04f 0901 	mov.w	r9, #1
 8008210:	4623      	mov	r3, r4
 8008212:	469a      	mov	sl, r3
 8008214:	f813 2b01 	ldrb.w	r2, [r3], #1
 8008218:	b10a      	cbz	r2, 800821e <_vfiprintf_r+0xa2>
 800821a:	2a25      	cmp	r2, #37	; 0x25
 800821c:	d1f9      	bne.n	8008212 <_vfiprintf_r+0x96>
 800821e:	ebba 0b04 	subs.w	fp, sl, r4
 8008222:	d00b      	beq.n	800823c <_vfiprintf_r+0xc0>
 8008224:	465b      	mov	r3, fp
 8008226:	4622      	mov	r2, r4
 8008228:	4629      	mov	r1, r5
 800822a:	4630      	mov	r0, r6
 800822c:	f7ff ff93 	bl	8008156 <__sfputs_r>
 8008230:	3001      	adds	r0, #1
 8008232:	f000 80aa 	beq.w	800838a <_vfiprintf_r+0x20e>
 8008236:	9a09      	ldr	r2, [sp, #36]	; 0x24
 8008238:	445a      	add	r2, fp
 800823a:	9209      	str	r2, [sp, #36]	; 0x24
 800823c:	f89a 3000 	ldrb.w	r3, [sl]
 8008240:	2b00      	cmp	r3, #0
 8008242:	f000 80a2 	beq.w	800838a <_vfiprintf_r+0x20e>
 8008246:	2300      	movs	r3, #0
 8008248:	f04f 32ff 	mov.w	r2, #4294967295	; 0xffffffff
 800824c:	e9cd 2305 	strd	r2, r3, [sp, #20]
 8008250:	f10a 0a01 	add.w	sl, sl, #1
 8008254:	9304      	str	r3, [sp, #16]
 8008256:	9307      	str	r3, [sp, #28]
 8008258:	f88d 3053 	strb.w	r3, [sp, #83]	; 0x53
 800825c:	931a      	str	r3, [sp, #104]	; 0x68
 800825e:	4654      	mov	r4, sl
 8008260:	2205      	movs	r2, #5
 8008262:	f814 1b01 	ldrb.w	r1, [r4], #1
 8008266:	4858      	ldr	r0, [pc, #352]	; (80083c8 <_vfiprintf_r+0x24c>)
 8008268:	f7f7 ffda 	bl	8000220 <memchr>
 800826c:	9a04      	ldr	r2, [sp, #16]
 800826e:	b9d8      	cbnz	r0, 80082a8 <_vfiprintf_r+0x12c>
 8008270:	06d1      	lsls	r1, r2, #27
 8008272:	bf44      	itt	mi
 8008274:	2320      	movmi	r3, #32
 8008276:	f88d 3053 	strbmi.w	r3, [sp, #83]	; 0x53
 800827a:	0713      	lsls	r3, r2, #28
 800827c:	bf44      	itt	mi
 800827e:	232b      	movmi	r3, #43	; 0x2b
 8008280:	f88d 3053 	strbmi.w	r3, [sp, #83]	; 0x53
 8008284:	f89a 3000 	ldrb.w	r3, [sl]
 8008288:	2b2a      	cmp	r3, #42	; 0x2a
 800828a:	d015      	beq.n	80082b8 <_vfiprintf_r+0x13c>
 800828c:	9a07      	ldr	r2, [sp, #28]
 800828e:	4654      	mov	r4, sl
 8008290:	2000      	movs	r0, #0
 8008292:	f04f 0c0a 	mov.w	ip, #10
 8008296:	4621      	mov	r1, r4
 8008298:	f811 3b01 	ldrb.w	r3, [r1], #1
 800829c:	3b30      	subs	r3, #48	; 0x30
 800829e:	2b09      	cmp	r3, #9
 80082a0:	d94e      	bls.n	8008340 <_vfiprintf_r+0x1c4>
 80082a2:	b1b0      	cbz	r0, 80082d2 <_vfiprintf_r+0x156>
 80082a4:	9207      	str	r2, [sp, #28]
 80082a6:	e014      	b.n	80082d2 <_vfiprintf_r+0x156>
 80082a8:	eba0 0308 	sub.w	r3, r0, r8
 80082ac:	fa09 f303 	lsl.w	r3, r9, r3
 80082b0:	4313      	orrs	r3, r2
 80082b2:	9304      	str	r3, [sp, #16]
 80082b4:	46a2      	mov	sl, r4
 80082b6:	e7d2      	b.n	800825e <_vfiprintf_r+0xe2>
 80082b8:	9b03      	ldr	r3, [sp, #12]
 80082ba:	1d19      	adds	r1, r3, #4
 80082bc:	681b      	ldr	r3, [r3, #0]
 80082be:	9103      	str	r1, [sp, #12]
 80082c0:	2b00      	cmp	r3, #0
 80082c2:	bfbb      	ittet	lt
 80082c4:	425b      	neglt	r3, r3
 80082c6:	f042 0202 	orrlt.w	r2, r2, #2
 80082ca:	9307      	strge	r3, [sp, #28]
 80082cc:	9307      	strlt	r3, [sp, #28]
 80082ce:	bfb8      	it	lt
 80082d0:	9204      	strlt	r2, [sp, #16]
 80082d2:	7823      	ldrb	r3, [r4, #0]
 80082d4:	2b2e      	cmp	r3, #46	; 0x2e
 80082d6:	d10c      	bne.n	80082f2 <_vfiprintf_r+0x176>
 80082d8:	7863      	ldrb	r3, [r4, #1]
 80082da:	2b2a      	cmp	r3, #42	; 0x2a
 80082dc:	d135      	bne.n	800834a <_vfiprintf_r+0x1ce>
 80082de:	9b03      	ldr	r3, [sp, #12]
 80082e0:	1d1a      	adds	r2, r3, #4
 80082e2:	681b      	ldr	r3, [r3, #0]
 80082e4:	9203      	str	r2, [sp, #12]
 80082e6:	2b00      	cmp	r3, #0
 80082e8:	bfb8      	it	lt
 80082ea:	f04f 33ff 	movlt.w	r3, #4294967295	; 0xffffffff
 80082ee:	3402      	adds	r4, #2
 80082f0:	9305      	str	r3, [sp, #20]
 80082f2:	f8df a0e4 	ldr.w	sl, [pc, #228]	; 80083d8 <_vfiprintf_r+0x25c>
 80082f6:	7821      	ldrb	r1, [r4, #0]
 80082f8:	2203      	movs	r2, #3
 80082fa:	4650      	mov	r0, sl
 80082fc:	f7f7 ff90 	bl	8000220 <memchr>
 8008300:	b140      	cbz	r0, 8008314 <_vfiprintf_r+0x198>
 8008302:	2340      	movs	r3, #64	; 0x40
 8008304:	eba0 000a 	sub.w	r0, r0, sl
 8008308:	fa03 f000 	lsl.w	r0, r3, r0
 800830c:	9b04      	ldr	r3, [sp, #16]
 800830e:	4303      	orrs	r3, r0
 8008310:	3401      	adds	r4, #1
 8008312:	9304      	str	r3, [sp, #16]
 8008314:	f814 1b01 	ldrb.w	r1, [r4], #1
 8008318:	482c      	ldr	r0, [pc, #176]	; (80083cc <_vfiprintf_r+0x250>)
 800831a:	f88d 1028 	strb.w	r1, [sp, #40]	; 0x28
 800831e:	2206      	movs	r2, #6
 8008320:	f7f7 ff7e 	bl	8000220 <memchr>
 8008324:	2800      	cmp	r0, #0
 8008326:	d03f      	beq.n	80083a8 <_vfiprintf_r+0x22c>
 8008328:	4b29      	ldr	r3, [pc, #164]	; (80083d0 <_vfiprintf_r+0x254>)
 800832a:	bb1b      	cbnz	r3, 8008374 <_vfiprintf_r+0x1f8>
 800832c:	9b03      	ldr	r3, [sp, #12]
 800832e:	3307      	adds	r3, #7
 8008330:	f023 0307 	bic.w	r3, r3, #7
 8008334:	3308      	adds	r3, #8
 8008336:	9303      	str	r3, [sp, #12]
 8008338:	9b09      	ldr	r3, [sp, #36]	; 0x24
 800833a:	443b      	add	r3, r7
 800833c:	9309      	str	r3, [sp, #36]	; 0x24
 800833e:	e767      	b.n	8008210 <_vfiprintf_r+0x94>
 8008340:	fb0c 3202 	mla	r2, ip, r2, r3
 8008344:	460c      	mov	r4, r1
 8008346:	2001      	movs	r0, #1
 8008348:	e7a5      	b.n	8008296 <_vfiprintf_r+0x11a>
 800834a:	2300      	movs	r3, #0
 800834c:	3401      	adds	r4, #1
 800834e:	9305      	str	r3, [sp, #20]
 8008350:	4619      	mov	r1, r3
 8008352:	f04f 0c0a 	mov.w	ip, #10
 8008356:	4620      	mov	r0, r4
 8008358:	f810 2b01 	ldrb.w	r2, [r0], #1
 800835c:	3a30      	subs	r2, #48	; 0x30
 800835e:	2a09      	cmp	r2, #9
 8008360:	d903      	bls.n	800836a <_vfiprintf_r+0x1ee>
 8008362:	2b00      	cmp	r3, #0
 8008364:	d0c5      	beq.n	80082f2 <_vfiprintf_r+0x176>
 8008366:	9105      	str	r1, [sp, #20]
 8008368:	e7c3      	b.n	80082f2 <_vfiprintf_r+0x176>
 800836a:	fb0c 2101 	mla	r1, ip, r1, r2
 800836e:	4604      	mov	r4, r0
 8008370:	2301      	movs	r3, #1
 8008372:	e7f0      	b.n	8008356 <_vfiprintf_r+0x1da>
 8008374:	ab03      	add	r3, sp, #12
 8008376:	9300      	str	r3, [sp, #0]
 8008378:	462a      	mov	r2, r5
 800837a:	4b16      	ldr	r3, [pc, #88]	; (80083d4 <_vfiprintf_r+0x258>)
 800837c:	a904      	add	r1, sp, #16
 800837e:	4630      	mov	r0, r6
 8008380:	f7fd fe22 	bl	8005fc8 <_printf_float>
 8008384:	4607      	mov	r7, r0
 8008386:	1c78      	adds	r0, r7, #1
 8008388:	d1d6      	bne.n	8008338 <_vfiprintf_r+0x1bc>
 800838a:	6e6b      	ldr	r3, [r5, #100]	; 0x64
 800838c:	07d9      	lsls	r1, r3, #31
 800838e:	d405      	bmi.n	800839c <_vfiprintf_r+0x220>
 8008390:	89ab      	ldrh	r3, [r5, #12]
 8008392:	059a      	lsls	r2, r3, #22
 8008394:	d402      	bmi.n	800839c <_vfiprintf_r+0x220>
 8008396:	6da8      	ldr	r0, [r5, #88]	; 0x58
 8008398:	f000 faaf 	bl	80088fa <__retarget_lock_release_recursive>
 800839c:	89ab      	ldrh	r3, [r5, #12]
 800839e:	065b      	lsls	r3, r3, #25
 80083a0:	f53f af12 	bmi.w	80081c8 <_vfiprintf_r+0x4c>
 80083a4:	9809      	ldr	r0, [sp, #36]	; 0x24
 80083a6:	e711      	b.n	80081cc <_vfiprintf_r+0x50>
 80083a8:	ab03      	add	r3, sp, #12
 80083aa:	9300      	str	r3, [sp, #0]
 80083ac:	462a      	mov	r2, r5
 80083ae:	4b09      	ldr	r3, [pc, #36]	; (80083d4 <_vfiprintf_r+0x258>)
 80083b0:	a904      	add	r1, sp, #16
 80083b2:	4630      	mov	r0, r6
 80083b4:	f7fe f8ac 	bl	8006510 <_printf_i>
 80083b8:	e7e4      	b.n	8008384 <_vfiprintf_r+0x208>
 80083ba:	bf00      	nop
 80083bc:	0800901c 	.word	0x0800901c
 80083c0:	0800903c 	.word	0x0800903c
 80083c4:	08008ffc 	.word	0x08008ffc
 80083c8:	08008ea4 	.word	0x08008ea4
 80083cc:	08008eae 	.word	0x08008eae
 80083d0:	08005fc9 	.word	0x08005fc9
 80083d4:	08008157 	.word	0x08008157
 80083d8:	08008eaa 	.word	0x08008eaa

080083dc <__swbuf_r>:
 80083dc:	b5f8      	push	{r3, r4, r5, r6, r7, lr}
 80083de:	460e      	mov	r6, r1
 80083e0:	4614      	mov	r4, r2
 80083e2:	4605      	mov	r5, r0
 80083e4:	b118      	cbz	r0, 80083ee <__swbuf_r+0x12>
 80083e6:	6983      	ldr	r3, [r0, #24]
 80083e8:	b90b      	cbnz	r3, 80083ee <__swbuf_r+0x12>
 80083ea:	f000 f9e7 	bl	80087bc <__sinit>
 80083ee:	4b21      	ldr	r3, [pc, #132]	; (8008474 <__swbuf_r+0x98>)
 80083f0:	429c      	cmp	r4, r3
 80083f2:	d12b      	bne.n	800844c <__swbuf_r+0x70>
 80083f4:	686c      	ldr	r4, [r5, #4]
 80083f6:	69a3      	ldr	r3, [r4, #24]
 80083f8:	60a3      	str	r3, [r4, #8]
 80083fa:	89a3      	ldrh	r3, [r4, #12]
 80083fc:	071a      	lsls	r2, r3, #28
 80083fe:	d52f      	bpl.n	8008460 <__swbuf_r+0x84>
 8008400:	6923      	ldr	r3, [r4, #16]
 8008402:	b36b      	cbz	r3, 8008460 <__swbuf_r+0x84>
 8008404:	6923      	ldr	r3, [r4, #16]
 8008406:	6820      	ldr	r0, [r4, #0]
 8008408:	1ac0      	subs	r0, r0, r3
 800840a:	6963      	ldr	r3, [r4, #20]
 800840c:	b2f6      	uxtb	r6, r6
 800840e:	4283      	cmp	r3, r0
 8008410:	4637      	mov	r7, r6
 8008412:	dc04      	bgt.n	800841e <__swbuf_r+0x42>
 8008414:	4621      	mov	r1, r4
 8008416:	4628      	mov	r0, r5
 8008418:	f000 f93c 	bl	8008694 <_fflush_r>
 800841c:	bb30      	cbnz	r0, 800846c <__swbuf_r+0x90>
 800841e:	68a3      	ldr	r3, [r4, #8]
 8008420:	3b01      	subs	r3, #1
 8008422:	60a3      	str	r3, [r4, #8]
 8008424:	6823      	ldr	r3, [r4, #0]
 8008426:	1c5a      	adds	r2, r3, #1
 8008428:	6022      	str	r2, [r4, #0]
 800842a:	701e      	strb	r6, [r3, #0]
 800842c:	6963      	ldr	r3, [r4, #20]
 800842e:	3001      	adds	r0, #1
 8008430:	4283      	cmp	r3, r0
 8008432:	d004      	beq.n	800843e <__swbuf_r+0x62>
 8008434:	89a3      	ldrh	r3, [r4, #12]
 8008436:	07db      	lsls	r3, r3, #31
 8008438:	d506      	bpl.n	8008448 <__swbuf_r+0x6c>
 800843a:	2e0a      	cmp	r6, #10
 800843c:	d104      	bne.n	8008448 <__swbuf_r+0x6c>
 800843e:	4621      	mov	r1, r4
 8008440:	4628      	mov	r0, r5
 8008442:	f000 f927 	bl	8008694 <_fflush_r>
 8008446:	b988      	cbnz	r0, 800846c <__swbuf_r+0x90>
 8008448:	4638      	mov	r0, r7
 800844a:	bdf8      	pop	{r3, r4, r5, r6, r7, pc}
 800844c:	4b0a      	ldr	r3, [pc, #40]	; (8008478 <__swbuf_r+0x9c>)
 800844e:	429c      	cmp	r4, r3
 8008450:	d101      	bne.n	8008456 <__swbuf_r+0x7a>
 8008452:	68ac      	ldr	r4, [r5, #8]
 8008454:	e7cf      	b.n	80083f6 <__swbuf_r+0x1a>
 8008456:	4b09      	ldr	r3, [pc, #36]	; (800847c <__swbuf_r+0xa0>)
 8008458:	429c      	cmp	r4, r3
 800845a:	bf08      	it	eq
 800845c:	68ec      	ldreq	r4, [r5, #12]
 800845e:	e7ca      	b.n	80083f6 <__swbuf_r+0x1a>
 8008460:	4621      	mov	r1, r4
 8008462:	4628      	mov	r0, r5
 8008464:	f000 f81a 	bl	800849c <__swsetup_r>
 8008468:	2800      	cmp	r0, #0
 800846a:	d0cb      	beq.n	8008404 <__swbuf_r+0x28>
 800846c:	f04f 37ff 	mov.w	r7, #4294967295	; 0xffffffff
 8008470:	e7ea      	b.n	8008448 <__swbuf_r+0x6c>
 8008472:	bf00      	nop
 8008474:	0800901c 	.word	0x0800901c
 8008478:	0800903c 	.word	0x0800903c
 800847c:	08008ffc 	.word	0x08008ffc

08008480 <__ascii_wctomb>:
 8008480:	b149      	cbz	r1, 8008496 <__ascii_wctomb+0x16>
 8008482:	2aff      	cmp	r2, #255	; 0xff
 8008484:	bf85      	ittet	hi
 8008486:	238a      	movhi	r3, #138	; 0x8a
 8008488:	6003      	strhi	r3, [r0, #0]
 800848a:	700a      	strbls	r2, [r1, #0]
 800848c:	f04f 30ff 	movhi.w	r0, #4294967295	; 0xffffffff
 8008490:	bf98      	it	ls
 8008492:	2001      	movls	r0, #1
 8008494:	4770      	bx	lr
 8008496:	4608      	mov	r0, r1
 8008498:	4770      	bx	lr
	...

0800849c <__swsetup_r>:
 800849c:	4b32      	ldr	r3, [pc, #200]	; (8008568 <__swsetup_r+0xcc>)
 800849e:	b570      	push	{r4, r5, r6, lr}
 80084a0:	681d      	ldr	r5, [r3, #0]
 80084a2:	4606      	mov	r6, r0
 80084a4:	460c      	mov	r4, r1
 80084a6:	b125      	cbz	r5, 80084b2 <__swsetup_r+0x16>
 80084a8:	69ab      	ldr	r3, [r5, #24]
 80084aa:	b913      	cbnz	r3, 80084b2 <__swsetup_r+0x16>
 80084ac:	4628      	mov	r0, r5
 80084ae:	f000 f985 	bl	80087bc <__sinit>
 80084b2:	4b2e      	ldr	r3, [pc, #184]	; (800856c <__swsetup_r+0xd0>)
 80084b4:	429c      	cmp	r4, r3
 80084b6:	d10f      	bne.n	80084d8 <__swsetup_r+0x3c>
 80084b8:	686c      	ldr	r4, [r5, #4]
 80084ba:	89a3      	ldrh	r3, [r4, #12]
 80084bc:	f9b4 200c 	ldrsh.w	r2, [r4, #12]
 80084c0:	0719      	lsls	r1, r3, #28
 80084c2:	d42c      	bmi.n	800851e <__swsetup_r+0x82>
 80084c4:	06dd      	lsls	r5, r3, #27
 80084c6:	d411      	bmi.n	80084ec <__swsetup_r+0x50>
 80084c8:	2309      	movs	r3, #9
 80084ca:	6033      	str	r3, [r6, #0]
 80084cc:	f042 0340 	orr.w	r3, r2, #64	; 0x40
 80084d0:	81a3      	strh	r3, [r4, #12]
 80084d2:	f04f 30ff 	mov.w	r0, #4294967295	; 0xffffffff
 80084d6:	e03e      	b.n	8008556 <__swsetup_r+0xba>
 80084d8:	4b25      	ldr	r3, [pc, #148]	; (8008570 <__swsetup_r+0xd4>)
 80084da:	429c      	cmp	r4, r3
 80084dc:	d101      	bne.n	80084e2 <__swsetup_r+0x46>
 80084de:	68ac      	ldr	r4, [r5, #8]
 80084e0:	e7eb      	b.n	80084ba <__swsetup_r+0x1e>
 80084e2:	4b24      	ldr	r3, [pc, #144]	; (8008574 <__swsetup_r+0xd8>)
 80084e4:	429c      	cmp	r4, r3
 80084e6:	bf08      	it	eq
 80084e8:	68ec      	ldreq	r4, [r5, #12]
 80084ea:	e7e6      	b.n	80084ba <__swsetup_r+0x1e>
 80084ec:	0758      	lsls	r0, r3, #29
 80084ee:	d512      	bpl.n	8008516 <__swsetup_r+0x7a>
 80084f0:	6b61      	ldr	r1, [r4, #52]	; 0x34
 80084f2:	b141      	cbz	r1, 8008506 <__swsetup_r+0x6a>
 80084f4:	f104 0344 	add.w	r3, r4, #68	; 0x44
 80084f8:	4299      	cmp	r1, r3
 80084fa:	d002      	beq.n	8008502 <__swsetup_r+0x66>
 80084fc:	4630      	mov	r0, r6
 80084fe:	f7ff fb6f 	bl	8007be0 <_free_r>
 8008502:	2300      	movs	r3, #0
 8008504:	6363      	str	r3, [r4, #52]	; 0x34
 8008506:	89a3      	ldrh	r3, [r4, #12]
 8008508:	f023 0324 	bic.w	r3, r3, #36	; 0x24
 800850c:	81a3      	strh	r3, [r4, #12]
 800850e:	2300      	movs	r3, #0
 8008510:	6063      	str	r3, [r4, #4]
 8008512:	6923      	ldr	r3, [r4, #16]
 8008514:	6023      	str	r3, [r4, #0]
 8008516:	89a3      	ldrh	r3, [r4, #12]
 8008518:	f043 0308 	orr.w	r3, r3, #8
 800851c:	81a3      	strh	r3, [r4, #12]
 800851e:	6923      	ldr	r3, [r4, #16]
 8008520:	b94b      	cbnz	r3, 8008536 <__swsetup_r+0x9a>
 8008522:	89a3      	ldrh	r3, [r4, #12]
 8008524:	f403 7320 	and.w	r3, r3, #640	; 0x280
 8008528:	f5b3 7f00 	cmp.w	r3, #512	; 0x200
 800852c:	d003      	beq.n	8008536 <__swsetup_r+0x9a>
 800852e:	4621      	mov	r1, r4
 8008530:	4630      	mov	r0, r6
 8008532:	f000 fa07 	bl	8008944 <__smakebuf_r>
 8008536:	89a0      	ldrh	r0, [r4, #12]
 8008538:	f9b4 200c 	ldrsh.w	r2, [r4, #12]
 800853c:	f010 0301 	ands.w	r3, r0, #1
 8008540:	d00a      	beq.n	8008558 <__swsetup_r+0xbc>
 8008542:	2300      	movs	r3, #0
 8008544:	60a3      	str	r3, [r4, #8]
 8008546:	6963      	ldr	r3, [r4, #20]
 8008548:	425b      	negs	r3, r3
 800854a:	61a3      	str	r3, [r4, #24]
 800854c:	6923      	ldr	r3, [r4, #16]
 800854e:	b943      	cbnz	r3, 8008562 <__swsetup_r+0xc6>
 8008550:	f010 0080 	ands.w	r0, r0, #128	; 0x80
 8008554:	d1ba      	bne.n	80084cc <__swsetup_r+0x30>
 8008556:	bd70      	pop	{r4, r5, r6, pc}
 8008558:	0781      	lsls	r1, r0, #30
 800855a:	bf58      	it	pl
 800855c:	6963      	ldrpl	r3, [r4, #20]
 800855e:	60a3      	str	r3, [r4, #8]
 8008560:	e7f4      	b.n	800854c <__swsetup_r+0xb0>
 8008562:	2000      	movs	r0, #0
 8008564:	e7f7      	b.n	8008556 <__swsetup_r+0xba>
 8008566:	bf00      	nop
 8008568:	20000024 	.word	0x20000024
 800856c:	0800901c 	.word	0x0800901c
 8008570:	0800903c 	.word	0x0800903c
 8008574:	08008ffc 	.word	0x08008ffc

08008578 <abort>:
 8008578:	b508      	push	{r3, lr}
 800857a:	2006      	movs	r0, #6
 800857c:	f000 fa52 	bl	8008a24 <raise>
 8008580:	2001      	movs	r0, #1
 8008582:	f7f9 fe6d 	bl	8002260 <_exit>
	...

08008588 <__sflush_r>:
 8008588:	898a      	ldrh	r2, [r1, #12]
 800858a:	e92d 41f0 	stmdb	sp!, {r4, r5, r6, r7, r8, lr}
 800858e:	4605      	mov	r5, r0
 8008590:	0710      	lsls	r0, r2, #28
 8008592:	460c      	mov	r4, r1
 8008594:	d458      	bmi.n	8008648 <__sflush_r+0xc0>
 8008596:	684b      	ldr	r3, [r1, #4]
 8008598:	2b00      	cmp	r3, #0
 800859a:	dc05      	bgt.n	80085a8 <__sflush_r+0x20>
 800859c:	6c0b      	ldr	r3, [r1, #64]	; 0x40
 800859e:	2b00      	cmp	r3, #0
 80085a0:	dc02      	bgt.n	80085a8 <__sflush_r+0x20>
 80085a2:	2000      	movs	r0, #0
 80085a4:	e8bd 81f0 	ldmia.w	sp!, {r4, r5, r6, r7, r8, pc}
 80085a8:	6ae6      	ldr	r6, [r4, #44]	; 0x2c
 80085aa:	2e00      	cmp	r6, #0
 80085ac:	d0f9      	beq.n	80085a2 <__sflush_r+0x1a>
 80085ae:	2300      	movs	r3, #0
 80085b0:	f412 5280 	ands.w	r2, r2, #4096	; 0x1000
 80085b4:	682f      	ldr	r7, [r5, #0]
 80085b6:	602b      	str	r3, [r5, #0]
 80085b8:	d032      	beq.n	8008620 <__sflush_r+0x98>
 80085ba:	6d60      	ldr	r0, [r4, #84]	; 0x54
 80085bc:	89a3      	ldrh	r3, [r4, #12]
 80085be:	075a      	lsls	r2, r3, #29
 80085c0:	d505      	bpl.n	80085ce <__sflush_r+0x46>
 80085c2:	6863      	ldr	r3, [r4, #4]
 80085c4:	1ac0      	subs	r0, r0, r3
 80085c6:	6b63      	ldr	r3, [r4, #52]	; 0x34
 80085c8:	b10b      	cbz	r3, 80085ce <__sflush_r+0x46>
 80085ca:	6c23      	ldr	r3, [r4, #64]	; 0x40
 80085cc:	1ac0      	subs	r0, r0, r3
 80085ce:	2300      	movs	r3, #0
 80085d0:	4602      	mov	r2, r0
 80085d2:	6ae6      	ldr	r6, [r4, #44]	; 0x2c
 80085d4:	6a21      	ldr	r1, [r4, #32]
 80085d6:	4628      	mov	r0, r5
 80085d8:	47b0      	blx	r6
 80085da:	1c43      	adds	r3, r0, #1
 80085dc:	89a3      	ldrh	r3, [r4, #12]
 80085de:	d106      	bne.n	80085ee <__sflush_r+0x66>
 80085e0:	6829      	ldr	r1, [r5, #0]
 80085e2:	291d      	cmp	r1, #29
 80085e4:	d82c      	bhi.n	8008640 <__sflush_r+0xb8>
 80085e6:	4a2a      	ldr	r2, [pc, #168]	; (8008690 <__sflush_r+0x108>)
 80085e8:	40ca      	lsrs	r2, r1
 80085ea:	07d6      	lsls	r6, r2, #31
 80085ec:	d528      	bpl.n	8008640 <__sflush_r+0xb8>
 80085ee:	2200      	movs	r2, #0
 80085f0:	6062      	str	r2, [r4, #4]
 80085f2:	04d9      	lsls	r1, r3, #19
 80085f4:	6922      	ldr	r2, [r4, #16]
 80085f6:	6022      	str	r2, [r4, #0]
 80085f8:	d504      	bpl.n	8008604 <__sflush_r+0x7c>
 80085fa:	1c42      	adds	r2, r0, #1
 80085fc:	d101      	bne.n	8008602 <__sflush_r+0x7a>
 80085fe:	682b      	ldr	r3, [r5, #0]
 8008600:	b903      	cbnz	r3, 8008604 <__sflush_r+0x7c>
 8008602:	6560      	str	r0, [r4, #84]	; 0x54
 8008604:	6b61      	ldr	r1, [r4, #52]	; 0x34
 8008606:	602f      	str	r7, [r5, #0]
 8008608:	2900      	cmp	r1, #0
 800860a:	d0ca      	beq.n	80085a2 <__sflush_r+0x1a>
 800860c:	f104 0344 	add.w	r3, r4, #68	; 0x44
 8008610:	4299      	cmp	r1, r3
 8008612:	d002      	beq.n	800861a <__sflush_r+0x92>
 8008614:	4628      	mov	r0, r5
 8008616:	f7ff fae3 	bl	8007be0 <_free_r>
 800861a:	2000      	movs	r0, #0
 800861c:	6360      	str	r0, [r4, #52]	; 0x34
 800861e:	e7c1      	b.n	80085a4 <__sflush_r+0x1c>
 8008620:	6a21      	ldr	r1, [r4, #32]
 8008622:	2301      	movs	r3, #1
 8008624:	4628      	mov	r0, r5
 8008626:	47b0      	blx	r6
 8008628:	1c41      	adds	r1, r0, #1
 800862a:	d1c7      	bne.n	80085bc <__sflush_r+0x34>
 800862c:	682b      	ldr	r3, [r5, #0]
 800862e:	2b00      	cmp	r3, #0
 8008630:	d0c4      	beq.n	80085bc <__sflush_r+0x34>
 8008632:	2b1d      	cmp	r3, #29
 8008634:	d001      	beq.n	800863a <__sflush_r+0xb2>
 8008636:	2b16      	cmp	r3, #22
 8008638:	d101      	bne.n	800863e <__sflush_r+0xb6>
 800863a:	602f      	str	r7, [r5, #0]
 800863c:	e7b1      	b.n	80085a2 <__sflush_r+0x1a>
 800863e:	89a3      	ldrh	r3, [r4, #12]
 8008640:	f043 0340 	orr.w	r3, r3, #64	; 0x40
 8008644:	81a3      	strh	r3, [r4, #12]
 8008646:	e7ad      	b.n	80085a4 <__sflush_r+0x1c>
 8008648:	690f      	ldr	r7, [r1, #16]
 800864a:	2f00      	cmp	r7, #0
 800864c:	d0a9      	beq.n	80085a2 <__sflush_r+0x1a>
 800864e:	0793      	lsls	r3, r2, #30
 8008650:	680e      	ldr	r6, [r1, #0]
 8008652:	bf08      	it	eq
 8008654:	694b      	ldreq	r3, [r1, #20]
 8008656:	600f      	str	r7, [r1, #0]
 8008658:	bf18      	it	ne
 800865a:	2300      	movne	r3, #0
 800865c:	eba6 0807 	sub.w	r8, r6, r7
 8008660:	608b      	str	r3, [r1, #8]
 8008662:	f1b8 0f00 	cmp.w	r8, #0
 8008666:	dd9c      	ble.n	80085a2 <__sflush_r+0x1a>
 8008668:	6a21      	ldr	r1, [r4, #32]
 800866a:	6aa6      	ldr	r6, [r4, #40]	; 0x28
 800866c:	4643      	mov	r3, r8
 800866e:	463a      	mov	r2, r7
 8008670:	4628      	mov	r0, r5
 8008672:	47b0      	blx	r6
 8008674:	2800      	cmp	r0, #0
 8008676:	dc06      	bgt.n	8008686 <__sflush_r+0xfe>
 8008678:	89a3      	ldrh	r3, [r4, #12]
 800867a:	f043 0340 	orr.w	r3, r3, #64	; 0x40
 800867e:	81a3      	strh	r3, [r4, #12]
 8008680:	f04f 30ff 	mov.w	r0, #4294967295	; 0xffffffff
 8008684:	e78e      	b.n	80085a4 <__sflush_r+0x1c>
 8008686:	4407      	add	r7, r0
 8008688:	eba8 0800 	sub.w	r8, r8, r0
 800868c:	e7e9      	b.n	8008662 <__sflush_r+0xda>
 800868e:	bf00      	nop
 8008690:	20400001 	.word	0x20400001

08008694 <_fflush_r>:
 8008694:	b538      	push	{r3, r4, r5, lr}
 8008696:	690b      	ldr	r3, [r1, #16]
 8008698:	4605      	mov	r5, r0
 800869a:	460c      	mov	r4, r1
 800869c:	b913      	cbnz	r3, 80086a4 <_fflush_r+0x10>
 800869e:	2500      	movs	r5, #0
 80086a0:	4628      	mov	r0, r5
 80086a2:	bd38      	pop	{r3, r4, r5, pc}
 80086a4:	b118      	cbz	r0, 80086ae <_fflush_r+0x1a>
 80086a6:	6983      	ldr	r3, [r0, #24]
 80086a8:	b90b      	cbnz	r3, 80086ae <_fflush_r+0x1a>
 80086aa:	f000 f887 	bl	80087bc <__sinit>
 80086ae:	4b14      	ldr	r3, [pc, #80]	; (8008700 <_fflush_r+0x6c>)
 80086b0:	429c      	cmp	r4, r3
 80086b2:	d11b      	bne.n	80086ec <_fflush_r+0x58>
 80086b4:	686c      	ldr	r4, [r5, #4]
 80086b6:	f9b4 300c 	ldrsh.w	r3, [r4, #12]
 80086ba:	2b00      	cmp	r3, #0
 80086bc:	d0ef      	beq.n	800869e <_fflush_r+0xa>
 80086be:	6e62      	ldr	r2, [r4, #100]	; 0x64
 80086c0:	07d0      	lsls	r0, r2, #31
 80086c2:	d404      	bmi.n	80086ce <_fflush_r+0x3a>
 80086c4:	0599      	lsls	r1, r3, #22
 80086c6:	d402      	bmi.n	80086ce <_fflush_r+0x3a>
 80086c8:	6da0      	ldr	r0, [r4, #88]	; 0x58
 80086ca:	f000 f915 	bl	80088f8 <__retarget_lock_acquire_recursive>
 80086ce:	4628      	mov	r0, r5
 80086d0:	4621      	mov	r1, r4
 80086d2:	f7ff ff59 	bl	8008588 <__sflush_r>
 80086d6:	6e63      	ldr	r3, [r4, #100]	; 0x64
 80086d8:	07da      	lsls	r2, r3, #31
 80086da:	4605      	mov	r5, r0
 80086dc:	d4e0      	bmi.n	80086a0 <_fflush_r+0xc>
 80086de:	89a3      	ldrh	r3, [r4, #12]
 80086e0:	059b      	lsls	r3, r3, #22
 80086e2:	d4dd      	bmi.n	80086a0 <_fflush_r+0xc>
 80086e4:	6da0      	ldr	r0, [r4, #88]	; 0x58
 80086e6:	f000 f908 	bl	80088fa <__retarget_lock_release_recursive>
 80086ea:	e7d9      	b.n	80086a0 <_fflush_r+0xc>
 80086ec:	4b05      	ldr	r3, [pc, #20]	; (8008704 <_fflush_r+0x70>)
 80086ee:	429c      	cmp	r4, r3
 80086f0:	d101      	bne.n	80086f6 <_fflush_r+0x62>
 80086f2:	68ac      	ldr	r4, [r5, #8]
 80086f4:	e7df      	b.n	80086b6 <_fflush_r+0x22>
 80086f6:	4b04      	ldr	r3, [pc, #16]	; (8008708 <_fflush_r+0x74>)
 80086f8:	429c      	cmp	r4, r3
 80086fa:	bf08      	it	eq
 80086fc:	68ec      	ldreq	r4, [r5, #12]
 80086fe:	e7da      	b.n	80086b6 <_fflush_r+0x22>
 8008700:	0800901c 	.word	0x0800901c
 8008704:	0800903c 	.word	0x0800903c
 8008708:	08008ffc 	.word	0x08008ffc

0800870c <std>:
 800870c:	2300      	movs	r3, #0
 800870e:	b510      	push	{r4, lr}
 8008710:	4604      	mov	r4, r0
 8008712:	e9c0 3300 	strd	r3, r3, [r0]
 8008716:	e9c0 3304 	strd	r3, r3, [r0, #16]
 800871a:	6083      	str	r3, [r0, #8]
 800871c:	8181      	strh	r1, [r0, #12]
 800871e:	6643      	str	r3, [r0, #100]	; 0x64
 8008720:	81c2      	strh	r2, [r0, #14]
 8008722:	6183      	str	r3, [r0, #24]
 8008724:	4619      	mov	r1, r3
 8008726:	2208      	movs	r2, #8
 8008728:	305c      	adds	r0, #92	; 0x5c
 800872a:	f7fd fba5 	bl	8005e78 <memset>
 800872e:	4b05      	ldr	r3, [pc, #20]	; (8008744 <std+0x38>)
 8008730:	6263      	str	r3, [r4, #36]	; 0x24
 8008732:	4b05      	ldr	r3, [pc, #20]	; (8008748 <std+0x3c>)
 8008734:	62a3      	str	r3, [r4, #40]	; 0x28
 8008736:	4b05      	ldr	r3, [pc, #20]	; (800874c <std+0x40>)
 8008738:	62e3      	str	r3, [r4, #44]	; 0x2c
 800873a:	4b05      	ldr	r3, [pc, #20]	; (8008750 <std+0x44>)
 800873c:	6224      	str	r4, [r4, #32]
 800873e:	6323      	str	r3, [r4, #48]	; 0x30
 8008740:	bd10      	pop	{r4, pc}
 8008742:	bf00      	nop
 8008744:	08008a5d 	.word	0x08008a5d
 8008748:	08008a7f 	.word	0x08008a7f
 800874c:	08008ab7 	.word	0x08008ab7
 8008750:	08008adb 	.word	0x08008adb

08008754 <_cleanup_r>:
 8008754:	4901      	ldr	r1, [pc, #4]	; (800875c <_cleanup_r+0x8>)
 8008756:	f000 b8af 	b.w	80088b8 <_fwalk_reent>
 800875a:	bf00      	nop
 800875c:	08008695 	.word	0x08008695

08008760 <__sfmoreglue>:
 8008760:	b570      	push	{r4, r5, r6, lr}
 8008762:	1e4a      	subs	r2, r1, #1
 8008764:	2568      	movs	r5, #104	; 0x68
 8008766:	4355      	muls	r5, r2
 8008768:	460e      	mov	r6, r1
 800876a:	f105 0174 	add.w	r1, r5, #116	; 0x74
 800876e:	f7ff fa87 	bl	8007c80 <_malloc_r>
 8008772:	4604      	mov	r4, r0
 8008774:	b140      	cbz	r0, 8008788 <__sfmoreglue+0x28>
 8008776:	2100      	movs	r1, #0
 8008778:	e9c0 1600 	strd	r1, r6, [r0]
 800877c:	300c      	adds	r0, #12
 800877e:	60a0      	str	r0, [r4, #8]
 8008780:	f105 0268 	add.w	r2, r5, #104	; 0x68
 8008784:	f7fd fb78 	bl	8005e78 <memset>
 8008788:	4620      	mov	r0, r4
 800878a:	bd70      	pop	{r4, r5, r6, pc}

0800878c <__sfp_lock_acquire>:
 800878c:	4801      	ldr	r0, [pc, #4]	; (8008794 <__sfp_lock_acquire+0x8>)
 800878e:	f000 b8b3 	b.w	80088f8 <__retarget_lock_acquire_recursive>
 8008792:	bf00      	nop
 8008794:	20000554 	.word	0x20000554

08008798 <__sfp_lock_release>:
 8008798:	4801      	ldr	r0, [pc, #4]	; (80087a0 <__sfp_lock_release+0x8>)
 800879a:	f000 b8ae 	b.w	80088fa <__retarget_lock_release_recursive>
 800879e:	bf00      	nop
 80087a0:	20000554 	.word	0x20000554

080087a4 <__sinit_lock_acquire>:
 80087a4:	4801      	ldr	r0, [pc, #4]	; (80087ac <__sinit_lock_acquire+0x8>)
 80087a6:	f000 b8a7 	b.w	80088f8 <__retarget_lock_acquire_recursive>
 80087aa:	bf00      	nop
 80087ac:	2000054f 	.word	0x2000054f

080087b0 <__sinit_lock_release>:
 80087b0:	4801      	ldr	r0, [pc, #4]	; (80087b8 <__sinit_lock_release+0x8>)
 80087b2:	f000 b8a2 	b.w	80088fa <__retarget_lock_release_recursive>
 80087b6:	bf00      	nop
 80087b8:	2000054f 	.word	0x2000054f

080087bc <__sinit>:
 80087bc:	b510      	push	{r4, lr}
 80087be:	4604      	mov	r4, r0
 80087c0:	f7ff fff0 	bl	80087a4 <__sinit_lock_acquire>
 80087c4:	69a3      	ldr	r3, [r4, #24]
 80087c6:	b11b      	cbz	r3, 80087d0 <__sinit+0x14>
 80087c8:	e8bd 4010 	ldmia.w	sp!, {r4, lr}
 80087cc:	f7ff bff0 	b.w	80087b0 <__sinit_lock_release>
 80087d0:	e9c4 3312 	strd	r3, r3, [r4, #72]	; 0x48
 80087d4:	6523      	str	r3, [r4, #80]	; 0x50
 80087d6:	4b13      	ldr	r3, [pc, #76]	; (8008824 <__sinit+0x68>)
 80087d8:	4a13      	ldr	r2, [pc, #76]	; (8008828 <__sinit+0x6c>)
 80087da:	681b      	ldr	r3, [r3, #0]
 80087dc:	62a2      	str	r2, [r4, #40]	; 0x28
 80087de:	42a3      	cmp	r3, r4
 80087e0:	bf04      	itt	eq
 80087e2:	2301      	moveq	r3, #1
 80087e4:	61a3      	streq	r3, [r4, #24]
 80087e6:	4620      	mov	r0, r4
 80087e8:	f000 f820 	bl	800882c <__sfp>
 80087ec:	6060      	str	r0, [r4, #4]
 80087ee:	4620      	mov	r0, r4
 80087f0:	f000 f81c 	bl	800882c <__sfp>
 80087f4:	60a0      	str	r0, [r4, #8]
 80087f6:	4620      	mov	r0, r4
 80087f8:	f000 f818 	bl	800882c <__sfp>
 80087fc:	2200      	movs	r2, #0
 80087fe:	60e0      	str	r0, [r4, #12]
 8008800:	2104      	movs	r1, #4
 8008802:	6860      	ldr	r0, [r4, #4]
 8008804:	f7ff ff82 	bl	800870c <std>
 8008808:	68a0      	ldr	r0, [r4, #8]
 800880a:	2201      	movs	r2, #1
 800880c:	2109      	movs	r1, #9
 800880e:	f7ff ff7d 	bl	800870c <std>
 8008812:	68e0      	ldr	r0, [r4, #12]
 8008814:	2202      	movs	r2, #2
 8008816:	2112      	movs	r1, #18
 8008818:	f7ff ff78 	bl	800870c <std>
 800881c:	2301      	movs	r3, #1
 800881e:	61a3      	str	r3, [r4, #24]
 8008820:	e7d2      	b.n	80087c8 <__sinit+0xc>
 8008822:	bf00      	nop
 8008824:	08008c7c 	.word	0x08008c7c
 8008828:	08008755 	.word	0x08008755

0800882c <__sfp>:
 800882c:	b5f8      	push	{r3, r4, r5, r6, r7, lr}
 800882e:	4607      	mov	r7, r0
 8008830:	f7ff ffac 	bl	800878c <__sfp_lock_acquire>
 8008834:	4b1e      	ldr	r3, [pc, #120]	; (80088b0 <__sfp+0x84>)
 8008836:	681e      	ldr	r6, [r3, #0]
 8008838:	69b3      	ldr	r3, [r6, #24]
 800883a:	b913      	cbnz	r3, 8008842 <__sfp+0x16>
 800883c:	4630      	mov	r0, r6
 800883e:	f7ff ffbd 	bl	80087bc <__sinit>
 8008842:	3648      	adds	r6, #72	; 0x48
 8008844:	e9d6 3401 	ldrd	r3, r4, [r6, #4]
 8008848:	3b01      	subs	r3, #1
 800884a:	d503      	bpl.n	8008854 <__sfp+0x28>
 800884c:	6833      	ldr	r3, [r6, #0]
 800884e:	b30b      	cbz	r3, 8008894 <__sfp+0x68>
 8008850:	6836      	ldr	r6, [r6, #0]
 8008852:	e7f7      	b.n	8008844 <__sfp+0x18>
 8008854:	f9b4 500c 	ldrsh.w	r5, [r4, #12]
 8008858:	b9d5      	cbnz	r5, 8008890 <__sfp+0x64>
 800885a:	4b16      	ldr	r3, [pc, #88]	; (80088b4 <__sfp+0x88>)
 800885c:	60e3      	str	r3, [r4, #12]
 800885e:	f104 0058 	add.w	r0, r4, #88	; 0x58
 8008862:	6665      	str	r5, [r4, #100]	; 0x64
 8008864:	f000 f847 	bl	80088f6 <__retarget_lock_init_recursive>
 8008868:	f7ff ff96 	bl	8008798 <__sfp_lock_release>
 800886c:	e9c4 5501 	strd	r5, r5, [r4, #4]
 8008870:	e9c4 5504 	strd	r5, r5, [r4, #16]
 8008874:	6025      	str	r5, [r4, #0]
 8008876:	61a5      	str	r5, [r4, #24]
 8008878:	2208      	movs	r2, #8
 800887a:	4629      	mov	r1, r5
 800887c:	f104 005c 	add.w	r0, r4, #92	; 0x5c
 8008880:	f7fd fafa 	bl	8005e78 <memset>
 8008884:	e9c4 550d 	strd	r5, r5, [r4, #52]	; 0x34
 8008888:	e9c4 5512 	strd	r5, r5, [r4, #72]	; 0x48
 800888c:	4620      	mov	r0, r4
 800888e:	bdf8      	pop	{r3, r4, r5, r6, r7, pc}
 8008890:	3468      	adds	r4, #104	; 0x68
 8008892:	e7d9      	b.n	8008848 <__sfp+0x1c>
 8008894:	2104      	movs	r1, #4
 8008896:	4638      	mov	r0, r7
 8008898:	f7ff ff62 	bl	8008760 <__sfmoreglue>
 800889c:	4604      	mov	r4, r0
 800889e:	6030      	str	r0, [r6, #0]
 80088a0:	2800      	cmp	r0, #0
 80088a2:	d1d5      	bne.n	8008850 <__sfp+0x24>
 80088a4:	f7ff ff78 	bl	8008798 <__sfp_lock_release>
 80088a8:	230c      	movs	r3, #12
 80088aa:	603b      	str	r3, [r7, #0]
 80088ac:	e7ee      	b.n	800888c <__sfp+0x60>
 80088ae:	bf00      	nop
 80088b0:	08008c7c 	.word	0x08008c7c
 80088b4:	ffff0001 	.word	0xffff0001

080088b8 <_fwalk_reent>:
 80088b8:	e92d 43f8 	stmdb	sp!, {r3, r4, r5, r6, r7, r8, r9, lr}
 80088bc:	4606      	mov	r6, r0
 80088be:	4688      	mov	r8, r1
 80088c0:	f100 0448 	add.w	r4, r0, #72	; 0x48
 80088c4:	2700      	movs	r7, #0
 80088c6:	e9d4 9501 	ldrd	r9, r5, [r4, #4]
 80088ca:	f1b9 0901 	subs.w	r9, r9, #1
 80088ce:	d505      	bpl.n	80088dc <_fwalk_reent+0x24>
 80088d0:	6824      	ldr	r4, [r4, #0]
 80088d2:	2c00      	cmp	r4, #0
 80088d4:	d1f7      	bne.n	80088c6 <_fwalk_reent+0xe>
 80088d6:	4638      	mov	r0, r7
 80088d8:	e8bd 83f8 	ldmia.w	sp!, {r3, r4, r5, r6, r7, r8, r9, pc}
 80088dc:	89ab      	ldrh	r3, [r5, #12]
 80088de:	2b01      	cmp	r3, #1
 80088e0:	d907      	bls.n	80088f2 <_fwalk_reent+0x3a>
 80088e2:	f9b5 300e 	ldrsh.w	r3, [r5, #14]
 80088e6:	3301      	adds	r3, #1
 80088e8:	d003      	beq.n	80088f2 <_fwalk_reent+0x3a>
 80088ea:	4629      	mov	r1, r5
 80088ec:	4630      	mov	r0, r6
 80088ee:	47c0      	blx	r8
 80088f0:	4307      	orrs	r7, r0
 80088f2:	3568      	adds	r5, #104	; 0x68
 80088f4:	e7e9      	b.n	80088ca <_fwalk_reent+0x12>

080088f6 <__retarget_lock_init_recursive>:
 80088f6:	4770      	bx	lr

080088f8 <__retarget_lock_acquire_recursive>:
 80088f8:	4770      	bx	lr

080088fa <__retarget_lock_release_recursive>:
 80088fa:	4770      	bx	lr

080088fc <__swhatbuf_r>:
 80088fc:	b570      	push	{r4, r5, r6, lr}
 80088fe:	460e      	mov	r6, r1
 8008900:	f9b1 100e 	ldrsh.w	r1, [r1, #14]
 8008904:	2900      	cmp	r1, #0
 8008906:	b096      	sub	sp, #88	; 0x58
 8008908:	4614      	mov	r4, r2
 800890a:	461d      	mov	r5, r3
 800890c:	da07      	bge.n	800891e <__swhatbuf_r+0x22>
 800890e:	2300      	movs	r3, #0
 8008910:	602b      	str	r3, [r5, #0]
 8008912:	89b3      	ldrh	r3, [r6, #12]
 8008914:	061a      	lsls	r2, r3, #24
 8008916:	d410      	bmi.n	800893a <__swhatbuf_r+0x3e>
 8008918:	f44f 6380 	mov.w	r3, #1024	; 0x400
 800891c:	e00e      	b.n	800893c <__swhatbuf_r+0x40>
 800891e:	466a      	mov	r2, sp
 8008920:	f000 f902 	bl	8008b28 <_fstat_r>
 8008924:	2800      	cmp	r0, #0
 8008926:	dbf2      	blt.n	800890e <__swhatbuf_r+0x12>
 8008928:	9a01      	ldr	r2, [sp, #4]
 800892a:	f402 4270 	and.w	r2, r2, #61440	; 0xf000
 800892e:	f5a2 5300 	sub.w	r3, r2, #8192	; 0x2000
 8008932:	425a      	negs	r2, r3
 8008934:	415a      	adcs	r2, r3
 8008936:	602a      	str	r2, [r5, #0]
 8008938:	e7ee      	b.n	8008918 <__swhatbuf_r+0x1c>
 800893a:	2340      	movs	r3, #64	; 0x40
 800893c:	2000      	movs	r0, #0
 800893e:	6023      	str	r3, [r4, #0]
 8008940:	b016      	add	sp, #88	; 0x58
 8008942:	bd70      	pop	{r4, r5, r6, pc}

08008944 <__smakebuf_r>:
 8008944:	898b      	ldrh	r3, [r1, #12]
 8008946:	b573      	push	{r0, r1, r4, r5, r6, lr}
 8008948:	079d      	lsls	r5, r3, #30
 800894a:	4606      	mov	r6, r0
 800894c:	460c      	mov	r4, r1
 800894e:	d507      	bpl.n	8008960 <__smakebuf_r+0x1c>
 8008950:	f104 0347 	add.w	r3, r4, #71	; 0x47
 8008954:	6023      	str	r3, [r4, #0]
 8008956:	6123      	str	r3, [r4, #16]
 8008958:	2301      	movs	r3, #1
 800895a:	6163      	str	r3, [r4, #20]
 800895c:	b002      	add	sp, #8
 800895e:	bd70      	pop	{r4, r5, r6, pc}
 8008960:	ab01      	add	r3, sp, #4
 8008962:	466a      	mov	r2, sp
 8008964:	f7ff ffca 	bl	80088fc <__swhatbuf_r>
 8008968:	9900      	ldr	r1, [sp, #0]
 800896a:	4605      	mov	r5, r0
 800896c:	4630      	mov	r0, r6
 800896e:	f7ff f987 	bl	8007c80 <_malloc_r>
 8008972:	b948      	cbnz	r0, 8008988 <__smakebuf_r+0x44>
 8008974:	f9b4 300c 	ldrsh.w	r3, [r4, #12]
 8008978:	059a      	lsls	r2, r3, #22
 800897a:	d4ef      	bmi.n	800895c <__smakebuf_r+0x18>
 800897c:	f023 0303 	bic.w	r3, r3, #3
 8008980:	f043 0302 	orr.w	r3, r3, #2
 8008984:	81a3      	strh	r3, [r4, #12]
 8008986:	e7e3      	b.n	8008950 <__smakebuf_r+0xc>
 8008988:	4b0d      	ldr	r3, [pc, #52]	; (80089c0 <__smakebuf_r+0x7c>)
 800898a:	62b3      	str	r3, [r6, #40]	; 0x28
 800898c:	89a3      	ldrh	r3, [r4, #12]
 800898e:	6020      	str	r0, [r4, #0]
 8008990:	f043 0380 	orr.w	r3, r3, #128	; 0x80
 8008994:	81a3      	strh	r3, [r4, #12]
 8008996:	9b00      	ldr	r3, [sp, #0]
 8008998:	6163      	str	r3, [r4, #20]
 800899a:	9b01      	ldr	r3, [sp, #4]
 800899c:	6120      	str	r0, [r4, #16]
 800899e:	b15b      	cbz	r3, 80089b8 <__smakebuf_r+0x74>
 80089a0:	f9b4 100e 	ldrsh.w	r1, [r4, #14]
 80089a4:	4630      	mov	r0, r6
 80089a6:	f000 f8d1 	bl	8008b4c <_isatty_r>
 80089aa:	b128      	cbz	r0, 80089b8 <__smakebuf_r+0x74>
 80089ac:	89a3      	ldrh	r3, [r4, #12]
 80089ae:	f023 0303 	bic.w	r3, r3, #3
 80089b2:	f043 0301 	orr.w	r3, r3, #1
 80089b6:	81a3      	strh	r3, [r4, #12]
 80089b8:	89a0      	ldrh	r0, [r4, #12]
 80089ba:	4305      	orrs	r5, r0
 80089bc:	81a5      	strh	r5, [r4, #12]
 80089be:	e7cd      	b.n	800895c <__smakebuf_r+0x18>
 80089c0:	08008755 	.word	0x08008755

080089c4 <_malloc_usable_size_r>:
 80089c4:	f851 3c04 	ldr.w	r3, [r1, #-4]
 80089c8:	1f18      	subs	r0, r3, #4
 80089ca:	2b00      	cmp	r3, #0
 80089cc:	bfbc      	itt	lt
 80089ce:	580b      	ldrlt	r3, [r1, r0]
 80089d0:	18c0      	addlt	r0, r0, r3
 80089d2:	4770      	bx	lr

080089d4 <_raise_r>:
 80089d4:	291f      	cmp	r1, #31
 80089d6:	b538      	push	{r3, r4, r5, lr}
 80089d8:	4604      	mov	r4, r0
 80089da:	460d      	mov	r5, r1
 80089dc:	d904      	bls.n	80089e8 <_raise_r+0x14>
 80089de:	2316      	movs	r3, #22
 80089e0:	6003      	str	r3, [r0, #0]
 80089e2:	f04f 30ff 	mov.w	r0, #4294967295	; 0xffffffff
 80089e6:	bd38      	pop	{r3, r4, r5, pc}
 80089e8:	6c42      	ldr	r2, [r0, #68]	; 0x44
 80089ea:	b112      	cbz	r2, 80089f2 <_raise_r+0x1e>
 80089ec:	f852 3021 	ldr.w	r3, [r2, r1, lsl #2]
 80089f0:	b94b      	cbnz	r3, 8008a06 <_raise_r+0x32>
 80089f2:	4620      	mov	r0, r4
 80089f4:	f000 f830 	bl	8008a58 <_getpid_r>
 80089f8:	462a      	mov	r2, r5
 80089fa:	4601      	mov	r1, r0
 80089fc:	4620      	mov	r0, r4
 80089fe:	e8bd 4038 	ldmia.w	sp!, {r3, r4, r5, lr}
 8008a02:	f000 b817 	b.w	8008a34 <_kill_r>
 8008a06:	2b01      	cmp	r3, #1
 8008a08:	d00a      	beq.n	8008a20 <_raise_r+0x4c>
 8008a0a:	1c59      	adds	r1, r3, #1
 8008a0c:	d103      	bne.n	8008a16 <_raise_r+0x42>
 8008a0e:	2316      	movs	r3, #22
 8008a10:	6003      	str	r3, [r0, #0]
 8008a12:	2001      	movs	r0, #1
 8008a14:	e7e7      	b.n	80089e6 <_raise_r+0x12>
 8008a16:	2400      	movs	r4, #0
 8008a18:	f842 4025 	str.w	r4, [r2, r5, lsl #2]
 8008a1c:	4628      	mov	r0, r5
 8008a1e:	4798      	blx	r3
 8008a20:	2000      	movs	r0, #0
 8008a22:	e7e0      	b.n	80089e6 <_raise_r+0x12>

08008a24 <raise>:
 8008a24:	4b02      	ldr	r3, [pc, #8]	; (8008a30 <raise+0xc>)
 8008a26:	4601      	mov	r1, r0
 8008a28:	6818      	ldr	r0, [r3, #0]
 8008a2a:	f7ff bfd3 	b.w	80089d4 <_raise_r>
 8008a2e:	bf00      	nop
 8008a30:	20000024 	.word	0x20000024

08008a34 <_kill_r>:
 8008a34:	b538      	push	{r3, r4, r5, lr}
 8008a36:	4d07      	ldr	r5, [pc, #28]	; (8008a54 <_kill_r+0x20>)
 8008a38:	2300      	movs	r3, #0
 8008a3a:	4604      	mov	r4, r0
 8008a3c:	4608      	mov	r0, r1
 8008a3e:	4611      	mov	r1, r2
 8008a40:	602b      	str	r3, [r5, #0]
 8008a42:	f7f9 fbfd 	bl	8002240 <_kill>
 8008a46:	1c43      	adds	r3, r0, #1
 8008a48:	d102      	bne.n	8008a50 <_kill_r+0x1c>
 8008a4a:	682b      	ldr	r3, [r5, #0]
 8008a4c:	b103      	cbz	r3, 8008a50 <_kill_r+0x1c>
 8008a4e:	6023      	str	r3, [r4, #0]
 8008a50:	bd38      	pop	{r3, r4, r5, pc}
 8008a52:	bf00      	nop
 8008a54:	20000548 	.word	0x20000548

08008a58 <_getpid_r>:
 8008a58:	f7f9 bbea 	b.w	8002230 <_getpid>

08008a5c <__sread>:
 8008a5c:	b510      	push	{r4, lr}
 8008a5e:	460c      	mov	r4, r1
 8008a60:	f9b1 100e 	ldrsh.w	r1, [r1, #14]
 8008a64:	f000 f894 	bl	8008b90 <_read_r>
 8008a68:	2800      	cmp	r0, #0
 8008a6a:	bfab      	itete	ge
 8008a6c:	6d63      	ldrge	r3, [r4, #84]	; 0x54
 8008a6e:	89a3      	ldrhlt	r3, [r4, #12]
 8008a70:	181b      	addge	r3, r3, r0
 8008a72:	f423 5380 	biclt.w	r3, r3, #4096	; 0x1000
 8008a76:	bfac      	ite	ge
 8008a78:	6563      	strge	r3, [r4, #84]	; 0x54
 8008a7a:	81a3      	strhlt	r3, [r4, #12]
 8008a7c:	bd10      	pop	{r4, pc}

08008a7e <__swrite>:
 8008a7e:	e92d 41f0 	stmdb	sp!, {r4, r5, r6, r7, r8, lr}
 8008a82:	461f      	mov	r7, r3
 8008a84:	898b      	ldrh	r3, [r1, #12]
 8008a86:	05db      	lsls	r3, r3, #23
 8008a88:	4605      	mov	r5, r0
 8008a8a:	460c      	mov	r4, r1
 8008a8c:	4616      	mov	r6, r2
 8008a8e:	d505      	bpl.n	8008a9c <__swrite+0x1e>
 8008a90:	f9b1 100e 	ldrsh.w	r1, [r1, #14]
 8008a94:	2302      	movs	r3, #2
 8008a96:	2200      	movs	r2, #0
 8008a98:	f000 f868 	bl	8008b6c <_lseek_r>
 8008a9c:	89a3      	ldrh	r3, [r4, #12]
 8008a9e:	f9b4 100e 	ldrsh.w	r1, [r4, #14]
 8008aa2:	f423 5380 	bic.w	r3, r3, #4096	; 0x1000
 8008aa6:	81a3      	strh	r3, [r4, #12]
 8008aa8:	4632      	mov	r2, r6
 8008aaa:	463b      	mov	r3, r7
 8008aac:	4628      	mov	r0, r5
 8008aae:	e8bd 41f0 	ldmia.w	sp!, {r4, r5, r6, r7, r8, lr}
 8008ab2:	f000 b817 	b.w	8008ae4 <_write_r>

08008ab6 <__sseek>:
 8008ab6:	b510      	push	{r4, lr}
 8008ab8:	460c      	mov	r4, r1
 8008aba:	f9b1 100e 	ldrsh.w	r1, [r1, #14]
 8008abe:	f000 f855 	bl	8008b6c <_lseek_r>
 8008ac2:	1c43      	adds	r3, r0, #1
 8008ac4:	89a3      	ldrh	r3, [r4, #12]
 8008ac6:	bf15      	itete	ne
 8008ac8:	6560      	strne	r0, [r4, #84]	; 0x54
 8008aca:	f423 5380 	biceq.w	r3, r3, #4096	; 0x1000
 8008ace:	f443 5380 	orrne.w	r3, r3, #4096	; 0x1000
 8008ad2:	81a3      	strheq	r3, [r4, #12]
 8008ad4:	bf18      	it	ne
 8008ad6:	81a3      	strhne	r3, [r4, #12]
 8008ad8:	bd10      	pop	{r4, pc}

08008ada <__sclose>:
 8008ada:	f9b1 100e 	ldrsh.w	r1, [r1, #14]
 8008ade:	f000 b813 	b.w	8008b08 <_close_r>
	...

08008ae4 <_write_r>:
 8008ae4:	b538      	push	{r3, r4, r5, lr}
 8008ae6:	4d07      	ldr	r5, [pc, #28]	; (8008b04 <_write_r+0x20>)
 8008ae8:	4604      	mov	r4, r0
 8008aea:	4608      	mov	r0, r1
 8008aec:	4611      	mov	r1, r2
 8008aee:	2200      	movs	r2, #0
 8008af0:	602a      	str	r2, [r5, #0]
 8008af2:	461a      	mov	r2, r3
 8008af4:	f7f9 fbdb 	bl	80022ae <_write>
 8008af8:	1c43      	adds	r3, r0, #1
 8008afa:	d102      	bne.n	8008b02 <_write_r+0x1e>
 8008afc:	682b      	ldr	r3, [r5, #0]
 8008afe:	b103      	cbz	r3, 8008b02 <_write_r+0x1e>
 8008b00:	6023      	str	r3, [r4, #0]
 8008b02:	bd38      	pop	{r3, r4, r5, pc}
 8008b04:	20000548 	.word	0x20000548

08008b08 <_close_r>:
 8008b08:	b538      	push	{r3, r4, r5, lr}
 8008b0a:	4d06      	ldr	r5, [pc, #24]	; (8008b24 <_close_r+0x1c>)
 8008b0c:	2300      	movs	r3, #0
 8008b0e:	4604      	mov	r4, r0
 8008b10:	4608      	mov	r0, r1
 8008b12:	602b      	str	r3, [r5, #0]
 8008b14:	f7f9 fbe7 	bl	80022e6 <_close>
 8008b18:	1c43      	adds	r3, r0, #1
 8008b1a:	d102      	bne.n	8008b22 <_close_r+0x1a>
 8008b1c:	682b      	ldr	r3, [r5, #0]
 8008b1e:	b103      	cbz	r3, 8008b22 <_close_r+0x1a>
 8008b20:	6023      	str	r3, [r4, #0]
 8008b22:	bd38      	pop	{r3, r4, r5, pc}
 8008b24:	20000548 	.word	0x20000548

08008b28 <_fstat_r>:
 8008b28:	b538      	push	{r3, r4, r5, lr}
 8008b2a:	4d07      	ldr	r5, [pc, #28]	; (8008b48 <_fstat_r+0x20>)
 8008b2c:	2300      	movs	r3, #0
 8008b2e:	4604      	mov	r4, r0
 8008b30:	4608      	mov	r0, r1
 8008b32:	4611      	mov	r1, r2
 8008b34:	602b      	str	r3, [r5, #0]
 8008b36:	f7f9 fbe2 	bl	80022fe <_fstat>
 8008b3a:	1c43      	adds	r3, r0, #1
 8008b3c:	d102      	bne.n	8008b44 <_fstat_r+0x1c>
 8008b3e:	682b      	ldr	r3, [r5, #0]
 8008b40:	b103      	cbz	r3, 8008b44 <_fstat_r+0x1c>
 8008b42:	6023      	str	r3, [r4, #0]
 8008b44:	bd38      	pop	{r3, r4, r5, pc}
 8008b46:	bf00      	nop
 8008b48:	20000548 	.word	0x20000548

08008b4c <_isatty_r>:
 8008b4c:	b538      	push	{r3, r4, r5, lr}
 8008b4e:	4d06      	ldr	r5, [pc, #24]	; (8008b68 <_isatty_r+0x1c>)
 8008b50:	2300      	movs	r3, #0
 8008b52:	4604      	mov	r4, r0
 8008b54:	4608      	mov	r0, r1
 8008b56:	602b      	str	r3, [r5, #0]
 8008b58:	f7f9 fbe1 	bl	800231e <_isatty>
 8008b5c:	1c43      	adds	r3, r0, #1
 8008b5e:	d102      	bne.n	8008b66 <_isatty_r+0x1a>
 8008b60:	682b      	ldr	r3, [r5, #0]
 8008b62:	b103      	cbz	r3, 8008b66 <_isatty_r+0x1a>
 8008b64:	6023      	str	r3, [r4, #0]
 8008b66:	bd38      	pop	{r3, r4, r5, pc}
 8008b68:	20000548 	.word	0x20000548

08008b6c <_lseek_r>:
 8008b6c:	b538      	push	{r3, r4, r5, lr}
 8008b6e:	4d07      	ldr	r5, [pc, #28]	; (8008b8c <_lseek_r+0x20>)
 8008b70:	4604      	mov	r4, r0
 8008b72:	4608      	mov	r0, r1
 8008b74:	4611      	mov	r1, r2
 8008b76:	2200      	movs	r2, #0
 8008b78:	602a      	str	r2, [r5, #0]
 8008b7a:	461a      	mov	r2, r3
 8008b7c:	f7f9 fbda 	bl	8002334 <_lseek>
 8008b80:	1c43      	adds	r3, r0, #1
 8008b82:	d102      	bne.n	8008b8a <_lseek_r+0x1e>
 8008b84:	682b      	ldr	r3, [r5, #0]
 8008b86:	b103      	cbz	r3, 8008b8a <_lseek_r+0x1e>
 8008b88:	6023      	str	r3, [r4, #0]
 8008b8a:	bd38      	pop	{r3, r4, r5, pc}
 8008b8c:	20000548 	.word	0x20000548

08008b90 <_read_r>:
 8008b90:	b538      	push	{r3, r4, r5, lr}
 8008b92:	4d07      	ldr	r5, [pc, #28]	; (8008bb0 <_read_r+0x20>)
 8008b94:	4604      	mov	r4, r0
 8008b96:	4608      	mov	r0, r1
 8008b98:	4611      	mov	r1, r2
 8008b9a:	2200      	movs	r2, #0
 8008b9c:	602a      	str	r2, [r5, #0]
 8008b9e:	461a      	mov	r2, r3
 8008ba0:	f7f9 fb68 	bl	8002274 <_read>
 8008ba4:	1c43      	adds	r3, r0, #1
 8008ba6:	d102      	bne.n	8008bae <_read_r+0x1e>
 8008ba8:	682b      	ldr	r3, [r5, #0]
 8008baa:	b103      	cbz	r3, 8008bae <_read_r+0x1e>
 8008bac:	6023      	str	r3, [r4, #0]
 8008bae:	bd38      	pop	{r3, r4, r5, pc}
 8008bb0:	20000548 	.word	0x20000548

08008bb4 <_init>:
 8008bb4:	b5f8      	push	{r3, r4, r5, r6, r7, lr}
 8008bb6:	bf00      	nop
 8008bb8:	bcf8      	pop	{r3, r4, r5, r6, r7}
 8008bba:	bc08      	pop	{r3}
 8008bbc:	469e      	mov	lr, r3
 8008bbe:	4770      	bx	lr

08008bc0 <_fini>:
 8008bc0:	b5f8      	push	{r3, r4, r5, r6, r7, lr}
 8008bc2:	bf00      	nop
 8008bc4:	bcf8      	pop	{r3, r4, r5, r6, r7}
 8008bc6:	bc08      	pop	{r3}
 8008bc8:	469e      	mov	lr, r3
 8008bca:	4770      	bx	lr
