
UltrasonicVest.elf:     file format elf32-littlearm

Sections:
Idx Name          Size      VMA       LMA       File off  Algn
  0 .isr_vector   000001c4  08000000  08000000  00010000  2**0
                  CONTENTS, ALLOC, LOAD, READONLY, DATA
  1 .text         00008b1c  080001d0  080001d0  000101d0  2**4
                  CONTENTS, ALLOC, LOAD, READONLY, CODE
  2 .rodata       00000484  08008cf0  08008cf0  00018cf0  2**3
                  CONTENTS, ALLOC, LOAD, READONLY, DATA
  3 .ARM.extab    00000000  08009174  08009174  000201f8  2**0
                  CONTENTS
  4 .ARM          00000008  08009174  08009174  00019174  2**2
                  CONTENTS, ALLOC, LOAD, READONLY, DATA
  5 .preinit_array 00000000  0800917c  0800917c  000201f8  2**0
                  CONTENTS, ALLOC, LOAD, DATA
  6 .init_array   00000004  0800917c  0800917c  0001917c  2**2
                  CONTENTS, ALLOC, LOAD, DATA
  7 .fini_array   00000004  08009180  08009180  00019180  2**2
                  CONTENTS, ALLOC, LOAD, DATA
  8 .data         000001f8  20000000  08009184  00020000  2**2
                  CONTENTS, ALLOC, LOAD, DATA
  9 .bss          00000364  200001f8  0800937c  000201f8  2**2
                  ALLOC
 10 ._user_heap_stack 00000604  2000055c  0800937c  0002055c  2**0
                  ALLOC
 11 .ARM.attributes 00000030  00000000  00000000  000201f8  2**0
                  CONTENTS, READONLY
 12 .debug_info   00011be4  00000000  00000000  00020228  2**0
                  CONTENTS, READONLY, DEBUGGING, OCTETS
 13 .debug_abbrev 00002420  00000000  00000000  00031e0c  2**0
                  CONTENTS, READONLY, DEBUGGING, OCTETS
 14 .debug_aranges 00000d98  00000000  00000000  00034230  2**3
                  CONTENTS, READONLY, DEBUGGING, OCTETS
 15 .debug_ranges 00000ca8  00000000  00000000  00034fc8  2**3
                  CONTENTS, READONLY, DEBUGGING, OCTETS
 16 .debug_macro  000232be  00000000  00000000  00035c70  2**0
                  CONTENTS, READONLY, DEBUGGING, OCTETS
 17 .debug_line   00010c8e  00000000  00000000  00058f2e  2**0
                  CONTENTS, READONLY, DEBUGGING, OCTETS
 18 .debug_str    000d2de3  00000000  00000000  00069bbc  2**0
                  CONTENTS, READONLY, DEBUGGING, OCTETS
 19 .comment      00000053  00000000  00000000  0013c99f  2**0
                  CONTENTS, READONLY
 20 .debug_frame  00004a0c  00000000  00000000  0013c9f4  2**2
                  CONTENTS, READONLY, DEBUGGING, OCTETS

Disassembly of section .text:

080001d0 <__do_global_dtors_aux>:
 80001d0:	b510      	push	{r4, lr}
 80001d2:	4c05      	ldr	r4, [pc, #20]	; (80001e8 <__do_global_dtors_aux+0x18>)
 80001d4:	7823      	ldrb	r3, [r4, #0]
 80001d6:	b933      	cbnz	r3, 80001e6 <__do_global_dtors_aux+0x16>
 80001d8:	4b04      	ldr	r3, [pc, #16]	; (80001ec <__do_global_dtors_aux+0x1c>)
 80001da:	b113      	cbz	r3, 80001e2 <__do_global_dtors_aux+0x12>
 80001dc:	4804      	ldr	r0, [pc, #16]	; (80001f0 <__do_global_dtors_aux+0x20>)
 80001de:	f3af 8000 	nop.w
 80001e2:	2301      	movs	r3, #1
 80001e4:	7023      	strb	r3, [r4, #0]
 80001e6:	bd10      	pop	{r4, pc}
 80001e8:	200001f8 	.word	0x200001f8
 80001ec:	00000000 	.word	0x00000000
 80001f0:	08008cd4 	.word	0x08008cd4

080001f4 <frame_dummy>:
 80001f4:	b508      	push	{r3, lr}
 80001f6:	4b03      	ldr	r3, [pc, #12]	; (8000204 <frame_dummy+0x10>)
 80001f8:	b11b      	cbz	r3, 8000202 <frame_dummy+0xe>
 80001fa:	4903      	ldr	r1, [pc, #12]	; (8000208 <frame_dummy+0x14>)
 80001fc:	4803      	ldr	r0, [pc, #12]	; (800020c <frame_dummy+0x18>)
 80001fe:	f3af 8000 	nop.w
 8000202:	bd08      	pop	{r3, pc}
 8000204:	00000000 	.word	0x00000000
 8000208:	200001fc 	.word	0x200001fc
 800020c:	08008cd4 	.word	0x08008cd4

08000210 <strlen>:
 8000210:	4603      	mov	r3, r0
 8000212:	f813 2b01 	ldrb.w	r2, [r3], #1
 8000216:	2a00      	cmp	r2, #0
 8000218:	d1fb      	bne.n	8000212 <strlen+0x2>
 800021a:	1a18      	subs	r0, r3, r0
 800021c:	3801      	subs	r0, #1
 800021e:	4770      	bx	lr

08000220 <memchr>:
 8000220:	f001 01ff 	and.w	r1, r1, #255	; 0xff
 8000224:	2a10      	cmp	r2, #16
 8000226:	db2b      	blt.n	8000280 <memchr+0x60>
 8000228:	f010 0f07 	tst.w	r0, #7
 800022c:	d008      	beq.n	8000240 <memchr+0x20>
 800022e:	f810 3b01 	ldrb.w	r3, [r0], #1
 8000232:	3a01      	subs	r2, #1
 8000234:	428b      	cmp	r3, r1
 8000236:	d02d      	beq.n	8000294 <memchr+0x74>
 8000238:	f010 0f07 	tst.w	r0, #7
 800023c:	b342      	cbz	r2, 8000290 <memchr+0x70>
 800023e:	d1f6      	bne.n	800022e <memchr+0xe>
 8000240:	b4f0      	push	{r4, r5, r6, r7}
 8000242:	ea41 2101 	orr.w	r1, r1, r1, lsl #8
 8000246:	ea41 4101 	orr.w	r1, r1, r1, lsl #16
 800024a:	f022 0407 	bic.w	r4, r2, #7
 800024e:	f07f 0700 	mvns.w	r7, #0
 8000252:	2300      	movs	r3, #0
 8000254:	e8f0 5602 	ldrd	r5, r6, [r0], #8
 8000258:	3c08      	subs	r4, #8
 800025a:	ea85 0501 	eor.w	r5, r5, r1
 800025e:	ea86 0601 	eor.w	r6, r6, r1
 8000262:	fa85 f547 	uadd8	r5, r5, r7
 8000266:	faa3 f587 	sel	r5, r3, r7
 800026a:	fa86 f647 	uadd8	r6, r6, r7
 800026e:	faa5 f687 	sel	r6, r5, r7
 8000272:	b98e      	cbnz	r6, 8000298 <memchr+0x78>
 8000274:	d1ee      	bne.n	8000254 <memchr+0x34>
 8000276:	bcf0      	pop	{r4, r5, r6, r7}
 8000278:	f001 01ff 	and.w	r1, r1, #255	; 0xff
 800027c:	f002 0207 	and.w	r2, r2, #7
 8000280:	b132      	cbz	r2, 8000290 <memchr+0x70>
 8000282:	f810 3b01 	ldrb.w	r3, [r0], #1
 8000286:	3a01      	subs	r2, #1
 8000288:	ea83 0301 	eor.w	r3, r3, r1
 800028c:	b113      	cbz	r3, 8000294 <memchr+0x74>
 800028e:	d1f8      	bne.n	8000282 <memchr+0x62>
 8000290:	2000      	movs	r0, #0
 8000292:	4770      	bx	lr
 8000294:	3801      	subs	r0, #1
 8000296:	4770      	bx	lr
 8000298:	2d00      	cmp	r5, #0
 800029a:	bf06      	itte	eq
 800029c:	4635      	moveq	r5, r6
 800029e:	3803      	subeq	r0, #3
 80002a0:	3807      	subne	r0, #7
 80002a2:	f015 0f01 	tst.w	r5, #1
 80002a6:	d107      	bne.n	80002b8 <memchr+0x98>
 80002a8:	3001      	adds	r0, #1
 80002aa:	f415 7f80 	tst.w	r5, #256	; 0x100
 80002ae:	bf02      	ittt	eq
 80002b0:	3001      	addeq	r0, #1
 80002b2:	f415 3fc0 	tsteq.w	r5, #98304	; 0x18000
 80002b6:	3001      	addeq	r0, #1
 80002b8:	bcf0      	pop	{r4, r5, r6, r7}
 80002ba:	3801      	subs	r0, #1
 80002bc:	4770      	bx	lr
 80002be:	bf00      	nop

080002c0 <__aeabi_drsub>:
 80002c0:	f081 4100 	eor.w	r1, r1, #2147483648	; 0x80000000
 80002c4:	e002      	b.n	80002cc <__adddf3>
 80002c6:	bf00      	nop

080002c8 <__aeabi_dsub>:
 80002c8:	f083 4300 	eor.w	r3, r3, #2147483648	; 0x80000000

080002cc <__adddf3>:
 80002cc:	b530      	push	{r4, r5, lr}
 80002ce:	ea4f 0441 	mov.w	r4, r1, lsl #1
 80002d2:	ea4f 0543 	mov.w	r5, r3, lsl #1
 80002d6:	ea94 0f05 	teq	r4, r5
 80002da:	bf08      	it	eq
 80002dc:	ea90 0f02 	teqeq	r0, r2
 80002e0:	bf1f      	itttt	ne
 80002e2:	ea54 0c00 	orrsne.w	ip, r4, r0
 80002e6:	ea55 0c02 	orrsne.w	ip, r5, r2
 80002ea:	ea7f 5c64 	mvnsne.w	ip, r4, asr #21
 80002ee:	ea7f 5c65 	mvnsne.w	ip, r5, asr #21
 80002f2:	f000 80e2 	beq.w	80004ba <__adddf3+0x1ee>
 80002f6:	ea4f 5454 	mov.w	r4, r4, lsr #21
 80002fa:	ebd4 5555 	rsbs	r5, r4, r5, lsr #21
 80002fe:	bfb8      	it	lt
 8000300:	426d      	neglt	r5, r5
 8000302:	dd0c      	ble.n	800031e <__adddf3+0x52>
 8000304:	442c      	add	r4, r5
 8000306:	ea80 0202 	eor.w	r2, r0, r2
 800030a:	ea81 0303 	eor.w	r3, r1, r3
 800030e:	ea82 0000 	eor.w	r0, r2, r0
 8000312:	ea83 0101 	eor.w	r1, r3, r1
 8000316:	ea80 0202 	eor.w	r2, r0, r2
 800031a:	ea81 0303 	eor.w	r3, r1, r3
 800031e:	2d36      	cmp	r5, #54	; 0x36
 8000320:	bf88      	it	hi
 8000322:	bd30      	pophi	{r4, r5, pc}
 8000324:	f011 4f00 	tst.w	r1, #2147483648	; 0x80000000
 8000328:	ea4f 3101 	mov.w	r1, r1, lsl #12
 800032c:	f44f 1c80 	mov.w	ip, #1048576	; 0x100000
 8000330:	ea4c 3111 	orr.w	r1, ip, r1, lsr #12
 8000334:	d002      	beq.n	800033c <__adddf3+0x70>
 8000336:	4240      	negs	r0, r0
 8000338:	eb61 0141 	sbc.w	r1, r1, r1, lsl #1
 800033c:	f013 4f00 	tst.w	r3, #2147483648	; 0x80000000
 8000340:	ea4f 3303 	mov.w	r3, r3, lsl #12
 8000344:	ea4c 3313 	orr.w	r3, ip, r3, lsr #12
 8000348:	d002      	beq.n	8000350 <__adddf3+0x84>
 800034a:	4252      	negs	r2, r2
 800034c:	eb63 0343 	sbc.w	r3, r3, r3, lsl #1
 8000350:	ea94 0f05 	teq	r4, r5
 8000354:	f000 80a7 	beq.w	80004a6 <__adddf3+0x1da>
 8000358:	f1a4 0401 	sub.w	r4, r4, #1
 800035c:	f1d5 0e20 	rsbs	lr, r5, #32
 8000360:	db0d      	blt.n	800037e <__adddf3+0xb2>
 8000362:	fa02 fc0e 	lsl.w	ip, r2, lr
 8000366:	fa22 f205 	lsr.w	r2, r2, r5
 800036a:	1880      	adds	r0, r0, r2
 800036c:	f141 0100 	adc.w	r1, r1, #0
 8000370:	fa03 f20e 	lsl.w	r2, r3, lr
 8000374:	1880      	adds	r0, r0, r2
 8000376:	fa43 f305 	asr.w	r3, r3, r5
 800037a:	4159      	adcs	r1, r3
 800037c:	e00e      	b.n	800039c <__adddf3+0xd0>
 800037e:	f1a5 0520 	sub.w	r5, r5, #32
 8000382:	f10e 0e20 	add.w	lr, lr, #32
 8000386:	2a01      	cmp	r2, #1
 8000388:	fa03 fc0e 	lsl.w	ip, r3, lr
 800038c:	bf28      	it	cs
 800038e:	f04c 0c02 	orrcs.w	ip, ip, #2
 8000392:	fa43 f305 	asr.w	r3, r3, r5
 8000396:	18c0      	adds	r0, r0, r3
 8000398:	eb51 71e3 	adcs.w	r1, r1, r3, asr #31
 800039c:	f001 4500 	and.w	r5, r1, #2147483648	; 0x80000000
 80003a0:	d507      	bpl.n	80003b2 <__adddf3+0xe6>
 80003a2:	f04f 0e00 	mov.w	lr, #0
 80003a6:	f1dc 0c00 	rsbs	ip, ip, #0
 80003aa:	eb7e 0000 	sbcs.w	r0, lr, r0
 80003ae:	eb6e 0101 	sbc.w	r1, lr, r1
 80003b2:	f5b1 1f80 	cmp.w	r1, #1048576	; 0x100000
 80003b6:	d31b      	bcc.n	80003f0 <__adddf3+0x124>
 80003b8:	f5b1 1f00 	cmp.w	r1, #2097152	; 0x200000
 80003bc:	d30c      	bcc.n	80003d8 <__adddf3+0x10c>
 80003be:	0849      	lsrs	r1, r1, #1
 80003c0:	ea5f 0030 	movs.w	r0, r0, rrx
 80003c4:	ea4f 0c3c 	mov.w	ip, ip, rrx
 80003c8:	f104 0401 	add.w	r4, r4, #1
 80003cc:	ea4f 5244 	mov.w	r2, r4, lsl #21
 80003d0:	f512 0f80 	cmn.w	r2, #4194304	; 0x400000
 80003d4:	f080 809a 	bcs.w	800050c <__adddf3+0x240>
 80003d8:	f1bc 4f00 	cmp.w	ip, #2147483648	; 0x80000000
 80003dc:	bf08      	it	eq
 80003de:	ea5f 0c50 	movseq.w	ip, r0, lsr #1
 80003e2:	f150 0000 	adcs.w	r0, r0, #0
 80003e6:	eb41 5104 	adc.w	r1, r1, r4, lsl #20
 80003ea:	ea41 0105 	orr.w	r1, r1, r5
 80003ee:	bd30      	pop	{r4, r5, pc}
 80003f0:	ea5f 0c4c 	movs.w	ip, ip, lsl #1
 80003f4:	4140      	adcs	r0, r0
 80003f6:	eb41 0101 	adc.w	r1, r1, r1
 80003fa:	3c01      	subs	r4, #1
 80003fc:	bf28      	it	cs
 80003fe:	f5b1 1f80 	cmpcs.w	r1, #1048576	; 0x100000
 8000402:	d2e9      	bcs.n	80003d8 <__adddf3+0x10c>
 8000404:	f091 0f00 	teq	r1, #0
 8000408:	bf04      	itt	eq
 800040a:	4601      	moveq	r1, r0
 800040c:	2000      	moveq	r0, #0
 800040e:	fab1 f381 	clz	r3, r1
 8000412:	bf08      	it	eq
 8000414:	3320      	addeq	r3, #32
 8000416:	f1a3 030b 	sub.w	r3, r3, #11
 800041a:	f1b3 0220 	subs.w	r2, r3, #32
 800041e:	da0c      	bge.n	800043a <__adddf3+0x16e>
 8000420:	320c      	adds	r2, #12
 8000422:	dd08      	ble.n	8000436 <__adddf3+0x16a>
 8000424:	f102 0c14 	add.w	ip, r2, #20
 8000428:	f1c2 020c 	rsb	r2, r2, #12
 800042c:	fa01 f00c 	lsl.w	r0, r1, ip
 8000430:	fa21 f102 	lsr.w	r1, r1, r2
 8000434:	e00c      	b.n	8000450 <__adddf3+0x184>
 8000436:	f102 0214 	add.w	r2, r2, #20
 800043a:	bfd8      	it	le
 800043c:	f1c2 0c20 	rsble	ip, r2, #32
 8000440:	fa01 f102 	lsl.w	r1, r1, r2
 8000444:	fa20 fc0c 	lsr.w	ip, r0, ip
 8000448:	bfdc      	itt	le
 800044a:	ea41 010c 	orrle.w	r1, r1, ip
 800044e:	4090      	lslle	r0, r2
 8000450:	1ae4      	subs	r4, r4, r3
 8000452:	bfa2      	ittt	ge
 8000454:	eb01 5104 	addge.w	r1, r1, r4, lsl #20
 8000458:	4329      	orrge	r1, r5
 800045a:	bd30      	popge	{r4, r5, pc}
 800045c:	ea6f 0404 	mvn.w	r4, r4
 8000460:	3c1f      	subs	r4, #31
 8000462:	da1c      	bge.n	800049e <__adddf3+0x1d2>
 8000464:	340c      	adds	r4, #12
 8000466:	dc0e      	bgt.n	8000486 <__adddf3+0x1ba>
 8000468:	f104 0414 	add.w	r4, r4, #20
 800046c:	f1c4 0220 	rsb	r2, r4, #32
 8000470:	fa20 f004 	lsr.w	r0, r0, r4
 8000474:	fa01 f302 	lsl.w	r3, r1, r2
 8000478:	ea40 0003 	orr.w	r0, r0, r3
 800047c:	fa21 f304 	lsr.w	r3, r1, r4
 8000480:	ea45 0103 	orr.w	r1, r5, r3
 8000484:	bd30      	pop	{r4, r5, pc}
 8000486:	f1c4 040c 	rsb	r4, r4, #12
 800048a:	f1c4 0220 	rsb	r2, r4, #32
 800048e:	fa20 f002 	lsr.w	r0, r0, r2
 8000492:	fa01 f304 	lsl.w	r3, r1, r4
 8000496:	ea40 0003 	orr.w	r0, r0, r3
 800049a:	4629      	mov	r1, r5
 800049c:	bd30      	pop	{r4, r5, pc}
 800049e:	fa21 f004 	lsr.w	r0, r1, r4
 80004a2:	4629      	mov	r1, r5
 80004a4:	bd30      	pop	{r4, r5, pc}
 80004a6:	f094 0f00 	teq	r4, #0
 80004aa:	f483 1380 	eor.w	r3, r3, #1048576	; 0x100000
 80004ae:	bf06      	itte	eq
 80004b0:	f481 1180 	eoreq.w	r1, r1, #1048576	; 0x100000
 80004b4:	3401      	addeq	r4, #1
 80004b6:	3d01      	subne	r5, #1
 80004b8:	e74e      	b.n	8000358 <__adddf3+0x8c>
 80004ba:	ea7f 5c64 	mvns.w	ip, r4, asr #21
 80004be:	bf18      	it	ne
 80004c0:	ea7f 5c65 	mvnsne.w	ip, r5, asr #21
 80004c4:	d029      	beq.n	800051a <__adddf3+0x24e>
 80004c6:	ea94 0f05 	teq	r4, r5
 80004ca:	bf08      	it	eq
 80004cc:	ea90 0f02 	teqeq	r0, r2
 80004d0:	d005      	beq.n	80004de <__adddf3+0x212>
 80004d2:	ea54 0c00 	orrs.w	ip, r4, r0
 80004d6:	bf04      	itt	eq
 80004d8:	4619      	moveq	r1, r3
 80004da:	4610      	moveq	r0, r2
 80004dc:	bd30      	pop	{r4, r5, pc}
 80004de:	ea91 0f03 	teq	r1, r3
 80004e2:	bf1e      	ittt	ne
 80004e4:	2100      	movne	r1, #0
 80004e6:	2000      	movne	r0, #0
 80004e8:	bd30      	popne	{r4, r5, pc}
 80004ea:	ea5f 5c54 	movs.w	ip, r4, lsr #21
 80004ee:	d105      	bne.n	80004fc <__adddf3+0x230>
 80004f0:	0040      	lsls	r0, r0, #1
 80004f2:	4149      	adcs	r1, r1
 80004f4:	bf28      	it	cs
 80004f6:	f041 4100 	orrcs.w	r1, r1, #2147483648	; 0x80000000
 80004fa:	bd30      	pop	{r4, r5, pc}
 80004fc:	f514 0480 	adds.w	r4, r4, #4194304	; 0x400000
 8000500:	bf3c      	itt	cc
 8000502:	f501 1180 	addcc.w	r1, r1, #1048576	; 0x100000
 8000506:	bd30      	popcc	{r4, r5, pc}
 8000508:	f001 4500 	and.w	r5, r1, #2147483648	; 0x80000000
 800050c:	f045 41fe 	orr.w	r1, r5, #2130706432	; 0x7f000000
 8000510:	f441 0170 	orr.w	r1, r1, #15728640	; 0xf00000
 8000514:	f04f 0000 	mov.w	r0, #0
 8000518:	bd30      	pop	{r4, r5, pc}
 800051a:	ea7f 5c64 	mvns.w	ip, r4, asr #21
 800051e:	bf1a      	itte	ne
 8000520:	4619      	movne	r1, r3
 8000522:	4610      	movne	r0, r2
 8000524:	ea7f 5c65 	mvnseq.w	ip, r5, asr #21
 8000528:	bf1c      	itt	ne
 800052a:	460b      	movne	r3, r1
 800052c:	4602      	movne	r2, r0
 800052e:	ea50 3401 	orrs.w	r4, r0, r1, lsl #12
 8000532:	bf06      	itte	eq
 8000534:	ea52 3503 	orrseq.w	r5, r2, r3, lsl #12
 8000538:	ea91 0f03 	teqeq	r1, r3
 800053c:	f441 2100 	orrne.w	r1, r1, #524288	; 0x80000
 8000540:	bd30      	pop	{r4, r5, pc}
 8000542:	bf00      	nop

08000544 <__aeabi_ui2d>:
 8000544:	f090 0f00 	teq	r0, #0
 8000548:	bf04      	itt	eq
 800054a:	2100      	moveq	r1, #0
 800054c:	4770      	bxeq	lr
 800054e:	b530      	push	{r4, r5, lr}
 8000550:	f44f 6480 	mov.w	r4, #1024	; 0x400
 8000554:	f104 0432 	add.w	r4, r4, #50	; 0x32
 8000558:	f04f 0500 	mov.w	r5, #0
 800055c:	f04f 0100 	mov.w	r1, #0
 8000560:	e750      	b.n	8000404 <__adddf3+0x138>
 8000562:	bf00      	nop

08000564 <__aeabi_i2d>:
 8000564:	f090 0f00 	teq	r0, #0
 8000568:	bf04      	itt	eq
 800056a:	2100      	moveq	r1, #0
 800056c:	4770      	bxeq	lr
 800056e:	b530      	push	{r4, r5, lr}
 8000570:	f44f 6480 	mov.w	r4, #1024	; 0x400
 8000574:	f104 0432 	add.w	r4, r4, #50	; 0x32
 8000578:	f010 4500 	ands.w	r5, r0, #2147483648	; 0x80000000
 800057c:	bf48      	it	mi
 800057e:	4240      	negmi	r0, r0
 8000580:	f04f 0100 	mov.w	r1, #0
 8000584:	e73e      	b.n	8000404 <__adddf3+0x138>
 8000586:	bf00      	nop

08000588 <__aeabi_f2d>:
 8000588:	0042      	lsls	r2, r0, #1
 800058a:	ea4f 01e2 	mov.w	r1, r2, asr #3
 800058e:	ea4f 0131 	mov.w	r1, r1, rrx
 8000592:	ea4f 7002 	mov.w	r0, r2, lsl #28
 8000596:	bf1f      	itttt	ne
 8000598:	f012 437f 	andsne.w	r3, r2, #4278190080	; 0xff000000
 800059c:	f093 4f7f 	teqne	r3, #4278190080	; 0xff000000
 80005a0:	f081 5160 	eorne.w	r1, r1, #939524096	; 0x38000000
 80005a4:	4770      	bxne	lr
 80005a6:	f032 427f 	bics.w	r2, r2, #4278190080	; 0xff000000
 80005aa:	bf08      	it	eq
 80005ac:	4770      	bxeq	lr
 80005ae:	f093 4f7f 	teq	r3, #4278190080	; 0xff000000
 80005b2:	bf04      	itt	eq
 80005b4:	f441 2100 	orreq.w	r1, r1, #524288	; 0x80000
 80005b8:	4770      	bxeq	lr
 80005ba:	b530      	push	{r4, r5, lr}
 80005bc:	f44f 7460 	mov.w	r4, #896	; 0x380
 80005c0:	f001 4500 	and.w	r5, r1, #2147483648	; 0x80000000
 80005c4:	f021 4100 	bic.w	r1, r1, #2147483648	; 0x80000000
 80005c8:	e71c      	b.n	8000404 <__adddf3+0x138>
 80005ca:	bf00      	nop

080005cc <__aeabi_ul2d>:
 80005cc:	ea50 0201 	orrs.w	r2, r0, r1
 80005d0:	bf08      	it	eq
 80005d2:	4770      	bxeq	lr
 80005d4:	b530      	push	{r4, r5, lr}
 80005d6:	f04f 0500 	mov.w	r5, #0
 80005da:	e00a      	b.n	80005f2 <__aeabi_l2d+0x16>

080005dc <__aeabi_l2d>:
 80005dc:	ea50 0201 	orrs.w	r2, r0, r1
 80005e0:	bf08      	it	eq
 80005e2:	4770      	bxeq	lr
 80005e4:	b530      	push	{r4, r5, lr}
 80005e6:	f011 4500 	ands.w	r5, r1, #2147483648	; 0x80000000
 80005ea:	d502      	bpl.n	80005f2 <__aeabi_l2d+0x16>
 80005ec:	4240      	negs	r0, r0
 80005ee:	eb61 0141 	sbc.w	r1, r1, r1, lsl #1
 80005f2:	f44f 6480 	mov.w	r4, #1024	; 0x400
 80005f6:	f104 0432 	add.w	r4, r4, #50	; 0x32
 80005fa:	ea5f 5c91 	movs.w	ip, r1, lsr #22
 80005fe:	f43f aed8 	beq.w	80003b2 <__adddf3+0xe6>
 8000602:	f04f 0203 	mov.w	r2, #3
 8000606:	ea5f 0cdc 	movs.w	ip, ip, lsr #3
 800060a:	bf18      	it	ne
 800060c:	3203      	addne	r2, #3
 800060e:	ea5f 0cdc 	movs.w	ip, ip, lsr #3
 8000612:	bf18      	it	ne
 8000614:	3203      	addne	r2, #3
 8000616:	eb02 02dc 	add.w	r2, r2, ip, lsr #3
 800061a:	f1c2 0320 	rsb	r3, r2, #32
 800061e:	fa00 fc03 	lsl.w	ip, r0, r3
 8000622:	fa20 f002 	lsr.w	r0, r0, r2
 8000626:	fa01 fe03 	lsl.w	lr, r1, r3
 800062a:	ea40 000e 	orr.w	r0, r0, lr
 800062e:	fa21 f102 	lsr.w	r1, r1, r2
 8000632:	4414      	add	r4, r2
 8000634:	e6bd      	b.n	80003b2 <__adddf3+0xe6>
 8000636:	bf00      	nop

08000638 <__aeabi_dmul>:
 8000638:	b570      	push	{r4, r5, r6, lr}
 800063a:	f04f 0cff 	mov.w	ip, #255	; 0xff
 800063e:	f44c 6ce0 	orr.w	ip, ip, #1792	; 0x700
 8000642:	ea1c 5411 	ands.w	r4, ip, r1, lsr #20
 8000646:	bf1d      	ittte	ne
 8000648:	ea1c 5513 	andsne.w	r5, ip, r3, lsr #20
 800064c:	ea94 0f0c 	teqne	r4, ip
 8000650:	ea95 0f0c 	teqne	r5, ip
 8000654:	f000 f8de 	bleq	8000814 <__aeabi_dmul+0x1dc>
 8000658:	442c      	add	r4, r5
 800065a:	ea81 0603 	eor.w	r6, r1, r3
 800065e:	ea21 514c 	bic.w	r1, r1, ip, lsl #21
 8000662:	ea23 534c 	bic.w	r3, r3, ip, lsl #21
 8000666:	ea50 3501 	orrs.w	r5, r0, r1, lsl #12
 800066a:	bf18      	it	ne
 800066c:	ea52 3503 	orrsne.w	r5, r2, r3, lsl #12
 8000670:	f441 1180 	orr.w	r1, r1, #1048576	; 0x100000
 8000674:	f443 1380 	orr.w	r3, r3, #1048576	; 0x100000
 8000678:	d038      	beq.n	80006ec <__aeabi_dmul+0xb4>
 800067a:	fba0 ce02 	umull	ip, lr, r0, r2
 800067e:	f04f 0500 	mov.w	r5, #0
 8000682:	fbe1 e502 	umlal	lr, r5, r1, r2
 8000686:	f006 4200 	and.w	r2, r6, #2147483648	; 0x80000000
 800068a:	fbe0 e503 	umlal	lr, r5, r0, r3
 800068e:	f04f 0600 	mov.w	r6, #0
 8000692:	fbe1 5603 	umlal	r5, r6, r1, r3
 8000696:	f09c 0f00 	teq	ip, #0
 800069a:	bf18      	it	ne
 800069c:	f04e 0e01 	orrne.w	lr, lr, #1
 80006a0:	f1a4 04ff 	sub.w	r4, r4, #255	; 0xff
 80006a4:	f5b6 7f00 	cmp.w	r6, #512	; 0x200
 80006a8:	f564 7440 	sbc.w	r4, r4, #768	; 0x300
 80006ac:	d204      	bcs.n	80006b8 <__aeabi_dmul+0x80>
 80006ae:	ea5f 0e4e 	movs.w	lr, lr, lsl #1
 80006b2:	416d      	adcs	r5, r5
 80006b4:	eb46 0606 	adc.w	r6, r6, r6
 80006b8:	ea42 21c6 	orr.w	r1, r2, r6, lsl #11
 80006bc:	ea41 5155 	orr.w	r1, r1, r5, lsr #21
 80006c0:	ea4f 20c5 	mov.w	r0, r5, lsl #11
 80006c4:	ea40 505e 	orr.w	r0, r0, lr, lsr #21
 80006c8:	ea4f 2ece 	mov.w	lr, lr, lsl #11
 80006cc:	f1b4 0cfd 	subs.w	ip, r4, #253	; 0xfd
 80006d0:	bf88      	it	hi
 80006d2:	f5bc 6fe0 	cmphi.w	ip, #1792	; 0x700
 80006d6:	d81e      	bhi.n	8000716 <__aeabi_dmul+0xde>
 80006d8:	f1be 4f00 	cmp.w	lr, #2147483648	; 0x80000000
 80006dc:	bf08      	it	eq
 80006de:	ea5f 0e50 	movseq.w	lr, r0, lsr #1
 80006e2:	f150 0000 	adcs.w	r0, r0, #0
 80006e6:	eb41 5104 	adc.w	r1, r1, r4, lsl #20
 80006ea:	bd70      	pop	{r4, r5, r6, pc}
 80006ec:	f006 4600 	and.w	r6, r6, #2147483648	; 0x80000000
 80006f0:	ea46 0101 	orr.w	r1, r6, r1
 80006f4:	ea40 0002 	orr.w	r0, r0, r2
 80006f8:	ea81 0103 	eor.w	r1, r1, r3
 80006fc:	ebb4 045c 	subs.w	r4, r4, ip, lsr #1
 8000700:	bfc2      	ittt	gt
 8000702:	ebd4 050c 	rsbsgt	r5, r4, ip
 8000706:	ea41 5104 	orrgt.w	r1, r1, r4, lsl #20
 800070a:	bd70      	popgt	{r4, r5, r6, pc}
 800070c:	f441 1180 	orr.w	r1, r1, #1048576	; 0x100000
 8000710:	f04f 0e00 	mov.w	lr, #0
 8000714:	3c01      	subs	r4, #1
 8000716:	f300 80ab 	bgt.w	8000870 <__aeabi_dmul+0x238>
 800071a:	f114 0f36 	cmn.w	r4, #54	; 0x36
 800071e:	bfde      	ittt	le
 8000720:	2000      	movle	r0, #0
 8000722:	f001 4100 	andle.w	r1, r1, #2147483648	; 0x80000000
 8000726:	bd70      	pople	{r4, r5, r6, pc}
 8000728:	f1c4 0400 	rsb	r4, r4, #0
 800072c:	3c20      	subs	r4, #32
 800072e:	da35      	bge.n	800079c <__aeabi_dmul+0x164>
 8000730:	340c      	adds	r4, #12
 8000732:	dc1b      	bgt.n	800076c <__aeabi_dmul+0x134>
 8000734:	f104 0414 	add.w	r4, r4, #20
 8000738:	f1c4 0520 	rsb	r5, r4, #32
 800073c:	fa00 f305 	lsl.w	r3, r0, r5
 8000740:	fa20 f004 	lsr.w	r0, r0, r4
 8000744:	fa01 f205 	lsl.w	r2, r1, r5
 8000748:	ea40 0002 	orr.w	r0, r0, r2
 800074c:	f001 4200 	and.w	r2, r1, #2147483648	; 0x80000000
 8000750:	f021 4100 	bic.w	r1, r1, #2147483648	; 0x80000000
 8000754:	eb10 70d3 	adds.w	r0, r0, r3, lsr #31
 8000758:	fa21 f604 	lsr.w	r6, r1, r4
 800075c:	eb42 0106 	adc.w	r1, r2, r6
 8000760:	ea5e 0e43 	orrs.w	lr, lr, r3, lsl #1
 8000764:	bf08      	it	eq
 8000766:	ea20 70d3 	biceq.w	r0, r0, r3, lsr #31
 800076a:	bd70      	pop	{r4, r5, r6, pc}
 800076c:	f1c4 040c 	rsb	r4, r4, #12
 8000770:	f1c4 0520 	rsb	r5, r4, #32
 8000774:	fa00 f304 	lsl.w	r3, r0, r4
 8000778:	fa20 f005 	lsr.w	r0, r0, r5
 800077c:	fa01 f204 	lsl.w	r2, r1, r4
 8000780:	ea40 0002 	orr.w	r0, r0, r2
 8000784:	f001 4100 	and.w	r1, r1, #2147483648	; 0x80000000
 8000788:	eb10 70d3 	adds.w	r0, r0, r3, lsr #31
 800078c:	f141 0100 	adc.w	r1, r1, #0
 8000790:	ea5e 0e43 	orrs.w	lr, lr, r3, lsl #1
 8000794:	bf08      	it	eq
 8000796:	ea20 70d3 	biceq.w	r0, r0, r3, lsr #31
 800079a:	bd70      	pop	{r4, r5, r6, pc}
 800079c:	f1c4 0520 	rsb	r5, r4, #32
 80007a0:	fa00 f205 	lsl.w	r2, r0, r5
 80007a4:	ea4e 0e02 	orr.w	lr, lr, r2
 80007a8:	fa20 f304 	lsr.w	r3, r0, r4
 80007ac:	fa01 f205 	lsl.w	r2, r1, r5
 80007b0:	ea43 0302 	orr.w	r3, r3, r2
 80007b4:	fa21 f004 	lsr.w	r0, r1, r4
 80007b8:	f001 4100 	and.w	r1, r1, #2147483648	; 0x80000000
 80007bc:	fa21 f204 	lsr.w	r2, r1, r4
 80007c0:	ea20 0002 	bic.w	r0, r0, r2
 80007c4:	eb00 70d3 	add.w	r0, r0, r3, lsr #31
 80007c8:	ea5e 0e43 	orrs.w	lr, lr, r3, lsl #1
 80007cc:	bf08      	it	eq
 80007ce:	ea20 70d3 	biceq.w	r0, r0, r3, lsr #31
 80007d2:	bd70      	pop	{r4, r5, r6, pc}
 80007d4:	f094 0f00 	teq	r4, #0
 80007d8:	d10f      	bne.n	80007fa <__aeabi_dmul+0x1c2>
 80007da:	f001 4600 	and.w	r6, r1, #2147483648	; 0x80000000
 80007de:	0040      	lsls	r0, r0, #1
 80007e0:	eb41 0101 	adc.w	r1, r1, r1
 80007e4:	f411 1f80 	tst.w	r1, #1048576	; 0x100000
 80007e8:	bf08      	it	eq
 80007ea:	3c01      	subeq	r4, #1
 80007ec:	d0f7      	beq.n	80007de <__aeabi_dmul+0x1a6>
 80007ee:	ea41 0106 	orr.w	r1, r1, r6
 80007f2:	f095 0f00 	teq	r5, #0
 80007f6:	bf18      	it	ne
 80007f8:	4770      	bxne	lr
 80007fa:	f003 4600 	and.w	r6, r3, #2147483648	; 0x80000000
 80007fe:	0052      	lsls	r2, r2, #1
 8000800:	eb43 0303 	adc.w	r3, r3, r3
 8000804:	f413 1f80 	tst.w	r3, #1048576	; 0x100000
 8000808:	bf08      	it	eq
 800080a:	3d01      	subeq	r5, #1
 800080c:	d0f7      	beq.n	80007fe <__aeabi_dmul+0x1c6>
 800080e:	ea43 0306 	orr.w	r3, r3, r6
 8000812:	4770      	bx	lr
 8000814:	ea94 0f0c 	teq	r4, ip
 8000818:	ea0c 5513 	and.w	r5, ip, r3, lsr #20
 800081c:	bf18      	it	ne
 800081e:	ea95 0f0c 	teqne	r5, ip
 8000822:	d00c      	beq.n	800083e <__aeabi_dmul+0x206>
 8000824:	ea50 0641 	orrs.w	r6, r0, r1, lsl #1
 8000828:	bf18      	it	ne
 800082a:	ea52 0643 	orrsne.w	r6, r2, r3, lsl #1
 800082e:	d1d1      	bne.n	80007d4 <__aeabi_dmul+0x19c>
 8000830:	ea81 0103 	eor.w	r1, r1, r3
 8000834:	f001 4100 	and.w	r1, r1, #2147483648	; 0x80000000
 8000838:	f04f 0000 	mov.w	r0, #0
 800083c:	bd70      	pop	{r4, r5, r6, pc}
 800083e:	ea50 0641 	orrs.w	r6, r0, r1, lsl #1
 8000842:	bf06      	itte	eq
 8000844:	4610      	moveq	r0, r2
 8000846:	4619      	moveq	r1, r3
 8000848:	ea52 0643 	orrsne.w	r6, r2, r3, lsl #1
 800084c:	d019      	beq.n	8000882 <__aeabi_dmul+0x24a>
 800084e:	ea94 0f0c 	teq	r4, ip
 8000852:	d102      	bne.n	800085a <__aeabi_dmul+0x222>
 8000854:	ea50 3601 	orrs.w	r6, r0, r1, lsl #12
 8000858:	d113      	bne.n	8000882 <__aeabi_dmul+0x24a>
 800085a:	ea95 0f0c 	teq	r5, ip
 800085e:	d105      	bne.n	800086c <__aeabi_dmul+0x234>
 8000860:	ea52 3603 	orrs.w	r6, r2, r3, lsl #12
 8000864:	bf1c      	itt	ne
 8000866:	4610      	movne	r0, r2
 8000868:	4619      	movne	r1, r3
 800086a:	d10a      	bne.n	8000882 <__aeabi_dmul+0x24a>
 800086c:	ea81 0103 	eor.w	r1, r1, r3
 8000870:	f001 4100 	and.w	r1, r1, #2147483648	; 0x80000000
 8000874:	f041 41fe 	orr.w	r1, r1, #2130706432	; 0x7f000000
 8000878:	f441 0170 	orr.w	r1, r1, #15728640	; 0xf00000
 800087c:	f04f 0000 	mov.w	r0, #0
 8000880:	bd70      	pop	{r4, r5, r6, pc}
 8000882:	f041 41fe 	orr.w	r1, r1, #2130706432	; 0x7f000000
 8000886:	f441 0178 	orr.w	r1, r1, #16252928	; 0xf80000
 800088a:	bd70      	pop	{r4, r5, r6, pc}

0800088c <__aeabi_ddiv>:
 800088c:	b570      	push	{r4, r5, r6, lr}
 800088e:	f04f 0cff 	mov.w	ip, #255	; 0xff
 8000892:	f44c 6ce0 	orr.w	ip, ip, #1792	; 0x700
 8000896:	ea1c 5411 	ands.w	r4, ip, r1, lsr #20
 800089a:	bf1d      	ittte	ne
 800089c:	ea1c 5513 	andsne.w	r5, ip, r3, lsr #20
 80008a0:	ea94 0f0c 	teqne	r4, ip
 80008a4:	ea95 0f0c 	teqne	r5, ip
 80008a8:	f000 f8a7 	bleq	80009fa <__aeabi_ddiv+0x16e>
 80008ac:	eba4 0405 	sub.w	r4, r4, r5
 80008b0:	ea81 0e03 	eor.w	lr, r1, r3
 80008b4:	ea52 3503 	orrs.w	r5, r2, r3, lsl #12
 80008b8:	ea4f 3101 	mov.w	r1, r1, lsl #12
 80008bc:	f000 8088 	beq.w	80009d0 <__aeabi_ddiv+0x144>
 80008c0:	ea4f 3303 	mov.w	r3, r3, lsl #12
 80008c4:	f04f 5580 	mov.w	r5, #268435456	; 0x10000000
 80008c8:	ea45 1313 	orr.w	r3, r5, r3, lsr #4
 80008cc:	ea43 6312 	orr.w	r3, r3, r2, lsr #24
 80008d0:	ea4f 2202 	mov.w	r2, r2, lsl #8
 80008d4:	ea45 1511 	orr.w	r5, r5, r1, lsr #4
 80008d8:	ea45 6510 	orr.w	r5, r5, r0, lsr #24
 80008dc:	ea4f 2600 	mov.w	r6, r0, lsl #8
 80008e0:	f00e 4100 	and.w	r1, lr, #2147483648	; 0x80000000
 80008e4:	429d      	cmp	r5, r3
 80008e6:	bf08      	it	eq
 80008e8:	4296      	cmpeq	r6, r2
 80008ea:	f144 04fd 	adc.w	r4, r4, #253	; 0xfd
 80008ee:	f504 7440 	add.w	r4, r4, #768	; 0x300
 80008f2:	d202      	bcs.n	80008fa <__aeabi_ddiv+0x6e>
 80008f4:	085b      	lsrs	r3, r3, #1
 80008f6:	ea4f 0232 	mov.w	r2, r2, rrx
 80008fa:	1ab6      	subs	r6, r6, r2
 80008fc:	eb65 0503 	sbc.w	r5, r5, r3
 8000900:	085b      	lsrs	r3, r3, #1
 8000902:	ea4f 0232 	mov.w	r2, r2, rrx
 8000906:	f44f 1080 	mov.w	r0, #1048576	; 0x100000
 800090a:	f44f 2c00 	mov.w	ip, #524288	; 0x80000
 800090e:	ebb6 0e02 	subs.w	lr, r6, r2
 8000912:	eb75 0e03 	sbcs.w	lr, r5, r3
 8000916:	bf22      	ittt	cs
 8000918:	1ab6      	subcs	r6, r6, r2
 800091a:	4675      	movcs	r5, lr
 800091c:	ea40 000c 	orrcs.w	r0, r0, ip
 8000920:	085b      	lsrs	r3, r3, #1
 8000922:	ea4f 0232 	mov.w	r2, r2, rrx
 8000926:	ebb6 0e02 	subs.w	lr, r6, r2
 800092a:	eb75 0e03 	sbcs.w	lr, r5, r3
 800092e:	bf22      	ittt	cs
 8000930:	1ab6      	subcs	r6, r6, r2
 8000932:	4675      	movcs	r5, lr
 8000934:	ea40 005c 	orrcs.w	r0, r0, ip, lsr #1
 8000938:	085b      	lsrs	r3, r3, #1
 800093a:	ea4f 0232 	mov.w	r2, r2, rrx
 800093e:	ebb6 0e02 	subs.w	lr, r6, r2
 8000942:	eb75 0e03 	sbcs.w	lr, r5, r3
 8000946:	bf22      	ittt	cs
 8000948:	1ab6      	subcs	r6, r6, r2
 800094a:	4675      	movcs	r5, lr
 800094c:	ea40 009c 	orrcs.w	r0, r0, ip, lsr #2
 8000950:	085b      	lsrs	r3, r3, #1
 8000952:	ea4f 0232 	mov.w	r2, r2, rrx
 8000956:	ebb6 0e02 	subs.w	lr, r6, r2
 800095a:	eb75 0e03 	sbcs.w	lr, r5, r3
 800095e:	bf22      	ittt	cs
 8000960:	1ab6      	subcs	r6, r6, r2
 8000962:	4675      	movcs	r5, lr
 8000964:	ea40 00dc 	orrcs.w	r0, r0, ip, lsr #3
 8000968:	ea55 0e06 	orrs.w	lr, r5, r6
 800096c:	d018      	beq.n	80009a0 <__aeabi_ddiv+0x114>
 800096e:	ea4f 1505 	mov.w	r5, r5, lsl #4
 8000972:	ea45 7516 	orr.w	r5, r5, r6, lsr #28
 8000976:	ea4f 1606 	mov.w	r6, r6, lsl #4
 800097a:	ea4f 03c3 	mov.w	r3, r3, lsl #3
 800097e:	ea43 7352 	orr.w	r3, r3, r2, lsr #29
 8000982:	ea4f 02c2 	mov.w	r2, r2, lsl #3
 8000986:	ea5f 1c1c 	movs.w	ip, ip, lsr #4
 800098a:	d1c0      	bne.n	800090e <__aeabi_ddiv+0x82>
 800098c:	f411 1f80 	tst.w	r1, #1048576	; 0x100000
 8000990:	d10b      	bne.n	80009aa <__aeabi_ddiv+0x11e>
 8000992:	ea41 0100 	orr.w	r1, r1, r0
 8000996:	f04f 0000 	mov.w	r0, #0
 800099a:	f04f 4c00 	mov.w	ip, #2147483648	; 0x80000000
 800099e:	e7b6      	b.n	800090e <__aeabi_ddiv+0x82>
 80009a0:	f411 1f80 	tst.w	r1, #1048576	; 0x100000
 80009a4:	bf04      	itt	eq
 80009a6:	4301      	orreq	r1, r0
 80009a8:	2000      	moveq	r0, #0
 80009aa:	f1b4 0cfd 	subs.w	ip, r4, #253	; 0xfd
 80009ae:	bf88      	it	hi
 80009b0:	f5bc 6fe0 	cmphi.w	ip, #1792	; 0x700
 80009b4:	f63f aeaf 	bhi.w	8000716 <__aeabi_dmul+0xde>
 80009b8:	ebb5 0c03 	subs.w	ip, r5, r3
 80009bc:	bf04      	itt	eq
 80009be:	ebb6 0c02 	subseq.w	ip, r6, r2
 80009c2:	ea5f 0c50 	movseq.w	ip, r0, lsr #1
 80009c6:	f150 0000 	adcs.w	r0, r0, #0
 80009ca:	eb41 5104 	adc.w	r1, r1, r4, lsl #20
 80009ce:	bd70      	pop	{r4, r5, r6, pc}
 80009d0:	f00e 4e00 	and.w	lr, lr, #2147483648	; 0x80000000
 80009d4:	ea4e 3111 	orr.w	r1, lr, r1, lsr #12
 80009d8:	eb14 045c 	adds.w	r4, r4, ip, lsr #1
 80009dc:	bfc2      	ittt	gt
 80009de:	ebd4 050c 	rsbsgt	r5, r4, ip
 80009e2:	ea41 5104 	orrgt.w	r1, r1, r4, lsl #20
 80009e6:	bd70      	popgt	{r4, r5, r6, pc}
 80009e8:	f441 1180 	orr.w	r1, r1, #1048576	; 0x100000
 80009ec:	f04f 0e00 	mov.w	lr, #0
 80009f0:	3c01      	subs	r4, #1
 80009f2:	e690      	b.n	8000716 <__aeabi_dmul+0xde>
 80009f4:	ea45 0e06 	orr.w	lr, r5, r6
 80009f8:	e68d      	b.n	8000716 <__aeabi_dmul+0xde>
 80009fa:	ea0c 5513 	and.w	r5, ip, r3, lsr #20
 80009fe:	ea94 0f0c 	teq	r4, ip
 8000a02:	bf08      	it	eq
 8000a04:	ea95 0f0c 	teqeq	r5, ip
 8000a08:	f43f af3b 	beq.w	8000882 <__aeabi_dmul+0x24a>
 8000a0c:	ea94 0f0c 	teq	r4, ip
 8000a10:	d10a      	bne.n	8000a28 <__aeabi_ddiv+0x19c>
 8000a12:	ea50 3401 	orrs.w	r4, r0, r1, lsl #12
 8000a16:	f47f af34 	bne.w	8000882 <__aeabi_dmul+0x24a>
 8000a1a:	ea95 0f0c 	teq	r5, ip
 8000a1e:	f47f af25 	bne.w	800086c <__aeabi_dmul+0x234>
 8000a22:	4610      	mov	r0, r2
 8000a24:	4619      	mov	r1, r3
 8000a26:	e72c      	b.n	8000882 <__aeabi_dmul+0x24a>
 8000a28:	ea95 0f0c 	teq	r5, ip
 8000a2c:	d106      	bne.n	8000a3c <__aeabi_ddiv+0x1b0>
 8000a2e:	ea52 3503 	orrs.w	r5, r2, r3, lsl #12
 8000a32:	f43f aefd 	beq.w	8000830 <__aeabi_dmul+0x1f8>
 8000a36:	4610      	mov	r0, r2
 8000a38:	4619      	mov	r1, r3
 8000a3a:	e722      	b.n	8000882 <__aeabi_dmul+0x24a>
 8000a3c:	ea50 0641 	orrs.w	r6, r0, r1, lsl #1
 8000a40:	bf18      	it	ne
 8000a42:	ea52 0643 	orrsne.w	r6, r2, r3, lsl #1
 8000a46:	f47f aec5 	bne.w	80007d4 <__aeabi_dmul+0x19c>
 8000a4a:	ea50 0441 	orrs.w	r4, r0, r1, lsl #1
 8000a4e:	f47f af0d 	bne.w	800086c <__aeabi_dmul+0x234>
 8000a52:	ea52 0543 	orrs.w	r5, r2, r3, lsl #1
 8000a56:	f47f aeeb 	bne.w	8000830 <__aeabi_dmul+0x1f8>
 8000a5a:	e712      	b.n	8000882 <__aeabi_dmul+0x24a>

08000a5c <__gedf2>:
 8000a5c:	f04f 3cff 	mov.w	ip, #4294967295	; 0xffffffff
 8000a60:	e006      	b.n	8000a70 <__cmpdf2+0x4>
 8000a62:	bf00      	nop

08000a64 <__ledf2>:
 8000a64:	f04f 0c01 	mov.w	ip, #1
 8000a68:	e002      	b.n	8000a70 <__cmpdf2+0x4>
 8000a6a:	bf00      	nop

08000a6c <__cmpdf2>:
 8000a6c:	f04f 0c01 	mov.w	ip, #1
 8000a70:	f84d cd04 	str.w	ip, [sp, #-4]!
 8000a74:	ea4f 0c41 	mov.w	ip, r1, lsl #1
 8000a78:	ea7f 5c6c 	mvns.w	ip, ip, asr #21
 8000a7c:	ea4f 0c43 	mov.w	ip, r3, lsl #1
 8000a80:	bf18      	it	ne
 8000a82:	ea7f 5c6c 	mvnsne.w	ip, ip, asr #21
 8000a86:	d01b      	beq.n	8000ac0 <__cmpdf2+0x54>
 8000a88:	b001      	add	sp, #4
 8000a8a:	ea50 0c41 	orrs.w	ip, r0, r1, lsl #1
 8000a8e:	bf0c      	ite	eq
 8000a90:	ea52 0c43 	orrseq.w	ip, r2, r3, lsl #1
 8000a94:	ea91 0f03 	teqne	r1, r3
 8000a98:	bf02      	ittt	eq
 8000a9a:	ea90 0f02 	teqeq	r0, r2
 8000a9e:	2000      	moveq	r0, #0
 8000aa0:	4770      	bxeq	lr
 8000aa2:	f110 0f00 	cmn.w	r0, #0
 8000aa6:	ea91 0f03 	teq	r1, r3
 8000aaa:	bf58      	it	pl
 8000aac:	4299      	cmppl	r1, r3
 8000aae:	bf08      	it	eq
 8000ab0:	4290      	cmpeq	r0, r2
 8000ab2:	bf2c      	ite	cs
 8000ab4:	17d8      	asrcs	r0, r3, #31
 8000ab6:	ea6f 70e3 	mvncc.w	r0, r3, asr #31
 8000aba:	f040 0001 	orr.w	r0, r0, #1
 8000abe:	4770      	bx	lr
 8000ac0:	ea4f 0c41 	mov.w	ip, r1, lsl #1
 8000ac4:	ea7f 5c6c 	mvns.w	ip, ip, asr #21
 8000ac8:	d102      	bne.n	8000ad0 <__cmpdf2+0x64>
 8000aca:	ea50 3c01 	orrs.w	ip, r0, r1, lsl #12
 8000ace:	d107      	bne.n	8000ae0 <__cmpdf2+0x74>
 8000ad0:	ea4f 0c43 	mov.w	ip, r3, lsl #1
 8000ad4:	ea7f 5c6c 	mvns.w	ip, ip, asr #21
 8000ad8:	d1d6      	bne.n	8000a88 <__cmpdf2+0x1c>
 8000ada:	ea52 3c03 	orrs.w	ip, r2, r3, lsl #12
 8000ade:	d0d3      	beq.n	8000a88 <__cmpdf2+0x1c>
 8000ae0:	f85d 0b04 	ldr.w	r0, [sp], #4
 8000ae4:	4770      	bx	lr
 8000ae6:	bf00      	nop

08000ae8 <__aeabi_cdrcmple>:
 8000ae8:	4684      	mov	ip, r0
 8000aea:	4610      	mov	r0, r2
 8000aec:	4662      	mov	r2, ip
 8000aee:	468c      	mov	ip, r1
 8000af0:	4619      	mov	r1, r3
 8000af2:	4663      	mov	r3, ip
 8000af4:	e000      	b.n	8000af8 <__aeabi_cdcmpeq>
 8000af6:	bf00      	nop

08000af8 <__aeabi_cdcmpeq>:
 8000af8:	b501      	push	{r0, lr}
 8000afa:	f7ff ffb7 	bl	8000a6c <__cmpdf2>
 8000afe:	2800      	cmp	r0, #0
 8000b00:	bf48      	it	mi
 8000b02:	f110 0f00 	cmnmi.w	r0, #0
 8000b06:	bd01      	pop	{r0, pc}

08000b08 <__aeabi_dcmpeq>:
 8000b08:	f84d ed08 	str.w	lr, [sp, #-8]!
 8000b0c:	f7ff fff4 	bl	8000af8 <__aeabi_cdcmpeq>
 8000b10:	bf0c      	ite	eq
 8000b12:	2001      	moveq	r0, #1
 8000b14:	2000      	movne	r0, #0
 8000b16:	f85d fb08 	ldr.w	pc, [sp], #8
 8000b1a:	bf00      	nop

08000b1c <__aeabi_dcmplt>:
 8000b1c:	f84d ed08 	str.w	lr, [sp, #-8]!
 8000b20:	f7ff ffea 	bl	8000af8 <__aeabi_cdcmpeq>
 8000b24:	bf34      	ite	cc
 8000b26:	2001      	movcc	r0, #1
 8000b28:	2000      	movcs	r0, #0
 8000b2a:	f85d fb08 	ldr.w	pc, [sp], #8
 8000b2e:	bf00      	nop

08000b30 <__aeabi_dcmple>:
 8000b30:	f84d ed08 	str.w	lr, [sp, #-8]!
 8000b34:	f7ff ffe0 	bl	8000af8 <__aeabi_cdcmpeq>
 8000b38:	bf94      	ite	ls
 8000b3a:	2001      	movls	r0, #1
 8000b3c:	2000      	movhi	r0, #0
 8000b3e:	f85d fb08 	ldr.w	pc, [sp], #8
 8000b42:	bf00      	nop

08000b44 <__aeabi_dcmpge>:
 8000b44:	f84d ed08 	str.w	lr, [sp, #-8]!
 8000b48:	f7ff ffce 	bl	8000ae8 <__aeabi_cdrcmple>
 8000b4c:	bf94      	ite	ls
 8000b4e:	2001      	movls	r0, #1
 8000b50:	2000      	movhi	r0, #0
 8000b52:	f85d fb08 	ldr.w	pc, [sp], #8
 8000b56:	bf00      	nop

08000b58 <__aeabi_dcmpgt>:
 8000b58:	f84d ed08 	str.w	lr, [sp, #-8]!
 8000b5c:	f7ff ffc4 	bl	8000ae8 <__aeabi_cdrcmple>
 8000b60:	bf34      	ite	cc
 8000b62:	2001      	movcc	r0, #1
 8000b64:	2000      	movcs	r0, #0
 8000b66:	f85d fb08 	ldr.w	pc, [sp], #8
 8000b6a:	bf00      	nop

08000b6c <__aeabi_dcmpun>:
 8000b6c:	ea4f 0c41 	mov.w	ip, r1, lsl #1
 8000b70:	ea7f 5c6c 	mvns.w	ip, ip, asr #21
 8000b74:	d102      	bne.n	8000b7c <__aeabi_dcmpun+0x10>
 8000b76:	ea50 3c01 	orrs.w	ip, r0, r1, lsl #12
 8000b7a:	d10a      	bne.n	8000b92 <__aeabi_dcmpun+0x26>
 8000b7c:	ea4f 0c43 	mov.w	ip, r3, lsl #1
 8000b80:	ea7f 5c6c 	mvns.w	ip, ip, asr #21
 8000b84:	d102      	bne.n	8000b8c <__aeabi_dcmpun+0x20>
 8000b86:	ea52 3c03 	orrs.w	ip, r2, r3, lsl #12
 8000b8a:	d102      	bne.n	8000b92 <__aeabi_dcmpun+0x26>
 8000b8c:	f04f 0000 	mov.w	r0, #0
 8000b90:	4770      	bx	lr
 8000b92:	f04f 0001 	mov.w	r0, #1
 8000b96:	4770      	bx	lr

08000b98 <__aeabi_d2iz>:
 8000b98:	ea4f 0241 	mov.w	r2, r1, lsl #1
 8000b9c:	f512 1200 	adds.w	r2, r2, #2097152	; 0x200000
 8000ba0:	d215      	bcs.n	8000bce <__aeabi_d2iz+0x36>
 8000ba2:	d511      	bpl.n	8000bc8 <__aeabi_d2iz+0x30>
 8000ba4:	f46f 7378 	mvn.w	r3, #992	; 0x3e0
 8000ba8:	ebb3 5262 	subs.w	r2, r3, r2, asr #21
 8000bac:	d912      	bls.n	8000bd4 <__aeabi_d2iz+0x3c>
 8000bae:	ea4f 23c1 	mov.w	r3, r1, lsl #11
 8000bb2:	f043 4300 	orr.w	r3, r3, #2147483648	; 0x80000000
 8000bb6:	ea43 5350 	orr.w	r3, r3, r0, lsr #21
 8000bba:	f011 4f00 	tst.w	r1, #2147483648	; 0x80000000
 8000bbe:	fa23 f002 	lsr.w	r0, r3, r2
 8000bc2:	bf18      	it	ne
 8000bc4:	4240      	negne	r0, r0
 8000bc6:	4770      	bx	lr
 8000bc8:	f04f 0000 	mov.w	r0, #0
 8000bcc:	4770      	bx	lr
 8000bce:	ea50 3001 	orrs.w	r0, r0, r1, lsl #12
 8000bd2:	d105      	bne.n	8000be0 <__aeabi_d2iz+0x48>
 8000bd4:	f011 4000 	ands.w	r0, r1, #2147483648	; 0x80000000
 8000bd8:	bf08      	it	eq
 8000bda:	f06f 4000 	mvneq.w	r0, #2147483648	; 0x80000000
 8000bde:	4770      	bx	lr
 8000be0:	f04f 0000 	mov.w	r0, #0
 8000be4:	4770      	bx	lr
 8000be6:	bf00      	nop

08000be8 <__aeabi_d2f>:
 8000be8:	ea4f 0241 	mov.w	r2, r1, lsl #1
 8000bec:	f1b2 43e0 	subs.w	r3, r2, #1879048192	; 0x70000000
 8000bf0:	bf24      	itt	cs
 8000bf2:	f5b3 1c00 	subscs.w	ip, r3, #2097152	; 0x200000
 8000bf6:	f1dc 5cfe 	rsbscs	ip, ip, #532676608	; 0x1fc00000
 8000bfa:	d90d      	bls.n	8000c18 <__aeabi_d2f+0x30>
 8000bfc:	f001 4c00 	and.w	ip, r1, #2147483648	; 0x80000000
 8000c00:	ea4f 02c0 	mov.w	r2, r0, lsl #3
 8000c04:	ea4c 7050 	orr.w	r0, ip, r0, lsr #29
 8000c08:	f1b2 4f00 	cmp.w	r2, #2147483648	; 0x80000000
 8000c0c:	eb40 0083 	adc.w	r0, r0, r3, lsl #2
 8000c10:	bf08      	it	eq
 8000c12:	f020 0001 	biceq.w	r0, r0, #1
 8000c16:	4770      	bx	lr
 8000c18:	f011 4f80 	tst.w	r1, #1073741824	; 0x40000000
 8000c1c:	d121      	bne.n	8000c62 <__aeabi_d2f+0x7a>
 8000c1e:	f113 7238 	adds.w	r2, r3, #48234496	; 0x2e00000
 8000c22:	bfbc      	itt	lt
 8000c24:	f001 4000 	andlt.w	r0, r1, #2147483648	; 0x80000000
 8000c28:	4770      	bxlt	lr
 8000c2a:	f441 1180 	orr.w	r1, r1, #1048576	; 0x100000
 8000c2e:	ea4f 5252 	mov.w	r2, r2, lsr #21
 8000c32:	f1c2 0218 	rsb	r2, r2, #24
 8000c36:	f1c2 0c20 	rsb	ip, r2, #32
 8000c3a:	fa10 f30c 	lsls.w	r3, r0, ip
 8000c3e:	fa20 f002 	lsr.w	r0, r0, r2
 8000c42:	bf18      	it	ne
 8000c44:	f040 0001 	orrne.w	r0, r0, #1
 8000c48:	ea4f 23c1 	mov.w	r3, r1, lsl #11
 8000c4c:	ea4f 23d3 	mov.w	r3, r3, lsr #11
 8000c50:	fa03 fc0c 	lsl.w	ip, r3, ip
 8000c54:	ea40 000c 	orr.w	r0, r0, ip
 8000c58:	fa23 f302 	lsr.w	r3, r3, r2
 8000c5c:	ea4f 0343 	mov.w	r3, r3, lsl #1
 8000c60:	e7cc      	b.n	8000bfc <__aeabi_d2f+0x14>
 8000c62:	ea7f 5362 	mvns.w	r3, r2, asr #21
 8000c66:	d107      	bne.n	8000c78 <__aeabi_d2f+0x90>
 8000c68:	ea50 3301 	orrs.w	r3, r0, r1, lsl #12
 8000c6c:	bf1e      	ittt	ne
 8000c6e:	f04f 40fe 	movne.w	r0, #2130706432	; 0x7f000000
 8000c72:	f440 0040 	orrne.w	r0, r0, #12582912	; 0xc00000
 8000c76:	4770      	bxne	lr
 8000c78:	f001 4000 	and.w	r0, r1, #2147483648	; 0x80000000
 8000c7c:	f040 40fe 	orr.w	r0, r0, #2130706432	; 0x7f000000
 8000c80:	f440 0000 	orr.w	r0, r0, #8388608	; 0x800000
 8000c84:	4770      	bx	lr
 8000c86:	bf00      	nop

08000c88 <__aeabi_uldivmod>:
 8000c88:	b953      	cbnz	r3, 8000ca0 <__aeabi_uldivmod+0x18>
 8000c8a:	b94a      	cbnz	r2, 8000ca0 <__aeabi_uldivmod+0x18>
 8000c8c:	2900      	cmp	r1, #0
 8000c8e:	bf08      	it	eq
 8000c90:	2800      	cmpeq	r0, #0
 8000c92:	bf1c      	itt	ne
 8000c94:	f04f 31ff 	movne.w	r1, #4294967295	; 0xffffffff
 8000c98:	f04f 30ff 	movne.w	r0, #4294967295	; 0xffffffff
 8000c9c:	f000 b96e 	b.w	8000f7c <__aeabi_idiv0>
 8000ca0:	f1ad 0c08 	sub.w	ip, sp, #8
 8000ca4:	e96d ce04 	strd	ip, lr, [sp, #-16]!
 8000ca8:	f000 f806 	bl	8000cb8 <__udivmoddi4>
 8000cac:	f8dd e004 	ldr.w	lr, [sp, #4]
 8000cb0:	e9dd 2302 	ldrd	r2, r3, [sp, #8]
 8000cb4:	b004      	add	sp, #16
 8000cb6:	4770      	bx	lr

08000cb8 <__udivmoddi4>:
 8000cb8:	e92d 47f0 	stmdb	sp!, {r4, r5, r6, r7, r8, r9, sl, lr}
 8000cbc:	9d08      	ldr	r5, [sp, #32]
 8000cbe:	4604      	mov	r4, r0
 8000cc0:	468c      	mov	ip, r1
 8000cc2:	2b00      	cmp	r3, #0
 8000cc4:	f040 8083 	bne.w	8000dce <__udivmoddi4+0x116>
 8000cc8:	428a      	cmp	r2, r1
 8000cca:	4617      	mov	r7, r2
 8000ccc:	d947      	bls.n	8000d5e <__udivmoddi4+0xa6>
 8000cce:	fab2 f282 	clz	r2, r2
 8000cd2:	b142      	cbz	r2, 8000ce6 <__udivmoddi4+0x2e>
 8000cd4:	f1c2 0020 	rsb	r0, r2, #32
 8000cd8:	fa24 f000 	lsr.w	r0, r4, r0
 8000cdc:	4091      	lsls	r1, r2
 8000cde:	4097      	lsls	r7, r2
 8000ce0:	ea40 0c01 	orr.w	ip, r0, r1
 8000ce4:	4094      	lsls	r4, r2
 8000ce6:	ea4f 4817 	mov.w	r8, r7, lsr #16
 8000cea:	0c23      	lsrs	r3, r4, #16
 8000cec:	fbbc f6f8 	udiv	r6, ip, r8
 8000cf0:	fa1f fe87 	uxth.w	lr, r7
 8000cf4:	fb08 c116 	mls	r1, r8, r6, ip
 8000cf8:	ea43 4301 	orr.w	r3, r3, r1, lsl #16
 8000cfc:	fb06 f10e 	mul.w	r1, r6, lr
 8000d00:	4299      	cmp	r1, r3
 8000d02:	d909      	bls.n	8000d18 <__udivmoddi4+0x60>
 8000d04:	18fb      	adds	r3, r7, r3
 8000d06:	f106 30ff 	add.w	r0, r6, #4294967295	; 0xffffffff
 8000d0a:	f080 8119 	bcs.w	8000f40 <__udivmoddi4+0x288>
 8000d0e:	4299      	cmp	r1, r3
 8000d10:	f240 8116 	bls.w	8000f40 <__udivmoddi4+0x288>
 8000d14:	3e02      	subs	r6, #2
 8000d16:	443b      	add	r3, r7
 8000d18:	1a5b      	subs	r3, r3, r1
 8000d1a:	b2a4      	uxth	r4, r4
 8000d1c:	fbb3 f0f8 	udiv	r0, r3, r8
 8000d20:	fb08 3310 	mls	r3, r8, r0, r3
 8000d24:	ea44 4403 	orr.w	r4, r4, r3, lsl #16
 8000d28:	fb00 fe0e 	mul.w	lr, r0, lr
 8000d2c:	45a6      	cmp	lr, r4
 8000d2e:	d909      	bls.n	8000d44 <__udivmoddi4+0x8c>
 8000d30:	193c      	adds	r4, r7, r4
 8000d32:	f100 33ff 	add.w	r3, r0, #4294967295	; 0xffffffff
 8000d36:	f080 8105 	bcs.w	8000f44 <__udivmoddi4+0x28c>
 8000d3a:	45a6      	cmp	lr, r4
 8000d3c:	f240 8102 	bls.w	8000f44 <__udivmoddi4+0x28c>
 8000d40:	3802      	subs	r0, #2
 8000d42:	443c      	add	r4, r7
 8000d44:	ea40 4006 	orr.w	r0, r0, r6, lsl #16
 8000d48:	eba4 040e 	sub.w	r4, r4, lr
 8000d4c:	2600      	movs	r6, #0
 8000d4e:	b11d      	cbz	r5, 8000d58 <__udivmoddi4+0xa0>
 8000d50:	40d4      	lsrs	r4, r2
 8000d52:	2300      	movs	r3, #0
 8000d54:	e9c5 4300 	strd	r4, r3, [r5]
 8000d58:	4631      	mov	r1, r6
 8000d5a:	e8bd 87f0 	ldmia.w	sp!, {r4, r5, r6, r7, r8, r9, sl, pc}
 8000d5e:	b902      	cbnz	r2, 8000d62 <__udivmoddi4+0xaa>
 8000d60:	deff      	udf	#255	; 0xff
 8000d62:	fab2 f282 	clz	r2, r2
 8000d66:	2a00      	cmp	r2, #0
 8000d68:	d150      	bne.n	8000e0c <__udivmoddi4+0x154>
 8000d6a:	1bcb      	subs	r3, r1, r7
 8000d6c:	ea4f 4e17 	mov.w	lr, r7, lsr #16
 8000d70:	fa1f f887 	uxth.w	r8, r7
 8000d74:	2601      	movs	r6, #1
 8000d76:	fbb3 fcfe 	udiv	ip, r3, lr
 8000d7a:	0c21      	lsrs	r1, r4, #16
 8000d7c:	fb0e 331c 	mls	r3, lr, ip, r3
 8000d80:	ea41 4103 	orr.w	r1, r1, r3, lsl #16
 8000d84:	fb08 f30c 	mul.w	r3, r8, ip
 8000d88:	428b      	cmp	r3, r1
 8000d8a:	d907      	bls.n	8000d9c <__udivmoddi4+0xe4>
 8000d8c:	1879      	adds	r1, r7, r1
 8000d8e:	f10c 30ff 	add.w	r0, ip, #4294967295	; 0xffffffff
 8000d92:	d202      	bcs.n	8000d9a <__udivmoddi4+0xe2>
 8000d94:	428b      	cmp	r3, r1
 8000d96:	f200 80e9 	bhi.w	8000f6c <__udivmoddi4+0x2b4>
 8000d9a:	4684      	mov	ip, r0
 8000d9c:	1ac9      	subs	r1, r1, r3
 8000d9e:	b2a3      	uxth	r3, r4
 8000da0:	fbb1 f0fe 	udiv	r0, r1, lr
 8000da4:	fb0e 1110 	mls	r1, lr, r0, r1
 8000da8:	ea43 4401 	orr.w	r4, r3, r1, lsl #16
 8000dac:	fb08 f800 	mul.w	r8, r8, r0
 8000db0:	45a0      	cmp	r8, r4
 8000db2:	d907      	bls.n	8000dc4 <__udivmoddi4+0x10c>
 8000db4:	193c      	adds	r4, r7, r4
 8000db6:	f100 33ff 	add.w	r3, r0, #4294967295	; 0xffffffff
 8000dba:	d202      	bcs.n	8000dc2 <__udivmoddi4+0x10a>
 8000dbc:	45a0      	cmp	r8, r4
 8000dbe:	f200 80d9 	bhi.w	8000f74 <__udivmoddi4+0x2bc>
 8000dc2:	4618      	mov	r0, r3
 8000dc4:	eba4 0408 	sub.w	r4, r4, r8
 8000dc8:	ea40 400c 	orr.w	r0, r0, ip, lsl #16
 8000dcc:	e7bf      	b.n	8000d4e <__udivmoddi4+0x96>
 8000dce:	428b      	cmp	r3, r1
 8000dd0:	d909      	bls.n	8000de6 <__udivmoddi4+0x12e>
 8000dd2:	2d00      	cmp	r5, #0
 8000dd4:	f000 80b1 	beq.w	8000f3a <__udivmoddi4+0x282>
 8000dd8:	2600      	movs	r6, #0
 8000dda:	e9c5 0100 	strd	r0, r1, [r5]
 8000dde:	4630      	mov	r0, r6
 8000de0:	4631      	mov	r1, r6
 8000de2:	e8bd 87f0 	ldmia.w	sp!, {r4, r5, r6, r7, r8, r9, sl, pc}
 8000de6:	fab3 f683 	clz	r6, r3
 8000dea:	2e00      	cmp	r6, #0
 8000dec:	d14a      	bne.n	8000e84 <__udivmoddi4+0x1cc>
 8000dee:	428b      	cmp	r3, r1
 8000df0:	d302      	bcc.n	8000df8 <__udivmoddi4+0x140>
 8000df2:	4282      	cmp	r2, r0
 8000df4:	f200 80b8 	bhi.w	8000f68 <__udivmoddi4+0x2b0>
 8000df8:	1a84      	subs	r4, r0, r2
 8000dfa:	eb61 0103 	sbc.w	r1, r1, r3
 8000dfe:	2001      	movs	r0, #1
 8000e00:	468c      	mov	ip, r1
 8000e02:	2d00      	cmp	r5, #0
 8000e04:	d0a8      	beq.n	8000d58 <__udivmoddi4+0xa0>
 8000e06:	e9c5 4c00 	strd	r4, ip, [r5]
 8000e0a:	e7a5      	b.n	8000d58 <__udivmoddi4+0xa0>
 8000e0c:	f1c2 0320 	rsb	r3, r2, #32
 8000e10:	fa20 f603 	lsr.w	r6, r0, r3
 8000e14:	4097      	lsls	r7, r2
 8000e16:	fa01 f002 	lsl.w	r0, r1, r2
 8000e1a:	ea4f 4e17 	mov.w	lr, r7, lsr #16
 8000e1e:	40d9      	lsrs	r1, r3
 8000e20:	4330      	orrs	r0, r6
 8000e22:	0c03      	lsrs	r3, r0, #16
 8000e24:	fbb1 f6fe 	udiv	r6, r1, lr
 8000e28:	fa1f f887 	uxth.w	r8, r7
 8000e2c:	fb0e 1116 	mls	r1, lr, r6, r1
 8000e30:	ea43 4301 	orr.w	r3, r3, r1, lsl #16
 8000e34:	fb06 f108 	mul.w	r1, r6, r8
 8000e38:	4299      	cmp	r1, r3
 8000e3a:	fa04 f402 	lsl.w	r4, r4, r2
 8000e3e:	d909      	bls.n	8000e54 <__udivmoddi4+0x19c>
 8000e40:	18fb      	adds	r3, r7, r3
 8000e42:	f106 3cff 	add.w	ip, r6, #4294967295	; 0xffffffff
 8000e46:	f080 808d 	bcs.w	8000f64 <__udivmoddi4+0x2ac>
 8000e4a:	4299      	cmp	r1, r3
 8000e4c:	f240 808a 	bls.w	8000f64 <__udivmoddi4+0x2ac>
 8000e50:	3e02      	subs	r6, #2
 8000e52:	443b      	add	r3, r7
 8000e54:	1a5b      	subs	r3, r3, r1
 8000e56:	b281      	uxth	r1, r0
 8000e58:	fbb3 f0fe 	udiv	r0, r3, lr
 8000e5c:	fb0e 3310 	mls	r3, lr, r0, r3
 8000e60:	ea41 4103 	orr.w	r1, r1, r3, lsl #16
 8000e64:	fb00 f308 	mul.w	r3, r0, r8
 8000e68:	428b      	cmp	r3, r1
 8000e6a:	d907      	bls.n	8000e7c <__udivmoddi4+0x1c4>
 8000e6c:	1879      	adds	r1, r7, r1
 8000e6e:	f100 3cff 	add.w	ip, r0, #4294967295	; 0xffffffff
 8000e72:	d273      	bcs.n	8000f5c <__udivmoddi4+0x2a4>
 8000e74:	428b      	cmp	r3, r1
 8000e76:	d971      	bls.n	8000f5c <__udivmoddi4+0x2a4>
 8000e78:	3802      	subs	r0, #2
 8000e7a:	4439      	add	r1, r7
 8000e7c:	1acb      	subs	r3, r1, r3
 8000e7e:	ea40 4606 	orr.w	r6, r0, r6, lsl #16
 8000e82:	e778      	b.n	8000d76 <__udivmoddi4+0xbe>
 8000e84:	f1c6 0c20 	rsb	ip, r6, #32
 8000e88:	fa03 f406 	lsl.w	r4, r3, r6
 8000e8c:	fa22 f30c 	lsr.w	r3, r2, ip
 8000e90:	431c      	orrs	r4, r3
 8000e92:	fa20 f70c 	lsr.w	r7, r0, ip
 8000e96:	fa01 f306 	lsl.w	r3, r1, r6
 8000e9a:	ea4f 4e14 	mov.w	lr, r4, lsr #16
 8000e9e:	fa21 f10c 	lsr.w	r1, r1, ip
 8000ea2:	431f      	orrs	r7, r3
 8000ea4:	0c3b      	lsrs	r3, r7, #16
 8000ea6:	fbb1 f9fe 	udiv	r9, r1, lr
 8000eaa:	fa1f f884 	uxth.w	r8, r4
 8000eae:	fb0e 1119 	mls	r1, lr, r9, r1
 8000eb2:	ea43 4101 	orr.w	r1, r3, r1, lsl #16
 8000eb6:	fb09 fa08 	mul.w	sl, r9, r8
 8000eba:	458a      	cmp	sl, r1
 8000ebc:	fa02 f206 	lsl.w	r2, r2, r6
 8000ec0:	fa00 f306 	lsl.w	r3, r0, r6
 8000ec4:	d908      	bls.n	8000ed8 <__udivmoddi4+0x220>
 8000ec6:	1861      	adds	r1, r4, r1
 8000ec8:	f109 30ff 	add.w	r0, r9, #4294967295	; 0xffffffff
 8000ecc:	d248      	bcs.n	8000f60 <__udivmoddi4+0x2a8>
 8000ece:	458a      	cmp	sl, r1
 8000ed0:	d946      	bls.n	8000f60 <__udivmoddi4+0x2a8>
 8000ed2:	f1a9 0902 	sub.w	r9, r9, #2
 8000ed6:	4421      	add	r1, r4
 8000ed8:	eba1 010a 	sub.w	r1, r1, sl
 8000edc:	b2bf      	uxth	r7, r7
 8000ede:	fbb1 f0fe 	udiv	r0, r1, lr
 8000ee2:	fb0e 1110 	mls	r1, lr, r0, r1
 8000ee6:	ea47 4701 	orr.w	r7, r7, r1, lsl #16
 8000eea:	fb00 f808 	mul.w	r8, r0, r8
 8000eee:	45b8      	cmp	r8, r7
 8000ef0:	d907      	bls.n	8000f02 <__udivmoddi4+0x24a>
 8000ef2:	19e7      	adds	r7, r4, r7
 8000ef4:	f100 31ff 	add.w	r1, r0, #4294967295	; 0xffffffff
 8000ef8:	d22e      	bcs.n	8000f58 <__udivmoddi4+0x2a0>
 8000efa:	45b8      	cmp	r8, r7
 8000efc:	d92c      	bls.n	8000f58 <__udivmoddi4+0x2a0>
 8000efe:	3802      	subs	r0, #2
 8000f00:	4427      	add	r7, r4
 8000f02:	ea40 4009 	orr.w	r0, r0, r9, lsl #16
 8000f06:	eba7 0708 	sub.w	r7, r7, r8
 8000f0a:	fba0 8902 	umull	r8, r9, r0, r2
 8000f0e:	454f      	cmp	r7, r9
 8000f10:	46c6      	mov	lr, r8
 8000f12:	4649      	mov	r1, r9
 8000f14:	d31a      	bcc.n	8000f4c <__udivmoddi4+0x294>
 8000f16:	d017      	beq.n	8000f48 <__udivmoddi4+0x290>
 8000f18:	b15d      	cbz	r5, 8000f32 <__udivmoddi4+0x27a>
 8000f1a:	ebb3 020e 	subs.w	r2, r3, lr
 8000f1e:	eb67 0701 	sbc.w	r7, r7, r1
 8000f22:	fa07 fc0c 	lsl.w	ip, r7, ip
 8000f26:	40f2      	lsrs	r2, r6
 8000f28:	ea4c 0202 	orr.w	r2, ip, r2
 8000f2c:	40f7      	lsrs	r7, r6
 8000f2e:	e9c5 2700 	strd	r2, r7, [r5]
 8000f32:	2600      	movs	r6, #0
 8000f34:	4631      	mov	r1, r6
 8000f36:	e8bd 87f0 	ldmia.w	sp!, {r4, r5, r6, r7, r8, r9, sl, pc}
 8000f3a:	462e      	mov	r6, r5
 8000f3c:	4628      	mov	r0, r5
 8000f3e:	e70b      	b.n	8000d58 <__udivmoddi4+0xa0>
 8000f40:	4606      	mov	r6, r0
 8000f42:	e6e9      	b.n	8000d18 <__udivmoddi4+0x60>
 8000f44:	4618      	mov	r0, r3
 8000f46:	e6fd      	b.n	8000d44 <__udivmoddi4+0x8c>
 8000f48:	4543      	cmp	r3, r8
 8000f4a:	d2e5      	bcs.n	8000f18 <__udivmoddi4+0x260>
 8000f4c:	ebb8 0e02 	subs.w	lr, r8, r2
 8000f50:	eb69 0104 	sbc.w	r1, r9, r4
 8000f54:	3801      	subs	r0, #1
 8000f56:	e7df      	b.n	8000f18 <__udivmoddi4+0x260>
 8000f58:	4608      	mov	r0, r1
 8000f5a:	e7d2      	b.n	8000f02 <__udivmoddi4+0x24a>
 8000f5c:	4660      	mov	r0, ip
 8000f5e:	e78d      	b.n	8000e7c <__udivmoddi4+0x1c4>
 8000f60:	4681      	mov	r9, r0
 8000f62:	e7b9      	b.n	8000ed8 <__udivmoddi4+0x220>
 8000f64:	4666      	mov	r6, ip
 8000f66:	e775      	b.n	8000e54 <__udivmoddi4+0x19c>
 8000f68:	4630      	mov	r0, r6
 8000f6a:	e74a      	b.n	8000e02 <__udivmoddi4+0x14a>
 8000f6c:	f1ac 0c02 	sub.w	ip, ip, #2
 8000f70:	4439      	add	r1, r7
 8000f72:	e713      	b.n	8000d9c <__udivmoddi4+0xe4>
 8000f74:	3802      	subs	r0, #2
 8000f76:	443c      	add	r4, r7
 8000f78:	e724      	b.n	8000dc4 <__udivmoddi4+0x10c>
 8000f7a:	bf00      	nop

08000f7c <__aeabi_idiv0>:
 8000f7c:	4770      	bx	lr
 8000f7e:	bf00      	nop

08000f80 <GET_TIMER_CLK>:
/* USER CODE END PFP */

/* Private user code ---------------------------------------------------------*/
/* USER CODE BEGIN 0 */
uint32_t GET_TIMER_CLK(uint8_t timer)
{
 8000f80:	b580      	push	{r7, lr}
 8000f82:	b086      	sub	sp, #24
 8000f84:	af00      	add	r7, sp, #0
 8000f86:	4603      	mov	r3, r0
 8000f88:	71fb      	strb	r3, [r7, #7]
  uint8_t sel = 0;
 8000f8a:	2300      	movs	r3, #0
 8000f8c:	75fb      	strb	r3, [r7, #23]
  switch (timer)
 8000f8e:	79fb      	ldrb	r3, [r7, #7]
 8000f90:	2b07      	cmp	r3, #7
 8000f92:	dc02      	bgt.n	8000f9a <GET_TIMER_CLK+0x1a>
 8000f94:	2b02      	cmp	r3, #2
 8000f96:	da03      	bge.n	8000fa0 <GET_TIMER_CLK+0x20>
 8000f98:	e005      	b.n	8000fa6 <GET_TIMER_CLK+0x26>
 8000f9a:	3b0c      	subs	r3, #12
 8000f9c:	2b02      	cmp	r3, #2
 8000f9e:	d802      	bhi.n	8000fa6 <GET_TIMER_CLK+0x26>
  case 6:
  case 7:
  case 12:
  case 13:
  case 14:
    sel = 1;
 8000fa0:	2301      	movs	r3, #1
 8000fa2:	75fb      	strb	r3, [r7, #23]
    break;
 8000fa4:	e002      	b.n	8000fac <GET_TIMER_CLK+0x2c>
  default:
    sel = 2;
 8000fa6:	2302      	movs	r3, #2
 8000fa8:	75fb      	strb	r3, [r7, #23]
    break;
 8000faa:	bf00      	nop
  }
  if(sel == 1){
 8000fac:	7dfb      	ldrb	r3, [r7, #23]
 8000fae:	2b01      	cmp	r3, #1
 8000fb0:	d10d      	bne.n	8000fce <GET_TIMER_CLK+0x4e>
    /* Get PCLK1 frequency */
    uint32_t pclk1 = HAL_RCC_GetPCLK1Freq();
 8000fb2:	f001 ff19 	bl	8002de8 <HAL_RCC_GetPCLK1Freq>
 8000fb6:	60f8      	str	r0, [r7, #12]
  
    /* Get PCLK1 prescaler */
    if((RCC->CFGR & RCC_CFGR_PPRE1) == 0)
 8000fb8:	4b0d      	ldr	r3, [pc, #52]	; (8000ff0 <GET_TIMER_CLK+0x70>)
 8000fba:	689b      	ldr	r3, [r3, #8]
 8000fbc:	f403 53e0 	and.w	r3, r3, #7168	; 0x1c00
 8000fc0:	2b00      	cmp	r3, #0
 8000fc2:	d101      	bne.n	8000fc8 <GET_TIMER_CLK+0x48>
    {
      /* PCLK1 prescaler equal to 1 => TIMCLK = PCLK1 */
      return (pclk1);
 8000fc4:	68fb      	ldr	r3, [r7, #12]
 8000fc6:	e00f      	b.n	8000fe8 <GET_TIMER_CLK+0x68>
    }
    else
    {
      /* PCLK1 prescaler different from 1 => TIMCLK = 2 * PCLK1 */
      return(2 * pclk1);
 8000fc8:	68fb      	ldr	r3, [r7, #12]
 8000fca:	005b      	lsls	r3, r3, #1
 8000fcc:	e00c      	b.n	8000fe8 <GET_TIMER_CLK+0x68>
    }
  } else {
    /* Get PCLK2 frequency */
    uint32_t pclk2 = HAL_RCC_GetPCLK2Freq();
 8000fce:	f001 ff1f 	bl	8002e10 <HAL_RCC_GetPCLK2Freq>
 8000fd2:	6138      	str	r0, [r7, #16]
  
    /* Get PCLK1 prescaler */
    if((RCC->CFGR & RCC_CFGR_PPRE2) == 0)
 8000fd4:	4b06      	ldr	r3, [pc, #24]	; (8000ff0 <GET_TIMER_CLK+0x70>)
 8000fd6:	689b      	ldr	r3, [r3, #8]
 8000fd8:	f403 4360 	and.w	r3, r3, #57344	; 0xe000
 8000fdc:	2b00      	cmp	r3, #0
 8000fde:	d101      	bne.n	8000fe4 <GET_TIMER_CLK+0x64>
    {
      /* PCLK1 prescaler equal to 1 => TIMCLK = PCLK1 */
      return (pclk2);
 8000fe0:	693b      	ldr	r3, [r7, #16]
 8000fe2:	e001      	b.n	8000fe8 <GET_TIMER_CLK+0x68>
    }
    else
    {
      /* PCLK1 prescaler different from 1 => TIMCLK = 2 * PCLK1 */
      return(2 * pclk2);
 8000fe4:	693b      	ldr	r3, [r7, #16]
 8000fe6:	005b      	lsls	r3, r3, #1
    }
  }
}
 8000fe8:	4618      	mov	r0, r3
 8000fea:	3718      	adds	r7, #24
 8000fec:	46bd      	mov	sp, r7
 8000fee:	bd80      	pop	{r7, pc}
 8000ff0:	40023800 	.word	0x40023800

08000ff4 <changeTimerFrequency>:

uint8_t first = 1;
int changeTimerFrequency(TIM_HandleTypeDef *timer, int timer_num, int channel, float frequency, int32_t pulseWidth_ms){
 8000ff4:	b5b0      	push	{r4, r5, r7, lr}
 8000ff6:	b08e      	sub	sp, #56	; 0x38
 8000ff8:	af00      	add	r7, sp, #0
 8000ffa:	6178      	str	r0, [r7, #20]
 8000ffc:	6139      	str	r1, [r7, #16]
 8000ffe:	60fa      	str	r2, [r7, #12]
 8001000:	ed87 0a02 	vstr	s0, [r7, #8]
 8001004:	607b      	str	r3, [r7, #4]
  //Get the clock frequency going to this timer (scaled by the timer prescaler)
  float clk_freq = (float)(GET_TIMER_CLK(timer_num) / (PRESCALER - 1));
 8001006:	693b      	ldr	r3, [r7, #16]
 8001008:	b2db      	uxtb	r3, r3
 800100a:	4618      	mov	r0, r3
 800100c:	f7ff ffb8 	bl	8000f80 <GET_TIMER_CLK>
 8001010:	4603      	mov	r3, r0
 8001012:	4a57      	ldr	r2, [pc, #348]	; (8001170 <changeTimerFrequency+0x17c>)
 8001014:	fba2 2303 	umull	r2, r3, r2, r3
 8001018:	0adb      	lsrs	r3, r3, #11
 800101a:	ee07 3a90 	vmov	s15, r3
 800101e:	eef8 7a67 	vcvt.f32.u32	s15, s15
 8001022:	edc7 7a0d 	vstr	s15, [r7, #52]	; 0x34
  int clk_freq_int = (int)clk_freq;
 8001026:	edd7 7a0d 	vldr	s15, [r7, #52]	; 0x34
 800102a:	eefd 7ae7 	vcvt.s32.f32	s15, s15
 800102e:	ee17 3a90 	vmov	r3, s15
 8001032:	633b      	str	r3, [r7, #48]	; 0x30
  //DEBUG
  // sprintf(buff, "TIMER CLK FREQ: %d\n", clk_freq_int);
  // HAL_UART_Transmit(&huart2, buff, 50, 1000);

  //Calculate period and set it
  uint32_t prev_ARR = timer->Instance->ARR;
 8001034:	697b      	ldr	r3, [r7, #20]
 8001036:	681b      	ldr	r3, [r3, #0]
 8001038:	6adb      	ldr	r3, [r3, #44]	; 0x2c
 800103a:	62fb      	str	r3, [r7, #44]	; 0x2c
  uint32_t curr_count = __HAL_TIM_GET_COUNTER(timer);
 800103c:	697b      	ldr	r3, [r7, #20]
 800103e:	681b      	ldr	r3, [r3, #0]
 8001040:	6a5b      	ldr	r3, [r3, #36]	; 0x24
 8001042:	62bb      	str	r3, [r7, #40]	; 0x28
  uint32_t new_ARR = clk_freq / frequency - 1;
 8001044:	edd7 6a0d 	vldr	s13, [r7, #52]	; 0x34
 8001048:	ed97 7a02 	vldr	s14, [r7, #8]
 800104c:	eec6 7a87 	vdiv.f32	s15, s13, s14
 8001050:	eeb7 7a00 	vmov.f32	s14, #112	; 0x3f800000  1.0
 8001054:	ee77 7ac7 	vsub.f32	s15, s15, s14
 8001058:	eefc 7ae7 	vcvt.u32.f32	s15, s15
 800105c:	ee17 3a90 	vmov	r3, s15
 8001060:	627b      	str	r3, [r7, #36]	; 0x24
  timer->Instance->ARR = new_ARR;
 8001062:	697b      	ldr	r3, [r7, #20]
 8001064:	681b      	ldr	r3, [r3, #0]
 8001066:	6a7a      	ldr	r2, [r7, #36]	; 0x24
 8001068:	62da      	str	r2, [r3, #44]	; 0x2c
  uint32_t new_counter = ((float)curr_count / (float)prev_ARR) * new_ARR;
 800106a:	6abb      	ldr	r3, [r7, #40]	; 0x28
 800106c:	ee07 3a90 	vmov	s15, r3
 8001070:	eef8 6a67 	vcvt.f32.u32	s13, s15
 8001074:	6afb      	ldr	r3, [r7, #44]	; 0x2c
 8001076:	ee07 3a90 	vmov	s15, r3
 800107a:	eef8 7a67 	vcvt.f32.u32	s15, s15
 800107e:	ee86 7aa7 	vdiv.f32	s14, s13, s15
 8001082:	6a7b      	ldr	r3, [r7, #36]	; 0x24
 8001084:	ee07 3a90 	vmov	s15, r3
 8001088:	eef8 7a67 	vcvt.f32.u32	s15, s15
 800108c:	ee67 7a27 	vmul.f32	s15, s14, s15
 8001090:	eefc 7ae7 	vcvt.u32.f32	s15, s15
 8001094:	ee17 3a90 	vmov	r3, s15
 8001098:	623b      	str	r3, [r7, #32]
  if(new_counter >= new_ARR){
 800109a:	6a3a      	ldr	r2, [r7, #32]
 800109c:	6a7b      	ldr	r3, [r7, #36]	; 0x24
 800109e:	429a      	cmp	r2, r3
 80010a0:	d323      	bcc.n	80010ea <changeTimerFrequency+0xf6>
    if(first){
 80010a2:	4b34      	ldr	r3, [pc, #208]	; (8001174 <changeTimerFrequency+0x180>)
 80010a4:	781b      	ldrb	r3, [r3, #0]
 80010a6:	2b00      	cmp	r3, #0
 80010a8:	d007      	beq.n	80010ba <changeTimerFrequency+0xc6>
      first = 0;
 80010aa:	4b32      	ldr	r3, [pc, #200]	; (8001174 <changeTimerFrequency+0x180>)
 80010ac:	2200      	movs	r2, #0
 80010ae:	701a      	strb	r2, [r3, #0]
      sprintf(buff, "FIRST BIG!\n");
 80010b0:	4931      	ldr	r1, [pc, #196]	; (8001178 <changeTimerFrequency+0x184>)
 80010b2:	4832      	ldr	r0, [pc, #200]	; (800117c <changeTimerFrequency+0x188>)
 80010b4:	f005 fbe2 	bl	800687c <siprintf>
 80010b8:	e003      	b.n	80010c2 <changeTimerFrequency+0xce>
    } else {
      sprintf(buff, "TOO BIG!\n");
 80010ba:	4931      	ldr	r1, [pc, #196]	; (8001180 <changeTimerFrequency+0x18c>)
 80010bc:	482f      	ldr	r0, [pc, #188]	; (800117c <changeTimerFrequency+0x188>)
 80010be:	f005 fbdd 	bl	800687c <siprintf>
    }
    HAL_UART_Transmit(&huart2, buff, strlen(buff), 1000);
 80010c2:	482e      	ldr	r0, [pc, #184]	; (800117c <changeTimerFrequency+0x188>)
 80010c4:	f7ff f8a4 	bl	8000210 <strlen>
 80010c8:	4603      	mov	r3, r0
 80010ca:	b29a      	uxth	r2, r3
 80010cc:	f44f 737a 	mov.w	r3, #1000	; 0x3e8
 80010d0:	492a      	ldr	r1, [pc, #168]	; (800117c <changeTimerFrequency+0x188>)
 80010d2:	482c      	ldr	r0, [pc, #176]	; (8001184 <changeTimerFrequency+0x190>)
 80010d4:	f003 ff53 	bl	8004f7e <HAL_UART_Transmit>
    __HAL_TIM_SET_COUNTER(timer, new_ARR-1);
 80010d8:	697b      	ldr	r3, [r7, #20]
 80010da:	681b      	ldr	r3, [r3, #0]
 80010dc:	6a7a      	ldr	r2, [r7, #36]	; 0x24
 80010de:	3a01      	subs	r2, #1
 80010e0:	625a      	str	r2, [r3, #36]	; 0x24
    new_counter = new_ARR-1;
 80010e2:	6a7b      	ldr	r3, [r7, #36]	; 0x24
 80010e4:	3b01      	subs	r3, #1
 80010e6:	623b      	str	r3, [r7, #32]
 80010e8:	e003      	b.n	80010f2 <changeTimerFrequency+0xfe>
  }
  else{
    __HAL_TIM_SET_COUNTER(timer, new_counter);
 80010ea:	697b      	ldr	r3, [r7, #20]
 80010ec:	681b      	ldr	r3, [r3, #0]
 80010ee:	6a3a      	ldr	r2, [r7, #32]
 80010f0:	625a      	str	r2, [r3, #36]	; 0x24
  //DEBUG
  // sprintf(buff, "TIMER AUTO RELOAD VAL: %d\n", timer->Instance->ARR);
  // HAL_UART_Transmit(&huart2, buff, 50, 1000);
  //Set pulse width if it's valid ie. smaller than the period
  //Calculate the value for CCRx
  int ccr = (float)pulseWidth_ms * (clk_freq/1000.0);
 80010f2:	687b      	ldr	r3, [r7, #4]
 80010f4:	ee07 3a90 	vmov	s15, r3
 80010f8:	eef8 7ae7 	vcvt.f32.s32	s15, s15
 80010fc:	ee17 0a90 	vmov	r0, s15
 8001100:	f7ff fa42 	bl	8000588 <__aeabi_f2d>
 8001104:	4604      	mov	r4, r0
 8001106:	460d      	mov	r5, r1
 8001108:	6b78      	ldr	r0, [r7, #52]	; 0x34
 800110a:	f7ff fa3d 	bl	8000588 <__aeabi_f2d>
 800110e:	f04f 0200 	mov.w	r2, #0
 8001112:	4b1d      	ldr	r3, [pc, #116]	; (8001188 <changeTimerFrequency+0x194>)
 8001114:	f7ff fbba 	bl	800088c <__aeabi_ddiv>
 8001118:	4602      	mov	r2, r0
 800111a:	460b      	mov	r3, r1
 800111c:	4620      	mov	r0, r4
 800111e:	4629      	mov	r1, r5
 8001120:	f7ff fa8a 	bl	8000638 <__aeabi_dmul>
 8001124:	4602      	mov	r2, r0
 8001126:	460b      	mov	r3, r1
 8001128:	4610      	mov	r0, r2
 800112a:	4619      	mov	r1, r3
 800112c:	f7ff fd34 	bl	8000b98 <__aeabi_d2iz>
 8001130:	4603      	mov	r3, r0
 8001132:	61fb      	str	r3, [r7, #28]
  if(ccr <= timer->Instance->ARR)
 8001134:	697b      	ldr	r3, [r7, #20]
 8001136:	681b      	ldr	r3, [r3, #0]
 8001138:	6ada      	ldr	r2, [r3, #44]	; 0x2c
 800113a:	69fb      	ldr	r3, [r7, #28]
 800113c:	429a      	cmp	r2, r3
 800113e:	d30c      	bcc.n	800115a <changeTimerFrequency+0x166>
  {
    if(channel == 1){
 8001140:	68fb      	ldr	r3, [r7, #12]
 8001142:	2b01      	cmp	r3, #1
 8001144:	d104      	bne.n	8001150 <changeTimerFrequency+0x15c>
      timer->Instance->CCR1 = ccr;
 8001146:	697b      	ldr	r3, [r7, #20]
 8001148:	681b      	ldr	r3, [r3, #0]
 800114a:	69fa      	ldr	r2, [r7, #28]
 800114c:	635a      	str	r2, [r3, #52]	; 0x34
 800114e:	e00a      	b.n	8001166 <changeTimerFrequency+0x172>
      //DEBUG
      // sprintf(buff, "TIMER CCR1 VAL: %d\n", timer->Instance->CCR1);
      // HAL_UART_Transmit(&huart2, buff, 50, 1000);
    } else {
      timer->Instance->CCR2 = ccr;
 8001150:	697b      	ldr	r3, [r7, #20]
 8001152:	681b      	ldr	r3, [r3, #0]
 8001154:	69fa      	ldr	r2, [r7, #28]
 8001156:	639a      	str	r2, [r3, #56]	; 0x38
 8001158:	e005      	b.n	8001166 <changeTimerFrequency+0x172>
    }

  }
  else
  {
    timer->Instance->CCR1 = timer->Instance->ARR;
 800115a:	697b      	ldr	r3, [r7, #20]
 800115c:	681a      	ldr	r2, [r3, #0]
 800115e:	697b      	ldr	r3, [r7, #20]
 8001160:	681b      	ldr	r3, [r3, #0]
 8001162:	6ad2      	ldr	r2, [r2, #44]	; 0x2c
 8001164:	635a      	str	r2, [r3, #52]	; 0x34
  }
  return 0;
 8001166:	2300      	movs	r3, #0
}
 8001168:	4618      	mov	r0, r3
 800116a:	3738      	adds	r7, #56	; 0x38
 800116c:	46bd      	mov	sp, r7
 800116e:	bdb0      	pop	{r4, r5, r7, pc}
 8001170:	aed22925 	.word	0xaed22925
 8001174:	20000018 	.word	0x20000018
 8001178:	08008cf0 	.word	0x08008cf0
 800117c:	20000354 	.word	0x20000354
 8001180:	08008cfc 	.word	0x08008cfc
 8001184:	200004ac 	.word	0x200004ac
 8001188:	408f4000 	.word	0x408f4000

0800118c <map_clamped>:

float map_clamped(float x, float in_min, float in_max, float out_min, float out_max) {
 800118c:	b5b0      	push	{r4, r5, r7, lr}
 800118e:	b08a      	sub	sp, #40	; 0x28
 8001190:	af00      	add	r7, sp, #0
 8001192:	ed87 0a05 	vstr	s0, [r7, #20]
 8001196:	edc7 0a04 	vstr	s1, [r7, #16]
 800119a:	ed87 1a03 	vstr	s2, [r7, #12]
 800119e:	edc7 1a02 	vstr	s3, [r7, #8]
 80011a2:	ed87 2a01 	vstr	s4, [r7, #4]
  //Clip output
  if(x > in_max)
 80011a6:	ed97 7a05 	vldr	s14, [r7, #20]
 80011aa:	edd7 7a03 	vldr	s15, [r7, #12]
 80011ae:	eeb4 7ae7 	vcmpe.f32	s14, s15
 80011b2:	eef1 fa10 	vmrs	APSR_nzcv, fpscr
 80011b6:	dd01      	ble.n	80011bc <map_clamped+0x30>
    return out_max;
 80011b8:	687b      	ldr	r3, [r7, #4]
 80011ba:	e04c      	b.n	8001256 <map_clamped+0xca>
  else if(x < in_min)
 80011bc:	ed97 7a05 	vldr	s14, [r7, #20]
 80011c0:	edd7 7a04 	vldr	s15, [r7, #16]
 80011c4:	eeb4 7ae7 	vcmpe.f32	s14, s15
 80011c8:	eef1 fa10 	vmrs	APSR_nzcv, fpscr
 80011cc:	d501      	bpl.n	80011d2 <map_clamped+0x46>
    return out_min;
 80011ce:	68bb      	ldr	r3, [r7, #8]
 80011d0:	e041      	b.n	8001256 <map_clamped+0xca>
  else
  {
    double slope = 1.0 * (out_max - out_min) / (in_max - in_min);
 80011d2:	ed97 7a01 	vldr	s14, [r7, #4]
 80011d6:	edd7 7a02 	vldr	s15, [r7, #8]
 80011da:	ee77 7a67 	vsub.f32	s15, s14, s15
 80011de:	ee17 0a90 	vmov	r0, s15
 80011e2:	f7ff f9d1 	bl	8000588 <__aeabi_f2d>
 80011e6:	4604      	mov	r4, r0
 80011e8:	460d      	mov	r5, r1
 80011ea:	ed97 7a03 	vldr	s14, [r7, #12]
 80011ee:	edd7 7a04 	vldr	s15, [r7, #16]
 80011f2:	ee77 7a67 	vsub.f32	s15, s14, s15
 80011f6:	ee17 0a90 	vmov	r0, s15
 80011fa:	f7ff f9c5 	bl	8000588 <__aeabi_f2d>
 80011fe:	4602      	mov	r2, r0
 8001200:	460b      	mov	r3, r1
 8001202:	4620      	mov	r0, r4
 8001204:	4629      	mov	r1, r5
 8001206:	f7ff fb41 	bl	800088c <__aeabi_ddiv>
 800120a:	4602      	mov	r2, r0
 800120c:	460b      	mov	r3, r1
 800120e:	e9c7 2308 	strd	r2, r3, [r7, #32]
    double output = out_min + slope * (x - in_min);
 8001212:	68b8      	ldr	r0, [r7, #8]
 8001214:	f7ff f9b8 	bl	8000588 <__aeabi_f2d>
 8001218:	4604      	mov	r4, r0
 800121a:	460d      	mov	r5, r1
 800121c:	ed97 7a05 	vldr	s14, [r7, #20]
 8001220:	edd7 7a04 	vldr	s15, [r7, #16]
 8001224:	ee77 7a67 	vsub.f32	s15, s14, s15
 8001228:	ee17 0a90 	vmov	r0, s15
 800122c:	f7ff f9ac 	bl	8000588 <__aeabi_f2d>
 8001230:	e9d7 2308 	ldrd	r2, r3, [r7, #32]
 8001234:	f7ff fa00 	bl	8000638 <__aeabi_dmul>
 8001238:	4602      	mov	r2, r0
 800123a:	460b      	mov	r3, r1
 800123c:	4620      	mov	r0, r4
 800123e:	4629      	mov	r1, r5
 8001240:	f7ff f844 	bl	80002cc <__adddf3>
 8001244:	4602      	mov	r2, r0
 8001246:	460b      	mov	r3, r1
 8001248:	e9c7 2306 	strd	r2, r3, [r7, #24]
    return output;
 800124c:	e9d7 0106 	ldrd	r0, r1, [r7, #24]
 8001250:	f7ff fcca 	bl	8000be8 <__aeabi_d2f>
 8001254:	4603      	mov	r3, r0
 8001256:	ee07 3a90 	vmov	s15, r3
  }
}
 800125a:	eeb0 0a67 	vmov.f32	s0, s15
 800125e:	3728      	adds	r7, #40	; 0x28
 8001260:	46bd      	mov	sp, r7
 8001262:	bdb0      	pop	{r4, r5, r7, pc}

08001264 <UpdateMotorsFreq>:

void UpdateMotorsFreq(TIM_HandleTypeDef** motors, uint8_t* motors_num, uint8_t* motors_channel, float* distances, float min_dist, float max_dist){
 8001264:	b580      	push	{r7, lr}
 8001266:	b08a      	sub	sp, #40	; 0x28
 8001268:	af00      	add	r7, sp, #0
 800126a:	6178      	str	r0, [r7, #20]
 800126c:	6139      	str	r1, [r7, #16]
 800126e:	60fa      	str	r2, [r7, #12]
 8001270:	60bb      	str	r3, [r7, #8]
 8001272:	ed87 0a01 	vstr	s0, [r7, #4]
 8001276:	edc7 0a00 	vstr	s1, [r7]
  float freq = 0.0;
 800127a:	f04f 0300 	mov.w	r3, #0
 800127e:	627b      	str	r3, [r7, #36]	; 0x24
  uint32_t pulse_width_ms = 0;
 8001280:	2300      	movs	r3, #0
 8001282:	623b      	str	r3, [r7, #32]
  for(int i = 0; i < 4; i++){
 8001284:	2300      	movs	r3, #0
 8001286:	61fb      	str	r3, [r7, #28]
 8001288:	e051      	b.n	800132e <UpdateMotorsFreq+0xca>
    if(distances[i] < min_dist)
 800128a:	69fb      	ldr	r3, [r7, #28]
 800128c:	009b      	lsls	r3, r3, #2
 800128e:	68ba      	ldr	r2, [r7, #8]
 8001290:	4413      	add	r3, r2
 8001292:	edd3 7a00 	vldr	s15, [r3]
 8001296:	ed97 7a01 	vldr	s14, [r7, #4]
 800129a:	eeb4 7ae7 	vcmpe.f32	s14, s15
 800129e:	eef1 fa10 	vmrs	APSR_nzcv, fpscr
 80012a2:	dd04      	ble.n	80012ae <UpdateMotorsFreq+0x4a>
    {
      freq = 5.0;
 80012a4:	4b26      	ldr	r3, [pc, #152]	; (8001340 <UpdateMotorsFreq+0xdc>)
 80012a6:	627b      	str	r3, [r7, #36]	; 0x24
      pulse_width_ms = 200;
 80012a8:	23c8      	movs	r3, #200	; 0xc8
 80012aa:	623b      	str	r3, [r7, #32]
 80012ac:	e028      	b.n	8001300 <UpdateMotorsFreq+0x9c>
    }
    else if(distances[i] > max_dist)
 80012ae:	69fb      	ldr	r3, [r7, #28]
 80012b0:	009b      	lsls	r3, r3, #2
 80012b2:	68ba      	ldr	r2, [r7, #8]
 80012b4:	4413      	add	r3, r2
 80012b6:	edd3 7a00 	vldr	s15, [r3]
 80012ba:	ed97 7a00 	vldr	s14, [r7]
 80012be:	eeb4 7ae7 	vcmpe.f32	s14, s15
 80012c2:	eef1 fa10 	vmrs	APSR_nzcv, fpscr
 80012c6:	d505      	bpl.n	80012d4 <UpdateMotorsFreq+0x70>
    {
      freq = 1.0;
 80012c8:	f04f 537e 	mov.w	r3, #1065353216	; 0x3f800000
 80012cc:	627b      	str	r3, [r7, #36]	; 0x24
      pulse_width_ms = 1;
 80012ce:	2301      	movs	r3, #1
 80012d0:	623b      	str	r3, [r7, #32]
 80012d2:	e015      	b.n	8001300 <UpdateMotorsFreq+0x9c>
    }
    else
    {
      freq = map_clamped(distances[i], min_dist, max_dist, 5.0, 1.0);
 80012d4:	69fb      	ldr	r3, [r7, #28]
 80012d6:	009b      	lsls	r3, r3, #2
 80012d8:	68ba      	ldr	r2, [r7, #8]
 80012da:	4413      	add	r3, r2
 80012dc:	edd3 7a00 	vldr	s15, [r3]
 80012e0:	eeb7 2a00 	vmov.f32	s4, #112	; 0x3f800000  1.0
 80012e4:	eef1 1a04 	vmov.f32	s3, #20	; 0x40a00000  5.0
 80012e8:	ed97 1a00 	vldr	s2, [r7]
 80012ec:	edd7 0a01 	vldr	s1, [r7, #4]
 80012f0:	eeb0 0a67 	vmov.f32	s0, s15
 80012f4:	f7ff ff4a 	bl	800118c <map_clamped>
 80012f8:	ed87 0a09 	vstr	s0, [r7, #36]	; 0x24
      pulse_width_ms = 200;
 80012fc:	23c8      	movs	r3, #200	; 0xc8
 80012fe:	623b      	str	r3, [r7, #32]
    }
    // sprintf(buff, "MOTOR: %d\tDIST %d: %.2f\tFREQ %d: %.2f\t PULSE WIDTH:%d\n", motors_num[i], i, distances[i], i, freq, pulse_width_ms);
    // HAL_UART_Transmit(&huart2, buff, strlen(buff), 10000);
    changeTimerFrequency(motors[i], motors_num[i], motors_channel[i], freq, pulse_width_ms);
 8001300:	69fb      	ldr	r3, [r7, #28]
 8001302:	009b      	lsls	r3, r3, #2
 8001304:	697a      	ldr	r2, [r7, #20]
 8001306:	4413      	add	r3, r2
 8001308:	6818      	ldr	r0, [r3, #0]
 800130a:	69fb      	ldr	r3, [r7, #28]
 800130c:	693a      	ldr	r2, [r7, #16]
 800130e:	4413      	add	r3, r2
 8001310:	781b      	ldrb	r3, [r3, #0]
 8001312:	4619      	mov	r1, r3
 8001314:	69fb      	ldr	r3, [r7, #28]
 8001316:	68fa      	ldr	r2, [r7, #12]
 8001318:	4413      	add	r3, r2
 800131a:	781b      	ldrb	r3, [r3, #0]
 800131c:	461a      	mov	r2, r3
 800131e:	6a3b      	ldr	r3, [r7, #32]
 8001320:	ed97 0a09 	vldr	s0, [r7, #36]	; 0x24
 8001324:	f7ff fe66 	bl	8000ff4 <changeTimerFrequency>
  for(int i = 0; i < 4; i++){
 8001328:	69fb      	ldr	r3, [r7, #28]
 800132a:	3301      	adds	r3, #1
 800132c:	61fb      	str	r3, [r7, #28]
 800132e:	69fb      	ldr	r3, [r7, #28]
 8001330:	2b03      	cmp	r3, #3
 8001332:	ddaa      	ble.n	800128a <UpdateMotorsFreq+0x26>
  }
}
 8001334:	bf00      	nop
 8001336:	bf00      	nop
 8001338:	3728      	adds	r7, #40	; 0x28
 800133a:	46bd      	mov	sp, r7
 800133c:	bd80      	pop	{r7, pc}
 800133e:	bf00      	nop
 8001340:	40a00000 	.word	0x40a00000

08001344 <main>:
/**
  * @brief  The application entry point.
  * @retval int
  */
int main(void)
{
 8001344:	b580      	push	{r7, lr}
 8001346:	af00      	add	r7, sp, #0
  /* USER CODE END 1 */

  /* MCU Configuration--------------------------------------------------------*/

  /* Reset of all peripherals, Initializes the Flash interface and the Systick. */
  HAL_Init();
 8001348:	f001 f906 	bl	8002558 <HAL_Init>
  /* USER CODE BEGIN Init */

  /* USER CODE END Init */

  /* Configure the system clock */
  SystemClock_Config();
 800134c:	f000 f8d8 	bl	8001500 <SystemClock_Config>
  /* USER CODE BEGIN SysInit */

  /* USER CODE END SysInit */

  /* Initialize all configured peripherals */
  MX_GPIO_Init();
 8001350:	f000 fc60 	bl	8001c14 <MX_GPIO_Init>
  MX_USART2_UART_Init();
 8001354:	f000 fc34 	bl	8001bc0 <MX_USART2_UART_Init>
  MX_TIM1_Init();
 8001358:	f000 f940 	bl	80015dc <MX_TIM1_Init>
  MX_TIM3_Init();
 800135c:	f000 f9e0 	bl	8001720 <MX_TIM3_Init>
  MX_TIM4_Init();
 8001360:	f000 fa56 	bl	8001810 <MX_TIM4_Init>
  MX_TIM5_Init();
 8001364:	f000 facc 	bl	8001900 <MX_TIM5_Init>
  MX_TIM8_Init();
 8001368:	f000 fb24 	bl	80019b4 <MX_TIM8_Init>
  MX_TIM12_Init();
 800136c:	f000 fbc4 	bl	8001af8 <MX_TIM12_Init>
  /* USER CODE BEGIN 2 */
  HCSR04_Init(HCSR04_SENSOR1, &htim2);
 8001370:	4955      	ldr	r1, [pc, #340]	; (80014c8 <main+0x184>)
 8001372:	2000      	movs	r0, #0
 8001374:	f004 f8f4 	bl	8005560 <HCSR04_Init>
  HCSR04_Init(HCSR04_SENSOR2, &htim2);
 8001378:	4953      	ldr	r1, [pc, #332]	; (80014c8 <main+0x184>)
 800137a:	2001      	movs	r0, #1
 800137c:	f004 f8f0 	bl	8005560 <HCSR04_Init>
  HCSR04_Init(HCSR04_SENSOR3, &htim2);
 8001380:	4951      	ldr	r1, [pc, #324]	; (80014c8 <main+0x184>)
 8001382:	2002      	movs	r0, #2
 8001384:	f004 f8ec 	bl	8005560 <HCSR04_Init>
  HCSR04_Init(HCSR04_SENSOR4, &htim2);
 8001388:	494f      	ldr	r1, [pc, #316]	; (80014c8 <main+0x184>)
 800138a:	2003      	movs	r0, #3
 800138c:	f004 f8e8 	bl	8005560 <HCSR04_Init>
  //START MOTOR TIMER 1,2,5,6 (middle 3 and 4 are not used)
  //1->TIM1, 2->TIM3, 3->TIM4, 4->TIM5, 5->TIM8, 6->TIM12
  HAL_TIM_PWM_Start(&htim1, TIM_CHANNEL_1);
 8001390:	2100      	movs	r1, #0
 8001392:	484e      	ldr	r0, [pc, #312]	; (80014cc <main+0x188>)
 8001394:	f002 fab0 	bl	80038f8 <HAL_TIM_PWM_Start>
  HAL_TIM_PWM_Start(&htim3, TIM_CHANNEL_1);
 8001398:	2100      	movs	r1, #0
 800139a:	484d      	ldr	r0, [pc, #308]	; (80014d0 <main+0x18c>)
 800139c:	f002 faac 	bl	80038f8 <HAL_TIM_PWM_Start>
  HAL_TIM_PWM_Start(&htim8, TIM_CHANNEL_1);
 80013a0:	2100      	movs	r1, #0
 80013a2:	484c      	ldr	r0, [pc, #304]	; (80014d4 <main+0x190>)
 80013a4:	f002 faa8 	bl	80038f8 <HAL_TIM_PWM_Start>
  HAL_TIM_PWM_Start(&htim12, TIM_CHANNEL_1);
 80013a8:	2100      	movs	r1, #0
 80013aa:	484b      	ldr	r0, [pc, #300]	; (80014d8 <main+0x194>)
 80013ac:	f002 faa4 	bl	80038f8 <HAL_TIM_PWM_Start>
  while (1)
  {
    /* USER CODE END WHILE */

    /* USER CODE BEGIN 3 */
	  Distance1 = HCSR04_Read(HCSR04_SENSOR1);
 80013b0:	2000      	movs	r0, #0
 80013b2:	f004 fd45 	bl	8005e40 <HCSR04_Read>
 80013b6:	eef0 7a40 	vmov.f32	s15, s0
 80013ba:	4b48      	ldr	r3, [pc, #288]	; (80014dc <main+0x198>)
 80013bc:	edc3 7a00 	vstr	s15, [r3]
	  Distance2 = HCSR04_Read(HCSR04_SENSOR2);
 80013c0:	2001      	movs	r0, #1
 80013c2:	f004 fd3d 	bl	8005e40 <HCSR04_Read>
 80013c6:	eef0 7a40 	vmov.f32	s15, s0
 80013ca:	4b45      	ldr	r3, [pc, #276]	; (80014e0 <main+0x19c>)
 80013cc:	edc3 7a00 	vstr	s15, [r3]
	  Distance3 = HCSR04_Read(HCSR04_SENSOR3);
 80013d0:	2002      	movs	r0, #2
 80013d2:	f004 fd35 	bl	8005e40 <HCSR04_Read>
 80013d6:	eef0 7a40 	vmov.f32	s15, s0
 80013da:	4b42      	ldr	r3, [pc, #264]	; (80014e4 <main+0x1a0>)
 80013dc:	edc3 7a00 	vstr	s15, [r3]
	  Distance4 = HCSR04_Read(HCSR04_SENSOR4);
 80013e0:	2003      	movs	r0, #3
 80013e2:	f004 fd2d 	bl	8005e40 <HCSR04_Read>
 80013e6:	eef0 7a40 	vmov.f32	s15, s0
 80013ea:	4b3f      	ldr	r3, [pc, #252]	; (80014e8 <main+0x1a4>)
 80013ec:	edc3 7a00 	vstr	s15, [r3]
    distances[0] = Distance1;
 80013f0:	4b3a      	ldr	r3, [pc, #232]	; (80014dc <main+0x198>)
 80013f2:	681b      	ldr	r3, [r3, #0]
 80013f4:	4a3d      	ldr	r2, [pc, #244]	; (80014ec <main+0x1a8>)
 80013f6:	6013      	str	r3, [r2, #0]
    distances[1] = Distance2;
 80013f8:	4b39      	ldr	r3, [pc, #228]	; (80014e0 <main+0x19c>)
 80013fa:	681b      	ldr	r3, [r3, #0]
 80013fc:	4a3b      	ldr	r2, [pc, #236]	; (80014ec <main+0x1a8>)
 80013fe:	6053      	str	r3, [r2, #4]
    distances[2] = Distance3;
 8001400:	4b38      	ldr	r3, [pc, #224]	; (80014e4 <main+0x1a0>)
 8001402:	681b      	ldr	r3, [r3, #0]
 8001404:	4a39      	ldr	r2, [pc, #228]	; (80014ec <main+0x1a8>)
 8001406:	6093      	str	r3, [r2, #8]
    distances[3] = Distance4;
 8001408:	4b37      	ldr	r3, [pc, #220]	; (80014e8 <main+0x1a4>)
 800140a:	681b      	ldr	r3, [r3, #0]
 800140c:	4a37      	ldr	r2, [pc, #220]	; (80014ec <main+0x1a8>)
 800140e:	60d3      	str	r3, [r2, #12]
	  sprintf(buff, "Dist= %5.2f cm\t", Distance1);
 8001410:	4b32      	ldr	r3, [pc, #200]	; (80014dc <main+0x198>)
 8001412:	681b      	ldr	r3, [r3, #0]
 8001414:	4618      	mov	r0, r3
 8001416:	f7ff f8b7 	bl	8000588 <__aeabi_f2d>
 800141a:	4602      	mov	r2, r0
 800141c:	460b      	mov	r3, r1
 800141e:	4934      	ldr	r1, [pc, #208]	; (80014f0 <main+0x1ac>)
 8001420:	4834      	ldr	r0, [pc, #208]	; (80014f4 <main+0x1b0>)
 8001422:	f005 fa2b 	bl	800687c <siprintf>
	  HAL_UART_Transmit(&huart2, buff, strlen(buff), 1000);
 8001426:	4833      	ldr	r0, [pc, #204]	; (80014f4 <main+0x1b0>)
 8001428:	f7fe fef2 	bl	8000210 <strlen>
 800142c:	4603      	mov	r3, r0
 800142e:	b29a      	uxth	r2, r3
 8001430:	f44f 737a 	mov.w	r3, #1000	; 0x3e8
 8001434:	492f      	ldr	r1, [pc, #188]	; (80014f4 <main+0x1b0>)
 8001436:	4830      	ldr	r0, [pc, #192]	; (80014f8 <main+0x1b4>)
 8001438:	f003 fda1 	bl	8004f7e <HAL_UART_Transmit>
	  sprintf(buff, "Dist= %5.2f cm\t", Distance2);
 800143c:	4b28      	ldr	r3, [pc, #160]	; (80014e0 <main+0x19c>)
 800143e:	681b      	ldr	r3, [r3, #0]
 8001440:	4618      	mov	r0, r3
 8001442:	f7ff f8a1 	bl	8000588 <__aeabi_f2d>
 8001446:	4602      	mov	r2, r0
 8001448:	460b      	mov	r3, r1
 800144a:	4929      	ldr	r1, [pc, #164]	; (80014f0 <main+0x1ac>)
 800144c:	4829      	ldr	r0, [pc, #164]	; (80014f4 <main+0x1b0>)
 800144e:	f005 fa15 	bl	800687c <siprintf>
	  HAL_UART_Transmit(&huart2, buff, strlen(buff), 1000);
 8001452:	4828      	ldr	r0, [pc, #160]	; (80014f4 <main+0x1b0>)
 8001454:	f7fe fedc 	bl	8000210 <strlen>
 8001458:	4603      	mov	r3, r0
 800145a:	b29a      	uxth	r2, r3
 800145c:	f44f 737a 	mov.w	r3, #1000	; 0x3e8
 8001460:	4924      	ldr	r1, [pc, #144]	; (80014f4 <main+0x1b0>)
 8001462:	4825      	ldr	r0, [pc, #148]	; (80014f8 <main+0x1b4>)
 8001464:	f003 fd8b 	bl	8004f7e <HAL_UART_Transmit>
	  sprintf(buff, "Dist= %5.2f cm\t", Distance3);
 8001468:	4b1e      	ldr	r3, [pc, #120]	; (80014e4 <main+0x1a0>)
 800146a:	681b      	ldr	r3, [r3, #0]
 800146c:	4618      	mov	r0, r3
 800146e:	f7ff f88b 	bl	8000588 <__aeabi_f2d>
 8001472:	4602      	mov	r2, r0
 8001474:	460b      	mov	r3, r1
 8001476:	491e      	ldr	r1, [pc, #120]	; (80014f0 <main+0x1ac>)
 8001478:	481e      	ldr	r0, [pc, #120]	; (80014f4 <main+0x1b0>)
 800147a:	f005 f9ff 	bl	800687c <siprintf>
	  HAL_UART_Transmit(&huart2, buff, strlen(buff), 1000);
 800147e:	481d      	ldr	r0, [pc, #116]	; (80014f4 <main+0x1b0>)
 8001480:	f7fe fec6 	bl	8000210 <strlen>
 8001484:	4603      	mov	r3, r0
 8001486:	b29a      	uxth	r2, r3
 8001488:	f44f 737a 	mov.w	r3, #1000	; 0x3e8
 800148c:	4919      	ldr	r1, [pc, #100]	; (80014f4 <main+0x1b0>)
 800148e:	481a      	ldr	r0, [pc, #104]	; (80014f8 <main+0x1b4>)
 8001490:	f003 fd75 	bl	8004f7e <HAL_UART_Transmit>
	  sprintf(buff, "Dist= %5.2f cm\n", Distance4);
 8001494:	4b14      	ldr	r3, [pc, #80]	; (80014e8 <main+0x1a4>)
 8001496:	681b      	ldr	r3, [r3, #0]
 8001498:	4618      	mov	r0, r3
 800149a:	f7ff f875 	bl	8000588 <__aeabi_f2d>
 800149e:	4602      	mov	r2, r0
 80014a0:	460b      	mov	r3, r1
 80014a2:	4916      	ldr	r1, [pc, #88]	; (80014fc <main+0x1b8>)
 80014a4:	4813      	ldr	r0, [pc, #76]	; (80014f4 <main+0x1b0>)
 80014a6:	f005 f9e9 	bl	800687c <siprintf>
	  HAL_UART_Transmit(&huart2, buff, strlen(buff), 1000);
 80014aa:	4812      	ldr	r0, [pc, #72]	; (80014f4 <main+0x1b0>)
 80014ac:	f7fe feb0 	bl	8000210 <strlen>
 80014b0:	4603      	mov	r3, r0
 80014b2:	b29a      	uxth	r2, r3
 80014b4:	f44f 737a 	mov.w	r3, #1000	; 0x3e8
 80014b8:	490e      	ldr	r1, [pc, #56]	; (80014f4 <main+0x1b0>)
 80014ba:	480f      	ldr	r0, [pc, #60]	; (80014f8 <main+0x1b4>)
 80014bc:	f003 fd5f 	bl	8004f7e <HAL_UART_Transmit>
	  HAL_Delay(10);
 80014c0:	200a      	movs	r0, #10
 80014c2:	f001 f8bb 	bl	800263c <HAL_Delay>
  {
 80014c6:	e773      	b.n	80013b0 <main+0x6c>
 80014c8:	20000464 	.word	0x20000464
 80014cc:	2000041c 	.word	0x2000041c
 80014d0:	200003d0 	.word	0x200003d0
 80014d4:	200002c4 	.word	0x200002c4
 80014d8:	20000500 	.word	0x20000500
 80014dc:	20000214 	.word	0x20000214
 80014e0:	20000218 	.word	0x20000218
 80014e4:	2000021c 	.word	0x2000021c
 80014e8:	20000220 	.word	0x20000220
 80014ec:	200004f0 	.word	0x200004f0
 80014f0:	08008d08 	.word	0x08008d08
 80014f4:	20000354 	.word	0x20000354
 80014f8:	200004ac 	.word	0x200004ac
 80014fc:	08008d18 	.word	0x08008d18

08001500 <SystemClock_Config>:
/**
  * @brief System Clock Configuration
  * @retval None
  */
void SystemClock_Config(void)
{
 8001500:	b580      	push	{r7, lr}
 8001502:	b094      	sub	sp, #80	; 0x50
 8001504:	af00      	add	r7, sp, #0
  RCC_OscInitTypeDef RCC_OscInitStruct = {0};
 8001506:	f107 031c 	add.w	r3, r7, #28
 800150a:	2234      	movs	r2, #52	; 0x34
 800150c:	2100      	movs	r1, #0
 800150e:	4618      	mov	r0, r3
 8001510:	f004 fd42 	bl	8005f98 <memset>
  RCC_ClkInitTypeDef RCC_ClkInitStruct = {0};
 8001514:	f107 0308 	add.w	r3, r7, #8
 8001518:	2200      	movs	r2, #0
 800151a:	601a      	str	r2, [r3, #0]
 800151c:	605a      	str	r2, [r3, #4]
 800151e:	609a      	str	r2, [r3, #8]
 8001520:	60da      	str	r2, [r3, #12]
 8001522:	611a      	str	r2, [r3, #16]

  /** Configure the main internal regulator output voltage
  */
  __HAL_RCC_PWR_CLK_ENABLE();
 8001524:	2300      	movs	r3, #0
 8001526:	607b      	str	r3, [r7, #4]
 8001528:	4b2a      	ldr	r3, [pc, #168]	; (80015d4 <SystemClock_Config+0xd4>)
 800152a:	6c1b      	ldr	r3, [r3, #64]	; 0x40
 800152c:	4a29      	ldr	r2, [pc, #164]	; (80015d4 <SystemClock_Config+0xd4>)
 800152e:	f043 5380 	orr.w	r3, r3, #268435456	; 0x10000000
 8001532:	6413      	str	r3, [r2, #64]	; 0x40
 8001534:	4b27      	ldr	r3, [pc, #156]	; (80015d4 <SystemClock_Config+0xd4>)
 8001536:	6c1b      	ldr	r3, [r3, #64]	; 0x40
 8001538:	f003 5380 	and.w	r3, r3, #268435456	; 0x10000000
 800153c:	607b      	str	r3, [r7, #4]
 800153e:	687b      	ldr	r3, [r7, #4]
  __HAL_PWR_VOLTAGESCALING_CONFIG(PWR_REGULATOR_VOLTAGE_SCALE3);
 8001540:	2300      	movs	r3, #0
 8001542:	603b      	str	r3, [r7, #0]
 8001544:	4b24      	ldr	r3, [pc, #144]	; (80015d8 <SystemClock_Config+0xd8>)
 8001546:	681b      	ldr	r3, [r3, #0]
 8001548:	f423 4340 	bic.w	r3, r3, #49152	; 0xc000
 800154c:	4a22      	ldr	r2, [pc, #136]	; (80015d8 <SystemClock_Config+0xd8>)
 800154e:	f443 4380 	orr.w	r3, r3, #16384	; 0x4000
 8001552:	6013      	str	r3, [r2, #0]
 8001554:	4b20      	ldr	r3, [pc, #128]	; (80015d8 <SystemClock_Config+0xd8>)
 8001556:	681b      	ldr	r3, [r3, #0]
 8001558:	f403 4340 	and.w	r3, r3, #49152	; 0xc000
 800155c:	603b      	str	r3, [r7, #0]
 800155e:	683b      	ldr	r3, [r7, #0]
  /** Initializes the RCC Oscillators according to the specified parameters
  * in the RCC_OscInitTypeDef structure.
  */
  RCC_OscInitStruct.OscillatorType = RCC_OSCILLATORTYPE_HSI;
 8001560:	2302      	movs	r3, #2
 8001562:	61fb      	str	r3, [r7, #28]
  RCC_OscInitStruct.HSIState = RCC_HSI_ON;
 8001564:	2301      	movs	r3, #1
 8001566:	62bb      	str	r3, [r7, #40]	; 0x28
  RCC_OscInitStruct.HSICalibrationValue = RCC_HSICALIBRATION_DEFAULT;
 8001568:	2310      	movs	r3, #16
 800156a:	62fb      	str	r3, [r7, #44]	; 0x2c
  RCC_OscInitStruct.PLL.PLLState = RCC_PLL_ON;
 800156c:	2302      	movs	r3, #2
 800156e:	637b      	str	r3, [r7, #52]	; 0x34
  RCC_OscInitStruct.PLL.PLLSource = RCC_PLLSOURCE_HSI;
 8001570:	2300      	movs	r3, #0
 8001572:	63bb      	str	r3, [r7, #56]	; 0x38
  RCC_OscInitStruct.PLL.PLLM = 16;
 8001574:	2310      	movs	r3, #16
 8001576:	63fb      	str	r3, [r7, #60]	; 0x3c
  RCC_OscInitStruct.PLL.PLLN = 336;
 8001578:	f44f 73a8 	mov.w	r3, #336	; 0x150
 800157c:	643b      	str	r3, [r7, #64]	; 0x40
  RCC_OscInitStruct.PLL.PLLP = RCC_PLLP_DIV4;
 800157e:	2304      	movs	r3, #4
 8001580:	647b      	str	r3, [r7, #68]	; 0x44
  RCC_OscInitStruct.PLL.PLLQ = 2;
 8001582:	2302      	movs	r3, #2
 8001584:	64bb      	str	r3, [r7, #72]	; 0x48
  RCC_OscInitStruct.PLL.PLLR = 2;
 8001586:	2302      	movs	r3, #2
 8001588:	64fb      	str	r3, [r7, #76]	; 0x4c
  if (HAL_RCC_OscConfig(&RCC_OscInitStruct) != HAL_OK)
 800158a:	f107 031c 	add.w	r3, r7, #28
 800158e:	4618      	mov	r0, r3
 8001590:	f001 fe04 	bl	800319c <HAL_RCC_OscConfig>
 8001594:	4603      	mov	r3, r0
 8001596:	2b00      	cmp	r3, #0
 8001598:	d001      	beq.n	800159e <SystemClock_Config+0x9e>
  {
    Error_Handler();
 800159a:	f000 fc31 	bl	8001e00 <Error_Handler>
  }
  /** Initializes the CPU, AHB and APB buses clocks
  */
  RCC_ClkInitStruct.ClockType = RCC_CLOCKTYPE_HCLK|RCC_CLOCKTYPE_SYSCLK
 800159e:	230f      	movs	r3, #15
 80015a0:	60bb      	str	r3, [r7, #8]
                              |RCC_CLOCKTYPE_PCLK1|RCC_CLOCKTYPE_PCLK2;
  RCC_ClkInitStruct.SYSCLKSource = RCC_SYSCLKSOURCE_PLLCLK;
 80015a2:	2302      	movs	r3, #2
 80015a4:	60fb      	str	r3, [r7, #12]
  RCC_ClkInitStruct.AHBCLKDivider = RCC_SYSCLK_DIV1;
 80015a6:	2300      	movs	r3, #0
 80015a8:	613b      	str	r3, [r7, #16]
  RCC_ClkInitStruct.APB1CLKDivider = RCC_HCLK_DIV2;
 80015aa:	f44f 5380 	mov.w	r3, #4096	; 0x1000
 80015ae:	617b      	str	r3, [r7, #20]
  RCC_ClkInitStruct.APB2CLKDivider = RCC_HCLK_DIV1;
 80015b0:	2300      	movs	r3, #0
 80015b2:	61bb      	str	r3, [r7, #24]

  if (HAL_RCC_ClockConfig(&RCC_ClkInitStruct, FLASH_LATENCY_2) != HAL_OK)
 80015b4:	f107 0308 	add.w	r3, r7, #8
 80015b8:	2102      	movs	r1, #2
 80015ba:	4618      	mov	r0, r3
 80015bc:	f001 fb22 	bl	8002c04 <HAL_RCC_ClockConfig>
 80015c0:	4603      	mov	r3, r0
 80015c2:	2b00      	cmp	r3, #0
 80015c4:	d001      	beq.n	80015ca <SystemClock_Config+0xca>
  {
    Error_Handler();
 80015c6:	f000 fc1b 	bl	8001e00 <Error_Handler>
  }
}
 80015ca:	bf00      	nop
 80015cc:	3750      	adds	r7, #80	; 0x50
 80015ce:	46bd      	mov	sp, r7
 80015d0:	bd80      	pop	{r7, pc}
 80015d2:	bf00      	nop
 80015d4:	40023800 	.word	0x40023800
 80015d8:	40007000 	.word	0x40007000

080015dc <MX_TIM1_Init>:
  * @brief TIM1 Initialization Function
  * @param None
  * @retval None
  */
static void MX_TIM1_Init(void)
{
 80015dc:	b580      	push	{r7, lr}
 80015de:	b096      	sub	sp, #88	; 0x58
 80015e0:	af00      	add	r7, sp, #0

  /* USER CODE BEGIN TIM1_Init 0 */

  /* USER CODE END TIM1_Init 0 */

  TIM_ClockConfigTypeDef sClockSourceConfig = {0};
 80015e2:	f107 0348 	add.w	r3, r7, #72	; 0x48
 80015e6:	2200      	movs	r2, #0
 80015e8:	601a      	str	r2, [r3, #0]
 80015ea:	605a      	str	r2, [r3, #4]
 80015ec:	609a      	str	r2, [r3, #8]
 80015ee:	60da      	str	r2, [r3, #12]
  TIM_MasterConfigTypeDef sMasterConfig = {0};
 80015f0:	f107 0340 	add.w	r3, r7, #64	; 0x40
 80015f4:	2200      	movs	r2, #0
 80015f6:	601a      	str	r2, [r3, #0]
 80015f8:	605a      	str	r2, [r3, #4]
  TIM_OC_InitTypeDef sConfigOC = {0};
 80015fa:	f107 0324 	add.w	r3, r7, #36	; 0x24
 80015fe:	2200      	movs	r2, #0
 8001600:	601a      	str	r2, [r3, #0]
 8001602:	605a      	str	r2, [r3, #4]
 8001604:	609a      	str	r2, [r3, #8]
 8001606:	60da      	str	r2, [r3, #12]
 8001608:	611a      	str	r2, [r3, #16]
 800160a:	615a      	str	r2, [r3, #20]
 800160c:	619a      	str	r2, [r3, #24]
  TIM_BreakDeadTimeConfigTypeDef sBreakDeadTimeConfig = {0};
 800160e:	1d3b      	adds	r3, r7, #4
 8001610:	2220      	movs	r2, #32
 8001612:	2100      	movs	r1, #0
 8001614:	4618      	mov	r0, r3
 8001616:	f004 fcbf 	bl	8005f98 <memset>

  /* USER CODE BEGIN TIM1_Init 1 */

  /* USER CODE END TIM1_Init 1 */
  htim1.Instance = TIM1;
 800161a:	4b3f      	ldr	r3, [pc, #252]	; (8001718 <MX_TIM1_Init+0x13c>)
 800161c:	4a3f      	ldr	r2, [pc, #252]	; (800171c <MX_TIM1_Init+0x140>)
 800161e:	601a      	str	r2, [r3, #0]
  htim1.Init.Prescaler = 3000-1;
 8001620:	4b3d      	ldr	r3, [pc, #244]	; (8001718 <MX_TIM1_Init+0x13c>)
 8001622:	f640 32b7 	movw	r2, #2999	; 0xbb7
 8001626:	605a      	str	r2, [r3, #4]
  htim1.Init.CounterMode = TIM_COUNTERMODE_UP;
 8001628:	4b3b      	ldr	r3, [pc, #236]	; (8001718 <MX_TIM1_Init+0x13c>)
 800162a:	2200      	movs	r2, #0
 800162c:	609a      	str	r2, [r3, #8]
  htim1.Init.Period = 65535;
 800162e:	4b3a      	ldr	r3, [pc, #232]	; (8001718 <MX_TIM1_Init+0x13c>)
 8001630:	f64f 72ff 	movw	r2, #65535	; 0xffff
 8001634:	60da      	str	r2, [r3, #12]
  htim1.Init.ClockDivision = TIM_CLOCKDIVISION_DIV1;
 8001636:	4b38      	ldr	r3, [pc, #224]	; (8001718 <MX_TIM1_Init+0x13c>)
 8001638:	2200      	movs	r2, #0
 800163a:	611a      	str	r2, [r3, #16]
  htim1.Init.RepetitionCounter = 0;
 800163c:	4b36      	ldr	r3, [pc, #216]	; (8001718 <MX_TIM1_Init+0x13c>)
 800163e:	2200      	movs	r2, #0
 8001640:	615a      	str	r2, [r3, #20]
  htim1.Init.AutoReloadPreload = TIM_AUTORELOAD_PRELOAD_DISABLE;
 8001642:	4b35      	ldr	r3, [pc, #212]	; (8001718 <MX_TIM1_Init+0x13c>)
 8001644:	2200      	movs	r2, #0
 8001646:	619a      	str	r2, [r3, #24]
  if (HAL_TIM_Base_Init(&htim1) != HAL_OK)
 8001648:	4833      	ldr	r0, [pc, #204]	; (8001718 <MX_TIM1_Init+0x13c>)
 800164a:	f002 f845 	bl	80036d8 <HAL_TIM_Base_Init>
 800164e:	4603      	mov	r3, r0
 8001650:	2b00      	cmp	r3, #0
 8001652:	d001      	beq.n	8001658 <MX_TIM1_Init+0x7c>
  {
    Error_Handler();
 8001654:	f000 fbd4 	bl	8001e00 <Error_Handler>
  }
  sClockSourceConfig.ClockSource = TIM_CLOCKSOURCE_INTERNAL;
 8001658:	f44f 5380 	mov.w	r3, #4096	; 0x1000
 800165c:	64bb      	str	r3, [r7, #72]	; 0x48
  if (HAL_TIM_ConfigClockSource(&htim1, &sClockSourceConfig) != HAL_OK)
 800165e:	f107 0348 	add.w	r3, r7, #72	; 0x48
 8001662:	4619      	mov	r1, r3
 8001664:	482c      	ldr	r0, [pc, #176]	; (8001718 <MX_TIM1_Init+0x13c>)
 8001666:	f002 fdf7 	bl	8004258 <HAL_TIM_ConfigClockSource>
 800166a:	4603      	mov	r3, r0
 800166c:	2b00      	cmp	r3, #0
 800166e:	d001      	beq.n	8001674 <MX_TIM1_Init+0x98>
  {
    Error_Handler();
 8001670:	f000 fbc6 	bl	8001e00 <Error_Handler>
  }
  if (HAL_TIM_PWM_Init(&htim1) != HAL_OK)
 8001674:	4828      	ldr	r0, [pc, #160]	; (8001718 <MX_TIM1_Init+0x13c>)
 8001676:	f002 f8ef 	bl	8003858 <HAL_TIM_PWM_Init>
 800167a:	4603      	mov	r3, r0
 800167c:	2b00      	cmp	r3, #0
 800167e:	d001      	beq.n	8001684 <MX_TIM1_Init+0xa8>
  {
    Error_Handler();
 8001680:	f000 fbbe 	bl	8001e00 <Error_Handler>
  }
  sMasterConfig.MasterOutputTrigger = TIM_TRGO_RESET;
 8001684:	2300      	movs	r3, #0
 8001686:	643b      	str	r3, [r7, #64]	; 0x40
  sMasterConfig.MasterSlaveMode = TIM_MASTERSLAVEMODE_DISABLE;
 8001688:	2300      	movs	r3, #0
 800168a:	647b      	str	r3, [r7, #68]	; 0x44
  if (HAL_TIMEx_MasterConfigSynchronization(&htim1, &sMasterConfig) != HAL_OK)
 800168c:	f107 0340 	add.w	r3, r7, #64	; 0x40
 8001690:	4619      	mov	r1, r3
 8001692:	4821      	ldr	r0, [pc, #132]	; (8001718 <MX_TIM1_Init+0x13c>)
 8001694:	f003 fb44 	bl	8004d20 <HAL_TIMEx_MasterConfigSynchronization>
 8001698:	4603      	mov	r3, r0
 800169a:	2b00      	cmp	r3, #0
 800169c:	d001      	beq.n	80016a2 <MX_TIM1_Init+0xc6>
  {
    Error_Handler();
 800169e:	f000 fbaf 	bl	8001e00 <Error_Handler>
  }
  sConfigOC.OCMode = TIM_OCMODE_PWM1;
 80016a2:	2360      	movs	r3, #96	; 0x60
 80016a4:	627b      	str	r3, [r7, #36]	; 0x24
  sConfigOC.Pulse = 100;
 80016a6:	2364      	movs	r3, #100	; 0x64
 80016a8:	62bb      	str	r3, [r7, #40]	; 0x28
  sConfigOC.OCPolarity = TIM_OCPOLARITY_HIGH;
 80016aa:	2300      	movs	r3, #0
 80016ac:	62fb      	str	r3, [r7, #44]	; 0x2c
  sConfigOC.OCNPolarity = TIM_OCNPOLARITY_HIGH;
 80016ae:	2300      	movs	r3, #0
 80016b0:	633b      	str	r3, [r7, #48]	; 0x30
  sConfigOC.OCFastMode = TIM_OCFAST_DISABLE;
 80016b2:	2300      	movs	r3, #0
 80016b4:	637b      	str	r3, [r7, #52]	; 0x34
  sConfigOC.OCIdleState = TIM_OCIDLESTATE_RESET;
 80016b6:	2300      	movs	r3, #0
 80016b8:	63bb      	str	r3, [r7, #56]	; 0x38
  sConfigOC.OCNIdleState = TIM_OCNIDLESTATE_RESET;
 80016ba:	2300      	movs	r3, #0
 80016bc:	63fb      	str	r3, [r7, #60]	; 0x3c
  if (HAL_TIM_PWM_ConfigChannel(&htim1, &sConfigOC, TIM_CHANNEL_1) != HAL_OK)
 80016be:	f107 0324 	add.w	r3, r7, #36	; 0x24
 80016c2:	2200      	movs	r2, #0
 80016c4:	4619      	mov	r1, r3
 80016c6:	4814      	ldr	r0, [pc, #80]	; (8001718 <MX_TIM1_Init+0x13c>)
 80016c8:	f002 fd04 	bl	80040d4 <HAL_TIM_PWM_ConfigChannel>
 80016cc:	4603      	mov	r3, r0
 80016ce:	2b00      	cmp	r3, #0
 80016d0:	d001      	beq.n	80016d6 <MX_TIM1_Init+0xfa>
  {
    Error_Handler();
 80016d2:	f000 fb95 	bl	8001e00 <Error_Handler>
  }
  sBreakDeadTimeConfig.OffStateRunMode = TIM_OSSR_DISABLE;
 80016d6:	2300      	movs	r3, #0
 80016d8:	607b      	str	r3, [r7, #4]
  sBreakDeadTimeConfig.OffStateIDLEMode = TIM_OSSI_DISABLE;
 80016da:	2300      	movs	r3, #0
 80016dc:	60bb      	str	r3, [r7, #8]
  sBreakDeadTimeConfig.LockLevel = TIM_LOCKLEVEL_OFF;
 80016de:	2300      	movs	r3, #0
 80016e0:	60fb      	str	r3, [r7, #12]
  sBreakDeadTimeConfig.DeadTime = 0;
 80016e2:	2300      	movs	r3, #0
 80016e4:	613b      	str	r3, [r7, #16]
  sBreakDeadTimeConfig.BreakState = TIM_BREAK_DISABLE;
 80016e6:	2300      	movs	r3, #0
 80016e8:	617b      	str	r3, [r7, #20]
  sBreakDeadTimeConfig.BreakPolarity = TIM_BREAKPOLARITY_HIGH;
 80016ea:	f44f 5300 	mov.w	r3, #8192	; 0x2000
 80016ee:	61bb      	str	r3, [r7, #24]
  sBreakDeadTimeConfig.AutomaticOutput = TIM_AUTOMATICOUTPUT_DISABLE;
 80016f0:	2300      	movs	r3, #0
 80016f2:	623b      	str	r3, [r7, #32]
  if (HAL_TIMEx_ConfigBreakDeadTime(&htim1, &sBreakDeadTimeConfig) != HAL_OK)
 80016f4:	1d3b      	adds	r3, r7, #4
 80016f6:	4619      	mov	r1, r3
 80016f8:	4807      	ldr	r0, [pc, #28]	; (8001718 <MX_TIM1_Init+0x13c>)
 80016fa:	f003 fb8d 	bl	8004e18 <HAL_TIMEx_ConfigBreakDeadTime>
 80016fe:	4603      	mov	r3, r0
 8001700:	2b00      	cmp	r3, #0
 8001702:	d001      	beq.n	8001708 <MX_TIM1_Init+0x12c>
  {
    Error_Handler();
 8001704:	f000 fb7c 	bl	8001e00 <Error_Handler>
  }
  /* USER CODE BEGIN TIM1_Init 2 */

  /* USER CODE END TIM1_Init 2 */
  HAL_TIM_MspPostInit(&htim1);
 8001708:	4803      	ldr	r0, [pc, #12]	; (8001718 <MX_TIM1_Init+0x13c>)
 800170a:	f000 fca7 	bl	800205c <HAL_TIM_MspPostInit>

}
 800170e:	bf00      	nop
 8001710:	3758      	adds	r7, #88	; 0x58
 8001712:	46bd      	mov	sp, r7
 8001714:	bd80      	pop	{r7, pc}
 8001716:	bf00      	nop
 8001718:	2000041c 	.word	0x2000041c
 800171c:	40010000 	.word	0x40010000

08001720 <MX_TIM3_Init>:
  * @brief TIM3 Initialization Function
  * @param None
  * @retval None
  */
static void MX_TIM3_Init(void)
{
 8001720:	b580      	push	{r7, lr}
 8001722:	b08e      	sub	sp, #56	; 0x38
 8001724:	af00      	add	r7, sp, #0

  /* USER CODE BEGIN TIM3_Init 0 */

  /* USER CODE END TIM3_Init 0 */

  TIM_ClockConfigTypeDef sClockSourceConfig = {0};
 8001726:	f107 0328 	add.w	r3, r7, #40	; 0x28
 800172a:	2200      	movs	r2, #0
 800172c:	601a      	str	r2, [r3, #0]
 800172e:	605a      	str	r2, [r3, #4]
 8001730:	609a      	str	r2, [r3, #8]
 8001732:	60da      	str	r2, [r3, #12]
  TIM_MasterConfigTypeDef sMasterConfig = {0};
 8001734:	f107 0320 	add.w	r3, r7, #32
 8001738:	2200      	movs	r2, #0
 800173a:	601a      	str	r2, [r3, #0]
 800173c:	605a      	str	r2, [r3, #4]
  TIM_OC_InitTypeDef sConfigOC = {0};
 800173e:	1d3b      	adds	r3, r7, #4
 8001740:	2200      	movs	r2, #0
 8001742:	601a      	str	r2, [r3, #0]
 8001744:	605a      	str	r2, [r3, #4]
 8001746:	609a      	str	r2, [r3, #8]
 8001748:	60da      	str	r2, [r3, #12]
 800174a:	611a      	str	r2, [r3, #16]
 800174c:	615a      	str	r2, [r3, #20]
 800174e:	619a      	str	r2, [r3, #24]

  /* USER CODE BEGIN TIM3_Init 1 */

  /* USER CODE END TIM3_Init 1 */
  htim3.Instance = TIM3;
 8001750:	4b2d      	ldr	r3, [pc, #180]	; (8001808 <MX_TIM3_Init+0xe8>)
 8001752:	4a2e      	ldr	r2, [pc, #184]	; (800180c <MX_TIM3_Init+0xec>)
 8001754:	601a      	str	r2, [r3, #0]
  htim3.Init.Prescaler = 3000-1;
 8001756:	4b2c      	ldr	r3, [pc, #176]	; (8001808 <MX_TIM3_Init+0xe8>)
 8001758:	f640 32b7 	movw	r2, #2999	; 0xbb7
 800175c:	605a      	str	r2, [r3, #4]
  htim3.Init.CounterMode = TIM_COUNTERMODE_UP;
 800175e:	4b2a      	ldr	r3, [pc, #168]	; (8001808 <MX_TIM3_Init+0xe8>)
 8001760:	2200      	movs	r2, #0
 8001762:	609a      	str	r2, [r3, #8]
  htim3.Init.Period = 65535;
 8001764:	4b28      	ldr	r3, [pc, #160]	; (8001808 <MX_TIM3_Init+0xe8>)
 8001766:	f64f 72ff 	movw	r2, #65535	; 0xffff
 800176a:	60da      	str	r2, [r3, #12]
  htim3.Init.ClockDivision = TIM_CLOCKDIVISION_DIV1;
 800176c:	4b26      	ldr	r3, [pc, #152]	; (8001808 <MX_TIM3_Init+0xe8>)
 800176e:	2200      	movs	r2, #0
 8001770:	611a      	str	r2, [r3, #16]
  htim3.Init.AutoReloadPreload = TIM_AUTORELOAD_PRELOAD_DISABLE;
 8001772:	4b25      	ldr	r3, [pc, #148]	; (8001808 <MX_TIM3_Init+0xe8>)
 8001774:	2200      	movs	r2, #0
 8001776:	619a      	str	r2, [r3, #24]
  if (HAL_TIM_Base_Init(&htim3) != HAL_OK)
 8001778:	4823      	ldr	r0, [pc, #140]	; (8001808 <MX_TIM3_Init+0xe8>)
 800177a:	f001 ffad 	bl	80036d8 <HAL_TIM_Base_Init>
 800177e:	4603      	mov	r3, r0
 8001780:	2b00      	cmp	r3, #0
 8001782:	d001      	beq.n	8001788 <MX_TIM3_Init+0x68>
  {
    Error_Handler();
 8001784:	f000 fb3c 	bl	8001e00 <Error_Handler>
  }
  sClockSourceConfig.ClockSource = TIM_CLOCKSOURCE_INTERNAL;
 8001788:	f44f 5380 	mov.w	r3, #4096	; 0x1000
 800178c:	62bb      	str	r3, [r7, #40]	; 0x28
  if (HAL_TIM_ConfigClockSource(&htim3, &sClockSourceConfig) != HAL_OK)
 800178e:	f107 0328 	add.w	r3, r7, #40	; 0x28
 8001792:	4619      	mov	r1, r3
 8001794:	481c      	ldr	r0, [pc, #112]	; (8001808 <MX_TIM3_Init+0xe8>)
 8001796:	f002 fd5f 	bl	8004258 <HAL_TIM_ConfigClockSource>
 800179a:	4603      	mov	r3, r0
 800179c:	2b00      	cmp	r3, #0
 800179e:	d001      	beq.n	80017a4 <MX_TIM3_Init+0x84>
  {
    Error_Handler();
 80017a0:	f000 fb2e 	bl	8001e00 <Error_Handler>
  }
  if (HAL_TIM_PWM_Init(&htim3) != HAL_OK)
 80017a4:	4818      	ldr	r0, [pc, #96]	; (8001808 <MX_TIM3_Init+0xe8>)
 80017a6:	f002 f857 	bl	8003858 <HAL_TIM_PWM_Init>
 80017aa:	4603      	mov	r3, r0
 80017ac:	2b00      	cmp	r3, #0
 80017ae:	d001      	beq.n	80017b4 <MX_TIM3_Init+0x94>
  {
    Error_Handler();
 80017b0:	f000 fb26 	bl	8001e00 <Error_Handler>
  }
  sMasterConfig.MasterOutputTrigger = TIM_TRGO_RESET;
 80017b4:	2300      	movs	r3, #0
 80017b6:	623b      	str	r3, [r7, #32]
  sMasterConfig.MasterSlaveMode = TIM_MASTERSLAVEMODE_DISABLE;
 80017b8:	2300      	movs	r3, #0
 80017ba:	627b      	str	r3, [r7, #36]	; 0x24
  if (HAL_TIMEx_MasterConfigSynchronization(&htim3, &sMasterConfig) != HAL_OK)
 80017bc:	f107 0320 	add.w	r3, r7, #32
 80017c0:	4619      	mov	r1, r3
 80017c2:	4811      	ldr	r0, [pc, #68]	; (8001808 <MX_TIM3_Init+0xe8>)
 80017c4:	f003 faac 	bl	8004d20 <HAL_TIMEx_MasterConfigSynchronization>
 80017c8:	4603      	mov	r3, r0
 80017ca:	2b00      	cmp	r3, #0
 80017cc:	d001      	beq.n	80017d2 <MX_TIM3_Init+0xb2>
  {
    Error_Handler();
 80017ce:	f000 fb17 	bl	8001e00 <Error_Handler>
  }
  sConfigOC.OCMode = TIM_OCMODE_PWM1;
 80017d2:	2360      	movs	r3, #96	; 0x60
 80017d4:	607b      	str	r3, [r7, #4]
  sConfigOC.Pulse = 100;
 80017d6:	2364      	movs	r3, #100	; 0x64
 80017d8:	60bb      	str	r3, [r7, #8]
  sConfigOC.OCPolarity = TIM_OCPOLARITY_HIGH;
 80017da:	2300      	movs	r3, #0
 80017dc:	60fb      	str	r3, [r7, #12]
  sConfigOC.OCFastMode = TIM_OCFAST_DISABLE;
 80017de:	2300      	movs	r3, #0
 80017e0:	617b      	str	r3, [r7, #20]
  if (HAL_TIM_PWM_ConfigChannel(&htim3, &sConfigOC, TIM_CHANNEL_1) != HAL_OK)
 80017e2:	1d3b      	adds	r3, r7, #4
 80017e4:	2200      	movs	r2, #0
 80017e6:	4619      	mov	r1, r3
 80017e8:	4807      	ldr	r0, [pc, #28]	; (8001808 <MX_TIM3_Init+0xe8>)
 80017ea:	f002 fc73 	bl	80040d4 <HAL_TIM_PWM_ConfigChannel>
 80017ee:	4603      	mov	r3, r0
 80017f0:	2b00      	cmp	r3, #0
 80017f2:	d001      	beq.n	80017f8 <MX_TIM3_Init+0xd8>
  {
    Error_Handler();
 80017f4:	f000 fb04 	bl	8001e00 <Error_Handler>
  }
  /* USER CODE BEGIN TIM3_Init 2 */

  /* USER CODE END TIM3_Init 2 */
  HAL_TIM_MspPostInit(&htim3);
 80017f8:	4803      	ldr	r0, [pc, #12]	; (8001808 <MX_TIM3_Init+0xe8>)
 80017fa:	f000 fc2f 	bl	800205c <HAL_TIM_MspPostInit>

}
 80017fe:	bf00      	nop
 8001800:	3738      	adds	r7, #56	; 0x38
 8001802:	46bd      	mov	sp, r7
 8001804:	bd80      	pop	{r7, pc}
 8001806:	bf00      	nop
 8001808:	200003d0 	.word	0x200003d0
 800180c:	40000400 	.word	0x40000400

08001810 <MX_TIM4_Init>:
  * @brief TIM4 Initialization Function
  * @param None
  * @retval None
  */
static void MX_TIM4_Init(void)
{
 8001810:	b580      	push	{r7, lr}
 8001812:	b08e      	sub	sp, #56	; 0x38
 8001814:	af00      	add	r7, sp, #0

  /* USER CODE BEGIN TIM4_Init 0 */

  /* USER CODE END TIM4_Init 0 */

  TIM_ClockConfigTypeDef sClockSourceConfig = {0};
 8001816:	f107 0328 	add.w	r3, r7, #40	; 0x28
 800181a:	2200      	movs	r2, #0
 800181c:	601a      	str	r2, [r3, #0]
 800181e:	605a      	str	r2, [r3, #4]
 8001820:	609a      	str	r2, [r3, #8]
 8001822:	60da      	str	r2, [r3, #12]
  TIM_MasterConfigTypeDef sMasterConfig = {0};
 8001824:	f107 0320 	add.w	r3, r7, #32
 8001828:	2200      	movs	r2, #0
 800182a:	601a      	str	r2, [r3, #0]
 800182c:	605a      	str	r2, [r3, #4]
  TIM_OC_InitTypeDef sConfigOC = {0};
 800182e:	1d3b      	adds	r3, r7, #4
 8001830:	2200      	movs	r2, #0
 8001832:	601a      	str	r2, [r3, #0]
 8001834:	605a      	str	r2, [r3, #4]
 8001836:	609a      	str	r2, [r3, #8]
 8001838:	60da      	str	r2, [r3, #12]
 800183a:	611a      	str	r2, [r3, #16]
 800183c:	615a      	str	r2, [r3, #20]
 800183e:	619a      	str	r2, [r3, #24]

  /* USER CODE BEGIN TIM4_Init 1 */

  /* USER CODE END TIM4_Init 1 */
  htim4.Instance = TIM4;
 8001840:	4b2d      	ldr	r3, [pc, #180]	; (80018f8 <MX_TIM4_Init+0xe8>)
 8001842:	4a2e      	ldr	r2, [pc, #184]	; (80018fc <MX_TIM4_Init+0xec>)
 8001844:	601a      	str	r2, [r3, #0]
  htim4.Init.Prescaler = 3000-1;
 8001846:	4b2c      	ldr	r3, [pc, #176]	; (80018f8 <MX_TIM4_Init+0xe8>)
 8001848:	f640 32b7 	movw	r2, #2999	; 0xbb7
 800184c:	605a      	str	r2, [r3, #4]
  htim4.Init.CounterMode = TIM_COUNTERMODE_UP;
 800184e:	4b2a      	ldr	r3, [pc, #168]	; (80018f8 <MX_TIM4_Init+0xe8>)
 8001850:	2200      	movs	r2, #0
 8001852:	609a      	str	r2, [r3, #8]
  htim4.Init.Period = 65535;
 8001854:	4b28      	ldr	r3, [pc, #160]	; (80018f8 <MX_TIM4_Init+0xe8>)
 8001856:	f64f 72ff 	movw	r2, #65535	; 0xffff
 800185a:	60da      	str	r2, [r3, #12]
  htim4.Init.ClockDivision = TIM_CLOCKDIVISION_DIV1;
 800185c:	4b26      	ldr	r3, [pc, #152]	; (80018f8 <MX_TIM4_Init+0xe8>)
 800185e:	2200      	movs	r2, #0
 8001860:	611a      	str	r2, [r3, #16]
  htim4.Init.AutoReloadPreload = TIM_AUTORELOAD_PRELOAD_DISABLE;
 8001862:	4b25      	ldr	r3, [pc, #148]	; (80018f8 <MX_TIM4_Init+0xe8>)
 8001864:	2200      	movs	r2, #0
 8001866:	619a      	str	r2, [r3, #24]
  if (HAL_TIM_Base_Init(&htim4) != HAL_OK)
 8001868:	4823      	ldr	r0, [pc, #140]	; (80018f8 <MX_TIM4_Init+0xe8>)
 800186a:	f001 ff35 	bl	80036d8 <HAL_TIM_Base_Init>
 800186e:	4603      	mov	r3, r0
 8001870:	2b00      	cmp	r3, #0
 8001872:	d001      	beq.n	8001878 <MX_TIM4_Init+0x68>
  {
    Error_Handler();
 8001874:	f000 fac4 	bl	8001e00 <Error_Handler>
  }
  sClockSourceConfig.ClockSource = TIM_CLOCKSOURCE_INTERNAL;
 8001878:	f44f 5380 	mov.w	r3, #4096	; 0x1000
 800187c:	62bb      	str	r3, [r7, #40]	; 0x28
  if (HAL_TIM_ConfigClockSource(&htim4, &sClockSourceConfig) != HAL_OK)
 800187e:	f107 0328 	add.w	r3, r7, #40	; 0x28
 8001882:	4619      	mov	r1, r3
 8001884:	481c      	ldr	r0, [pc, #112]	; (80018f8 <MX_TIM4_Init+0xe8>)
 8001886:	f002 fce7 	bl	8004258 <HAL_TIM_ConfigClockSource>
 800188a:	4603      	mov	r3, r0
 800188c:	2b00      	cmp	r3, #0
 800188e:	d001      	beq.n	8001894 <MX_TIM4_Init+0x84>
  {
    Error_Handler();
 8001890:	f000 fab6 	bl	8001e00 <Error_Handler>
  }
  if (HAL_TIM_PWM_Init(&htim4) != HAL_OK)
 8001894:	4818      	ldr	r0, [pc, #96]	; (80018f8 <MX_TIM4_Init+0xe8>)
 8001896:	f001 ffdf 	bl	8003858 <HAL_TIM_PWM_Init>
 800189a:	4603      	mov	r3, r0
 800189c:	2b00      	cmp	r3, #0
 800189e:	d001      	beq.n	80018a4 <MX_TIM4_Init+0x94>
  {
    Error_Handler();
 80018a0:	f000 faae 	bl	8001e00 <Error_Handler>
  }
  sMasterConfig.MasterOutputTrigger = TIM_TRGO_RESET;
 80018a4:	2300      	movs	r3, #0
 80018a6:	623b      	str	r3, [r7, #32]
  sMasterConfig.MasterSlaveMode = TIM_MASTERSLAVEMODE_DISABLE;
 80018a8:	2300      	movs	r3, #0
 80018aa:	627b      	str	r3, [r7, #36]	; 0x24
  if (HAL_TIMEx_MasterConfigSynchronization(&htim4, &sMasterConfig) != HAL_OK)
 80018ac:	f107 0320 	add.w	r3, r7, #32
 80018b0:	4619      	mov	r1, r3
 80018b2:	4811      	ldr	r0, [pc, #68]	; (80018f8 <MX_TIM4_Init+0xe8>)
 80018b4:	f003 fa34 	bl	8004d20 <HAL_TIMEx_MasterConfigSynchronization>
 80018b8:	4603      	mov	r3, r0
 80018ba:	2b00      	cmp	r3, #0
 80018bc:	d001      	beq.n	80018c2 <MX_TIM4_Init+0xb2>
  {
    Error_Handler();
 80018be:	f000 fa9f 	bl	8001e00 <Error_Handler>
  }
  sConfigOC.OCMode = TIM_OCMODE_PWM1;
 80018c2:	2360      	movs	r3, #96	; 0x60
 80018c4:	607b      	str	r3, [r7, #4]
  sConfigOC.Pulse = 100;
 80018c6:	2364      	movs	r3, #100	; 0x64
 80018c8:	60bb      	str	r3, [r7, #8]
  sConfigOC.OCPolarity = TIM_OCPOLARITY_HIGH;
 80018ca:	2300      	movs	r3, #0
 80018cc:	60fb      	str	r3, [r7, #12]
  sConfigOC.OCFastMode = TIM_OCFAST_DISABLE;
 80018ce:	2300      	movs	r3, #0
 80018d0:	617b      	str	r3, [r7, #20]
  if (HAL_TIM_PWM_ConfigChannel(&htim4, &sConfigOC, TIM_CHANNEL_1) != HAL_OK)
 80018d2:	1d3b      	adds	r3, r7, #4
 80018d4:	2200      	movs	r2, #0
 80018d6:	4619      	mov	r1, r3
 80018d8:	4807      	ldr	r0, [pc, #28]	; (80018f8 <MX_TIM4_Init+0xe8>)
 80018da:	f002 fbfb 	bl	80040d4 <HAL_TIM_PWM_ConfigChannel>
 80018de:	4603      	mov	r3, r0
 80018e0:	2b00      	cmp	r3, #0
 80018e2:	d001      	beq.n	80018e8 <MX_TIM4_Init+0xd8>
  {
    Error_Handler();
 80018e4:	f000 fa8c 	bl	8001e00 <Error_Handler>
  }
  /* USER CODE BEGIN TIM4_Init 2 */

  /* USER CODE END TIM4_Init 2 */
  HAL_TIM_MspPostInit(&htim4);
 80018e8:	4803      	ldr	r0, [pc, #12]	; (80018f8 <MX_TIM4_Init+0xe8>)
 80018ea:	f000 fbb7 	bl	800205c <HAL_TIM_MspPostInit>

}
 80018ee:	bf00      	nop
 80018f0:	3738      	adds	r7, #56	; 0x38
 80018f2:	46bd      	mov	sp, r7
 80018f4:	bd80      	pop	{r7, pc}
 80018f6:	bf00      	nop
 80018f8:	2000030c 	.word	0x2000030c
 80018fc:	40000800 	.word	0x40000800

08001900 <MX_TIM5_Init>:
  * @brief TIM5 Initialization Function
  * @param None
  * @retval None
  */
static void MX_TIM5_Init(void)
{
 8001900:	b580      	push	{r7, lr}
 8001902:	b08a      	sub	sp, #40	; 0x28
 8001904:	af00      	add	r7, sp, #0

  /* USER CODE BEGIN TIM5_Init 0 */

  /* USER CODE END TIM5_Init 0 */

  TIM_MasterConfigTypeDef sMasterConfig = {0};
 8001906:	f107 0320 	add.w	r3, r7, #32
 800190a:	2200      	movs	r2, #0
 800190c:	601a      	str	r2, [r3, #0]
 800190e:	605a      	str	r2, [r3, #4]
  TIM_OC_InitTypeDef sConfigOC = {0};
 8001910:	1d3b      	adds	r3, r7, #4
 8001912:	2200      	movs	r2, #0
 8001914:	601a      	str	r2, [r3, #0]
 8001916:	605a      	str	r2, [r3, #4]
 8001918:	609a      	str	r2, [r3, #8]
 800191a:	60da      	str	r2, [r3, #12]
 800191c:	611a      	str	r2, [r3, #16]
 800191e:	615a      	str	r2, [r3, #20]
 8001920:	619a      	str	r2, [r3, #24]

  /* USER CODE BEGIN TIM5_Init 1 */

  /* USER CODE END TIM5_Init 1 */
  htim5.Instance = TIM5;
 8001922:	4b22      	ldr	r3, [pc, #136]	; (80019ac <MX_TIM5_Init+0xac>)
 8001924:	4a22      	ldr	r2, [pc, #136]	; (80019b0 <MX_TIM5_Init+0xb0>)
 8001926:	601a      	str	r2, [r3, #0]
  htim5.Init.Prescaler = 3000-1;
 8001928:	4b20      	ldr	r3, [pc, #128]	; (80019ac <MX_TIM5_Init+0xac>)
 800192a:	f640 32b7 	movw	r2, #2999	; 0xbb7
 800192e:	605a      	str	r2, [r3, #4]
  htim5.Init.CounterMode = TIM_COUNTERMODE_UP;
 8001930:	4b1e      	ldr	r3, [pc, #120]	; (80019ac <MX_TIM5_Init+0xac>)
 8001932:	2200      	movs	r2, #0
 8001934:	609a      	str	r2, [r3, #8]
  htim5.Init.Period = 4294967295;
 8001936:	4b1d      	ldr	r3, [pc, #116]	; (80019ac <MX_TIM5_Init+0xac>)
 8001938:	f04f 32ff 	mov.w	r2, #4294967295	; 0xffffffff
 800193c:	60da      	str	r2, [r3, #12]
  htim5.Init.ClockDivision = TIM_CLOCKDIVISION_DIV1;
 800193e:	4b1b      	ldr	r3, [pc, #108]	; (80019ac <MX_TIM5_Init+0xac>)
 8001940:	2200      	movs	r2, #0
 8001942:	611a      	str	r2, [r3, #16]
  htim5.Init.AutoReloadPreload = TIM_AUTORELOAD_PRELOAD_DISABLE;
 8001944:	4b19      	ldr	r3, [pc, #100]	; (80019ac <MX_TIM5_Init+0xac>)
 8001946:	2200      	movs	r2, #0
 8001948:	619a      	str	r2, [r3, #24]
  if (HAL_TIM_PWM_Init(&htim5) != HAL_OK)
 800194a:	4818      	ldr	r0, [pc, #96]	; (80019ac <MX_TIM5_Init+0xac>)
 800194c:	f001 ff84 	bl	8003858 <HAL_TIM_PWM_Init>
 8001950:	4603      	mov	r3, r0
 8001952:	2b00      	cmp	r3, #0
 8001954:	d001      	beq.n	800195a <MX_TIM5_Init+0x5a>
  {
    Error_Handler();
 8001956:	f000 fa53 	bl	8001e00 <Error_Handler>
  }
  sMasterConfig.MasterOutputTrigger = TIM_TRGO_RESET;
 800195a:	2300      	movs	r3, #0
 800195c:	623b      	str	r3, [r7, #32]
  sMasterConfig.MasterSlaveMode = TIM_MASTERSLAVEMODE_DISABLE;
 800195e:	2300      	movs	r3, #0
 8001960:	627b      	str	r3, [r7, #36]	; 0x24
  if (HAL_TIMEx_MasterConfigSynchronization(&htim5, &sMasterConfig) != HAL_OK)
 8001962:	f107 0320 	add.w	r3, r7, #32
 8001966:	4619      	mov	r1, r3
 8001968:	4810      	ldr	r0, [pc, #64]	; (80019ac <MX_TIM5_Init+0xac>)
 800196a:	f003 f9d9 	bl	8004d20 <HAL_TIMEx_MasterConfigSynchronization>
 800196e:	4603      	mov	r3, r0
 8001970:	2b00      	cmp	r3, #0
 8001972:	d001      	beq.n	8001978 <MX_TIM5_Init+0x78>
  {
    Error_Handler();
 8001974:	f000 fa44 	bl	8001e00 <Error_Handler>
  }
  sConfigOC.OCMode = TIM_OCMODE_PWM1;
 8001978:	2360      	movs	r3, #96	; 0x60
 800197a:	607b      	str	r3, [r7, #4]
  sConfigOC.Pulse = 100;
 800197c:	2364      	movs	r3, #100	; 0x64
 800197e:	60bb      	str	r3, [r7, #8]
  sConfigOC.OCPolarity = TIM_OCPOLARITY_HIGH;
 8001980:	2300      	movs	r3, #0
 8001982:	60fb      	str	r3, [r7, #12]
  sConfigOC.OCFastMode = TIM_OCFAST_DISABLE;
 8001984:	2300      	movs	r3, #0
 8001986:	617b      	str	r3, [r7, #20]
  if (HAL_TIM_PWM_ConfigChannel(&htim5, &sConfigOC, TIM_CHANNEL_1) != HAL_OK)
 8001988:	1d3b      	adds	r3, r7, #4
 800198a:	2200      	movs	r2, #0
 800198c:	4619      	mov	r1, r3
 800198e:	4807      	ldr	r0, [pc, #28]	; (80019ac <MX_TIM5_Init+0xac>)
 8001990:	f002 fba0 	bl	80040d4 <HAL_TIM_PWM_ConfigChannel>
 8001994:	4603      	mov	r3, r0
 8001996:	2b00      	cmp	r3, #0
 8001998:	d001      	beq.n	800199e <MX_TIM5_Init+0x9e>
  {
    Error_Handler();
 800199a:	f000 fa31 	bl	8001e00 <Error_Handler>
  }
  /* USER CODE BEGIN TIM5_Init 2 */

  /* USER CODE END TIM5_Init 2 */
  HAL_TIM_MspPostInit(&htim5);
 800199e:	4803      	ldr	r0, [pc, #12]	; (80019ac <MX_TIM5_Init+0xac>)
 80019a0:	f000 fb5c 	bl	800205c <HAL_TIM_MspPostInit>

}
 80019a4:	bf00      	nop
 80019a6:	3728      	adds	r7, #40	; 0x28
 80019a8:	46bd      	mov	sp, r7
 80019aa:	bd80      	pop	{r7, pc}
 80019ac:	20000388 	.word	0x20000388
 80019b0:	40000c00 	.word	0x40000c00

080019b4 <MX_TIM8_Init>:
  * @brief TIM8 Initialization Function
  * @param None
  * @retval None
  */
static void MX_TIM8_Init(void)
{
 80019b4:	b580      	push	{r7, lr}
 80019b6:	b096      	sub	sp, #88	; 0x58
 80019b8:	af00      	add	r7, sp, #0

  /* USER CODE BEGIN TIM8_Init 0 */

  /* USER CODE END TIM8_Init 0 */

  TIM_ClockConfigTypeDef sClockSourceConfig = {0};
 80019ba:	f107 0348 	add.w	r3, r7, #72	; 0x48
 80019be:	2200      	movs	r2, #0
 80019c0:	601a      	str	r2, [r3, #0]
 80019c2:	605a      	str	r2, [r3, #4]
 80019c4:	609a      	str	r2, [r3, #8]
 80019c6:	60da      	str	r2, [r3, #12]
  TIM_MasterConfigTypeDef sMasterConfig = {0};
 80019c8:	f107 0340 	add.w	r3, r7, #64	; 0x40
 80019cc:	2200      	movs	r2, #0
 80019ce:	601a      	str	r2, [r3, #0]
 80019d0:	605a      	str	r2, [r3, #4]
  TIM_OC_InitTypeDef sConfigOC = {0};
 80019d2:	f107 0324 	add.w	r3, r7, #36	; 0x24
 80019d6:	2200      	movs	r2, #0
 80019d8:	601a      	str	r2, [r3, #0]
 80019da:	605a      	str	r2, [r3, #4]
 80019dc:	609a      	str	r2, [r3, #8]
 80019de:	60da      	str	r2, [r3, #12]
 80019e0:	611a      	str	r2, [r3, #16]
 80019e2:	615a      	str	r2, [r3, #20]
 80019e4:	619a      	str	r2, [r3, #24]
  TIM_BreakDeadTimeConfigTypeDef sBreakDeadTimeConfig = {0};
 80019e6:	1d3b      	adds	r3, r7, #4
 80019e8:	2220      	movs	r2, #32
 80019ea:	2100      	movs	r1, #0
 80019ec:	4618      	mov	r0, r3
 80019ee:	f004 fad3 	bl	8005f98 <memset>

  /* USER CODE BEGIN TIM8_Init 1 */

  /* USER CODE END TIM8_Init 1 */
  htim8.Instance = TIM8;
 80019f2:	4b3f      	ldr	r3, [pc, #252]	; (8001af0 <MX_TIM8_Init+0x13c>)
 80019f4:	4a3f      	ldr	r2, [pc, #252]	; (8001af4 <MX_TIM8_Init+0x140>)
 80019f6:	601a      	str	r2, [r3, #0]
  htim8.Init.Prescaler = 3000-1;
 80019f8:	4b3d      	ldr	r3, [pc, #244]	; (8001af0 <MX_TIM8_Init+0x13c>)
 80019fa:	f640 32b7 	movw	r2, #2999	; 0xbb7
 80019fe:	605a      	str	r2, [r3, #4]
  htim8.Init.CounterMode = TIM_COUNTERMODE_UP;
 8001a00:	4b3b      	ldr	r3, [pc, #236]	; (8001af0 <MX_TIM8_Init+0x13c>)
 8001a02:	2200      	movs	r2, #0
 8001a04:	609a      	str	r2, [r3, #8]
  htim8.Init.Period = 65535;
 8001a06:	4b3a      	ldr	r3, [pc, #232]	; (8001af0 <MX_TIM8_Init+0x13c>)
 8001a08:	f64f 72ff 	movw	r2, #65535	; 0xffff
 8001a0c:	60da      	str	r2, [r3, #12]
  htim8.Init.ClockDivision = TIM_CLOCKDIVISION_DIV1;
 8001a0e:	4b38      	ldr	r3, [pc, #224]	; (8001af0 <MX_TIM8_Init+0x13c>)
 8001a10:	2200      	movs	r2, #0
 8001a12:	611a      	str	r2, [r3, #16]
  htim8.Init.RepetitionCounter = 0;
 8001a14:	4b36      	ldr	r3, [pc, #216]	; (8001af0 <MX_TIM8_Init+0x13c>)
 8001a16:	2200      	movs	r2, #0
 8001a18:	615a      	str	r2, [r3, #20]
  htim8.Init.AutoReloadPreload = TIM_AUTORELOAD_PRELOAD_DISABLE;
 8001a1a:	4b35      	ldr	r3, [pc, #212]	; (8001af0 <MX_TIM8_Init+0x13c>)
 8001a1c:	2200      	movs	r2, #0
 8001a1e:	619a      	str	r2, [r3, #24]
  if (HAL_TIM_Base_Init(&htim8) != HAL_OK)
 8001a20:	4833      	ldr	r0, [pc, #204]	; (8001af0 <MX_TIM8_Init+0x13c>)
 8001a22:	f001 fe59 	bl	80036d8 <HAL_TIM_Base_Init>
 8001a26:	4603      	mov	r3, r0
 8001a28:	2b00      	cmp	r3, #0
 8001a2a:	d001      	beq.n	8001a30 <MX_TIM8_Init+0x7c>
  {
    Error_Handler();
 8001a2c:	f000 f9e8 	bl	8001e00 <Error_Handler>
  }
  sClockSourceConfig.ClockSource = TIM_CLOCKSOURCE_INTERNAL;
 8001a30:	f44f 5380 	mov.w	r3, #4096	; 0x1000
 8001a34:	64bb      	str	r3, [r7, #72]	; 0x48
  if (HAL_TIM_ConfigClockSource(&htim8, &sClockSourceConfig) != HAL_OK)
 8001a36:	f107 0348 	add.w	r3, r7, #72	; 0x48
 8001a3a:	4619      	mov	r1, r3
 8001a3c:	482c      	ldr	r0, [pc, #176]	; (8001af0 <MX_TIM8_Init+0x13c>)
 8001a3e:	f002 fc0b 	bl	8004258 <HAL_TIM_ConfigClockSource>
 8001a42:	4603      	mov	r3, r0
 8001a44:	2b00      	cmp	r3, #0
 8001a46:	d001      	beq.n	8001a4c <MX_TIM8_Init+0x98>
  {
    Error_Handler();
 8001a48:	f000 f9da 	bl	8001e00 <Error_Handler>
  }
  if (HAL_TIM_PWM_Init(&htim8) != HAL_OK)
 8001a4c:	4828      	ldr	r0, [pc, #160]	; (8001af0 <MX_TIM8_Init+0x13c>)
 8001a4e:	f001 ff03 	bl	8003858 <HAL_TIM_PWM_Init>
 8001a52:	4603      	mov	r3, r0
 8001a54:	2b00      	cmp	r3, #0
 8001a56:	d001      	beq.n	8001a5c <MX_TIM8_Init+0xa8>
  {
    Error_Handler();
 8001a58:	f000 f9d2 	bl	8001e00 <Error_Handler>
  }
  sMasterConfig.MasterOutputTrigger = TIM_TRGO_RESET;
 8001a5c:	2300      	movs	r3, #0
 8001a5e:	643b      	str	r3, [r7, #64]	; 0x40
  sMasterConfig.MasterSlaveMode = TIM_MASTERSLAVEMODE_DISABLE;
 8001a60:	2300      	movs	r3, #0
 8001a62:	647b      	str	r3, [r7, #68]	; 0x44
  if (HAL_TIMEx_MasterConfigSynchronization(&htim8, &sMasterConfig) != HAL_OK)
 8001a64:	f107 0340 	add.w	r3, r7, #64	; 0x40
 8001a68:	4619      	mov	r1, r3
 8001a6a:	4821      	ldr	r0, [pc, #132]	; (8001af0 <MX_TIM8_Init+0x13c>)
 8001a6c:	f003 f958 	bl	8004d20 <HAL_TIMEx_MasterConfigSynchronization>
 8001a70:	4603      	mov	r3, r0
 8001a72:	2b00      	cmp	r3, #0
 8001a74:	d001      	beq.n	8001a7a <MX_TIM8_Init+0xc6>
  {
    Error_Handler();
 8001a76:	f000 f9c3 	bl	8001e00 <Error_Handler>
  }
  sConfigOC.OCMode = TIM_OCMODE_PWM1;
 8001a7a:	2360      	movs	r3, #96	; 0x60
 8001a7c:	627b      	str	r3, [r7, #36]	; 0x24
  sConfigOC.Pulse = 100;
 8001a7e:	2364      	movs	r3, #100	; 0x64
 8001a80:	62bb      	str	r3, [r7, #40]	; 0x28
  sConfigOC.OCPolarity = TIM_OCPOLARITY_HIGH;
 8001a82:	2300      	movs	r3, #0
 8001a84:	62fb      	str	r3, [r7, #44]	; 0x2c
  sConfigOC.OCNPolarity = TIM_OCNPOLARITY_HIGH;
 8001a86:	2300      	movs	r3, #0
 8001a88:	633b      	str	r3, [r7, #48]	; 0x30
  sConfigOC.OCFastMode = TIM_OCFAST_DISABLE;
 8001a8a:	2300      	movs	r3, #0
 8001a8c:	637b      	str	r3, [r7, #52]	; 0x34
  sConfigOC.OCIdleState = TIM_OCIDLESTATE_RESET;
 8001a8e:	2300      	movs	r3, #0
 8001a90:	63bb      	str	r3, [r7, #56]	; 0x38
  sConfigOC.OCNIdleState = TIM_OCNIDLESTATE_RESET;
 8001a92:	2300      	movs	r3, #0
 8001a94:	63fb      	str	r3, [r7, #60]	; 0x3c
  if (HAL_TIM_PWM_ConfigChannel(&htim8, &sConfigOC, TIM_CHANNEL_1) != HAL_OK)
 8001a96:	f107 0324 	add.w	r3, r7, #36	; 0x24
 8001a9a:	2200      	movs	r2, #0
 8001a9c:	4619      	mov	r1, r3
 8001a9e:	4814      	ldr	r0, [pc, #80]	; (8001af0 <MX_TIM8_Init+0x13c>)
 8001aa0:	f002 fb18 	bl	80040d4 <HAL_TIM_PWM_ConfigChannel>
 8001aa4:	4603      	mov	r3, r0
 8001aa6:	2b00      	cmp	r3, #0
 8001aa8:	d001      	beq.n	8001aae <MX_TIM8_Init+0xfa>
  {
    Error_Handler();
 8001aaa:	f000 f9a9 	bl	8001e00 <Error_Handler>
  }
  sBreakDeadTimeConfig.OffStateRunMode = TIM_OSSR_DISABLE;
 8001aae:	2300      	movs	r3, #0
 8001ab0:	607b      	str	r3, [r7, #4]
  sBreakDeadTimeConfig.OffStateIDLEMode = TIM_OSSI_DISABLE;
 8001ab2:	2300      	movs	r3, #0
 8001ab4:	60bb      	str	r3, [r7, #8]
  sBreakDeadTimeConfig.LockLevel = TIM_LOCKLEVEL_OFF;
 8001ab6:	2300      	movs	r3, #0
 8001ab8:	60fb      	str	r3, [r7, #12]
  sBreakDeadTimeConfig.DeadTime = 0;
 8001aba:	2300      	movs	r3, #0
 8001abc:	613b      	str	r3, [r7, #16]
  sBreakDeadTimeConfig.BreakState = TIM_BREAK_DISABLE;
 8001abe:	2300      	movs	r3, #0
 8001ac0:	617b      	str	r3, [r7, #20]
  sBreakDeadTimeConfig.BreakPolarity = TIM_BREAKPOLARITY_HIGH;
 8001ac2:	f44f 5300 	mov.w	r3, #8192	; 0x2000
 8001ac6:	61bb      	str	r3, [r7, #24]
  sBreakDeadTimeConfig.AutomaticOutput = TIM_AUTOMATICOUTPUT_DISABLE;
 8001ac8:	2300      	movs	r3, #0
 8001aca:	623b      	str	r3, [r7, #32]
  if (HAL_TIMEx_ConfigBreakDeadTime(&htim8, &sBreakDeadTimeConfig) != HAL_OK)
 8001acc:	1d3b      	adds	r3, r7, #4
 8001ace:	4619      	mov	r1, r3
 8001ad0:	4807      	ldr	r0, [pc, #28]	; (8001af0 <MX_TIM8_Init+0x13c>)
 8001ad2:	f003 f9a1 	bl	8004e18 <HAL_TIMEx_ConfigBreakDeadTime>
 8001ad6:	4603      	mov	r3, r0
 8001ad8:	2b00      	cmp	r3, #0
 8001ada:	d001      	beq.n	8001ae0 <MX_TIM8_Init+0x12c>
  {
    Error_Handler();
 8001adc:	f000 f990 	bl	8001e00 <Error_Handler>
  }
  /* USER CODE BEGIN TIM8_Init 2 */

  /* USER CODE END TIM8_Init 2 */
  HAL_TIM_MspPostInit(&htim8);
 8001ae0:	4803      	ldr	r0, [pc, #12]	; (8001af0 <MX_TIM8_Init+0x13c>)
 8001ae2:	f000 fabb 	bl	800205c <HAL_TIM_MspPostInit>

}
 8001ae6:	bf00      	nop
 8001ae8:	3758      	adds	r7, #88	; 0x58
 8001aea:	46bd      	mov	sp, r7
 8001aec:	bd80      	pop	{r7, pc}
 8001aee:	bf00      	nop
 8001af0:	200002c4 	.word	0x200002c4
 8001af4:	40010400 	.word	0x40010400

08001af8 <MX_TIM12_Init>:
  * @brief TIM12 Initialization Function
  * @param None
  * @retval None
  */
static void MX_TIM12_Init(void)
{
 8001af8:	b580      	push	{r7, lr}
 8001afa:	b08c      	sub	sp, #48	; 0x30
 8001afc:	af00      	add	r7, sp, #0

  /* USER CODE BEGIN TIM12_Init 0 */

  /* USER CODE END TIM12_Init 0 */

  TIM_ClockConfigTypeDef sClockSourceConfig = {0};
 8001afe:	f107 0320 	add.w	r3, r7, #32
 8001b02:	2200      	movs	r2, #0
 8001b04:	601a      	str	r2, [r3, #0]
 8001b06:	605a      	str	r2, [r3, #4]
 8001b08:	609a      	str	r2, [r3, #8]
 8001b0a:	60da      	str	r2, [r3, #12]
  TIM_OC_InitTypeDef sConfigOC = {0};
 8001b0c:	1d3b      	adds	r3, r7, #4
 8001b0e:	2200      	movs	r2, #0
 8001b10:	601a      	str	r2, [r3, #0]
 8001b12:	605a      	str	r2, [r3, #4]
 8001b14:	609a      	str	r2, [r3, #8]
 8001b16:	60da      	str	r2, [r3, #12]
 8001b18:	611a      	str	r2, [r3, #16]
 8001b1a:	615a      	str	r2, [r3, #20]
 8001b1c:	619a      	str	r2, [r3, #24]

  /* USER CODE BEGIN TIM12_Init 1 */

  /* USER CODE END TIM12_Init 1 */
  htim12.Instance = TIM12;
 8001b1e:	4b26      	ldr	r3, [pc, #152]	; (8001bb8 <MX_TIM12_Init+0xc0>)
 8001b20:	4a26      	ldr	r2, [pc, #152]	; (8001bbc <MX_TIM12_Init+0xc4>)
 8001b22:	601a      	str	r2, [r3, #0]
  htim12.Init.Prescaler = 3000-1;
 8001b24:	4b24      	ldr	r3, [pc, #144]	; (8001bb8 <MX_TIM12_Init+0xc0>)
 8001b26:	f640 32b7 	movw	r2, #2999	; 0xbb7
 8001b2a:	605a      	str	r2, [r3, #4]
  htim12.Init.CounterMode = TIM_COUNTERMODE_UP;
 8001b2c:	4b22      	ldr	r3, [pc, #136]	; (8001bb8 <MX_TIM12_Init+0xc0>)
 8001b2e:	2200      	movs	r2, #0
 8001b30:	609a      	str	r2, [r3, #8]
  htim12.Init.Period = 65535;
 8001b32:	4b21      	ldr	r3, [pc, #132]	; (8001bb8 <MX_TIM12_Init+0xc0>)
 8001b34:	f64f 72ff 	movw	r2, #65535	; 0xffff
 8001b38:	60da      	str	r2, [r3, #12]
  htim12.Init.ClockDivision = TIM_CLOCKDIVISION_DIV1;
 8001b3a:	4b1f      	ldr	r3, [pc, #124]	; (8001bb8 <MX_TIM12_Init+0xc0>)
 8001b3c:	2200      	movs	r2, #0
 8001b3e:	611a      	str	r2, [r3, #16]
  htim12.Init.AutoReloadPreload = TIM_AUTORELOAD_PRELOAD_DISABLE;
 8001b40:	4b1d      	ldr	r3, [pc, #116]	; (8001bb8 <MX_TIM12_Init+0xc0>)
 8001b42:	2200      	movs	r2, #0
 8001b44:	619a      	str	r2, [r3, #24]
  if (HAL_TIM_Base_Init(&htim12) != HAL_OK)
 8001b46:	481c      	ldr	r0, [pc, #112]	; (8001bb8 <MX_TIM12_Init+0xc0>)
 8001b48:	f001 fdc6 	bl	80036d8 <HAL_TIM_Base_Init>
 8001b4c:	4603      	mov	r3, r0
 8001b4e:	2b00      	cmp	r3, #0
 8001b50:	d001      	beq.n	8001b56 <MX_TIM12_Init+0x5e>
  {
    Error_Handler();
 8001b52:	f000 f955 	bl	8001e00 <Error_Handler>
  }
  sClockSourceConfig.ClockSource = TIM_CLOCKSOURCE_INTERNAL;
 8001b56:	f44f 5380 	mov.w	r3, #4096	; 0x1000
 8001b5a:	623b      	str	r3, [r7, #32]
  if (HAL_TIM_ConfigClockSource(&htim12, &sClockSourceConfig) != HAL_OK)
 8001b5c:	f107 0320 	add.w	r3, r7, #32
 8001b60:	4619      	mov	r1, r3
 8001b62:	4815      	ldr	r0, [pc, #84]	; (8001bb8 <MX_TIM12_Init+0xc0>)
 8001b64:	f002 fb78 	bl	8004258 <HAL_TIM_ConfigClockSource>
 8001b68:	4603      	mov	r3, r0
 8001b6a:	2b00      	cmp	r3, #0
 8001b6c:	d001      	beq.n	8001b72 <MX_TIM12_Init+0x7a>
  {
    Error_Handler();
 8001b6e:	f000 f947 	bl	8001e00 <Error_Handler>
  }
  if (HAL_TIM_PWM_Init(&htim12) != HAL_OK)
 8001b72:	4811      	ldr	r0, [pc, #68]	; (8001bb8 <MX_TIM12_Init+0xc0>)
 8001b74:	f001 fe70 	bl	8003858 <HAL_TIM_PWM_Init>
 8001b78:	4603      	mov	r3, r0
 8001b7a:	2b00      	cmp	r3, #0
 8001b7c:	d001      	beq.n	8001b82 <MX_TIM12_Init+0x8a>
  {
    Error_Handler();
 8001b7e:	f000 f93f 	bl	8001e00 <Error_Handler>
  }
  sConfigOC.OCMode = TIM_OCMODE_PWM1;
 8001b82:	2360      	movs	r3, #96	; 0x60
 8001b84:	607b      	str	r3, [r7, #4]
  sConfigOC.Pulse = 100;
 8001b86:	2364      	movs	r3, #100	; 0x64
 8001b88:	60bb      	str	r3, [r7, #8]
  sConfigOC.OCPolarity = TIM_OCPOLARITY_HIGH;
 8001b8a:	2300      	movs	r3, #0
 8001b8c:	60fb      	str	r3, [r7, #12]
  sConfigOC.OCFastMode = TIM_OCFAST_DISABLE;
 8001b8e:	2300      	movs	r3, #0
 8001b90:	617b      	str	r3, [r7, #20]
  if (HAL_TIM_PWM_ConfigChannel(&htim12, &sConfigOC, TIM_CHANNEL_1) != HAL_OK)
 8001b92:	1d3b      	adds	r3, r7, #4
 8001b94:	2200      	movs	r2, #0
 8001b96:	4619      	mov	r1, r3
 8001b98:	4807      	ldr	r0, [pc, #28]	; (8001bb8 <MX_TIM12_Init+0xc0>)
 8001b9a:	f002 fa9b 	bl	80040d4 <HAL_TIM_PWM_ConfigChannel>
 8001b9e:	4603      	mov	r3, r0
 8001ba0:	2b00      	cmp	r3, #0
 8001ba2:	d001      	beq.n	8001ba8 <MX_TIM12_Init+0xb0>
  {
    Error_Handler();
 8001ba4:	f000 f92c 	bl	8001e00 <Error_Handler>
  }
  /* USER CODE BEGIN TIM12_Init 2 */

  /* USER CODE END TIM12_Init 2 */
  HAL_TIM_MspPostInit(&htim12);
 8001ba8:	4803      	ldr	r0, [pc, #12]	; (8001bb8 <MX_TIM12_Init+0xc0>)
 8001baa:	f000 fa57 	bl	800205c <HAL_TIM_MspPostInit>

}
 8001bae:	bf00      	nop
 8001bb0:	3730      	adds	r7, #48	; 0x30
 8001bb2:	46bd      	mov	sp, r7
 8001bb4:	bd80      	pop	{r7, pc}
 8001bb6:	bf00      	nop
 8001bb8:	20000500 	.word	0x20000500
 8001bbc:	40001800 	.word	0x40001800

08001bc0 <MX_USART2_UART_Init>:
  * @brief USART2 Initialization Function
  * @param None
  * @retval None
  */
static void MX_USART2_UART_Init(void)
{
 8001bc0:	b580      	push	{r7, lr}
 8001bc2:	af00      	add	r7, sp, #0
  /* USER CODE END USART2_Init 0 */

  /* USER CODE BEGIN USART2_Init 1 */

  /* USER CODE END USART2_Init 1 */
  huart2.Instance = USART2;
 8001bc4:	4b11      	ldr	r3, [pc, #68]	; (8001c0c <MX_USART2_UART_Init+0x4c>)
 8001bc6:	4a12      	ldr	r2, [pc, #72]	; (8001c10 <MX_USART2_UART_Init+0x50>)
 8001bc8:	601a      	str	r2, [r3, #0]
  huart2.Init.BaudRate = 115200;
 8001bca:	4b10      	ldr	r3, [pc, #64]	; (8001c0c <MX_USART2_UART_Init+0x4c>)
 8001bcc:	f44f 32e1 	mov.w	r2, #115200	; 0x1c200
 8001bd0:	605a      	str	r2, [r3, #4]
  huart2.Init.WordLength = UART_WORDLENGTH_8B;
 8001bd2:	4b0e      	ldr	r3, [pc, #56]	; (8001c0c <MX_USART2_UART_Init+0x4c>)
 8001bd4:	2200      	movs	r2, #0
 8001bd6:	609a      	str	r2, [r3, #8]
  huart2.Init.StopBits = UART_STOPBITS_1;
 8001bd8:	4b0c      	ldr	r3, [pc, #48]	; (8001c0c <MX_USART2_UART_Init+0x4c>)
 8001bda:	2200      	movs	r2, #0
 8001bdc:	60da      	str	r2, [r3, #12]
  huart2.Init.Parity = UART_PARITY_NONE;
 8001bde:	4b0b      	ldr	r3, [pc, #44]	; (8001c0c <MX_USART2_UART_Init+0x4c>)
 8001be0:	2200      	movs	r2, #0
 8001be2:	611a      	str	r2, [r3, #16]
  huart2.Init.Mode = UART_MODE_TX_RX;
 8001be4:	4b09      	ldr	r3, [pc, #36]	; (8001c0c <MX_USART2_UART_Init+0x4c>)
 8001be6:	220c      	movs	r2, #12
 8001be8:	615a      	str	r2, [r3, #20]
  huart2.Init.HwFlowCtl = UART_HWCONTROL_NONE;
 8001bea:	4b08      	ldr	r3, [pc, #32]	; (8001c0c <MX_USART2_UART_Init+0x4c>)
 8001bec:	2200      	movs	r2, #0
 8001bee:	619a      	str	r2, [r3, #24]
  huart2.Init.OverSampling = UART_OVERSAMPLING_16;
 8001bf0:	4b06      	ldr	r3, [pc, #24]	; (8001c0c <MX_USART2_UART_Init+0x4c>)
 8001bf2:	2200      	movs	r2, #0
 8001bf4:	61da      	str	r2, [r3, #28]
  if (HAL_UART_Init(&huart2) != HAL_OK)
 8001bf6:	4805      	ldr	r0, [pc, #20]	; (8001c0c <MX_USART2_UART_Init+0x4c>)
 8001bf8:	f003 f974 	bl	8004ee4 <HAL_UART_Init>
 8001bfc:	4603      	mov	r3, r0
 8001bfe:	2b00      	cmp	r3, #0
 8001c00:	d001      	beq.n	8001c06 <MX_USART2_UART_Init+0x46>
  {
    Error_Handler();
 8001c02:	f000 f8fd 	bl	8001e00 <Error_Handler>
  }
  /* USER CODE BEGIN USART2_Init 2 */

  /* USER CODE END USART2_Init 2 */

}
 8001c06:	bf00      	nop
 8001c08:	bd80      	pop	{r7, pc}
 8001c0a:	bf00      	nop
 8001c0c:	200004ac 	.word	0x200004ac
 8001c10:	40004400 	.word	0x40004400

08001c14 <MX_GPIO_Init>:
  * @brief GPIO Initialization Function
  * @param None
  * @retval None
  */
static void MX_GPIO_Init(void)
{
 8001c14:	b580      	push	{r7, lr}
 8001c16:	b08a      	sub	sp, #40	; 0x28
 8001c18:	af00      	add	r7, sp, #0
  GPIO_InitTypeDef GPIO_InitStruct = {0};
 8001c1a:	f107 0314 	add.w	r3, r7, #20
 8001c1e:	2200      	movs	r2, #0
 8001c20:	601a      	str	r2, [r3, #0]
 8001c22:	605a      	str	r2, [r3, #4]
 8001c24:	609a      	str	r2, [r3, #8]
 8001c26:	60da      	str	r2, [r3, #12]
 8001c28:	611a      	str	r2, [r3, #16]

  /* GPIO Ports Clock Enable */
  __HAL_RCC_GPIOC_CLK_ENABLE();
 8001c2a:	2300      	movs	r3, #0
 8001c2c:	613b      	str	r3, [r7, #16]
 8001c2e:	4b2d      	ldr	r3, [pc, #180]	; (8001ce4 <MX_GPIO_Init+0xd0>)
 8001c30:	6b1b      	ldr	r3, [r3, #48]	; 0x30
 8001c32:	4a2c      	ldr	r2, [pc, #176]	; (8001ce4 <MX_GPIO_Init+0xd0>)
 8001c34:	f043 0304 	orr.w	r3, r3, #4
 8001c38:	6313      	str	r3, [r2, #48]	; 0x30
 8001c3a:	4b2a      	ldr	r3, [pc, #168]	; (8001ce4 <MX_GPIO_Init+0xd0>)
 8001c3c:	6b1b      	ldr	r3, [r3, #48]	; 0x30
 8001c3e:	f003 0304 	and.w	r3, r3, #4
 8001c42:	613b      	str	r3, [r7, #16]
 8001c44:	693b      	ldr	r3, [r7, #16]
  __HAL_RCC_GPIOH_CLK_ENABLE();
 8001c46:	2300      	movs	r3, #0
 8001c48:	60fb      	str	r3, [r7, #12]
 8001c4a:	4b26      	ldr	r3, [pc, #152]	; (8001ce4 <MX_GPIO_Init+0xd0>)
 8001c4c:	6b1b      	ldr	r3, [r3, #48]	; 0x30
 8001c4e:	4a25      	ldr	r2, [pc, #148]	; (8001ce4 <MX_GPIO_Init+0xd0>)
 8001c50:	f043 0380 	orr.w	r3, r3, #128	; 0x80
 8001c54:	6313      	str	r3, [r2, #48]	; 0x30
 8001c56:	4b23      	ldr	r3, [pc, #140]	; (8001ce4 <MX_GPIO_Init+0xd0>)
 8001c58:	6b1b      	ldr	r3, [r3, #48]	; 0x30
 8001c5a:	f003 0380 	and.w	r3, r3, #128	; 0x80
 8001c5e:	60fb      	str	r3, [r7, #12]
 8001c60:	68fb      	ldr	r3, [r7, #12]
  __HAL_RCC_GPIOA_CLK_ENABLE();
 8001c62:	2300      	movs	r3, #0
 8001c64:	60bb      	str	r3, [r7, #8]
 8001c66:	4b1f      	ldr	r3, [pc, #124]	; (8001ce4 <MX_GPIO_Init+0xd0>)
 8001c68:	6b1b      	ldr	r3, [r3, #48]	; 0x30
 8001c6a:	4a1e      	ldr	r2, [pc, #120]	; (8001ce4 <MX_GPIO_Init+0xd0>)
 8001c6c:	f043 0301 	orr.w	r3, r3, #1
 8001c70:	6313      	str	r3, [r2, #48]	; 0x30
 8001c72:	4b1c      	ldr	r3, [pc, #112]	; (8001ce4 <MX_GPIO_Init+0xd0>)
 8001c74:	6b1b      	ldr	r3, [r3, #48]	; 0x30
 8001c76:	f003 0301 	and.w	r3, r3, #1
 8001c7a:	60bb      	str	r3, [r7, #8]
 8001c7c:	68bb      	ldr	r3, [r7, #8]
  __HAL_RCC_GPIOB_CLK_ENABLE();
 8001c7e:	2300      	movs	r3, #0
 8001c80:	607b      	str	r3, [r7, #4]
 8001c82:	4b18      	ldr	r3, [pc, #96]	; (8001ce4 <MX_GPIO_Init+0xd0>)
 8001c84:	6b1b      	ldr	r3, [r3, #48]	; 0x30
 8001c86:	4a17      	ldr	r2, [pc, #92]	; (8001ce4 <MX_GPIO_Init+0xd0>)
 8001c88:	f043 0302 	orr.w	r3, r3, #2
 8001c8c:	6313      	str	r3, [r2, #48]	; 0x30
 8001c8e:	4b15      	ldr	r3, [pc, #84]	; (8001ce4 <MX_GPIO_Init+0xd0>)
 8001c90:	6b1b      	ldr	r3, [r3, #48]	; 0x30
 8001c92:	f003 0302 	and.w	r3, r3, #2
 8001c96:	607b      	str	r3, [r7, #4]
 8001c98:	687b      	ldr	r3, [r7, #4]

  /*Configure GPIO pin Output Level */
  HAL_GPIO_WritePin(LD2_GPIO_Port, LD2_Pin, GPIO_PIN_RESET);
 8001c9a:	2200      	movs	r2, #0
 8001c9c:	2120      	movs	r1, #32
 8001c9e:	4812      	ldr	r0, [pc, #72]	; (8001ce8 <MX_GPIO_Init+0xd4>)
 8001ca0:	f000 ff96 	bl	8002bd0 <HAL_GPIO_WritePin>

  /*Configure GPIO pin : B1_Pin */
  GPIO_InitStruct.Pin = B1_Pin;
 8001ca4:	f44f 5300 	mov.w	r3, #8192	; 0x2000
 8001ca8:	617b      	str	r3, [r7, #20]
  GPIO_InitStruct.Mode = GPIO_MODE_IT_FALLING;
 8001caa:	f44f 1304 	mov.w	r3, #2162688	; 0x210000
 8001cae:	61bb      	str	r3, [r7, #24]
  GPIO_InitStruct.Pull = GPIO_NOPULL;
 8001cb0:	2300      	movs	r3, #0
 8001cb2:	61fb      	str	r3, [r7, #28]
  HAL_GPIO_Init(B1_GPIO_Port, &GPIO_InitStruct);
 8001cb4:	f107 0314 	add.w	r3, r7, #20
 8001cb8:	4619      	mov	r1, r3
 8001cba:	480c      	ldr	r0, [pc, #48]	; (8001cec <MX_GPIO_Init+0xd8>)
 8001cbc:	f000 fdf4 	bl	80028a8 <HAL_GPIO_Init>

  /*Configure GPIO pin : LD2_Pin */
  GPIO_InitStruct.Pin = LD2_Pin;
 8001cc0:	2320      	movs	r3, #32
 8001cc2:	617b      	str	r3, [r7, #20]
  GPIO_InitStruct.Mode = GPIO_MODE_OUTPUT_PP;
 8001cc4:	2301      	movs	r3, #1
 8001cc6:	61bb      	str	r3, [r7, #24]
  GPIO_InitStruct.Pull = GPIO_NOPULL;
 8001cc8:	2300      	movs	r3, #0
 8001cca:	61fb      	str	r3, [r7, #28]
  GPIO_InitStruct.Speed = GPIO_SPEED_FREQ_LOW;
 8001ccc:	2300      	movs	r3, #0
 8001cce:	623b      	str	r3, [r7, #32]
  HAL_GPIO_Init(LD2_GPIO_Port, &GPIO_InitStruct);
 8001cd0:	f107 0314 	add.w	r3, r7, #20
 8001cd4:	4619      	mov	r1, r3
 8001cd6:	4804      	ldr	r0, [pc, #16]	; (8001ce8 <MX_GPIO_Init+0xd4>)
 8001cd8:	f000 fde6 	bl	80028a8 <HAL_GPIO_Init>

}
 8001cdc:	bf00      	nop
 8001cde:	3728      	adds	r7, #40	; 0x28
 8001ce0:	46bd      	mov	sp, r7
 8001ce2:	bd80      	pop	{r7, pc}
 8001ce4:	40023800 	.word	0x40023800
 8001ce8:	40020000 	.word	0x40020000
 8001cec:	40020800 	.word	0x40020800

08001cf0 <HAL_TIM_IC_CaptureCallback>:

/* USER CODE BEGIN 4 */
void HAL_TIM_IC_CaptureCallback(TIM_HandleTypeDef *htim)
{
 8001cf0:	b580      	push	{r7, lr}
 8001cf2:	b082      	sub	sp, #8
 8001cf4:	af00      	add	r7, sp, #0
 8001cf6:	6078      	str	r0, [r7, #4]
    HCSR04_TMR_IC_ISR(htim);
 8001cf8:	6878      	ldr	r0, [r7, #4]
 8001cfa:	f003 fe59 	bl	80059b0 <HCSR04_TMR_IC_ISR>
}
 8001cfe:	bf00      	nop
 8001d00:	3708      	adds	r7, #8
 8001d02:	46bd      	mov	sp, r7
 8001d04:	bd80      	pop	{r7, pc}

08001d06 <HAL_TIM_PeriodElapsedCallback>:
 
void HAL_TIM_PeriodElapsedCallback(TIM_HandleTypeDef* htim)
{
 8001d06:	b580      	push	{r7, lr}
 8001d08:	b082      	sub	sp, #8
 8001d0a:	af00      	add	r7, sp, #0
 8001d0c:	6078      	str	r0, [r7, #4]
    HCSR04_TMR_OVF_ISR(htim);
 8001d0e:	6878      	ldr	r0, [r7, #4]
 8001d10:	f003 fe12 	bl	8005938 <HCSR04_TMR_OVF_ISR>
}
 8001d14:	bf00      	nop
 8001d16:	3708      	adds	r7, #8
 8001d18:	46bd      	mov	sp, r7
 8001d1a:	bd80      	pop	{r7, pc}

08001d1c <SysTick_CallBack>:
uint8_t TRIG2_Ticks = 15;
uint8_t TRIG3_Ticks = 30;
uint8_t TRIG4_Ticks = 45;
uint16_t MOTOR_Ticks;
void SysTick_CallBack(void)
{
 8001d1c:	b580      	push	{r7, lr}
 8001d1e:	af00      	add	r7, sp, #0
    TRIG1_Ticks++;
 8001d20:	4b2c      	ldr	r3, [pc, #176]	; (8001dd4 <SysTick_CallBack+0xb8>)
 8001d22:	781b      	ldrb	r3, [r3, #0]
 8001d24:	3301      	adds	r3, #1
 8001d26:	b2da      	uxtb	r2, r3
 8001d28:	4b2a      	ldr	r3, [pc, #168]	; (8001dd4 <SysTick_CallBack+0xb8>)
 8001d2a:	701a      	strb	r2, [r3, #0]
    TRIG2_Ticks++;
 8001d2c:	4b2a      	ldr	r3, [pc, #168]	; (8001dd8 <SysTick_CallBack+0xbc>)
 8001d2e:	781b      	ldrb	r3, [r3, #0]
 8001d30:	3301      	adds	r3, #1
 8001d32:	b2da      	uxtb	r2, r3
 8001d34:	4b28      	ldr	r3, [pc, #160]	; (8001dd8 <SysTick_CallBack+0xbc>)
 8001d36:	701a      	strb	r2, [r3, #0]
    TRIG3_Ticks++;
 8001d38:	4b28      	ldr	r3, [pc, #160]	; (8001ddc <SysTick_CallBack+0xc0>)
 8001d3a:	781b      	ldrb	r3, [r3, #0]
 8001d3c:	3301      	adds	r3, #1
 8001d3e:	b2da      	uxtb	r2, r3
 8001d40:	4b26      	ldr	r3, [pc, #152]	; (8001ddc <SysTick_CallBack+0xc0>)
 8001d42:	701a      	strb	r2, [r3, #0]
    TRIG4_Ticks++;
 8001d44:	4b26      	ldr	r3, [pc, #152]	; (8001de0 <SysTick_CallBack+0xc4>)
 8001d46:	781b      	ldrb	r3, [r3, #0]
 8001d48:	3301      	adds	r3, #1
 8001d4a:	b2da      	uxtb	r2, r3
 8001d4c:	4b24      	ldr	r3, [pc, #144]	; (8001de0 <SysTick_CallBack+0xc4>)
 8001d4e:	701a      	strb	r2, [r3, #0]
    MOTOR_Ticks++;
 8001d50:	4b24      	ldr	r3, [pc, #144]	; (8001de4 <SysTick_CallBack+0xc8>)
 8001d52:	881b      	ldrh	r3, [r3, #0]
 8001d54:	3301      	adds	r3, #1
 8001d56:	b29a      	uxth	r2, r3
 8001d58:	4b22      	ldr	r3, [pc, #136]	; (8001de4 <SysTick_CallBack+0xc8>)
 8001d5a:	801a      	strh	r2, [r3, #0]
    if(TRIG1_Ticks >= 60) // Each 15msec
 8001d5c:	4b1d      	ldr	r3, [pc, #116]	; (8001dd4 <SysTick_CallBack+0xb8>)
 8001d5e:	781b      	ldrb	r3, [r3, #0]
 8001d60:	2b3b      	cmp	r3, #59	; 0x3b
 8001d62:	d905      	bls.n	8001d70 <SysTick_CallBack+0x54>
    {
        HCSR04_Trigger(HCSR04_SENSOR1);
 8001d64:	2000      	movs	r0, #0
 8001d66:	f004 f885 	bl	8005e74 <HCSR04_Trigger>
        TRIG1_Ticks = 0;
 8001d6a:	4b1a      	ldr	r3, [pc, #104]	; (8001dd4 <SysTick_CallBack+0xb8>)
 8001d6c:	2200      	movs	r2, #0
 8001d6e:	701a      	strb	r2, [r3, #0]
    }
    if(TRIG2_Ticks >= 60) // Each 15msec
 8001d70:	4b19      	ldr	r3, [pc, #100]	; (8001dd8 <SysTick_CallBack+0xbc>)
 8001d72:	781b      	ldrb	r3, [r3, #0]
 8001d74:	2b3b      	cmp	r3, #59	; 0x3b
 8001d76:	d905      	bls.n	8001d84 <SysTick_CallBack+0x68>
    {
        HCSR04_Trigger(HCSR04_SENSOR2);
 8001d78:	2001      	movs	r0, #1
 8001d7a:	f004 f87b 	bl	8005e74 <HCSR04_Trigger>
        TRIG2_Ticks = 0;
 8001d7e:	4b16      	ldr	r3, [pc, #88]	; (8001dd8 <SysTick_CallBack+0xbc>)
 8001d80:	2200      	movs	r2, #0
 8001d82:	701a      	strb	r2, [r3, #0]
    }
    if(TRIG3_Ticks >= 60) // Each 15msec
 8001d84:	4b15      	ldr	r3, [pc, #84]	; (8001ddc <SysTick_CallBack+0xc0>)
 8001d86:	781b      	ldrb	r3, [r3, #0]
 8001d88:	2b3b      	cmp	r3, #59	; 0x3b
 8001d8a:	d905      	bls.n	8001d98 <SysTick_CallBack+0x7c>
    {
        HCSR04_Trigger(HCSR04_SENSOR3);
 8001d8c:	2002      	movs	r0, #2
 8001d8e:	f004 f871 	bl	8005e74 <HCSR04_Trigger>
        TRIG3_Ticks = 0;
 8001d92:	4b12      	ldr	r3, [pc, #72]	; (8001ddc <SysTick_CallBack+0xc0>)
 8001d94:	2200      	movs	r2, #0
 8001d96:	701a      	strb	r2, [r3, #0]
    }
    if(TRIG4_Ticks >= 60) // Each 15msec
 8001d98:	4b11      	ldr	r3, [pc, #68]	; (8001de0 <SysTick_CallBack+0xc4>)
 8001d9a:	781b      	ldrb	r3, [r3, #0]
 8001d9c:	2b3b      	cmp	r3, #59	; 0x3b
 8001d9e:	d905      	bls.n	8001dac <SysTick_CallBack+0x90>
    {
        HCSR04_Trigger(HCSR04_SENSOR4);
 8001da0:	2003      	movs	r0, #3
 8001da2:	f004 f867 	bl	8005e74 <HCSR04_Trigger>
        TRIG4_Ticks = 0;
 8001da6:	4b0e      	ldr	r3, [pc, #56]	; (8001de0 <SysTick_CallBack+0xc4>)
 8001da8:	2200      	movs	r2, #0
 8001daa:	701a      	strb	r2, [r3, #0]
    }
    if(MOTOR_Ticks >= 100){
 8001dac:	4b0d      	ldr	r3, [pc, #52]	; (8001de4 <SysTick_CallBack+0xc8>)
 8001dae:	881b      	ldrh	r3, [r3, #0]
 8001db0:	2b63      	cmp	r3, #99	; 0x63
 8001db2:	d90c      	bls.n	8001dce <SysTick_CallBack+0xb2>
      UpdateMotorsFreq(motors, motors_num, motors_channel, distances, 50.0, 150.0);
 8001db4:	eddf 0a0c 	vldr	s1, [pc, #48]	; 8001de8 <SysTick_CallBack+0xcc>
 8001db8:	ed9f 0a0c 	vldr	s0, [pc, #48]	; 8001dec <SysTick_CallBack+0xd0>
 8001dbc:	4b0c      	ldr	r3, [pc, #48]	; (8001df0 <SysTick_CallBack+0xd4>)
 8001dbe:	4a0d      	ldr	r2, [pc, #52]	; (8001df4 <SysTick_CallBack+0xd8>)
 8001dc0:	490d      	ldr	r1, [pc, #52]	; (8001df8 <SysTick_CallBack+0xdc>)
 8001dc2:	480e      	ldr	r0, [pc, #56]	; (8001dfc <SysTick_CallBack+0xe0>)
 8001dc4:	f7ff fa4e 	bl	8001264 <UpdateMotorsFreq>
      MOTOR_Ticks = 0;
 8001dc8:	4b06      	ldr	r3, [pc, #24]	; (8001de4 <SysTick_CallBack+0xc8>)
 8001dca:	2200      	movs	r2, #0
 8001dcc:	801a      	strh	r2, [r3, #0]
    }
}
 8001dce:	bf00      	nop
 8001dd0:	bd80      	pop	{r7, pc}
 8001dd2:	bf00      	nop
 8001dd4:	20000224 	.word	0x20000224
 8001dd8:	20000019 	.word	0x20000019
 8001ddc:	2000001a 	.word	0x2000001a
 8001de0:	2000001b 	.word	0x2000001b
 8001de4:	20000418 	.word	0x20000418
 8001de8:	43160000 	.word	0x43160000
 8001dec:	42480000 	.word	0x42480000
 8001df0:	200004f0 	.word	0x200004f0
 8001df4:	20000014 	.word	0x20000014
 8001df8:	20000010 	.word	0x20000010
 8001dfc:	20000000 	.word	0x20000000

08001e00 <Error_Handler>:
/**
  * @brief  This function is executed in case of error occurrence.
  * @retval None
  */
void Error_Handler(void)
{
 8001e00:	b480      	push	{r7}
 8001e02:	af00      	add	r7, sp, #0
  \details Disables IRQ interrupts by setting the I-bit in the CPSR.
           Can only be executed in Privileged modes.
 */
__STATIC_FORCEINLINE void __disable_irq(void)
{
  __ASM volatile ("cpsid i" : : : "memory");
 8001e04:	b672      	cpsid	i
}
 8001e06:	bf00      	nop
  /* USER CODE BEGIN Error_Handler_Debug */
  /* User can add his own implementation to report the HAL error return state */
  __disable_irq();
  while (1)
 8001e08:	e7fe      	b.n	8001e08 <Error_Handler+0x8>
	...

08001e0c <HAL_MspInit>:
void HAL_TIM_MspPostInit(TIM_HandleTypeDef *htim);
                                                                                                                        /**
  * Initializes the Global MSP.
  */
void HAL_MspInit(void)
{
 8001e0c:	b580      	push	{r7, lr}
 8001e0e:	b082      	sub	sp, #8
 8001e10:	af00      	add	r7, sp, #0
  /* USER CODE BEGIN MspInit 0 */

  /* USER CODE END MspInit 0 */

  __HAL_RCC_SYSCFG_CLK_ENABLE();
 8001e12:	2300      	movs	r3, #0
 8001e14:	607b      	str	r3, [r7, #4]
 8001e16:	4b10      	ldr	r3, [pc, #64]	; (8001e58 <HAL_MspInit+0x4c>)
 8001e18:	6c5b      	ldr	r3, [r3, #68]	; 0x44
 8001e1a:	4a0f      	ldr	r2, [pc, #60]	; (8001e58 <HAL_MspInit+0x4c>)
 8001e1c:	f443 4380 	orr.w	r3, r3, #16384	; 0x4000
 8001e20:	6453      	str	r3, [r2, #68]	; 0x44
 8001e22:	4b0d      	ldr	r3, [pc, #52]	; (8001e58 <HAL_MspInit+0x4c>)
 8001e24:	6c5b      	ldr	r3, [r3, #68]	; 0x44
 8001e26:	f403 4380 	and.w	r3, r3, #16384	; 0x4000
 8001e2a:	607b      	str	r3, [r7, #4]
 8001e2c:	687b      	ldr	r3, [r7, #4]
  __HAL_RCC_PWR_CLK_ENABLE();
 8001e2e:	2300      	movs	r3, #0
 8001e30:	603b      	str	r3, [r7, #0]
 8001e32:	4b09      	ldr	r3, [pc, #36]	; (8001e58 <HAL_MspInit+0x4c>)
 8001e34:	6c1b      	ldr	r3, [r3, #64]	; 0x40
 8001e36:	4a08      	ldr	r2, [pc, #32]	; (8001e58 <HAL_MspInit+0x4c>)
 8001e38:	f043 5380 	orr.w	r3, r3, #268435456	; 0x10000000
 8001e3c:	6413      	str	r3, [r2, #64]	; 0x40
 8001e3e:	4b06      	ldr	r3, [pc, #24]	; (8001e58 <HAL_MspInit+0x4c>)
 8001e40:	6c1b      	ldr	r3, [r3, #64]	; 0x40
 8001e42:	f003 5380 	and.w	r3, r3, #268435456	; 0x10000000
 8001e46:	603b      	str	r3, [r7, #0]
 8001e48:	683b      	ldr	r3, [r7, #0]

  HAL_NVIC_SetPriorityGrouping(NVIC_PRIORITYGROUP_0);
 8001e4a:	2007      	movs	r0, #7
 8001e4c:	f000 fcea 	bl	8002824 <HAL_NVIC_SetPriorityGrouping>
  /* System interrupt init*/

  /* USER CODE BEGIN MspInit 1 */

  /* USER CODE END MspInit 1 */
}
 8001e50:	bf00      	nop
 8001e52:	3708      	adds	r7, #8
 8001e54:	46bd      	mov	sp, r7
 8001e56:	bd80      	pop	{r7, pc}
 8001e58:	40023800 	.word	0x40023800

08001e5c <HAL_TIM_Base_MspInit>:
* This function configures the hardware resources used in this example
* @param htim_base: TIM_Base handle pointer
* @retval None
*/
void HAL_TIM_Base_MspInit(TIM_HandleTypeDef* htim_base)
{
 8001e5c:	b580      	push	{r7, lr}
 8001e5e:	b090      	sub	sp, #64	; 0x40
 8001e60:	af00      	add	r7, sp, #0
 8001e62:	6078      	str	r0, [r7, #4]
  GPIO_InitTypeDef GPIO_InitStruct = {0};
 8001e64:	f107 032c 	add.w	r3, r7, #44	; 0x2c
 8001e68:	2200      	movs	r2, #0
 8001e6a:	601a      	str	r2, [r3, #0]
 8001e6c:	605a      	str	r2, [r3, #4]
 8001e6e:	609a      	str	r2, [r3, #8]
 8001e70:	60da      	str	r2, [r3, #12]
 8001e72:	611a      	str	r2, [r3, #16]
  if(htim_base->Instance==TIM1)
 8001e74:	687b      	ldr	r3, [r7, #4]
 8001e76:	681b      	ldr	r3, [r3, #0]
 8001e78:	4a5f      	ldr	r2, [pc, #380]	; (8001ff8 <HAL_TIM_Base_MspInit+0x19c>)
 8001e7a:	4293      	cmp	r3, r2
 8001e7c:	d10e      	bne.n	8001e9c <HAL_TIM_Base_MspInit+0x40>
  {
  /* USER CODE BEGIN TIM1_MspInit 0 */

  /* USER CODE END TIM1_MspInit 0 */
    /* Peripheral clock enable */
    __HAL_RCC_TIM1_CLK_ENABLE();
 8001e7e:	2300      	movs	r3, #0
 8001e80:	62bb      	str	r3, [r7, #40]	; 0x28
 8001e82:	4b5e      	ldr	r3, [pc, #376]	; (8001ffc <HAL_TIM_Base_MspInit+0x1a0>)
 8001e84:	6c5b      	ldr	r3, [r3, #68]	; 0x44
 8001e86:	4a5d      	ldr	r2, [pc, #372]	; (8001ffc <HAL_TIM_Base_MspInit+0x1a0>)
 8001e88:	f043 0301 	orr.w	r3, r3, #1
 8001e8c:	6453      	str	r3, [r2, #68]	; 0x44
 8001e8e:	4b5b      	ldr	r3, [pc, #364]	; (8001ffc <HAL_TIM_Base_MspInit+0x1a0>)
 8001e90:	6c5b      	ldr	r3, [r3, #68]	; 0x44
 8001e92:	f003 0301 	and.w	r3, r3, #1
 8001e96:	62bb      	str	r3, [r7, #40]	; 0x28
 8001e98:	6abb      	ldr	r3, [r7, #40]	; 0x28
  /* USER CODE BEGIN TIM12_MspInit 1 */

  /* USER CODE END TIM12_MspInit 1 */
  }

}
 8001e9a:	e0a8      	b.n	8001fee <HAL_TIM_Base_MspInit+0x192>
  else if(htim_base->Instance==TIM2)
 8001e9c:	687b      	ldr	r3, [r7, #4]
 8001e9e:	681b      	ldr	r3, [r3, #0]
 8001ea0:	f1b3 4f80 	cmp.w	r3, #1073741824	; 0x40000000
 8001ea4:	d154      	bne.n	8001f50 <HAL_TIM_Base_MspInit+0xf4>
    __HAL_RCC_TIM2_CLK_ENABLE();
 8001ea6:	2300      	movs	r3, #0
 8001ea8:	627b      	str	r3, [r7, #36]	; 0x24
 8001eaa:	4b54      	ldr	r3, [pc, #336]	; (8001ffc <HAL_TIM_Base_MspInit+0x1a0>)
 8001eac:	6c1b      	ldr	r3, [r3, #64]	; 0x40
 8001eae:	4a53      	ldr	r2, [pc, #332]	; (8001ffc <HAL_TIM_Base_MspInit+0x1a0>)
 8001eb0:	f043 0301 	orr.w	r3, r3, #1
 8001eb4:	6413      	str	r3, [r2, #64]	; 0x40
 8001eb6:	4b51      	ldr	r3, [pc, #324]	; (8001ffc <HAL_TIM_Base_MspInit+0x1a0>)
 8001eb8:	6c1b      	ldr	r3, [r3, #64]	; 0x40
 8001eba:	f003 0301 	and.w	r3, r3, #1
 8001ebe:	627b      	str	r3, [r7, #36]	; 0x24
 8001ec0:	6a7b      	ldr	r3, [r7, #36]	; 0x24
    __HAL_RCC_GPIOA_CLK_ENABLE();
 8001ec2:	2300      	movs	r3, #0
 8001ec4:	623b      	str	r3, [r7, #32]
 8001ec6:	4b4d      	ldr	r3, [pc, #308]	; (8001ffc <HAL_TIM_Base_MspInit+0x1a0>)
 8001ec8:	6b1b      	ldr	r3, [r3, #48]	; 0x30
 8001eca:	4a4c      	ldr	r2, [pc, #304]	; (8001ffc <HAL_TIM_Base_MspInit+0x1a0>)
 8001ecc:	f043 0301 	orr.w	r3, r3, #1
 8001ed0:	6313      	str	r3, [r2, #48]	; 0x30
 8001ed2:	4b4a      	ldr	r3, [pc, #296]	; (8001ffc <HAL_TIM_Base_MspInit+0x1a0>)
 8001ed4:	6b1b      	ldr	r3, [r3, #48]	; 0x30
 8001ed6:	f003 0301 	and.w	r3, r3, #1
 8001eda:	623b      	str	r3, [r7, #32]
 8001edc:	6a3b      	ldr	r3, [r7, #32]
    __HAL_RCC_GPIOB_CLK_ENABLE();
 8001ede:	2300      	movs	r3, #0
 8001ee0:	61fb      	str	r3, [r7, #28]
 8001ee2:	4b46      	ldr	r3, [pc, #280]	; (8001ffc <HAL_TIM_Base_MspInit+0x1a0>)
 8001ee4:	6b1b      	ldr	r3, [r3, #48]	; 0x30
 8001ee6:	4a45      	ldr	r2, [pc, #276]	; (8001ffc <HAL_TIM_Base_MspInit+0x1a0>)
 8001ee8:	f043 0302 	orr.w	r3, r3, #2
 8001eec:	6313      	str	r3, [r2, #48]	; 0x30
 8001eee:	4b43      	ldr	r3, [pc, #268]	; (8001ffc <HAL_TIM_Base_MspInit+0x1a0>)
 8001ef0:	6b1b      	ldr	r3, [r3, #48]	; 0x30
 8001ef2:	f003 0302 	and.w	r3, r3, #2
 8001ef6:	61fb      	str	r3, [r7, #28]
 8001ef8:	69fb      	ldr	r3, [r7, #28]
    GPIO_InitStruct.Pin = GPIO_PIN_1|GPIO_PIN_15;
 8001efa:	f248 0302 	movw	r3, #32770	; 0x8002
 8001efe:	62fb      	str	r3, [r7, #44]	; 0x2c
    GPIO_InitStruct.Mode = GPIO_MODE_AF_PP;
 8001f00:	2302      	movs	r3, #2
 8001f02:	633b      	str	r3, [r7, #48]	; 0x30
    GPIO_InitStruct.Pull = GPIO_NOPULL;
 8001f04:	2300      	movs	r3, #0
 8001f06:	637b      	str	r3, [r7, #52]	; 0x34
    GPIO_InitStruct.Speed = GPIO_SPEED_FREQ_LOW;
 8001f08:	2300      	movs	r3, #0
 8001f0a:	63bb      	str	r3, [r7, #56]	; 0x38
    GPIO_InitStruct.Alternate = GPIO_AF1_TIM2;
 8001f0c:	2301      	movs	r3, #1
 8001f0e:	63fb      	str	r3, [r7, #60]	; 0x3c
    HAL_GPIO_Init(GPIOA, &GPIO_InitStruct);
 8001f10:	f107 032c 	add.w	r3, r7, #44	; 0x2c
 8001f14:	4619      	mov	r1, r3
 8001f16:	483a      	ldr	r0, [pc, #232]	; (8002000 <HAL_TIM_Base_MspInit+0x1a4>)
 8001f18:	f000 fcc6 	bl	80028a8 <HAL_GPIO_Init>
    GPIO_InitStruct.Pin = GPIO_PIN_2|GPIO_PIN_10;
 8001f1c:	f240 4304 	movw	r3, #1028	; 0x404
 8001f20:	62fb      	str	r3, [r7, #44]	; 0x2c
    GPIO_InitStruct.Mode = GPIO_MODE_AF_PP;
 8001f22:	2302      	movs	r3, #2
 8001f24:	633b      	str	r3, [r7, #48]	; 0x30
    GPIO_InitStruct.Pull = GPIO_NOPULL;
 8001f26:	2300      	movs	r3, #0
 8001f28:	637b      	str	r3, [r7, #52]	; 0x34
    GPIO_InitStruct.Speed = GPIO_SPEED_FREQ_LOW;
 8001f2a:	2300      	movs	r3, #0
 8001f2c:	63bb      	str	r3, [r7, #56]	; 0x38
    GPIO_InitStruct.Alternate = GPIO_AF1_TIM2;
 8001f2e:	2301      	movs	r3, #1
 8001f30:	63fb      	str	r3, [r7, #60]	; 0x3c
    HAL_GPIO_Init(GPIOB, &GPIO_InitStruct);
 8001f32:	f107 032c 	add.w	r3, r7, #44	; 0x2c
 8001f36:	4619      	mov	r1, r3
 8001f38:	4832      	ldr	r0, [pc, #200]	; (8002004 <HAL_TIM_Base_MspInit+0x1a8>)
 8001f3a:	f000 fcb5 	bl	80028a8 <HAL_GPIO_Init>
    HAL_NVIC_SetPriority(TIM2_IRQn, 0, 0);
 8001f3e:	2200      	movs	r2, #0
 8001f40:	2100      	movs	r1, #0
 8001f42:	201c      	movs	r0, #28
 8001f44:	f000 fc79 	bl	800283a <HAL_NVIC_SetPriority>
    HAL_NVIC_EnableIRQ(TIM2_IRQn);
 8001f48:	201c      	movs	r0, #28
 8001f4a:	f000 fc92 	bl	8002872 <HAL_NVIC_EnableIRQ>
}
 8001f4e:	e04e      	b.n	8001fee <HAL_TIM_Base_MspInit+0x192>
  else if(htim_base->Instance==TIM3)
 8001f50:	687b      	ldr	r3, [r7, #4]
 8001f52:	681b      	ldr	r3, [r3, #0]
 8001f54:	4a2c      	ldr	r2, [pc, #176]	; (8002008 <HAL_TIM_Base_MspInit+0x1ac>)
 8001f56:	4293      	cmp	r3, r2
 8001f58:	d10e      	bne.n	8001f78 <HAL_TIM_Base_MspInit+0x11c>
    __HAL_RCC_TIM3_CLK_ENABLE();
 8001f5a:	2300      	movs	r3, #0
 8001f5c:	61bb      	str	r3, [r7, #24]
 8001f5e:	4b27      	ldr	r3, [pc, #156]	; (8001ffc <HAL_TIM_Base_MspInit+0x1a0>)
 8001f60:	6c1b      	ldr	r3, [r3, #64]	; 0x40
 8001f62:	4a26      	ldr	r2, [pc, #152]	; (8001ffc <HAL_TIM_Base_MspInit+0x1a0>)
 8001f64:	f043 0302 	orr.w	r3, r3, #2
 8001f68:	6413      	str	r3, [r2, #64]	; 0x40
 8001f6a:	4b24      	ldr	r3, [pc, #144]	; (8001ffc <HAL_TIM_Base_MspInit+0x1a0>)
 8001f6c:	6c1b      	ldr	r3, [r3, #64]	; 0x40
 8001f6e:	f003 0302 	and.w	r3, r3, #2
 8001f72:	61bb      	str	r3, [r7, #24]
 8001f74:	69bb      	ldr	r3, [r7, #24]
}
 8001f76:	e03a      	b.n	8001fee <HAL_TIM_Base_MspInit+0x192>
  else if(htim_base->Instance==TIM4)
 8001f78:	687b      	ldr	r3, [r7, #4]
 8001f7a:	681b      	ldr	r3, [r3, #0]
 8001f7c:	4a23      	ldr	r2, [pc, #140]	; (800200c <HAL_TIM_Base_MspInit+0x1b0>)
 8001f7e:	4293      	cmp	r3, r2
 8001f80:	d10e      	bne.n	8001fa0 <HAL_TIM_Base_MspInit+0x144>
    __HAL_RCC_TIM4_CLK_ENABLE();
 8001f82:	2300      	movs	r3, #0
 8001f84:	617b      	str	r3, [r7, #20]
 8001f86:	4b1d      	ldr	r3, [pc, #116]	; (8001ffc <HAL_TIM_Base_MspInit+0x1a0>)
 8001f88:	6c1b      	ldr	r3, [r3, #64]	; 0x40
 8001f8a:	4a1c      	ldr	r2, [pc, #112]	; (8001ffc <HAL_TIM_Base_MspInit+0x1a0>)
 8001f8c:	f043 0304 	orr.w	r3, r3, #4
 8001f90:	6413      	str	r3, [r2, #64]	; 0x40
 8001f92:	4b1a      	ldr	r3, [pc, #104]	; (8001ffc <HAL_TIM_Base_MspInit+0x1a0>)
 8001f94:	6c1b      	ldr	r3, [r3, #64]	; 0x40
 8001f96:	f003 0304 	and.w	r3, r3, #4
 8001f9a:	617b      	str	r3, [r7, #20]
 8001f9c:	697b      	ldr	r3, [r7, #20]
}
 8001f9e:	e026      	b.n	8001fee <HAL_TIM_Base_MspInit+0x192>
  else if(htim_base->Instance==TIM8)
 8001fa0:	687b      	ldr	r3, [r7, #4]
 8001fa2:	681b      	ldr	r3, [r3, #0]
 8001fa4:	4a1a      	ldr	r2, [pc, #104]	; (8002010 <HAL_TIM_Base_MspInit+0x1b4>)
 8001fa6:	4293      	cmp	r3, r2
 8001fa8:	d10e      	bne.n	8001fc8 <HAL_TIM_Base_MspInit+0x16c>
    __HAL_RCC_TIM8_CLK_ENABLE();
 8001faa:	2300      	movs	r3, #0
 8001fac:	613b      	str	r3, [r7, #16]
 8001fae:	4b13      	ldr	r3, [pc, #76]	; (8001ffc <HAL_TIM_Base_MspInit+0x1a0>)
 8001fb0:	6c5b      	ldr	r3, [r3, #68]	; 0x44
 8001fb2:	4a12      	ldr	r2, [pc, #72]	; (8001ffc <HAL_TIM_Base_MspInit+0x1a0>)
 8001fb4:	f043 0302 	orr.w	r3, r3, #2
 8001fb8:	6453      	str	r3, [r2, #68]	; 0x44
 8001fba:	4b10      	ldr	r3, [pc, #64]	; (8001ffc <HAL_TIM_Base_MspInit+0x1a0>)
 8001fbc:	6c5b      	ldr	r3, [r3, #68]	; 0x44
 8001fbe:	f003 0302 	and.w	r3, r3, #2
 8001fc2:	613b      	str	r3, [r7, #16]
 8001fc4:	693b      	ldr	r3, [r7, #16]
}
 8001fc6:	e012      	b.n	8001fee <HAL_TIM_Base_MspInit+0x192>
  else if(htim_base->Instance==TIM12)
 8001fc8:	687b      	ldr	r3, [r7, #4]
 8001fca:	681b      	ldr	r3, [r3, #0]
 8001fcc:	4a11      	ldr	r2, [pc, #68]	; (8002014 <HAL_TIM_Base_MspInit+0x1b8>)
 8001fce:	4293      	cmp	r3, r2
 8001fd0:	d10d      	bne.n	8001fee <HAL_TIM_Base_MspInit+0x192>
    __HAL_RCC_TIM12_CLK_ENABLE();
 8001fd2:	2300      	movs	r3, #0
 8001fd4:	60fb      	str	r3, [r7, #12]
 8001fd6:	4b09      	ldr	r3, [pc, #36]	; (8001ffc <HAL_TIM_Base_MspInit+0x1a0>)
 8001fd8:	6c1b      	ldr	r3, [r3, #64]	; 0x40
 8001fda:	4a08      	ldr	r2, [pc, #32]	; (8001ffc <HAL_TIM_Base_MspInit+0x1a0>)
 8001fdc:	f043 0340 	orr.w	r3, r3, #64	; 0x40
 8001fe0:	6413      	str	r3, [r2, #64]	; 0x40
 8001fe2:	4b06      	ldr	r3, [pc, #24]	; (8001ffc <HAL_TIM_Base_MspInit+0x1a0>)
 8001fe4:	6c1b      	ldr	r3, [r3, #64]	; 0x40
 8001fe6:	f003 0340 	and.w	r3, r3, #64	; 0x40
 8001fea:	60fb      	str	r3, [r7, #12]
 8001fec:	68fb      	ldr	r3, [r7, #12]
}
 8001fee:	bf00      	nop
 8001ff0:	3740      	adds	r7, #64	; 0x40
 8001ff2:	46bd      	mov	sp, r7
 8001ff4:	bd80      	pop	{r7, pc}
 8001ff6:	bf00      	nop
 8001ff8:	40010000 	.word	0x40010000
 8001ffc:	40023800 	.word	0x40023800
 8002000:	40020000 	.word	0x40020000
 8002004:	40020400 	.word	0x40020400
 8002008:	40000400 	.word	0x40000400
 800200c:	40000800 	.word	0x40000800
 8002010:	40010400 	.word	0x40010400
 8002014:	40001800 	.word	0x40001800

08002018 <HAL_TIM_PWM_MspInit>:
* This function configures the hardware resources used in this example
* @param htim_pwm: TIM_PWM handle pointer
* @retval None
*/
void HAL_TIM_PWM_MspInit(TIM_HandleTypeDef* htim_pwm)
{
 8002018:	b480      	push	{r7}
 800201a:	b085      	sub	sp, #20
 800201c:	af00      	add	r7, sp, #0
 800201e:	6078      	str	r0, [r7, #4]
  if(htim_pwm->Instance==TIM5)
 8002020:	687b      	ldr	r3, [r7, #4]
 8002022:	681b      	ldr	r3, [r3, #0]
 8002024:	4a0b      	ldr	r2, [pc, #44]	; (8002054 <HAL_TIM_PWM_MspInit+0x3c>)
 8002026:	4293      	cmp	r3, r2
 8002028:	d10d      	bne.n	8002046 <HAL_TIM_PWM_MspInit+0x2e>
  {
  /* USER CODE BEGIN TIM5_MspInit 0 */

  /* USER CODE END TIM5_MspInit 0 */
    /* Peripheral clock enable */
    __HAL_RCC_TIM5_CLK_ENABLE();
 800202a:	2300      	movs	r3, #0
 800202c:	60fb      	str	r3, [r7, #12]
 800202e:	4b0a      	ldr	r3, [pc, #40]	; (8002058 <HAL_TIM_PWM_MspInit+0x40>)
 8002030:	6c1b      	ldr	r3, [r3, #64]	; 0x40
 8002032:	4a09      	ldr	r2, [pc, #36]	; (8002058 <HAL_TIM_PWM_MspInit+0x40>)
 8002034:	f043 0308 	orr.w	r3, r3, #8
 8002038:	6413      	str	r3, [r2, #64]	; 0x40
 800203a:	4b07      	ldr	r3, [pc, #28]	; (8002058 <HAL_TIM_PWM_MspInit+0x40>)
 800203c:	6c1b      	ldr	r3, [r3, #64]	; 0x40
 800203e:	f003 0308 	and.w	r3, r3, #8
 8002042:	60fb      	str	r3, [r7, #12]
 8002044:	68fb      	ldr	r3, [r7, #12]
  /* USER CODE BEGIN TIM5_MspInit 1 */

  /* USER CODE END TIM5_MspInit 1 */
  }

}
 8002046:	bf00      	nop
 8002048:	3714      	adds	r7, #20
 800204a:	46bd      	mov	sp, r7
 800204c:	f85d 7b04 	ldr.w	r7, [sp], #4
 8002050:	4770      	bx	lr
 8002052:	bf00      	nop
 8002054:	40000c00 	.word	0x40000c00
 8002058:	40023800 	.word	0x40023800

0800205c <HAL_TIM_MspPostInit>:

void HAL_TIM_MspPostInit(TIM_HandleTypeDef* htim)
{
 800205c:	b580      	push	{r7, lr}
 800205e:	b08e      	sub	sp, #56	; 0x38
 8002060:	af00      	add	r7, sp, #0
 8002062:	6078      	str	r0, [r7, #4]
  GPIO_InitTypeDef GPIO_InitStruct = {0};
 8002064:	f107 0324 	add.w	r3, r7, #36	; 0x24
 8002068:	2200      	movs	r2, #0
 800206a:	601a      	str	r2, [r3, #0]
 800206c:	605a      	str	r2, [r3, #4]
 800206e:	609a      	str	r2, [r3, #8]
 8002070:	60da      	str	r2, [r3, #12]
 8002072:	611a      	str	r2, [r3, #16]
  if(htim->Instance==TIM1)
 8002074:	687b      	ldr	r3, [r7, #4]
 8002076:	681b      	ldr	r3, [r3, #0]
 8002078:	4a6d      	ldr	r2, [pc, #436]	; (8002230 <HAL_TIM_MspPostInit+0x1d4>)
 800207a:	4293      	cmp	r3, r2
 800207c:	d11f      	bne.n	80020be <HAL_TIM_MspPostInit+0x62>
  {
  /* USER CODE BEGIN TIM1_MspPostInit 0 */

  /* USER CODE END TIM1_MspPostInit 0 */
    __HAL_RCC_GPIOA_CLK_ENABLE();
 800207e:	2300      	movs	r3, #0
 8002080:	623b      	str	r3, [r7, #32]
 8002082:	4b6c      	ldr	r3, [pc, #432]	; (8002234 <HAL_TIM_MspPostInit+0x1d8>)
 8002084:	6b1b      	ldr	r3, [r3, #48]	; 0x30
 8002086:	4a6b      	ldr	r2, [pc, #428]	; (8002234 <HAL_TIM_MspPostInit+0x1d8>)
 8002088:	f043 0301 	orr.w	r3, r3, #1
 800208c:	6313      	str	r3, [r2, #48]	; 0x30
 800208e:	4b69      	ldr	r3, [pc, #420]	; (8002234 <HAL_TIM_MspPostInit+0x1d8>)
 8002090:	6b1b      	ldr	r3, [r3, #48]	; 0x30
 8002092:	f003 0301 	and.w	r3, r3, #1
 8002096:	623b      	str	r3, [r7, #32]
 8002098:	6a3b      	ldr	r3, [r7, #32]
    /**TIM1 GPIO Configuration
    PA8     ------> TIM1_CH1
    */
    GPIO_InitStruct.Pin = GPIO_PIN_8;
 800209a:	f44f 7380 	mov.w	r3, #256	; 0x100
 800209e:	627b      	str	r3, [r7, #36]	; 0x24
    GPIO_InitStruct.Mode = GPIO_MODE_AF_PP;
 80020a0:	2302      	movs	r3, #2
 80020a2:	62bb      	str	r3, [r7, #40]	; 0x28
    GPIO_InitStruct.Pull = GPIO_NOPULL;
 80020a4:	2300      	movs	r3, #0
 80020a6:	62fb      	str	r3, [r7, #44]	; 0x2c
    GPIO_InitStruct.Speed = GPIO_SPEED_FREQ_LOW;
 80020a8:	2300      	movs	r3, #0
 80020aa:	633b      	str	r3, [r7, #48]	; 0x30
    GPIO_InitStruct.Alternate = GPIO_AF1_TIM1;
 80020ac:	2301      	movs	r3, #1
 80020ae:	637b      	str	r3, [r7, #52]	; 0x34
    HAL_GPIO_Init(GPIOA, &GPIO_InitStruct);
 80020b0:	f107 0324 	add.w	r3, r7, #36	; 0x24
 80020b4:	4619      	mov	r1, r3
 80020b6:	4860      	ldr	r0, [pc, #384]	; (8002238 <HAL_TIM_MspPostInit+0x1dc>)
 80020b8:	f000 fbf6 	bl	80028a8 <HAL_GPIO_Init>
  /* USER CODE BEGIN TIM12_MspPostInit 1 */

  /* USER CODE END TIM12_MspPostInit 1 */
  }

}
 80020bc:	e0b3      	b.n	8002226 <HAL_TIM_MspPostInit+0x1ca>
  else if(htim->Instance==TIM3)
 80020be:	687b      	ldr	r3, [r7, #4]
 80020c0:	681b      	ldr	r3, [r3, #0]
 80020c2:	4a5e      	ldr	r2, [pc, #376]	; (800223c <HAL_TIM_MspPostInit+0x1e0>)
 80020c4:	4293      	cmp	r3, r2
 80020c6:	d11e      	bne.n	8002106 <HAL_TIM_MspPostInit+0xaa>
    __HAL_RCC_GPIOA_CLK_ENABLE();
 80020c8:	2300      	movs	r3, #0
 80020ca:	61fb      	str	r3, [r7, #28]
 80020cc:	4b59      	ldr	r3, [pc, #356]	; (8002234 <HAL_TIM_MspPostInit+0x1d8>)
 80020ce:	6b1b      	ldr	r3, [r3, #48]	; 0x30
 80020d0:	4a58      	ldr	r2, [pc, #352]	; (8002234 <HAL_TIM_MspPostInit+0x1d8>)
 80020d2:	f043 0301 	orr.w	r3, r3, #1
 80020d6:	6313      	str	r3, [r2, #48]	; 0x30
 80020d8:	4b56      	ldr	r3, [pc, #344]	; (8002234 <HAL_TIM_MspPostInit+0x1d8>)
 80020da:	6b1b      	ldr	r3, [r3, #48]	; 0x30
 80020dc:	f003 0301 	and.w	r3, r3, #1
 80020e0:	61fb      	str	r3, [r7, #28]
 80020e2:	69fb      	ldr	r3, [r7, #28]
    GPIO_InitStruct.Pin = GPIO_PIN_6;
 80020e4:	2340      	movs	r3, #64	; 0x40
 80020e6:	627b      	str	r3, [r7, #36]	; 0x24
    GPIO_InitStruct.Mode = GPIO_MODE_AF_PP;
 80020e8:	2302      	movs	r3, #2
 80020ea:	62bb      	str	r3, [r7, #40]	; 0x28
    GPIO_InitStruct.Pull = GPIO_NOPULL;
 80020ec:	2300      	movs	r3, #0
 80020ee:	62fb      	str	r3, [r7, #44]	; 0x2c
    GPIO_InitStruct.Speed = GPIO_SPEED_FREQ_LOW;
 80020f0:	2300      	movs	r3, #0
 80020f2:	633b      	str	r3, [r7, #48]	; 0x30
    GPIO_InitStruct.Alternate = GPIO_AF2_TIM3;
 80020f4:	2302      	movs	r3, #2
 80020f6:	637b      	str	r3, [r7, #52]	; 0x34
    HAL_GPIO_Init(GPIOA, &GPIO_InitStruct);
 80020f8:	f107 0324 	add.w	r3, r7, #36	; 0x24
 80020fc:	4619      	mov	r1, r3
 80020fe:	484e      	ldr	r0, [pc, #312]	; (8002238 <HAL_TIM_MspPostInit+0x1dc>)
 8002100:	f000 fbd2 	bl	80028a8 <HAL_GPIO_Init>
}
 8002104:	e08f      	b.n	8002226 <HAL_TIM_MspPostInit+0x1ca>
  else if(htim->Instance==TIM4)
 8002106:	687b      	ldr	r3, [r7, #4]
 8002108:	681b      	ldr	r3, [r3, #0]
 800210a:	4a4d      	ldr	r2, [pc, #308]	; (8002240 <HAL_TIM_MspPostInit+0x1e4>)
 800210c:	4293      	cmp	r3, r2
 800210e:	d11e      	bne.n	800214e <HAL_TIM_MspPostInit+0xf2>
    __HAL_RCC_GPIOB_CLK_ENABLE();
 8002110:	2300      	movs	r3, #0
 8002112:	61bb      	str	r3, [r7, #24]
 8002114:	4b47      	ldr	r3, [pc, #284]	; (8002234 <HAL_TIM_MspPostInit+0x1d8>)
 8002116:	6b1b      	ldr	r3, [r3, #48]	; 0x30
 8002118:	4a46      	ldr	r2, [pc, #280]	; (8002234 <HAL_TIM_MspPostInit+0x1d8>)
 800211a:	f043 0302 	orr.w	r3, r3, #2
 800211e:	6313      	str	r3, [r2, #48]	; 0x30
 8002120:	4b44      	ldr	r3, [pc, #272]	; (8002234 <HAL_TIM_MspPostInit+0x1d8>)
 8002122:	6b1b      	ldr	r3, [r3, #48]	; 0x30
 8002124:	f003 0302 	and.w	r3, r3, #2
 8002128:	61bb      	str	r3, [r7, #24]
 800212a:	69bb      	ldr	r3, [r7, #24]
    GPIO_InitStruct.Pin = GPIO_PIN_6;
 800212c:	2340      	movs	r3, #64	; 0x40
 800212e:	627b      	str	r3, [r7, #36]	; 0x24
    GPIO_InitStruct.Mode = GPIO_MODE_AF_PP;
 8002130:	2302      	movs	r3, #2
 8002132:	62bb      	str	r3, [r7, #40]	; 0x28
    GPIO_InitStruct.Pull = GPIO_NOPULL;
 8002134:	2300      	movs	r3, #0
 8002136:	62fb      	str	r3, [r7, #44]	; 0x2c
    GPIO_InitStruct.Speed = GPIO_SPEED_FREQ_LOW;
 8002138:	2300      	movs	r3, #0
 800213a:	633b      	str	r3, [r7, #48]	; 0x30
    GPIO_InitStruct.Alternate = GPIO_AF2_TIM4;
 800213c:	2302      	movs	r3, #2
 800213e:	637b      	str	r3, [r7, #52]	; 0x34
    HAL_GPIO_Init(GPIOB, &GPIO_InitStruct);
 8002140:	f107 0324 	add.w	r3, r7, #36	; 0x24
 8002144:	4619      	mov	r1, r3
 8002146:	483f      	ldr	r0, [pc, #252]	; (8002244 <HAL_TIM_MspPostInit+0x1e8>)
 8002148:	f000 fbae 	bl	80028a8 <HAL_GPIO_Init>
}
 800214c:	e06b      	b.n	8002226 <HAL_TIM_MspPostInit+0x1ca>
  else if(htim->Instance==TIM5)
 800214e:	687b      	ldr	r3, [r7, #4]
 8002150:	681b      	ldr	r3, [r3, #0]
 8002152:	4a3d      	ldr	r2, [pc, #244]	; (8002248 <HAL_TIM_MspPostInit+0x1ec>)
 8002154:	4293      	cmp	r3, r2
 8002156:	d11e      	bne.n	8002196 <HAL_TIM_MspPostInit+0x13a>
    __HAL_RCC_GPIOA_CLK_ENABLE();
 8002158:	2300      	movs	r3, #0
 800215a:	617b      	str	r3, [r7, #20]
 800215c:	4b35      	ldr	r3, [pc, #212]	; (8002234 <HAL_TIM_MspPostInit+0x1d8>)
 800215e:	6b1b      	ldr	r3, [r3, #48]	; 0x30
 8002160:	4a34      	ldr	r2, [pc, #208]	; (8002234 <HAL_TIM_MspPostInit+0x1d8>)
 8002162:	f043 0301 	orr.w	r3, r3, #1
 8002166:	6313      	str	r3, [r2, #48]	; 0x30
 8002168:	4b32      	ldr	r3, [pc, #200]	; (8002234 <HAL_TIM_MspPostInit+0x1d8>)
 800216a:	6b1b      	ldr	r3, [r3, #48]	; 0x30
 800216c:	f003 0301 	and.w	r3, r3, #1
 8002170:	617b      	str	r3, [r7, #20]
 8002172:	697b      	ldr	r3, [r7, #20]
    GPIO_InitStruct.Pin = GPIO_PIN_0;
 8002174:	2301      	movs	r3, #1
 8002176:	627b      	str	r3, [r7, #36]	; 0x24
    GPIO_InitStruct.Mode = GPIO_MODE_AF_PP;
 8002178:	2302      	movs	r3, #2
 800217a:	62bb      	str	r3, [r7, #40]	; 0x28
    GPIO_InitStruct.Pull = GPIO_NOPULL;
 800217c:	2300      	movs	r3, #0
 800217e:	62fb      	str	r3, [r7, #44]	; 0x2c
    GPIO_InitStruct.Speed = GPIO_SPEED_FREQ_LOW;
 8002180:	2300      	movs	r3, #0
 8002182:	633b      	str	r3, [r7, #48]	; 0x30
    GPIO_InitStruct.Alternate = GPIO_AF2_TIM5;
 8002184:	2302      	movs	r3, #2
 8002186:	637b      	str	r3, [r7, #52]	; 0x34
    HAL_GPIO_Init(GPIOA, &GPIO_InitStruct);
 8002188:	f107 0324 	add.w	r3, r7, #36	; 0x24
 800218c:	4619      	mov	r1, r3
 800218e:	482a      	ldr	r0, [pc, #168]	; (8002238 <HAL_TIM_MspPostInit+0x1dc>)
 8002190:	f000 fb8a 	bl	80028a8 <HAL_GPIO_Init>
}
 8002194:	e047      	b.n	8002226 <HAL_TIM_MspPostInit+0x1ca>
  else if(htim->Instance==TIM8)
 8002196:	687b      	ldr	r3, [r7, #4]
 8002198:	681b      	ldr	r3, [r3, #0]
 800219a:	4a2c      	ldr	r2, [pc, #176]	; (800224c <HAL_TIM_MspPostInit+0x1f0>)
 800219c:	4293      	cmp	r3, r2
 800219e:	d11e      	bne.n	80021de <HAL_TIM_MspPostInit+0x182>
    __HAL_RCC_GPIOC_CLK_ENABLE();
 80021a0:	2300      	movs	r3, #0
 80021a2:	613b      	str	r3, [r7, #16]
 80021a4:	4b23      	ldr	r3, [pc, #140]	; (8002234 <HAL_TIM_MspPostInit+0x1d8>)
 80021a6:	6b1b      	ldr	r3, [r3, #48]	; 0x30
 80021a8:	4a22      	ldr	r2, [pc, #136]	; (8002234 <HAL_TIM_MspPostInit+0x1d8>)
 80021aa:	f043 0304 	orr.w	r3, r3, #4
 80021ae:	6313      	str	r3, [r2, #48]	; 0x30
 80021b0:	4b20      	ldr	r3, [pc, #128]	; (8002234 <HAL_TIM_MspPostInit+0x1d8>)
 80021b2:	6b1b      	ldr	r3, [r3, #48]	; 0x30
 80021b4:	f003 0304 	and.w	r3, r3, #4
 80021b8:	613b      	str	r3, [r7, #16]
 80021ba:	693b      	ldr	r3, [r7, #16]
    GPIO_InitStruct.Pin = GPIO_PIN_6;
 80021bc:	2340      	movs	r3, #64	; 0x40
 80021be:	627b      	str	r3, [r7, #36]	; 0x24
    GPIO_InitStruct.Mode = GPIO_MODE_AF_PP;
 80021c0:	2302      	movs	r3, #2
 80021c2:	62bb      	str	r3, [r7, #40]	; 0x28
    GPIO_InitStruct.Pull = GPIO_NOPULL;
 80021c4:	2300      	movs	r3, #0
 80021c6:	62fb      	str	r3, [r7, #44]	; 0x2c
    GPIO_InitStruct.Speed = GPIO_SPEED_FREQ_LOW;
 80021c8:	2300      	movs	r3, #0
 80021ca:	633b      	str	r3, [r7, #48]	; 0x30
    GPIO_InitStruct.Alternate = GPIO_AF3_TIM8;
 80021cc:	2303      	movs	r3, #3
 80021ce:	637b      	str	r3, [r7, #52]	; 0x34
    HAL_GPIO_Init(GPIOC, &GPIO_InitStruct);
 80021d0:	f107 0324 	add.w	r3, r7, #36	; 0x24
 80021d4:	4619      	mov	r1, r3
 80021d6:	481e      	ldr	r0, [pc, #120]	; (8002250 <HAL_TIM_MspPostInit+0x1f4>)
 80021d8:	f000 fb66 	bl	80028a8 <HAL_GPIO_Init>
}
 80021dc:	e023      	b.n	8002226 <HAL_TIM_MspPostInit+0x1ca>
  else if(htim->Instance==TIM12)
 80021de:	687b      	ldr	r3, [r7, #4]
 80021e0:	681b      	ldr	r3, [r3, #0]
 80021e2:	4a1c      	ldr	r2, [pc, #112]	; (8002254 <HAL_TIM_MspPostInit+0x1f8>)
 80021e4:	4293      	cmp	r3, r2
 80021e6:	d11e      	bne.n	8002226 <HAL_TIM_MspPostInit+0x1ca>
    __HAL_RCC_GPIOB_CLK_ENABLE();
 80021e8:	2300      	movs	r3, #0
 80021ea:	60fb      	str	r3, [r7, #12]
 80021ec:	4b11      	ldr	r3, [pc, #68]	; (8002234 <HAL_TIM_MspPostInit+0x1d8>)
 80021ee:	6b1b      	ldr	r3, [r3, #48]	; 0x30
 80021f0:	4a10      	ldr	r2, [pc, #64]	; (8002234 <HAL_TIM_MspPostInit+0x1d8>)
 80021f2:	f043 0302 	orr.w	r3, r3, #2
 80021f6:	6313      	str	r3, [r2, #48]	; 0x30
 80021f8:	4b0e      	ldr	r3, [pc, #56]	; (8002234 <HAL_TIM_MspPostInit+0x1d8>)
 80021fa:	6b1b      	ldr	r3, [r3, #48]	; 0x30
 80021fc:	f003 0302 	and.w	r3, r3, #2
 8002200:	60fb      	str	r3, [r7, #12]
 8002202:	68fb      	ldr	r3, [r7, #12]
    GPIO_InitStruct.Pin = GPIO_PIN_14;
 8002204:	f44f 4380 	mov.w	r3, #16384	; 0x4000
 8002208:	627b      	str	r3, [r7, #36]	; 0x24
    GPIO_InitStruct.Mode = GPIO_MODE_AF_PP;
 800220a:	2302      	movs	r3, #2
 800220c:	62bb      	str	r3, [r7, #40]	; 0x28
    GPIO_InitStruct.Pull = GPIO_NOPULL;
 800220e:	2300      	movs	r3, #0
 8002210:	62fb      	str	r3, [r7, #44]	; 0x2c
    GPIO_InitStruct.Speed = GPIO_SPEED_FREQ_LOW;
 8002212:	2300      	movs	r3, #0
 8002214:	633b      	str	r3, [r7, #48]	; 0x30
    GPIO_InitStruct.Alternate = GPIO_AF9_TIM12;
 8002216:	2309      	movs	r3, #9
 8002218:	637b      	str	r3, [r7, #52]	; 0x34
    HAL_GPIO_Init(GPIOB, &GPIO_InitStruct);
 800221a:	f107 0324 	add.w	r3, r7, #36	; 0x24
 800221e:	4619      	mov	r1, r3
 8002220:	4808      	ldr	r0, [pc, #32]	; (8002244 <HAL_TIM_MspPostInit+0x1e8>)
 8002222:	f000 fb41 	bl	80028a8 <HAL_GPIO_Init>
}
 8002226:	bf00      	nop
 8002228:	3738      	adds	r7, #56	; 0x38
 800222a:	46bd      	mov	sp, r7
 800222c:	bd80      	pop	{r7, pc}
 800222e:	bf00      	nop
 8002230:	40010000 	.word	0x40010000
 8002234:	40023800 	.word	0x40023800
 8002238:	40020000 	.word	0x40020000
 800223c:	40000400 	.word	0x40000400
 8002240:	40000800 	.word	0x40000800
 8002244:	40020400 	.word	0x40020400
 8002248:	40000c00 	.word	0x40000c00
 800224c:	40010400 	.word	0x40010400
 8002250:	40020800 	.word	0x40020800
 8002254:	40001800 	.word	0x40001800

08002258 <HAL_UART_MspInit>:
* This function configures the hardware resources used in this example
* @param huart: UART handle pointer
* @retval None
*/
void HAL_UART_MspInit(UART_HandleTypeDef* huart)
{
 8002258:	b580      	push	{r7, lr}
 800225a:	b08a      	sub	sp, #40	; 0x28
 800225c:	af00      	add	r7, sp, #0
 800225e:	6078      	str	r0, [r7, #4]
  GPIO_InitTypeDef GPIO_InitStruct = {0};
 8002260:	f107 0314 	add.w	r3, r7, #20
 8002264:	2200      	movs	r2, #0
 8002266:	601a      	str	r2, [r3, #0]
 8002268:	605a      	str	r2, [r3, #4]
 800226a:	609a      	str	r2, [r3, #8]
 800226c:	60da      	str	r2, [r3, #12]
 800226e:	611a      	str	r2, [r3, #16]
  if(huart->Instance==USART2)
 8002270:	687b      	ldr	r3, [r7, #4]
 8002272:	681b      	ldr	r3, [r3, #0]
 8002274:	4a19      	ldr	r2, [pc, #100]	; (80022dc <HAL_UART_MspInit+0x84>)
 8002276:	4293      	cmp	r3, r2
 8002278:	d12b      	bne.n	80022d2 <HAL_UART_MspInit+0x7a>
  {
  /* USER CODE BEGIN USART2_MspInit 0 */

  /* USER CODE END USART2_MspInit 0 */
    /* Peripheral clock enable */
    __HAL_RCC_USART2_CLK_ENABLE();
 800227a:	2300      	movs	r3, #0
 800227c:	613b      	str	r3, [r7, #16]
 800227e:	4b18      	ldr	r3, [pc, #96]	; (80022e0 <HAL_UART_MspInit+0x88>)
 8002280:	6c1b      	ldr	r3, [r3, #64]	; 0x40
 8002282:	4a17      	ldr	r2, [pc, #92]	; (80022e0 <HAL_UART_MspInit+0x88>)
 8002284:	f443 3300 	orr.w	r3, r3, #131072	; 0x20000
 8002288:	6413      	str	r3, [r2, #64]	; 0x40
 800228a:	4b15      	ldr	r3, [pc, #84]	; (80022e0 <HAL_UART_MspInit+0x88>)
 800228c:	6c1b      	ldr	r3, [r3, #64]	; 0x40
 800228e:	f403 3300 	and.w	r3, r3, #131072	; 0x20000
 8002292:	613b      	str	r3, [r7, #16]
 8002294:	693b      	ldr	r3, [r7, #16]

    __HAL_RCC_GPIOA_CLK_ENABLE();
 8002296:	2300      	movs	r3, #0
 8002298:	60fb      	str	r3, [r7, #12]
 800229a:	4b11      	ldr	r3, [pc, #68]	; (80022e0 <HAL_UART_MspInit+0x88>)
 800229c:	6b1b      	ldr	r3, [r3, #48]	; 0x30
 800229e:	4a10      	ldr	r2, [pc, #64]	; (80022e0 <HAL_UART_MspInit+0x88>)
 80022a0:	f043 0301 	orr.w	r3, r3, #1
 80022a4:	6313      	str	r3, [r2, #48]	; 0x30
 80022a6:	4b0e      	ldr	r3, [pc, #56]	; (80022e0 <HAL_UART_MspInit+0x88>)
 80022a8:	6b1b      	ldr	r3, [r3, #48]	; 0x30
 80022aa:	f003 0301 	and.w	r3, r3, #1
 80022ae:	60fb      	str	r3, [r7, #12]
 80022b0:	68fb      	ldr	r3, [r7, #12]
    /**USART2 GPIO Configuration
    PA2     ------> USART2_TX
    PA3     ------> USART2_RX
    */
    GPIO_InitStruct.Pin = USART_TX_Pin|USART_RX_Pin;
 80022b2:	230c      	movs	r3, #12
 80022b4:	617b      	str	r3, [r7, #20]
    GPIO_InitStruct.Mode = GPIO_MODE_AF_PP;
 80022b6:	2302      	movs	r3, #2
 80022b8:	61bb      	str	r3, [r7, #24]
    GPIO_InitStruct.Pull = GPIO_NOPULL;
 80022ba:	2300      	movs	r3, #0
 80022bc:	61fb      	str	r3, [r7, #28]
    GPIO_InitStruct.Speed = GPIO_SPEED_FREQ_VERY_HIGH;
 80022be:	2303      	movs	r3, #3
 80022c0:	623b      	str	r3, [r7, #32]
    GPIO_InitStruct.Alternate = GPIO_AF7_USART2;
 80022c2:	2307      	movs	r3, #7
 80022c4:	627b      	str	r3, [r7, #36]	; 0x24
    HAL_GPIO_Init(GPIOA, &GPIO_InitStruct);
 80022c6:	f107 0314 	add.w	r3, r7, #20
 80022ca:	4619      	mov	r1, r3
 80022cc:	4805      	ldr	r0, [pc, #20]	; (80022e4 <HAL_UART_MspInit+0x8c>)
 80022ce:	f000 faeb 	bl	80028a8 <HAL_GPIO_Init>
  /* USER CODE BEGIN USART2_MspInit 1 */

  /* USER CODE END USART2_MspInit 1 */
  }

}
 80022d2:	bf00      	nop
 80022d4:	3728      	adds	r7, #40	; 0x28
 80022d6:	46bd      	mov	sp, r7
 80022d8:	bd80      	pop	{r7, pc}
 80022da:	bf00      	nop
 80022dc:	40004400 	.word	0x40004400
 80022e0:	40023800 	.word	0x40023800
 80022e4:	40020000 	.word	0x40020000

080022e8 <NMI_Handler>:
/******************************************************************************/
/**
  * @brief This function handles Non maskable interrupt.
  */
void NMI_Handler(void)
{
 80022e8:	b480      	push	{r7}
 80022ea:	af00      	add	r7, sp, #0
  /* USER CODE BEGIN NonMaskableInt_IRQn 0 */

  /* USER CODE END NonMaskableInt_IRQn 0 */
  /* USER CODE BEGIN NonMaskableInt_IRQn 1 */
  while (1)
 80022ec:	e7fe      	b.n	80022ec <NMI_Handler+0x4>

080022ee <HardFault_Handler>:

/**
  * @brief This function handles Hard fault interrupt.
  */
void HardFault_Handler(void)
{
 80022ee:	b480      	push	{r7}
 80022f0:	af00      	add	r7, sp, #0
  /* USER CODE BEGIN HardFault_IRQn 0 */

  /* USER CODE END HardFault_IRQn 0 */
  while (1)
 80022f2:	e7fe      	b.n	80022f2 <HardFault_Handler+0x4>

080022f4 <MemManage_Handler>:

/**
  * @brief This function handles Memory management fault.
  */
void MemManage_Handler(void)
{
 80022f4:	b480      	push	{r7}
 80022f6:	af00      	add	r7, sp, #0
  /* USER CODE BEGIN MemoryManagement_IRQn 0 */

  /* USER CODE END MemoryManagement_IRQn 0 */
  while (1)
 80022f8:	e7fe      	b.n	80022f8 <MemManage_Handler+0x4>

080022fa <BusFault_Handler>:

/**
  * @brief This function handles Pre-fetch fault, memory access fault.
  */
void BusFault_Handler(void)
{
 80022fa:	b480      	push	{r7}
 80022fc:	af00      	add	r7, sp, #0
  /* USER CODE BEGIN BusFault_IRQn 0 */

  /* USER CODE END BusFault_IRQn 0 */
  while (1)
 80022fe:	e7fe      	b.n	80022fe <BusFault_Handler+0x4>

08002300 <UsageFault_Handler>:

/**
  * @brief This function handles Undefined instruction or illegal state.
  */
void UsageFault_Handler(void)
{
 8002300:	b480      	push	{r7}
 8002302:	af00      	add	r7, sp, #0
  /* USER CODE BEGIN UsageFault_IRQn 0 */

  /* USER CODE END UsageFault_IRQn 0 */
  while (1)
 8002304:	e7fe      	b.n	8002304 <UsageFault_Handler+0x4>

08002306 <SVC_Handler>:

/**
  * @brief This function handles System service call via SWI instruction.
  */
void SVC_Handler(void)
{
 8002306:	b480      	push	{r7}
 8002308:	af00      	add	r7, sp, #0

  /* USER CODE END SVCall_IRQn 0 */
  /* USER CODE BEGIN SVCall_IRQn 1 */

  /* USER CODE END SVCall_IRQn 1 */
}
 800230a:	bf00      	nop
 800230c:	46bd      	mov	sp, r7
 800230e:	f85d 7b04 	ldr.w	r7, [sp], #4
 8002312:	4770      	bx	lr

08002314 <DebugMon_Handler>:

/**
  * @brief This function handles Debug monitor.
  */
void DebugMon_Handler(void)
{
 8002314:	b480      	push	{r7}
 8002316:	af00      	add	r7, sp, #0

  /* USER CODE END DebugMonitor_IRQn 0 */
  /* USER CODE BEGIN DebugMonitor_IRQn 1 */

  /* USER CODE END DebugMonitor_IRQn 1 */
}
 8002318:	bf00      	nop
 800231a:	46bd      	mov	sp, r7
 800231c:	f85d 7b04 	ldr.w	r7, [sp], #4
 8002320:	4770      	bx	lr

08002322 <PendSV_Handler>:

/**
  * @brief This function handles Pendable request for system service.
  */
void PendSV_Handler(void)
{
 8002322:	b480      	push	{r7}
 8002324:	af00      	add	r7, sp, #0

  /* USER CODE END PendSV_IRQn 0 */
  /* USER CODE BEGIN PendSV_IRQn 1 */

  /* USER CODE END PendSV_IRQn 1 */
}
 8002326:	bf00      	nop
 8002328:	46bd      	mov	sp, r7
 800232a:	f85d 7b04 	ldr.w	r7, [sp], #4
 800232e:	4770      	bx	lr

08002330 <SysTick_Handler>:

/**
  * @brief This function handles System tick timer.
  */
void SysTick_Handler(void)
{
 8002330:	b580      	push	{r7, lr}
 8002332:	af00      	add	r7, sp, #0
  /* USER CODE BEGIN SysTick_IRQn 0 */

  /* USER CODE END SysTick_IRQn 0 */
  HAL_IncTick();
 8002334:	f000 f962 	bl	80025fc <HAL_IncTick>
  /* USER CODE BEGIN SysTick_IRQn 1 */
  SysTick_CallBack();
 8002338:	f7ff fcf0 	bl	8001d1c <SysTick_CallBack>
  /* USER CODE END SysTick_IRQn 1 */
}
 800233c:	bf00      	nop
 800233e:	bd80      	pop	{r7, pc}

08002340 <TIM2_IRQHandler>:

/**
  * @brief This function handles TIM2 global interrupt.
  */
void TIM2_IRQHandler(void)
{
 8002340:	b580      	push	{r7, lr}
 8002342:	af00      	add	r7, sp, #0
  /* USER CODE BEGIN TIM2_IRQn 0 */

  /* USER CODE END TIM2_IRQn 0 */
  HAL_TIM_IRQHandler(&htim2);
 8002344:	4802      	ldr	r0, [pc, #8]	; (8002350 <TIM2_IRQHandler+0x10>)
 8002346:	f001 fd21 	bl	8003d8c <HAL_TIM_IRQHandler>
  /* USER CODE BEGIN TIM2_IRQn 1 */

  /* USER CODE END TIM2_IRQn 1 */
}
 800234a:	bf00      	nop
 800234c:	bd80      	pop	{r7, pc}
 800234e:	bf00      	nop
 8002350:	20000464 	.word	0x20000464

08002354 <_getpid>:
void initialise_monitor_handles()
{
}

int _getpid(void)
{
 8002354:	b480      	push	{r7}
 8002356:	af00      	add	r7, sp, #0
	return 1;
 8002358:	2301      	movs	r3, #1
}
 800235a:	4618      	mov	r0, r3
 800235c:	46bd      	mov	sp, r7
 800235e:	f85d 7b04 	ldr.w	r7, [sp], #4
 8002362:	4770      	bx	lr

08002364 <_kill>:

int _kill(int pid, int sig)
{
 8002364:	b580      	push	{r7, lr}
 8002366:	b082      	sub	sp, #8
 8002368:	af00      	add	r7, sp, #0
 800236a:	6078      	str	r0, [r7, #4]
 800236c:	6039      	str	r1, [r7, #0]
	errno = EINVAL;
 800236e:	f003 fde9 	bl	8005f44 <__errno>
 8002372:	4603      	mov	r3, r0
 8002374:	2216      	movs	r2, #22
 8002376:	601a      	str	r2, [r3, #0]
	return -1;
 8002378:	f04f 33ff 	mov.w	r3, #4294967295	; 0xffffffff
}
 800237c:	4618      	mov	r0, r3
 800237e:	3708      	adds	r7, #8
 8002380:	46bd      	mov	sp, r7
 8002382:	bd80      	pop	{r7, pc}

08002384 <_exit>:

void _exit (int status)
{
 8002384:	b580      	push	{r7, lr}
 8002386:	b082      	sub	sp, #8
 8002388:	af00      	add	r7, sp, #0
 800238a:	6078      	str	r0, [r7, #4]
	_kill(status, -1);
 800238c:	f04f 31ff 	mov.w	r1, #4294967295	; 0xffffffff
 8002390:	6878      	ldr	r0, [r7, #4]
 8002392:	f7ff ffe7 	bl	8002364 <_kill>
	while (1) {}		/* Make sure we hang here */
 8002396:	e7fe      	b.n	8002396 <_exit+0x12>

08002398 <_read>:
}

__attribute__((weak)) int _read(int file, char *ptr, int len)
{
 8002398:	b580      	push	{r7, lr}
 800239a:	b086      	sub	sp, #24
 800239c:	af00      	add	r7, sp, #0
 800239e:	60f8      	str	r0, [r7, #12]
 80023a0:	60b9      	str	r1, [r7, #8]
 80023a2:	607a      	str	r2, [r7, #4]
	int DataIdx;

	for (DataIdx = 0; DataIdx < len; DataIdx++)
 80023a4:	2300      	movs	r3, #0
 80023a6:	617b      	str	r3, [r7, #20]
 80023a8:	e00a      	b.n	80023c0 <_read+0x28>
	{
		*ptr++ = __io_getchar();
 80023aa:	f3af 8000 	nop.w
 80023ae:	4601      	mov	r1, r0
 80023b0:	68bb      	ldr	r3, [r7, #8]
 80023b2:	1c5a      	adds	r2, r3, #1
 80023b4:	60ba      	str	r2, [r7, #8]
 80023b6:	b2ca      	uxtb	r2, r1
 80023b8:	701a      	strb	r2, [r3, #0]
	for (DataIdx = 0; DataIdx < len; DataIdx++)
 80023ba:	697b      	ldr	r3, [r7, #20]
 80023bc:	3301      	adds	r3, #1
 80023be:	617b      	str	r3, [r7, #20]
 80023c0:	697a      	ldr	r2, [r7, #20]
 80023c2:	687b      	ldr	r3, [r7, #4]
 80023c4:	429a      	cmp	r2, r3
 80023c6:	dbf0      	blt.n	80023aa <_read+0x12>
	}

return len;
 80023c8:	687b      	ldr	r3, [r7, #4]
}
 80023ca:	4618      	mov	r0, r3
 80023cc:	3718      	adds	r7, #24
 80023ce:	46bd      	mov	sp, r7
 80023d0:	bd80      	pop	{r7, pc}

080023d2 <_write>:

__attribute__((weak)) int _write(int file, char *ptr, int len)
{
 80023d2:	b580      	push	{r7, lr}
 80023d4:	b086      	sub	sp, #24
 80023d6:	af00      	add	r7, sp, #0
 80023d8:	60f8      	str	r0, [r7, #12]
 80023da:	60b9      	str	r1, [r7, #8]
 80023dc:	607a      	str	r2, [r7, #4]
	int DataIdx;

	for (DataIdx = 0; DataIdx < len; DataIdx++)
 80023de:	2300      	movs	r3, #0
 80023e0:	617b      	str	r3, [r7, #20]
 80023e2:	e009      	b.n	80023f8 <_write+0x26>
	{
		__io_putchar(*ptr++);
 80023e4:	68bb      	ldr	r3, [r7, #8]
 80023e6:	1c5a      	adds	r2, r3, #1
 80023e8:	60ba      	str	r2, [r7, #8]
 80023ea:	781b      	ldrb	r3, [r3, #0]
 80023ec:	4618      	mov	r0, r3
 80023ee:	f3af 8000 	nop.w
	for (DataIdx = 0; DataIdx < len; DataIdx++)
 80023f2:	697b      	ldr	r3, [r7, #20]
 80023f4:	3301      	adds	r3, #1
 80023f6:	617b      	str	r3, [r7, #20]
 80023f8:	697a      	ldr	r2, [r7, #20]
 80023fa:	687b      	ldr	r3, [r7, #4]
 80023fc:	429a      	cmp	r2, r3
 80023fe:	dbf1      	blt.n	80023e4 <_write+0x12>
	}
	return len;
 8002400:	687b      	ldr	r3, [r7, #4]
}
 8002402:	4618      	mov	r0, r3
 8002404:	3718      	adds	r7, #24
 8002406:	46bd      	mov	sp, r7
 8002408:	bd80      	pop	{r7, pc}

0800240a <_close>:

int _close(int file)
{
 800240a:	b480      	push	{r7}
 800240c:	b083      	sub	sp, #12
 800240e:	af00      	add	r7, sp, #0
 8002410:	6078      	str	r0, [r7, #4]
	return -1;
 8002412:	f04f 33ff 	mov.w	r3, #4294967295	; 0xffffffff
}
 8002416:	4618      	mov	r0, r3
 8002418:	370c      	adds	r7, #12
 800241a:	46bd      	mov	sp, r7
 800241c:	f85d 7b04 	ldr.w	r7, [sp], #4
 8002420:	4770      	bx	lr

08002422 <_fstat>:


int _fstat(int file, struct stat *st)
{
 8002422:	b480      	push	{r7}
 8002424:	b083      	sub	sp, #12
 8002426:	af00      	add	r7, sp, #0
 8002428:	6078      	str	r0, [r7, #4]
 800242a:	6039      	str	r1, [r7, #0]
	st->st_mode = S_IFCHR;
 800242c:	683b      	ldr	r3, [r7, #0]
 800242e:	f44f 5200 	mov.w	r2, #8192	; 0x2000
 8002432:	605a      	str	r2, [r3, #4]
	return 0;
 8002434:	2300      	movs	r3, #0
}
 8002436:	4618      	mov	r0, r3
 8002438:	370c      	adds	r7, #12
 800243a:	46bd      	mov	sp, r7
 800243c:	f85d 7b04 	ldr.w	r7, [sp], #4
 8002440:	4770      	bx	lr

08002442 <_isatty>:

int _isatty(int file)
{
 8002442:	b480      	push	{r7}
 8002444:	b083      	sub	sp, #12
 8002446:	af00      	add	r7, sp, #0
 8002448:	6078      	str	r0, [r7, #4]
	return 1;
 800244a:	2301      	movs	r3, #1
}
 800244c:	4618      	mov	r0, r3
 800244e:	370c      	adds	r7, #12
 8002450:	46bd      	mov	sp, r7
 8002452:	f85d 7b04 	ldr.w	r7, [sp], #4
 8002456:	4770      	bx	lr

08002458 <_lseek>:

int _lseek(int file, int ptr, int dir)
{
 8002458:	b480      	push	{r7}
 800245a:	b085      	sub	sp, #20
 800245c:	af00      	add	r7, sp, #0
 800245e:	60f8      	str	r0, [r7, #12]
 8002460:	60b9      	str	r1, [r7, #8]
 8002462:	607a      	str	r2, [r7, #4]
	return 0;
 8002464:	2300      	movs	r3, #0
}
 8002466:	4618      	mov	r0, r3
 8002468:	3714      	adds	r7, #20
 800246a:	46bd      	mov	sp, r7
 800246c:	f85d 7b04 	ldr.w	r7, [sp], #4
 8002470:	4770      	bx	lr
	...

08002474 <_sbrk>:
 *
 * @param incr Memory size
 * @return Pointer to allocated memory
 */
void *_sbrk(ptrdiff_t incr)
{
 8002474:	b580      	push	{r7, lr}
 8002476:	b086      	sub	sp, #24
 8002478:	af00      	add	r7, sp, #0
 800247a:	6078      	str	r0, [r7, #4]
  extern uint8_t _end; /* Symbol defined in the linker script */
  extern uint8_t _estack; /* Symbol defined in the linker script */
  extern uint32_t _Min_Stack_Size; /* Symbol defined in the linker script */
  const uint32_t stack_limit = (uint32_t)&_estack - (uint32_t)&_Min_Stack_Size;
 800247c:	4a14      	ldr	r2, [pc, #80]	; (80024d0 <_sbrk+0x5c>)
 800247e:	4b15      	ldr	r3, [pc, #84]	; (80024d4 <_sbrk+0x60>)
 8002480:	1ad3      	subs	r3, r2, r3
 8002482:	617b      	str	r3, [r7, #20]
  const uint8_t *max_heap = (uint8_t *)stack_limit;
 8002484:	697b      	ldr	r3, [r7, #20]
 8002486:	613b      	str	r3, [r7, #16]
  uint8_t *prev_heap_end;

  /* Initialize heap end at first call */
  if (NULL == __sbrk_heap_end)
 8002488:	4b13      	ldr	r3, [pc, #76]	; (80024d8 <_sbrk+0x64>)
 800248a:	681b      	ldr	r3, [r3, #0]
 800248c:	2b00      	cmp	r3, #0
 800248e:	d102      	bne.n	8002496 <_sbrk+0x22>
  {
    __sbrk_heap_end = &_end;
 8002490:	4b11      	ldr	r3, [pc, #68]	; (80024d8 <_sbrk+0x64>)
 8002492:	4a12      	ldr	r2, [pc, #72]	; (80024dc <_sbrk+0x68>)
 8002494:	601a      	str	r2, [r3, #0]
  }

  /* Protect heap from growing into the reserved MSP stack */
  if (__sbrk_heap_end + incr > max_heap)
 8002496:	4b10      	ldr	r3, [pc, #64]	; (80024d8 <_sbrk+0x64>)
 8002498:	681a      	ldr	r2, [r3, #0]
 800249a:	687b      	ldr	r3, [r7, #4]
 800249c:	4413      	add	r3, r2
 800249e:	693a      	ldr	r2, [r7, #16]
 80024a0:	429a      	cmp	r2, r3
 80024a2:	d207      	bcs.n	80024b4 <_sbrk+0x40>
  {
    errno = ENOMEM;
 80024a4:	f003 fd4e 	bl	8005f44 <__errno>
 80024a8:	4603      	mov	r3, r0
 80024aa:	220c      	movs	r2, #12
 80024ac:	601a      	str	r2, [r3, #0]
    return (void *)-1;
 80024ae:	f04f 33ff 	mov.w	r3, #4294967295	; 0xffffffff
 80024b2:	e009      	b.n	80024c8 <_sbrk+0x54>
  }

  prev_heap_end = __sbrk_heap_end;
 80024b4:	4b08      	ldr	r3, [pc, #32]	; (80024d8 <_sbrk+0x64>)
 80024b6:	681b      	ldr	r3, [r3, #0]
 80024b8:	60fb      	str	r3, [r7, #12]
  __sbrk_heap_end += incr;
 80024ba:	4b07      	ldr	r3, [pc, #28]	; (80024d8 <_sbrk+0x64>)
 80024bc:	681a      	ldr	r2, [r3, #0]
 80024be:	687b      	ldr	r3, [r7, #4]
 80024c0:	4413      	add	r3, r2
 80024c2:	4a05      	ldr	r2, [pc, #20]	; (80024d8 <_sbrk+0x64>)
 80024c4:	6013      	str	r3, [r2, #0]

  return (void *)prev_heap_end;
 80024c6:	68fb      	ldr	r3, [r7, #12]
}
 80024c8:	4618      	mov	r0, r3
 80024ca:	3718      	adds	r7, #24
 80024cc:	46bd      	mov	sp, r7
 80024ce:	bd80      	pop	{r7, pc}
 80024d0:	20020000 	.word	0x20020000
 80024d4:	00000400 	.word	0x00000400
 80024d8:	20000228 	.word	0x20000228
 80024dc:	20000560 	.word	0x20000560

080024e0 <SystemInit>:
  *         configuration.
  * @param  None
  * @retval None
  */
void SystemInit(void)
{
 80024e0:	b480      	push	{r7}
 80024e2:	af00      	add	r7, sp, #0
  /* FPU settings ------------------------------------------------------------*/
  #if (__FPU_PRESENT == 1) && (__FPU_USED == 1)
    SCB->CPACR |= ((3UL << 10*2)|(3UL << 11*2));  /* set CP10 and CP11 Full Access */
 80024e4:	4b06      	ldr	r3, [pc, #24]	; (8002500 <SystemInit+0x20>)
 80024e6:	f8d3 3088 	ldr.w	r3, [r3, #136]	; 0x88
 80024ea:	4a05      	ldr	r2, [pc, #20]	; (8002500 <SystemInit+0x20>)
 80024ec:	f443 0370 	orr.w	r3, r3, #15728640	; 0xf00000
 80024f0:	f8c2 3088 	str.w	r3, [r2, #136]	; 0x88

  /* Configure the Vector Table location -------------------------------------*/
#if defined(USER_VECT_TAB_ADDRESS)
  SCB->VTOR = VECT_TAB_BASE_ADDRESS | VECT_TAB_OFFSET; /* Vector Table Relocation in Internal SRAM */
#endif /* USER_VECT_TAB_ADDRESS */
}
 80024f4:	bf00      	nop
 80024f6:	46bd      	mov	sp, r7
 80024f8:	f85d 7b04 	ldr.w	r7, [sp], #4
 80024fc:	4770      	bx	lr
 80024fe:	bf00      	nop
 8002500:	e000ed00 	.word	0xe000ed00

08002504 <Reset_Handler>:

    .section  .text.Reset_Handler
  .weak  Reset_Handler
  .type  Reset_Handler, %function
Reset_Handler:  
  ldr   sp, =_estack      /* set stack pointer */
 8002504:	f8df d034 	ldr.w	sp, [pc, #52]	; 800253c <LoopFillZerobss+0x12>

/* Copy the data segment initializers from flash to SRAM */  
  ldr r0, =_sdata
 8002508:	480d      	ldr	r0, [pc, #52]	; (8002540 <LoopFillZerobss+0x16>)
  ldr r1, =_edata
 800250a:	490e      	ldr	r1, [pc, #56]	; (8002544 <LoopFillZerobss+0x1a>)
  ldr r2, =_sidata
 800250c:	4a0e      	ldr	r2, [pc, #56]	; (8002548 <LoopFillZerobss+0x1e>)
  movs r3, #0
 800250e:	2300      	movs	r3, #0
  b LoopCopyDataInit
 8002510:	e002      	b.n	8002518 <LoopCopyDataInit>

08002512 <CopyDataInit>:

CopyDataInit:
  ldr r4, [r2, r3]
 8002512:	58d4      	ldr	r4, [r2, r3]
  str r4, [r0, r3]
 8002514:	50c4      	str	r4, [r0, r3]
  adds r3, r3, #4
 8002516:	3304      	adds	r3, #4

08002518 <LoopCopyDataInit>:

LoopCopyDataInit:
  adds r4, r0, r3
 8002518:	18c4      	adds	r4, r0, r3
  cmp r4, r1
 800251a:	428c      	cmp	r4, r1
  bcc CopyDataInit
 800251c:	d3f9      	bcc.n	8002512 <CopyDataInit>
  
/* Zero fill the bss segment. */
  ldr r2, =_sbss
 800251e:	4a0b      	ldr	r2, [pc, #44]	; (800254c <LoopFillZerobss+0x22>)
  ldr r4, =_ebss
 8002520:	4c0b      	ldr	r4, [pc, #44]	; (8002550 <LoopFillZerobss+0x26>)
  movs r3, #0
 8002522:	2300      	movs	r3, #0
  b LoopFillZerobss
 8002524:	e001      	b.n	800252a <LoopFillZerobss>

08002526 <FillZerobss>:

FillZerobss:
  str  r3, [r2]
 8002526:	6013      	str	r3, [r2, #0]
  adds r2, r2, #4
 8002528:	3204      	adds	r2, #4

0800252a <LoopFillZerobss>:

LoopFillZerobss:
  cmp r2, r4
 800252a:	42a2      	cmp	r2, r4
  bcc FillZerobss
 800252c:	d3fb      	bcc.n	8002526 <FillZerobss>

/* Call the clock system intitialization function.*/
  bl  SystemInit   
 800252e:	f7ff ffd7 	bl	80024e0 <SystemInit>
/* Call static constructors */
    bl __libc_init_array
 8002532:	f003 fd0d 	bl	8005f50 <__libc_init_array>
/* Call the application's entry point.*/
  bl  main
 8002536:	f7fe ff05 	bl	8001344 <main>
  bx  lr    
 800253a:	4770      	bx	lr
  ldr   sp, =_estack      /* set stack pointer */
 800253c:	20020000 	.word	0x20020000
  ldr r0, =_sdata
 8002540:	20000000 	.word	0x20000000
  ldr r1, =_edata
 8002544:	200001f8 	.word	0x200001f8
  ldr r2, =_sidata
 8002548:	08009184 	.word	0x08009184
  ldr r2, =_sbss
 800254c:	200001f8 	.word	0x200001f8
  ldr r4, =_ebss
 8002550:	2000055c 	.word	0x2000055c

08002554 <ADC_IRQHandler>:
 * @retval None       
*/
    .section  .text.Default_Handler,"ax",%progbits
Default_Handler:
Infinite_Loop:
  b  Infinite_Loop
 8002554:	e7fe      	b.n	8002554 <ADC_IRQHandler>
	...

08002558 <HAL_Init>:
  *         need to ensure that the SysTick time base is always set to 1 millisecond
  *         to have correct HAL operation.
  * @retval HAL status
  */
HAL_StatusTypeDef HAL_Init(void)
{
 8002558:	b580      	push	{r7, lr}
 800255a:	af00      	add	r7, sp, #0
  /* Configure Flash prefetch, Instruction cache, Data cache */ 
#if (INSTRUCTION_CACHE_ENABLE != 0U)
  __HAL_FLASH_INSTRUCTION_CACHE_ENABLE();
 800255c:	4b0e      	ldr	r3, [pc, #56]	; (8002598 <HAL_Init+0x40>)
 800255e:	681b      	ldr	r3, [r3, #0]
 8002560:	4a0d      	ldr	r2, [pc, #52]	; (8002598 <HAL_Init+0x40>)
 8002562:	f443 7300 	orr.w	r3, r3, #512	; 0x200
 8002566:	6013      	str	r3, [r2, #0]
#endif /* INSTRUCTION_CACHE_ENABLE */

#if (DATA_CACHE_ENABLE != 0U)
  __HAL_FLASH_DATA_CACHE_ENABLE();
 8002568:	4b0b      	ldr	r3, [pc, #44]	; (8002598 <HAL_Init+0x40>)
 800256a:	681b      	ldr	r3, [r3, #0]
 800256c:	4a0a      	ldr	r2, [pc, #40]	; (8002598 <HAL_Init+0x40>)
 800256e:	f443 6380 	orr.w	r3, r3, #1024	; 0x400
 8002572:	6013      	str	r3, [r2, #0]
#endif /* DATA_CACHE_ENABLE */

#if (PREFETCH_ENABLE != 0U)
  __HAL_FLASH_PREFETCH_BUFFER_ENABLE();
 8002574:	4b08      	ldr	r3, [pc, #32]	; (8002598 <HAL_Init+0x40>)
 8002576:	681b      	ldr	r3, [r3, #0]
 8002578:	4a07      	ldr	r2, [pc, #28]	; (8002598 <HAL_Init+0x40>)
 800257a:	f443 7380 	orr.w	r3, r3, #256	; 0x100
 800257e:	6013      	str	r3, [r2, #0]
#endif /* PREFETCH_ENABLE */

  /* Set Interrupt Group Priority */
  HAL_NVIC_SetPriorityGrouping(NVIC_PRIORITYGROUP_4);
 8002580:	2003      	movs	r0, #3
 8002582:	f000 f94f 	bl	8002824 <HAL_NVIC_SetPriorityGrouping>

  /* Use systick as time base source and configure 1ms tick (default clock after Reset is HSI) */
  HAL_InitTick(TICK_INT_PRIORITY);
 8002586:	2000      	movs	r0, #0
 8002588:	f000 f808 	bl	800259c <HAL_InitTick>

  /* Init the low level hardware */
  HAL_MspInit();
 800258c:	f7ff fc3e 	bl	8001e0c <HAL_MspInit>

  /* Return function status */
  return HAL_OK;
 8002590:	2300      	movs	r3, #0
}
 8002592:	4618      	mov	r0, r3
 8002594:	bd80      	pop	{r7, pc}
 8002596:	bf00      	nop
 8002598:	40023c00 	.word	0x40023c00

0800259c <HAL_InitTick>:
  *       implementation  in user file.
  * @param TickPriority Tick interrupt priority.
  * @retval HAL status
  */
__weak HAL_StatusTypeDef HAL_InitTick(uint32_t TickPriority)
{
 800259c:	b580      	push	{r7, lr}
 800259e:	b082      	sub	sp, #8
 80025a0:	af00      	add	r7, sp, #0
 80025a2:	6078      	str	r0, [r7, #4]
  /* Configure the SysTick to have interrupt in 1ms time basis*/
  if (HAL_SYSTICK_Config(SystemCoreClock / (1000U / uwTickFreq)) > 0U)
 80025a4:	4b12      	ldr	r3, [pc, #72]	; (80025f0 <HAL_InitTick+0x54>)
 80025a6:	681a      	ldr	r2, [r3, #0]
 80025a8:	4b12      	ldr	r3, [pc, #72]	; (80025f4 <HAL_InitTick+0x58>)
 80025aa:	781b      	ldrb	r3, [r3, #0]
 80025ac:	4619      	mov	r1, r3
 80025ae:	f44f 737a 	mov.w	r3, #1000	; 0x3e8
 80025b2:	fbb3 f3f1 	udiv	r3, r3, r1
 80025b6:	fbb2 f3f3 	udiv	r3, r2, r3
 80025ba:	4618      	mov	r0, r3
 80025bc:	f000 f967 	bl	800288e <HAL_SYSTICK_Config>
 80025c0:	4603      	mov	r3, r0
 80025c2:	2b00      	cmp	r3, #0
 80025c4:	d001      	beq.n	80025ca <HAL_InitTick+0x2e>
  {
    return HAL_ERROR;
 80025c6:	2301      	movs	r3, #1
 80025c8:	e00e      	b.n	80025e8 <HAL_InitTick+0x4c>
  }

  /* Configure the SysTick IRQ priority */
  if (TickPriority < (1UL << __NVIC_PRIO_BITS))
 80025ca:	687b      	ldr	r3, [r7, #4]
 80025cc:	2b0f      	cmp	r3, #15
 80025ce:	d80a      	bhi.n	80025e6 <HAL_InitTick+0x4a>
  {
    HAL_NVIC_SetPriority(SysTick_IRQn, TickPriority, 0U);
 80025d0:	2200      	movs	r2, #0
 80025d2:	6879      	ldr	r1, [r7, #4]
 80025d4:	f04f 30ff 	mov.w	r0, #4294967295	; 0xffffffff
 80025d8:	f000 f92f 	bl	800283a <HAL_NVIC_SetPriority>
    uwTickPrio = TickPriority;
 80025dc:	4a06      	ldr	r2, [pc, #24]	; (80025f8 <HAL_InitTick+0x5c>)
 80025de:	687b      	ldr	r3, [r7, #4]
 80025e0:	6013      	str	r3, [r2, #0]
  {
    return HAL_ERROR;
  }

  /* Return function status */
  return HAL_OK;
 80025e2:	2300      	movs	r3, #0
 80025e4:	e000      	b.n	80025e8 <HAL_InitTick+0x4c>
    return HAL_ERROR;
 80025e6:	2301      	movs	r3, #1
}
 80025e8:	4618      	mov	r0, r3
 80025ea:	3708      	adds	r7, #8
 80025ec:	46bd      	mov	sp, r7
 80025ee:	bd80      	pop	{r7, pc}
 80025f0:	2000001c 	.word	0x2000001c
 80025f4:	20000024 	.word	0x20000024
 80025f8:	20000020 	.word	0x20000020

080025fc <HAL_IncTick>:
 * @note This function is declared as __weak to be overwritten in case of other 
  *      implementations in user file.
  * @retval None
  */
__weak void HAL_IncTick(void)
{
 80025fc:	b480      	push	{r7}
 80025fe:	af00      	add	r7, sp, #0
  uwTick += uwTickFreq;
 8002600:	4b06      	ldr	r3, [pc, #24]	; (800261c <HAL_IncTick+0x20>)
 8002602:	781b      	ldrb	r3, [r3, #0]
 8002604:	461a      	mov	r2, r3
 8002606:	4b06      	ldr	r3, [pc, #24]	; (8002620 <HAL_IncTick+0x24>)
 8002608:	681b      	ldr	r3, [r3, #0]
 800260a:	4413      	add	r3, r2
 800260c:	4a04      	ldr	r2, [pc, #16]	; (8002620 <HAL_IncTick+0x24>)
 800260e:	6013      	str	r3, [r2, #0]
}
 8002610:	bf00      	nop
 8002612:	46bd      	mov	sp, r7
 8002614:	f85d 7b04 	ldr.w	r7, [sp], #4
 8002618:	4770      	bx	lr
 800261a:	bf00      	nop
 800261c:	20000024 	.word	0x20000024
 8002620:	20000548 	.word	0x20000548

08002624 <HAL_GetTick>:
  * @note This function is declared as __weak to be overwritten in case of other 
  *       implementations in user file.
  * @retval tick value
  */
__weak uint32_t HAL_GetTick(void)
{
 8002624:	b480      	push	{r7}
 8002626:	af00      	add	r7, sp, #0
  return uwTick;
 8002628:	4b03      	ldr	r3, [pc, #12]	; (8002638 <HAL_GetTick+0x14>)
 800262a:	681b      	ldr	r3, [r3, #0]
}
 800262c:	4618      	mov	r0, r3
 800262e:	46bd      	mov	sp, r7
 8002630:	f85d 7b04 	ldr.w	r7, [sp], #4
 8002634:	4770      	bx	lr
 8002636:	bf00      	nop
 8002638:	20000548 	.word	0x20000548

0800263c <HAL_Delay>:
  *       implementations in user file.
  * @param Delay specifies the delay time length, in milliseconds.
  * @retval None
  */
__weak void HAL_Delay(uint32_t Delay)
{
 800263c:	b580      	push	{r7, lr}
 800263e:	b084      	sub	sp, #16
 8002640:	af00      	add	r7, sp, #0
 8002642:	6078      	str	r0, [r7, #4]
  uint32_t tickstart = HAL_GetTick();
 8002644:	f7ff ffee 	bl	8002624 <HAL_GetTick>
 8002648:	60b8      	str	r0, [r7, #8]
  uint32_t wait = Delay;
 800264a:	687b      	ldr	r3, [r7, #4]
 800264c:	60fb      	str	r3, [r7, #12]

  /* Add a freq to guarantee minimum wait */
  if (wait < HAL_MAX_DELAY)
 800264e:	68fb      	ldr	r3, [r7, #12]
 8002650:	f1b3 3fff 	cmp.w	r3, #4294967295	; 0xffffffff
 8002654:	d005      	beq.n	8002662 <HAL_Delay+0x26>
  {
    wait += (uint32_t)(uwTickFreq);
 8002656:	4b0a      	ldr	r3, [pc, #40]	; (8002680 <HAL_Delay+0x44>)
 8002658:	781b      	ldrb	r3, [r3, #0]
 800265a:	461a      	mov	r2, r3
 800265c:	68fb      	ldr	r3, [r7, #12]
 800265e:	4413      	add	r3, r2
 8002660:	60fb      	str	r3, [r7, #12]
  }

  while((HAL_GetTick() - tickstart) < wait)
 8002662:	bf00      	nop
 8002664:	f7ff ffde 	bl	8002624 <HAL_GetTick>
 8002668:	4602      	mov	r2, r0
 800266a:	68bb      	ldr	r3, [r7, #8]
 800266c:	1ad3      	subs	r3, r2, r3
 800266e:	68fa      	ldr	r2, [r7, #12]
 8002670:	429a      	cmp	r2, r3
 8002672:	d8f7      	bhi.n	8002664 <HAL_Delay+0x28>
  {
  }
}
 8002674:	bf00      	nop
 8002676:	bf00      	nop
 8002678:	3710      	adds	r7, #16
 800267a:	46bd      	mov	sp, r7
 800267c:	bd80      	pop	{r7, pc}
 800267e:	bf00      	nop
 8002680:	20000024 	.word	0x20000024

08002684 <__NVIC_SetPriorityGrouping>:
           In case of a conflict between priority grouping and available
           priority bits (__NVIC_PRIO_BITS), the smallest possible priority group is set.
  \param [in]      PriorityGroup  Priority grouping field.
 */
__STATIC_INLINE void __NVIC_SetPriorityGrouping(uint32_t PriorityGroup)
{
 8002684:	b480      	push	{r7}
 8002686:	b085      	sub	sp, #20
 8002688:	af00      	add	r7, sp, #0
 800268a:	6078      	str	r0, [r7, #4]
  uint32_t reg_value;
  uint32_t PriorityGroupTmp = (PriorityGroup & (uint32_t)0x07UL);             /* only values 0..7 are used          */
 800268c:	687b      	ldr	r3, [r7, #4]
 800268e:	f003 0307 	and.w	r3, r3, #7
 8002692:	60fb      	str	r3, [r7, #12]

  reg_value  =  SCB->AIRCR;                                                   /* read old register configuration    */
 8002694:	4b0c      	ldr	r3, [pc, #48]	; (80026c8 <__NVIC_SetPriorityGrouping+0x44>)
 8002696:	68db      	ldr	r3, [r3, #12]
 8002698:	60bb      	str	r3, [r7, #8]
  reg_value &= ~((uint32_t)(SCB_AIRCR_VECTKEY_Msk | SCB_AIRCR_PRIGROUP_Msk)); /* clear bits to change               */
 800269a:	68ba      	ldr	r2, [r7, #8]
 800269c:	f64f 03ff 	movw	r3, #63743	; 0xf8ff
 80026a0:	4013      	ands	r3, r2
 80026a2:	60bb      	str	r3, [r7, #8]
  reg_value  =  (reg_value                                   |
                ((uint32_t)0x5FAUL << SCB_AIRCR_VECTKEY_Pos) |
                (PriorityGroupTmp << SCB_AIRCR_PRIGROUP_Pos)  );              /* Insert write key and priority group */
 80026a4:	68fb      	ldr	r3, [r7, #12]
 80026a6:	021a      	lsls	r2, r3, #8
                ((uint32_t)0x5FAUL << SCB_AIRCR_VECTKEY_Pos) |
 80026a8:	68bb      	ldr	r3, [r7, #8]
 80026aa:	4313      	orrs	r3, r2
  reg_value  =  (reg_value                                   |
 80026ac:	f043 63bf 	orr.w	r3, r3, #100139008	; 0x5f80000
 80026b0:	f443 3300 	orr.w	r3, r3, #131072	; 0x20000
 80026b4:	60bb      	str	r3, [r7, #8]
  SCB->AIRCR =  reg_value;
 80026b6:	4a04      	ldr	r2, [pc, #16]	; (80026c8 <__NVIC_SetPriorityGrouping+0x44>)
 80026b8:	68bb      	ldr	r3, [r7, #8]
 80026ba:	60d3      	str	r3, [r2, #12]
}
 80026bc:	bf00      	nop
 80026be:	3714      	adds	r7, #20
 80026c0:	46bd      	mov	sp, r7
 80026c2:	f85d 7b04 	ldr.w	r7, [sp], #4
 80026c6:	4770      	bx	lr
 80026c8:	e000ed00 	.word	0xe000ed00

080026cc <__NVIC_GetPriorityGrouping>:
  \brief   Get Priority Grouping
  \details Reads the priority grouping field from the NVIC Interrupt Controller.
  \return                Priority grouping field (SCB->AIRCR [10:8] PRIGROUP field).
 */
__STATIC_INLINE uint32_t __NVIC_GetPriorityGrouping(void)
{
 80026cc:	b480      	push	{r7}
 80026ce:	af00      	add	r7, sp, #0
  return ((uint32_t)((SCB->AIRCR & SCB_AIRCR_PRIGROUP_Msk) >> SCB_AIRCR_PRIGROUP_Pos));
 80026d0:	4b04      	ldr	r3, [pc, #16]	; (80026e4 <__NVIC_GetPriorityGrouping+0x18>)
 80026d2:	68db      	ldr	r3, [r3, #12]
 80026d4:	0a1b      	lsrs	r3, r3, #8
 80026d6:	f003 0307 	and.w	r3, r3, #7
}
 80026da:	4618      	mov	r0, r3
 80026dc:	46bd      	mov	sp, r7
 80026de:	f85d 7b04 	ldr.w	r7, [sp], #4
 80026e2:	4770      	bx	lr
 80026e4:	e000ed00 	.word	0xe000ed00

080026e8 <__NVIC_EnableIRQ>:
  \details Enables a device specific interrupt in the NVIC interrupt controller.
  \param [in]      IRQn  Device specific interrupt number.
  \note    IRQn must not be negative.
 */
__STATIC_INLINE void __NVIC_EnableIRQ(IRQn_Type IRQn)
{
 80026e8:	b480      	push	{r7}
 80026ea:	b083      	sub	sp, #12
 80026ec:	af00      	add	r7, sp, #0
 80026ee:	4603      	mov	r3, r0
 80026f0:	71fb      	strb	r3, [r7, #7]
  if ((int32_t)(IRQn) >= 0)
 80026f2:	f997 3007 	ldrsb.w	r3, [r7, #7]
 80026f6:	2b00      	cmp	r3, #0
 80026f8:	db0b      	blt.n	8002712 <__NVIC_EnableIRQ+0x2a>
  {
    NVIC->ISER[(((uint32_t)IRQn) >> 5UL)] = (uint32_t)(1UL << (((uint32_t)IRQn) & 0x1FUL));
 80026fa:	79fb      	ldrb	r3, [r7, #7]
 80026fc:	f003 021f 	and.w	r2, r3, #31
 8002700:	4907      	ldr	r1, [pc, #28]	; (8002720 <__NVIC_EnableIRQ+0x38>)
 8002702:	f997 3007 	ldrsb.w	r3, [r7, #7]
 8002706:	095b      	lsrs	r3, r3, #5
 8002708:	2001      	movs	r0, #1
 800270a:	fa00 f202 	lsl.w	r2, r0, r2
 800270e:	f841 2023 	str.w	r2, [r1, r3, lsl #2]
  }
}
 8002712:	bf00      	nop
 8002714:	370c      	adds	r7, #12
 8002716:	46bd      	mov	sp, r7
 8002718:	f85d 7b04 	ldr.w	r7, [sp], #4
 800271c:	4770      	bx	lr
 800271e:	bf00      	nop
 8002720:	e000e100 	.word	0xe000e100

08002724 <__NVIC_SetPriority>:
  \param [in]      IRQn  Interrupt number.
  \param [in]  priority  Priority to set.
  \note    The priority cannot be set for every processor exception.
 */
__STATIC_INLINE void __NVIC_SetPriority(IRQn_Type IRQn, uint32_t priority)
{
 8002724:	b480      	push	{r7}
 8002726:	b083      	sub	sp, #12
 8002728:	af00      	add	r7, sp, #0
 800272a:	4603      	mov	r3, r0
 800272c:	6039      	str	r1, [r7, #0]
 800272e:	71fb      	strb	r3, [r7, #7]
  if ((int32_t)(IRQn) >= 0)
 8002730:	f997 3007 	ldrsb.w	r3, [r7, #7]
 8002734:	2b00      	cmp	r3, #0
 8002736:	db0a      	blt.n	800274e <__NVIC_SetPriority+0x2a>
  {
    NVIC->IP[((uint32_t)IRQn)]               = (uint8_t)((priority << (8U - __NVIC_PRIO_BITS)) & (uint32_t)0xFFUL);
 8002738:	683b      	ldr	r3, [r7, #0]
 800273a:	b2da      	uxtb	r2, r3
 800273c:	490c      	ldr	r1, [pc, #48]	; (8002770 <__NVIC_SetPriority+0x4c>)
 800273e:	f997 3007 	ldrsb.w	r3, [r7, #7]
 8002742:	0112      	lsls	r2, r2, #4
 8002744:	b2d2      	uxtb	r2, r2
 8002746:	440b      	add	r3, r1
 8002748:	f883 2300 	strb.w	r2, [r3, #768]	; 0x300
  }
  else
  {
    SCB->SHP[(((uint32_t)IRQn) & 0xFUL)-4UL] = (uint8_t)((priority << (8U - __NVIC_PRIO_BITS)) & (uint32_t)0xFFUL);
  }
}
 800274c:	e00a      	b.n	8002764 <__NVIC_SetPriority+0x40>
    SCB->SHP[(((uint32_t)IRQn) & 0xFUL)-4UL] = (uint8_t)((priority << (8U - __NVIC_PRIO_BITS)) & (uint32_t)0xFFUL);
 800274e:	683b      	ldr	r3, [r7, #0]
 8002750:	b2da      	uxtb	r2, r3
 8002752:	4908      	ldr	r1, [pc, #32]	; (8002774 <__NVIC_SetPriority+0x50>)
 8002754:	79fb      	ldrb	r3, [r7, #7]
 8002756:	f003 030f 	and.w	r3, r3, #15
 800275a:	3b04      	subs	r3, #4
 800275c:	0112      	lsls	r2, r2, #4
 800275e:	b2d2      	uxtb	r2, r2
 8002760:	440b      	add	r3, r1
 8002762:	761a      	strb	r2, [r3, #24]
}
 8002764:	bf00      	nop
 8002766:	370c      	adds	r7, #12
 8002768:	46bd      	mov	sp, r7
 800276a:	f85d 7b04 	ldr.w	r7, [sp], #4
 800276e:	4770      	bx	lr
 8002770:	e000e100 	.word	0xe000e100
 8002774:	e000ed00 	.word	0xe000ed00

08002778 <NVIC_EncodePriority>:
  \param [in]   PreemptPriority  Preemptive priority value (starting from 0).
  \param [in]       SubPriority  Subpriority value (starting from 0).
  \return                        Encoded priority. Value can be used in the function \ref NVIC_SetPriority().
 */
__STATIC_INLINE uint32_t NVIC_EncodePriority (uint32_t PriorityGroup, uint32_t PreemptPriority, uint32_t SubPriority)
{
 8002778:	b480      	push	{r7}
 800277a:	b089      	sub	sp, #36	; 0x24
 800277c:	af00      	add	r7, sp, #0
 800277e:	60f8      	str	r0, [r7, #12]
 8002780:	60b9      	str	r1, [r7, #8]
 8002782:	607a      	str	r2, [r7, #4]
  uint32_t PriorityGroupTmp = (PriorityGroup & (uint32_t)0x07UL);   /* only values 0..7 are used          */
 8002784:	68fb      	ldr	r3, [r7, #12]
 8002786:	f003 0307 	and.w	r3, r3, #7
 800278a:	61fb      	str	r3, [r7, #28]
  uint32_t PreemptPriorityBits;
  uint32_t SubPriorityBits;

  PreemptPriorityBits = ((7UL - PriorityGroupTmp) > (uint32_t)(__NVIC_PRIO_BITS)) ? (uint32_t)(__NVIC_PRIO_BITS) : (uint32_t)(7UL - PriorityGroupTmp);
 800278c:	69fb      	ldr	r3, [r7, #28]
 800278e:	f1c3 0307 	rsb	r3, r3, #7
 8002792:	2b04      	cmp	r3, #4
 8002794:	bf28      	it	cs
 8002796:	2304      	movcs	r3, #4
 8002798:	61bb      	str	r3, [r7, #24]
  SubPriorityBits     = ((PriorityGroupTmp + (uint32_t)(__NVIC_PRIO_BITS)) < (uint32_t)7UL) ? (uint32_t)0UL : (uint32_t)((PriorityGroupTmp - 7UL) + (uint32_t)(__NVIC_PRIO_BITS));
 800279a:	69fb      	ldr	r3, [r7, #28]
 800279c:	3304      	adds	r3, #4
 800279e:	2b06      	cmp	r3, #6
 80027a0:	d902      	bls.n	80027a8 <NVIC_EncodePriority+0x30>
 80027a2:	69fb      	ldr	r3, [r7, #28]
 80027a4:	3b03      	subs	r3, #3
 80027a6:	e000      	b.n	80027aa <NVIC_EncodePriority+0x32>
 80027a8:	2300      	movs	r3, #0
 80027aa:	617b      	str	r3, [r7, #20]

  return (
           ((PreemptPriority & (uint32_t)((1UL << (PreemptPriorityBits)) - 1UL)) << SubPriorityBits) |
 80027ac:	f04f 32ff 	mov.w	r2, #4294967295	; 0xffffffff
 80027b0:	69bb      	ldr	r3, [r7, #24]
 80027b2:	fa02 f303 	lsl.w	r3, r2, r3
 80027b6:	43da      	mvns	r2, r3
 80027b8:	68bb      	ldr	r3, [r7, #8]
 80027ba:	401a      	ands	r2, r3
 80027bc:	697b      	ldr	r3, [r7, #20]
 80027be:	409a      	lsls	r2, r3
           ((SubPriority     & (uint32_t)((1UL << (SubPriorityBits    )) - 1UL)))
 80027c0:	f04f 31ff 	mov.w	r1, #4294967295	; 0xffffffff
 80027c4:	697b      	ldr	r3, [r7, #20]
 80027c6:	fa01 f303 	lsl.w	r3, r1, r3
 80027ca:	43d9      	mvns	r1, r3
 80027cc:	687b      	ldr	r3, [r7, #4]
 80027ce:	400b      	ands	r3, r1
           ((PreemptPriority & (uint32_t)((1UL << (PreemptPriorityBits)) - 1UL)) << SubPriorityBits) |
 80027d0:	4313      	orrs	r3, r2
         );
}
 80027d2:	4618      	mov	r0, r3
 80027d4:	3724      	adds	r7, #36	; 0x24
 80027d6:	46bd      	mov	sp, r7
 80027d8:	f85d 7b04 	ldr.w	r7, [sp], #4
 80027dc:	4770      	bx	lr
	...

080027e0 <SysTick_Config>:
  \note    When the variable <b>__Vendor_SysTickConfig</b> is set to 1, then the
           function <b>SysTick_Config</b> is not included. In this case, the file <b><i>device</i>.h</b>
           must contain a vendor-specific implementation of this function.
 */
__STATIC_INLINE uint32_t SysTick_Config(uint32_t ticks)
{
 80027e0:	b580      	push	{r7, lr}
 80027e2:	b082      	sub	sp, #8
 80027e4:	af00      	add	r7, sp, #0
 80027e6:	6078      	str	r0, [r7, #4]
  if ((ticks - 1UL) > SysTick_LOAD_RELOAD_Msk)
 80027e8:	687b      	ldr	r3, [r7, #4]
 80027ea:	3b01      	subs	r3, #1
 80027ec:	f1b3 7f80 	cmp.w	r3, #16777216	; 0x1000000
 80027f0:	d301      	bcc.n	80027f6 <SysTick_Config+0x16>
  {
    return (1UL);                                                   /* Reload value impossible */
 80027f2:	2301      	movs	r3, #1
 80027f4:	e00f      	b.n	8002816 <SysTick_Config+0x36>
  }

  SysTick->LOAD  = (uint32_t)(ticks - 1UL);                         /* set reload register */
 80027f6:	4a0a      	ldr	r2, [pc, #40]	; (8002820 <SysTick_Config+0x40>)
 80027f8:	687b      	ldr	r3, [r7, #4]
 80027fa:	3b01      	subs	r3, #1
 80027fc:	6053      	str	r3, [r2, #4]
  NVIC_SetPriority (SysTick_IRQn, (1UL << __NVIC_PRIO_BITS) - 1UL); /* set Priority for Systick Interrupt */
 80027fe:	210f      	movs	r1, #15
 8002800:	f04f 30ff 	mov.w	r0, #4294967295	; 0xffffffff
 8002804:	f7ff ff8e 	bl	8002724 <__NVIC_SetPriority>
  SysTick->VAL   = 0UL;                                             /* Load the SysTick Counter Value */
 8002808:	4b05      	ldr	r3, [pc, #20]	; (8002820 <SysTick_Config+0x40>)
 800280a:	2200      	movs	r2, #0
 800280c:	609a      	str	r2, [r3, #8]
  SysTick->CTRL  = SysTick_CTRL_CLKSOURCE_Msk |
 800280e:	4b04      	ldr	r3, [pc, #16]	; (8002820 <SysTick_Config+0x40>)
 8002810:	2207      	movs	r2, #7
 8002812:	601a      	str	r2, [r3, #0]
                   SysTick_CTRL_TICKINT_Msk   |
                   SysTick_CTRL_ENABLE_Msk;                         /* Enable SysTick IRQ and SysTick Timer */
  return (0UL);                                                     /* Function successful */
 8002814:	2300      	movs	r3, #0
}
 8002816:	4618      	mov	r0, r3
 8002818:	3708      	adds	r7, #8
 800281a:	46bd      	mov	sp, r7
 800281c:	bd80      	pop	{r7, pc}
 800281e:	bf00      	nop
 8002820:	e000e010 	.word	0xe000e010

08002824 <HAL_NVIC_SetPriorityGrouping>:
  * @note   When the NVIC_PriorityGroup_0 is selected, IRQ preemption is no more possible. 
  *         The pending IRQ priority will be managed only by the subpriority. 
  * @retval None
  */
void HAL_NVIC_SetPriorityGrouping(uint32_t PriorityGroup)
{
 8002824:	b580      	push	{r7, lr}
 8002826:	b082      	sub	sp, #8
 8002828:	af00      	add	r7, sp, #0
 800282a:	6078      	str	r0, [r7, #4]
  /* Check the parameters */
  assert_param(IS_NVIC_PRIORITY_GROUP(PriorityGroup));
  
  /* Set the PRIGROUP[10:8] bits according to the PriorityGroup parameter value */
  NVIC_SetPriorityGrouping(PriorityGroup);
 800282c:	6878      	ldr	r0, [r7, #4]
 800282e:	f7ff ff29 	bl	8002684 <__NVIC_SetPriorityGrouping>
}
 8002832:	bf00      	nop
 8002834:	3708      	adds	r7, #8
 8002836:	46bd      	mov	sp, r7
 8002838:	bd80      	pop	{r7, pc}

0800283a <HAL_NVIC_SetPriority>:
  *         This parameter can be a value between 0 and 15
  *         A lower priority value indicates a higher priority.          
  * @retval None
  */
void HAL_NVIC_SetPriority(IRQn_Type IRQn, uint32_t PreemptPriority, uint32_t SubPriority)
{ 
 800283a:	b580      	push	{r7, lr}
 800283c:	b086      	sub	sp, #24
 800283e:	af00      	add	r7, sp, #0
 8002840:	4603      	mov	r3, r0
 8002842:	60b9      	str	r1, [r7, #8]
 8002844:	607a      	str	r2, [r7, #4]
 8002846:	73fb      	strb	r3, [r7, #15]
  uint32_t prioritygroup = 0x00U;
 8002848:	2300      	movs	r3, #0
 800284a:	617b      	str	r3, [r7, #20]
  
  /* Check the parameters */
  assert_param(IS_NVIC_SUB_PRIORITY(SubPriority));
  assert_param(IS_NVIC_PREEMPTION_PRIORITY(PreemptPriority));
  
  prioritygroup = NVIC_GetPriorityGrouping();
 800284c:	f7ff ff3e 	bl	80026cc <__NVIC_GetPriorityGrouping>
 8002850:	6178      	str	r0, [r7, #20]
  
  NVIC_SetPriority(IRQn, NVIC_EncodePriority(prioritygroup, PreemptPriority, SubPriority));
 8002852:	687a      	ldr	r2, [r7, #4]
 8002854:	68b9      	ldr	r1, [r7, #8]
 8002856:	6978      	ldr	r0, [r7, #20]
 8002858:	f7ff ff8e 	bl	8002778 <NVIC_EncodePriority>
 800285c:	4602      	mov	r2, r0
 800285e:	f997 300f 	ldrsb.w	r3, [r7, #15]
 8002862:	4611      	mov	r1, r2
 8002864:	4618      	mov	r0, r3
 8002866:	f7ff ff5d 	bl	8002724 <__NVIC_SetPriority>
}
 800286a:	bf00      	nop
 800286c:	3718      	adds	r7, #24
 800286e:	46bd      	mov	sp, r7
 8002870:	bd80      	pop	{r7, pc}

08002872 <HAL_NVIC_EnableIRQ>:
  *         This parameter can be an enumerator of IRQn_Type enumeration
  *         (For the complete STM32 Devices IRQ Channels list, please refer to the appropriate CMSIS device file (stm32f4xxxx.h))
  * @retval None
  */
void HAL_NVIC_EnableIRQ(IRQn_Type IRQn)
{
 8002872:	b580      	push	{r7, lr}
 8002874:	b082      	sub	sp, #8
 8002876:	af00      	add	r7, sp, #0
 8002878:	4603      	mov	r3, r0
 800287a:	71fb      	strb	r3, [r7, #7]
  /* Check the parameters */
  assert_param(IS_NVIC_DEVICE_IRQ(IRQn));
  
  /* Enable interrupt */
  NVIC_EnableIRQ(IRQn);
 800287c:	f997 3007 	ldrsb.w	r3, [r7, #7]
 8002880:	4618      	mov	r0, r3
 8002882:	f7ff ff31 	bl	80026e8 <__NVIC_EnableIRQ>
}
 8002886:	bf00      	nop
 8002888:	3708      	adds	r7, #8
 800288a:	46bd      	mov	sp, r7
 800288c:	bd80      	pop	{r7, pc}

0800288e <HAL_SYSTICK_Config>:
  * @param  TicksNumb Specifies the ticks Number of ticks between two interrupts.
  * @retval status:  - 0  Function succeeded.
  *                  - 1  Function failed.
  */
uint32_t HAL_SYSTICK_Config(uint32_t TicksNumb)
{
 800288e:	b580      	push	{r7, lr}
 8002890:	b082      	sub	sp, #8
 8002892:	af00      	add	r7, sp, #0
 8002894:	6078      	str	r0, [r7, #4]
   return SysTick_Config(TicksNumb);
 8002896:	6878      	ldr	r0, [r7, #4]
 8002898:	f7ff ffa2 	bl	80027e0 <SysTick_Config>
 800289c:	4603      	mov	r3, r0
}
 800289e:	4618      	mov	r0, r3
 80028a0:	3708      	adds	r7, #8
 80028a2:	46bd      	mov	sp, r7
 80028a4:	bd80      	pop	{r7, pc}
	...

080028a8 <HAL_GPIO_Init>:
  * @param  GPIO_Init pointer to a GPIO_InitTypeDef structure that contains
  *         the configuration information for the specified GPIO peripheral.
  * @retval None
  */
void HAL_GPIO_Init(GPIO_TypeDef  *GPIOx, GPIO_InitTypeDef *GPIO_Init)
{
 80028a8:	b480      	push	{r7}
 80028aa:	b089      	sub	sp, #36	; 0x24
 80028ac:	af00      	add	r7, sp, #0
 80028ae:	6078      	str	r0, [r7, #4]
 80028b0:	6039      	str	r1, [r7, #0]
  uint32_t position;
  uint32_t ioposition = 0x00U;
 80028b2:	2300      	movs	r3, #0
 80028b4:	617b      	str	r3, [r7, #20]
  uint32_t iocurrent = 0x00U;
 80028b6:	2300      	movs	r3, #0
 80028b8:	613b      	str	r3, [r7, #16]
  uint32_t temp = 0x00U;
 80028ba:	2300      	movs	r3, #0
 80028bc:	61bb      	str	r3, [r7, #24]
  assert_param(IS_GPIO_ALL_INSTANCE(GPIOx));
  assert_param(IS_GPIO_PIN(GPIO_Init->Pin));
  assert_param(IS_GPIO_MODE(GPIO_Init->Mode));

  /* Configure the port pins */
  for(position = 0U; position < GPIO_NUMBER; position++)
 80028be:	2300      	movs	r3, #0
 80028c0:	61fb      	str	r3, [r7, #28]
 80028c2:	e165      	b.n	8002b90 <HAL_GPIO_Init+0x2e8>
  {
    /* Get the IO position */
    ioposition = 0x01U << position;
 80028c4:	2201      	movs	r2, #1
 80028c6:	69fb      	ldr	r3, [r7, #28]
 80028c8:	fa02 f303 	lsl.w	r3, r2, r3
 80028cc:	617b      	str	r3, [r7, #20]
    /* Get the current IO position */
    iocurrent = (uint32_t)(GPIO_Init->Pin) & ioposition;
 80028ce:	683b      	ldr	r3, [r7, #0]
 80028d0:	681b      	ldr	r3, [r3, #0]
 80028d2:	697a      	ldr	r2, [r7, #20]
 80028d4:	4013      	ands	r3, r2
 80028d6:	613b      	str	r3, [r7, #16]

    if(iocurrent == ioposition)
 80028d8:	693a      	ldr	r2, [r7, #16]
 80028da:	697b      	ldr	r3, [r7, #20]
 80028dc:	429a      	cmp	r2, r3
 80028de:	f040 8154 	bne.w	8002b8a <HAL_GPIO_Init+0x2e2>
    {
      /*--------------------- GPIO Mode Configuration ------------------------*/
      /* In case of Output or Alternate function mode selection */
      if(((GPIO_Init->Mode & GPIO_MODE) == MODE_OUTPUT) || \
 80028e2:	683b      	ldr	r3, [r7, #0]
 80028e4:	685b      	ldr	r3, [r3, #4]
 80028e6:	f003 0303 	and.w	r3, r3, #3
 80028ea:	2b01      	cmp	r3, #1
 80028ec:	d005      	beq.n	80028fa <HAL_GPIO_Init+0x52>
          (GPIO_Init->Mode & GPIO_MODE) == MODE_AF)
 80028ee:	683b      	ldr	r3, [r7, #0]
 80028f0:	685b      	ldr	r3, [r3, #4]
 80028f2:	f003 0303 	and.w	r3, r3, #3
      if(((GPIO_Init->Mode & GPIO_MODE) == MODE_OUTPUT) || \
 80028f6:	2b02      	cmp	r3, #2
 80028f8:	d130      	bne.n	800295c <HAL_GPIO_Init+0xb4>
      {
        /* Check the Speed parameter */
        assert_param(IS_GPIO_SPEED(GPIO_Init->Speed));
        /* Configure the IO Speed */
        temp = GPIOx->OSPEEDR; 
 80028fa:	687b      	ldr	r3, [r7, #4]
 80028fc:	689b      	ldr	r3, [r3, #8]
 80028fe:	61bb      	str	r3, [r7, #24]
        temp &= ~(GPIO_OSPEEDER_OSPEEDR0 << (position * 2U));
 8002900:	69fb      	ldr	r3, [r7, #28]
 8002902:	005b      	lsls	r3, r3, #1
 8002904:	2203      	movs	r2, #3
 8002906:	fa02 f303 	lsl.w	r3, r2, r3
 800290a:	43db      	mvns	r3, r3
 800290c:	69ba      	ldr	r2, [r7, #24]
 800290e:	4013      	ands	r3, r2
 8002910:	61bb      	str	r3, [r7, #24]
        temp |= (GPIO_Init->Speed << (position * 2U));
 8002912:	683b      	ldr	r3, [r7, #0]
 8002914:	68da      	ldr	r2, [r3, #12]
 8002916:	69fb      	ldr	r3, [r7, #28]
 8002918:	005b      	lsls	r3, r3, #1
 800291a:	fa02 f303 	lsl.w	r3, r2, r3
 800291e:	69ba      	ldr	r2, [r7, #24]
 8002920:	4313      	orrs	r3, r2
 8002922:	61bb      	str	r3, [r7, #24]
        GPIOx->OSPEEDR = temp;
 8002924:	687b      	ldr	r3, [r7, #4]
 8002926:	69ba      	ldr	r2, [r7, #24]
 8002928:	609a      	str	r2, [r3, #8]

        /* Configure the IO Output Type */
        temp = GPIOx->OTYPER;
 800292a:	687b      	ldr	r3, [r7, #4]
 800292c:	685b      	ldr	r3, [r3, #4]
 800292e:	61bb      	str	r3, [r7, #24]
        temp &= ~(GPIO_OTYPER_OT_0 << position) ;
 8002930:	2201      	movs	r2, #1
 8002932:	69fb      	ldr	r3, [r7, #28]
 8002934:	fa02 f303 	lsl.w	r3, r2, r3
 8002938:	43db      	mvns	r3, r3
 800293a:	69ba      	ldr	r2, [r7, #24]
 800293c:	4013      	ands	r3, r2
 800293e:	61bb      	str	r3, [r7, #24]
        temp |= (((GPIO_Init->Mode & OUTPUT_TYPE) >> OUTPUT_TYPE_Pos) << position);
 8002940:	683b      	ldr	r3, [r7, #0]
 8002942:	685b      	ldr	r3, [r3, #4]
 8002944:	091b      	lsrs	r3, r3, #4
 8002946:	f003 0201 	and.w	r2, r3, #1
 800294a:	69fb      	ldr	r3, [r7, #28]
 800294c:	fa02 f303 	lsl.w	r3, r2, r3
 8002950:	69ba      	ldr	r2, [r7, #24]
 8002952:	4313      	orrs	r3, r2
 8002954:	61bb      	str	r3, [r7, #24]
        GPIOx->OTYPER = temp;
 8002956:	687b      	ldr	r3, [r7, #4]
 8002958:	69ba      	ldr	r2, [r7, #24]
 800295a:	605a      	str	r2, [r3, #4]
       }

      if((GPIO_Init->Mode & GPIO_MODE) != MODE_ANALOG)
 800295c:	683b      	ldr	r3, [r7, #0]
 800295e:	685b      	ldr	r3, [r3, #4]
 8002960:	f003 0303 	and.w	r3, r3, #3
 8002964:	2b03      	cmp	r3, #3
 8002966:	d017      	beq.n	8002998 <HAL_GPIO_Init+0xf0>
      {
        /* Check the parameters */
        assert_param(IS_GPIO_PULL(GPIO_Init->Pull));
        
        /* Activate the Pull-up or Pull down resistor for the current IO */
        temp = GPIOx->PUPDR;
 8002968:	687b      	ldr	r3, [r7, #4]
 800296a:	68db      	ldr	r3, [r3, #12]
 800296c:	61bb      	str	r3, [r7, #24]
        temp &= ~(GPIO_PUPDR_PUPDR0 << (position * 2U));
 800296e:	69fb      	ldr	r3, [r7, #28]
 8002970:	005b      	lsls	r3, r3, #1
 8002972:	2203      	movs	r2, #3
 8002974:	fa02 f303 	lsl.w	r3, r2, r3
 8002978:	43db      	mvns	r3, r3
 800297a:	69ba      	ldr	r2, [r7, #24]
 800297c:	4013      	ands	r3, r2
 800297e:	61bb      	str	r3, [r7, #24]
        temp |= ((GPIO_Init->Pull) << (position * 2U));
 8002980:	683b      	ldr	r3, [r7, #0]
 8002982:	689a      	ldr	r2, [r3, #8]
 8002984:	69fb      	ldr	r3, [r7, #28]
 8002986:	005b      	lsls	r3, r3, #1
 8002988:	fa02 f303 	lsl.w	r3, r2, r3
 800298c:	69ba      	ldr	r2, [r7, #24]
 800298e:	4313      	orrs	r3, r2
 8002990:	61bb      	str	r3, [r7, #24]
        GPIOx->PUPDR = temp;
 8002992:	687b      	ldr	r3, [r7, #4]
 8002994:	69ba      	ldr	r2, [r7, #24]
 8002996:	60da      	str	r2, [r3, #12]
      }

      /* In case of Alternate function mode selection */
      if((GPIO_Init->Mode & GPIO_MODE) == MODE_AF)
 8002998:	683b      	ldr	r3, [r7, #0]
 800299a:	685b      	ldr	r3, [r3, #4]
 800299c:	f003 0303 	and.w	r3, r3, #3
 80029a0:	2b02      	cmp	r3, #2
 80029a2:	d123      	bne.n	80029ec <HAL_GPIO_Init+0x144>
      {
        /* Check the Alternate function parameter */
        assert_param(IS_GPIO_AF(GPIO_Init->Alternate));
        /* Configure Alternate function mapped with the current IO */
        temp = GPIOx->AFR[position >> 3U];
 80029a4:	69fb      	ldr	r3, [r7, #28]
 80029a6:	08da      	lsrs	r2, r3, #3
 80029a8:	687b      	ldr	r3, [r7, #4]
 80029aa:	3208      	adds	r2, #8
 80029ac:	f853 3022 	ldr.w	r3, [r3, r2, lsl #2]
 80029b0:	61bb      	str	r3, [r7, #24]
        temp &= ~(0xFU << ((uint32_t)(position & 0x07U) * 4U)) ;
 80029b2:	69fb      	ldr	r3, [r7, #28]
 80029b4:	f003 0307 	and.w	r3, r3, #7
 80029b8:	009b      	lsls	r3, r3, #2
 80029ba:	220f      	movs	r2, #15
 80029bc:	fa02 f303 	lsl.w	r3, r2, r3
 80029c0:	43db      	mvns	r3, r3
 80029c2:	69ba      	ldr	r2, [r7, #24]
 80029c4:	4013      	ands	r3, r2
 80029c6:	61bb      	str	r3, [r7, #24]
        temp |= ((uint32_t)(GPIO_Init->Alternate) << (((uint32_t)position & 0x07U) * 4U));
 80029c8:	683b      	ldr	r3, [r7, #0]
 80029ca:	691a      	ldr	r2, [r3, #16]
 80029cc:	69fb      	ldr	r3, [r7, #28]
 80029ce:	f003 0307 	and.w	r3, r3, #7
 80029d2:	009b      	lsls	r3, r3, #2
 80029d4:	fa02 f303 	lsl.w	r3, r2, r3
 80029d8:	69ba      	ldr	r2, [r7, #24]
 80029da:	4313      	orrs	r3, r2
 80029dc:	61bb      	str	r3, [r7, #24]
        GPIOx->AFR[position >> 3U] = temp;
 80029de:	69fb      	ldr	r3, [r7, #28]
 80029e0:	08da      	lsrs	r2, r3, #3
 80029e2:	687b      	ldr	r3, [r7, #4]
 80029e4:	3208      	adds	r2, #8
 80029e6:	69b9      	ldr	r1, [r7, #24]
 80029e8:	f843 1022 	str.w	r1, [r3, r2, lsl #2]
      }

      /* Configure IO Direction mode (Input, Output, Alternate or Analog) */
      temp = GPIOx->MODER;
 80029ec:	687b      	ldr	r3, [r7, #4]
 80029ee:	681b      	ldr	r3, [r3, #0]
 80029f0:	61bb      	str	r3, [r7, #24]
      temp &= ~(GPIO_MODER_MODER0 << (position * 2U));
 80029f2:	69fb      	ldr	r3, [r7, #28]
 80029f4:	005b      	lsls	r3, r3, #1
 80029f6:	2203      	movs	r2, #3
 80029f8:	fa02 f303 	lsl.w	r3, r2, r3
 80029fc:	43db      	mvns	r3, r3
 80029fe:	69ba      	ldr	r2, [r7, #24]
 8002a00:	4013      	ands	r3, r2
 8002a02:	61bb      	str	r3, [r7, #24]
      temp |= ((GPIO_Init->Mode & GPIO_MODE) << (position * 2U));
 8002a04:	683b      	ldr	r3, [r7, #0]
 8002a06:	685b      	ldr	r3, [r3, #4]
 8002a08:	f003 0203 	and.w	r2, r3, #3
 8002a0c:	69fb      	ldr	r3, [r7, #28]
 8002a0e:	005b      	lsls	r3, r3, #1
 8002a10:	fa02 f303 	lsl.w	r3, r2, r3
 8002a14:	69ba      	ldr	r2, [r7, #24]
 8002a16:	4313      	orrs	r3, r2
 8002a18:	61bb      	str	r3, [r7, #24]
      GPIOx->MODER = temp;
 8002a1a:	687b      	ldr	r3, [r7, #4]
 8002a1c:	69ba      	ldr	r2, [r7, #24]
 8002a1e:	601a      	str	r2, [r3, #0]

      /*--------------------- EXTI Mode Configuration ------------------------*/
      /* Configure the External Interrupt or event for the current IO */
      if((GPIO_Init->Mode & EXTI_MODE) != 0x00U)
 8002a20:	683b      	ldr	r3, [r7, #0]
 8002a22:	685b      	ldr	r3, [r3, #4]
 8002a24:	f403 3340 	and.w	r3, r3, #196608	; 0x30000
 8002a28:	2b00      	cmp	r3, #0
 8002a2a:	f000 80ae 	beq.w	8002b8a <HAL_GPIO_Init+0x2e2>
      {
        /* Enable SYSCFG Clock */
        __HAL_RCC_SYSCFG_CLK_ENABLE();
 8002a2e:	2300      	movs	r3, #0
 8002a30:	60fb      	str	r3, [r7, #12]
 8002a32:	4b5d      	ldr	r3, [pc, #372]	; (8002ba8 <HAL_GPIO_Init+0x300>)
 8002a34:	6c5b      	ldr	r3, [r3, #68]	; 0x44
 8002a36:	4a5c      	ldr	r2, [pc, #368]	; (8002ba8 <HAL_GPIO_Init+0x300>)
 8002a38:	f443 4380 	orr.w	r3, r3, #16384	; 0x4000
 8002a3c:	6453      	str	r3, [r2, #68]	; 0x44
 8002a3e:	4b5a      	ldr	r3, [pc, #360]	; (8002ba8 <HAL_GPIO_Init+0x300>)
 8002a40:	6c5b      	ldr	r3, [r3, #68]	; 0x44
 8002a42:	f403 4380 	and.w	r3, r3, #16384	; 0x4000
 8002a46:	60fb      	str	r3, [r7, #12]
 8002a48:	68fb      	ldr	r3, [r7, #12]

        temp = SYSCFG->EXTICR[position >> 2U];
 8002a4a:	4a58      	ldr	r2, [pc, #352]	; (8002bac <HAL_GPIO_Init+0x304>)
 8002a4c:	69fb      	ldr	r3, [r7, #28]
 8002a4e:	089b      	lsrs	r3, r3, #2
 8002a50:	3302      	adds	r3, #2
 8002a52:	f852 3023 	ldr.w	r3, [r2, r3, lsl #2]
 8002a56:	61bb      	str	r3, [r7, #24]
        temp &= ~(0x0FU << (4U * (position & 0x03U)));
 8002a58:	69fb      	ldr	r3, [r7, #28]
 8002a5a:	f003 0303 	and.w	r3, r3, #3
 8002a5e:	009b      	lsls	r3, r3, #2
 8002a60:	220f      	movs	r2, #15
 8002a62:	fa02 f303 	lsl.w	r3, r2, r3
 8002a66:	43db      	mvns	r3, r3
 8002a68:	69ba      	ldr	r2, [r7, #24]
 8002a6a:	4013      	ands	r3, r2
 8002a6c:	61bb      	str	r3, [r7, #24]
        temp |= ((uint32_t)(GPIO_GET_INDEX(GPIOx)) << (4U * (position & 0x03U)));
 8002a6e:	687b      	ldr	r3, [r7, #4]
 8002a70:	4a4f      	ldr	r2, [pc, #316]	; (8002bb0 <HAL_GPIO_Init+0x308>)
 8002a72:	4293      	cmp	r3, r2
 8002a74:	d025      	beq.n	8002ac2 <HAL_GPIO_Init+0x21a>
 8002a76:	687b      	ldr	r3, [r7, #4]
 8002a78:	4a4e      	ldr	r2, [pc, #312]	; (8002bb4 <HAL_GPIO_Init+0x30c>)
 8002a7a:	4293      	cmp	r3, r2
 8002a7c:	d01f      	beq.n	8002abe <HAL_GPIO_Init+0x216>
 8002a7e:	687b      	ldr	r3, [r7, #4]
 8002a80:	4a4d      	ldr	r2, [pc, #308]	; (8002bb8 <HAL_GPIO_Init+0x310>)
 8002a82:	4293      	cmp	r3, r2
 8002a84:	d019      	beq.n	8002aba <HAL_GPIO_Init+0x212>
 8002a86:	687b      	ldr	r3, [r7, #4]
 8002a88:	4a4c      	ldr	r2, [pc, #304]	; (8002bbc <HAL_GPIO_Init+0x314>)
 8002a8a:	4293      	cmp	r3, r2
 8002a8c:	d013      	beq.n	8002ab6 <HAL_GPIO_Init+0x20e>
 8002a8e:	687b      	ldr	r3, [r7, #4]
 8002a90:	4a4b      	ldr	r2, [pc, #300]	; (8002bc0 <HAL_GPIO_Init+0x318>)
 8002a92:	4293      	cmp	r3, r2
 8002a94:	d00d      	beq.n	8002ab2 <HAL_GPIO_Init+0x20a>
 8002a96:	687b      	ldr	r3, [r7, #4]
 8002a98:	4a4a      	ldr	r2, [pc, #296]	; (8002bc4 <HAL_GPIO_Init+0x31c>)
 8002a9a:	4293      	cmp	r3, r2
 8002a9c:	d007      	beq.n	8002aae <HAL_GPIO_Init+0x206>
 8002a9e:	687b      	ldr	r3, [r7, #4]
 8002aa0:	4a49      	ldr	r2, [pc, #292]	; (8002bc8 <HAL_GPIO_Init+0x320>)
 8002aa2:	4293      	cmp	r3, r2
 8002aa4:	d101      	bne.n	8002aaa <HAL_GPIO_Init+0x202>
 8002aa6:	2306      	movs	r3, #6
 8002aa8:	e00c      	b.n	8002ac4 <HAL_GPIO_Init+0x21c>
 8002aaa:	2307      	movs	r3, #7
 8002aac:	e00a      	b.n	8002ac4 <HAL_GPIO_Init+0x21c>
 8002aae:	2305      	movs	r3, #5
 8002ab0:	e008      	b.n	8002ac4 <HAL_GPIO_Init+0x21c>
 8002ab2:	2304      	movs	r3, #4
 8002ab4:	e006      	b.n	8002ac4 <HAL_GPIO_Init+0x21c>
 8002ab6:	2303      	movs	r3, #3
 8002ab8:	e004      	b.n	8002ac4 <HAL_GPIO_Init+0x21c>
 8002aba:	2302      	movs	r3, #2
 8002abc:	e002      	b.n	8002ac4 <HAL_GPIO_Init+0x21c>
 8002abe:	2301      	movs	r3, #1
 8002ac0:	e000      	b.n	8002ac4 <HAL_GPIO_Init+0x21c>
 8002ac2:	2300      	movs	r3, #0
 8002ac4:	69fa      	ldr	r2, [r7, #28]
 8002ac6:	f002 0203 	and.w	r2, r2, #3
 8002aca:	0092      	lsls	r2, r2, #2
 8002acc:	4093      	lsls	r3, r2
 8002ace:	69ba      	ldr	r2, [r7, #24]
 8002ad0:	4313      	orrs	r3, r2
 8002ad2:	61bb      	str	r3, [r7, #24]
        SYSCFG->EXTICR[position >> 2U] = temp;
 8002ad4:	4935      	ldr	r1, [pc, #212]	; (8002bac <HAL_GPIO_Init+0x304>)
 8002ad6:	69fb      	ldr	r3, [r7, #28]
 8002ad8:	089b      	lsrs	r3, r3, #2
 8002ada:	3302      	adds	r3, #2
 8002adc:	69ba      	ldr	r2, [r7, #24]
 8002ade:	f841 2023 	str.w	r2, [r1, r3, lsl #2]

        /* Clear EXTI line configuration */
        temp = EXTI->IMR;
 8002ae2:	4b3a      	ldr	r3, [pc, #232]	; (8002bcc <HAL_GPIO_Init+0x324>)
 8002ae4:	681b      	ldr	r3, [r3, #0]
 8002ae6:	61bb      	str	r3, [r7, #24]
        temp &= ~((uint32_t)iocurrent);
 8002ae8:	693b      	ldr	r3, [r7, #16]
 8002aea:	43db      	mvns	r3, r3
 8002aec:	69ba      	ldr	r2, [r7, #24]
 8002aee:	4013      	ands	r3, r2
 8002af0:	61bb      	str	r3, [r7, #24]
        if((GPIO_Init->Mode & EXTI_IT) != 0x00U)
 8002af2:	683b      	ldr	r3, [r7, #0]
 8002af4:	685b      	ldr	r3, [r3, #4]
 8002af6:	f403 3380 	and.w	r3, r3, #65536	; 0x10000
 8002afa:	2b00      	cmp	r3, #0
 8002afc:	d003      	beq.n	8002b06 <HAL_GPIO_Init+0x25e>
        {
          temp |= iocurrent;
 8002afe:	69ba      	ldr	r2, [r7, #24]
 8002b00:	693b      	ldr	r3, [r7, #16]
 8002b02:	4313      	orrs	r3, r2
 8002b04:	61bb      	str	r3, [r7, #24]
        }
        EXTI->IMR = temp;
 8002b06:	4a31      	ldr	r2, [pc, #196]	; (8002bcc <HAL_GPIO_Init+0x324>)
 8002b08:	69bb      	ldr	r3, [r7, #24]
 8002b0a:	6013      	str	r3, [r2, #0]

        temp = EXTI->EMR;
 8002b0c:	4b2f      	ldr	r3, [pc, #188]	; (8002bcc <HAL_GPIO_Init+0x324>)
 8002b0e:	685b      	ldr	r3, [r3, #4]
 8002b10:	61bb      	str	r3, [r7, #24]
        temp &= ~((uint32_t)iocurrent);
 8002b12:	693b      	ldr	r3, [r7, #16]
 8002b14:	43db      	mvns	r3, r3
 8002b16:	69ba      	ldr	r2, [r7, #24]
 8002b18:	4013      	ands	r3, r2
 8002b1a:	61bb      	str	r3, [r7, #24]
        if((GPIO_Init->Mode & EXTI_EVT) != 0x00U)
 8002b1c:	683b      	ldr	r3, [r7, #0]
 8002b1e:	685b      	ldr	r3, [r3, #4]
 8002b20:	f403 3300 	and.w	r3, r3, #131072	; 0x20000
 8002b24:	2b00      	cmp	r3, #0
 8002b26:	d003      	beq.n	8002b30 <HAL_GPIO_Init+0x288>
        {
          temp |= iocurrent;
 8002b28:	69ba      	ldr	r2, [r7, #24]
 8002b2a:	693b      	ldr	r3, [r7, #16]
 8002b2c:	4313      	orrs	r3, r2
 8002b2e:	61bb      	str	r3, [r7, #24]
        }
        EXTI->EMR = temp;
 8002b30:	4a26      	ldr	r2, [pc, #152]	; (8002bcc <HAL_GPIO_Init+0x324>)
 8002b32:	69bb      	ldr	r3, [r7, #24]
 8002b34:	6053      	str	r3, [r2, #4]

        /* Clear Rising Falling edge configuration */
        temp = EXTI->RTSR;
 8002b36:	4b25      	ldr	r3, [pc, #148]	; (8002bcc <HAL_GPIO_Init+0x324>)
 8002b38:	689b      	ldr	r3, [r3, #8]
 8002b3a:	61bb      	str	r3, [r7, #24]
        temp &= ~((uint32_t)iocurrent);
 8002b3c:	693b      	ldr	r3, [r7, #16]
 8002b3e:	43db      	mvns	r3, r3
 8002b40:	69ba      	ldr	r2, [r7, #24]
 8002b42:	4013      	ands	r3, r2
 8002b44:	61bb      	str	r3, [r7, #24]
        if((GPIO_Init->Mode & TRIGGER_RISING) != 0x00U)
 8002b46:	683b      	ldr	r3, [r7, #0]
 8002b48:	685b      	ldr	r3, [r3, #4]
 8002b4a:	f403 1380 	and.w	r3, r3, #1048576	; 0x100000
 8002b4e:	2b00      	cmp	r3, #0
 8002b50:	d003      	beq.n	8002b5a <HAL_GPIO_Init+0x2b2>
        {
          temp |= iocurrent;
 8002b52:	69ba      	ldr	r2, [r7, #24]
 8002b54:	693b      	ldr	r3, [r7, #16]
 8002b56:	4313      	orrs	r3, r2
 8002b58:	61bb      	str	r3, [r7, #24]
        }
        EXTI->RTSR = temp;
 8002b5a:	4a1c      	ldr	r2, [pc, #112]	; (8002bcc <HAL_GPIO_Init+0x324>)
 8002b5c:	69bb      	ldr	r3, [r7, #24]
 8002b5e:	6093      	str	r3, [r2, #8]

        temp = EXTI->FTSR;
 8002b60:	4b1a      	ldr	r3, [pc, #104]	; (8002bcc <HAL_GPIO_Init+0x324>)
 8002b62:	68db      	ldr	r3, [r3, #12]
 8002b64:	61bb      	str	r3, [r7, #24]
        temp &= ~((uint32_t)iocurrent);
 8002b66:	693b      	ldr	r3, [r7, #16]
 8002b68:	43db      	mvns	r3, r3
 8002b6a:	69ba      	ldr	r2, [r7, #24]
 8002b6c:	4013      	ands	r3, r2
 8002b6e:	61bb      	str	r3, [r7, #24]
        if((GPIO_Init->Mode & TRIGGER_FALLING) != 0x00U)
 8002b70:	683b      	ldr	r3, [r7, #0]
 8002b72:	685b      	ldr	r3, [r3, #4]
 8002b74:	f403 1300 	and.w	r3, r3, #2097152	; 0x200000
 8002b78:	2b00      	cmp	r3, #0
 8002b7a:	d003      	beq.n	8002b84 <HAL_GPIO_Init+0x2dc>
        {
          temp |= iocurrent;
 8002b7c:	69ba      	ldr	r2, [r7, #24]
 8002b7e:	693b      	ldr	r3, [r7, #16]
 8002b80:	4313      	orrs	r3, r2
 8002b82:	61bb      	str	r3, [r7, #24]
        }
        EXTI->FTSR = temp;
 8002b84:	4a11      	ldr	r2, [pc, #68]	; (8002bcc <HAL_GPIO_Init+0x324>)
 8002b86:	69bb      	ldr	r3, [r7, #24]
 8002b88:	60d3      	str	r3, [r2, #12]
  for(position = 0U; position < GPIO_NUMBER; position++)
 8002b8a:	69fb      	ldr	r3, [r7, #28]
 8002b8c:	3301      	adds	r3, #1
 8002b8e:	61fb      	str	r3, [r7, #28]
 8002b90:	69fb      	ldr	r3, [r7, #28]
 8002b92:	2b0f      	cmp	r3, #15
 8002b94:	f67f ae96 	bls.w	80028c4 <HAL_GPIO_Init+0x1c>
      }
    }
  }
}
 8002b98:	bf00      	nop
 8002b9a:	bf00      	nop
 8002b9c:	3724      	adds	r7, #36	; 0x24
 8002b9e:	46bd      	mov	sp, r7
 8002ba0:	f85d 7b04 	ldr.w	r7, [sp], #4
 8002ba4:	4770      	bx	lr
 8002ba6:	bf00      	nop
 8002ba8:	40023800 	.word	0x40023800
 8002bac:	40013800 	.word	0x40013800
 8002bb0:	40020000 	.word	0x40020000
 8002bb4:	40020400 	.word	0x40020400
 8002bb8:	40020800 	.word	0x40020800
 8002bbc:	40020c00 	.word	0x40020c00
 8002bc0:	40021000 	.word	0x40021000
 8002bc4:	40021400 	.word	0x40021400
 8002bc8:	40021800 	.word	0x40021800
 8002bcc:	40013c00 	.word	0x40013c00

08002bd0 <HAL_GPIO_WritePin>:
  *            @arg GPIO_PIN_RESET: to clear the port pin
  *            @arg GPIO_PIN_SET: to set the port pin
  * @retval None
  */
void HAL_GPIO_WritePin(GPIO_TypeDef* GPIOx, uint16_t GPIO_Pin, GPIO_PinState PinState)
{
 8002bd0:	b480      	push	{r7}
 8002bd2:	b083      	sub	sp, #12
 8002bd4:	af00      	add	r7, sp, #0
 8002bd6:	6078      	str	r0, [r7, #4]
 8002bd8:	460b      	mov	r3, r1
 8002bda:	807b      	strh	r3, [r7, #2]
 8002bdc:	4613      	mov	r3, r2
 8002bde:	707b      	strb	r3, [r7, #1]
  /* Check the parameters */
  assert_param(IS_GPIO_PIN(GPIO_Pin));
  assert_param(IS_GPIO_PIN_ACTION(PinState));

  if(PinState != GPIO_PIN_RESET)
 8002be0:	787b      	ldrb	r3, [r7, #1]
 8002be2:	2b00      	cmp	r3, #0
 8002be4:	d003      	beq.n	8002bee <HAL_GPIO_WritePin+0x1e>
  {
    GPIOx->BSRR = GPIO_Pin;
 8002be6:	887a      	ldrh	r2, [r7, #2]
 8002be8:	687b      	ldr	r3, [r7, #4]
 8002bea:	619a      	str	r2, [r3, #24]
  }
  else
  {
    GPIOx->BSRR = (uint32_t)GPIO_Pin << 16U;
  }
}
 8002bec:	e003      	b.n	8002bf6 <HAL_GPIO_WritePin+0x26>
    GPIOx->BSRR = (uint32_t)GPIO_Pin << 16U;
 8002bee:	887b      	ldrh	r3, [r7, #2]
 8002bf0:	041a      	lsls	r2, r3, #16
 8002bf2:	687b      	ldr	r3, [r7, #4]
 8002bf4:	619a      	str	r2, [r3, #24]
}
 8002bf6:	bf00      	nop
 8002bf8:	370c      	adds	r7, #12
 8002bfa:	46bd      	mov	sp, r7
 8002bfc:	f85d 7b04 	ldr.w	r7, [sp], #4
 8002c00:	4770      	bx	lr
	...

08002c04 <HAL_RCC_ClockConfig>:
  *         HPRE[3:0] bits to ensure that HCLK not exceed the maximum allowed frequency
  *         (for more details refer to section above "Initialization/de-initialization functions")
  * @retval None
  */
HAL_StatusTypeDef HAL_RCC_ClockConfig(RCC_ClkInitTypeDef  *RCC_ClkInitStruct, uint32_t FLatency)
{
 8002c04:	b580      	push	{r7, lr}
 8002c06:	b084      	sub	sp, #16
 8002c08:	af00      	add	r7, sp, #0
 8002c0a:	6078      	str	r0, [r7, #4]
 8002c0c:	6039      	str	r1, [r7, #0]
  uint32_t tickstart;

  /* Check Null pointer */
  if(RCC_ClkInitStruct == NULL)
 8002c0e:	687b      	ldr	r3, [r7, #4]
 8002c10:	2b00      	cmp	r3, #0
 8002c12:	d101      	bne.n	8002c18 <HAL_RCC_ClockConfig+0x14>
  {
    return HAL_ERROR;
 8002c14:	2301      	movs	r3, #1
 8002c16:	e0cc      	b.n	8002db2 <HAL_RCC_ClockConfig+0x1ae>
  /* To correctly read data from FLASH memory, the number of wait states (LATENCY)
    must be correctly programmed according to the frequency of the CPU clock
    (HCLK) and the supply voltage of the device. */

  /* Increasing the number of wait states because of higher CPU frequency */
  if(FLatency > __HAL_FLASH_GET_LATENCY())
 8002c18:	4b68      	ldr	r3, [pc, #416]	; (8002dbc <HAL_RCC_ClockConfig+0x1b8>)
 8002c1a:	681b      	ldr	r3, [r3, #0]
 8002c1c:	f003 030f 	and.w	r3, r3, #15
 8002c20:	683a      	ldr	r2, [r7, #0]
 8002c22:	429a      	cmp	r2, r3
 8002c24:	d90c      	bls.n	8002c40 <HAL_RCC_ClockConfig+0x3c>
  {
    /* Program the new number of wait states to the LATENCY bits in the FLASH_ACR register */
    __HAL_FLASH_SET_LATENCY(FLatency);
 8002c26:	4b65      	ldr	r3, [pc, #404]	; (8002dbc <HAL_RCC_ClockConfig+0x1b8>)
 8002c28:	683a      	ldr	r2, [r7, #0]
 8002c2a:	b2d2      	uxtb	r2, r2
 8002c2c:	701a      	strb	r2, [r3, #0]

    /* Check that the new number of wait states is taken into account to access the Flash
    memory by reading the FLASH_ACR register */
    if(__HAL_FLASH_GET_LATENCY() != FLatency)
 8002c2e:	4b63      	ldr	r3, [pc, #396]	; (8002dbc <HAL_RCC_ClockConfig+0x1b8>)
 8002c30:	681b      	ldr	r3, [r3, #0]
 8002c32:	f003 030f 	and.w	r3, r3, #15
 8002c36:	683a      	ldr	r2, [r7, #0]
 8002c38:	429a      	cmp	r2, r3
 8002c3a:	d001      	beq.n	8002c40 <HAL_RCC_ClockConfig+0x3c>
    {
      return HAL_ERROR;
 8002c3c:	2301      	movs	r3, #1
 8002c3e:	e0b8      	b.n	8002db2 <HAL_RCC_ClockConfig+0x1ae>
    }
  }

  /*-------------------------- HCLK Configuration --------------------------*/
  if(((RCC_ClkInitStruct->ClockType) & RCC_CLOCKTYPE_HCLK) == RCC_CLOCKTYPE_HCLK)
 8002c40:	687b      	ldr	r3, [r7, #4]
 8002c42:	681b      	ldr	r3, [r3, #0]
 8002c44:	f003 0302 	and.w	r3, r3, #2
 8002c48:	2b00      	cmp	r3, #0
 8002c4a:	d020      	beq.n	8002c8e <HAL_RCC_ClockConfig+0x8a>
  {
    /* Set the highest APBx dividers in order to ensure that we do not go through
       a non-spec phase whatever we decrease or increase HCLK. */
    if(((RCC_ClkInitStruct->ClockType) & RCC_CLOCKTYPE_PCLK1) == RCC_CLOCKTYPE_PCLK1)
 8002c4c:	687b      	ldr	r3, [r7, #4]
 8002c4e:	681b      	ldr	r3, [r3, #0]
 8002c50:	f003 0304 	and.w	r3, r3, #4
 8002c54:	2b00      	cmp	r3, #0
 8002c56:	d005      	beq.n	8002c64 <HAL_RCC_ClockConfig+0x60>
    {
      MODIFY_REG(RCC->CFGR, RCC_CFGR_PPRE1, RCC_HCLK_DIV16);
 8002c58:	4b59      	ldr	r3, [pc, #356]	; (8002dc0 <HAL_RCC_ClockConfig+0x1bc>)
 8002c5a:	689b      	ldr	r3, [r3, #8]
 8002c5c:	4a58      	ldr	r2, [pc, #352]	; (8002dc0 <HAL_RCC_ClockConfig+0x1bc>)
 8002c5e:	f443 53e0 	orr.w	r3, r3, #7168	; 0x1c00
 8002c62:	6093      	str	r3, [r2, #8]
    }

    if(((RCC_ClkInitStruct->ClockType) & RCC_CLOCKTYPE_PCLK2) == RCC_CLOCKTYPE_PCLK2)
 8002c64:	687b      	ldr	r3, [r7, #4]
 8002c66:	681b      	ldr	r3, [r3, #0]
 8002c68:	f003 0308 	and.w	r3, r3, #8
 8002c6c:	2b00      	cmp	r3, #0
 8002c6e:	d005      	beq.n	8002c7c <HAL_RCC_ClockConfig+0x78>
    {
      MODIFY_REG(RCC->CFGR, RCC_CFGR_PPRE2, (RCC_HCLK_DIV16 << 3));
 8002c70:	4b53      	ldr	r3, [pc, #332]	; (8002dc0 <HAL_RCC_ClockConfig+0x1bc>)
 8002c72:	689b      	ldr	r3, [r3, #8]
 8002c74:	4a52      	ldr	r2, [pc, #328]	; (8002dc0 <HAL_RCC_ClockConfig+0x1bc>)
 8002c76:	f443 4360 	orr.w	r3, r3, #57344	; 0xe000
 8002c7a:	6093      	str	r3, [r2, #8]
    }

    assert_param(IS_RCC_HCLK(RCC_ClkInitStruct->AHBCLKDivider));
    MODIFY_REG(RCC->CFGR, RCC_CFGR_HPRE, RCC_ClkInitStruct->AHBCLKDivider);
 8002c7c:	4b50      	ldr	r3, [pc, #320]	; (8002dc0 <HAL_RCC_ClockConfig+0x1bc>)
 8002c7e:	689b      	ldr	r3, [r3, #8]
 8002c80:	f023 02f0 	bic.w	r2, r3, #240	; 0xf0
 8002c84:	687b      	ldr	r3, [r7, #4]
 8002c86:	689b      	ldr	r3, [r3, #8]
 8002c88:	494d      	ldr	r1, [pc, #308]	; (8002dc0 <HAL_RCC_ClockConfig+0x1bc>)
 8002c8a:	4313      	orrs	r3, r2
 8002c8c:	608b      	str	r3, [r1, #8]
  }

  /*------------------------- SYSCLK Configuration ---------------------------*/
  if(((RCC_ClkInitStruct->ClockType) & RCC_CLOCKTYPE_SYSCLK) == RCC_CLOCKTYPE_SYSCLK)
 8002c8e:	687b      	ldr	r3, [r7, #4]
 8002c90:	681b      	ldr	r3, [r3, #0]
 8002c92:	f003 0301 	and.w	r3, r3, #1
 8002c96:	2b00      	cmp	r3, #0
 8002c98:	d044      	beq.n	8002d24 <HAL_RCC_ClockConfig+0x120>
  {
    assert_param(IS_RCC_SYSCLKSOURCE(RCC_ClkInitStruct->SYSCLKSource));

    /* HSE is selected as System Clock Source */
    if(RCC_ClkInitStruct->SYSCLKSource == RCC_SYSCLKSOURCE_HSE)
 8002c9a:	687b      	ldr	r3, [r7, #4]
 8002c9c:	685b      	ldr	r3, [r3, #4]
 8002c9e:	2b01      	cmp	r3, #1
 8002ca0:	d107      	bne.n	8002cb2 <HAL_RCC_ClockConfig+0xae>
    {
      /* Check the HSE ready flag */
      if(__HAL_RCC_GET_FLAG(RCC_FLAG_HSERDY) == RESET)
 8002ca2:	4b47      	ldr	r3, [pc, #284]	; (8002dc0 <HAL_RCC_ClockConfig+0x1bc>)
 8002ca4:	681b      	ldr	r3, [r3, #0]
 8002ca6:	f403 3300 	and.w	r3, r3, #131072	; 0x20000
 8002caa:	2b00      	cmp	r3, #0
 8002cac:	d119      	bne.n	8002ce2 <HAL_RCC_ClockConfig+0xde>
      {
        return HAL_ERROR;
 8002cae:	2301      	movs	r3, #1
 8002cb0:	e07f      	b.n	8002db2 <HAL_RCC_ClockConfig+0x1ae>
      }
    }
    /* PLL is selected as System Clock Source */
    else if((RCC_ClkInitStruct->SYSCLKSource == RCC_SYSCLKSOURCE_PLLCLK)   ||
 8002cb2:	687b      	ldr	r3, [r7, #4]
 8002cb4:	685b      	ldr	r3, [r3, #4]
 8002cb6:	2b02      	cmp	r3, #2
 8002cb8:	d003      	beq.n	8002cc2 <HAL_RCC_ClockConfig+0xbe>
            (RCC_ClkInitStruct->SYSCLKSource == RCC_SYSCLKSOURCE_PLLRCLK))
 8002cba:	687b      	ldr	r3, [r7, #4]
 8002cbc:	685b      	ldr	r3, [r3, #4]
    else if((RCC_ClkInitStruct->SYSCLKSource == RCC_SYSCLKSOURCE_PLLCLK)   ||
 8002cbe:	2b03      	cmp	r3, #3
 8002cc0:	d107      	bne.n	8002cd2 <HAL_RCC_ClockConfig+0xce>
    {
      /* Check the PLL ready flag */
      if(__HAL_RCC_GET_FLAG(RCC_FLAG_PLLRDY) == RESET)
 8002cc2:	4b3f      	ldr	r3, [pc, #252]	; (8002dc0 <HAL_RCC_ClockConfig+0x1bc>)
 8002cc4:	681b      	ldr	r3, [r3, #0]
 8002cc6:	f003 7300 	and.w	r3, r3, #33554432	; 0x2000000
 8002cca:	2b00      	cmp	r3, #0
 8002ccc:	d109      	bne.n	8002ce2 <HAL_RCC_ClockConfig+0xde>
      {
        return HAL_ERROR;
 8002cce:	2301      	movs	r3, #1
 8002cd0:	e06f      	b.n	8002db2 <HAL_RCC_ClockConfig+0x1ae>
    }
    /* HSI is selected as System Clock Source */
    else
    {
      /* Check the HSI ready flag */
      if(__HAL_RCC_GET_FLAG(RCC_FLAG_HSIRDY) == RESET)
 8002cd2:	4b3b      	ldr	r3, [pc, #236]	; (8002dc0 <HAL_RCC_ClockConfig+0x1bc>)
 8002cd4:	681b      	ldr	r3, [r3, #0]
 8002cd6:	f003 0302 	and.w	r3, r3, #2
 8002cda:	2b00      	cmp	r3, #0
 8002cdc:	d101      	bne.n	8002ce2 <HAL_RCC_ClockConfig+0xde>
      {
        return HAL_ERROR;
 8002cde:	2301      	movs	r3, #1
 8002ce0:	e067      	b.n	8002db2 <HAL_RCC_ClockConfig+0x1ae>
      }
    }

    __HAL_RCC_SYSCLK_CONFIG(RCC_ClkInitStruct->SYSCLKSource);
 8002ce2:	4b37      	ldr	r3, [pc, #220]	; (8002dc0 <HAL_RCC_ClockConfig+0x1bc>)
 8002ce4:	689b      	ldr	r3, [r3, #8]
 8002ce6:	f023 0203 	bic.w	r2, r3, #3
 8002cea:	687b      	ldr	r3, [r7, #4]
 8002cec:	685b      	ldr	r3, [r3, #4]
 8002cee:	4934      	ldr	r1, [pc, #208]	; (8002dc0 <HAL_RCC_ClockConfig+0x1bc>)
 8002cf0:	4313      	orrs	r3, r2
 8002cf2:	608b      	str	r3, [r1, #8]

    /* Get Start Tick */
    tickstart = HAL_GetTick();
 8002cf4:	f7ff fc96 	bl	8002624 <HAL_GetTick>
 8002cf8:	60f8      	str	r0, [r7, #12]

    while (__HAL_RCC_GET_SYSCLK_SOURCE() != (RCC_ClkInitStruct->SYSCLKSource << RCC_CFGR_SWS_Pos))
 8002cfa:	e00a      	b.n	8002d12 <HAL_RCC_ClockConfig+0x10e>
    {
      if ((HAL_GetTick() - tickstart) > CLOCKSWITCH_TIMEOUT_VALUE)
 8002cfc:	f7ff fc92 	bl	8002624 <HAL_GetTick>
 8002d00:	4602      	mov	r2, r0
 8002d02:	68fb      	ldr	r3, [r7, #12]
 8002d04:	1ad3      	subs	r3, r2, r3
 8002d06:	f241 3288 	movw	r2, #5000	; 0x1388
 8002d0a:	4293      	cmp	r3, r2
 8002d0c:	d901      	bls.n	8002d12 <HAL_RCC_ClockConfig+0x10e>
      {
        return HAL_TIMEOUT;
 8002d0e:	2303      	movs	r3, #3
 8002d10:	e04f      	b.n	8002db2 <HAL_RCC_ClockConfig+0x1ae>
    while (__HAL_RCC_GET_SYSCLK_SOURCE() != (RCC_ClkInitStruct->SYSCLKSource << RCC_CFGR_SWS_Pos))
 8002d12:	4b2b      	ldr	r3, [pc, #172]	; (8002dc0 <HAL_RCC_ClockConfig+0x1bc>)
 8002d14:	689b      	ldr	r3, [r3, #8]
 8002d16:	f003 020c 	and.w	r2, r3, #12
 8002d1a:	687b      	ldr	r3, [r7, #4]
 8002d1c:	685b      	ldr	r3, [r3, #4]
 8002d1e:	009b      	lsls	r3, r3, #2
 8002d20:	429a      	cmp	r2, r3
 8002d22:	d1eb      	bne.n	8002cfc <HAL_RCC_ClockConfig+0xf8>
      }
    }
  }

  /* Decreasing the number of wait states because of lower CPU frequency */
  if(FLatency < __HAL_FLASH_GET_LATENCY())
 8002d24:	4b25      	ldr	r3, [pc, #148]	; (8002dbc <HAL_RCC_ClockConfig+0x1b8>)
 8002d26:	681b      	ldr	r3, [r3, #0]
 8002d28:	f003 030f 	and.w	r3, r3, #15
 8002d2c:	683a      	ldr	r2, [r7, #0]
 8002d2e:	429a      	cmp	r2, r3
 8002d30:	d20c      	bcs.n	8002d4c <HAL_RCC_ClockConfig+0x148>
  {
     /* Program the new number of wait states to the LATENCY bits in the FLASH_ACR register */
    __HAL_FLASH_SET_LATENCY(FLatency);
 8002d32:	4b22      	ldr	r3, [pc, #136]	; (8002dbc <HAL_RCC_ClockConfig+0x1b8>)
 8002d34:	683a      	ldr	r2, [r7, #0]
 8002d36:	b2d2      	uxtb	r2, r2
 8002d38:	701a      	strb	r2, [r3, #0]

    /* Check that the new number of wait states is taken into account to access the Flash
    memory by reading the FLASH_ACR register */
    if(__HAL_FLASH_GET_LATENCY() != FLatency)
 8002d3a:	4b20      	ldr	r3, [pc, #128]	; (8002dbc <HAL_RCC_ClockConfig+0x1b8>)
 8002d3c:	681b      	ldr	r3, [r3, #0]
 8002d3e:	f003 030f 	and.w	r3, r3, #15
 8002d42:	683a      	ldr	r2, [r7, #0]
 8002d44:	429a      	cmp	r2, r3
 8002d46:	d001      	beq.n	8002d4c <HAL_RCC_ClockConfig+0x148>
    {
      return HAL_ERROR;
 8002d48:	2301      	movs	r3, #1
 8002d4a:	e032      	b.n	8002db2 <HAL_RCC_ClockConfig+0x1ae>
    }
  }

  /*-------------------------- PCLK1 Configuration ---------------------------*/
  if(((RCC_ClkInitStruct->ClockType) & RCC_CLOCKTYPE_PCLK1) == RCC_CLOCKTYPE_PCLK1)
 8002d4c:	687b      	ldr	r3, [r7, #4]
 8002d4e:	681b      	ldr	r3, [r3, #0]
 8002d50:	f003 0304 	and.w	r3, r3, #4
 8002d54:	2b00      	cmp	r3, #0
 8002d56:	d008      	beq.n	8002d6a <HAL_RCC_ClockConfig+0x166>
  {
    assert_param(IS_RCC_PCLK(RCC_ClkInitStruct->APB1CLKDivider));
    MODIFY_REG(RCC->CFGR, RCC_CFGR_PPRE1, RCC_ClkInitStruct->APB1CLKDivider);
 8002d58:	4b19      	ldr	r3, [pc, #100]	; (8002dc0 <HAL_RCC_ClockConfig+0x1bc>)
 8002d5a:	689b      	ldr	r3, [r3, #8]
 8002d5c:	f423 52e0 	bic.w	r2, r3, #7168	; 0x1c00
 8002d60:	687b      	ldr	r3, [r7, #4]
 8002d62:	68db      	ldr	r3, [r3, #12]
 8002d64:	4916      	ldr	r1, [pc, #88]	; (8002dc0 <HAL_RCC_ClockConfig+0x1bc>)
 8002d66:	4313      	orrs	r3, r2
 8002d68:	608b      	str	r3, [r1, #8]
  }

  /*-------------------------- PCLK2 Configuration ---------------------------*/
  if(((RCC_ClkInitStruct->ClockType) & RCC_CLOCKTYPE_PCLK2) == RCC_CLOCKTYPE_PCLK2)
 8002d6a:	687b      	ldr	r3, [r7, #4]
 8002d6c:	681b      	ldr	r3, [r3, #0]
 8002d6e:	f003 0308 	and.w	r3, r3, #8
 8002d72:	2b00      	cmp	r3, #0
 8002d74:	d009      	beq.n	8002d8a <HAL_RCC_ClockConfig+0x186>
  {
    assert_param(IS_RCC_PCLK(RCC_ClkInitStruct->APB2CLKDivider));
    MODIFY_REG(RCC->CFGR, RCC_CFGR_PPRE2, ((RCC_ClkInitStruct->APB2CLKDivider) << 3U));
 8002d76:	4b12      	ldr	r3, [pc, #72]	; (8002dc0 <HAL_RCC_ClockConfig+0x1bc>)
 8002d78:	689b      	ldr	r3, [r3, #8]
 8002d7a:	f423 4260 	bic.w	r2, r3, #57344	; 0xe000
 8002d7e:	687b      	ldr	r3, [r7, #4]
 8002d80:	691b      	ldr	r3, [r3, #16]
 8002d82:	00db      	lsls	r3, r3, #3
 8002d84:	490e      	ldr	r1, [pc, #56]	; (8002dc0 <HAL_RCC_ClockConfig+0x1bc>)
 8002d86:	4313      	orrs	r3, r2
 8002d88:	608b      	str	r3, [r1, #8]
  }

  /* Update the SystemCoreClock global variable */
  SystemCoreClock = HAL_RCC_GetSysClockFreq() >> AHBPrescTable[(RCC->CFGR & RCC_CFGR_HPRE)>> RCC_CFGR_HPRE_Pos];
 8002d8a:	f000 f855 	bl	8002e38 <HAL_RCC_GetSysClockFreq>
 8002d8e:	4602      	mov	r2, r0
 8002d90:	4b0b      	ldr	r3, [pc, #44]	; (8002dc0 <HAL_RCC_ClockConfig+0x1bc>)
 8002d92:	689b      	ldr	r3, [r3, #8]
 8002d94:	091b      	lsrs	r3, r3, #4
 8002d96:	f003 030f 	and.w	r3, r3, #15
 8002d9a:	490a      	ldr	r1, [pc, #40]	; (8002dc4 <HAL_RCC_ClockConfig+0x1c0>)
 8002d9c:	5ccb      	ldrb	r3, [r1, r3]
 8002d9e:	fa22 f303 	lsr.w	r3, r2, r3
 8002da2:	4a09      	ldr	r2, [pc, #36]	; (8002dc8 <HAL_RCC_ClockConfig+0x1c4>)
 8002da4:	6013      	str	r3, [r2, #0]

  /* Configure the source of time base considering new system clocks settings */
  HAL_InitTick (uwTickPrio);
 8002da6:	4b09      	ldr	r3, [pc, #36]	; (8002dcc <HAL_RCC_ClockConfig+0x1c8>)
 8002da8:	681b      	ldr	r3, [r3, #0]
 8002daa:	4618      	mov	r0, r3
 8002dac:	f7ff fbf6 	bl	800259c <HAL_InitTick>

  return HAL_OK;
 8002db0:	2300      	movs	r3, #0
}
 8002db2:	4618      	mov	r0, r3
 8002db4:	3710      	adds	r7, #16
 8002db6:	46bd      	mov	sp, r7
 8002db8:	bd80      	pop	{r7, pc}
 8002dba:	bf00      	nop
 8002dbc:	40023c00 	.word	0x40023c00
 8002dc0:	40023800 	.word	0x40023800
 8002dc4:	08008d28 	.word	0x08008d28
 8002dc8:	2000001c 	.word	0x2000001c
 8002dcc:	20000020 	.word	0x20000020

08002dd0 <HAL_RCC_GetHCLKFreq>:
  * @note   The SystemCoreClock CMSIS variable is used to store System Clock Frequency
  *         and updated within this function
  * @retval HCLK frequency
  */
uint32_t HAL_RCC_GetHCLKFreq(void)
{
 8002dd0:	b480      	push	{r7}
 8002dd2:	af00      	add	r7, sp, #0
  return SystemCoreClock;
 8002dd4:	4b03      	ldr	r3, [pc, #12]	; (8002de4 <HAL_RCC_GetHCLKFreq+0x14>)
 8002dd6:	681b      	ldr	r3, [r3, #0]
}
 8002dd8:	4618      	mov	r0, r3
 8002dda:	46bd      	mov	sp, r7
 8002ddc:	f85d 7b04 	ldr.w	r7, [sp], #4
 8002de0:	4770      	bx	lr
 8002de2:	bf00      	nop
 8002de4:	2000001c 	.word	0x2000001c

08002de8 <HAL_RCC_GetPCLK1Freq>:
  * @note   Each time PCLK1 changes, this function must be called to update the
  *         right PCLK1 value. Otherwise, any configuration based on this function will be incorrect.
  * @retval PCLK1 frequency
  */
uint32_t HAL_RCC_GetPCLK1Freq(void)
{
 8002de8:	b580      	push	{r7, lr}
 8002dea:	af00      	add	r7, sp, #0
  /* Get HCLK source and Compute PCLK1 frequency ---------------------------*/
  return (HAL_RCC_GetHCLKFreq() >> APBPrescTable[(RCC->CFGR & RCC_CFGR_PPRE1)>> RCC_CFGR_PPRE1_Pos]);
 8002dec:	f7ff fff0 	bl	8002dd0 <HAL_RCC_GetHCLKFreq>
 8002df0:	4602      	mov	r2, r0
 8002df2:	4b05      	ldr	r3, [pc, #20]	; (8002e08 <HAL_RCC_GetPCLK1Freq+0x20>)
 8002df4:	689b      	ldr	r3, [r3, #8]
 8002df6:	0a9b      	lsrs	r3, r3, #10
 8002df8:	f003 0307 	and.w	r3, r3, #7
 8002dfc:	4903      	ldr	r1, [pc, #12]	; (8002e0c <HAL_RCC_GetPCLK1Freq+0x24>)
 8002dfe:	5ccb      	ldrb	r3, [r1, r3]
 8002e00:	fa22 f303 	lsr.w	r3, r2, r3
}
 8002e04:	4618      	mov	r0, r3
 8002e06:	bd80      	pop	{r7, pc}
 8002e08:	40023800 	.word	0x40023800
 8002e0c:	08008d38 	.word	0x08008d38

08002e10 <HAL_RCC_GetPCLK2Freq>:
  * @note   Each time PCLK2 changes, this function must be called to update the
  *         right PCLK2 value. Otherwise, any configuration based on this function will be incorrect.
  * @retval PCLK2 frequency
  */
uint32_t HAL_RCC_GetPCLK2Freq(void)
{
 8002e10:	b580      	push	{r7, lr}
 8002e12:	af00      	add	r7, sp, #0
  /* Get HCLK source and Compute PCLK2 frequency ---------------------------*/
  return (HAL_RCC_GetHCLKFreq()>> APBPrescTable[(RCC->CFGR & RCC_CFGR_PPRE2)>> RCC_CFGR_PPRE2_Pos]);
 8002e14:	f7ff ffdc 	bl	8002dd0 <HAL_RCC_GetHCLKFreq>
 8002e18:	4602      	mov	r2, r0
 8002e1a:	4b05      	ldr	r3, [pc, #20]	; (8002e30 <HAL_RCC_GetPCLK2Freq+0x20>)
 8002e1c:	689b      	ldr	r3, [r3, #8]
 8002e1e:	0b5b      	lsrs	r3, r3, #13
 8002e20:	f003 0307 	and.w	r3, r3, #7
 8002e24:	4903      	ldr	r1, [pc, #12]	; (8002e34 <HAL_RCC_GetPCLK2Freq+0x24>)
 8002e26:	5ccb      	ldrb	r3, [r1, r3]
 8002e28:	fa22 f303 	lsr.w	r3, r2, r3
}
 8002e2c:	4618      	mov	r0, r3
 8002e2e:	bd80      	pop	{r7, pc}
 8002e30:	40023800 	.word	0x40023800
 8002e34:	08008d38 	.word	0x08008d38

08002e38 <HAL_RCC_GetSysClockFreq>:
  *
  *
  * @retval SYSCLK frequency
  */
uint32_t HAL_RCC_GetSysClockFreq(void)
{
 8002e38:	e92d 4fb0 	stmdb	sp!, {r4, r5, r7, r8, r9, sl, fp, lr}
 8002e3c:	b088      	sub	sp, #32
 8002e3e:	af00      	add	r7, sp, #0
  uint32_t pllm = 0U;
 8002e40:	2300      	movs	r3, #0
 8002e42:	617b      	str	r3, [r7, #20]
  uint32_t pllvco = 0U;
 8002e44:	2300      	movs	r3, #0
 8002e46:	61fb      	str	r3, [r7, #28]
  uint32_t pllp = 0U;
 8002e48:	2300      	movs	r3, #0
 8002e4a:	613b      	str	r3, [r7, #16]
  uint32_t pllr = 0U;
 8002e4c:	2300      	movs	r3, #0
 8002e4e:	60fb      	str	r3, [r7, #12]
  uint32_t sysclockfreq = 0U;
 8002e50:	2300      	movs	r3, #0
 8002e52:	61bb      	str	r3, [r7, #24]

  /* Get SYSCLK source -------------------------------------------------------*/
  switch (RCC->CFGR & RCC_CFGR_SWS)
 8002e54:	4bce      	ldr	r3, [pc, #824]	; (8003190 <HAL_RCC_GetSysClockFreq+0x358>)
 8002e56:	689b      	ldr	r3, [r3, #8]
 8002e58:	f003 030c 	and.w	r3, r3, #12
 8002e5c:	2b0c      	cmp	r3, #12
 8002e5e:	f200 818d 	bhi.w	800317c <HAL_RCC_GetSysClockFreq+0x344>
 8002e62:	a201      	add	r2, pc, #4	; (adr r2, 8002e68 <HAL_RCC_GetSysClockFreq+0x30>)
 8002e64:	f852 f023 	ldr.w	pc, [r2, r3, lsl #2]
 8002e68:	08002e9d 	.word	0x08002e9d
 8002e6c:	0800317d 	.word	0x0800317d
 8002e70:	0800317d 	.word	0x0800317d
 8002e74:	0800317d 	.word	0x0800317d
 8002e78:	08002ea3 	.word	0x08002ea3
 8002e7c:	0800317d 	.word	0x0800317d
 8002e80:	0800317d 	.word	0x0800317d
 8002e84:	0800317d 	.word	0x0800317d
 8002e88:	08002ea9 	.word	0x08002ea9
 8002e8c:	0800317d 	.word	0x0800317d
 8002e90:	0800317d 	.word	0x0800317d
 8002e94:	0800317d 	.word	0x0800317d
 8002e98:	0800301d 	.word	0x0800301d
  {
    case RCC_CFGR_SWS_HSI:  /* HSI used as system clock source */
    {
      sysclockfreq = HSI_VALUE;
 8002e9c:	4bbd      	ldr	r3, [pc, #756]	; (8003194 <HAL_RCC_GetSysClockFreq+0x35c>)
 8002e9e:	61bb      	str	r3, [r7, #24]
       break;
 8002ea0:	e16f      	b.n	8003182 <HAL_RCC_GetSysClockFreq+0x34a>
    }
    case RCC_CFGR_SWS_HSE:  /* HSE used as system clock  source */
    {
      sysclockfreq = HSE_VALUE;
 8002ea2:	4bbd      	ldr	r3, [pc, #756]	; (8003198 <HAL_RCC_GetSysClockFreq+0x360>)
 8002ea4:	61bb      	str	r3, [r7, #24]
      break;
 8002ea6:	e16c      	b.n	8003182 <HAL_RCC_GetSysClockFreq+0x34a>
    }
    case RCC_CFGR_SWS_PLL:  /* PLL/PLLP used as system clock  source */
    {
      /* PLL_VCO = (HSE_VALUE or HSI_VALUE / PLLM) * PLLN
      SYSCLK = PLL_VCO / PLLP */
      pllm = RCC->PLLCFGR & RCC_PLLCFGR_PLLM;
 8002ea8:	4bb9      	ldr	r3, [pc, #740]	; (8003190 <HAL_RCC_GetSysClockFreq+0x358>)
 8002eaa:	685b      	ldr	r3, [r3, #4]
 8002eac:	f003 033f 	and.w	r3, r3, #63	; 0x3f
 8002eb0:	617b      	str	r3, [r7, #20]
      if(__HAL_RCC_GET_PLL_OSCSOURCE() != RCC_PLLSOURCE_HSI)
 8002eb2:	4bb7      	ldr	r3, [pc, #732]	; (8003190 <HAL_RCC_GetSysClockFreq+0x358>)
 8002eb4:	685b      	ldr	r3, [r3, #4]
 8002eb6:	f403 0380 	and.w	r3, r3, #4194304	; 0x400000
 8002eba:	2b00      	cmp	r3, #0
 8002ebc:	d053      	beq.n	8002f66 <HAL_RCC_GetSysClockFreq+0x12e>
      {
        /* HSE used as PLL clock source */
        pllvco = (uint32_t) ((((uint64_t) HSE_VALUE * ((uint64_t) ((RCC->PLLCFGR & RCC_PLLCFGR_PLLN) >> RCC_PLLCFGR_PLLN_Pos)))) / (uint64_t)pllm);
 8002ebe:	4bb4      	ldr	r3, [pc, #720]	; (8003190 <HAL_RCC_GetSysClockFreq+0x358>)
 8002ec0:	685b      	ldr	r3, [r3, #4]
 8002ec2:	099b      	lsrs	r3, r3, #6
 8002ec4:	461a      	mov	r2, r3
 8002ec6:	f04f 0300 	mov.w	r3, #0
 8002eca:	f240 10ff 	movw	r0, #511	; 0x1ff
 8002ece:	f04f 0100 	mov.w	r1, #0
 8002ed2:	ea02 0400 	and.w	r4, r2, r0
 8002ed6:	603c      	str	r4, [r7, #0]
 8002ed8:	400b      	ands	r3, r1
 8002eda:	607b      	str	r3, [r7, #4]
 8002edc:	e9d7 4500 	ldrd	r4, r5, [r7]
 8002ee0:	4620      	mov	r0, r4
 8002ee2:	4629      	mov	r1, r5
 8002ee4:	f04f 0200 	mov.w	r2, #0
 8002ee8:	f04f 0300 	mov.w	r3, #0
 8002eec:	014b      	lsls	r3, r1, #5
 8002eee:	ea43 63d0 	orr.w	r3, r3, r0, lsr #27
 8002ef2:	0142      	lsls	r2, r0, #5
 8002ef4:	4610      	mov	r0, r2
 8002ef6:	4619      	mov	r1, r3
 8002ef8:	4623      	mov	r3, r4
 8002efa:	1ac0      	subs	r0, r0, r3
 8002efc:	462b      	mov	r3, r5
 8002efe:	eb61 0103 	sbc.w	r1, r1, r3
 8002f02:	f04f 0200 	mov.w	r2, #0
 8002f06:	f04f 0300 	mov.w	r3, #0
 8002f0a:	018b      	lsls	r3, r1, #6
 8002f0c:	ea43 6390 	orr.w	r3, r3, r0, lsr #26
 8002f10:	0182      	lsls	r2, r0, #6
 8002f12:	1a12      	subs	r2, r2, r0
 8002f14:	eb63 0301 	sbc.w	r3, r3, r1
 8002f18:	f04f 0000 	mov.w	r0, #0
 8002f1c:	f04f 0100 	mov.w	r1, #0
 8002f20:	00d9      	lsls	r1, r3, #3
 8002f22:	ea41 7152 	orr.w	r1, r1, r2, lsr #29
 8002f26:	00d0      	lsls	r0, r2, #3
 8002f28:	4602      	mov	r2, r0
 8002f2a:	460b      	mov	r3, r1
 8002f2c:	4621      	mov	r1, r4
 8002f2e:	1852      	adds	r2, r2, r1
 8002f30:	4629      	mov	r1, r5
 8002f32:	eb43 0101 	adc.w	r1, r3, r1
 8002f36:	460b      	mov	r3, r1
 8002f38:	f04f 0000 	mov.w	r0, #0
 8002f3c:	f04f 0100 	mov.w	r1, #0
 8002f40:	0259      	lsls	r1, r3, #9
 8002f42:	ea41 51d2 	orr.w	r1, r1, r2, lsr #23
 8002f46:	0250      	lsls	r0, r2, #9
 8002f48:	4602      	mov	r2, r0
 8002f4a:	460b      	mov	r3, r1
 8002f4c:	4610      	mov	r0, r2
 8002f4e:	4619      	mov	r1, r3
 8002f50:	697b      	ldr	r3, [r7, #20]
 8002f52:	461a      	mov	r2, r3
 8002f54:	f04f 0300 	mov.w	r3, #0
 8002f58:	f7fd fe96 	bl	8000c88 <__aeabi_uldivmod>
 8002f5c:	4602      	mov	r2, r0
 8002f5e:	460b      	mov	r3, r1
 8002f60:	4613      	mov	r3, r2
 8002f62:	61fb      	str	r3, [r7, #28]
 8002f64:	e04c      	b.n	8003000 <HAL_RCC_GetSysClockFreq+0x1c8>
      }
      else
      {
        /* HSI used as PLL clock source */
        pllvco = (uint32_t) ((((uint64_t) HSI_VALUE * ((uint64_t) ((RCC->PLLCFGR & RCC_PLLCFGR_PLLN) >> RCC_PLLCFGR_PLLN_Pos)))) / (uint64_t)pllm);
 8002f66:	4b8a      	ldr	r3, [pc, #552]	; (8003190 <HAL_RCC_GetSysClockFreq+0x358>)
 8002f68:	685b      	ldr	r3, [r3, #4]
 8002f6a:	099b      	lsrs	r3, r3, #6
 8002f6c:	461a      	mov	r2, r3
 8002f6e:	f04f 0300 	mov.w	r3, #0
 8002f72:	f240 10ff 	movw	r0, #511	; 0x1ff
 8002f76:	f04f 0100 	mov.w	r1, #0
 8002f7a:	ea02 0a00 	and.w	sl, r2, r0
 8002f7e:	ea03 0b01 	and.w	fp, r3, r1
 8002f82:	4650      	mov	r0, sl
 8002f84:	4659      	mov	r1, fp
 8002f86:	f04f 0200 	mov.w	r2, #0
 8002f8a:	f04f 0300 	mov.w	r3, #0
 8002f8e:	014b      	lsls	r3, r1, #5
 8002f90:	ea43 63d0 	orr.w	r3, r3, r0, lsr #27
 8002f94:	0142      	lsls	r2, r0, #5
 8002f96:	4610      	mov	r0, r2
 8002f98:	4619      	mov	r1, r3
 8002f9a:	ebb0 000a 	subs.w	r0, r0, sl
 8002f9e:	eb61 010b 	sbc.w	r1, r1, fp
 8002fa2:	f04f 0200 	mov.w	r2, #0
 8002fa6:	f04f 0300 	mov.w	r3, #0
 8002faa:	018b      	lsls	r3, r1, #6
 8002fac:	ea43 6390 	orr.w	r3, r3, r0, lsr #26
 8002fb0:	0182      	lsls	r2, r0, #6
 8002fb2:	1a12      	subs	r2, r2, r0
 8002fb4:	eb63 0301 	sbc.w	r3, r3, r1
 8002fb8:	f04f 0000 	mov.w	r0, #0
 8002fbc:	f04f 0100 	mov.w	r1, #0
 8002fc0:	00d9      	lsls	r1, r3, #3
 8002fc2:	ea41 7152 	orr.w	r1, r1, r2, lsr #29
 8002fc6:	00d0      	lsls	r0, r2, #3
 8002fc8:	4602      	mov	r2, r0
 8002fca:	460b      	mov	r3, r1
 8002fcc:	eb12 020a 	adds.w	r2, r2, sl
 8002fd0:	eb43 030b 	adc.w	r3, r3, fp
 8002fd4:	f04f 0000 	mov.w	r0, #0
 8002fd8:	f04f 0100 	mov.w	r1, #0
 8002fdc:	0299      	lsls	r1, r3, #10
 8002fde:	ea41 5192 	orr.w	r1, r1, r2, lsr #22
 8002fe2:	0290      	lsls	r0, r2, #10
 8002fe4:	4602      	mov	r2, r0
 8002fe6:	460b      	mov	r3, r1
 8002fe8:	4610      	mov	r0, r2
 8002fea:	4619      	mov	r1, r3
 8002fec:	697b      	ldr	r3, [r7, #20]
 8002fee:	461a      	mov	r2, r3
 8002ff0:	f04f 0300 	mov.w	r3, #0
 8002ff4:	f7fd fe48 	bl	8000c88 <__aeabi_uldivmod>
 8002ff8:	4602      	mov	r2, r0
 8002ffa:	460b      	mov	r3, r1
 8002ffc:	4613      	mov	r3, r2
 8002ffe:	61fb      	str	r3, [r7, #28]
      }
      pllp = ((((RCC->PLLCFGR & RCC_PLLCFGR_PLLP) >> RCC_PLLCFGR_PLLP_Pos) + 1U) *2U);
 8003000:	4b63      	ldr	r3, [pc, #396]	; (8003190 <HAL_RCC_GetSysClockFreq+0x358>)
 8003002:	685b      	ldr	r3, [r3, #4]
 8003004:	0c1b      	lsrs	r3, r3, #16
 8003006:	f003 0303 	and.w	r3, r3, #3
 800300a:	3301      	adds	r3, #1
 800300c:	005b      	lsls	r3, r3, #1
 800300e:	613b      	str	r3, [r7, #16]

      sysclockfreq = pllvco/pllp;
 8003010:	69fa      	ldr	r2, [r7, #28]
 8003012:	693b      	ldr	r3, [r7, #16]
 8003014:	fbb2 f3f3 	udiv	r3, r2, r3
 8003018:	61bb      	str	r3, [r7, #24]
      break;
 800301a:	e0b2      	b.n	8003182 <HAL_RCC_GetSysClockFreq+0x34a>
    }
    case RCC_CFGR_SWS_PLLR:  /* PLL/PLLR used as system clock  source */
    {
      /* PLL_VCO = (HSE_VALUE or HSI_VALUE / PLLM) * PLLN
      SYSCLK = PLL_VCO / PLLR */
      pllm = RCC->PLLCFGR & RCC_PLLCFGR_PLLM;
 800301c:	4b5c      	ldr	r3, [pc, #368]	; (8003190 <HAL_RCC_GetSysClockFreq+0x358>)
 800301e:	685b      	ldr	r3, [r3, #4]
 8003020:	f003 033f 	and.w	r3, r3, #63	; 0x3f
 8003024:	617b      	str	r3, [r7, #20]
      if(__HAL_RCC_GET_PLL_OSCSOURCE() != RCC_PLLSOURCE_HSI)
 8003026:	4b5a      	ldr	r3, [pc, #360]	; (8003190 <HAL_RCC_GetSysClockFreq+0x358>)
 8003028:	685b      	ldr	r3, [r3, #4]
 800302a:	f403 0380 	and.w	r3, r3, #4194304	; 0x400000
 800302e:	2b00      	cmp	r3, #0
 8003030:	d04d      	beq.n	80030ce <HAL_RCC_GetSysClockFreq+0x296>
      {
        /* HSE used as PLL clock source */
        pllvco = (uint32_t) ((((uint64_t) HSE_VALUE * ((uint64_t) ((RCC->PLLCFGR & RCC_PLLCFGR_PLLN) >> RCC_PLLCFGR_PLLN_Pos)))) / (uint64_t)pllm);
 8003032:	4b57      	ldr	r3, [pc, #348]	; (8003190 <HAL_RCC_GetSysClockFreq+0x358>)
 8003034:	685b      	ldr	r3, [r3, #4]
 8003036:	099b      	lsrs	r3, r3, #6
 8003038:	461a      	mov	r2, r3
 800303a:	f04f 0300 	mov.w	r3, #0
 800303e:	f240 10ff 	movw	r0, #511	; 0x1ff
 8003042:	f04f 0100 	mov.w	r1, #0
 8003046:	ea02 0800 	and.w	r8, r2, r0
 800304a:	ea03 0901 	and.w	r9, r3, r1
 800304e:	4640      	mov	r0, r8
 8003050:	4649      	mov	r1, r9
 8003052:	f04f 0200 	mov.w	r2, #0
 8003056:	f04f 0300 	mov.w	r3, #0
 800305a:	014b      	lsls	r3, r1, #5
 800305c:	ea43 63d0 	orr.w	r3, r3, r0, lsr #27
 8003060:	0142      	lsls	r2, r0, #5
 8003062:	4610      	mov	r0, r2
 8003064:	4619      	mov	r1, r3
 8003066:	ebb0 0008 	subs.w	r0, r0, r8
 800306a:	eb61 0109 	sbc.w	r1, r1, r9
 800306e:	f04f 0200 	mov.w	r2, #0
 8003072:	f04f 0300 	mov.w	r3, #0
 8003076:	018b      	lsls	r3, r1, #6
 8003078:	ea43 6390 	orr.w	r3, r3, r0, lsr #26
 800307c:	0182      	lsls	r2, r0, #6
 800307e:	1a12      	subs	r2, r2, r0
 8003080:	eb63 0301 	sbc.w	r3, r3, r1
 8003084:	f04f 0000 	mov.w	r0, #0
 8003088:	f04f 0100 	mov.w	r1, #0
 800308c:	00d9      	lsls	r1, r3, #3
 800308e:	ea41 7152 	orr.w	r1, r1, r2, lsr #29
 8003092:	00d0      	lsls	r0, r2, #3
 8003094:	4602      	mov	r2, r0
 8003096:	460b      	mov	r3, r1
 8003098:	eb12 0208 	adds.w	r2, r2, r8
 800309c:	eb43 0309 	adc.w	r3, r3, r9
 80030a0:	f04f 0000 	mov.w	r0, #0
 80030a4:	f04f 0100 	mov.w	r1, #0
 80030a8:	0259      	lsls	r1, r3, #9
 80030aa:	ea41 51d2 	orr.w	r1, r1, r2, lsr #23
 80030ae:	0250      	lsls	r0, r2, #9
 80030b0:	4602      	mov	r2, r0
 80030b2:	460b      	mov	r3, r1
 80030b4:	4610      	mov	r0, r2
 80030b6:	4619      	mov	r1, r3
 80030b8:	697b      	ldr	r3, [r7, #20]
 80030ba:	461a      	mov	r2, r3
 80030bc:	f04f 0300 	mov.w	r3, #0
 80030c0:	f7fd fde2 	bl	8000c88 <__aeabi_uldivmod>
 80030c4:	4602      	mov	r2, r0
 80030c6:	460b      	mov	r3, r1
 80030c8:	4613      	mov	r3, r2
 80030ca:	61fb      	str	r3, [r7, #28]
 80030cc:	e04a      	b.n	8003164 <HAL_RCC_GetSysClockFreq+0x32c>
      }
      else
      {
        /* HSI used as PLL clock source */
        pllvco = (uint32_t) ((((uint64_t) HSI_VALUE * ((uint64_t) ((RCC->PLLCFGR & RCC_PLLCFGR_PLLN) >> RCC_PLLCFGR_PLLN_Pos)))) / (uint64_t)pllm);
 80030ce:	4b30      	ldr	r3, [pc, #192]	; (8003190 <HAL_RCC_GetSysClockFreq+0x358>)
 80030d0:	685b      	ldr	r3, [r3, #4]
 80030d2:	099b      	lsrs	r3, r3, #6
 80030d4:	461a      	mov	r2, r3
 80030d6:	f04f 0300 	mov.w	r3, #0
 80030da:	f240 10ff 	movw	r0, #511	; 0x1ff
 80030de:	f04f 0100 	mov.w	r1, #0
 80030e2:	ea02 0400 	and.w	r4, r2, r0
 80030e6:	ea03 0501 	and.w	r5, r3, r1
 80030ea:	4620      	mov	r0, r4
 80030ec:	4629      	mov	r1, r5
 80030ee:	f04f 0200 	mov.w	r2, #0
 80030f2:	f04f 0300 	mov.w	r3, #0
 80030f6:	014b      	lsls	r3, r1, #5
 80030f8:	ea43 63d0 	orr.w	r3, r3, r0, lsr #27
 80030fc:	0142      	lsls	r2, r0, #5
 80030fe:	4610      	mov	r0, r2
 8003100:	4619      	mov	r1, r3
 8003102:	1b00      	subs	r0, r0, r4
 8003104:	eb61 0105 	sbc.w	r1, r1, r5
 8003108:	f04f 0200 	mov.w	r2, #0
 800310c:	f04f 0300 	mov.w	r3, #0
 8003110:	018b      	lsls	r3, r1, #6
 8003112:	ea43 6390 	orr.w	r3, r3, r0, lsr #26
 8003116:	0182      	lsls	r2, r0, #6
 8003118:	1a12      	subs	r2, r2, r0
 800311a:	eb63 0301 	sbc.w	r3, r3, r1
 800311e:	f04f 0000 	mov.w	r0, #0
 8003122:	f04f 0100 	mov.w	r1, #0
 8003126:	00d9      	lsls	r1, r3, #3
 8003128:	ea41 7152 	orr.w	r1, r1, r2, lsr #29
 800312c:	00d0      	lsls	r0, r2, #3
 800312e:	4602      	mov	r2, r0
 8003130:	460b      	mov	r3, r1
 8003132:	1912      	adds	r2, r2, r4
 8003134:	eb45 0303 	adc.w	r3, r5, r3
 8003138:	f04f 0000 	mov.w	r0, #0
 800313c:	f04f 0100 	mov.w	r1, #0
 8003140:	0299      	lsls	r1, r3, #10
 8003142:	ea41 5192 	orr.w	r1, r1, r2, lsr #22
 8003146:	0290      	lsls	r0, r2, #10
 8003148:	4602      	mov	r2, r0
 800314a:	460b      	mov	r3, r1
 800314c:	4610      	mov	r0, r2
 800314e:	4619      	mov	r1, r3
 8003150:	697b      	ldr	r3, [r7, #20]
 8003152:	461a      	mov	r2, r3
 8003154:	f04f 0300 	mov.w	r3, #0
 8003158:	f7fd fd96 	bl	8000c88 <__aeabi_uldivmod>
 800315c:	4602      	mov	r2, r0
 800315e:	460b      	mov	r3, r1
 8003160:	4613      	mov	r3, r2
 8003162:	61fb      	str	r3, [r7, #28]
      }
      pllr = ((RCC->PLLCFGR & RCC_PLLCFGR_PLLR) >> RCC_PLLCFGR_PLLR_Pos);
 8003164:	4b0a      	ldr	r3, [pc, #40]	; (8003190 <HAL_RCC_GetSysClockFreq+0x358>)
 8003166:	685b      	ldr	r3, [r3, #4]
 8003168:	0f1b      	lsrs	r3, r3, #28
 800316a:	f003 0307 	and.w	r3, r3, #7
 800316e:	60fb      	str	r3, [r7, #12]

      sysclockfreq = pllvco/pllr;
 8003170:	69fa      	ldr	r2, [r7, #28]
 8003172:	68fb      	ldr	r3, [r7, #12]
 8003174:	fbb2 f3f3 	udiv	r3, r2, r3
 8003178:	61bb      	str	r3, [r7, #24]
      break;
 800317a:	e002      	b.n	8003182 <HAL_RCC_GetSysClockFreq+0x34a>
    }
    default:
    {
      sysclockfreq = HSI_VALUE;
 800317c:	4b05      	ldr	r3, [pc, #20]	; (8003194 <HAL_RCC_GetSysClockFreq+0x35c>)
 800317e:	61bb      	str	r3, [r7, #24]
      break;
 8003180:	bf00      	nop
    }
  }
  return sysclockfreq;
 8003182:	69bb      	ldr	r3, [r7, #24]
}
 8003184:	4618      	mov	r0, r3
 8003186:	3720      	adds	r7, #32
 8003188:	46bd      	mov	sp, r7
 800318a:	e8bd 8fb0 	ldmia.w	sp!, {r4, r5, r7, r8, r9, sl, fp, pc}
 800318e:	bf00      	nop
 8003190:	40023800 	.word	0x40023800
 8003194:	00f42400 	.word	0x00f42400
 8003198:	007a1200 	.word	0x007a1200

0800319c <HAL_RCC_OscConfig>:
  * @note   This function add the PLL/PLLR factor management during PLL configuration this feature
  *         is only available in STM32F410xx/STM32F446xx/STM32F469xx/STM32F479xx/STM32F412Zx/STM32F412Vx/STM32F412Rx/STM32F412Cx devices
  * @retval HAL status
  */
HAL_StatusTypeDef HAL_RCC_OscConfig(RCC_OscInitTypeDef  *RCC_OscInitStruct)
{
 800319c:	b580      	push	{r7, lr}
 800319e:	b086      	sub	sp, #24
 80031a0:	af00      	add	r7, sp, #0
 80031a2:	6078      	str	r0, [r7, #4]
  uint32_t tickstart, pll_config;

  /* Check Null pointer */
  if(RCC_OscInitStruct == NULL)
 80031a4:	687b      	ldr	r3, [r7, #4]
 80031a6:	2b00      	cmp	r3, #0
 80031a8:	d101      	bne.n	80031ae <HAL_RCC_OscConfig+0x12>
  {
    return HAL_ERROR;
 80031aa:	2301      	movs	r3, #1
 80031ac:	e28d      	b.n	80036ca <HAL_RCC_OscConfig+0x52e>
  }

  /* Check the parameters */
  assert_param(IS_RCC_OSCILLATORTYPE(RCC_OscInitStruct->OscillatorType));
  /*------------------------------- HSE Configuration ------------------------*/
  if(((RCC_OscInitStruct->OscillatorType) & RCC_OSCILLATORTYPE_HSE) == RCC_OSCILLATORTYPE_HSE)
 80031ae:	687b      	ldr	r3, [r7, #4]
 80031b0:	681b      	ldr	r3, [r3, #0]
 80031b2:	f003 0301 	and.w	r3, r3, #1
 80031b6:	2b00      	cmp	r3, #0
 80031b8:	f000 8083 	beq.w	80032c2 <HAL_RCC_OscConfig+0x126>
  {
    /* Check the parameters */
    assert_param(IS_RCC_HSE(RCC_OscInitStruct->HSEState));
    /* When the HSE is used as system clock or clock source for PLL in these cases HSE will not disabled */
#if defined(STM32F446xx)
    if((__HAL_RCC_GET_SYSCLK_SOURCE() == RCC_CFGR_SWS_HSE)                                                                     ||\
 80031bc:	4b94      	ldr	r3, [pc, #592]	; (8003410 <HAL_RCC_OscConfig+0x274>)
 80031be:	689b      	ldr	r3, [r3, #8]
 80031c0:	f003 030c 	and.w	r3, r3, #12
 80031c4:	2b04      	cmp	r3, #4
 80031c6:	d019      	beq.n	80031fc <HAL_RCC_OscConfig+0x60>
      ((__HAL_RCC_GET_SYSCLK_SOURCE() == RCC_CFGR_SWS_PLL) && ((RCC->PLLCFGR & RCC_PLLCFGR_PLLSRC) == RCC_PLLCFGR_PLLSRC_HSE)) ||\
 80031c8:	4b91      	ldr	r3, [pc, #580]	; (8003410 <HAL_RCC_OscConfig+0x274>)
 80031ca:	689b      	ldr	r3, [r3, #8]
 80031cc:	f003 030c 	and.w	r3, r3, #12
    if((__HAL_RCC_GET_SYSCLK_SOURCE() == RCC_CFGR_SWS_HSE)                                                                     ||\
 80031d0:	2b08      	cmp	r3, #8
 80031d2:	d106      	bne.n	80031e2 <HAL_RCC_OscConfig+0x46>
      ((__HAL_RCC_GET_SYSCLK_SOURCE() == RCC_CFGR_SWS_PLL) && ((RCC->PLLCFGR & RCC_PLLCFGR_PLLSRC) == RCC_PLLCFGR_PLLSRC_HSE)) ||\
 80031d4:	4b8e      	ldr	r3, [pc, #568]	; (8003410 <HAL_RCC_OscConfig+0x274>)
 80031d6:	685b      	ldr	r3, [r3, #4]
 80031d8:	f403 0380 	and.w	r3, r3, #4194304	; 0x400000
 80031dc:	f5b3 0f80 	cmp.w	r3, #4194304	; 0x400000
 80031e0:	d00c      	beq.n	80031fc <HAL_RCC_OscConfig+0x60>
      ((__HAL_RCC_GET_SYSCLK_SOURCE() == RCC_CFGR_SWS_PLLR) && ((RCC->PLLCFGR & RCC_PLLCFGR_PLLSRC) == RCC_PLLCFGR_PLLSRC_HSE)))
 80031e2:	4b8b      	ldr	r3, [pc, #556]	; (8003410 <HAL_RCC_OscConfig+0x274>)
 80031e4:	689b      	ldr	r3, [r3, #8]
 80031e6:	f003 030c 	and.w	r3, r3, #12
      ((__HAL_RCC_GET_SYSCLK_SOURCE() == RCC_CFGR_SWS_PLL) && ((RCC->PLLCFGR & RCC_PLLCFGR_PLLSRC) == RCC_PLLCFGR_PLLSRC_HSE)) ||\
 80031ea:	2b0c      	cmp	r3, #12
 80031ec:	d112      	bne.n	8003214 <HAL_RCC_OscConfig+0x78>
      ((__HAL_RCC_GET_SYSCLK_SOURCE() == RCC_CFGR_SWS_PLLR) && ((RCC->PLLCFGR & RCC_PLLCFGR_PLLSRC) == RCC_PLLCFGR_PLLSRC_HSE)))
 80031ee:	4b88      	ldr	r3, [pc, #544]	; (8003410 <HAL_RCC_OscConfig+0x274>)
 80031f0:	685b      	ldr	r3, [r3, #4]
 80031f2:	f403 0380 	and.w	r3, r3, #4194304	; 0x400000
 80031f6:	f5b3 0f80 	cmp.w	r3, #4194304	; 0x400000
 80031fa:	d10b      	bne.n	8003214 <HAL_RCC_OscConfig+0x78>
#else
    if((__HAL_RCC_GET_SYSCLK_SOURCE() == RCC_CFGR_SWS_HSE)                                                                     ||\
      ((__HAL_RCC_GET_SYSCLK_SOURCE() == RCC_CFGR_SWS_PLL) && ((RCC->PLLCFGR & RCC_PLLCFGR_PLLSRC) == RCC_PLLCFGR_PLLSRC_HSE)))
#endif /* STM32F446xx */
    {
      if((__HAL_RCC_GET_FLAG(RCC_FLAG_HSERDY) != RESET) && (RCC_OscInitStruct->HSEState == RCC_HSE_OFF))
 80031fc:	4b84      	ldr	r3, [pc, #528]	; (8003410 <HAL_RCC_OscConfig+0x274>)
 80031fe:	681b      	ldr	r3, [r3, #0]
 8003200:	f403 3300 	and.w	r3, r3, #131072	; 0x20000
 8003204:	2b00      	cmp	r3, #0
 8003206:	d05b      	beq.n	80032c0 <HAL_RCC_OscConfig+0x124>
 8003208:	687b      	ldr	r3, [r7, #4]
 800320a:	685b      	ldr	r3, [r3, #4]
 800320c:	2b00      	cmp	r3, #0
 800320e:	d157      	bne.n	80032c0 <HAL_RCC_OscConfig+0x124>
      {
        return HAL_ERROR;
 8003210:	2301      	movs	r3, #1
 8003212:	e25a      	b.n	80036ca <HAL_RCC_OscConfig+0x52e>
      }
    }
    else
    {
      /* Set the new HSE configuration ---------------------------------------*/
      __HAL_RCC_HSE_CONFIG(RCC_OscInitStruct->HSEState);
 8003214:	687b      	ldr	r3, [r7, #4]
 8003216:	685b      	ldr	r3, [r3, #4]
 8003218:	f5b3 3f80 	cmp.w	r3, #65536	; 0x10000
 800321c:	d106      	bne.n	800322c <HAL_RCC_OscConfig+0x90>
 800321e:	4b7c      	ldr	r3, [pc, #496]	; (8003410 <HAL_RCC_OscConfig+0x274>)
 8003220:	681b      	ldr	r3, [r3, #0]
 8003222:	4a7b      	ldr	r2, [pc, #492]	; (8003410 <HAL_RCC_OscConfig+0x274>)
 8003224:	f443 3380 	orr.w	r3, r3, #65536	; 0x10000
 8003228:	6013      	str	r3, [r2, #0]
 800322a:	e01d      	b.n	8003268 <HAL_RCC_OscConfig+0xcc>
 800322c:	687b      	ldr	r3, [r7, #4]
 800322e:	685b      	ldr	r3, [r3, #4]
 8003230:	f5b3 2fa0 	cmp.w	r3, #327680	; 0x50000
 8003234:	d10c      	bne.n	8003250 <HAL_RCC_OscConfig+0xb4>
 8003236:	4b76      	ldr	r3, [pc, #472]	; (8003410 <HAL_RCC_OscConfig+0x274>)
 8003238:	681b      	ldr	r3, [r3, #0]
 800323a:	4a75      	ldr	r2, [pc, #468]	; (8003410 <HAL_RCC_OscConfig+0x274>)
 800323c:	f443 2380 	orr.w	r3, r3, #262144	; 0x40000
 8003240:	6013      	str	r3, [r2, #0]
 8003242:	4b73      	ldr	r3, [pc, #460]	; (8003410 <HAL_RCC_OscConfig+0x274>)
 8003244:	681b      	ldr	r3, [r3, #0]
 8003246:	4a72      	ldr	r2, [pc, #456]	; (8003410 <HAL_RCC_OscConfig+0x274>)
 8003248:	f443 3380 	orr.w	r3, r3, #65536	; 0x10000
 800324c:	6013      	str	r3, [r2, #0]
 800324e:	e00b      	b.n	8003268 <HAL_RCC_OscConfig+0xcc>
 8003250:	4b6f      	ldr	r3, [pc, #444]	; (8003410 <HAL_RCC_OscConfig+0x274>)
 8003252:	681b      	ldr	r3, [r3, #0]
 8003254:	4a6e      	ldr	r2, [pc, #440]	; (8003410 <HAL_RCC_OscConfig+0x274>)
 8003256:	f423 3380 	bic.w	r3, r3, #65536	; 0x10000
 800325a:	6013      	str	r3, [r2, #0]
 800325c:	4b6c      	ldr	r3, [pc, #432]	; (8003410 <HAL_RCC_OscConfig+0x274>)
 800325e:	681b      	ldr	r3, [r3, #0]
 8003260:	4a6b      	ldr	r2, [pc, #428]	; (8003410 <HAL_RCC_OscConfig+0x274>)
 8003262:	f423 2380 	bic.w	r3, r3, #262144	; 0x40000
 8003266:	6013      	str	r3, [r2, #0]

      /* Check the HSE State */
      if((RCC_OscInitStruct->HSEState) != RCC_HSE_OFF)
 8003268:	687b      	ldr	r3, [r7, #4]
 800326a:	685b      	ldr	r3, [r3, #4]
 800326c:	2b00      	cmp	r3, #0
 800326e:	d013      	beq.n	8003298 <HAL_RCC_OscConfig+0xfc>
      {
        /* Get Start Tick*/
        tickstart = HAL_GetTick();
 8003270:	f7ff f9d8 	bl	8002624 <HAL_GetTick>
 8003274:	6138      	str	r0, [r7, #16]

        /* Wait till HSE is ready */
        while(__HAL_RCC_GET_FLAG(RCC_FLAG_HSERDY) == RESET)
 8003276:	e008      	b.n	800328a <HAL_RCC_OscConfig+0xee>
        {
          if((HAL_GetTick() - tickstart ) > HSE_TIMEOUT_VALUE)
 8003278:	f7ff f9d4 	bl	8002624 <HAL_GetTick>
 800327c:	4602      	mov	r2, r0
 800327e:	693b      	ldr	r3, [r7, #16]
 8003280:	1ad3      	subs	r3, r2, r3
 8003282:	2b64      	cmp	r3, #100	; 0x64
 8003284:	d901      	bls.n	800328a <HAL_RCC_OscConfig+0xee>
          {
            return HAL_TIMEOUT;
 8003286:	2303      	movs	r3, #3
 8003288:	e21f      	b.n	80036ca <HAL_RCC_OscConfig+0x52e>
        while(__HAL_RCC_GET_FLAG(RCC_FLAG_HSERDY) == RESET)
 800328a:	4b61      	ldr	r3, [pc, #388]	; (8003410 <HAL_RCC_OscConfig+0x274>)
 800328c:	681b      	ldr	r3, [r3, #0]
 800328e:	f403 3300 	and.w	r3, r3, #131072	; 0x20000
 8003292:	2b00      	cmp	r3, #0
 8003294:	d0f0      	beq.n	8003278 <HAL_RCC_OscConfig+0xdc>
 8003296:	e014      	b.n	80032c2 <HAL_RCC_OscConfig+0x126>
        }
      }
      else
      {
        /* Get Start Tick*/
        tickstart = HAL_GetTick();
 8003298:	f7ff f9c4 	bl	8002624 <HAL_GetTick>
 800329c:	6138      	str	r0, [r7, #16]

        /* Wait till HSE is bypassed or disabled */
        while(__HAL_RCC_GET_FLAG(RCC_FLAG_HSERDY) != RESET)
 800329e:	e008      	b.n	80032b2 <HAL_RCC_OscConfig+0x116>
        {
          if((HAL_GetTick() - tickstart ) > HSE_TIMEOUT_VALUE)
 80032a0:	f7ff f9c0 	bl	8002624 <HAL_GetTick>
 80032a4:	4602      	mov	r2, r0
 80032a6:	693b      	ldr	r3, [r7, #16]
 80032a8:	1ad3      	subs	r3, r2, r3
 80032aa:	2b64      	cmp	r3, #100	; 0x64
 80032ac:	d901      	bls.n	80032b2 <HAL_RCC_OscConfig+0x116>
          {
            return HAL_TIMEOUT;
 80032ae:	2303      	movs	r3, #3
 80032b0:	e20b      	b.n	80036ca <HAL_RCC_OscConfig+0x52e>
        while(__HAL_RCC_GET_FLAG(RCC_FLAG_HSERDY) != RESET)
 80032b2:	4b57      	ldr	r3, [pc, #348]	; (8003410 <HAL_RCC_OscConfig+0x274>)
 80032b4:	681b      	ldr	r3, [r3, #0]
 80032b6:	f403 3300 	and.w	r3, r3, #131072	; 0x20000
 80032ba:	2b00      	cmp	r3, #0
 80032bc:	d1f0      	bne.n	80032a0 <HAL_RCC_OscConfig+0x104>
 80032be:	e000      	b.n	80032c2 <HAL_RCC_OscConfig+0x126>
      if((__HAL_RCC_GET_FLAG(RCC_FLAG_HSERDY) != RESET) && (RCC_OscInitStruct->HSEState == RCC_HSE_OFF))
 80032c0:	bf00      	nop
        }
      }
    }
  }
  /*----------------------------- HSI Configuration --------------------------*/
  if(((RCC_OscInitStruct->OscillatorType) & RCC_OSCILLATORTYPE_HSI) == RCC_OSCILLATORTYPE_HSI)
 80032c2:	687b      	ldr	r3, [r7, #4]
 80032c4:	681b      	ldr	r3, [r3, #0]
 80032c6:	f003 0302 	and.w	r3, r3, #2
 80032ca:	2b00      	cmp	r3, #0
 80032cc:	d06f      	beq.n	80033ae <HAL_RCC_OscConfig+0x212>
    assert_param(IS_RCC_HSI(RCC_OscInitStruct->HSIState));
    assert_param(IS_RCC_CALIBRATION_VALUE(RCC_OscInitStruct->HSICalibrationValue));

    /* Check if HSI is used as system clock or as PLL source when PLL is selected as system clock */
#if defined(STM32F446xx)
    if((__HAL_RCC_GET_SYSCLK_SOURCE() == RCC_CFGR_SWS_HSI)                                                                     ||\
 80032ce:	4b50      	ldr	r3, [pc, #320]	; (8003410 <HAL_RCC_OscConfig+0x274>)
 80032d0:	689b      	ldr	r3, [r3, #8]
 80032d2:	f003 030c 	and.w	r3, r3, #12
 80032d6:	2b00      	cmp	r3, #0
 80032d8:	d017      	beq.n	800330a <HAL_RCC_OscConfig+0x16e>
      ((__HAL_RCC_GET_SYSCLK_SOURCE() == RCC_CFGR_SWS_PLL) && ((RCC->PLLCFGR & RCC_PLLCFGR_PLLSRC) == RCC_PLLCFGR_PLLSRC_HSI)) ||\
 80032da:	4b4d      	ldr	r3, [pc, #308]	; (8003410 <HAL_RCC_OscConfig+0x274>)
 80032dc:	689b      	ldr	r3, [r3, #8]
 80032de:	f003 030c 	and.w	r3, r3, #12
    if((__HAL_RCC_GET_SYSCLK_SOURCE() == RCC_CFGR_SWS_HSI)                                                                     ||\
 80032e2:	2b08      	cmp	r3, #8
 80032e4:	d105      	bne.n	80032f2 <HAL_RCC_OscConfig+0x156>
      ((__HAL_RCC_GET_SYSCLK_SOURCE() == RCC_CFGR_SWS_PLL) && ((RCC->PLLCFGR & RCC_PLLCFGR_PLLSRC) == RCC_PLLCFGR_PLLSRC_HSI)) ||\
 80032e6:	4b4a      	ldr	r3, [pc, #296]	; (8003410 <HAL_RCC_OscConfig+0x274>)
 80032e8:	685b      	ldr	r3, [r3, #4]
 80032ea:	f403 0380 	and.w	r3, r3, #4194304	; 0x400000
 80032ee:	2b00      	cmp	r3, #0
 80032f0:	d00b      	beq.n	800330a <HAL_RCC_OscConfig+0x16e>
      ((__HAL_RCC_GET_SYSCLK_SOURCE() == RCC_CFGR_SWS_PLLR) && ((RCC->PLLCFGR & RCC_PLLCFGR_PLLSRC) == RCC_PLLCFGR_PLLSRC_HSI)))
 80032f2:	4b47      	ldr	r3, [pc, #284]	; (8003410 <HAL_RCC_OscConfig+0x274>)
 80032f4:	689b      	ldr	r3, [r3, #8]
 80032f6:	f003 030c 	and.w	r3, r3, #12
      ((__HAL_RCC_GET_SYSCLK_SOURCE() == RCC_CFGR_SWS_PLL) && ((RCC->PLLCFGR & RCC_PLLCFGR_PLLSRC) == RCC_PLLCFGR_PLLSRC_HSI)) ||\
 80032fa:	2b0c      	cmp	r3, #12
 80032fc:	d11c      	bne.n	8003338 <HAL_RCC_OscConfig+0x19c>
      ((__HAL_RCC_GET_SYSCLK_SOURCE() == RCC_CFGR_SWS_PLLR) && ((RCC->PLLCFGR & RCC_PLLCFGR_PLLSRC) == RCC_PLLCFGR_PLLSRC_HSI)))
 80032fe:	4b44      	ldr	r3, [pc, #272]	; (8003410 <HAL_RCC_OscConfig+0x274>)
 8003300:	685b      	ldr	r3, [r3, #4]
 8003302:	f403 0380 	and.w	r3, r3, #4194304	; 0x400000
 8003306:	2b00      	cmp	r3, #0
 8003308:	d116      	bne.n	8003338 <HAL_RCC_OscConfig+0x19c>
    if((__HAL_RCC_GET_SYSCLK_SOURCE() == RCC_CFGR_SWS_HSI)                                                                     ||\
      ((__HAL_RCC_GET_SYSCLK_SOURCE() == RCC_CFGR_SWS_PLL) && ((RCC->PLLCFGR & RCC_PLLCFGR_PLLSRC) == RCC_PLLCFGR_PLLSRC_HSI)))
#endif /* STM32F446xx */
    {
      /* When HSI is used as system clock it will not disabled */
      if((__HAL_RCC_GET_FLAG(RCC_FLAG_HSIRDY) != RESET) && (RCC_OscInitStruct->HSIState != RCC_HSI_ON))
 800330a:	4b41      	ldr	r3, [pc, #260]	; (8003410 <HAL_RCC_OscConfig+0x274>)
 800330c:	681b      	ldr	r3, [r3, #0]
 800330e:	f003 0302 	and.w	r3, r3, #2
 8003312:	2b00      	cmp	r3, #0
 8003314:	d005      	beq.n	8003322 <HAL_RCC_OscConfig+0x186>
 8003316:	687b      	ldr	r3, [r7, #4]
 8003318:	68db      	ldr	r3, [r3, #12]
 800331a:	2b01      	cmp	r3, #1
 800331c:	d001      	beq.n	8003322 <HAL_RCC_OscConfig+0x186>
      {
        return HAL_ERROR;
 800331e:	2301      	movs	r3, #1
 8003320:	e1d3      	b.n	80036ca <HAL_RCC_OscConfig+0x52e>
      }
      /* Otherwise, just the calibration is allowed */
      else
      {
        /* Adjusts the Internal High Speed oscillator (HSI) calibration value.*/
        __HAL_RCC_HSI_CALIBRATIONVALUE_ADJUST(RCC_OscInitStruct->HSICalibrationValue);
 8003322:	4b3b      	ldr	r3, [pc, #236]	; (8003410 <HAL_RCC_OscConfig+0x274>)
 8003324:	681b      	ldr	r3, [r3, #0]
 8003326:	f023 02f8 	bic.w	r2, r3, #248	; 0xf8
 800332a:	687b      	ldr	r3, [r7, #4]
 800332c:	691b      	ldr	r3, [r3, #16]
 800332e:	00db      	lsls	r3, r3, #3
 8003330:	4937      	ldr	r1, [pc, #220]	; (8003410 <HAL_RCC_OscConfig+0x274>)
 8003332:	4313      	orrs	r3, r2
 8003334:	600b      	str	r3, [r1, #0]
      if((__HAL_RCC_GET_FLAG(RCC_FLAG_HSIRDY) != RESET) && (RCC_OscInitStruct->HSIState != RCC_HSI_ON))
 8003336:	e03a      	b.n	80033ae <HAL_RCC_OscConfig+0x212>
      }
    }
    else
    {
      /* Check the HSI State */
      if((RCC_OscInitStruct->HSIState)!= RCC_HSI_OFF)
 8003338:	687b      	ldr	r3, [r7, #4]
 800333a:	68db      	ldr	r3, [r3, #12]
 800333c:	2b00      	cmp	r3, #0
 800333e:	d020      	beq.n	8003382 <HAL_RCC_OscConfig+0x1e6>
      {
        /* Enable the Internal High Speed oscillator (HSI). */
        __HAL_RCC_HSI_ENABLE();
 8003340:	4b34      	ldr	r3, [pc, #208]	; (8003414 <HAL_RCC_OscConfig+0x278>)
 8003342:	2201      	movs	r2, #1
 8003344:	601a      	str	r2, [r3, #0]

        /* Get Start Tick*/
        tickstart = HAL_GetTick();
 8003346:	f7ff f96d 	bl	8002624 <HAL_GetTick>
 800334a:	6138      	str	r0, [r7, #16]

        /* Wait till HSI is ready */
        while(__HAL_RCC_GET_FLAG(RCC_FLAG_HSIRDY) == RESET)
 800334c:	e008      	b.n	8003360 <HAL_RCC_OscConfig+0x1c4>
        {
          if((HAL_GetTick() - tickstart ) > HSI_TIMEOUT_VALUE)
 800334e:	f7ff f969 	bl	8002624 <HAL_GetTick>
 8003352:	4602      	mov	r2, r0
 8003354:	693b      	ldr	r3, [r7, #16]
 8003356:	1ad3      	subs	r3, r2, r3
 8003358:	2b02      	cmp	r3, #2
 800335a:	d901      	bls.n	8003360 <HAL_RCC_OscConfig+0x1c4>
          {
            return HAL_TIMEOUT;
 800335c:	2303      	movs	r3, #3
 800335e:	e1b4      	b.n	80036ca <HAL_RCC_OscConfig+0x52e>
        while(__HAL_RCC_GET_FLAG(RCC_FLAG_HSIRDY) == RESET)
 8003360:	4b2b      	ldr	r3, [pc, #172]	; (8003410 <HAL_RCC_OscConfig+0x274>)
 8003362:	681b      	ldr	r3, [r3, #0]
 8003364:	f003 0302 	and.w	r3, r3, #2
 8003368:	2b00      	cmp	r3, #0
 800336a:	d0f0      	beq.n	800334e <HAL_RCC_OscConfig+0x1b2>
          }
        }

        /* Adjusts the Internal High Speed oscillator (HSI) calibration value.*/
        __HAL_RCC_HSI_CALIBRATIONVALUE_ADJUST(RCC_OscInitStruct->HSICalibrationValue);
 800336c:	4b28      	ldr	r3, [pc, #160]	; (8003410 <HAL_RCC_OscConfig+0x274>)
 800336e:	681b      	ldr	r3, [r3, #0]
 8003370:	f023 02f8 	bic.w	r2, r3, #248	; 0xf8
 8003374:	687b      	ldr	r3, [r7, #4]
 8003376:	691b      	ldr	r3, [r3, #16]
 8003378:	00db      	lsls	r3, r3, #3
 800337a:	4925      	ldr	r1, [pc, #148]	; (8003410 <HAL_RCC_OscConfig+0x274>)
 800337c:	4313      	orrs	r3, r2
 800337e:	600b      	str	r3, [r1, #0]
 8003380:	e015      	b.n	80033ae <HAL_RCC_OscConfig+0x212>
      }
      else
      {
        /* Disable the Internal High Speed oscillator (HSI). */
        __HAL_RCC_HSI_DISABLE();
 8003382:	4b24      	ldr	r3, [pc, #144]	; (8003414 <HAL_RCC_OscConfig+0x278>)
 8003384:	2200      	movs	r2, #0
 8003386:	601a      	str	r2, [r3, #0]

        /* Get Start Tick*/
        tickstart = HAL_GetTick();
 8003388:	f7ff f94c 	bl	8002624 <HAL_GetTick>
 800338c:	6138      	str	r0, [r7, #16]

        /* Wait till HSI is ready */
        while(__HAL_RCC_GET_FLAG(RCC_FLAG_HSIRDY) != RESET)
 800338e:	e008      	b.n	80033a2 <HAL_RCC_OscConfig+0x206>
        {
          if((HAL_GetTick() - tickstart ) > HSI_TIMEOUT_VALUE)
 8003390:	f7ff f948 	bl	8002624 <HAL_GetTick>
 8003394:	4602      	mov	r2, r0
 8003396:	693b      	ldr	r3, [r7, #16]
 8003398:	1ad3      	subs	r3, r2, r3
 800339a:	2b02      	cmp	r3, #2
 800339c:	d901      	bls.n	80033a2 <HAL_RCC_OscConfig+0x206>
          {
            return HAL_TIMEOUT;
 800339e:	2303      	movs	r3, #3
 80033a0:	e193      	b.n	80036ca <HAL_RCC_OscConfig+0x52e>
        while(__HAL_RCC_GET_FLAG(RCC_FLAG_HSIRDY) != RESET)
 80033a2:	4b1b      	ldr	r3, [pc, #108]	; (8003410 <HAL_RCC_OscConfig+0x274>)
 80033a4:	681b      	ldr	r3, [r3, #0]
 80033a6:	f003 0302 	and.w	r3, r3, #2
 80033aa:	2b00      	cmp	r3, #0
 80033ac:	d1f0      	bne.n	8003390 <HAL_RCC_OscConfig+0x1f4>
        }
      }
    }
  }
  /*------------------------------ LSI Configuration -------------------------*/
  if(((RCC_OscInitStruct->OscillatorType) & RCC_OSCILLATORTYPE_LSI) == RCC_OSCILLATORTYPE_LSI)
 80033ae:	687b      	ldr	r3, [r7, #4]
 80033b0:	681b      	ldr	r3, [r3, #0]
 80033b2:	f003 0308 	and.w	r3, r3, #8
 80033b6:	2b00      	cmp	r3, #0
 80033b8:	d036      	beq.n	8003428 <HAL_RCC_OscConfig+0x28c>
  {
    /* Check the parameters */
    assert_param(IS_RCC_LSI(RCC_OscInitStruct->LSIState));

    /* Check the LSI State */
    if((RCC_OscInitStruct->LSIState)!= RCC_LSI_OFF)
 80033ba:	687b      	ldr	r3, [r7, #4]
 80033bc:	695b      	ldr	r3, [r3, #20]
 80033be:	2b00      	cmp	r3, #0
 80033c0:	d016      	beq.n	80033f0 <HAL_RCC_OscConfig+0x254>
    {
      /* Enable the Internal Low Speed oscillator (LSI). */
      __HAL_RCC_LSI_ENABLE();
 80033c2:	4b15      	ldr	r3, [pc, #84]	; (8003418 <HAL_RCC_OscConfig+0x27c>)
 80033c4:	2201      	movs	r2, #1
 80033c6:	601a      	str	r2, [r3, #0]

      /* Get Start Tick*/
      tickstart = HAL_GetTick();
 80033c8:	f7ff f92c 	bl	8002624 <HAL_GetTick>
 80033cc:	6138      	str	r0, [r7, #16]

      /* Wait till LSI is ready */
      while(__HAL_RCC_GET_FLAG(RCC_FLAG_LSIRDY) == RESET)
 80033ce:	e008      	b.n	80033e2 <HAL_RCC_OscConfig+0x246>
      {
        if((HAL_GetTick() - tickstart ) > LSI_TIMEOUT_VALUE)
 80033d0:	f7ff f928 	bl	8002624 <HAL_GetTick>
 80033d4:	4602      	mov	r2, r0
 80033d6:	693b      	ldr	r3, [r7, #16]
 80033d8:	1ad3      	subs	r3, r2, r3
 80033da:	2b02      	cmp	r3, #2
 80033dc:	d901      	bls.n	80033e2 <HAL_RCC_OscConfig+0x246>
        {
          return HAL_TIMEOUT;
 80033de:	2303      	movs	r3, #3
 80033e0:	e173      	b.n	80036ca <HAL_RCC_OscConfig+0x52e>
      while(__HAL_RCC_GET_FLAG(RCC_FLAG_LSIRDY) == RESET)
 80033e2:	4b0b      	ldr	r3, [pc, #44]	; (8003410 <HAL_RCC_OscConfig+0x274>)
 80033e4:	6f5b      	ldr	r3, [r3, #116]	; 0x74
 80033e6:	f003 0302 	and.w	r3, r3, #2
 80033ea:	2b00      	cmp	r3, #0
 80033ec:	d0f0      	beq.n	80033d0 <HAL_RCC_OscConfig+0x234>
 80033ee:	e01b      	b.n	8003428 <HAL_RCC_OscConfig+0x28c>
      }
    }
    else
    {
      /* Disable the Internal Low Speed oscillator (LSI). */
      __HAL_RCC_LSI_DISABLE();
 80033f0:	4b09      	ldr	r3, [pc, #36]	; (8003418 <HAL_RCC_OscConfig+0x27c>)
 80033f2:	2200      	movs	r2, #0
 80033f4:	601a      	str	r2, [r3, #0]

      /* Get Start Tick*/
      tickstart = HAL_GetTick();
 80033f6:	f7ff f915 	bl	8002624 <HAL_GetTick>
 80033fa:	6138      	str	r0, [r7, #16]

      /* Wait till LSI is ready */
      while(__HAL_RCC_GET_FLAG(RCC_FLAG_LSIRDY) != RESET)
 80033fc:	e00e      	b.n	800341c <HAL_RCC_OscConfig+0x280>
      {
        if((HAL_GetTick() - tickstart ) > LSI_TIMEOUT_VALUE)
 80033fe:	f7ff f911 	bl	8002624 <HAL_GetTick>
 8003402:	4602      	mov	r2, r0
 8003404:	693b      	ldr	r3, [r7, #16]
 8003406:	1ad3      	subs	r3, r2, r3
 8003408:	2b02      	cmp	r3, #2
 800340a:	d907      	bls.n	800341c <HAL_RCC_OscConfig+0x280>
        {
          return HAL_TIMEOUT;
 800340c:	2303      	movs	r3, #3
 800340e:	e15c      	b.n	80036ca <HAL_RCC_OscConfig+0x52e>
 8003410:	40023800 	.word	0x40023800
 8003414:	42470000 	.word	0x42470000
 8003418:	42470e80 	.word	0x42470e80
      while(__HAL_RCC_GET_FLAG(RCC_FLAG_LSIRDY) != RESET)
 800341c:	4b8a      	ldr	r3, [pc, #552]	; (8003648 <HAL_RCC_OscConfig+0x4ac>)
 800341e:	6f5b      	ldr	r3, [r3, #116]	; 0x74
 8003420:	f003 0302 	and.w	r3, r3, #2
 8003424:	2b00      	cmp	r3, #0
 8003426:	d1ea      	bne.n	80033fe <HAL_RCC_OscConfig+0x262>
        }
      }
    }
  }
  /*------------------------------ LSE Configuration -------------------------*/
  if(((RCC_OscInitStruct->OscillatorType) & RCC_OSCILLATORTYPE_LSE) == RCC_OSCILLATORTYPE_LSE)
 8003428:	687b      	ldr	r3, [r7, #4]
 800342a:	681b      	ldr	r3, [r3, #0]
 800342c:	f003 0304 	and.w	r3, r3, #4
 8003430:	2b00      	cmp	r3, #0
 8003432:	f000 8097 	beq.w	8003564 <HAL_RCC_OscConfig+0x3c8>
  {
    FlagStatus       pwrclkchanged = RESET;
 8003436:	2300      	movs	r3, #0
 8003438:	75fb      	strb	r3, [r7, #23]
    /* Check the parameters */
    assert_param(IS_RCC_LSE(RCC_OscInitStruct->LSEState));

    /* Update LSE configuration in Backup Domain control register    */
    /* Requires to enable write access to Backup Domain of necessary */
    if(__HAL_RCC_PWR_IS_CLK_DISABLED())
 800343a:	4b83      	ldr	r3, [pc, #524]	; (8003648 <HAL_RCC_OscConfig+0x4ac>)
 800343c:	6c1b      	ldr	r3, [r3, #64]	; 0x40
 800343e:	f003 5380 	and.w	r3, r3, #268435456	; 0x10000000
 8003442:	2b00      	cmp	r3, #0
 8003444:	d10f      	bne.n	8003466 <HAL_RCC_OscConfig+0x2ca>
    {
      __HAL_RCC_PWR_CLK_ENABLE();
 8003446:	2300      	movs	r3, #0
 8003448:	60bb      	str	r3, [r7, #8]
 800344a:	4b7f      	ldr	r3, [pc, #508]	; (8003648 <HAL_RCC_OscConfig+0x4ac>)
 800344c:	6c1b      	ldr	r3, [r3, #64]	; 0x40
 800344e:	4a7e      	ldr	r2, [pc, #504]	; (8003648 <HAL_RCC_OscConfig+0x4ac>)
 8003450:	f043 5380 	orr.w	r3, r3, #268435456	; 0x10000000
 8003454:	6413      	str	r3, [r2, #64]	; 0x40
 8003456:	4b7c      	ldr	r3, [pc, #496]	; (8003648 <HAL_RCC_OscConfig+0x4ac>)
 8003458:	6c1b      	ldr	r3, [r3, #64]	; 0x40
 800345a:	f003 5380 	and.w	r3, r3, #268435456	; 0x10000000
 800345e:	60bb      	str	r3, [r7, #8]
 8003460:	68bb      	ldr	r3, [r7, #8]
      pwrclkchanged = SET;
 8003462:	2301      	movs	r3, #1
 8003464:	75fb      	strb	r3, [r7, #23]
    }

    if(HAL_IS_BIT_CLR(PWR->CR, PWR_CR_DBP))
 8003466:	4b79      	ldr	r3, [pc, #484]	; (800364c <HAL_RCC_OscConfig+0x4b0>)
 8003468:	681b      	ldr	r3, [r3, #0]
 800346a:	f403 7380 	and.w	r3, r3, #256	; 0x100
 800346e:	2b00      	cmp	r3, #0
 8003470:	d118      	bne.n	80034a4 <HAL_RCC_OscConfig+0x308>
    {
      /* Enable write access to Backup domain */
      SET_BIT(PWR->CR, PWR_CR_DBP);
 8003472:	4b76      	ldr	r3, [pc, #472]	; (800364c <HAL_RCC_OscConfig+0x4b0>)
 8003474:	681b      	ldr	r3, [r3, #0]
 8003476:	4a75      	ldr	r2, [pc, #468]	; (800364c <HAL_RCC_OscConfig+0x4b0>)
 8003478:	f443 7380 	orr.w	r3, r3, #256	; 0x100
 800347c:	6013      	str	r3, [r2, #0]

      /* Wait for Backup domain Write protection disable */
      tickstart = HAL_GetTick();
 800347e:	f7ff f8d1 	bl	8002624 <HAL_GetTick>
 8003482:	6138      	str	r0, [r7, #16]

      while(HAL_IS_BIT_CLR(PWR->CR, PWR_CR_DBP))
 8003484:	e008      	b.n	8003498 <HAL_RCC_OscConfig+0x2fc>
      {
        if((HAL_GetTick() - tickstart) > RCC_DBP_TIMEOUT_VALUE)
 8003486:	f7ff f8cd 	bl	8002624 <HAL_GetTick>
 800348a:	4602      	mov	r2, r0
 800348c:	693b      	ldr	r3, [r7, #16]
 800348e:	1ad3      	subs	r3, r2, r3
 8003490:	2b02      	cmp	r3, #2
 8003492:	d901      	bls.n	8003498 <HAL_RCC_OscConfig+0x2fc>
        {
          return HAL_TIMEOUT;
 8003494:	2303      	movs	r3, #3
 8003496:	e118      	b.n	80036ca <HAL_RCC_OscConfig+0x52e>
      while(HAL_IS_BIT_CLR(PWR->CR, PWR_CR_DBP))
 8003498:	4b6c      	ldr	r3, [pc, #432]	; (800364c <HAL_RCC_OscConfig+0x4b0>)
 800349a:	681b      	ldr	r3, [r3, #0]
 800349c:	f403 7380 	and.w	r3, r3, #256	; 0x100
 80034a0:	2b00      	cmp	r3, #0
 80034a2:	d0f0      	beq.n	8003486 <HAL_RCC_OscConfig+0x2ea>
        }
      }
    }

    /* Set the new LSE configuration -----------------------------------------*/
    __HAL_RCC_LSE_CONFIG(RCC_OscInitStruct->LSEState);
 80034a4:	687b      	ldr	r3, [r7, #4]
 80034a6:	689b      	ldr	r3, [r3, #8]
 80034a8:	2b01      	cmp	r3, #1
 80034aa:	d106      	bne.n	80034ba <HAL_RCC_OscConfig+0x31e>
 80034ac:	4b66      	ldr	r3, [pc, #408]	; (8003648 <HAL_RCC_OscConfig+0x4ac>)
 80034ae:	6f1b      	ldr	r3, [r3, #112]	; 0x70
 80034b0:	4a65      	ldr	r2, [pc, #404]	; (8003648 <HAL_RCC_OscConfig+0x4ac>)
 80034b2:	f043 0301 	orr.w	r3, r3, #1
 80034b6:	6713      	str	r3, [r2, #112]	; 0x70
 80034b8:	e01c      	b.n	80034f4 <HAL_RCC_OscConfig+0x358>
 80034ba:	687b      	ldr	r3, [r7, #4]
 80034bc:	689b      	ldr	r3, [r3, #8]
 80034be:	2b05      	cmp	r3, #5
 80034c0:	d10c      	bne.n	80034dc <HAL_RCC_OscConfig+0x340>
 80034c2:	4b61      	ldr	r3, [pc, #388]	; (8003648 <HAL_RCC_OscConfig+0x4ac>)
 80034c4:	6f1b      	ldr	r3, [r3, #112]	; 0x70
 80034c6:	4a60      	ldr	r2, [pc, #384]	; (8003648 <HAL_RCC_OscConfig+0x4ac>)
 80034c8:	f043 0304 	orr.w	r3, r3, #4
 80034cc:	6713      	str	r3, [r2, #112]	; 0x70
 80034ce:	4b5e      	ldr	r3, [pc, #376]	; (8003648 <HAL_RCC_OscConfig+0x4ac>)
 80034d0:	6f1b      	ldr	r3, [r3, #112]	; 0x70
 80034d2:	4a5d      	ldr	r2, [pc, #372]	; (8003648 <HAL_RCC_OscConfig+0x4ac>)
 80034d4:	f043 0301 	orr.w	r3, r3, #1
 80034d8:	6713      	str	r3, [r2, #112]	; 0x70
 80034da:	e00b      	b.n	80034f4 <HAL_RCC_OscConfig+0x358>
 80034dc:	4b5a      	ldr	r3, [pc, #360]	; (8003648 <HAL_RCC_OscConfig+0x4ac>)
 80034de:	6f1b      	ldr	r3, [r3, #112]	; 0x70
 80034e0:	4a59      	ldr	r2, [pc, #356]	; (8003648 <HAL_RCC_OscConfig+0x4ac>)
 80034e2:	f023 0301 	bic.w	r3, r3, #1
 80034e6:	6713      	str	r3, [r2, #112]	; 0x70
 80034e8:	4b57      	ldr	r3, [pc, #348]	; (8003648 <HAL_RCC_OscConfig+0x4ac>)
 80034ea:	6f1b      	ldr	r3, [r3, #112]	; 0x70
 80034ec:	4a56      	ldr	r2, [pc, #344]	; (8003648 <HAL_RCC_OscConfig+0x4ac>)
 80034ee:	f023 0304 	bic.w	r3, r3, #4
 80034f2:	6713      	str	r3, [r2, #112]	; 0x70
    /* Check the LSE State */
    if((RCC_OscInitStruct->LSEState) != RCC_LSE_OFF)
 80034f4:	687b      	ldr	r3, [r7, #4]
 80034f6:	689b      	ldr	r3, [r3, #8]
 80034f8:	2b00      	cmp	r3, #0
 80034fa:	d015      	beq.n	8003528 <HAL_RCC_OscConfig+0x38c>
    {
      /* Get Start Tick*/
      tickstart = HAL_GetTick();
 80034fc:	f7ff f892 	bl	8002624 <HAL_GetTick>
 8003500:	6138      	str	r0, [r7, #16]

      /* Wait till LSE is ready */
      while(__HAL_RCC_GET_FLAG(RCC_FLAG_LSERDY) == RESET)
 8003502:	e00a      	b.n	800351a <HAL_RCC_OscConfig+0x37e>
      {
        if((HAL_GetTick() - tickstart ) > RCC_LSE_TIMEOUT_VALUE)
 8003504:	f7ff f88e 	bl	8002624 <HAL_GetTick>
 8003508:	4602      	mov	r2, r0
 800350a:	693b      	ldr	r3, [r7, #16]
 800350c:	1ad3      	subs	r3, r2, r3
 800350e:	f241 3288 	movw	r2, #5000	; 0x1388
 8003512:	4293      	cmp	r3, r2
 8003514:	d901      	bls.n	800351a <HAL_RCC_OscConfig+0x37e>
        {
          return HAL_TIMEOUT;
 8003516:	2303      	movs	r3, #3
 8003518:	e0d7      	b.n	80036ca <HAL_RCC_OscConfig+0x52e>
      while(__HAL_RCC_GET_FLAG(RCC_FLAG_LSERDY) == RESET)
 800351a:	4b4b      	ldr	r3, [pc, #300]	; (8003648 <HAL_RCC_OscConfig+0x4ac>)
 800351c:	6f1b      	ldr	r3, [r3, #112]	; 0x70
 800351e:	f003 0302 	and.w	r3, r3, #2
 8003522:	2b00      	cmp	r3, #0
 8003524:	d0ee      	beq.n	8003504 <HAL_RCC_OscConfig+0x368>
 8003526:	e014      	b.n	8003552 <HAL_RCC_OscConfig+0x3b6>
      }
    }
    else
    {
      /* Get Start Tick*/
      tickstart = HAL_GetTick();
 8003528:	f7ff f87c 	bl	8002624 <HAL_GetTick>
 800352c:	6138      	str	r0, [r7, #16]

      /* Wait till LSE is ready */
      while(__HAL_RCC_GET_FLAG(RCC_FLAG_LSERDY) != RESET)
 800352e:	e00a      	b.n	8003546 <HAL_RCC_OscConfig+0x3aa>
      {
        if((HAL_GetTick() - tickstart ) > RCC_LSE_TIMEOUT_VALUE)
 8003530:	f7ff f878 	bl	8002624 <HAL_GetTick>
 8003534:	4602      	mov	r2, r0
 8003536:	693b      	ldr	r3, [r7, #16]
 8003538:	1ad3      	subs	r3, r2, r3
 800353a:	f241 3288 	movw	r2, #5000	; 0x1388
 800353e:	4293      	cmp	r3, r2
 8003540:	d901      	bls.n	8003546 <HAL_RCC_OscConfig+0x3aa>
        {
          return HAL_TIMEOUT;
 8003542:	2303      	movs	r3, #3
 8003544:	e0c1      	b.n	80036ca <HAL_RCC_OscConfig+0x52e>
      while(__HAL_RCC_GET_FLAG(RCC_FLAG_LSERDY) != RESET)
 8003546:	4b40      	ldr	r3, [pc, #256]	; (8003648 <HAL_RCC_OscConfig+0x4ac>)
 8003548:	6f1b      	ldr	r3, [r3, #112]	; 0x70
 800354a:	f003 0302 	and.w	r3, r3, #2
 800354e:	2b00      	cmp	r3, #0
 8003550:	d1ee      	bne.n	8003530 <HAL_RCC_OscConfig+0x394>
        }
      }
    }

    /* Restore clock configuration if changed */
    if(pwrclkchanged == SET)
 8003552:	7dfb      	ldrb	r3, [r7, #23]
 8003554:	2b01      	cmp	r3, #1
 8003556:	d105      	bne.n	8003564 <HAL_RCC_OscConfig+0x3c8>
    {
      __HAL_RCC_PWR_CLK_DISABLE();
 8003558:	4b3b      	ldr	r3, [pc, #236]	; (8003648 <HAL_RCC_OscConfig+0x4ac>)
 800355a:	6c1b      	ldr	r3, [r3, #64]	; 0x40
 800355c:	4a3a      	ldr	r2, [pc, #232]	; (8003648 <HAL_RCC_OscConfig+0x4ac>)
 800355e:	f023 5380 	bic.w	r3, r3, #268435456	; 0x10000000
 8003562:	6413      	str	r3, [r2, #64]	; 0x40
    }
  }
  /*-------------------------------- PLL Configuration -----------------------*/
  /* Check the parameters */
  assert_param(IS_RCC_PLL(RCC_OscInitStruct->PLL.PLLState));
  if ((RCC_OscInitStruct->PLL.PLLState) != RCC_PLL_NONE)
 8003564:	687b      	ldr	r3, [r7, #4]
 8003566:	699b      	ldr	r3, [r3, #24]
 8003568:	2b00      	cmp	r3, #0
 800356a:	f000 80ad 	beq.w	80036c8 <HAL_RCC_OscConfig+0x52c>
  {
    /* Check if the PLL is used as system clock or not */
    if(__HAL_RCC_GET_SYSCLK_SOURCE() != RCC_CFGR_SWS_PLL)
 800356e:	4b36      	ldr	r3, [pc, #216]	; (8003648 <HAL_RCC_OscConfig+0x4ac>)
 8003570:	689b      	ldr	r3, [r3, #8]
 8003572:	f003 030c 	and.w	r3, r3, #12
 8003576:	2b08      	cmp	r3, #8
 8003578:	d060      	beq.n	800363c <HAL_RCC_OscConfig+0x4a0>
    {
      if((RCC_OscInitStruct->PLL.PLLState) == RCC_PLL_ON)
 800357a:	687b      	ldr	r3, [r7, #4]
 800357c:	699b      	ldr	r3, [r3, #24]
 800357e:	2b02      	cmp	r3, #2
 8003580:	d145      	bne.n	800360e <HAL_RCC_OscConfig+0x472>
        assert_param(IS_RCC_PLLP_VALUE(RCC_OscInitStruct->PLL.PLLP));
        assert_param(IS_RCC_PLLQ_VALUE(RCC_OscInitStruct->PLL.PLLQ));
        assert_param(IS_RCC_PLLR_VALUE(RCC_OscInitStruct->PLL.PLLR));

        /* Disable the main PLL. */
        __HAL_RCC_PLL_DISABLE();
 8003582:	4b33      	ldr	r3, [pc, #204]	; (8003650 <HAL_RCC_OscConfig+0x4b4>)
 8003584:	2200      	movs	r2, #0
 8003586:	601a      	str	r2, [r3, #0]

        /* Get Start Tick*/
        tickstart = HAL_GetTick();
 8003588:	f7ff f84c 	bl	8002624 <HAL_GetTick>
 800358c:	6138      	str	r0, [r7, #16]

        /* Wait till PLL is ready */
        while(__HAL_RCC_GET_FLAG(RCC_FLAG_PLLRDY) != RESET)
 800358e:	e008      	b.n	80035a2 <HAL_RCC_OscConfig+0x406>
        {
          if((HAL_GetTick() - tickstart ) > PLL_TIMEOUT_VALUE)
 8003590:	f7ff f848 	bl	8002624 <HAL_GetTick>
 8003594:	4602      	mov	r2, r0
 8003596:	693b      	ldr	r3, [r7, #16]
 8003598:	1ad3      	subs	r3, r2, r3
 800359a:	2b02      	cmp	r3, #2
 800359c:	d901      	bls.n	80035a2 <HAL_RCC_OscConfig+0x406>
          {
            return HAL_TIMEOUT;
 800359e:	2303      	movs	r3, #3
 80035a0:	e093      	b.n	80036ca <HAL_RCC_OscConfig+0x52e>
        while(__HAL_RCC_GET_FLAG(RCC_FLAG_PLLRDY) != RESET)
 80035a2:	4b29      	ldr	r3, [pc, #164]	; (8003648 <HAL_RCC_OscConfig+0x4ac>)
 80035a4:	681b      	ldr	r3, [r3, #0]
 80035a6:	f003 7300 	and.w	r3, r3, #33554432	; 0x2000000
 80035aa:	2b00      	cmp	r3, #0
 80035ac:	d1f0      	bne.n	8003590 <HAL_RCC_OscConfig+0x3f4>
          }
        }

        /* Configure the main PLL clock source, multiplication and division factors. */
        WRITE_REG(RCC->PLLCFGR, (RCC_OscInitStruct->PLL.PLLSource                                            | \
 80035ae:	687b      	ldr	r3, [r7, #4]
 80035b0:	69da      	ldr	r2, [r3, #28]
 80035b2:	687b      	ldr	r3, [r7, #4]
 80035b4:	6a1b      	ldr	r3, [r3, #32]
 80035b6:	431a      	orrs	r2, r3
 80035b8:	687b      	ldr	r3, [r7, #4]
 80035ba:	6a5b      	ldr	r3, [r3, #36]	; 0x24
 80035bc:	019b      	lsls	r3, r3, #6
 80035be:	431a      	orrs	r2, r3
 80035c0:	687b      	ldr	r3, [r7, #4]
 80035c2:	6a9b      	ldr	r3, [r3, #40]	; 0x28
 80035c4:	085b      	lsrs	r3, r3, #1
 80035c6:	3b01      	subs	r3, #1
 80035c8:	041b      	lsls	r3, r3, #16
 80035ca:	431a      	orrs	r2, r3
 80035cc:	687b      	ldr	r3, [r7, #4]
 80035ce:	6adb      	ldr	r3, [r3, #44]	; 0x2c
 80035d0:	061b      	lsls	r3, r3, #24
 80035d2:	431a      	orrs	r2, r3
 80035d4:	687b      	ldr	r3, [r7, #4]
 80035d6:	6b1b      	ldr	r3, [r3, #48]	; 0x30
 80035d8:	071b      	lsls	r3, r3, #28
 80035da:	491b      	ldr	r1, [pc, #108]	; (8003648 <HAL_RCC_OscConfig+0x4ac>)
 80035dc:	4313      	orrs	r3, r2
 80035de:	604b      	str	r3, [r1, #4]
                                 (RCC_OscInitStruct->PLL.PLLN << RCC_PLLCFGR_PLLN_Pos)                       | \
                                 (((RCC_OscInitStruct->PLL.PLLP >> 1U) - 1U) << RCC_PLLCFGR_PLLP_Pos)        | \
                                 (RCC_OscInitStruct->PLL.PLLQ << RCC_PLLCFGR_PLLQ_Pos)                       | \
                                 (RCC_OscInitStruct->PLL.PLLR << RCC_PLLCFGR_PLLR_Pos)));
        /* Enable the main PLL. */
        __HAL_RCC_PLL_ENABLE();
 80035e0:	4b1b      	ldr	r3, [pc, #108]	; (8003650 <HAL_RCC_OscConfig+0x4b4>)
 80035e2:	2201      	movs	r2, #1
 80035e4:	601a      	str	r2, [r3, #0]

        /* Get Start Tick*/
        tickstart = HAL_GetTick();
 80035e6:	f7ff f81d 	bl	8002624 <HAL_GetTick>
 80035ea:	6138      	str	r0, [r7, #16]

        /* Wait till PLL is ready */
        while(__HAL_RCC_GET_FLAG(RCC_FLAG_PLLRDY) == RESET)
 80035ec:	e008      	b.n	8003600 <HAL_RCC_OscConfig+0x464>
        {
          if((HAL_GetTick() - tickstart ) > PLL_TIMEOUT_VALUE)
 80035ee:	f7ff f819 	bl	8002624 <HAL_GetTick>
 80035f2:	4602      	mov	r2, r0
 80035f4:	693b      	ldr	r3, [r7, #16]
 80035f6:	1ad3      	subs	r3, r2, r3
 80035f8:	2b02      	cmp	r3, #2
 80035fa:	d901      	bls.n	8003600 <HAL_RCC_OscConfig+0x464>
          {
            return HAL_TIMEOUT;
 80035fc:	2303      	movs	r3, #3
 80035fe:	e064      	b.n	80036ca <HAL_RCC_OscConfig+0x52e>
        while(__HAL_RCC_GET_FLAG(RCC_FLAG_PLLRDY) == RESET)
 8003600:	4b11      	ldr	r3, [pc, #68]	; (8003648 <HAL_RCC_OscConfig+0x4ac>)
 8003602:	681b      	ldr	r3, [r3, #0]
 8003604:	f003 7300 	and.w	r3, r3, #33554432	; 0x2000000
 8003608:	2b00      	cmp	r3, #0
 800360a:	d0f0      	beq.n	80035ee <HAL_RCC_OscConfig+0x452>
 800360c:	e05c      	b.n	80036c8 <HAL_RCC_OscConfig+0x52c>
        }
      }
      else
      {
        /* Disable the main PLL. */
        __HAL_RCC_PLL_DISABLE();
 800360e:	4b10      	ldr	r3, [pc, #64]	; (8003650 <HAL_RCC_OscConfig+0x4b4>)
 8003610:	2200      	movs	r2, #0
 8003612:	601a      	str	r2, [r3, #0]

        /* Get Start Tick*/
        tickstart = HAL_GetTick();
 8003614:	f7ff f806 	bl	8002624 <HAL_GetTick>
 8003618:	6138      	str	r0, [r7, #16]

        /* Wait till PLL is ready */
        while(__HAL_RCC_GET_FLAG(RCC_FLAG_PLLRDY) != RESET)
 800361a:	e008      	b.n	800362e <HAL_RCC_OscConfig+0x492>
        {
          if((HAL_GetTick() - tickstart ) > PLL_TIMEOUT_VALUE)
 800361c:	f7ff f802 	bl	8002624 <HAL_GetTick>
 8003620:	4602      	mov	r2, r0
 8003622:	693b      	ldr	r3, [r7, #16]
 8003624:	1ad3      	subs	r3, r2, r3
 8003626:	2b02      	cmp	r3, #2
 8003628:	d901      	bls.n	800362e <HAL_RCC_OscConfig+0x492>
          {
            return HAL_TIMEOUT;
 800362a:	2303      	movs	r3, #3
 800362c:	e04d      	b.n	80036ca <HAL_RCC_OscConfig+0x52e>
        while(__HAL_RCC_GET_FLAG(RCC_FLAG_PLLRDY) != RESET)
 800362e:	4b06      	ldr	r3, [pc, #24]	; (8003648 <HAL_RCC_OscConfig+0x4ac>)
 8003630:	681b      	ldr	r3, [r3, #0]
 8003632:	f003 7300 	and.w	r3, r3, #33554432	; 0x2000000
 8003636:	2b00      	cmp	r3, #0
 8003638:	d1f0      	bne.n	800361c <HAL_RCC_OscConfig+0x480>
 800363a:	e045      	b.n	80036c8 <HAL_RCC_OscConfig+0x52c>
      }
    }
    else
    {
      /* Check if there is a request to disable the PLL used as System clock source */
      if((RCC_OscInitStruct->PLL.PLLState) == RCC_PLL_OFF)
 800363c:	687b      	ldr	r3, [r7, #4]
 800363e:	699b      	ldr	r3, [r3, #24]
 8003640:	2b01      	cmp	r3, #1
 8003642:	d107      	bne.n	8003654 <HAL_RCC_OscConfig+0x4b8>
      {
        return HAL_ERROR;
 8003644:	2301      	movs	r3, #1
 8003646:	e040      	b.n	80036ca <HAL_RCC_OscConfig+0x52e>
 8003648:	40023800 	.word	0x40023800
 800364c:	40007000 	.word	0x40007000
 8003650:	42470060 	.word	0x42470060
      }
      else
      {
        /* Do not return HAL_ERROR if request repeats the current configuration */
        pll_config = RCC->PLLCFGR;
 8003654:	4b1f      	ldr	r3, [pc, #124]	; (80036d4 <HAL_RCC_OscConfig+0x538>)
 8003656:	685b      	ldr	r3, [r3, #4]
 8003658:	60fb      	str	r3, [r7, #12]
#if defined (RCC_PLLCFGR_PLLR)
        if (((RCC_OscInitStruct->PLL.PLLState) == RCC_PLL_OFF) ||
 800365a:	687b      	ldr	r3, [r7, #4]
 800365c:	699b      	ldr	r3, [r3, #24]
 800365e:	2b01      	cmp	r3, #1
 8003660:	d030      	beq.n	80036c4 <HAL_RCC_OscConfig+0x528>
            (READ_BIT(pll_config, RCC_PLLCFGR_PLLSRC) != RCC_OscInitStruct->PLL.PLLSource) ||
 8003662:	68fb      	ldr	r3, [r7, #12]
 8003664:	f403 0280 	and.w	r2, r3, #4194304	; 0x400000
 8003668:	687b      	ldr	r3, [r7, #4]
 800366a:	69db      	ldr	r3, [r3, #28]
        if (((RCC_OscInitStruct->PLL.PLLState) == RCC_PLL_OFF) ||
 800366c:	429a      	cmp	r2, r3
 800366e:	d129      	bne.n	80036c4 <HAL_RCC_OscConfig+0x528>
            (READ_BIT(pll_config, RCC_PLLCFGR_PLLM) != (RCC_OscInitStruct->PLL.PLLM) << RCC_PLLCFGR_PLLM_Pos) ||
 8003670:	68fb      	ldr	r3, [r7, #12]
 8003672:	f003 023f 	and.w	r2, r3, #63	; 0x3f
 8003676:	687b      	ldr	r3, [r7, #4]
 8003678:	6a1b      	ldr	r3, [r3, #32]
            (READ_BIT(pll_config, RCC_PLLCFGR_PLLSRC) != RCC_OscInitStruct->PLL.PLLSource) ||
 800367a:	429a      	cmp	r2, r3
 800367c:	d122      	bne.n	80036c4 <HAL_RCC_OscConfig+0x528>
            (READ_BIT(pll_config, RCC_PLLCFGR_PLLN) != (RCC_OscInitStruct->PLL.PLLN) << RCC_PLLCFGR_PLLN_Pos) ||
 800367e:	68fa      	ldr	r2, [r7, #12]
 8003680:	f647 73c0 	movw	r3, #32704	; 0x7fc0
 8003684:	4013      	ands	r3, r2
 8003686:	687a      	ldr	r2, [r7, #4]
 8003688:	6a52      	ldr	r2, [r2, #36]	; 0x24
 800368a:	0192      	lsls	r2, r2, #6
            (READ_BIT(pll_config, RCC_PLLCFGR_PLLM) != (RCC_OscInitStruct->PLL.PLLM) << RCC_PLLCFGR_PLLM_Pos) ||
 800368c:	4293      	cmp	r3, r2
 800368e:	d119      	bne.n	80036c4 <HAL_RCC_OscConfig+0x528>
            (READ_BIT(pll_config, RCC_PLLCFGR_PLLP) != (((RCC_OscInitStruct->PLL.PLLP >> 1U) - 1U)) << RCC_PLLCFGR_PLLP_Pos) ||
 8003690:	68fb      	ldr	r3, [r7, #12]
 8003692:	f403 3240 	and.w	r2, r3, #196608	; 0x30000
 8003696:	687b      	ldr	r3, [r7, #4]
 8003698:	6a9b      	ldr	r3, [r3, #40]	; 0x28
 800369a:	085b      	lsrs	r3, r3, #1
 800369c:	3b01      	subs	r3, #1
 800369e:	041b      	lsls	r3, r3, #16
            (READ_BIT(pll_config, RCC_PLLCFGR_PLLN) != (RCC_OscInitStruct->PLL.PLLN) << RCC_PLLCFGR_PLLN_Pos) ||
 80036a0:	429a      	cmp	r2, r3
 80036a2:	d10f      	bne.n	80036c4 <HAL_RCC_OscConfig+0x528>
            (READ_BIT(pll_config, RCC_PLLCFGR_PLLQ) != (RCC_OscInitStruct->PLL.PLLQ << RCC_PLLCFGR_PLLQ_Pos)) ||
 80036a4:	68fb      	ldr	r3, [r7, #12]
 80036a6:	f003 6270 	and.w	r2, r3, #251658240	; 0xf000000
 80036aa:	687b      	ldr	r3, [r7, #4]
 80036ac:	6adb      	ldr	r3, [r3, #44]	; 0x2c
 80036ae:	061b      	lsls	r3, r3, #24
            (READ_BIT(pll_config, RCC_PLLCFGR_PLLP) != (((RCC_OscInitStruct->PLL.PLLP >> 1U) - 1U)) << RCC_PLLCFGR_PLLP_Pos) ||
 80036b0:	429a      	cmp	r2, r3
 80036b2:	d107      	bne.n	80036c4 <HAL_RCC_OscConfig+0x528>
            (READ_BIT(pll_config, RCC_PLLCFGR_PLLR) != (RCC_OscInitStruct->PLL.PLLR << RCC_PLLCFGR_PLLR_Pos)))
 80036b4:	68fb      	ldr	r3, [r7, #12]
 80036b6:	f003 42e0 	and.w	r2, r3, #1879048192	; 0x70000000
 80036ba:	687b      	ldr	r3, [r7, #4]
 80036bc:	6b1b      	ldr	r3, [r3, #48]	; 0x30
 80036be:	071b      	lsls	r3, r3, #28
            (READ_BIT(pll_config, RCC_PLLCFGR_PLLQ) != (RCC_OscInitStruct->PLL.PLLQ << RCC_PLLCFGR_PLLQ_Pos)) ||
 80036c0:	429a      	cmp	r2, r3
 80036c2:	d001      	beq.n	80036c8 <HAL_RCC_OscConfig+0x52c>
            (READ_BIT(pll_config, RCC_PLLCFGR_PLLN) != (RCC_OscInitStruct->PLL.PLLN) << RCC_PLLCFGR_PLLN_Pos) ||
            (READ_BIT(pll_config, RCC_PLLCFGR_PLLP) != (((RCC_OscInitStruct->PLL.PLLP >> 1U) - 1U)) << RCC_PLLCFGR_PLLP_Pos) ||
            (READ_BIT(pll_config, RCC_PLLCFGR_PLLQ) != (RCC_OscInitStruct->PLL.PLLQ << RCC_PLLCFGR_PLLQ_Pos)))
#endif
        {
          return HAL_ERROR;
 80036c4:	2301      	movs	r3, #1
 80036c6:	e000      	b.n	80036ca <HAL_RCC_OscConfig+0x52e>
        }
      }
    }
  }
  return HAL_OK;
 80036c8:	2300      	movs	r3, #0
}
 80036ca:	4618      	mov	r0, r3
 80036cc:	3718      	adds	r7, #24
 80036ce:	46bd      	mov	sp, r7
 80036d0:	bd80      	pop	{r7, pc}
 80036d2:	bf00      	nop
 80036d4:	40023800 	.word	0x40023800

080036d8 <HAL_TIM_Base_Init>:
  *         Ex: call @ref HAL_TIM_Base_DeInit() before HAL_TIM_Base_Init()
  * @param  htim TIM Base handle
  * @retval HAL status
  */
HAL_StatusTypeDef HAL_TIM_Base_Init(TIM_HandleTypeDef *htim)
{
 80036d8:	b580      	push	{r7, lr}
 80036da:	b082      	sub	sp, #8
 80036dc:	af00      	add	r7, sp, #0
 80036de:	6078      	str	r0, [r7, #4]
  /* Check the TIM handle allocation */
  if (htim == NULL)
 80036e0:	687b      	ldr	r3, [r7, #4]
 80036e2:	2b00      	cmp	r3, #0
 80036e4:	d101      	bne.n	80036ea <HAL_TIM_Base_Init+0x12>
  {
    return HAL_ERROR;
 80036e6:	2301      	movs	r3, #1
 80036e8:	e041      	b.n	800376e <HAL_TIM_Base_Init+0x96>
  assert_param(IS_TIM_INSTANCE(htim->Instance));
  assert_param(IS_TIM_COUNTER_MODE(htim->Init.CounterMode));
  assert_param(IS_TIM_CLOCKDIVISION_DIV(htim->Init.ClockDivision));
  assert_param(IS_TIM_AUTORELOAD_PRELOAD(htim->Init.AutoReloadPreload));

  if (htim->State == HAL_TIM_STATE_RESET)
 80036ea:	687b      	ldr	r3, [r7, #4]
 80036ec:	f893 303d 	ldrb.w	r3, [r3, #61]	; 0x3d
 80036f0:	b2db      	uxtb	r3, r3
 80036f2:	2b00      	cmp	r3, #0
 80036f4:	d106      	bne.n	8003704 <HAL_TIM_Base_Init+0x2c>
  {
    /* Allocate lock resource and initialize it */
    htim->Lock = HAL_UNLOCKED;
 80036f6:	687b      	ldr	r3, [r7, #4]
 80036f8:	2200      	movs	r2, #0
 80036fa:	f883 203c 	strb.w	r2, [r3, #60]	; 0x3c
    }
    /* Init the low level hardware : GPIO, CLOCK, NVIC */
    htim->Base_MspInitCallback(htim);
#else
    /* Init the low level hardware : GPIO, CLOCK, NVIC */
    HAL_TIM_Base_MspInit(htim);
 80036fe:	6878      	ldr	r0, [r7, #4]
 8003700:	f7fe fbac 	bl	8001e5c <HAL_TIM_Base_MspInit>
#endif /* USE_HAL_TIM_REGISTER_CALLBACKS */
  }

  /* Set the TIM state */
  htim->State = HAL_TIM_STATE_BUSY;
 8003704:	687b      	ldr	r3, [r7, #4]
 8003706:	2202      	movs	r2, #2
 8003708:	f883 203d 	strb.w	r2, [r3, #61]	; 0x3d

  /* Set the Time Base configuration */
  TIM_Base_SetConfig(htim->Instance, &htim->Init);
 800370c:	687b      	ldr	r3, [r7, #4]
 800370e:	681a      	ldr	r2, [r3, #0]
 8003710:	687b      	ldr	r3, [r7, #4]
 8003712:	3304      	adds	r3, #4
 8003714:	4619      	mov	r1, r3
 8003716:	4610      	mov	r0, r2
 8003718:	f000 fec8 	bl	80044ac <TIM_Base_SetConfig>

  /* Initialize the DMA burst operation state */
  htim->DMABurstState = HAL_DMA_BURST_STATE_READY;
 800371c:	687b      	ldr	r3, [r7, #4]
 800371e:	2201      	movs	r2, #1
 8003720:	f883 2046 	strb.w	r2, [r3, #70]	; 0x46

  /* Initialize the TIM channels state */
  TIM_CHANNEL_STATE_SET_ALL(htim, HAL_TIM_CHANNEL_STATE_READY);
 8003724:	687b      	ldr	r3, [r7, #4]
 8003726:	2201      	movs	r2, #1
 8003728:	f883 203e 	strb.w	r2, [r3, #62]	; 0x3e
 800372c:	687b      	ldr	r3, [r7, #4]
 800372e:	2201      	movs	r2, #1
 8003730:	f883 203f 	strb.w	r2, [r3, #63]	; 0x3f
 8003734:	687b      	ldr	r3, [r7, #4]
 8003736:	2201      	movs	r2, #1
 8003738:	f883 2040 	strb.w	r2, [r3, #64]	; 0x40
 800373c:	687b      	ldr	r3, [r7, #4]
 800373e:	2201      	movs	r2, #1
 8003740:	f883 2041 	strb.w	r2, [r3, #65]	; 0x41
  TIM_CHANNEL_N_STATE_SET_ALL(htim, HAL_TIM_CHANNEL_STATE_READY);
 8003744:	687b      	ldr	r3, [r7, #4]
 8003746:	2201      	movs	r2, #1
 8003748:	f883 2042 	strb.w	r2, [r3, #66]	; 0x42
 800374c:	687b      	ldr	r3, [r7, #4]
 800374e:	2201      	movs	r2, #1
 8003750:	f883 2043 	strb.w	r2, [r3, #67]	; 0x43
 8003754:	687b      	ldr	r3, [r7, #4]
 8003756:	2201      	movs	r2, #1
 8003758:	f883 2044 	strb.w	r2, [r3, #68]	; 0x44
 800375c:	687b      	ldr	r3, [r7, #4]
 800375e:	2201      	movs	r2, #1
 8003760:	f883 2045 	strb.w	r2, [r3, #69]	; 0x45

  /* Initialize the TIM state*/
  htim->State = HAL_TIM_STATE_READY;
 8003764:	687b      	ldr	r3, [r7, #4]
 8003766:	2201      	movs	r2, #1
 8003768:	f883 203d 	strb.w	r2, [r3, #61]	; 0x3d

  return HAL_OK;
 800376c:	2300      	movs	r3, #0
}
 800376e:	4618      	mov	r0, r3
 8003770:	3708      	adds	r7, #8
 8003772:	46bd      	mov	sp, r7
 8003774:	bd80      	pop	{r7, pc}
	...

08003778 <HAL_TIM_Base_Start_IT>:
  * @brief  Starts the TIM Base generation in interrupt mode.
  * @param  htim TIM Base handle
  * @retval HAL status
  */
HAL_StatusTypeDef HAL_TIM_Base_Start_IT(TIM_HandleTypeDef *htim)
{
 8003778:	b480      	push	{r7}
 800377a:	b085      	sub	sp, #20
 800377c:	af00      	add	r7, sp, #0
 800377e:	6078      	str	r0, [r7, #4]

  /* Check the parameters */
  assert_param(IS_TIM_INSTANCE(htim->Instance));

  /* Check the TIM state */
  if (htim->State != HAL_TIM_STATE_READY)
 8003780:	687b      	ldr	r3, [r7, #4]
 8003782:	f893 303d 	ldrb.w	r3, [r3, #61]	; 0x3d
 8003786:	b2db      	uxtb	r3, r3
 8003788:	2b01      	cmp	r3, #1
 800378a:	d001      	beq.n	8003790 <HAL_TIM_Base_Start_IT+0x18>
  {
    return HAL_ERROR;
 800378c:	2301      	movs	r3, #1
 800378e:	e04e      	b.n	800382e <HAL_TIM_Base_Start_IT+0xb6>
  }

  /* Set the TIM state */
  htim->State = HAL_TIM_STATE_BUSY;
 8003790:	687b      	ldr	r3, [r7, #4]
 8003792:	2202      	movs	r2, #2
 8003794:	f883 203d 	strb.w	r2, [r3, #61]	; 0x3d

  /* Enable the TIM Update interrupt */
  __HAL_TIM_ENABLE_IT(htim, TIM_IT_UPDATE);
 8003798:	687b      	ldr	r3, [r7, #4]
 800379a:	681b      	ldr	r3, [r3, #0]
 800379c:	68da      	ldr	r2, [r3, #12]
 800379e:	687b      	ldr	r3, [r7, #4]
 80037a0:	681b      	ldr	r3, [r3, #0]
 80037a2:	f042 0201 	orr.w	r2, r2, #1
 80037a6:	60da      	str	r2, [r3, #12]

  /* Enable the Peripheral, except in trigger mode where enable is automatically done with trigger */
  if (IS_TIM_SLAVE_INSTANCE(htim->Instance))
 80037a8:	687b      	ldr	r3, [r7, #4]
 80037aa:	681b      	ldr	r3, [r3, #0]
 80037ac:	4a23      	ldr	r2, [pc, #140]	; (800383c <HAL_TIM_Base_Start_IT+0xc4>)
 80037ae:	4293      	cmp	r3, r2
 80037b0:	d022      	beq.n	80037f8 <HAL_TIM_Base_Start_IT+0x80>
 80037b2:	687b      	ldr	r3, [r7, #4]
 80037b4:	681b      	ldr	r3, [r3, #0]
 80037b6:	f1b3 4f80 	cmp.w	r3, #1073741824	; 0x40000000
 80037ba:	d01d      	beq.n	80037f8 <HAL_TIM_Base_Start_IT+0x80>
 80037bc:	687b      	ldr	r3, [r7, #4]
 80037be:	681b      	ldr	r3, [r3, #0]
 80037c0:	4a1f      	ldr	r2, [pc, #124]	; (8003840 <HAL_TIM_Base_Start_IT+0xc8>)
 80037c2:	4293      	cmp	r3, r2
 80037c4:	d018      	beq.n	80037f8 <HAL_TIM_Base_Start_IT+0x80>
 80037c6:	687b      	ldr	r3, [r7, #4]
 80037c8:	681b      	ldr	r3, [r3, #0]
 80037ca:	4a1e      	ldr	r2, [pc, #120]	; (8003844 <HAL_TIM_Base_Start_IT+0xcc>)
 80037cc:	4293      	cmp	r3, r2
 80037ce:	d013      	beq.n	80037f8 <HAL_TIM_Base_Start_IT+0x80>
 80037d0:	687b      	ldr	r3, [r7, #4]
 80037d2:	681b      	ldr	r3, [r3, #0]
 80037d4:	4a1c      	ldr	r2, [pc, #112]	; (8003848 <HAL_TIM_Base_Start_IT+0xd0>)
 80037d6:	4293      	cmp	r3, r2
 80037d8:	d00e      	beq.n	80037f8 <HAL_TIM_Base_Start_IT+0x80>
 80037da:	687b      	ldr	r3, [r7, #4]
 80037dc:	681b      	ldr	r3, [r3, #0]
 80037de:	4a1b      	ldr	r2, [pc, #108]	; (800384c <HAL_TIM_Base_Start_IT+0xd4>)
 80037e0:	4293      	cmp	r3, r2
 80037e2:	d009      	beq.n	80037f8 <HAL_TIM_Base_Start_IT+0x80>
 80037e4:	687b      	ldr	r3, [r7, #4]
 80037e6:	681b      	ldr	r3, [r3, #0]
 80037e8:	4a19      	ldr	r2, [pc, #100]	; (8003850 <HAL_TIM_Base_Start_IT+0xd8>)
 80037ea:	4293      	cmp	r3, r2
 80037ec:	d004      	beq.n	80037f8 <HAL_TIM_Base_Start_IT+0x80>
 80037ee:	687b      	ldr	r3, [r7, #4]
 80037f0:	681b      	ldr	r3, [r3, #0]
 80037f2:	4a18      	ldr	r2, [pc, #96]	; (8003854 <HAL_TIM_Base_Start_IT+0xdc>)
 80037f4:	4293      	cmp	r3, r2
 80037f6:	d111      	bne.n	800381c <HAL_TIM_Base_Start_IT+0xa4>
  {
    tmpsmcr = htim->Instance->SMCR & TIM_SMCR_SMS;
 80037f8:	687b      	ldr	r3, [r7, #4]
 80037fa:	681b      	ldr	r3, [r3, #0]
 80037fc:	689b      	ldr	r3, [r3, #8]
 80037fe:	f003 0307 	and.w	r3, r3, #7
 8003802:	60fb      	str	r3, [r7, #12]
    if (!IS_TIM_SLAVEMODE_TRIGGER_ENABLED(tmpsmcr))
 8003804:	68fb      	ldr	r3, [r7, #12]
 8003806:	2b06      	cmp	r3, #6
 8003808:	d010      	beq.n	800382c <HAL_TIM_Base_Start_IT+0xb4>
    {
      __HAL_TIM_ENABLE(htim);
 800380a:	687b      	ldr	r3, [r7, #4]
 800380c:	681b      	ldr	r3, [r3, #0]
 800380e:	681a      	ldr	r2, [r3, #0]
 8003810:	687b      	ldr	r3, [r7, #4]
 8003812:	681b      	ldr	r3, [r3, #0]
 8003814:	f042 0201 	orr.w	r2, r2, #1
 8003818:	601a      	str	r2, [r3, #0]
    if (!IS_TIM_SLAVEMODE_TRIGGER_ENABLED(tmpsmcr))
 800381a:	e007      	b.n	800382c <HAL_TIM_Base_Start_IT+0xb4>
    }
  }
  else
  {
    __HAL_TIM_ENABLE(htim);
 800381c:	687b      	ldr	r3, [r7, #4]
 800381e:	681b      	ldr	r3, [r3, #0]
 8003820:	681a      	ldr	r2, [r3, #0]
 8003822:	687b      	ldr	r3, [r7, #4]
 8003824:	681b      	ldr	r3, [r3, #0]
 8003826:	f042 0201 	orr.w	r2, r2, #1
 800382a:	601a      	str	r2, [r3, #0]
  }

  /* Return function status */
  return HAL_OK;
 800382c:	2300      	movs	r3, #0
}
 800382e:	4618      	mov	r0, r3
 8003830:	3714      	adds	r7, #20
 8003832:	46bd      	mov	sp, r7
 8003834:	f85d 7b04 	ldr.w	r7, [sp], #4
 8003838:	4770      	bx	lr
 800383a:	bf00      	nop
 800383c:	40010000 	.word	0x40010000
 8003840:	40000400 	.word	0x40000400
 8003844:	40000800 	.word	0x40000800
 8003848:	40000c00 	.word	0x40000c00
 800384c:	40010400 	.word	0x40010400
 8003850:	40014000 	.word	0x40014000
 8003854:	40001800 	.word	0x40001800

08003858 <HAL_TIM_PWM_Init>:
  *         Ex: call @ref HAL_TIM_PWM_DeInit() before HAL_TIM_PWM_Init()
  * @param  htim TIM PWM handle
  * @retval HAL status
  */
HAL_StatusTypeDef HAL_TIM_PWM_Init(TIM_HandleTypeDef *htim)
{
 8003858:	b580      	push	{r7, lr}
 800385a:	b082      	sub	sp, #8
 800385c:	af00      	add	r7, sp, #0
 800385e:	6078      	str	r0, [r7, #4]
  /* Check the TIM handle allocation */
  if (htim == NULL)
 8003860:	687b      	ldr	r3, [r7, #4]
 8003862:	2b00      	cmp	r3, #0
 8003864:	d101      	bne.n	800386a <HAL_TIM_PWM_Init+0x12>
  {
    return HAL_ERROR;
 8003866:	2301      	movs	r3, #1
 8003868:	e041      	b.n	80038ee <HAL_TIM_PWM_Init+0x96>
  assert_param(IS_TIM_INSTANCE(htim->Instance));
  assert_param(IS_TIM_COUNTER_MODE(htim->Init.CounterMode));
  assert_param(IS_TIM_CLOCKDIVISION_DIV(htim->Init.ClockDivision));
  assert_param(IS_TIM_AUTORELOAD_PRELOAD(htim->Init.AutoReloadPreload));

  if (htim->State == HAL_TIM_STATE_RESET)
 800386a:	687b      	ldr	r3, [r7, #4]
 800386c:	f893 303d 	ldrb.w	r3, [r3, #61]	; 0x3d
 8003870:	b2db      	uxtb	r3, r3
 8003872:	2b00      	cmp	r3, #0
 8003874:	d106      	bne.n	8003884 <HAL_TIM_PWM_Init+0x2c>
  {
    /* Allocate lock resource and initialize it */
    htim->Lock = HAL_UNLOCKED;
 8003876:	687b      	ldr	r3, [r7, #4]
 8003878:	2200      	movs	r2, #0
 800387a:	f883 203c 	strb.w	r2, [r3, #60]	; 0x3c
    }
    /* Init the low level hardware : GPIO, CLOCK, NVIC */
    htim->PWM_MspInitCallback(htim);
#else
    /* Init the low level hardware : GPIO, CLOCK, NVIC and DMA */
    HAL_TIM_PWM_MspInit(htim);
 800387e:	6878      	ldr	r0, [r7, #4]
 8003880:	f7fe fbca 	bl	8002018 <HAL_TIM_PWM_MspInit>
#endif /* USE_HAL_TIM_REGISTER_CALLBACKS */
  }

  /* Set the TIM state */
  htim->State = HAL_TIM_STATE_BUSY;
 8003884:	687b      	ldr	r3, [r7, #4]
 8003886:	2202      	movs	r2, #2
 8003888:	f883 203d 	strb.w	r2, [r3, #61]	; 0x3d

  /* Init the base time for the PWM */
  TIM_Base_SetConfig(htim->Instance, &htim->Init);
 800388c:	687b      	ldr	r3, [r7, #4]
 800388e:	681a      	ldr	r2, [r3, #0]
 8003890:	687b      	ldr	r3, [r7, #4]
 8003892:	3304      	adds	r3, #4
 8003894:	4619      	mov	r1, r3
 8003896:	4610      	mov	r0, r2
 8003898:	f000 fe08 	bl	80044ac <TIM_Base_SetConfig>

  /* Initialize the DMA burst operation state */
  htim->DMABurstState = HAL_DMA_BURST_STATE_READY;
 800389c:	687b      	ldr	r3, [r7, #4]
 800389e:	2201      	movs	r2, #1
 80038a0:	f883 2046 	strb.w	r2, [r3, #70]	; 0x46

  /* Initialize the TIM channels state */
  TIM_CHANNEL_STATE_SET_ALL(htim, HAL_TIM_CHANNEL_STATE_READY);
 80038a4:	687b      	ldr	r3, [r7, #4]
 80038a6:	2201      	movs	r2, #1
 80038a8:	f883 203e 	strb.w	r2, [r3, #62]	; 0x3e
 80038ac:	687b      	ldr	r3, [r7, #4]
 80038ae:	2201      	movs	r2, #1
 80038b0:	f883 203f 	strb.w	r2, [r3, #63]	; 0x3f
 80038b4:	687b      	ldr	r3, [r7, #4]
 80038b6:	2201      	movs	r2, #1
 80038b8:	f883 2040 	strb.w	r2, [r3, #64]	; 0x40
 80038bc:	687b      	ldr	r3, [r7, #4]
 80038be:	2201      	movs	r2, #1
 80038c0:	f883 2041 	strb.w	r2, [r3, #65]	; 0x41
  TIM_CHANNEL_N_STATE_SET_ALL(htim, HAL_TIM_CHANNEL_STATE_READY);
 80038c4:	687b      	ldr	r3, [r7, #4]
 80038c6:	2201      	movs	r2, #1
 80038c8:	f883 2042 	strb.w	r2, [r3, #66]	; 0x42
 80038cc:	687b      	ldr	r3, [r7, #4]
 80038ce:	2201      	movs	r2, #1
 80038d0:	f883 2043 	strb.w	r2, [r3, #67]	; 0x43
 80038d4:	687b      	ldr	r3, [r7, #4]
 80038d6:	2201      	movs	r2, #1
 80038d8:	f883 2044 	strb.w	r2, [r3, #68]	; 0x44
 80038dc:	687b      	ldr	r3, [r7, #4]
 80038de:	2201      	movs	r2, #1
 80038e0:	f883 2045 	strb.w	r2, [r3, #69]	; 0x45

  /* Initialize the TIM state*/
  htim->State = HAL_TIM_STATE_READY;
 80038e4:	687b      	ldr	r3, [r7, #4]
 80038e6:	2201      	movs	r2, #1
 80038e8:	f883 203d 	strb.w	r2, [r3, #61]	; 0x3d

  return HAL_OK;
 80038ec:	2300      	movs	r3, #0
}
 80038ee:	4618      	mov	r0, r3
 80038f0:	3708      	adds	r7, #8
 80038f2:	46bd      	mov	sp, r7
 80038f4:	bd80      	pop	{r7, pc}
	...

080038f8 <HAL_TIM_PWM_Start>:
  *            @arg TIM_CHANNEL_3: TIM Channel 3 selected
  *            @arg TIM_CHANNEL_4: TIM Channel 4 selected
  * @retval HAL status
  */
HAL_StatusTypeDef HAL_TIM_PWM_Start(TIM_HandleTypeDef *htim, uint32_t Channel)
{
 80038f8:	b580      	push	{r7, lr}
 80038fa:	b084      	sub	sp, #16
 80038fc:	af00      	add	r7, sp, #0
 80038fe:	6078      	str	r0, [r7, #4]
 8003900:	6039      	str	r1, [r7, #0]

  /* Check the parameters */
  assert_param(IS_TIM_CCX_INSTANCE(htim->Instance, Channel));

  /* Check the TIM channel state */
  if (TIM_CHANNEL_STATE_GET(htim, Channel) != HAL_TIM_CHANNEL_STATE_READY)
 8003902:	683b      	ldr	r3, [r7, #0]
 8003904:	2b00      	cmp	r3, #0
 8003906:	d109      	bne.n	800391c <HAL_TIM_PWM_Start+0x24>
 8003908:	687b      	ldr	r3, [r7, #4]
 800390a:	f893 303e 	ldrb.w	r3, [r3, #62]	; 0x3e
 800390e:	b2db      	uxtb	r3, r3
 8003910:	2b01      	cmp	r3, #1
 8003912:	bf14      	ite	ne
 8003914:	2301      	movne	r3, #1
 8003916:	2300      	moveq	r3, #0
 8003918:	b2db      	uxtb	r3, r3
 800391a:	e022      	b.n	8003962 <HAL_TIM_PWM_Start+0x6a>
 800391c:	683b      	ldr	r3, [r7, #0]
 800391e:	2b04      	cmp	r3, #4
 8003920:	d109      	bne.n	8003936 <HAL_TIM_PWM_Start+0x3e>
 8003922:	687b      	ldr	r3, [r7, #4]
 8003924:	f893 303f 	ldrb.w	r3, [r3, #63]	; 0x3f
 8003928:	b2db      	uxtb	r3, r3
 800392a:	2b01      	cmp	r3, #1
 800392c:	bf14      	ite	ne
 800392e:	2301      	movne	r3, #1
 8003930:	2300      	moveq	r3, #0
 8003932:	b2db      	uxtb	r3, r3
 8003934:	e015      	b.n	8003962 <HAL_TIM_PWM_Start+0x6a>
 8003936:	683b      	ldr	r3, [r7, #0]
 8003938:	2b08      	cmp	r3, #8
 800393a:	d109      	bne.n	8003950 <HAL_TIM_PWM_Start+0x58>
 800393c:	687b      	ldr	r3, [r7, #4]
 800393e:	f893 3040 	ldrb.w	r3, [r3, #64]	; 0x40
 8003942:	b2db      	uxtb	r3, r3
 8003944:	2b01      	cmp	r3, #1
 8003946:	bf14      	ite	ne
 8003948:	2301      	movne	r3, #1
 800394a:	2300      	moveq	r3, #0
 800394c:	b2db      	uxtb	r3, r3
 800394e:	e008      	b.n	8003962 <HAL_TIM_PWM_Start+0x6a>
 8003950:	687b      	ldr	r3, [r7, #4]
 8003952:	f893 3041 	ldrb.w	r3, [r3, #65]	; 0x41
 8003956:	b2db      	uxtb	r3, r3
 8003958:	2b01      	cmp	r3, #1
 800395a:	bf14      	ite	ne
 800395c:	2301      	movne	r3, #1
 800395e:	2300      	moveq	r3, #0
 8003960:	b2db      	uxtb	r3, r3
 8003962:	2b00      	cmp	r3, #0
 8003964:	d001      	beq.n	800396a <HAL_TIM_PWM_Start+0x72>
  {
    return HAL_ERROR;
 8003966:	2301      	movs	r3, #1
 8003968:	e07c      	b.n	8003a64 <HAL_TIM_PWM_Start+0x16c>
  }

  /* Set the TIM channel state */
  TIM_CHANNEL_STATE_SET(htim, Channel, HAL_TIM_CHANNEL_STATE_BUSY);
 800396a:	683b      	ldr	r3, [r7, #0]
 800396c:	2b00      	cmp	r3, #0
 800396e:	d104      	bne.n	800397a <HAL_TIM_PWM_Start+0x82>
 8003970:	687b      	ldr	r3, [r7, #4]
 8003972:	2202      	movs	r2, #2
 8003974:	f883 203e 	strb.w	r2, [r3, #62]	; 0x3e
 8003978:	e013      	b.n	80039a2 <HAL_TIM_PWM_Start+0xaa>
 800397a:	683b      	ldr	r3, [r7, #0]
 800397c:	2b04      	cmp	r3, #4
 800397e:	d104      	bne.n	800398a <HAL_TIM_PWM_Start+0x92>
 8003980:	687b      	ldr	r3, [r7, #4]
 8003982:	2202      	movs	r2, #2
 8003984:	f883 203f 	strb.w	r2, [r3, #63]	; 0x3f
 8003988:	e00b      	b.n	80039a2 <HAL_TIM_PWM_Start+0xaa>
 800398a:	683b      	ldr	r3, [r7, #0]
 800398c:	2b08      	cmp	r3, #8
 800398e:	d104      	bne.n	800399a <HAL_TIM_PWM_Start+0xa2>
 8003990:	687b      	ldr	r3, [r7, #4]
 8003992:	2202      	movs	r2, #2
 8003994:	f883 2040 	strb.w	r2, [r3, #64]	; 0x40
 8003998:	e003      	b.n	80039a2 <HAL_TIM_PWM_Start+0xaa>
 800399a:	687b      	ldr	r3, [r7, #4]
 800399c:	2202      	movs	r2, #2
 800399e:	f883 2041 	strb.w	r2, [r3, #65]	; 0x41

  /* Enable the Capture compare channel */
  TIM_CCxChannelCmd(htim->Instance, Channel, TIM_CCx_ENABLE);
 80039a2:	687b      	ldr	r3, [r7, #4]
 80039a4:	681b      	ldr	r3, [r3, #0]
 80039a6:	2201      	movs	r2, #1
 80039a8:	6839      	ldr	r1, [r7, #0]
 80039aa:	4618      	mov	r0, r3
 80039ac:	f001 f992 	bl	8004cd4 <TIM_CCxChannelCmd>

  if (IS_TIM_BREAK_INSTANCE(htim->Instance) != RESET)
 80039b0:	687b      	ldr	r3, [r7, #4]
 80039b2:	681b      	ldr	r3, [r3, #0]
 80039b4:	4a2d      	ldr	r2, [pc, #180]	; (8003a6c <HAL_TIM_PWM_Start+0x174>)
 80039b6:	4293      	cmp	r3, r2
 80039b8:	d004      	beq.n	80039c4 <HAL_TIM_PWM_Start+0xcc>
 80039ba:	687b      	ldr	r3, [r7, #4]
 80039bc:	681b      	ldr	r3, [r3, #0]
 80039be:	4a2c      	ldr	r2, [pc, #176]	; (8003a70 <HAL_TIM_PWM_Start+0x178>)
 80039c0:	4293      	cmp	r3, r2
 80039c2:	d101      	bne.n	80039c8 <HAL_TIM_PWM_Start+0xd0>
 80039c4:	2301      	movs	r3, #1
 80039c6:	e000      	b.n	80039ca <HAL_TIM_PWM_Start+0xd2>
 80039c8:	2300      	movs	r3, #0
 80039ca:	2b00      	cmp	r3, #0
 80039cc:	d007      	beq.n	80039de <HAL_TIM_PWM_Start+0xe6>
  {
    /* Enable the main output */
    __HAL_TIM_MOE_ENABLE(htim);
 80039ce:	687b      	ldr	r3, [r7, #4]
 80039d0:	681b      	ldr	r3, [r3, #0]
 80039d2:	6c5a      	ldr	r2, [r3, #68]	; 0x44
 80039d4:	687b      	ldr	r3, [r7, #4]
 80039d6:	681b      	ldr	r3, [r3, #0]
 80039d8:	f442 4200 	orr.w	r2, r2, #32768	; 0x8000
 80039dc:	645a      	str	r2, [r3, #68]	; 0x44
  }

  /* Enable the Peripheral, except in trigger mode where enable is automatically done with trigger */
  if (IS_TIM_SLAVE_INSTANCE(htim->Instance))
 80039de:	687b      	ldr	r3, [r7, #4]
 80039e0:	681b      	ldr	r3, [r3, #0]
 80039e2:	4a22      	ldr	r2, [pc, #136]	; (8003a6c <HAL_TIM_PWM_Start+0x174>)
 80039e4:	4293      	cmp	r3, r2
 80039e6:	d022      	beq.n	8003a2e <HAL_TIM_PWM_Start+0x136>
 80039e8:	687b      	ldr	r3, [r7, #4]
 80039ea:	681b      	ldr	r3, [r3, #0]
 80039ec:	f1b3 4f80 	cmp.w	r3, #1073741824	; 0x40000000
 80039f0:	d01d      	beq.n	8003a2e <HAL_TIM_PWM_Start+0x136>
 80039f2:	687b      	ldr	r3, [r7, #4]
 80039f4:	681b      	ldr	r3, [r3, #0]
 80039f6:	4a1f      	ldr	r2, [pc, #124]	; (8003a74 <HAL_TIM_PWM_Start+0x17c>)
 80039f8:	4293      	cmp	r3, r2
 80039fa:	d018      	beq.n	8003a2e <HAL_TIM_PWM_Start+0x136>
 80039fc:	687b      	ldr	r3, [r7, #4]
 80039fe:	681b      	ldr	r3, [r3, #0]
 8003a00:	4a1d      	ldr	r2, [pc, #116]	; (8003a78 <HAL_TIM_PWM_Start+0x180>)
 8003a02:	4293      	cmp	r3, r2
 8003a04:	d013      	beq.n	8003a2e <HAL_TIM_PWM_Start+0x136>
 8003a06:	687b      	ldr	r3, [r7, #4]
 8003a08:	681b      	ldr	r3, [r3, #0]
 8003a0a:	4a1c      	ldr	r2, [pc, #112]	; (8003a7c <HAL_TIM_PWM_Start+0x184>)
 8003a0c:	4293      	cmp	r3, r2
 8003a0e:	d00e      	beq.n	8003a2e <HAL_TIM_PWM_Start+0x136>
 8003a10:	687b      	ldr	r3, [r7, #4]
 8003a12:	681b      	ldr	r3, [r3, #0]
 8003a14:	4a16      	ldr	r2, [pc, #88]	; (8003a70 <HAL_TIM_PWM_Start+0x178>)
 8003a16:	4293      	cmp	r3, r2
 8003a18:	d009      	beq.n	8003a2e <HAL_TIM_PWM_Start+0x136>
 8003a1a:	687b      	ldr	r3, [r7, #4]
 8003a1c:	681b      	ldr	r3, [r3, #0]
 8003a1e:	4a18      	ldr	r2, [pc, #96]	; (8003a80 <HAL_TIM_PWM_Start+0x188>)
 8003a20:	4293      	cmp	r3, r2
 8003a22:	d004      	beq.n	8003a2e <HAL_TIM_PWM_Start+0x136>
 8003a24:	687b      	ldr	r3, [r7, #4]
 8003a26:	681b      	ldr	r3, [r3, #0]
 8003a28:	4a16      	ldr	r2, [pc, #88]	; (8003a84 <HAL_TIM_PWM_Start+0x18c>)
 8003a2a:	4293      	cmp	r3, r2
 8003a2c:	d111      	bne.n	8003a52 <HAL_TIM_PWM_Start+0x15a>
  {
    tmpsmcr = htim->Instance->SMCR & TIM_SMCR_SMS;
 8003a2e:	687b      	ldr	r3, [r7, #4]
 8003a30:	681b      	ldr	r3, [r3, #0]
 8003a32:	689b      	ldr	r3, [r3, #8]
 8003a34:	f003 0307 	and.w	r3, r3, #7
 8003a38:	60fb      	str	r3, [r7, #12]
    if (!IS_TIM_SLAVEMODE_TRIGGER_ENABLED(tmpsmcr))
 8003a3a:	68fb      	ldr	r3, [r7, #12]
 8003a3c:	2b06      	cmp	r3, #6
 8003a3e:	d010      	beq.n	8003a62 <HAL_TIM_PWM_Start+0x16a>
    {
      __HAL_TIM_ENABLE(htim);
 8003a40:	687b      	ldr	r3, [r7, #4]
 8003a42:	681b      	ldr	r3, [r3, #0]
 8003a44:	681a      	ldr	r2, [r3, #0]
 8003a46:	687b      	ldr	r3, [r7, #4]
 8003a48:	681b      	ldr	r3, [r3, #0]
 8003a4a:	f042 0201 	orr.w	r2, r2, #1
 8003a4e:	601a      	str	r2, [r3, #0]
    if (!IS_TIM_SLAVEMODE_TRIGGER_ENABLED(tmpsmcr))
 8003a50:	e007      	b.n	8003a62 <HAL_TIM_PWM_Start+0x16a>
    }
  }
  else
  {
    __HAL_TIM_ENABLE(htim);
 8003a52:	687b      	ldr	r3, [r7, #4]
 8003a54:	681b      	ldr	r3, [r3, #0]
 8003a56:	681a      	ldr	r2, [r3, #0]
 8003a58:	687b      	ldr	r3, [r7, #4]
 8003a5a:	681b      	ldr	r3, [r3, #0]
 8003a5c:	f042 0201 	orr.w	r2, r2, #1
 8003a60:	601a      	str	r2, [r3, #0]
  }

  /* Return function status */
  return HAL_OK;
 8003a62:	2300      	movs	r3, #0
}
 8003a64:	4618      	mov	r0, r3
 8003a66:	3710      	adds	r7, #16
 8003a68:	46bd      	mov	sp, r7
 8003a6a:	bd80      	pop	{r7, pc}
 8003a6c:	40010000 	.word	0x40010000
 8003a70:	40010400 	.word	0x40010400
 8003a74:	40000400 	.word	0x40000400
 8003a78:	40000800 	.word	0x40000800
 8003a7c:	40000c00 	.word	0x40000c00
 8003a80:	40014000 	.word	0x40014000
 8003a84:	40001800 	.word	0x40001800

08003a88 <HAL_TIM_IC_Init>:
  *         Ex: call @ref HAL_TIM_IC_DeInit() before HAL_TIM_IC_Init()
  * @param  htim TIM Input Capture handle
  * @retval HAL status
  */
HAL_StatusTypeDef HAL_TIM_IC_Init(TIM_HandleTypeDef *htim)
{
 8003a88:	b580      	push	{r7, lr}
 8003a8a:	b082      	sub	sp, #8
 8003a8c:	af00      	add	r7, sp, #0
 8003a8e:	6078      	str	r0, [r7, #4]
  /* Check the TIM handle allocation */
  if (htim == NULL)
 8003a90:	687b      	ldr	r3, [r7, #4]
 8003a92:	2b00      	cmp	r3, #0
 8003a94:	d101      	bne.n	8003a9a <HAL_TIM_IC_Init+0x12>
  {
    return HAL_ERROR;
 8003a96:	2301      	movs	r3, #1
 8003a98:	e041      	b.n	8003b1e <HAL_TIM_IC_Init+0x96>
  assert_param(IS_TIM_INSTANCE(htim->Instance));
  assert_param(IS_TIM_COUNTER_MODE(htim->Init.CounterMode));
  assert_param(IS_TIM_CLOCKDIVISION_DIV(htim->Init.ClockDivision));
  assert_param(IS_TIM_AUTORELOAD_PRELOAD(htim->Init.AutoReloadPreload));

  if (htim->State == HAL_TIM_STATE_RESET)
 8003a9a:	687b      	ldr	r3, [r7, #4]
 8003a9c:	f893 303d 	ldrb.w	r3, [r3, #61]	; 0x3d
 8003aa0:	b2db      	uxtb	r3, r3
 8003aa2:	2b00      	cmp	r3, #0
 8003aa4:	d106      	bne.n	8003ab4 <HAL_TIM_IC_Init+0x2c>
  {
    /* Allocate lock resource and initialize it */
    htim->Lock = HAL_UNLOCKED;
 8003aa6:	687b      	ldr	r3, [r7, #4]
 8003aa8:	2200      	movs	r2, #0
 8003aaa:	f883 203c 	strb.w	r2, [r3, #60]	; 0x3c
    }
    /* Init the low level hardware : GPIO, CLOCK, NVIC */
    htim->IC_MspInitCallback(htim);
#else
    /* Init the low level hardware : GPIO, CLOCK, NVIC and DMA */
    HAL_TIM_IC_MspInit(htim);
 8003aae:	6878      	ldr	r0, [r7, #4]
 8003ab0:	f000 f839 	bl	8003b26 <HAL_TIM_IC_MspInit>
#endif /* USE_HAL_TIM_REGISTER_CALLBACKS */
  }

  /* Set the TIM state */
  htim->State = HAL_TIM_STATE_BUSY;
 8003ab4:	687b      	ldr	r3, [r7, #4]
 8003ab6:	2202      	movs	r2, #2
 8003ab8:	f883 203d 	strb.w	r2, [r3, #61]	; 0x3d

  /* Init the base time for the input capture */
  TIM_Base_SetConfig(htim->Instance, &htim->Init);
 8003abc:	687b      	ldr	r3, [r7, #4]
 8003abe:	681a      	ldr	r2, [r3, #0]
 8003ac0:	687b      	ldr	r3, [r7, #4]
 8003ac2:	3304      	adds	r3, #4
 8003ac4:	4619      	mov	r1, r3
 8003ac6:	4610      	mov	r0, r2
 8003ac8:	f000 fcf0 	bl	80044ac <TIM_Base_SetConfig>

  /* Initialize the DMA burst operation state */
  htim->DMABurstState = HAL_DMA_BURST_STATE_READY;
 8003acc:	687b      	ldr	r3, [r7, #4]
 8003ace:	2201      	movs	r2, #1
 8003ad0:	f883 2046 	strb.w	r2, [r3, #70]	; 0x46

  /* Initialize the TIM channels state */
  TIM_CHANNEL_STATE_SET_ALL(htim, HAL_TIM_CHANNEL_STATE_READY);
 8003ad4:	687b      	ldr	r3, [r7, #4]
 8003ad6:	2201      	movs	r2, #1
 8003ad8:	f883 203e 	strb.w	r2, [r3, #62]	; 0x3e
 8003adc:	687b      	ldr	r3, [r7, #4]
 8003ade:	2201      	movs	r2, #1
 8003ae0:	f883 203f 	strb.w	r2, [r3, #63]	; 0x3f
 8003ae4:	687b      	ldr	r3, [r7, #4]
 8003ae6:	2201      	movs	r2, #1
 8003ae8:	f883 2040 	strb.w	r2, [r3, #64]	; 0x40
 8003aec:	687b      	ldr	r3, [r7, #4]
 8003aee:	2201      	movs	r2, #1
 8003af0:	f883 2041 	strb.w	r2, [r3, #65]	; 0x41
  TIM_CHANNEL_N_STATE_SET_ALL(htim, HAL_TIM_CHANNEL_STATE_READY);
 8003af4:	687b      	ldr	r3, [r7, #4]
 8003af6:	2201      	movs	r2, #1
 8003af8:	f883 2042 	strb.w	r2, [r3, #66]	; 0x42
 8003afc:	687b      	ldr	r3, [r7, #4]
 8003afe:	2201      	movs	r2, #1
 8003b00:	f883 2043 	strb.w	r2, [r3, #67]	; 0x43
 8003b04:	687b      	ldr	r3, [r7, #4]
 8003b06:	2201      	movs	r2, #1
 8003b08:	f883 2044 	strb.w	r2, [r3, #68]	; 0x44
 8003b0c:	687b      	ldr	r3, [r7, #4]
 8003b0e:	2201      	movs	r2, #1
 8003b10:	f883 2045 	strb.w	r2, [r3, #69]	; 0x45

  /* Initialize the TIM state*/
  htim->State = HAL_TIM_STATE_READY;
 8003b14:	687b      	ldr	r3, [r7, #4]
 8003b16:	2201      	movs	r2, #1
 8003b18:	f883 203d 	strb.w	r2, [r3, #61]	; 0x3d

  return HAL_OK;
 8003b1c:	2300      	movs	r3, #0
}
 8003b1e:	4618      	mov	r0, r3
 8003b20:	3708      	adds	r7, #8
 8003b22:	46bd      	mov	sp, r7
 8003b24:	bd80      	pop	{r7, pc}

08003b26 <HAL_TIM_IC_MspInit>:
  * @brief  Initializes the TIM Input Capture MSP.
  * @param  htim TIM Input Capture handle
  * @retval None
  */
__weak void HAL_TIM_IC_MspInit(TIM_HandleTypeDef *htim)
{
 8003b26:	b480      	push	{r7}
 8003b28:	b083      	sub	sp, #12
 8003b2a:	af00      	add	r7, sp, #0
 8003b2c:	6078      	str	r0, [r7, #4]
  UNUSED(htim);

  /* NOTE : This function should not be modified, when the callback is needed,
            the HAL_TIM_IC_MspInit could be implemented in the user file
   */
}
 8003b2e:	bf00      	nop
 8003b30:	370c      	adds	r7, #12
 8003b32:	46bd      	mov	sp, r7
 8003b34:	f85d 7b04 	ldr.w	r7, [sp], #4
 8003b38:	4770      	bx	lr
	...

08003b3c <HAL_TIM_IC_Start_IT>:
  *            @arg TIM_CHANNEL_3: TIM Channel 3 selected
  *            @arg TIM_CHANNEL_4: TIM Channel 4 selected
  * @retval HAL status
  */
HAL_StatusTypeDef HAL_TIM_IC_Start_IT(TIM_HandleTypeDef *htim, uint32_t Channel)
{
 8003b3c:	b580      	push	{r7, lr}
 8003b3e:	b084      	sub	sp, #16
 8003b40:	af00      	add	r7, sp, #0
 8003b42:	6078      	str	r0, [r7, #4]
 8003b44:	6039      	str	r1, [r7, #0]
  HAL_StatusTypeDef status = HAL_OK;
 8003b46:	2300      	movs	r3, #0
 8003b48:	73fb      	strb	r3, [r7, #15]
  uint32_t tmpsmcr;

  HAL_TIM_ChannelStateTypeDef channel_state = TIM_CHANNEL_STATE_GET(htim, Channel);
 8003b4a:	683b      	ldr	r3, [r7, #0]
 8003b4c:	2b00      	cmp	r3, #0
 8003b4e:	d104      	bne.n	8003b5a <HAL_TIM_IC_Start_IT+0x1e>
 8003b50:	687b      	ldr	r3, [r7, #4]
 8003b52:	f893 303e 	ldrb.w	r3, [r3, #62]	; 0x3e
 8003b56:	b2db      	uxtb	r3, r3
 8003b58:	e013      	b.n	8003b82 <HAL_TIM_IC_Start_IT+0x46>
 8003b5a:	683b      	ldr	r3, [r7, #0]
 8003b5c:	2b04      	cmp	r3, #4
 8003b5e:	d104      	bne.n	8003b6a <HAL_TIM_IC_Start_IT+0x2e>
 8003b60:	687b      	ldr	r3, [r7, #4]
 8003b62:	f893 303f 	ldrb.w	r3, [r3, #63]	; 0x3f
 8003b66:	b2db      	uxtb	r3, r3
 8003b68:	e00b      	b.n	8003b82 <HAL_TIM_IC_Start_IT+0x46>
 8003b6a:	683b      	ldr	r3, [r7, #0]
 8003b6c:	2b08      	cmp	r3, #8
 8003b6e:	d104      	bne.n	8003b7a <HAL_TIM_IC_Start_IT+0x3e>
 8003b70:	687b      	ldr	r3, [r7, #4]
 8003b72:	f893 3040 	ldrb.w	r3, [r3, #64]	; 0x40
 8003b76:	b2db      	uxtb	r3, r3
 8003b78:	e003      	b.n	8003b82 <HAL_TIM_IC_Start_IT+0x46>
 8003b7a:	687b      	ldr	r3, [r7, #4]
 8003b7c:	f893 3041 	ldrb.w	r3, [r3, #65]	; 0x41
 8003b80:	b2db      	uxtb	r3, r3
 8003b82:	73bb      	strb	r3, [r7, #14]
  HAL_TIM_ChannelStateTypeDef complementary_channel_state = TIM_CHANNEL_N_STATE_GET(htim, Channel);
 8003b84:	683b      	ldr	r3, [r7, #0]
 8003b86:	2b00      	cmp	r3, #0
 8003b88:	d104      	bne.n	8003b94 <HAL_TIM_IC_Start_IT+0x58>
 8003b8a:	687b      	ldr	r3, [r7, #4]
 8003b8c:	f893 3042 	ldrb.w	r3, [r3, #66]	; 0x42
 8003b90:	b2db      	uxtb	r3, r3
 8003b92:	e013      	b.n	8003bbc <HAL_TIM_IC_Start_IT+0x80>
 8003b94:	683b      	ldr	r3, [r7, #0]
 8003b96:	2b04      	cmp	r3, #4
 8003b98:	d104      	bne.n	8003ba4 <HAL_TIM_IC_Start_IT+0x68>
 8003b9a:	687b      	ldr	r3, [r7, #4]
 8003b9c:	f893 3043 	ldrb.w	r3, [r3, #67]	; 0x43
 8003ba0:	b2db      	uxtb	r3, r3
 8003ba2:	e00b      	b.n	8003bbc <HAL_TIM_IC_Start_IT+0x80>
 8003ba4:	683b      	ldr	r3, [r7, #0]
 8003ba6:	2b08      	cmp	r3, #8
 8003ba8:	d104      	bne.n	8003bb4 <HAL_TIM_IC_Start_IT+0x78>
 8003baa:	687b      	ldr	r3, [r7, #4]
 8003bac:	f893 3044 	ldrb.w	r3, [r3, #68]	; 0x44
 8003bb0:	b2db      	uxtb	r3, r3
 8003bb2:	e003      	b.n	8003bbc <HAL_TIM_IC_Start_IT+0x80>
 8003bb4:	687b      	ldr	r3, [r7, #4]
 8003bb6:	f893 3045 	ldrb.w	r3, [r3, #69]	; 0x45
 8003bba:	b2db      	uxtb	r3, r3
 8003bbc:	737b      	strb	r3, [r7, #13]

  /* Check the parameters */
  assert_param(IS_TIM_CCX_INSTANCE(htim->Instance, Channel));

  /* Check the TIM channel state */
  if ((channel_state != HAL_TIM_CHANNEL_STATE_READY)
 8003bbe:	7bbb      	ldrb	r3, [r7, #14]
 8003bc0:	2b01      	cmp	r3, #1
 8003bc2:	d102      	bne.n	8003bca <HAL_TIM_IC_Start_IT+0x8e>
      || (complementary_channel_state != HAL_TIM_CHANNEL_STATE_READY))
 8003bc4:	7b7b      	ldrb	r3, [r7, #13]
 8003bc6:	2b01      	cmp	r3, #1
 8003bc8:	d001      	beq.n	8003bce <HAL_TIM_IC_Start_IT+0x92>
  {
    return HAL_ERROR;
 8003bca:	2301      	movs	r3, #1
 8003bcc:	e0cc      	b.n	8003d68 <HAL_TIM_IC_Start_IT+0x22c>
  }

  /* Set the TIM channel state */
  TIM_CHANNEL_STATE_SET(htim, Channel, HAL_TIM_CHANNEL_STATE_BUSY);
 8003bce:	683b      	ldr	r3, [r7, #0]
 8003bd0:	2b00      	cmp	r3, #0
 8003bd2:	d104      	bne.n	8003bde <HAL_TIM_IC_Start_IT+0xa2>
 8003bd4:	687b      	ldr	r3, [r7, #4]
 8003bd6:	2202      	movs	r2, #2
 8003bd8:	f883 203e 	strb.w	r2, [r3, #62]	; 0x3e
 8003bdc:	e013      	b.n	8003c06 <HAL_TIM_IC_Start_IT+0xca>
 8003bde:	683b      	ldr	r3, [r7, #0]
 8003be0:	2b04      	cmp	r3, #4
 8003be2:	d104      	bne.n	8003bee <HAL_TIM_IC_Start_IT+0xb2>
 8003be4:	687b      	ldr	r3, [r7, #4]
 8003be6:	2202      	movs	r2, #2
 8003be8:	f883 203f 	strb.w	r2, [r3, #63]	; 0x3f
 8003bec:	e00b      	b.n	8003c06 <HAL_TIM_IC_Start_IT+0xca>
 8003bee:	683b      	ldr	r3, [r7, #0]
 8003bf0:	2b08      	cmp	r3, #8
 8003bf2:	d104      	bne.n	8003bfe <HAL_TIM_IC_Start_IT+0xc2>
 8003bf4:	687b      	ldr	r3, [r7, #4]
 8003bf6:	2202      	movs	r2, #2
 8003bf8:	f883 2040 	strb.w	r2, [r3, #64]	; 0x40
 8003bfc:	e003      	b.n	8003c06 <HAL_TIM_IC_Start_IT+0xca>
 8003bfe:	687b      	ldr	r3, [r7, #4]
 8003c00:	2202      	movs	r2, #2
 8003c02:	f883 2041 	strb.w	r2, [r3, #65]	; 0x41
  TIM_CHANNEL_N_STATE_SET(htim, Channel, HAL_TIM_CHANNEL_STATE_BUSY);
 8003c06:	683b      	ldr	r3, [r7, #0]
 8003c08:	2b00      	cmp	r3, #0
 8003c0a:	d104      	bne.n	8003c16 <HAL_TIM_IC_Start_IT+0xda>
 8003c0c:	687b      	ldr	r3, [r7, #4]
 8003c0e:	2202      	movs	r2, #2
 8003c10:	f883 2042 	strb.w	r2, [r3, #66]	; 0x42
 8003c14:	e013      	b.n	8003c3e <HAL_TIM_IC_Start_IT+0x102>
 8003c16:	683b      	ldr	r3, [r7, #0]
 8003c18:	2b04      	cmp	r3, #4
 8003c1a:	d104      	bne.n	8003c26 <HAL_TIM_IC_Start_IT+0xea>
 8003c1c:	687b      	ldr	r3, [r7, #4]
 8003c1e:	2202      	movs	r2, #2
 8003c20:	f883 2043 	strb.w	r2, [r3, #67]	; 0x43
 8003c24:	e00b      	b.n	8003c3e <HAL_TIM_IC_Start_IT+0x102>
 8003c26:	683b      	ldr	r3, [r7, #0]
 8003c28:	2b08      	cmp	r3, #8
 8003c2a:	d104      	bne.n	8003c36 <HAL_TIM_IC_Start_IT+0xfa>
 8003c2c:	687b      	ldr	r3, [r7, #4]
 8003c2e:	2202      	movs	r2, #2
 8003c30:	f883 2044 	strb.w	r2, [r3, #68]	; 0x44
 8003c34:	e003      	b.n	8003c3e <HAL_TIM_IC_Start_IT+0x102>
 8003c36:	687b      	ldr	r3, [r7, #4]
 8003c38:	2202      	movs	r2, #2
 8003c3a:	f883 2045 	strb.w	r2, [r3, #69]	; 0x45
 8003c3e:	683b      	ldr	r3, [r7, #0]
 8003c40:	2b0c      	cmp	r3, #12
 8003c42:	d841      	bhi.n	8003cc8 <HAL_TIM_IC_Start_IT+0x18c>
 8003c44:	a201      	add	r2, pc, #4	; (adr r2, 8003c4c <HAL_TIM_IC_Start_IT+0x110>)
 8003c46:	f852 f023 	ldr.w	pc, [r2, r3, lsl #2]
 8003c4a:	bf00      	nop
 8003c4c:	08003c81 	.word	0x08003c81
 8003c50:	08003cc9 	.word	0x08003cc9
 8003c54:	08003cc9 	.word	0x08003cc9
 8003c58:	08003cc9 	.word	0x08003cc9
 8003c5c:	08003c93 	.word	0x08003c93
 8003c60:	08003cc9 	.word	0x08003cc9
 8003c64:	08003cc9 	.word	0x08003cc9
 8003c68:	08003cc9 	.word	0x08003cc9
 8003c6c:	08003ca5 	.word	0x08003ca5
 8003c70:	08003cc9 	.word	0x08003cc9
 8003c74:	08003cc9 	.word	0x08003cc9
 8003c78:	08003cc9 	.word	0x08003cc9
 8003c7c:	08003cb7 	.word	0x08003cb7
  switch (Channel)
  {
    case TIM_CHANNEL_1:
    {
      /* Enable the TIM Capture/Compare 1 interrupt */
      __HAL_TIM_ENABLE_IT(htim, TIM_IT_CC1);
 8003c80:	687b      	ldr	r3, [r7, #4]
 8003c82:	681b      	ldr	r3, [r3, #0]
 8003c84:	68da      	ldr	r2, [r3, #12]
 8003c86:	687b      	ldr	r3, [r7, #4]
 8003c88:	681b      	ldr	r3, [r3, #0]
 8003c8a:	f042 0202 	orr.w	r2, r2, #2
 8003c8e:	60da      	str	r2, [r3, #12]
      break;
 8003c90:	e01d      	b.n	8003cce <HAL_TIM_IC_Start_IT+0x192>
    }

    case TIM_CHANNEL_2:
    {
      /* Enable the TIM Capture/Compare 2 interrupt */
      __HAL_TIM_ENABLE_IT(htim, TIM_IT_CC2);
 8003c92:	687b      	ldr	r3, [r7, #4]
 8003c94:	681b      	ldr	r3, [r3, #0]
 8003c96:	68da      	ldr	r2, [r3, #12]
 8003c98:	687b      	ldr	r3, [r7, #4]
 8003c9a:	681b      	ldr	r3, [r3, #0]
 8003c9c:	f042 0204 	orr.w	r2, r2, #4
 8003ca0:	60da      	str	r2, [r3, #12]
      break;
 8003ca2:	e014      	b.n	8003cce <HAL_TIM_IC_Start_IT+0x192>
    }

    case TIM_CHANNEL_3:
    {
      /* Enable the TIM Capture/Compare 3 interrupt */
      __HAL_TIM_ENABLE_IT(htim, TIM_IT_CC3);
 8003ca4:	687b      	ldr	r3, [r7, #4]
 8003ca6:	681b      	ldr	r3, [r3, #0]
 8003ca8:	68da      	ldr	r2, [r3, #12]
 8003caa:	687b      	ldr	r3, [r7, #4]
 8003cac:	681b      	ldr	r3, [r3, #0]
 8003cae:	f042 0208 	orr.w	r2, r2, #8
 8003cb2:	60da      	str	r2, [r3, #12]
      break;
 8003cb4:	e00b      	b.n	8003cce <HAL_TIM_IC_Start_IT+0x192>
    }

    case TIM_CHANNEL_4:
    {
      /* Enable the TIM Capture/Compare 4 interrupt */
      __HAL_TIM_ENABLE_IT(htim, TIM_IT_CC4);
 8003cb6:	687b      	ldr	r3, [r7, #4]
 8003cb8:	681b      	ldr	r3, [r3, #0]
 8003cba:	68da      	ldr	r2, [r3, #12]
 8003cbc:	687b      	ldr	r3, [r7, #4]
 8003cbe:	681b      	ldr	r3, [r3, #0]
 8003cc0:	f042 0210 	orr.w	r2, r2, #16
 8003cc4:	60da      	str	r2, [r3, #12]
      break;
 8003cc6:	e002      	b.n	8003cce <HAL_TIM_IC_Start_IT+0x192>
    }

    default:
      status = HAL_ERROR;
 8003cc8:	2301      	movs	r3, #1
 8003cca:	73fb      	strb	r3, [r7, #15]
      break;
 8003ccc:	bf00      	nop
  }

  if (status == HAL_OK)
 8003cce:	7bfb      	ldrb	r3, [r7, #15]
 8003cd0:	2b00      	cmp	r3, #0
 8003cd2:	d148      	bne.n	8003d66 <HAL_TIM_IC_Start_IT+0x22a>
  {
    /* Enable the Input Capture channel */
    TIM_CCxChannelCmd(htim->Instance, Channel, TIM_CCx_ENABLE);
 8003cd4:	687b      	ldr	r3, [r7, #4]
 8003cd6:	681b      	ldr	r3, [r3, #0]
 8003cd8:	2201      	movs	r2, #1
 8003cda:	6839      	ldr	r1, [r7, #0]
 8003cdc:	4618      	mov	r0, r3
 8003cde:	f000 fff9 	bl	8004cd4 <TIM_CCxChannelCmd>

    /* Enable the Peripheral, except in trigger mode where enable is automatically done with trigger */
    if (IS_TIM_SLAVE_INSTANCE(htim->Instance))
 8003ce2:	687b      	ldr	r3, [r7, #4]
 8003ce4:	681b      	ldr	r3, [r3, #0]
 8003ce6:	4a22      	ldr	r2, [pc, #136]	; (8003d70 <HAL_TIM_IC_Start_IT+0x234>)
 8003ce8:	4293      	cmp	r3, r2
 8003cea:	d022      	beq.n	8003d32 <HAL_TIM_IC_Start_IT+0x1f6>
 8003cec:	687b      	ldr	r3, [r7, #4]
 8003cee:	681b      	ldr	r3, [r3, #0]
 8003cf0:	f1b3 4f80 	cmp.w	r3, #1073741824	; 0x40000000
 8003cf4:	d01d      	beq.n	8003d32 <HAL_TIM_IC_Start_IT+0x1f6>
 8003cf6:	687b      	ldr	r3, [r7, #4]
 8003cf8:	681b      	ldr	r3, [r3, #0]
 8003cfa:	4a1e      	ldr	r2, [pc, #120]	; (8003d74 <HAL_TIM_IC_Start_IT+0x238>)
 8003cfc:	4293      	cmp	r3, r2
 8003cfe:	d018      	beq.n	8003d32 <HAL_TIM_IC_Start_IT+0x1f6>
 8003d00:	687b      	ldr	r3, [r7, #4]
 8003d02:	681b      	ldr	r3, [r3, #0]
 8003d04:	4a1c      	ldr	r2, [pc, #112]	; (8003d78 <HAL_TIM_IC_Start_IT+0x23c>)
 8003d06:	4293      	cmp	r3, r2
 8003d08:	d013      	beq.n	8003d32 <HAL_TIM_IC_Start_IT+0x1f6>
 8003d0a:	687b      	ldr	r3, [r7, #4]
 8003d0c:	681b      	ldr	r3, [r3, #0]
 8003d0e:	4a1b      	ldr	r2, [pc, #108]	; (8003d7c <HAL_TIM_IC_Start_IT+0x240>)
 8003d10:	4293      	cmp	r3, r2
 8003d12:	d00e      	beq.n	8003d32 <HAL_TIM_IC_Start_IT+0x1f6>
 8003d14:	687b      	ldr	r3, [r7, #4]
 8003d16:	681b      	ldr	r3, [r3, #0]
 8003d18:	4a19      	ldr	r2, [pc, #100]	; (8003d80 <HAL_TIM_IC_Start_IT+0x244>)
 8003d1a:	4293      	cmp	r3, r2
 8003d1c:	d009      	beq.n	8003d32 <HAL_TIM_IC_Start_IT+0x1f6>
 8003d1e:	687b      	ldr	r3, [r7, #4]
 8003d20:	681b      	ldr	r3, [r3, #0]
 8003d22:	4a18      	ldr	r2, [pc, #96]	; (8003d84 <HAL_TIM_IC_Start_IT+0x248>)
 8003d24:	4293      	cmp	r3, r2
 8003d26:	d004      	beq.n	8003d32 <HAL_TIM_IC_Start_IT+0x1f6>
 8003d28:	687b      	ldr	r3, [r7, #4]
 8003d2a:	681b      	ldr	r3, [r3, #0]
 8003d2c:	4a16      	ldr	r2, [pc, #88]	; (8003d88 <HAL_TIM_IC_Start_IT+0x24c>)
 8003d2e:	4293      	cmp	r3, r2
 8003d30:	d111      	bne.n	8003d56 <HAL_TIM_IC_Start_IT+0x21a>
    {
      tmpsmcr = htim->Instance->SMCR & TIM_SMCR_SMS;
 8003d32:	687b      	ldr	r3, [r7, #4]
 8003d34:	681b      	ldr	r3, [r3, #0]
 8003d36:	689b      	ldr	r3, [r3, #8]
 8003d38:	f003 0307 	and.w	r3, r3, #7
 8003d3c:	60bb      	str	r3, [r7, #8]
      if (!IS_TIM_SLAVEMODE_TRIGGER_ENABLED(tmpsmcr))
 8003d3e:	68bb      	ldr	r3, [r7, #8]
 8003d40:	2b06      	cmp	r3, #6
 8003d42:	d010      	beq.n	8003d66 <HAL_TIM_IC_Start_IT+0x22a>
      {
        __HAL_TIM_ENABLE(htim);
 8003d44:	687b      	ldr	r3, [r7, #4]
 8003d46:	681b      	ldr	r3, [r3, #0]
 8003d48:	681a      	ldr	r2, [r3, #0]
 8003d4a:	687b      	ldr	r3, [r7, #4]
 8003d4c:	681b      	ldr	r3, [r3, #0]
 8003d4e:	f042 0201 	orr.w	r2, r2, #1
 8003d52:	601a      	str	r2, [r3, #0]
      if (!IS_TIM_SLAVEMODE_TRIGGER_ENABLED(tmpsmcr))
 8003d54:	e007      	b.n	8003d66 <HAL_TIM_IC_Start_IT+0x22a>
      }
    }
    else
    {
      __HAL_TIM_ENABLE(htim);
 8003d56:	687b      	ldr	r3, [r7, #4]
 8003d58:	681b      	ldr	r3, [r3, #0]
 8003d5a:	681a      	ldr	r2, [r3, #0]
 8003d5c:	687b      	ldr	r3, [r7, #4]
 8003d5e:	681b      	ldr	r3, [r3, #0]
 8003d60:	f042 0201 	orr.w	r2, r2, #1
 8003d64:	601a      	str	r2, [r3, #0]
    }
  }

  /* Return function status */
  return status;
 8003d66:	7bfb      	ldrb	r3, [r7, #15]
}
 8003d68:	4618      	mov	r0, r3
 8003d6a:	3710      	adds	r7, #16
 8003d6c:	46bd      	mov	sp, r7
 8003d6e:	bd80      	pop	{r7, pc}
 8003d70:	40010000 	.word	0x40010000
 8003d74:	40000400 	.word	0x40000400
 8003d78:	40000800 	.word	0x40000800
 8003d7c:	40000c00 	.word	0x40000c00
 8003d80:	40010400 	.word	0x40010400
 8003d84:	40014000 	.word	0x40014000
 8003d88:	40001800 	.word	0x40001800

08003d8c <HAL_TIM_IRQHandler>:
  * @brief  This function handles TIM interrupts requests.
  * @param  htim TIM  handle
  * @retval None
  */
void HAL_TIM_IRQHandler(TIM_HandleTypeDef *htim)
{
 8003d8c:	b580      	push	{r7, lr}
 8003d8e:	b082      	sub	sp, #8
 8003d90:	af00      	add	r7, sp, #0
 8003d92:	6078      	str	r0, [r7, #4]
  /* Capture compare 1 event */
  if (__HAL_TIM_GET_FLAG(htim, TIM_FLAG_CC1) != RESET)
 8003d94:	687b      	ldr	r3, [r7, #4]
 8003d96:	681b      	ldr	r3, [r3, #0]
 8003d98:	691b      	ldr	r3, [r3, #16]
 8003d9a:	f003 0302 	and.w	r3, r3, #2
 8003d9e:	2b02      	cmp	r3, #2
 8003da0:	d122      	bne.n	8003de8 <HAL_TIM_IRQHandler+0x5c>
  {
    if (__HAL_TIM_GET_IT_SOURCE(htim, TIM_IT_CC1) != RESET)
 8003da2:	687b      	ldr	r3, [r7, #4]
 8003da4:	681b      	ldr	r3, [r3, #0]
 8003da6:	68db      	ldr	r3, [r3, #12]
 8003da8:	f003 0302 	and.w	r3, r3, #2
 8003dac:	2b02      	cmp	r3, #2
 8003dae:	d11b      	bne.n	8003de8 <HAL_TIM_IRQHandler+0x5c>
    {
      {
        __HAL_TIM_CLEAR_IT(htim, TIM_IT_CC1);
 8003db0:	687b      	ldr	r3, [r7, #4]
 8003db2:	681b      	ldr	r3, [r3, #0]
 8003db4:	f06f 0202 	mvn.w	r2, #2
 8003db8:	611a      	str	r2, [r3, #16]
        htim->Channel = HAL_TIM_ACTIVE_CHANNEL_1;
 8003dba:	687b      	ldr	r3, [r7, #4]
 8003dbc:	2201      	movs	r2, #1
 8003dbe:	771a      	strb	r2, [r3, #28]

        /* Input capture event */
        if ((htim->Instance->CCMR1 & TIM_CCMR1_CC1S) != 0x00U)
 8003dc0:	687b      	ldr	r3, [r7, #4]
 8003dc2:	681b      	ldr	r3, [r3, #0]
 8003dc4:	699b      	ldr	r3, [r3, #24]
 8003dc6:	f003 0303 	and.w	r3, r3, #3
 8003dca:	2b00      	cmp	r3, #0
 8003dcc:	d003      	beq.n	8003dd6 <HAL_TIM_IRQHandler+0x4a>
        {
#if (USE_HAL_TIM_REGISTER_CALLBACKS == 1)
          htim->IC_CaptureCallback(htim);
#else
          HAL_TIM_IC_CaptureCallback(htim);
 8003dce:	6878      	ldr	r0, [r7, #4]
 8003dd0:	f7fd ff8e 	bl	8001cf0 <HAL_TIM_IC_CaptureCallback>
 8003dd4:	e005      	b.n	8003de2 <HAL_TIM_IRQHandler+0x56>
        {
#if (USE_HAL_TIM_REGISTER_CALLBACKS == 1)
          htim->OC_DelayElapsedCallback(htim);
          htim->PWM_PulseFinishedCallback(htim);
#else
          HAL_TIM_OC_DelayElapsedCallback(htim);
 8003dd6:	6878      	ldr	r0, [r7, #4]
 8003dd8:	f000 fb4a 	bl	8004470 <HAL_TIM_OC_DelayElapsedCallback>
          HAL_TIM_PWM_PulseFinishedCallback(htim);
 8003ddc:	6878      	ldr	r0, [r7, #4]
 8003dde:	f000 fb51 	bl	8004484 <HAL_TIM_PWM_PulseFinishedCallback>
#endif /* USE_HAL_TIM_REGISTER_CALLBACKS */
        }
        htim->Channel = HAL_TIM_ACTIVE_CHANNEL_CLEARED;
 8003de2:	687b      	ldr	r3, [r7, #4]
 8003de4:	2200      	movs	r2, #0
 8003de6:	771a      	strb	r2, [r3, #28]
      }
    }
  }
  /* Capture compare 2 event */
  if (__HAL_TIM_GET_FLAG(htim, TIM_FLAG_CC2) != RESET)
 8003de8:	687b      	ldr	r3, [r7, #4]
 8003dea:	681b      	ldr	r3, [r3, #0]
 8003dec:	691b      	ldr	r3, [r3, #16]
 8003dee:	f003 0304 	and.w	r3, r3, #4
 8003df2:	2b04      	cmp	r3, #4
 8003df4:	d122      	bne.n	8003e3c <HAL_TIM_IRQHandler+0xb0>
  {
    if (__HAL_TIM_GET_IT_SOURCE(htim, TIM_IT_CC2) != RESET)
 8003df6:	687b      	ldr	r3, [r7, #4]
 8003df8:	681b      	ldr	r3, [r3, #0]
 8003dfa:	68db      	ldr	r3, [r3, #12]
 8003dfc:	f003 0304 	and.w	r3, r3, #4
 8003e00:	2b04      	cmp	r3, #4
 8003e02:	d11b      	bne.n	8003e3c <HAL_TIM_IRQHandler+0xb0>
    {
      __HAL_TIM_CLEAR_IT(htim, TIM_IT_CC2);
 8003e04:	687b      	ldr	r3, [r7, #4]
 8003e06:	681b      	ldr	r3, [r3, #0]
 8003e08:	f06f 0204 	mvn.w	r2, #4
 8003e0c:	611a      	str	r2, [r3, #16]
      htim->Channel = HAL_TIM_ACTIVE_CHANNEL_2;
 8003e0e:	687b      	ldr	r3, [r7, #4]
 8003e10:	2202      	movs	r2, #2
 8003e12:	771a      	strb	r2, [r3, #28]
      /* Input capture event */
      if ((htim->Instance->CCMR1 & TIM_CCMR1_CC2S) != 0x00U)
 8003e14:	687b      	ldr	r3, [r7, #4]
 8003e16:	681b      	ldr	r3, [r3, #0]
 8003e18:	699b      	ldr	r3, [r3, #24]
 8003e1a:	f403 7340 	and.w	r3, r3, #768	; 0x300
 8003e1e:	2b00      	cmp	r3, #0
 8003e20:	d003      	beq.n	8003e2a <HAL_TIM_IRQHandler+0x9e>
      {
#if (USE_HAL_TIM_REGISTER_CALLBACKS == 1)
        htim->IC_CaptureCallback(htim);
#else
        HAL_TIM_IC_CaptureCallback(htim);
 8003e22:	6878      	ldr	r0, [r7, #4]
 8003e24:	f7fd ff64 	bl	8001cf0 <HAL_TIM_IC_CaptureCallback>
 8003e28:	e005      	b.n	8003e36 <HAL_TIM_IRQHandler+0xaa>
      {
#if (USE_HAL_TIM_REGISTER_CALLBACKS == 1)
        htim->OC_DelayElapsedCallback(htim);
        htim->PWM_PulseFinishedCallback(htim);
#else
        HAL_TIM_OC_DelayElapsedCallback(htim);
 8003e2a:	6878      	ldr	r0, [r7, #4]
 8003e2c:	f000 fb20 	bl	8004470 <HAL_TIM_OC_DelayElapsedCallback>
        HAL_TIM_PWM_PulseFinishedCallback(htim);
 8003e30:	6878      	ldr	r0, [r7, #4]
 8003e32:	f000 fb27 	bl	8004484 <HAL_TIM_PWM_PulseFinishedCallback>
#endif /* USE_HAL_TIM_REGISTER_CALLBACKS */
      }
      htim->Channel = HAL_TIM_ACTIVE_CHANNEL_CLEARED;
 8003e36:	687b      	ldr	r3, [r7, #4]
 8003e38:	2200      	movs	r2, #0
 8003e3a:	771a      	strb	r2, [r3, #28]
    }
  }
  /* Capture compare 3 event */
  if (__HAL_TIM_GET_FLAG(htim, TIM_FLAG_CC3) != RESET)
 8003e3c:	687b      	ldr	r3, [r7, #4]
 8003e3e:	681b      	ldr	r3, [r3, #0]
 8003e40:	691b      	ldr	r3, [r3, #16]
 8003e42:	f003 0308 	and.w	r3, r3, #8
 8003e46:	2b08      	cmp	r3, #8
 8003e48:	d122      	bne.n	8003e90 <HAL_TIM_IRQHandler+0x104>
  {
    if (__HAL_TIM_GET_IT_SOURCE(htim, TIM_IT_CC3) != RESET)
 8003e4a:	687b      	ldr	r3, [r7, #4]
 8003e4c:	681b      	ldr	r3, [r3, #0]
 8003e4e:	68db      	ldr	r3, [r3, #12]
 8003e50:	f003 0308 	and.w	r3, r3, #8
 8003e54:	2b08      	cmp	r3, #8
 8003e56:	d11b      	bne.n	8003e90 <HAL_TIM_IRQHandler+0x104>
    {
      __HAL_TIM_CLEAR_IT(htim, TIM_IT_CC3);
 8003e58:	687b      	ldr	r3, [r7, #4]
 8003e5a:	681b      	ldr	r3, [r3, #0]
 8003e5c:	f06f 0208 	mvn.w	r2, #8
 8003e60:	611a      	str	r2, [r3, #16]
      htim->Channel = HAL_TIM_ACTIVE_CHANNEL_3;
 8003e62:	687b      	ldr	r3, [r7, #4]
 8003e64:	2204      	movs	r2, #4
 8003e66:	771a      	strb	r2, [r3, #28]
      /* Input capture event */
      if ((htim->Instance->CCMR2 & TIM_CCMR2_CC3S) != 0x00U)
 8003e68:	687b      	ldr	r3, [r7, #4]
 8003e6a:	681b      	ldr	r3, [r3, #0]
 8003e6c:	69db      	ldr	r3, [r3, #28]
 8003e6e:	f003 0303 	and.w	r3, r3, #3
 8003e72:	2b00      	cmp	r3, #0
 8003e74:	d003      	beq.n	8003e7e <HAL_TIM_IRQHandler+0xf2>
      {
#if (USE_HAL_TIM_REGISTER_CALLBACKS == 1)
        htim->IC_CaptureCallback(htim);
#else
        HAL_TIM_IC_CaptureCallback(htim);
 8003e76:	6878      	ldr	r0, [r7, #4]
 8003e78:	f7fd ff3a 	bl	8001cf0 <HAL_TIM_IC_CaptureCallback>
 8003e7c:	e005      	b.n	8003e8a <HAL_TIM_IRQHandler+0xfe>
      {
#if (USE_HAL_TIM_REGISTER_CALLBACKS == 1)
        htim->OC_DelayElapsedCallback(htim);
        htim->PWM_PulseFinishedCallback(htim);
#else
        HAL_TIM_OC_DelayElapsedCallback(htim);
 8003e7e:	6878      	ldr	r0, [r7, #4]
 8003e80:	f000 faf6 	bl	8004470 <HAL_TIM_OC_DelayElapsedCallback>
        HAL_TIM_PWM_PulseFinishedCallback(htim);
 8003e84:	6878      	ldr	r0, [r7, #4]
 8003e86:	f000 fafd 	bl	8004484 <HAL_TIM_PWM_PulseFinishedCallback>
#endif /* USE_HAL_TIM_REGISTER_CALLBACKS */
      }
      htim->Channel = HAL_TIM_ACTIVE_CHANNEL_CLEARED;
 8003e8a:	687b      	ldr	r3, [r7, #4]
 8003e8c:	2200      	movs	r2, #0
 8003e8e:	771a      	strb	r2, [r3, #28]
    }
  }
  /* Capture compare 4 event */
  if (__HAL_TIM_GET_FLAG(htim, TIM_FLAG_CC4) != RESET)
 8003e90:	687b      	ldr	r3, [r7, #4]
 8003e92:	681b      	ldr	r3, [r3, #0]
 8003e94:	691b      	ldr	r3, [r3, #16]
 8003e96:	f003 0310 	and.w	r3, r3, #16
 8003e9a:	2b10      	cmp	r3, #16
 8003e9c:	d122      	bne.n	8003ee4 <HAL_TIM_IRQHandler+0x158>
  {
    if (__HAL_TIM_GET_IT_SOURCE(htim, TIM_IT_CC4) != RESET)
 8003e9e:	687b      	ldr	r3, [r7, #4]
 8003ea0:	681b      	ldr	r3, [r3, #0]
 8003ea2:	68db      	ldr	r3, [r3, #12]
 8003ea4:	f003 0310 	and.w	r3, r3, #16
 8003ea8:	2b10      	cmp	r3, #16
 8003eaa:	d11b      	bne.n	8003ee4 <HAL_TIM_IRQHandler+0x158>
    {
      __HAL_TIM_CLEAR_IT(htim, TIM_IT_CC4);
 8003eac:	687b      	ldr	r3, [r7, #4]
 8003eae:	681b      	ldr	r3, [r3, #0]
 8003eb0:	f06f 0210 	mvn.w	r2, #16
 8003eb4:	611a      	str	r2, [r3, #16]
      htim->Channel = HAL_TIM_ACTIVE_CHANNEL_4;
 8003eb6:	687b      	ldr	r3, [r7, #4]
 8003eb8:	2208      	movs	r2, #8
 8003eba:	771a      	strb	r2, [r3, #28]
      /* Input capture event */
      if ((htim->Instance->CCMR2 & TIM_CCMR2_CC4S) != 0x00U)
 8003ebc:	687b      	ldr	r3, [r7, #4]
 8003ebe:	681b      	ldr	r3, [r3, #0]
 8003ec0:	69db      	ldr	r3, [r3, #28]
 8003ec2:	f403 7340 	and.w	r3, r3, #768	; 0x300
 8003ec6:	2b00      	cmp	r3, #0
 8003ec8:	d003      	beq.n	8003ed2 <HAL_TIM_IRQHandler+0x146>
      {
#if (USE_HAL_TIM_REGISTER_CALLBACKS == 1)
        htim->IC_CaptureCallback(htim);
#else
        HAL_TIM_IC_CaptureCallback(htim);
 8003eca:	6878      	ldr	r0, [r7, #4]
 8003ecc:	f7fd ff10 	bl	8001cf0 <HAL_TIM_IC_CaptureCallback>
 8003ed0:	e005      	b.n	8003ede <HAL_TIM_IRQHandler+0x152>
      {
#if (USE_HAL_TIM_REGISTER_CALLBACKS == 1)
        htim->OC_DelayElapsedCallback(htim);
        htim->PWM_PulseFinishedCallback(htim);
#else
        HAL_TIM_OC_DelayElapsedCallback(htim);
 8003ed2:	6878      	ldr	r0, [r7, #4]
 8003ed4:	f000 facc 	bl	8004470 <HAL_TIM_OC_DelayElapsedCallback>
        HAL_TIM_PWM_PulseFinishedCallback(htim);
 8003ed8:	6878      	ldr	r0, [r7, #4]
 8003eda:	f000 fad3 	bl	8004484 <HAL_TIM_PWM_PulseFinishedCallback>
#endif /* USE_HAL_TIM_REGISTER_CALLBACKS */
      }
      htim->Channel = HAL_TIM_ACTIVE_CHANNEL_CLEARED;
 8003ede:	687b      	ldr	r3, [r7, #4]
 8003ee0:	2200      	movs	r2, #0
 8003ee2:	771a      	strb	r2, [r3, #28]
    }
  }
  /* TIM Update event */
  if (__HAL_TIM_GET_FLAG(htim, TIM_FLAG_UPDATE) != RESET)
 8003ee4:	687b      	ldr	r3, [r7, #4]
 8003ee6:	681b      	ldr	r3, [r3, #0]
 8003ee8:	691b      	ldr	r3, [r3, #16]
 8003eea:	f003 0301 	and.w	r3, r3, #1
 8003eee:	2b01      	cmp	r3, #1
 8003ef0:	d10e      	bne.n	8003f10 <HAL_TIM_IRQHandler+0x184>
  {
    if (__HAL_TIM_GET_IT_SOURCE(htim, TIM_IT_UPDATE) != RESET)
 8003ef2:	687b      	ldr	r3, [r7, #4]
 8003ef4:	681b      	ldr	r3, [r3, #0]
 8003ef6:	68db      	ldr	r3, [r3, #12]
 8003ef8:	f003 0301 	and.w	r3, r3, #1
 8003efc:	2b01      	cmp	r3, #1
 8003efe:	d107      	bne.n	8003f10 <HAL_TIM_IRQHandler+0x184>
    {
      __HAL_TIM_CLEAR_IT(htim, TIM_IT_UPDATE);
 8003f00:	687b      	ldr	r3, [r7, #4]
 8003f02:	681b      	ldr	r3, [r3, #0]
 8003f04:	f06f 0201 	mvn.w	r2, #1
 8003f08:	611a      	str	r2, [r3, #16]
#if (USE_HAL_TIM_REGISTER_CALLBACKS == 1)
      htim->PeriodElapsedCallback(htim);
#else
      HAL_TIM_PeriodElapsedCallback(htim);
 8003f0a:	6878      	ldr	r0, [r7, #4]
 8003f0c:	f7fd fefb 	bl	8001d06 <HAL_TIM_PeriodElapsedCallback>
#endif /* USE_HAL_TIM_REGISTER_CALLBACKS */
    }
  }
  /* TIM Break input event */
  if (__HAL_TIM_GET_FLAG(htim, TIM_FLAG_BREAK) != RESET)
 8003f10:	687b      	ldr	r3, [r7, #4]
 8003f12:	681b      	ldr	r3, [r3, #0]
 8003f14:	691b      	ldr	r3, [r3, #16]
 8003f16:	f003 0380 	and.w	r3, r3, #128	; 0x80
 8003f1a:	2b80      	cmp	r3, #128	; 0x80
 8003f1c:	d10e      	bne.n	8003f3c <HAL_TIM_IRQHandler+0x1b0>
  {
    if (__HAL_TIM_GET_IT_SOURCE(htim, TIM_IT_BREAK) != RESET)
 8003f1e:	687b      	ldr	r3, [r7, #4]
 8003f20:	681b      	ldr	r3, [r3, #0]
 8003f22:	68db      	ldr	r3, [r3, #12]
 8003f24:	f003 0380 	and.w	r3, r3, #128	; 0x80
 8003f28:	2b80      	cmp	r3, #128	; 0x80
 8003f2a:	d107      	bne.n	8003f3c <HAL_TIM_IRQHandler+0x1b0>
    {
      __HAL_TIM_CLEAR_IT(htim, TIM_IT_BREAK);
 8003f2c:	687b      	ldr	r3, [r7, #4]
 8003f2e:	681b      	ldr	r3, [r3, #0]
 8003f30:	f06f 0280 	mvn.w	r2, #128	; 0x80
 8003f34:	611a      	str	r2, [r3, #16]
#if (USE_HAL_TIM_REGISTER_CALLBACKS == 1)
      htim->BreakCallback(htim);
#else
      HAL_TIMEx_BreakCallback(htim);
 8003f36:	6878      	ldr	r0, [r7, #4]
 8003f38:	f000 ffca 	bl	8004ed0 <HAL_TIMEx_BreakCallback>
#endif /* USE_HAL_TIM_REGISTER_CALLBACKS */
    }
  }
  /* TIM Trigger detection event */
  if (__HAL_TIM_GET_FLAG(htim, TIM_FLAG_TRIGGER) != RESET)
 8003f3c:	687b      	ldr	r3, [r7, #4]
 8003f3e:	681b      	ldr	r3, [r3, #0]
 8003f40:	691b      	ldr	r3, [r3, #16]
 8003f42:	f003 0340 	and.w	r3, r3, #64	; 0x40
 8003f46:	2b40      	cmp	r3, #64	; 0x40
 8003f48:	d10e      	bne.n	8003f68 <HAL_TIM_IRQHandler+0x1dc>
  {
    if (__HAL_TIM_GET_IT_SOURCE(htim, TIM_IT_TRIGGER) != RESET)
 8003f4a:	687b      	ldr	r3, [r7, #4]
 8003f4c:	681b      	ldr	r3, [r3, #0]
 8003f4e:	68db      	ldr	r3, [r3, #12]
 8003f50:	f003 0340 	and.w	r3, r3, #64	; 0x40
 8003f54:	2b40      	cmp	r3, #64	; 0x40
 8003f56:	d107      	bne.n	8003f68 <HAL_TIM_IRQHandler+0x1dc>
    {
      __HAL_TIM_CLEAR_IT(htim, TIM_IT_TRIGGER);
 8003f58:	687b      	ldr	r3, [r7, #4]
 8003f5a:	681b      	ldr	r3, [r3, #0]
 8003f5c:	f06f 0240 	mvn.w	r2, #64	; 0x40
 8003f60:	611a      	str	r2, [r3, #16]
#if (USE_HAL_TIM_REGISTER_CALLBACKS == 1)
      htim->TriggerCallback(htim);
#else
      HAL_TIM_TriggerCallback(htim);
 8003f62:	6878      	ldr	r0, [r7, #4]
 8003f64:	f000 fa98 	bl	8004498 <HAL_TIM_TriggerCallback>
#endif /* USE_HAL_TIM_REGISTER_CALLBACKS */
    }
  }
  /* TIM commutation event */
  if (__HAL_TIM_GET_FLAG(htim, TIM_FLAG_COM) != RESET)
 8003f68:	687b      	ldr	r3, [r7, #4]
 8003f6a:	681b      	ldr	r3, [r3, #0]
 8003f6c:	691b      	ldr	r3, [r3, #16]
 8003f6e:	f003 0320 	and.w	r3, r3, #32
 8003f72:	2b20      	cmp	r3, #32
 8003f74:	d10e      	bne.n	8003f94 <HAL_TIM_IRQHandler+0x208>
  {
    if (__HAL_TIM_GET_IT_SOURCE(htim, TIM_IT_COM) != RESET)
 8003f76:	687b      	ldr	r3, [r7, #4]
 8003f78:	681b      	ldr	r3, [r3, #0]
 8003f7a:	68db      	ldr	r3, [r3, #12]
 8003f7c:	f003 0320 	and.w	r3, r3, #32
 8003f80:	2b20      	cmp	r3, #32
 8003f82:	d107      	bne.n	8003f94 <HAL_TIM_IRQHandler+0x208>
    {
      __HAL_TIM_CLEAR_IT(htim, TIM_FLAG_COM);
 8003f84:	687b      	ldr	r3, [r7, #4]
 8003f86:	681b      	ldr	r3, [r3, #0]
 8003f88:	f06f 0220 	mvn.w	r2, #32
 8003f8c:	611a      	str	r2, [r3, #16]
#if (USE_HAL_TIM_REGISTER_CALLBACKS == 1)
      htim->CommutationCallback(htim);
#else
      HAL_TIMEx_CommutCallback(htim);
 8003f8e:	6878      	ldr	r0, [r7, #4]
 8003f90:	f000 ff94 	bl	8004ebc <HAL_TIMEx_CommutCallback>
#endif /* USE_HAL_TIM_REGISTER_CALLBACKS */
    }
  }
}
 8003f94:	bf00      	nop
 8003f96:	3708      	adds	r7, #8
 8003f98:	46bd      	mov	sp, r7
 8003f9a:	bd80      	pop	{r7, pc}

08003f9c <HAL_TIM_IC_ConfigChannel>:
  *            @arg TIM_CHANNEL_3: TIM Channel 3 selected
  *            @arg TIM_CHANNEL_4: TIM Channel 4 selected
  * @retval HAL status
  */
HAL_StatusTypeDef HAL_TIM_IC_ConfigChannel(TIM_HandleTypeDef *htim, TIM_IC_InitTypeDef *sConfig, uint32_t Channel)
{
 8003f9c:	b580      	push	{r7, lr}
 8003f9e:	b086      	sub	sp, #24
 8003fa0:	af00      	add	r7, sp, #0
 8003fa2:	60f8      	str	r0, [r7, #12]
 8003fa4:	60b9      	str	r1, [r7, #8]
 8003fa6:	607a      	str	r2, [r7, #4]
  HAL_StatusTypeDef status = HAL_OK;
 8003fa8:	2300      	movs	r3, #0
 8003faa:	75fb      	strb	r3, [r7, #23]
  assert_param(IS_TIM_IC_SELECTION(sConfig->ICSelection));
  assert_param(IS_TIM_IC_PRESCALER(sConfig->ICPrescaler));
  assert_param(IS_TIM_IC_FILTER(sConfig->ICFilter));

  /* Process Locked */
  __HAL_LOCK(htim);
 8003fac:	68fb      	ldr	r3, [r7, #12]
 8003fae:	f893 303c 	ldrb.w	r3, [r3, #60]	; 0x3c
 8003fb2:	2b01      	cmp	r3, #1
 8003fb4:	d101      	bne.n	8003fba <HAL_TIM_IC_ConfigChannel+0x1e>
 8003fb6:	2302      	movs	r3, #2
 8003fb8:	e088      	b.n	80040cc <HAL_TIM_IC_ConfigChannel+0x130>
 8003fba:	68fb      	ldr	r3, [r7, #12]
 8003fbc:	2201      	movs	r2, #1
 8003fbe:	f883 203c 	strb.w	r2, [r3, #60]	; 0x3c

  if (Channel == TIM_CHANNEL_1)
 8003fc2:	687b      	ldr	r3, [r7, #4]
 8003fc4:	2b00      	cmp	r3, #0
 8003fc6:	d11b      	bne.n	8004000 <HAL_TIM_IC_ConfigChannel+0x64>
  {
    /* TI1 Configuration */
    TIM_TI1_SetConfig(htim->Instance,
 8003fc8:	68fb      	ldr	r3, [r7, #12]
 8003fca:	6818      	ldr	r0, [r3, #0]
 8003fcc:	68bb      	ldr	r3, [r7, #8]
 8003fce:	6819      	ldr	r1, [r3, #0]
 8003fd0:	68bb      	ldr	r3, [r7, #8]
 8003fd2:	685a      	ldr	r2, [r3, #4]
 8003fd4:	68bb      	ldr	r3, [r7, #8]
 8003fd6:	68db      	ldr	r3, [r3, #12]
 8003fd8:	f000 fcb8 	bl	800494c <TIM_TI1_SetConfig>
                      sConfig->ICPolarity,
                      sConfig->ICSelection,
                      sConfig->ICFilter);

    /* Reset the IC1PSC Bits */
    htim->Instance->CCMR1 &= ~TIM_CCMR1_IC1PSC;
 8003fdc:	68fb      	ldr	r3, [r7, #12]
 8003fde:	681b      	ldr	r3, [r3, #0]
 8003fe0:	699a      	ldr	r2, [r3, #24]
 8003fe2:	68fb      	ldr	r3, [r7, #12]
 8003fe4:	681b      	ldr	r3, [r3, #0]
 8003fe6:	f022 020c 	bic.w	r2, r2, #12
 8003fea:	619a      	str	r2, [r3, #24]

    /* Set the IC1PSC value */
    htim->Instance->CCMR1 |= sConfig->ICPrescaler;
 8003fec:	68fb      	ldr	r3, [r7, #12]
 8003fee:	681b      	ldr	r3, [r3, #0]
 8003ff0:	6999      	ldr	r1, [r3, #24]
 8003ff2:	68bb      	ldr	r3, [r7, #8]
 8003ff4:	689a      	ldr	r2, [r3, #8]
 8003ff6:	68fb      	ldr	r3, [r7, #12]
 8003ff8:	681b      	ldr	r3, [r3, #0]
 8003ffa:	430a      	orrs	r2, r1
 8003ffc:	619a      	str	r2, [r3, #24]
 8003ffe:	e060      	b.n	80040c2 <HAL_TIM_IC_ConfigChannel+0x126>
  }
  else if (Channel == TIM_CHANNEL_2)
 8004000:	687b      	ldr	r3, [r7, #4]
 8004002:	2b04      	cmp	r3, #4
 8004004:	d11c      	bne.n	8004040 <HAL_TIM_IC_ConfigChannel+0xa4>
  {
    /* TI2 Configuration */
    assert_param(IS_TIM_CC2_INSTANCE(htim->Instance));

    TIM_TI2_SetConfig(htim->Instance,
 8004006:	68fb      	ldr	r3, [r7, #12]
 8004008:	6818      	ldr	r0, [r3, #0]
 800400a:	68bb      	ldr	r3, [r7, #8]
 800400c:	6819      	ldr	r1, [r3, #0]
 800400e:	68bb      	ldr	r3, [r7, #8]
 8004010:	685a      	ldr	r2, [r3, #4]
 8004012:	68bb      	ldr	r3, [r7, #8]
 8004014:	68db      	ldr	r3, [r3, #12]
 8004016:	f000 fd3c 	bl	8004a92 <TIM_TI2_SetConfig>
                      sConfig->ICPolarity,
                      sConfig->ICSelection,
                      sConfig->ICFilter);

    /* Reset the IC2PSC Bits */
    htim->Instance->CCMR1 &= ~TIM_CCMR1_IC2PSC;
 800401a:	68fb      	ldr	r3, [r7, #12]
 800401c:	681b      	ldr	r3, [r3, #0]
 800401e:	699a      	ldr	r2, [r3, #24]
 8004020:	68fb      	ldr	r3, [r7, #12]
 8004022:	681b      	ldr	r3, [r3, #0]
 8004024:	f422 6240 	bic.w	r2, r2, #3072	; 0xc00
 8004028:	619a      	str	r2, [r3, #24]

    /* Set the IC2PSC value */
    htim->Instance->CCMR1 |= (sConfig->ICPrescaler << 8U);
 800402a:	68fb      	ldr	r3, [r7, #12]
 800402c:	681b      	ldr	r3, [r3, #0]
 800402e:	6999      	ldr	r1, [r3, #24]
 8004030:	68bb      	ldr	r3, [r7, #8]
 8004032:	689b      	ldr	r3, [r3, #8]
 8004034:	021a      	lsls	r2, r3, #8
 8004036:	68fb      	ldr	r3, [r7, #12]
 8004038:	681b      	ldr	r3, [r3, #0]
 800403a:	430a      	orrs	r2, r1
 800403c:	619a      	str	r2, [r3, #24]
 800403e:	e040      	b.n	80040c2 <HAL_TIM_IC_ConfigChannel+0x126>
  }
  else if (Channel == TIM_CHANNEL_3)
 8004040:	687b      	ldr	r3, [r7, #4]
 8004042:	2b08      	cmp	r3, #8
 8004044:	d11b      	bne.n	800407e <HAL_TIM_IC_ConfigChannel+0xe2>
  {
    /* TI3 Configuration */
    assert_param(IS_TIM_CC3_INSTANCE(htim->Instance));

    TIM_TI3_SetConfig(htim->Instance,
 8004046:	68fb      	ldr	r3, [r7, #12]
 8004048:	6818      	ldr	r0, [r3, #0]
 800404a:	68bb      	ldr	r3, [r7, #8]
 800404c:	6819      	ldr	r1, [r3, #0]
 800404e:	68bb      	ldr	r3, [r7, #8]
 8004050:	685a      	ldr	r2, [r3, #4]
 8004052:	68bb      	ldr	r3, [r7, #8]
 8004054:	68db      	ldr	r3, [r3, #12]
 8004056:	f000 fd89 	bl	8004b6c <TIM_TI3_SetConfig>
                      sConfig->ICPolarity,
                      sConfig->ICSelection,
                      sConfig->ICFilter);

    /* Reset the IC3PSC Bits */
    htim->Instance->CCMR2 &= ~TIM_CCMR2_IC3PSC;
 800405a:	68fb      	ldr	r3, [r7, #12]
 800405c:	681b      	ldr	r3, [r3, #0]
 800405e:	69da      	ldr	r2, [r3, #28]
 8004060:	68fb      	ldr	r3, [r7, #12]
 8004062:	681b      	ldr	r3, [r3, #0]
 8004064:	f022 020c 	bic.w	r2, r2, #12
 8004068:	61da      	str	r2, [r3, #28]

    /* Set the IC3PSC value */
    htim->Instance->CCMR2 |= sConfig->ICPrescaler;
 800406a:	68fb      	ldr	r3, [r7, #12]
 800406c:	681b      	ldr	r3, [r3, #0]
 800406e:	69d9      	ldr	r1, [r3, #28]
 8004070:	68bb      	ldr	r3, [r7, #8]
 8004072:	689a      	ldr	r2, [r3, #8]
 8004074:	68fb      	ldr	r3, [r7, #12]
 8004076:	681b      	ldr	r3, [r3, #0]
 8004078:	430a      	orrs	r2, r1
 800407a:	61da      	str	r2, [r3, #28]
 800407c:	e021      	b.n	80040c2 <HAL_TIM_IC_ConfigChannel+0x126>
  }
  else if (Channel == TIM_CHANNEL_4)
 800407e:	687b      	ldr	r3, [r7, #4]
 8004080:	2b0c      	cmp	r3, #12
 8004082:	d11c      	bne.n	80040be <HAL_TIM_IC_ConfigChannel+0x122>
  {
    /* TI4 Configuration */
    assert_param(IS_TIM_CC4_INSTANCE(htim->Instance));

    TIM_TI4_SetConfig(htim->Instance,
 8004084:	68fb      	ldr	r3, [r7, #12]
 8004086:	6818      	ldr	r0, [r3, #0]
 8004088:	68bb      	ldr	r3, [r7, #8]
 800408a:	6819      	ldr	r1, [r3, #0]
 800408c:	68bb      	ldr	r3, [r7, #8]
 800408e:	685a      	ldr	r2, [r3, #4]
 8004090:	68bb      	ldr	r3, [r7, #8]
 8004092:	68db      	ldr	r3, [r3, #12]
 8004094:	f000 fda6 	bl	8004be4 <TIM_TI4_SetConfig>
                      sConfig->ICPolarity,
                      sConfig->ICSelection,
                      sConfig->ICFilter);

    /* Reset the IC4PSC Bits */
    htim->Instance->CCMR2 &= ~TIM_CCMR2_IC4PSC;
 8004098:	68fb      	ldr	r3, [r7, #12]
 800409a:	681b      	ldr	r3, [r3, #0]
 800409c:	69da      	ldr	r2, [r3, #28]
 800409e:	68fb      	ldr	r3, [r7, #12]
 80040a0:	681b      	ldr	r3, [r3, #0]
 80040a2:	f422 6240 	bic.w	r2, r2, #3072	; 0xc00
 80040a6:	61da      	str	r2, [r3, #28]

    /* Set the IC4PSC value */
    htim->Instance->CCMR2 |= (sConfig->ICPrescaler << 8U);
 80040a8:	68fb      	ldr	r3, [r7, #12]
 80040aa:	681b      	ldr	r3, [r3, #0]
 80040ac:	69d9      	ldr	r1, [r3, #28]
 80040ae:	68bb      	ldr	r3, [r7, #8]
 80040b0:	689b      	ldr	r3, [r3, #8]
 80040b2:	021a      	lsls	r2, r3, #8
 80040b4:	68fb      	ldr	r3, [r7, #12]
 80040b6:	681b      	ldr	r3, [r3, #0]
 80040b8:	430a      	orrs	r2, r1
 80040ba:	61da      	str	r2, [r3, #28]
 80040bc:	e001      	b.n	80040c2 <HAL_TIM_IC_ConfigChannel+0x126>
  }
  else
  {
    status = HAL_ERROR;
 80040be:	2301      	movs	r3, #1
 80040c0:	75fb      	strb	r3, [r7, #23]
  }

  __HAL_UNLOCK(htim);
 80040c2:	68fb      	ldr	r3, [r7, #12]
 80040c4:	2200      	movs	r2, #0
 80040c6:	f883 203c 	strb.w	r2, [r3, #60]	; 0x3c

  return status;
 80040ca:	7dfb      	ldrb	r3, [r7, #23]
}
 80040cc:	4618      	mov	r0, r3
 80040ce:	3718      	adds	r7, #24
 80040d0:	46bd      	mov	sp, r7
 80040d2:	bd80      	pop	{r7, pc}

080040d4 <HAL_TIM_PWM_ConfigChannel>:
  * @retval HAL status
  */
HAL_StatusTypeDef HAL_TIM_PWM_ConfigChannel(TIM_HandleTypeDef *htim,
                                            TIM_OC_InitTypeDef *sConfig,
                                            uint32_t Channel)
{
 80040d4:	b580      	push	{r7, lr}
 80040d6:	b086      	sub	sp, #24
 80040d8:	af00      	add	r7, sp, #0
 80040da:	60f8      	str	r0, [r7, #12]
 80040dc:	60b9      	str	r1, [r7, #8]
 80040de:	607a      	str	r2, [r7, #4]
  HAL_StatusTypeDef status = HAL_OK;
 80040e0:	2300      	movs	r3, #0
 80040e2:	75fb      	strb	r3, [r7, #23]
  assert_param(IS_TIM_PWM_MODE(sConfig->OCMode));
  assert_param(IS_TIM_OC_POLARITY(sConfig->OCPolarity));
  assert_param(IS_TIM_FAST_STATE(sConfig->OCFastMode));

  /* Process Locked */
  __HAL_LOCK(htim);
 80040e4:	68fb      	ldr	r3, [r7, #12]
 80040e6:	f893 303c 	ldrb.w	r3, [r3, #60]	; 0x3c
 80040ea:	2b01      	cmp	r3, #1
 80040ec:	d101      	bne.n	80040f2 <HAL_TIM_PWM_ConfigChannel+0x1e>
 80040ee:	2302      	movs	r3, #2
 80040f0:	e0ae      	b.n	8004250 <HAL_TIM_PWM_ConfigChannel+0x17c>
 80040f2:	68fb      	ldr	r3, [r7, #12]
 80040f4:	2201      	movs	r2, #1
 80040f6:	f883 203c 	strb.w	r2, [r3, #60]	; 0x3c
 80040fa:	687b      	ldr	r3, [r7, #4]
 80040fc:	2b0c      	cmp	r3, #12
 80040fe:	f200 809f 	bhi.w	8004240 <HAL_TIM_PWM_ConfigChannel+0x16c>
 8004102:	a201      	add	r2, pc, #4	; (adr r2, 8004108 <HAL_TIM_PWM_ConfigChannel+0x34>)
 8004104:	f852 f023 	ldr.w	pc, [r2, r3, lsl #2]
 8004108:	0800413d 	.word	0x0800413d
 800410c:	08004241 	.word	0x08004241
 8004110:	08004241 	.word	0x08004241
 8004114:	08004241 	.word	0x08004241
 8004118:	0800417d 	.word	0x0800417d
 800411c:	08004241 	.word	0x08004241
 8004120:	08004241 	.word	0x08004241
 8004124:	08004241 	.word	0x08004241
 8004128:	080041bf 	.word	0x080041bf
 800412c:	08004241 	.word	0x08004241
 8004130:	08004241 	.word	0x08004241
 8004134:	08004241 	.word	0x08004241
 8004138:	080041ff 	.word	0x080041ff
    {
      /* Check the parameters */
      assert_param(IS_TIM_CC1_INSTANCE(htim->Instance));

      /* Configure the Channel 1 in PWM mode */
      TIM_OC1_SetConfig(htim->Instance, sConfig);
 800413c:	68fb      	ldr	r3, [r7, #12]
 800413e:	681b      	ldr	r3, [r3, #0]
 8004140:	68b9      	ldr	r1, [r7, #8]
 8004142:	4618      	mov	r0, r3
 8004144:	f000 fa52 	bl	80045ec <TIM_OC1_SetConfig>

      /* Set the Preload enable bit for channel1 */
      htim->Instance->CCMR1 |= TIM_CCMR1_OC1PE;
 8004148:	68fb      	ldr	r3, [r7, #12]
 800414a:	681b      	ldr	r3, [r3, #0]
 800414c:	699a      	ldr	r2, [r3, #24]
 800414e:	68fb      	ldr	r3, [r7, #12]
 8004150:	681b      	ldr	r3, [r3, #0]
 8004152:	f042 0208 	orr.w	r2, r2, #8
 8004156:	619a      	str	r2, [r3, #24]

      /* Configure the Output Fast mode */
      htim->Instance->CCMR1 &= ~TIM_CCMR1_OC1FE;
 8004158:	68fb      	ldr	r3, [r7, #12]
 800415a:	681b      	ldr	r3, [r3, #0]
 800415c:	699a      	ldr	r2, [r3, #24]
 800415e:	68fb      	ldr	r3, [r7, #12]
 8004160:	681b      	ldr	r3, [r3, #0]
 8004162:	f022 0204 	bic.w	r2, r2, #4
 8004166:	619a      	str	r2, [r3, #24]
      htim->Instance->CCMR1 |= sConfig->OCFastMode;
 8004168:	68fb      	ldr	r3, [r7, #12]
 800416a:	681b      	ldr	r3, [r3, #0]
 800416c:	6999      	ldr	r1, [r3, #24]
 800416e:	68bb      	ldr	r3, [r7, #8]
 8004170:	691a      	ldr	r2, [r3, #16]
 8004172:	68fb      	ldr	r3, [r7, #12]
 8004174:	681b      	ldr	r3, [r3, #0]
 8004176:	430a      	orrs	r2, r1
 8004178:	619a      	str	r2, [r3, #24]
      break;
 800417a:	e064      	b.n	8004246 <HAL_TIM_PWM_ConfigChannel+0x172>
    {
      /* Check the parameters */
      assert_param(IS_TIM_CC2_INSTANCE(htim->Instance));

      /* Configure the Channel 2 in PWM mode */
      TIM_OC2_SetConfig(htim->Instance, sConfig);
 800417c:	68fb      	ldr	r3, [r7, #12]
 800417e:	681b      	ldr	r3, [r3, #0]
 8004180:	68b9      	ldr	r1, [r7, #8]
 8004182:	4618      	mov	r0, r3
 8004184:	f000 faa2 	bl	80046cc <TIM_OC2_SetConfig>

      /* Set the Preload enable bit for channel2 */
      htim->Instance->CCMR1 |= TIM_CCMR1_OC2PE;
 8004188:	68fb      	ldr	r3, [r7, #12]
 800418a:	681b      	ldr	r3, [r3, #0]
 800418c:	699a      	ldr	r2, [r3, #24]
 800418e:	68fb      	ldr	r3, [r7, #12]
 8004190:	681b      	ldr	r3, [r3, #0]
 8004192:	f442 6200 	orr.w	r2, r2, #2048	; 0x800
 8004196:	619a      	str	r2, [r3, #24]

      /* Configure the Output Fast mode */
      htim->Instance->CCMR1 &= ~TIM_CCMR1_OC2FE;
 8004198:	68fb      	ldr	r3, [r7, #12]
 800419a:	681b      	ldr	r3, [r3, #0]
 800419c:	699a      	ldr	r2, [r3, #24]
 800419e:	68fb      	ldr	r3, [r7, #12]
 80041a0:	681b      	ldr	r3, [r3, #0]
 80041a2:	f422 6280 	bic.w	r2, r2, #1024	; 0x400
 80041a6:	619a      	str	r2, [r3, #24]
      htim->Instance->CCMR1 |= sConfig->OCFastMode << 8U;
 80041a8:	68fb      	ldr	r3, [r7, #12]
 80041aa:	681b      	ldr	r3, [r3, #0]
 80041ac:	6999      	ldr	r1, [r3, #24]
 80041ae:	68bb      	ldr	r3, [r7, #8]
 80041b0:	691b      	ldr	r3, [r3, #16]
 80041b2:	021a      	lsls	r2, r3, #8
 80041b4:	68fb      	ldr	r3, [r7, #12]
 80041b6:	681b      	ldr	r3, [r3, #0]
 80041b8:	430a      	orrs	r2, r1
 80041ba:	619a      	str	r2, [r3, #24]
      break;
 80041bc:	e043      	b.n	8004246 <HAL_TIM_PWM_ConfigChannel+0x172>
    {
      /* Check the parameters */
      assert_param(IS_TIM_CC3_INSTANCE(htim->Instance));

      /* Configure the Channel 3 in PWM mode */
      TIM_OC3_SetConfig(htim->Instance, sConfig);
 80041be:	68fb      	ldr	r3, [r7, #12]
 80041c0:	681b      	ldr	r3, [r3, #0]
 80041c2:	68b9      	ldr	r1, [r7, #8]
 80041c4:	4618      	mov	r0, r3
 80041c6:	f000 faf7 	bl	80047b8 <TIM_OC3_SetConfig>

      /* Set the Preload enable bit for channel3 */
      htim->Instance->CCMR2 |= TIM_CCMR2_OC3PE;
 80041ca:	68fb      	ldr	r3, [r7, #12]
 80041cc:	681b      	ldr	r3, [r3, #0]
 80041ce:	69da      	ldr	r2, [r3, #28]
 80041d0:	68fb      	ldr	r3, [r7, #12]
 80041d2:	681b      	ldr	r3, [r3, #0]
 80041d4:	f042 0208 	orr.w	r2, r2, #8
 80041d8:	61da      	str	r2, [r3, #28]

      /* Configure the Output Fast mode */
      htim->Instance->CCMR2 &= ~TIM_CCMR2_OC3FE;
 80041da:	68fb      	ldr	r3, [r7, #12]
 80041dc:	681b      	ldr	r3, [r3, #0]
 80041de:	69da      	ldr	r2, [r3, #28]
 80041e0:	68fb      	ldr	r3, [r7, #12]
 80041e2:	681b      	ldr	r3, [r3, #0]
 80041e4:	f022 0204 	bic.w	r2, r2, #4
 80041e8:	61da      	str	r2, [r3, #28]
      htim->Instance->CCMR2 |= sConfig->OCFastMode;
 80041ea:	68fb      	ldr	r3, [r7, #12]
 80041ec:	681b      	ldr	r3, [r3, #0]
 80041ee:	69d9      	ldr	r1, [r3, #28]
 80041f0:	68bb      	ldr	r3, [r7, #8]
 80041f2:	691a      	ldr	r2, [r3, #16]
 80041f4:	68fb      	ldr	r3, [r7, #12]
 80041f6:	681b      	ldr	r3, [r3, #0]
 80041f8:	430a      	orrs	r2, r1
 80041fa:	61da      	str	r2, [r3, #28]
      break;
 80041fc:	e023      	b.n	8004246 <HAL_TIM_PWM_ConfigChannel+0x172>
    {
      /* Check the parameters */
      assert_param(IS_TIM_CC4_INSTANCE(htim->Instance));

      /* Configure the Channel 4 in PWM mode */
      TIM_OC4_SetConfig(htim->Instance, sConfig);
 80041fe:	68fb      	ldr	r3, [r7, #12]
 8004200:	681b      	ldr	r3, [r3, #0]
 8004202:	68b9      	ldr	r1, [r7, #8]
 8004204:	4618      	mov	r0, r3
 8004206:	f000 fb4b 	bl	80048a0 <TIM_OC4_SetConfig>

      /* Set the Preload enable bit for channel4 */
      htim->Instance->CCMR2 |= TIM_CCMR2_OC4PE;
 800420a:	68fb      	ldr	r3, [r7, #12]
 800420c:	681b      	ldr	r3, [r3, #0]
 800420e:	69da      	ldr	r2, [r3, #28]
 8004210:	68fb      	ldr	r3, [r7, #12]
 8004212:	681b      	ldr	r3, [r3, #0]
 8004214:	f442 6200 	orr.w	r2, r2, #2048	; 0x800
 8004218:	61da      	str	r2, [r3, #28]

      /* Configure the Output Fast mode */
      htim->Instance->CCMR2 &= ~TIM_CCMR2_OC4FE;
 800421a:	68fb      	ldr	r3, [r7, #12]
 800421c:	681b      	ldr	r3, [r3, #0]
 800421e:	69da      	ldr	r2, [r3, #28]
 8004220:	68fb      	ldr	r3, [r7, #12]
 8004222:	681b      	ldr	r3, [r3, #0]
 8004224:	f422 6280 	bic.w	r2, r2, #1024	; 0x400
 8004228:	61da      	str	r2, [r3, #28]
      htim->Instance->CCMR2 |= sConfig->OCFastMode << 8U;
 800422a:	68fb      	ldr	r3, [r7, #12]
 800422c:	681b      	ldr	r3, [r3, #0]
 800422e:	69d9      	ldr	r1, [r3, #28]
 8004230:	68bb      	ldr	r3, [r7, #8]
 8004232:	691b      	ldr	r3, [r3, #16]
 8004234:	021a      	lsls	r2, r3, #8
 8004236:	68fb      	ldr	r3, [r7, #12]
 8004238:	681b      	ldr	r3, [r3, #0]
 800423a:	430a      	orrs	r2, r1
 800423c:	61da      	str	r2, [r3, #28]
      break;
 800423e:	e002      	b.n	8004246 <HAL_TIM_PWM_ConfigChannel+0x172>
    }

    default:
      status = HAL_ERROR;
 8004240:	2301      	movs	r3, #1
 8004242:	75fb      	strb	r3, [r7, #23]
      break;
 8004244:	bf00      	nop
  }

  __HAL_UNLOCK(htim);
 8004246:	68fb      	ldr	r3, [r7, #12]
 8004248:	2200      	movs	r2, #0
 800424a:	f883 203c 	strb.w	r2, [r3, #60]	; 0x3c

  return status;
 800424e:	7dfb      	ldrb	r3, [r7, #23]
}
 8004250:	4618      	mov	r0, r3
 8004252:	3718      	adds	r7, #24
 8004254:	46bd      	mov	sp, r7
 8004256:	bd80      	pop	{r7, pc}

08004258 <HAL_TIM_ConfigClockSource>:
  * @param  sClockSourceConfig pointer to a TIM_ClockConfigTypeDef structure that
  *         contains the clock source information for the TIM peripheral.
  * @retval HAL status
  */
HAL_StatusTypeDef HAL_TIM_ConfigClockSource(TIM_HandleTypeDef *htim, TIM_ClockConfigTypeDef *sClockSourceConfig)
{
 8004258:	b580      	push	{r7, lr}
 800425a:	b084      	sub	sp, #16
 800425c:	af00      	add	r7, sp, #0
 800425e:	6078      	str	r0, [r7, #4]
 8004260:	6039      	str	r1, [r7, #0]
  HAL_StatusTypeDef status = HAL_OK;
 8004262:	2300      	movs	r3, #0
 8004264:	73fb      	strb	r3, [r7, #15]
  uint32_t tmpsmcr;

  /* Process Locked */
  __HAL_LOCK(htim);
 8004266:	687b      	ldr	r3, [r7, #4]
 8004268:	f893 303c 	ldrb.w	r3, [r3, #60]	; 0x3c
 800426c:	2b01      	cmp	r3, #1
 800426e:	d101      	bne.n	8004274 <HAL_TIM_ConfigClockSource+0x1c>
 8004270:	2302      	movs	r3, #2
 8004272:	e0b4      	b.n	80043de <HAL_TIM_ConfigClockSource+0x186>
 8004274:	687b      	ldr	r3, [r7, #4]
 8004276:	2201      	movs	r2, #1
 8004278:	f883 203c 	strb.w	r2, [r3, #60]	; 0x3c

  htim->State = HAL_TIM_STATE_BUSY;
 800427c:	687b      	ldr	r3, [r7, #4]
 800427e:	2202      	movs	r2, #2
 8004280:	f883 203d 	strb.w	r2, [r3, #61]	; 0x3d

  /* Check the parameters */
  assert_param(IS_TIM_CLOCKSOURCE(sClockSourceConfig->ClockSource));

  /* Reset the SMS, TS, ECE, ETPS and ETRF bits */
  tmpsmcr = htim->Instance->SMCR;
 8004284:	687b      	ldr	r3, [r7, #4]
 8004286:	681b      	ldr	r3, [r3, #0]
 8004288:	689b      	ldr	r3, [r3, #8]
 800428a:	60bb      	str	r3, [r7, #8]
  tmpsmcr &= ~(TIM_SMCR_SMS | TIM_SMCR_TS);
 800428c:	68bb      	ldr	r3, [r7, #8]
 800428e:	f023 0377 	bic.w	r3, r3, #119	; 0x77
 8004292:	60bb      	str	r3, [r7, #8]
  tmpsmcr &= ~(TIM_SMCR_ETF | TIM_SMCR_ETPS | TIM_SMCR_ECE | TIM_SMCR_ETP);
 8004294:	68bb      	ldr	r3, [r7, #8]
 8004296:	f423 437f 	bic.w	r3, r3, #65280	; 0xff00
 800429a:	60bb      	str	r3, [r7, #8]
  htim->Instance->SMCR = tmpsmcr;
 800429c:	687b      	ldr	r3, [r7, #4]
 800429e:	681b      	ldr	r3, [r3, #0]
 80042a0:	68ba      	ldr	r2, [r7, #8]
 80042a2:	609a      	str	r2, [r3, #8]

  switch (sClockSourceConfig->ClockSource)
 80042a4:	683b      	ldr	r3, [r7, #0]
 80042a6:	681b      	ldr	r3, [r3, #0]
 80042a8:	f5b3 5f00 	cmp.w	r3, #8192	; 0x2000
 80042ac:	d03e      	beq.n	800432c <HAL_TIM_ConfigClockSource+0xd4>
 80042ae:	f5b3 5f00 	cmp.w	r3, #8192	; 0x2000
 80042b2:	f200 8087 	bhi.w	80043c4 <HAL_TIM_ConfigClockSource+0x16c>
 80042b6:	f5b3 5f80 	cmp.w	r3, #4096	; 0x1000
 80042ba:	f000 8086 	beq.w	80043ca <HAL_TIM_ConfigClockSource+0x172>
 80042be:	f5b3 5f80 	cmp.w	r3, #4096	; 0x1000
 80042c2:	d87f      	bhi.n	80043c4 <HAL_TIM_ConfigClockSource+0x16c>
 80042c4:	2b70      	cmp	r3, #112	; 0x70
 80042c6:	d01a      	beq.n	80042fe <HAL_TIM_ConfigClockSource+0xa6>
 80042c8:	2b70      	cmp	r3, #112	; 0x70
 80042ca:	d87b      	bhi.n	80043c4 <HAL_TIM_ConfigClockSource+0x16c>
 80042cc:	2b60      	cmp	r3, #96	; 0x60
 80042ce:	d050      	beq.n	8004372 <HAL_TIM_ConfigClockSource+0x11a>
 80042d0:	2b60      	cmp	r3, #96	; 0x60
 80042d2:	d877      	bhi.n	80043c4 <HAL_TIM_ConfigClockSource+0x16c>
 80042d4:	2b50      	cmp	r3, #80	; 0x50
 80042d6:	d03c      	beq.n	8004352 <HAL_TIM_ConfigClockSource+0xfa>
 80042d8:	2b50      	cmp	r3, #80	; 0x50
 80042da:	d873      	bhi.n	80043c4 <HAL_TIM_ConfigClockSource+0x16c>
 80042dc:	2b40      	cmp	r3, #64	; 0x40
 80042de:	d058      	beq.n	8004392 <HAL_TIM_ConfigClockSource+0x13a>
 80042e0:	2b40      	cmp	r3, #64	; 0x40
 80042e2:	d86f      	bhi.n	80043c4 <HAL_TIM_ConfigClockSource+0x16c>
 80042e4:	2b30      	cmp	r3, #48	; 0x30
 80042e6:	d064      	beq.n	80043b2 <HAL_TIM_ConfigClockSource+0x15a>
 80042e8:	2b30      	cmp	r3, #48	; 0x30
 80042ea:	d86b      	bhi.n	80043c4 <HAL_TIM_ConfigClockSource+0x16c>
 80042ec:	2b20      	cmp	r3, #32
 80042ee:	d060      	beq.n	80043b2 <HAL_TIM_ConfigClockSource+0x15a>
 80042f0:	2b20      	cmp	r3, #32
 80042f2:	d867      	bhi.n	80043c4 <HAL_TIM_ConfigClockSource+0x16c>
 80042f4:	2b00      	cmp	r3, #0
 80042f6:	d05c      	beq.n	80043b2 <HAL_TIM_ConfigClockSource+0x15a>
 80042f8:	2b10      	cmp	r3, #16
 80042fa:	d05a      	beq.n	80043b2 <HAL_TIM_ConfigClockSource+0x15a>
 80042fc:	e062      	b.n	80043c4 <HAL_TIM_ConfigClockSource+0x16c>
      assert_param(IS_TIM_CLOCKPRESCALER(sClockSourceConfig->ClockPrescaler));
      assert_param(IS_TIM_CLOCKPOLARITY(sClockSourceConfig->ClockPolarity));
      assert_param(IS_TIM_CLOCKFILTER(sClockSourceConfig->ClockFilter));

      /* Configure the ETR Clock source */
      TIM_ETR_SetConfig(htim->Instance,
 80042fe:	687b      	ldr	r3, [r7, #4]
 8004300:	6818      	ldr	r0, [r3, #0]
 8004302:	683b      	ldr	r3, [r7, #0]
 8004304:	6899      	ldr	r1, [r3, #8]
 8004306:	683b      	ldr	r3, [r7, #0]
 8004308:	685a      	ldr	r2, [r3, #4]
 800430a:	683b      	ldr	r3, [r7, #0]
 800430c:	68db      	ldr	r3, [r3, #12]
 800430e:	f000 fcc1 	bl	8004c94 <TIM_ETR_SetConfig>
                        sClockSourceConfig->ClockPrescaler,
                        sClockSourceConfig->ClockPolarity,
                        sClockSourceConfig->ClockFilter);

      /* Select the External clock mode1 and the ETRF trigger */
      tmpsmcr = htim->Instance->SMCR;
 8004312:	687b      	ldr	r3, [r7, #4]
 8004314:	681b      	ldr	r3, [r3, #0]
 8004316:	689b      	ldr	r3, [r3, #8]
 8004318:	60bb      	str	r3, [r7, #8]
      tmpsmcr |= (TIM_SLAVEMODE_EXTERNAL1 | TIM_CLOCKSOURCE_ETRMODE1);
 800431a:	68bb      	ldr	r3, [r7, #8]
 800431c:	f043 0377 	orr.w	r3, r3, #119	; 0x77
 8004320:	60bb      	str	r3, [r7, #8]
      /* Write to TIMx SMCR */
      htim->Instance->SMCR = tmpsmcr;
 8004322:	687b      	ldr	r3, [r7, #4]
 8004324:	681b      	ldr	r3, [r3, #0]
 8004326:	68ba      	ldr	r2, [r7, #8]
 8004328:	609a      	str	r2, [r3, #8]
      break;
 800432a:	e04f      	b.n	80043cc <HAL_TIM_ConfigClockSource+0x174>
      assert_param(IS_TIM_CLOCKPRESCALER(sClockSourceConfig->ClockPrescaler));
      assert_param(IS_TIM_CLOCKPOLARITY(sClockSourceConfig->ClockPolarity));
      assert_param(IS_TIM_CLOCKFILTER(sClockSourceConfig->ClockFilter));

      /* Configure the ETR Clock source */
      TIM_ETR_SetConfig(htim->Instance,
 800432c:	687b      	ldr	r3, [r7, #4]
 800432e:	6818      	ldr	r0, [r3, #0]
 8004330:	683b      	ldr	r3, [r7, #0]
 8004332:	6899      	ldr	r1, [r3, #8]
 8004334:	683b      	ldr	r3, [r7, #0]
 8004336:	685a      	ldr	r2, [r3, #4]
 8004338:	683b      	ldr	r3, [r7, #0]
 800433a:	68db      	ldr	r3, [r3, #12]
 800433c:	f000 fcaa 	bl	8004c94 <TIM_ETR_SetConfig>
                        sClockSourceConfig->ClockPrescaler,
                        sClockSourceConfig->ClockPolarity,
                        sClockSourceConfig->ClockFilter);
      /* Enable the External clock mode2 */
      htim->Instance->SMCR |= TIM_SMCR_ECE;
 8004340:	687b      	ldr	r3, [r7, #4]
 8004342:	681b      	ldr	r3, [r3, #0]
 8004344:	689a      	ldr	r2, [r3, #8]
 8004346:	687b      	ldr	r3, [r7, #4]
 8004348:	681b      	ldr	r3, [r3, #0]
 800434a:	f442 4280 	orr.w	r2, r2, #16384	; 0x4000
 800434e:	609a      	str	r2, [r3, #8]
      break;
 8004350:	e03c      	b.n	80043cc <HAL_TIM_ConfigClockSource+0x174>

      /* Check TI1 input conditioning related parameters */
      assert_param(IS_TIM_CLOCKPOLARITY(sClockSourceConfig->ClockPolarity));
      assert_param(IS_TIM_CLOCKFILTER(sClockSourceConfig->ClockFilter));

      TIM_TI1_ConfigInputStage(htim->Instance,
 8004352:	687b      	ldr	r3, [r7, #4]
 8004354:	6818      	ldr	r0, [r3, #0]
 8004356:	683b      	ldr	r3, [r7, #0]
 8004358:	6859      	ldr	r1, [r3, #4]
 800435a:	683b      	ldr	r3, [r7, #0]
 800435c:	68db      	ldr	r3, [r3, #12]
 800435e:	461a      	mov	r2, r3
 8004360:	f000 fb68 	bl	8004a34 <TIM_TI1_ConfigInputStage>
                               sClockSourceConfig->ClockPolarity,
                               sClockSourceConfig->ClockFilter);
      TIM_ITRx_SetConfig(htim->Instance, TIM_CLOCKSOURCE_TI1);
 8004364:	687b      	ldr	r3, [r7, #4]
 8004366:	681b      	ldr	r3, [r3, #0]
 8004368:	2150      	movs	r1, #80	; 0x50
 800436a:	4618      	mov	r0, r3
 800436c:	f000 fc77 	bl	8004c5e <TIM_ITRx_SetConfig>
      break;
 8004370:	e02c      	b.n	80043cc <HAL_TIM_ConfigClockSource+0x174>

      /* Check TI2 input conditioning related parameters */
      assert_param(IS_TIM_CLOCKPOLARITY(sClockSourceConfig->ClockPolarity));
      assert_param(IS_TIM_CLOCKFILTER(sClockSourceConfig->ClockFilter));

      TIM_TI2_ConfigInputStage(htim->Instance,
 8004372:	687b      	ldr	r3, [r7, #4]
 8004374:	6818      	ldr	r0, [r3, #0]
 8004376:	683b      	ldr	r3, [r7, #0]
 8004378:	6859      	ldr	r1, [r3, #4]
 800437a:	683b      	ldr	r3, [r7, #0]
 800437c:	68db      	ldr	r3, [r3, #12]
 800437e:	461a      	mov	r2, r3
 8004380:	f000 fbc4 	bl	8004b0c <TIM_TI2_ConfigInputStage>
                               sClockSourceConfig->ClockPolarity,
                               sClockSourceConfig->ClockFilter);
      TIM_ITRx_SetConfig(htim->Instance, TIM_CLOCKSOURCE_TI2);
 8004384:	687b      	ldr	r3, [r7, #4]
 8004386:	681b      	ldr	r3, [r3, #0]
 8004388:	2160      	movs	r1, #96	; 0x60
 800438a:	4618      	mov	r0, r3
 800438c:	f000 fc67 	bl	8004c5e <TIM_ITRx_SetConfig>
      break;
 8004390:	e01c      	b.n	80043cc <HAL_TIM_ConfigClockSource+0x174>

      /* Check TI1 input conditioning related parameters */
      assert_param(IS_TIM_CLOCKPOLARITY(sClockSourceConfig->ClockPolarity));
      assert_param(IS_TIM_CLOCKFILTER(sClockSourceConfig->ClockFilter));

      TIM_TI1_ConfigInputStage(htim->Instance,
 8004392:	687b      	ldr	r3, [r7, #4]
 8004394:	6818      	ldr	r0, [r3, #0]
 8004396:	683b      	ldr	r3, [r7, #0]
 8004398:	6859      	ldr	r1, [r3, #4]
 800439a:	683b      	ldr	r3, [r7, #0]
 800439c:	68db      	ldr	r3, [r3, #12]
 800439e:	461a      	mov	r2, r3
 80043a0:	f000 fb48 	bl	8004a34 <TIM_TI1_ConfigInputStage>
                               sClockSourceConfig->ClockPolarity,
                               sClockSourceConfig->ClockFilter);
      TIM_ITRx_SetConfig(htim->Instance, TIM_CLOCKSOURCE_TI1ED);
 80043a4:	687b      	ldr	r3, [r7, #4]
 80043a6:	681b      	ldr	r3, [r3, #0]
 80043a8:	2140      	movs	r1, #64	; 0x40
 80043aa:	4618      	mov	r0, r3
 80043ac:	f000 fc57 	bl	8004c5e <TIM_ITRx_SetConfig>
      break;
 80043b0:	e00c      	b.n	80043cc <HAL_TIM_ConfigClockSource+0x174>
    case TIM_CLOCKSOURCE_ITR3:
    {
      /* Check whether or not the timer instance supports internal trigger input */
      assert_param(IS_TIM_CLOCKSOURCE_ITRX_INSTANCE(htim->Instance));

      TIM_ITRx_SetConfig(htim->Instance, sClockSourceConfig->ClockSource);
 80043b2:	687b      	ldr	r3, [r7, #4]
 80043b4:	681a      	ldr	r2, [r3, #0]
 80043b6:	683b      	ldr	r3, [r7, #0]
 80043b8:	681b      	ldr	r3, [r3, #0]
 80043ba:	4619      	mov	r1, r3
 80043bc:	4610      	mov	r0, r2
 80043be:	f000 fc4e 	bl	8004c5e <TIM_ITRx_SetConfig>
      break;
 80043c2:	e003      	b.n	80043cc <HAL_TIM_ConfigClockSource+0x174>
    }

    default:
      status = HAL_ERROR;
 80043c4:	2301      	movs	r3, #1
 80043c6:	73fb      	strb	r3, [r7, #15]
      break;
 80043c8:	e000      	b.n	80043cc <HAL_TIM_ConfigClockSource+0x174>
      break;
 80043ca:	bf00      	nop
  }
  htim->State = HAL_TIM_STATE_READY;
 80043cc:	687b      	ldr	r3, [r7, #4]
 80043ce:	2201      	movs	r2, #1
 80043d0:	f883 203d 	strb.w	r2, [r3, #61]	; 0x3d

  __HAL_UNLOCK(htim);
 80043d4:	687b      	ldr	r3, [r7, #4]
 80043d6:	2200      	movs	r2, #0
 80043d8:	f883 203c 	strb.w	r2, [r3, #60]	; 0x3c

  return status;
 80043dc:	7bfb      	ldrb	r3, [r7, #15]
}
 80043de:	4618      	mov	r0, r3
 80043e0:	3710      	adds	r7, #16
 80043e2:	46bd      	mov	sp, r7
 80043e4:	bd80      	pop	{r7, pc}
	...

080043e8 <HAL_TIM_ReadCapturedValue>:
  *            @arg TIM_CHANNEL_3: TIM Channel 3 selected
  *            @arg TIM_CHANNEL_4: TIM Channel 4 selected
  * @retval Captured value
  */
uint32_t HAL_TIM_ReadCapturedValue(TIM_HandleTypeDef *htim, uint32_t Channel)
{
 80043e8:	b480      	push	{r7}
 80043ea:	b085      	sub	sp, #20
 80043ec:	af00      	add	r7, sp, #0
 80043ee:	6078      	str	r0, [r7, #4]
 80043f0:	6039      	str	r1, [r7, #0]
  uint32_t tmpreg = 0U;
 80043f2:	2300      	movs	r3, #0
 80043f4:	60fb      	str	r3, [r7, #12]
 80043f6:	683b      	ldr	r3, [r7, #0]
 80043f8:	2b0c      	cmp	r3, #12
 80043fa:	d831      	bhi.n	8004460 <HAL_TIM_ReadCapturedValue+0x78>
 80043fc:	a201      	add	r2, pc, #4	; (adr r2, 8004404 <HAL_TIM_ReadCapturedValue+0x1c>)
 80043fe:	f852 f023 	ldr.w	pc, [r2, r3, lsl #2]
 8004402:	bf00      	nop
 8004404:	08004439 	.word	0x08004439
 8004408:	08004461 	.word	0x08004461
 800440c:	08004461 	.word	0x08004461
 8004410:	08004461 	.word	0x08004461
 8004414:	08004443 	.word	0x08004443
 8004418:	08004461 	.word	0x08004461
 800441c:	08004461 	.word	0x08004461
 8004420:	08004461 	.word	0x08004461
 8004424:	0800444d 	.word	0x0800444d
 8004428:	08004461 	.word	0x08004461
 800442c:	08004461 	.word	0x08004461
 8004430:	08004461 	.word	0x08004461
 8004434:	08004457 	.word	0x08004457
    {
      /* Check the parameters */
      assert_param(IS_TIM_CC1_INSTANCE(htim->Instance));

      /* Return the capture 1 value */
      tmpreg =  htim->Instance->CCR1;
 8004438:	687b      	ldr	r3, [r7, #4]
 800443a:	681b      	ldr	r3, [r3, #0]
 800443c:	6b5b      	ldr	r3, [r3, #52]	; 0x34
 800443e:	60fb      	str	r3, [r7, #12]

      break;
 8004440:	e00f      	b.n	8004462 <HAL_TIM_ReadCapturedValue+0x7a>
    {
      /* Check the parameters */
      assert_param(IS_TIM_CC2_INSTANCE(htim->Instance));

      /* Return the capture 2 value */
      tmpreg =   htim->Instance->CCR2;
 8004442:	687b      	ldr	r3, [r7, #4]
 8004444:	681b      	ldr	r3, [r3, #0]
 8004446:	6b9b      	ldr	r3, [r3, #56]	; 0x38
 8004448:	60fb      	str	r3, [r7, #12]

      break;
 800444a:	e00a      	b.n	8004462 <HAL_TIM_ReadCapturedValue+0x7a>
    {
      /* Check the parameters */
      assert_param(IS_TIM_CC3_INSTANCE(htim->Instance));

      /* Return the capture 3 value */
      tmpreg =   htim->Instance->CCR3;
 800444c:	687b      	ldr	r3, [r7, #4]
 800444e:	681b      	ldr	r3, [r3, #0]
 8004450:	6bdb      	ldr	r3, [r3, #60]	; 0x3c
 8004452:	60fb      	str	r3, [r7, #12]

      break;
 8004454:	e005      	b.n	8004462 <HAL_TIM_ReadCapturedValue+0x7a>
    {
      /* Check the parameters */
      assert_param(IS_TIM_CC4_INSTANCE(htim->Instance));

      /* Return the capture 4 value */
      tmpreg =   htim->Instance->CCR4;
 8004456:	687b      	ldr	r3, [r7, #4]
 8004458:	681b      	ldr	r3, [r3, #0]
 800445a:	6c1b      	ldr	r3, [r3, #64]	; 0x40
 800445c:	60fb      	str	r3, [r7, #12]

      break;
 800445e:	e000      	b.n	8004462 <HAL_TIM_ReadCapturedValue+0x7a>
    }

    default:
      break;
 8004460:	bf00      	nop
  }

  return tmpreg;
 8004462:	68fb      	ldr	r3, [r7, #12]
}
 8004464:	4618      	mov	r0, r3
 8004466:	3714      	adds	r7, #20
 8004468:	46bd      	mov	sp, r7
 800446a:	f85d 7b04 	ldr.w	r7, [sp], #4
 800446e:	4770      	bx	lr

08004470 <HAL_TIM_OC_DelayElapsedCallback>:
  * @brief  Output Compare callback in non-blocking mode
  * @param  htim TIM OC handle
  * @retval None
  */
__weak void HAL_TIM_OC_DelayElapsedCallback(TIM_HandleTypeDef *htim)
{
 8004470:	b480      	push	{r7}
 8004472:	b083      	sub	sp, #12
 8004474:	af00      	add	r7, sp, #0
 8004476:	6078      	str	r0, [r7, #4]
  UNUSED(htim);

  /* NOTE : This function should not be modified, when the callback is needed,
            the HAL_TIM_OC_DelayElapsedCallback could be implemented in the user file
   */
}
 8004478:	bf00      	nop
 800447a:	370c      	adds	r7, #12
 800447c:	46bd      	mov	sp, r7
 800447e:	f85d 7b04 	ldr.w	r7, [sp], #4
 8004482:	4770      	bx	lr

08004484 <HAL_TIM_PWM_PulseFinishedCallback>:
  * @brief  PWM Pulse finished callback in non-blocking mode
  * @param  htim TIM handle
  * @retval None
  */
__weak void HAL_TIM_PWM_PulseFinishedCallback(TIM_HandleTypeDef *htim)
{
 8004484:	b480      	push	{r7}
 8004486:	b083      	sub	sp, #12
 8004488:	af00      	add	r7, sp, #0
 800448a:	6078      	str	r0, [r7, #4]
  UNUSED(htim);

  /* NOTE : This function should not be modified, when the callback is needed,
            the HAL_TIM_PWM_PulseFinishedCallback could be implemented in the user file
   */
}
 800448c:	bf00      	nop
 800448e:	370c      	adds	r7, #12
 8004490:	46bd      	mov	sp, r7
 8004492:	f85d 7b04 	ldr.w	r7, [sp], #4
 8004496:	4770      	bx	lr

08004498 <HAL_TIM_TriggerCallback>:
  * @brief  Hall Trigger detection callback in non-blocking mode
  * @param  htim TIM handle
  * @retval None
  */
__weak void HAL_TIM_TriggerCallback(TIM_HandleTypeDef *htim)
{
 8004498:	b480      	push	{r7}
 800449a:	b083      	sub	sp, #12
 800449c:	af00      	add	r7, sp, #0
 800449e:	6078      	str	r0, [r7, #4]
  UNUSED(htim);

  /* NOTE : This function should not be modified, when the callback is needed,
            the HAL_TIM_TriggerCallback could be implemented in the user file
   */
}
 80044a0:	bf00      	nop
 80044a2:	370c      	adds	r7, #12
 80044a4:	46bd      	mov	sp, r7
 80044a6:	f85d 7b04 	ldr.w	r7, [sp], #4
 80044aa:	4770      	bx	lr

080044ac <TIM_Base_SetConfig>:
  * @param  TIMx TIM peripheral
  * @param  Structure TIM Base configuration structure
  * @retval None
  */
void TIM_Base_SetConfig(TIM_TypeDef *TIMx, TIM_Base_InitTypeDef *Structure)
{
 80044ac:	b480      	push	{r7}
 80044ae:	b085      	sub	sp, #20
 80044b0:	af00      	add	r7, sp, #0
 80044b2:	6078      	str	r0, [r7, #4]
 80044b4:	6039      	str	r1, [r7, #0]
  uint32_t tmpcr1;
  tmpcr1 = TIMx->CR1;
 80044b6:	687b      	ldr	r3, [r7, #4]
 80044b8:	681b      	ldr	r3, [r3, #0]
 80044ba:	60fb      	str	r3, [r7, #12]

  /* Set TIM Time Base Unit parameters ---------------------------------------*/
  if (IS_TIM_COUNTER_MODE_SELECT_INSTANCE(TIMx))
 80044bc:	687b      	ldr	r3, [r7, #4]
 80044be:	4a40      	ldr	r2, [pc, #256]	; (80045c0 <TIM_Base_SetConfig+0x114>)
 80044c0:	4293      	cmp	r3, r2
 80044c2:	d013      	beq.n	80044ec <TIM_Base_SetConfig+0x40>
 80044c4:	687b      	ldr	r3, [r7, #4]
 80044c6:	f1b3 4f80 	cmp.w	r3, #1073741824	; 0x40000000
 80044ca:	d00f      	beq.n	80044ec <TIM_Base_SetConfig+0x40>
 80044cc:	687b      	ldr	r3, [r7, #4]
 80044ce:	4a3d      	ldr	r2, [pc, #244]	; (80045c4 <TIM_Base_SetConfig+0x118>)
 80044d0:	4293      	cmp	r3, r2
 80044d2:	d00b      	beq.n	80044ec <TIM_Base_SetConfig+0x40>
 80044d4:	687b      	ldr	r3, [r7, #4]
 80044d6:	4a3c      	ldr	r2, [pc, #240]	; (80045c8 <TIM_Base_SetConfig+0x11c>)
 80044d8:	4293      	cmp	r3, r2
 80044da:	d007      	beq.n	80044ec <TIM_Base_SetConfig+0x40>
 80044dc:	687b      	ldr	r3, [r7, #4]
 80044de:	4a3b      	ldr	r2, [pc, #236]	; (80045cc <TIM_Base_SetConfig+0x120>)
 80044e0:	4293      	cmp	r3, r2
 80044e2:	d003      	beq.n	80044ec <TIM_Base_SetConfig+0x40>
 80044e4:	687b      	ldr	r3, [r7, #4]
 80044e6:	4a3a      	ldr	r2, [pc, #232]	; (80045d0 <TIM_Base_SetConfig+0x124>)
 80044e8:	4293      	cmp	r3, r2
 80044ea:	d108      	bne.n	80044fe <TIM_Base_SetConfig+0x52>
  {
    /* Select the Counter Mode */
    tmpcr1 &= ~(TIM_CR1_DIR | TIM_CR1_CMS);
 80044ec:	68fb      	ldr	r3, [r7, #12]
 80044ee:	f023 0370 	bic.w	r3, r3, #112	; 0x70
 80044f2:	60fb      	str	r3, [r7, #12]
    tmpcr1 |= Structure->CounterMode;
 80044f4:	683b      	ldr	r3, [r7, #0]
 80044f6:	685b      	ldr	r3, [r3, #4]
 80044f8:	68fa      	ldr	r2, [r7, #12]
 80044fa:	4313      	orrs	r3, r2
 80044fc:	60fb      	str	r3, [r7, #12]
  }

  if (IS_TIM_CLOCK_DIVISION_INSTANCE(TIMx))
 80044fe:	687b      	ldr	r3, [r7, #4]
 8004500:	4a2f      	ldr	r2, [pc, #188]	; (80045c0 <TIM_Base_SetConfig+0x114>)
 8004502:	4293      	cmp	r3, r2
 8004504:	d02b      	beq.n	800455e <TIM_Base_SetConfig+0xb2>
 8004506:	687b      	ldr	r3, [r7, #4]
 8004508:	f1b3 4f80 	cmp.w	r3, #1073741824	; 0x40000000
 800450c:	d027      	beq.n	800455e <TIM_Base_SetConfig+0xb2>
 800450e:	687b      	ldr	r3, [r7, #4]
 8004510:	4a2c      	ldr	r2, [pc, #176]	; (80045c4 <TIM_Base_SetConfig+0x118>)
 8004512:	4293      	cmp	r3, r2
 8004514:	d023      	beq.n	800455e <TIM_Base_SetConfig+0xb2>
 8004516:	687b      	ldr	r3, [r7, #4]
 8004518:	4a2b      	ldr	r2, [pc, #172]	; (80045c8 <TIM_Base_SetConfig+0x11c>)
 800451a:	4293      	cmp	r3, r2
 800451c:	d01f      	beq.n	800455e <TIM_Base_SetConfig+0xb2>
 800451e:	687b      	ldr	r3, [r7, #4]
 8004520:	4a2a      	ldr	r2, [pc, #168]	; (80045cc <TIM_Base_SetConfig+0x120>)
 8004522:	4293      	cmp	r3, r2
 8004524:	d01b      	beq.n	800455e <TIM_Base_SetConfig+0xb2>
 8004526:	687b      	ldr	r3, [r7, #4]
 8004528:	4a29      	ldr	r2, [pc, #164]	; (80045d0 <TIM_Base_SetConfig+0x124>)
 800452a:	4293      	cmp	r3, r2
 800452c:	d017      	beq.n	800455e <TIM_Base_SetConfig+0xb2>
 800452e:	687b      	ldr	r3, [r7, #4]
 8004530:	4a28      	ldr	r2, [pc, #160]	; (80045d4 <TIM_Base_SetConfig+0x128>)
 8004532:	4293      	cmp	r3, r2
 8004534:	d013      	beq.n	800455e <TIM_Base_SetConfig+0xb2>
 8004536:	687b      	ldr	r3, [r7, #4]
 8004538:	4a27      	ldr	r2, [pc, #156]	; (80045d8 <TIM_Base_SetConfig+0x12c>)
 800453a:	4293      	cmp	r3, r2
 800453c:	d00f      	beq.n	800455e <TIM_Base_SetConfig+0xb2>
 800453e:	687b      	ldr	r3, [r7, #4]
 8004540:	4a26      	ldr	r2, [pc, #152]	; (80045dc <TIM_Base_SetConfig+0x130>)
 8004542:	4293      	cmp	r3, r2
 8004544:	d00b      	beq.n	800455e <TIM_Base_SetConfig+0xb2>
 8004546:	687b      	ldr	r3, [r7, #4]
 8004548:	4a25      	ldr	r2, [pc, #148]	; (80045e0 <TIM_Base_SetConfig+0x134>)
 800454a:	4293      	cmp	r3, r2
 800454c:	d007      	beq.n	800455e <TIM_Base_SetConfig+0xb2>
 800454e:	687b      	ldr	r3, [r7, #4]
 8004550:	4a24      	ldr	r2, [pc, #144]	; (80045e4 <TIM_Base_SetConfig+0x138>)
 8004552:	4293      	cmp	r3, r2
 8004554:	d003      	beq.n	800455e <TIM_Base_SetConfig+0xb2>
 8004556:	687b      	ldr	r3, [r7, #4]
 8004558:	4a23      	ldr	r2, [pc, #140]	; (80045e8 <TIM_Base_SetConfig+0x13c>)
 800455a:	4293      	cmp	r3, r2
 800455c:	d108      	bne.n	8004570 <TIM_Base_SetConfig+0xc4>
  {
    /* Set the clock division */
    tmpcr1 &= ~TIM_CR1_CKD;
 800455e:	68fb      	ldr	r3, [r7, #12]
 8004560:	f423 7340 	bic.w	r3, r3, #768	; 0x300
 8004564:	60fb      	str	r3, [r7, #12]
    tmpcr1 |= (uint32_t)Structure->ClockDivision;
 8004566:	683b      	ldr	r3, [r7, #0]
 8004568:	68db      	ldr	r3, [r3, #12]
 800456a:	68fa      	ldr	r2, [r7, #12]
 800456c:	4313      	orrs	r3, r2
 800456e:	60fb      	str	r3, [r7, #12]
  }

  /* Set the auto-reload preload */
  MODIFY_REG(tmpcr1, TIM_CR1_ARPE, Structure->AutoReloadPreload);
 8004570:	68fb      	ldr	r3, [r7, #12]
 8004572:	f023 0280 	bic.w	r2, r3, #128	; 0x80
 8004576:	683b      	ldr	r3, [r7, #0]
 8004578:	695b      	ldr	r3, [r3, #20]
 800457a:	4313      	orrs	r3, r2
 800457c:	60fb      	str	r3, [r7, #12]

  TIMx->CR1 = tmpcr1;
 800457e:	687b      	ldr	r3, [r7, #4]
 8004580:	68fa      	ldr	r2, [r7, #12]
 8004582:	601a      	str	r2, [r3, #0]

  /* Set the Autoreload value */
  TIMx->ARR = (uint32_t)Structure->Period ;
 8004584:	683b      	ldr	r3, [r7, #0]
 8004586:	689a      	ldr	r2, [r3, #8]
 8004588:	687b      	ldr	r3, [r7, #4]
 800458a:	62da      	str	r2, [r3, #44]	; 0x2c

  /* Set the Prescaler value */
  TIMx->PSC = Structure->Prescaler;
 800458c:	683b      	ldr	r3, [r7, #0]
 800458e:	681a      	ldr	r2, [r3, #0]
 8004590:	687b      	ldr	r3, [r7, #4]
 8004592:	629a      	str	r2, [r3, #40]	; 0x28

  if (IS_TIM_REPETITION_COUNTER_INSTANCE(TIMx))
 8004594:	687b      	ldr	r3, [r7, #4]
 8004596:	4a0a      	ldr	r2, [pc, #40]	; (80045c0 <TIM_Base_SetConfig+0x114>)
 8004598:	4293      	cmp	r3, r2
 800459a:	d003      	beq.n	80045a4 <TIM_Base_SetConfig+0xf8>
 800459c:	687b      	ldr	r3, [r7, #4]
 800459e:	4a0c      	ldr	r2, [pc, #48]	; (80045d0 <TIM_Base_SetConfig+0x124>)
 80045a0:	4293      	cmp	r3, r2
 80045a2:	d103      	bne.n	80045ac <TIM_Base_SetConfig+0x100>
  {
    /* Set the Repetition Counter value */
    TIMx->RCR = Structure->RepetitionCounter;
 80045a4:	683b      	ldr	r3, [r7, #0]
 80045a6:	691a      	ldr	r2, [r3, #16]
 80045a8:	687b      	ldr	r3, [r7, #4]
 80045aa:	631a      	str	r2, [r3, #48]	; 0x30
  }

  /* Generate an update event to reload the Prescaler
     and the repetition counter (only for advanced timer) value immediately */
  TIMx->EGR = TIM_EGR_UG;
 80045ac:	687b      	ldr	r3, [r7, #4]
 80045ae:	2201      	movs	r2, #1
 80045b0:	615a      	str	r2, [r3, #20]
}
 80045b2:	bf00      	nop
 80045b4:	3714      	adds	r7, #20
 80045b6:	46bd      	mov	sp, r7
 80045b8:	f85d 7b04 	ldr.w	r7, [sp], #4
 80045bc:	4770      	bx	lr
 80045be:	bf00      	nop
 80045c0:	40010000 	.word	0x40010000
 80045c4:	40000400 	.word	0x40000400
 80045c8:	40000800 	.word	0x40000800
 80045cc:	40000c00 	.word	0x40000c00
 80045d0:	40010400 	.word	0x40010400
 80045d4:	40014000 	.word	0x40014000
 80045d8:	40014400 	.word	0x40014400
 80045dc:	40014800 	.word	0x40014800
 80045e0:	40001800 	.word	0x40001800
 80045e4:	40001c00 	.word	0x40001c00
 80045e8:	40002000 	.word	0x40002000

080045ec <TIM_OC1_SetConfig>:
  * @param  TIMx to select the TIM peripheral
  * @param  OC_Config The output configuration structure
  * @retval None
  */
static void TIM_OC1_SetConfig(TIM_TypeDef *TIMx, TIM_OC_InitTypeDef *OC_Config)
{
 80045ec:	b480      	push	{r7}
 80045ee:	b087      	sub	sp, #28
 80045f0:	af00      	add	r7, sp, #0
 80045f2:	6078      	str	r0, [r7, #4]
 80045f4:	6039      	str	r1, [r7, #0]
  uint32_t tmpccmrx;
  uint32_t tmpccer;
  uint32_t tmpcr2;

  /* Disable the Channel 1: Reset the CC1E Bit */
  TIMx->CCER &= ~TIM_CCER_CC1E;
 80045f6:	687b      	ldr	r3, [r7, #4]
 80045f8:	6a1b      	ldr	r3, [r3, #32]
 80045fa:	f023 0201 	bic.w	r2, r3, #1
 80045fe:	687b      	ldr	r3, [r7, #4]
 8004600:	621a      	str	r2, [r3, #32]

  /* Get the TIMx CCER register value */
  tmpccer = TIMx->CCER;
 8004602:	687b      	ldr	r3, [r7, #4]
 8004604:	6a1b      	ldr	r3, [r3, #32]
 8004606:	617b      	str	r3, [r7, #20]
  /* Get the TIMx CR2 register value */
  tmpcr2 =  TIMx->CR2;
 8004608:	687b      	ldr	r3, [r7, #4]
 800460a:	685b      	ldr	r3, [r3, #4]
 800460c:	613b      	str	r3, [r7, #16]

  /* Get the TIMx CCMR1 register value */
  tmpccmrx = TIMx->CCMR1;
 800460e:	687b      	ldr	r3, [r7, #4]
 8004610:	699b      	ldr	r3, [r3, #24]
 8004612:	60fb      	str	r3, [r7, #12]

  /* Reset the Output Compare Mode Bits */
  tmpccmrx &= ~TIM_CCMR1_OC1M;
 8004614:	68fb      	ldr	r3, [r7, #12]
 8004616:	f023 0370 	bic.w	r3, r3, #112	; 0x70
 800461a:	60fb      	str	r3, [r7, #12]
  tmpccmrx &= ~TIM_CCMR1_CC1S;
 800461c:	68fb      	ldr	r3, [r7, #12]
 800461e:	f023 0303 	bic.w	r3, r3, #3
 8004622:	60fb      	str	r3, [r7, #12]
  /* Select the Output Compare Mode */
  tmpccmrx |= OC_Config->OCMode;
 8004624:	683b      	ldr	r3, [r7, #0]
 8004626:	681b      	ldr	r3, [r3, #0]
 8004628:	68fa      	ldr	r2, [r7, #12]
 800462a:	4313      	orrs	r3, r2
 800462c:	60fb      	str	r3, [r7, #12]

  /* Reset the Output Polarity level */
  tmpccer &= ~TIM_CCER_CC1P;
 800462e:	697b      	ldr	r3, [r7, #20]
 8004630:	f023 0302 	bic.w	r3, r3, #2
 8004634:	617b      	str	r3, [r7, #20]
  /* Set the Output Compare Polarity */
  tmpccer |= OC_Config->OCPolarity;
 8004636:	683b      	ldr	r3, [r7, #0]
 8004638:	689b      	ldr	r3, [r3, #8]
 800463a:	697a      	ldr	r2, [r7, #20]
 800463c:	4313      	orrs	r3, r2
 800463e:	617b      	str	r3, [r7, #20]

  if (IS_TIM_CCXN_INSTANCE(TIMx, TIM_CHANNEL_1))
 8004640:	687b      	ldr	r3, [r7, #4]
 8004642:	4a20      	ldr	r2, [pc, #128]	; (80046c4 <TIM_OC1_SetConfig+0xd8>)
 8004644:	4293      	cmp	r3, r2
 8004646:	d003      	beq.n	8004650 <TIM_OC1_SetConfig+0x64>
 8004648:	687b      	ldr	r3, [r7, #4]
 800464a:	4a1f      	ldr	r2, [pc, #124]	; (80046c8 <TIM_OC1_SetConfig+0xdc>)
 800464c:	4293      	cmp	r3, r2
 800464e:	d10c      	bne.n	800466a <TIM_OC1_SetConfig+0x7e>
  {
    /* Check parameters */
    assert_param(IS_TIM_OCN_POLARITY(OC_Config->OCNPolarity));

    /* Reset the Output N Polarity level */
    tmpccer &= ~TIM_CCER_CC1NP;
 8004650:	697b      	ldr	r3, [r7, #20]
 8004652:	f023 0308 	bic.w	r3, r3, #8
 8004656:	617b      	str	r3, [r7, #20]
    /* Set the Output N Polarity */
    tmpccer |= OC_Config->OCNPolarity;
 8004658:	683b      	ldr	r3, [r7, #0]
 800465a:	68db      	ldr	r3, [r3, #12]
 800465c:	697a      	ldr	r2, [r7, #20]
 800465e:	4313      	orrs	r3, r2
 8004660:	617b      	str	r3, [r7, #20]
    /* Reset the Output N State */
    tmpccer &= ~TIM_CCER_CC1NE;
 8004662:	697b      	ldr	r3, [r7, #20]
 8004664:	f023 0304 	bic.w	r3, r3, #4
 8004668:	617b      	str	r3, [r7, #20]
  }

  if (IS_TIM_BREAK_INSTANCE(TIMx))
 800466a:	687b      	ldr	r3, [r7, #4]
 800466c:	4a15      	ldr	r2, [pc, #84]	; (80046c4 <TIM_OC1_SetConfig+0xd8>)
 800466e:	4293      	cmp	r3, r2
 8004670:	d003      	beq.n	800467a <TIM_OC1_SetConfig+0x8e>
 8004672:	687b      	ldr	r3, [r7, #4]
 8004674:	4a14      	ldr	r2, [pc, #80]	; (80046c8 <TIM_OC1_SetConfig+0xdc>)
 8004676:	4293      	cmp	r3, r2
 8004678:	d111      	bne.n	800469e <TIM_OC1_SetConfig+0xb2>
    /* Check parameters */
    assert_param(IS_TIM_OCNIDLE_STATE(OC_Config->OCNIdleState));
    assert_param(IS_TIM_OCIDLE_STATE(OC_Config->OCIdleState));

    /* Reset the Output Compare and Output Compare N IDLE State */
    tmpcr2 &= ~TIM_CR2_OIS1;
 800467a:	693b      	ldr	r3, [r7, #16]
 800467c:	f423 7380 	bic.w	r3, r3, #256	; 0x100
 8004680:	613b      	str	r3, [r7, #16]
    tmpcr2 &= ~TIM_CR2_OIS1N;
 8004682:	693b      	ldr	r3, [r7, #16]
 8004684:	f423 7300 	bic.w	r3, r3, #512	; 0x200
 8004688:	613b      	str	r3, [r7, #16]
    /* Set the Output Idle state */
    tmpcr2 |= OC_Config->OCIdleState;
 800468a:	683b      	ldr	r3, [r7, #0]
 800468c:	695b      	ldr	r3, [r3, #20]
 800468e:	693a      	ldr	r2, [r7, #16]
 8004690:	4313      	orrs	r3, r2
 8004692:	613b      	str	r3, [r7, #16]
    /* Set the Output N Idle state */
    tmpcr2 |= OC_Config->OCNIdleState;
 8004694:	683b      	ldr	r3, [r7, #0]
 8004696:	699b      	ldr	r3, [r3, #24]
 8004698:	693a      	ldr	r2, [r7, #16]
 800469a:	4313      	orrs	r3, r2
 800469c:	613b      	str	r3, [r7, #16]
  }

  /* Write to TIMx CR2 */
  TIMx->CR2 = tmpcr2;
 800469e:	687b      	ldr	r3, [r7, #4]
 80046a0:	693a      	ldr	r2, [r7, #16]
 80046a2:	605a      	str	r2, [r3, #4]

  /* Write to TIMx CCMR1 */
  TIMx->CCMR1 = tmpccmrx;
 80046a4:	687b      	ldr	r3, [r7, #4]
 80046a6:	68fa      	ldr	r2, [r7, #12]
 80046a8:	619a      	str	r2, [r3, #24]

  /* Set the Capture Compare Register value */
  TIMx->CCR1 = OC_Config->Pulse;
 80046aa:	683b      	ldr	r3, [r7, #0]
 80046ac:	685a      	ldr	r2, [r3, #4]
 80046ae:	687b      	ldr	r3, [r7, #4]
 80046b0:	635a      	str	r2, [r3, #52]	; 0x34

  /* Write to TIMx CCER */
  TIMx->CCER = tmpccer;
 80046b2:	687b      	ldr	r3, [r7, #4]
 80046b4:	697a      	ldr	r2, [r7, #20]
 80046b6:	621a      	str	r2, [r3, #32]
}
 80046b8:	bf00      	nop
 80046ba:	371c      	adds	r7, #28
 80046bc:	46bd      	mov	sp, r7
 80046be:	f85d 7b04 	ldr.w	r7, [sp], #4
 80046c2:	4770      	bx	lr
 80046c4:	40010000 	.word	0x40010000
 80046c8:	40010400 	.word	0x40010400

080046cc <TIM_OC2_SetConfig>:
  * @param  TIMx to select the TIM peripheral
  * @param  OC_Config The output configuration structure
  * @retval None
  */
void TIM_OC2_SetConfig(TIM_TypeDef *TIMx, TIM_OC_InitTypeDef *OC_Config)
{
 80046cc:	b480      	push	{r7}
 80046ce:	b087      	sub	sp, #28
 80046d0:	af00      	add	r7, sp, #0
 80046d2:	6078      	str	r0, [r7, #4]
 80046d4:	6039      	str	r1, [r7, #0]
  uint32_t tmpccmrx;
  uint32_t tmpccer;
  uint32_t tmpcr2;

  /* Disable the Channel 2: Reset the CC2E Bit */
  TIMx->CCER &= ~TIM_CCER_CC2E;
 80046d6:	687b      	ldr	r3, [r7, #4]
 80046d8:	6a1b      	ldr	r3, [r3, #32]
 80046da:	f023 0210 	bic.w	r2, r3, #16
 80046de:	687b      	ldr	r3, [r7, #4]
 80046e0:	621a      	str	r2, [r3, #32]

  /* Get the TIMx CCER register value */
  tmpccer = TIMx->CCER;
 80046e2:	687b      	ldr	r3, [r7, #4]
 80046e4:	6a1b      	ldr	r3, [r3, #32]
 80046e6:	617b      	str	r3, [r7, #20]
  /* Get the TIMx CR2 register value */
  tmpcr2 =  TIMx->CR2;
 80046e8:	687b      	ldr	r3, [r7, #4]
 80046ea:	685b      	ldr	r3, [r3, #4]
 80046ec:	613b      	str	r3, [r7, #16]

  /* Get the TIMx CCMR1 register value */
  tmpccmrx = TIMx->CCMR1;
 80046ee:	687b      	ldr	r3, [r7, #4]
 80046f0:	699b      	ldr	r3, [r3, #24]
 80046f2:	60fb      	str	r3, [r7, #12]

  /* Reset the Output Compare mode and Capture/Compare selection Bits */
  tmpccmrx &= ~TIM_CCMR1_OC2M;
 80046f4:	68fb      	ldr	r3, [r7, #12]
 80046f6:	f423 43e0 	bic.w	r3, r3, #28672	; 0x7000
 80046fa:	60fb      	str	r3, [r7, #12]
  tmpccmrx &= ~TIM_CCMR1_CC2S;
 80046fc:	68fb      	ldr	r3, [r7, #12]
 80046fe:	f423 7340 	bic.w	r3, r3, #768	; 0x300
 8004702:	60fb      	str	r3, [r7, #12]

  /* Select the Output Compare Mode */
  tmpccmrx |= (OC_Config->OCMode << 8U);
 8004704:	683b      	ldr	r3, [r7, #0]
 8004706:	681b      	ldr	r3, [r3, #0]
 8004708:	021b      	lsls	r3, r3, #8
 800470a:	68fa      	ldr	r2, [r7, #12]
 800470c:	4313      	orrs	r3, r2
 800470e:	60fb      	str	r3, [r7, #12]

  /* Reset the Output Polarity level */
  tmpccer &= ~TIM_CCER_CC2P;
 8004710:	697b      	ldr	r3, [r7, #20]
 8004712:	f023 0320 	bic.w	r3, r3, #32
 8004716:	617b      	str	r3, [r7, #20]
  /* Set the Output Compare Polarity */
  tmpccer |= (OC_Config->OCPolarity << 4U);
 8004718:	683b      	ldr	r3, [r7, #0]
 800471a:	689b      	ldr	r3, [r3, #8]
 800471c:	011b      	lsls	r3, r3, #4
 800471e:	697a      	ldr	r2, [r7, #20]
 8004720:	4313      	orrs	r3, r2
 8004722:	617b      	str	r3, [r7, #20]

  if (IS_TIM_CCXN_INSTANCE(TIMx, TIM_CHANNEL_2))
 8004724:	687b      	ldr	r3, [r7, #4]
 8004726:	4a22      	ldr	r2, [pc, #136]	; (80047b0 <TIM_OC2_SetConfig+0xe4>)
 8004728:	4293      	cmp	r3, r2
 800472a:	d003      	beq.n	8004734 <TIM_OC2_SetConfig+0x68>
 800472c:	687b      	ldr	r3, [r7, #4]
 800472e:	4a21      	ldr	r2, [pc, #132]	; (80047b4 <TIM_OC2_SetConfig+0xe8>)
 8004730:	4293      	cmp	r3, r2
 8004732:	d10d      	bne.n	8004750 <TIM_OC2_SetConfig+0x84>
  {
    assert_param(IS_TIM_OCN_POLARITY(OC_Config->OCNPolarity));

    /* Reset the Output N Polarity level */
    tmpccer &= ~TIM_CCER_CC2NP;
 8004734:	697b      	ldr	r3, [r7, #20]
 8004736:	f023 0380 	bic.w	r3, r3, #128	; 0x80
 800473a:	617b      	str	r3, [r7, #20]
    /* Set the Output N Polarity */
    tmpccer |= (OC_Config->OCNPolarity << 4U);
 800473c:	683b      	ldr	r3, [r7, #0]
 800473e:	68db      	ldr	r3, [r3, #12]
 8004740:	011b      	lsls	r3, r3, #4
 8004742:	697a      	ldr	r2, [r7, #20]
 8004744:	4313      	orrs	r3, r2
 8004746:	617b      	str	r3, [r7, #20]
    /* Reset the Output N State */
    tmpccer &= ~TIM_CCER_CC2NE;
 8004748:	697b      	ldr	r3, [r7, #20]
 800474a:	f023 0340 	bic.w	r3, r3, #64	; 0x40
 800474e:	617b      	str	r3, [r7, #20]

  }

  if (IS_TIM_BREAK_INSTANCE(TIMx))
 8004750:	687b      	ldr	r3, [r7, #4]
 8004752:	4a17      	ldr	r2, [pc, #92]	; (80047b0 <TIM_OC2_SetConfig+0xe4>)
 8004754:	4293      	cmp	r3, r2
 8004756:	d003      	beq.n	8004760 <TIM_OC2_SetConfig+0x94>
 8004758:	687b      	ldr	r3, [r7, #4]
 800475a:	4a16      	ldr	r2, [pc, #88]	; (80047b4 <TIM_OC2_SetConfig+0xe8>)
 800475c:	4293      	cmp	r3, r2
 800475e:	d113      	bne.n	8004788 <TIM_OC2_SetConfig+0xbc>
    /* Check parameters */
    assert_param(IS_TIM_OCNIDLE_STATE(OC_Config->OCNIdleState));
    assert_param(IS_TIM_OCIDLE_STATE(OC_Config->OCIdleState));

    /* Reset the Output Compare and Output Compare N IDLE State */
    tmpcr2 &= ~TIM_CR2_OIS2;
 8004760:	693b      	ldr	r3, [r7, #16]
 8004762:	f423 6380 	bic.w	r3, r3, #1024	; 0x400
 8004766:	613b      	str	r3, [r7, #16]
    tmpcr2 &= ~TIM_CR2_OIS2N;
 8004768:	693b      	ldr	r3, [r7, #16]
 800476a:	f423 6300 	bic.w	r3, r3, #2048	; 0x800
 800476e:	613b      	str	r3, [r7, #16]
    /* Set the Output Idle state */
    tmpcr2 |= (OC_Config->OCIdleState << 2U);
 8004770:	683b      	ldr	r3, [r7, #0]
 8004772:	695b      	ldr	r3, [r3, #20]
 8004774:	009b      	lsls	r3, r3, #2
 8004776:	693a      	ldr	r2, [r7, #16]
 8004778:	4313      	orrs	r3, r2
 800477a:	613b      	str	r3, [r7, #16]
    /* Set the Output N Idle state */
    tmpcr2 |= (OC_Config->OCNIdleState << 2U);
 800477c:	683b      	ldr	r3, [r7, #0]
 800477e:	699b      	ldr	r3, [r3, #24]
 8004780:	009b      	lsls	r3, r3, #2
 8004782:	693a      	ldr	r2, [r7, #16]
 8004784:	4313      	orrs	r3, r2
 8004786:	613b      	str	r3, [r7, #16]
  }

  /* Write to TIMx CR2 */
  TIMx->CR2 = tmpcr2;
 8004788:	687b      	ldr	r3, [r7, #4]
 800478a:	693a      	ldr	r2, [r7, #16]
 800478c:	605a      	str	r2, [r3, #4]

  /* Write to TIMx CCMR1 */
  TIMx->CCMR1 = tmpccmrx;
 800478e:	687b      	ldr	r3, [r7, #4]
 8004790:	68fa      	ldr	r2, [r7, #12]
 8004792:	619a      	str	r2, [r3, #24]

  /* Set the Capture Compare Register value */
  TIMx->CCR2 = OC_Config->Pulse;
 8004794:	683b      	ldr	r3, [r7, #0]
 8004796:	685a      	ldr	r2, [r3, #4]
 8004798:	687b      	ldr	r3, [r7, #4]
 800479a:	639a      	str	r2, [r3, #56]	; 0x38

  /* Write to TIMx CCER */
  TIMx->CCER = tmpccer;
 800479c:	687b      	ldr	r3, [r7, #4]
 800479e:	697a      	ldr	r2, [r7, #20]
 80047a0:	621a      	str	r2, [r3, #32]
}
 80047a2:	bf00      	nop
 80047a4:	371c      	adds	r7, #28
 80047a6:	46bd      	mov	sp, r7
 80047a8:	f85d 7b04 	ldr.w	r7, [sp], #4
 80047ac:	4770      	bx	lr
 80047ae:	bf00      	nop
 80047b0:	40010000 	.word	0x40010000
 80047b4:	40010400 	.word	0x40010400

080047b8 <TIM_OC3_SetConfig>:
  * @param  TIMx to select the TIM peripheral
  * @param  OC_Config The output configuration structure
  * @retval None
  */
static void TIM_OC3_SetConfig(TIM_TypeDef *TIMx, TIM_OC_InitTypeDef *OC_Config)
{
 80047b8:	b480      	push	{r7}
 80047ba:	b087      	sub	sp, #28
 80047bc:	af00      	add	r7, sp, #0
 80047be:	6078      	str	r0, [r7, #4]
 80047c0:	6039      	str	r1, [r7, #0]
  uint32_t tmpccmrx;
  uint32_t tmpccer;
  uint32_t tmpcr2;

  /* Disable the Channel 3: Reset the CC2E Bit */
  TIMx->CCER &= ~TIM_CCER_CC3E;
 80047c2:	687b      	ldr	r3, [r7, #4]
 80047c4:	6a1b      	ldr	r3, [r3, #32]
 80047c6:	f423 7280 	bic.w	r2, r3, #256	; 0x100
 80047ca:	687b      	ldr	r3, [r7, #4]
 80047cc:	621a      	str	r2, [r3, #32]

  /* Get the TIMx CCER register value */
  tmpccer = TIMx->CCER;
 80047ce:	687b      	ldr	r3, [r7, #4]
 80047d0:	6a1b      	ldr	r3, [r3, #32]
 80047d2:	617b      	str	r3, [r7, #20]
  /* Get the TIMx CR2 register value */
  tmpcr2 =  TIMx->CR2;
 80047d4:	687b      	ldr	r3, [r7, #4]
 80047d6:	685b      	ldr	r3, [r3, #4]
 80047d8:	613b      	str	r3, [r7, #16]

  /* Get the TIMx CCMR2 register value */
  tmpccmrx = TIMx->CCMR2;
 80047da:	687b      	ldr	r3, [r7, #4]
 80047dc:	69db      	ldr	r3, [r3, #28]
 80047de:	60fb      	str	r3, [r7, #12]

  /* Reset the Output Compare mode and Capture/Compare selection Bits */
  tmpccmrx &= ~TIM_CCMR2_OC3M;
 80047e0:	68fb      	ldr	r3, [r7, #12]
 80047e2:	f023 0370 	bic.w	r3, r3, #112	; 0x70
 80047e6:	60fb      	str	r3, [r7, #12]
  tmpccmrx &= ~TIM_CCMR2_CC3S;
 80047e8:	68fb      	ldr	r3, [r7, #12]
 80047ea:	f023 0303 	bic.w	r3, r3, #3
 80047ee:	60fb      	str	r3, [r7, #12]
  /* Select the Output Compare Mode */
  tmpccmrx |= OC_Config->OCMode;
 80047f0:	683b      	ldr	r3, [r7, #0]
 80047f2:	681b      	ldr	r3, [r3, #0]
 80047f4:	68fa      	ldr	r2, [r7, #12]
 80047f6:	4313      	orrs	r3, r2
 80047f8:	60fb      	str	r3, [r7, #12]

  /* Reset the Output Polarity level */
  tmpccer &= ~TIM_CCER_CC3P;
 80047fa:	697b      	ldr	r3, [r7, #20]
 80047fc:	f423 7300 	bic.w	r3, r3, #512	; 0x200
 8004800:	617b      	str	r3, [r7, #20]
  /* Set the Output Compare Polarity */
  tmpccer |= (OC_Config->OCPolarity << 8U);
 8004802:	683b      	ldr	r3, [r7, #0]
 8004804:	689b      	ldr	r3, [r3, #8]
 8004806:	021b      	lsls	r3, r3, #8
 8004808:	697a      	ldr	r2, [r7, #20]
 800480a:	4313      	orrs	r3, r2
 800480c:	617b      	str	r3, [r7, #20]

  if (IS_TIM_CCXN_INSTANCE(TIMx, TIM_CHANNEL_3))
 800480e:	687b      	ldr	r3, [r7, #4]
 8004810:	4a21      	ldr	r2, [pc, #132]	; (8004898 <TIM_OC3_SetConfig+0xe0>)
 8004812:	4293      	cmp	r3, r2
 8004814:	d003      	beq.n	800481e <TIM_OC3_SetConfig+0x66>
 8004816:	687b      	ldr	r3, [r7, #4]
 8004818:	4a20      	ldr	r2, [pc, #128]	; (800489c <TIM_OC3_SetConfig+0xe4>)
 800481a:	4293      	cmp	r3, r2
 800481c:	d10d      	bne.n	800483a <TIM_OC3_SetConfig+0x82>
  {
    assert_param(IS_TIM_OCN_POLARITY(OC_Config->OCNPolarity));

    /* Reset the Output N Polarity level */
    tmpccer &= ~TIM_CCER_CC3NP;
 800481e:	697b      	ldr	r3, [r7, #20]
 8004820:	f423 6300 	bic.w	r3, r3, #2048	; 0x800
 8004824:	617b      	str	r3, [r7, #20]
    /* Set the Output N Polarity */
    tmpccer |= (OC_Config->OCNPolarity << 8U);
 8004826:	683b      	ldr	r3, [r7, #0]
 8004828:	68db      	ldr	r3, [r3, #12]
 800482a:	021b      	lsls	r3, r3, #8
 800482c:	697a      	ldr	r2, [r7, #20]
 800482e:	4313      	orrs	r3, r2
 8004830:	617b      	str	r3, [r7, #20]
    /* Reset the Output N State */
    tmpccer &= ~TIM_CCER_CC3NE;
 8004832:	697b      	ldr	r3, [r7, #20]
 8004834:	f423 6380 	bic.w	r3, r3, #1024	; 0x400
 8004838:	617b      	str	r3, [r7, #20]
  }

  if (IS_TIM_BREAK_INSTANCE(TIMx))
 800483a:	687b      	ldr	r3, [r7, #4]
 800483c:	4a16      	ldr	r2, [pc, #88]	; (8004898 <TIM_OC3_SetConfig+0xe0>)
 800483e:	4293      	cmp	r3, r2
 8004840:	d003      	beq.n	800484a <TIM_OC3_SetConfig+0x92>
 8004842:	687b      	ldr	r3, [r7, #4]
 8004844:	4a15      	ldr	r2, [pc, #84]	; (800489c <TIM_OC3_SetConfig+0xe4>)
 8004846:	4293      	cmp	r3, r2
 8004848:	d113      	bne.n	8004872 <TIM_OC3_SetConfig+0xba>
    /* Check parameters */
    assert_param(IS_TIM_OCNIDLE_STATE(OC_Config->OCNIdleState));
    assert_param(IS_TIM_OCIDLE_STATE(OC_Config->OCIdleState));

    /* Reset the Output Compare and Output Compare N IDLE State */
    tmpcr2 &= ~TIM_CR2_OIS3;
 800484a:	693b      	ldr	r3, [r7, #16]
 800484c:	f423 5380 	bic.w	r3, r3, #4096	; 0x1000
 8004850:	613b      	str	r3, [r7, #16]
    tmpcr2 &= ~TIM_CR2_OIS3N;
 8004852:	693b      	ldr	r3, [r7, #16]
 8004854:	f423 5300 	bic.w	r3, r3, #8192	; 0x2000
 8004858:	613b      	str	r3, [r7, #16]
    /* Set the Output Idle state */
    tmpcr2 |= (OC_Config->OCIdleState << 4U);
 800485a:	683b      	ldr	r3, [r7, #0]
 800485c:	695b      	ldr	r3, [r3, #20]
 800485e:	011b      	lsls	r3, r3, #4
 8004860:	693a      	ldr	r2, [r7, #16]
 8004862:	4313      	orrs	r3, r2
 8004864:	613b      	str	r3, [r7, #16]
    /* Set the Output N Idle state */
    tmpcr2 |= (OC_Config->OCNIdleState << 4U);
 8004866:	683b      	ldr	r3, [r7, #0]
 8004868:	699b      	ldr	r3, [r3, #24]
 800486a:	011b      	lsls	r3, r3, #4
 800486c:	693a      	ldr	r2, [r7, #16]
 800486e:	4313      	orrs	r3, r2
 8004870:	613b      	str	r3, [r7, #16]
  }

  /* Write to TIMx CR2 */
  TIMx->CR2 = tmpcr2;
 8004872:	687b      	ldr	r3, [r7, #4]
 8004874:	693a      	ldr	r2, [r7, #16]
 8004876:	605a      	str	r2, [r3, #4]

  /* Write to TIMx CCMR2 */
  TIMx->CCMR2 = tmpccmrx;
 8004878:	687b      	ldr	r3, [r7, #4]
 800487a:	68fa      	ldr	r2, [r7, #12]
 800487c:	61da      	str	r2, [r3, #28]

  /* Set the Capture Compare Register value */
  TIMx->CCR3 = OC_Config->Pulse;
 800487e:	683b      	ldr	r3, [r7, #0]
 8004880:	685a      	ldr	r2, [r3, #4]
 8004882:	687b      	ldr	r3, [r7, #4]
 8004884:	63da      	str	r2, [r3, #60]	; 0x3c

  /* Write to TIMx CCER */
  TIMx->CCER = tmpccer;
 8004886:	687b      	ldr	r3, [r7, #4]
 8004888:	697a      	ldr	r2, [r7, #20]
 800488a:	621a      	str	r2, [r3, #32]
}
 800488c:	bf00      	nop
 800488e:	371c      	adds	r7, #28
 8004890:	46bd      	mov	sp, r7
 8004892:	f85d 7b04 	ldr.w	r7, [sp], #4
 8004896:	4770      	bx	lr
 8004898:	40010000 	.word	0x40010000
 800489c:	40010400 	.word	0x40010400

080048a0 <TIM_OC4_SetConfig>:
  * @param  TIMx to select the TIM peripheral
  * @param  OC_Config The output configuration structure
  * @retval None
  */
static void TIM_OC4_SetConfig(TIM_TypeDef *TIMx, TIM_OC_InitTypeDef *OC_Config)
{
 80048a0:	b480      	push	{r7}
 80048a2:	b087      	sub	sp, #28
 80048a4:	af00      	add	r7, sp, #0
 80048a6:	6078      	str	r0, [r7, #4]
 80048a8:	6039      	str	r1, [r7, #0]
  uint32_t tmpccmrx;
  uint32_t tmpccer;
  uint32_t tmpcr2;

  /* Disable the Channel 4: Reset the CC4E Bit */
  TIMx->CCER &= ~TIM_CCER_CC4E;
 80048aa:	687b      	ldr	r3, [r7, #4]
 80048ac:	6a1b      	ldr	r3, [r3, #32]
 80048ae:	f423 5280 	bic.w	r2, r3, #4096	; 0x1000
 80048b2:	687b      	ldr	r3, [r7, #4]
 80048b4:	621a      	str	r2, [r3, #32]

  /* Get the TIMx CCER register value */
  tmpccer = TIMx->CCER;
 80048b6:	687b      	ldr	r3, [r7, #4]
 80048b8:	6a1b      	ldr	r3, [r3, #32]
 80048ba:	613b      	str	r3, [r7, #16]
  /* Get the TIMx CR2 register value */
  tmpcr2 =  TIMx->CR2;
 80048bc:	687b      	ldr	r3, [r7, #4]
 80048be:	685b      	ldr	r3, [r3, #4]
 80048c0:	617b      	str	r3, [r7, #20]

  /* Get the TIMx CCMR2 register value */
  tmpccmrx = TIMx->CCMR2;
 80048c2:	687b      	ldr	r3, [r7, #4]
 80048c4:	69db      	ldr	r3, [r3, #28]
 80048c6:	60fb      	str	r3, [r7, #12]

  /* Reset the Output Compare mode and Capture/Compare selection Bits */
  tmpccmrx &= ~TIM_CCMR2_OC4M;
 80048c8:	68fb      	ldr	r3, [r7, #12]
 80048ca:	f423 43e0 	bic.w	r3, r3, #28672	; 0x7000
 80048ce:	60fb      	str	r3, [r7, #12]
  tmpccmrx &= ~TIM_CCMR2_CC4S;
 80048d0:	68fb      	ldr	r3, [r7, #12]
 80048d2:	f423 7340 	bic.w	r3, r3, #768	; 0x300
 80048d6:	60fb      	str	r3, [r7, #12]

  /* Select the Output Compare Mode */
  tmpccmrx |= (OC_Config->OCMode << 8U);
 80048d8:	683b      	ldr	r3, [r7, #0]
 80048da:	681b      	ldr	r3, [r3, #0]
 80048dc:	021b      	lsls	r3, r3, #8
 80048de:	68fa      	ldr	r2, [r7, #12]
 80048e0:	4313      	orrs	r3, r2
 80048e2:	60fb      	str	r3, [r7, #12]

  /* Reset the Output Polarity level */
  tmpccer &= ~TIM_CCER_CC4P;
 80048e4:	693b      	ldr	r3, [r7, #16]
 80048e6:	f423 5300 	bic.w	r3, r3, #8192	; 0x2000
 80048ea:	613b      	str	r3, [r7, #16]
  /* Set the Output Compare Polarity */
  tmpccer |= (OC_Config->OCPolarity << 12U);
 80048ec:	683b      	ldr	r3, [r7, #0]
 80048ee:	689b      	ldr	r3, [r3, #8]
 80048f0:	031b      	lsls	r3, r3, #12
 80048f2:	693a      	ldr	r2, [r7, #16]
 80048f4:	4313      	orrs	r3, r2
 80048f6:	613b      	str	r3, [r7, #16]

  if (IS_TIM_BREAK_INSTANCE(TIMx))
 80048f8:	687b      	ldr	r3, [r7, #4]
 80048fa:	4a12      	ldr	r2, [pc, #72]	; (8004944 <TIM_OC4_SetConfig+0xa4>)
 80048fc:	4293      	cmp	r3, r2
 80048fe:	d003      	beq.n	8004908 <TIM_OC4_SetConfig+0x68>
 8004900:	687b      	ldr	r3, [r7, #4]
 8004902:	4a11      	ldr	r2, [pc, #68]	; (8004948 <TIM_OC4_SetConfig+0xa8>)
 8004904:	4293      	cmp	r3, r2
 8004906:	d109      	bne.n	800491c <TIM_OC4_SetConfig+0x7c>
  {
    /* Check parameters */
    assert_param(IS_TIM_OCIDLE_STATE(OC_Config->OCIdleState));

    /* Reset the Output Compare IDLE State */
    tmpcr2 &= ~TIM_CR2_OIS4;
 8004908:	697b      	ldr	r3, [r7, #20]
 800490a:	f423 4380 	bic.w	r3, r3, #16384	; 0x4000
 800490e:	617b      	str	r3, [r7, #20]

    /* Set the Output Idle state */
    tmpcr2 |= (OC_Config->OCIdleState << 6U);
 8004910:	683b      	ldr	r3, [r7, #0]
 8004912:	695b      	ldr	r3, [r3, #20]
 8004914:	019b      	lsls	r3, r3, #6
 8004916:	697a      	ldr	r2, [r7, #20]
 8004918:	4313      	orrs	r3, r2
 800491a:	617b      	str	r3, [r7, #20]
  }

  /* Write to TIMx CR2 */
  TIMx->CR2 = tmpcr2;
 800491c:	687b      	ldr	r3, [r7, #4]
 800491e:	697a      	ldr	r2, [r7, #20]
 8004920:	605a      	str	r2, [r3, #4]

  /* Write to TIMx CCMR2 */
  TIMx->CCMR2 = tmpccmrx;
 8004922:	687b      	ldr	r3, [r7, #4]
 8004924:	68fa      	ldr	r2, [r7, #12]
 8004926:	61da      	str	r2, [r3, #28]

  /* Set the Capture Compare Register value */
  TIMx->CCR4 = OC_Config->Pulse;
 8004928:	683b      	ldr	r3, [r7, #0]
 800492a:	685a      	ldr	r2, [r3, #4]
 800492c:	687b      	ldr	r3, [r7, #4]
 800492e:	641a      	str	r2, [r3, #64]	; 0x40

  /* Write to TIMx CCER */
  TIMx->CCER = tmpccer;
 8004930:	687b      	ldr	r3, [r7, #4]
 8004932:	693a      	ldr	r2, [r7, #16]
 8004934:	621a      	str	r2, [r3, #32]
}
 8004936:	bf00      	nop
 8004938:	371c      	adds	r7, #28
 800493a:	46bd      	mov	sp, r7
 800493c:	f85d 7b04 	ldr.w	r7, [sp], #4
 8004940:	4770      	bx	lr
 8004942:	bf00      	nop
 8004944:	40010000 	.word	0x40010000
 8004948:	40010400 	.word	0x40010400

0800494c <TIM_TI1_SetConfig>:
  *       (on channel2 path) is used as the input signal. Therefore CCMR1 must be
  *        protected against un-initialized filter and polarity values.
  */
void TIM_TI1_SetConfig(TIM_TypeDef *TIMx, uint32_t TIM_ICPolarity, uint32_t TIM_ICSelection,
                       uint32_t TIM_ICFilter)
{
 800494c:	b480      	push	{r7}
 800494e:	b087      	sub	sp, #28
 8004950:	af00      	add	r7, sp, #0
 8004952:	60f8      	str	r0, [r7, #12]
 8004954:	60b9      	str	r1, [r7, #8]
 8004956:	607a      	str	r2, [r7, #4]
 8004958:	603b      	str	r3, [r7, #0]
  uint32_t tmpccmr1;
  uint32_t tmpccer;

  /* Disable the Channel 1: Reset the CC1E Bit */
  TIMx->CCER &= ~TIM_CCER_CC1E;
 800495a:	68fb      	ldr	r3, [r7, #12]
 800495c:	6a1b      	ldr	r3, [r3, #32]
 800495e:	f023 0201 	bic.w	r2, r3, #1
 8004962:	68fb      	ldr	r3, [r7, #12]
 8004964:	621a      	str	r2, [r3, #32]
  tmpccmr1 = TIMx->CCMR1;
 8004966:	68fb      	ldr	r3, [r7, #12]
 8004968:	699b      	ldr	r3, [r3, #24]
 800496a:	617b      	str	r3, [r7, #20]
  tmpccer = TIMx->CCER;
 800496c:	68fb      	ldr	r3, [r7, #12]
 800496e:	6a1b      	ldr	r3, [r3, #32]
 8004970:	613b      	str	r3, [r7, #16]

  /* Select the Input */
  if (IS_TIM_CC2_INSTANCE(TIMx) != RESET)
 8004972:	68fb      	ldr	r3, [r7, #12]
 8004974:	4a28      	ldr	r2, [pc, #160]	; (8004a18 <TIM_TI1_SetConfig+0xcc>)
 8004976:	4293      	cmp	r3, r2
 8004978:	d01b      	beq.n	80049b2 <TIM_TI1_SetConfig+0x66>
 800497a:	68fb      	ldr	r3, [r7, #12]
 800497c:	f1b3 4f80 	cmp.w	r3, #1073741824	; 0x40000000
 8004980:	d017      	beq.n	80049b2 <TIM_TI1_SetConfig+0x66>
 8004982:	68fb      	ldr	r3, [r7, #12]
 8004984:	4a25      	ldr	r2, [pc, #148]	; (8004a1c <TIM_TI1_SetConfig+0xd0>)
 8004986:	4293      	cmp	r3, r2
 8004988:	d013      	beq.n	80049b2 <TIM_TI1_SetConfig+0x66>
 800498a:	68fb      	ldr	r3, [r7, #12]
 800498c:	4a24      	ldr	r2, [pc, #144]	; (8004a20 <TIM_TI1_SetConfig+0xd4>)
 800498e:	4293      	cmp	r3, r2
 8004990:	d00f      	beq.n	80049b2 <TIM_TI1_SetConfig+0x66>
 8004992:	68fb      	ldr	r3, [r7, #12]
 8004994:	4a23      	ldr	r2, [pc, #140]	; (8004a24 <TIM_TI1_SetConfig+0xd8>)
 8004996:	4293      	cmp	r3, r2
 8004998:	d00b      	beq.n	80049b2 <TIM_TI1_SetConfig+0x66>
 800499a:	68fb      	ldr	r3, [r7, #12]
 800499c:	4a22      	ldr	r2, [pc, #136]	; (8004a28 <TIM_TI1_SetConfig+0xdc>)
 800499e:	4293      	cmp	r3, r2
 80049a0:	d007      	beq.n	80049b2 <TIM_TI1_SetConfig+0x66>
 80049a2:	68fb      	ldr	r3, [r7, #12]
 80049a4:	4a21      	ldr	r2, [pc, #132]	; (8004a2c <TIM_TI1_SetConfig+0xe0>)
 80049a6:	4293      	cmp	r3, r2
 80049a8:	d003      	beq.n	80049b2 <TIM_TI1_SetConfig+0x66>
 80049aa:	68fb      	ldr	r3, [r7, #12]
 80049ac:	4a20      	ldr	r2, [pc, #128]	; (8004a30 <TIM_TI1_SetConfig+0xe4>)
 80049ae:	4293      	cmp	r3, r2
 80049b0:	d101      	bne.n	80049b6 <TIM_TI1_SetConfig+0x6a>
 80049b2:	2301      	movs	r3, #1
 80049b4:	e000      	b.n	80049b8 <TIM_TI1_SetConfig+0x6c>
 80049b6:	2300      	movs	r3, #0
 80049b8:	2b00      	cmp	r3, #0
 80049ba:	d008      	beq.n	80049ce <TIM_TI1_SetConfig+0x82>
  {
    tmpccmr1 &= ~TIM_CCMR1_CC1S;
 80049bc:	697b      	ldr	r3, [r7, #20]
 80049be:	f023 0303 	bic.w	r3, r3, #3
 80049c2:	617b      	str	r3, [r7, #20]
    tmpccmr1 |= TIM_ICSelection;
 80049c4:	697a      	ldr	r2, [r7, #20]
 80049c6:	687b      	ldr	r3, [r7, #4]
 80049c8:	4313      	orrs	r3, r2
 80049ca:	617b      	str	r3, [r7, #20]
 80049cc:	e003      	b.n	80049d6 <TIM_TI1_SetConfig+0x8a>
  }
  else
  {
    tmpccmr1 |= TIM_CCMR1_CC1S_0;
 80049ce:	697b      	ldr	r3, [r7, #20]
 80049d0:	f043 0301 	orr.w	r3, r3, #1
 80049d4:	617b      	str	r3, [r7, #20]
  }

  /* Set the filter */
  tmpccmr1 &= ~TIM_CCMR1_IC1F;
 80049d6:	697b      	ldr	r3, [r7, #20]
 80049d8:	f023 03f0 	bic.w	r3, r3, #240	; 0xf0
 80049dc:	617b      	str	r3, [r7, #20]
  tmpccmr1 |= ((TIM_ICFilter << 4U) & TIM_CCMR1_IC1F);
 80049de:	683b      	ldr	r3, [r7, #0]
 80049e0:	011b      	lsls	r3, r3, #4
 80049e2:	b2db      	uxtb	r3, r3
 80049e4:	697a      	ldr	r2, [r7, #20]
 80049e6:	4313      	orrs	r3, r2
 80049e8:	617b      	str	r3, [r7, #20]

  /* Select the Polarity and set the CC1E Bit */
  tmpccer &= ~(TIM_CCER_CC1P | TIM_CCER_CC1NP);
 80049ea:	693b      	ldr	r3, [r7, #16]
 80049ec:	f023 030a 	bic.w	r3, r3, #10
 80049f0:	613b      	str	r3, [r7, #16]
  tmpccer |= (TIM_ICPolarity & (TIM_CCER_CC1P | TIM_CCER_CC1NP));
 80049f2:	68bb      	ldr	r3, [r7, #8]
 80049f4:	f003 030a 	and.w	r3, r3, #10
 80049f8:	693a      	ldr	r2, [r7, #16]
 80049fa:	4313      	orrs	r3, r2
 80049fc:	613b      	str	r3, [r7, #16]

  /* Write to TIMx CCMR1 and CCER registers */
  TIMx->CCMR1 = tmpccmr1;
 80049fe:	68fb      	ldr	r3, [r7, #12]
 8004a00:	697a      	ldr	r2, [r7, #20]
 8004a02:	619a      	str	r2, [r3, #24]
  TIMx->CCER = tmpccer;
 8004a04:	68fb      	ldr	r3, [r7, #12]
 8004a06:	693a      	ldr	r2, [r7, #16]
 8004a08:	621a      	str	r2, [r3, #32]
}
 8004a0a:	bf00      	nop
 8004a0c:	371c      	adds	r7, #28
 8004a0e:	46bd      	mov	sp, r7
 8004a10:	f85d 7b04 	ldr.w	r7, [sp], #4
 8004a14:	4770      	bx	lr
 8004a16:	bf00      	nop
 8004a18:	40010000 	.word	0x40010000
 8004a1c:	40000400 	.word	0x40000400
 8004a20:	40000800 	.word	0x40000800
 8004a24:	40000c00 	.word	0x40000c00
 8004a28:	40010400 	.word	0x40010400
 8004a2c:	40014000 	.word	0x40014000
 8004a30:	40001800 	.word	0x40001800

08004a34 <TIM_TI1_ConfigInputStage>:
  * @param  TIM_ICFilter Specifies the Input Capture Filter.
  *          This parameter must be a value between 0x00 and 0x0F.
  * @retval None
  */
static void TIM_TI1_ConfigInputStage(TIM_TypeDef *TIMx, uint32_t TIM_ICPolarity, uint32_t TIM_ICFilter)
{
 8004a34:	b480      	push	{r7}
 8004a36:	b087      	sub	sp, #28
 8004a38:	af00      	add	r7, sp, #0
 8004a3a:	60f8      	str	r0, [r7, #12]
 8004a3c:	60b9      	str	r1, [r7, #8]
 8004a3e:	607a      	str	r2, [r7, #4]
  uint32_t tmpccmr1;
  uint32_t tmpccer;

  /* Disable the Channel 1: Reset the CC1E Bit */
  tmpccer = TIMx->CCER;
 8004a40:	68fb      	ldr	r3, [r7, #12]
 8004a42:	6a1b      	ldr	r3, [r3, #32]
 8004a44:	617b      	str	r3, [r7, #20]
  TIMx->CCER &= ~TIM_CCER_CC1E;
 8004a46:	68fb      	ldr	r3, [r7, #12]
 8004a48:	6a1b      	ldr	r3, [r3, #32]
 8004a4a:	f023 0201 	bic.w	r2, r3, #1
 8004a4e:	68fb      	ldr	r3, [r7, #12]
 8004a50:	621a      	str	r2, [r3, #32]
  tmpccmr1 = TIMx->CCMR1;
 8004a52:	68fb      	ldr	r3, [r7, #12]
 8004a54:	699b      	ldr	r3, [r3, #24]
 8004a56:	613b      	str	r3, [r7, #16]

  /* Set the filter */
  tmpccmr1 &= ~TIM_CCMR1_IC1F;
 8004a58:	693b      	ldr	r3, [r7, #16]
 8004a5a:	f023 03f0 	bic.w	r3, r3, #240	; 0xf0
 8004a5e:	613b      	str	r3, [r7, #16]
  tmpccmr1 |= (TIM_ICFilter << 4U);
 8004a60:	687b      	ldr	r3, [r7, #4]
 8004a62:	011b      	lsls	r3, r3, #4
 8004a64:	693a      	ldr	r2, [r7, #16]
 8004a66:	4313      	orrs	r3, r2
 8004a68:	613b      	str	r3, [r7, #16]

  /* Select the Polarity and set the CC1E Bit */
  tmpccer &= ~(TIM_CCER_CC1P | TIM_CCER_CC1NP);
 8004a6a:	697b      	ldr	r3, [r7, #20]
 8004a6c:	f023 030a 	bic.w	r3, r3, #10
 8004a70:	617b      	str	r3, [r7, #20]
  tmpccer |= TIM_ICPolarity;
 8004a72:	697a      	ldr	r2, [r7, #20]
 8004a74:	68bb      	ldr	r3, [r7, #8]
 8004a76:	4313      	orrs	r3, r2
 8004a78:	617b      	str	r3, [r7, #20]

  /* Write to TIMx CCMR1 and CCER registers */
  TIMx->CCMR1 = tmpccmr1;
 8004a7a:	68fb      	ldr	r3, [r7, #12]
 8004a7c:	693a      	ldr	r2, [r7, #16]
 8004a7e:	619a      	str	r2, [r3, #24]
  TIMx->CCER = tmpccer;
 8004a80:	68fb      	ldr	r3, [r7, #12]
 8004a82:	697a      	ldr	r2, [r7, #20]
 8004a84:	621a      	str	r2, [r3, #32]
}
 8004a86:	bf00      	nop
 8004a88:	371c      	adds	r7, #28
 8004a8a:	46bd      	mov	sp, r7
 8004a8c:	f85d 7b04 	ldr.w	r7, [sp], #4
 8004a90:	4770      	bx	lr

08004a92 <TIM_TI2_SetConfig>:
  *       (on channel1 path) is used as the input signal. Therefore CCMR1 must be
  *        protected against un-initialized filter and polarity values.
  */
static void TIM_TI2_SetConfig(TIM_TypeDef *TIMx, uint32_t TIM_ICPolarity, uint32_t TIM_ICSelection,
                              uint32_t TIM_ICFilter)
{
 8004a92:	b480      	push	{r7}
 8004a94:	b087      	sub	sp, #28
 8004a96:	af00      	add	r7, sp, #0
 8004a98:	60f8      	str	r0, [r7, #12]
 8004a9a:	60b9      	str	r1, [r7, #8]
 8004a9c:	607a      	str	r2, [r7, #4]
 8004a9e:	603b      	str	r3, [r7, #0]
  uint32_t tmpccmr1;
  uint32_t tmpccer;

  /* Disable the Channel 2: Reset the CC2E Bit */
  TIMx->CCER &= ~TIM_CCER_CC2E;
 8004aa0:	68fb      	ldr	r3, [r7, #12]
 8004aa2:	6a1b      	ldr	r3, [r3, #32]
 8004aa4:	f023 0210 	bic.w	r2, r3, #16
 8004aa8:	68fb      	ldr	r3, [r7, #12]
 8004aaa:	621a      	str	r2, [r3, #32]
  tmpccmr1 = TIMx->CCMR1;
 8004aac:	68fb      	ldr	r3, [r7, #12]
 8004aae:	699b      	ldr	r3, [r3, #24]
 8004ab0:	617b      	str	r3, [r7, #20]
  tmpccer = TIMx->CCER;
 8004ab2:	68fb      	ldr	r3, [r7, #12]
 8004ab4:	6a1b      	ldr	r3, [r3, #32]
 8004ab6:	613b      	str	r3, [r7, #16]

  /* Select the Input */
  tmpccmr1 &= ~TIM_CCMR1_CC2S;
 8004ab8:	697b      	ldr	r3, [r7, #20]
 8004aba:	f423 7340 	bic.w	r3, r3, #768	; 0x300
 8004abe:	617b      	str	r3, [r7, #20]
  tmpccmr1 |= (TIM_ICSelection << 8U);
 8004ac0:	687b      	ldr	r3, [r7, #4]
 8004ac2:	021b      	lsls	r3, r3, #8
 8004ac4:	697a      	ldr	r2, [r7, #20]
 8004ac6:	4313      	orrs	r3, r2
 8004ac8:	617b      	str	r3, [r7, #20]

  /* Set the filter */
  tmpccmr1 &= ~TIM_CCMR1_IC2F;
 8004aca:	697b      	ldr	r3, [r7, #20]
 8004acc:	f423 4370 	bic.w	r3, r3, #61440	; 0xf000
 8004ad0:	617b      	str	r3, [r7, #20]
  tmpccmr1 |= ((TIM_ICFilter << 12U) & TIM_CCMR1_IC2F);
 8004ad2:	683b      	ldr	r3, [r7, #0]
 8004ad4:	031b      	lsls	r3, r3, #12
 8004ad6:	b29b      	uxth	r3, r3
 8004ad8:	697a      	ldr	r2, [r7, #20]
 8004ada:	4313      	orrs	r3, r2
 8004adc:	617b      	str	r3, [r7, #20]

  /* Select the Polarity and set the CC2E Bit */
  tmpccer &= ~(TIM_CCER_CC2P | TIM_CCER_CC2NP);
 8004ade:	693b      	ldr	r3, [r7, #16]
 8004ae0:	f023 03a0 	bic.w	r3, r3, #160	; 0xa0
 8004ae4:	613b      	str	r3, [r7, #16]
  tmpccer |= ((TIM_ICPolarity << 4U) & (TIM_CCER_CC2P | TIM_CCER_CC2NP));
 8004ae6:	68bb      	ldr	r3, [r7, #8]
 8004ae8:	011b      	lsls	r3, r3, #4
 8004aea:	f003 03a0 	and.w	r3, r3, #160	; 0xa0
 8004aee:	693a      	ldr	r2, [r7, #16]
 8004af0:	4313      	orrs	r3, r2
 8004af2:	613b      	str	r3, [r7, #16]

  /* Write to TIMx CCMR1 and CCER registers */
  TIMx->CCMR1 = tmpccmr1 ;
 8004af4:	68fb      	ldr	r3, [r7, #12]
 8004af6:	697a      	ldr	r2, [r7, #20]
 8004af8:	619a      	str	r2, [r3, #24]
  TIMx->CCER = tmpccer;
 8004afa:	68fb      	ldr	r3, [r7, #12]
 8004afc:	693a      	ldr	r2, [r7, #16]
 8004afe:	621a      	str	r2, [r3, #32]
}
 8004b00:	bf00      	nop
 8004b02:	371c      	adds	r7, #28
 8004b04:	46bd      	mov	sp, r7
 8004b06:	f85d 7b04 	ldr.w	r7, [sp], #4
 8004b0a:	4770      	bx	lr

08004b0c <TIM_TI2_ConfigInputStage>:
  * @param  TIM_ICFilter Specifies the Input Capture Filter.
  *          This parameter must be a value between 0x00 and 0x0F.
  * @retval None
  */
static void TIM_TI2_ConfigInputStage(TIM_TypeDef *TIMx, uint32_t TIM_ICPolarity, uint32_t TIM_ICFilter)
{
 8004b0c:	b480      	push	{r7}
 8004b0e:	b087      	sub	sp, #28
 8004b10:	af00      	add	r7, sp, #0
 8004b12:	60f8      	str	r0, [r7, #12]
 8004b14:	60b9      	str	r1, [r7, #8]
 8004b16:	607a      	str	r2, [r7, #4]
  uint32_t tmpccmr1;
  uint32_t tmpccer;

  /* Disable the Channel 2: Reset the CC2E Bit */
  TIMx->CCER &= ~TIM_CCER_CC2E;
 8004b18:	68fb      	ldr	r3, [r7, #12]
 8004b1a:	6a1b      	ldr	r3, [r3, #32]
 8004b1c:	f023 0210 	bic.w	r2, r3, #16
 8004b20:	68fb      	ldr	r3, [r7, #12]
 8004b22:	621a      	str	r2, [r3, #32]
  tmpccmr1 = TIMx->CCMR1;
 8004b24:	68fb      	ldr	r3, [r7, #12]
 8004b26:	699b      	ldr	r3, [r3, #24]
 8004b28:	617b      	str	r3, [r7, #20]
  tmpccer = TIMx->CCER;
 8004b2a:	68fb      	ldr	r3, [r7, #12]
 8004b2c:	6a1b      	ldr	r3, [r3, #32]
 8004b2e:	613b      	str	r3, [r7, #16]

  /* Set the filter */
  tmpccmr1 &= ~TIM_CCMR1_IC2F;
 8004b30:	697b      	ldr	r3, [r7, #20]
 8004b32:	f423 4370 	bic.w	r3, r3, #61440	; 0xf000
 8004b36:	617b      	str	r3, [r7, #20]
  tmpccmr1 |= (TIM_ICFilter << 12U);
 8004b38:	687b      	ldr	r3, [r7, #4]
 8004b3a:	031b      	lsls	r3, r3, #12
 8004b3c:	697a      	ldr	r2, [r7, #20]
 8004b3e:	4313      	orrs	r3, r2
 8004b40:	617b      	str	r3, [r7, #20]

  /* Select the Polarity and set the CC2E Bit */
  tmpccer &= ~(TIM_CCER_CC2P | TIM_CCER_CC2NP);
 8004b42:	693b      	ldr	r3, [r7, #16]
 8004b44:	f023 03a0 	bic.w	r3, r3, #160	; 0xa0
 8004b48:	613b      	str	r3, [r7, #16]
  tmpccer |= (TIM_ICPolarity << 4U);
 8004b4a:	68bb      	ldr	r3, [r7, #8]
 8004b4c:	011b      	lsls	r3, r3, #4
 8004b4e:	693a      	ldr	r2, [r7, #16]
 8004b50:	4313      	orrs	r3, r2
 8004b52:	613b      	str	r3, [r7, #16]

  /* Write to TIMx CCMR1 and CCER registers */
  TIMx->CCMR1 = tmpccmr1 ;
 8004b54:	68fb      	ldr	r3, [r7, #12]
 8004b56:	697a      	ldr	r2, [r7, #20]
 8004b58:	619a      	str	r2, [r3, #24]
  TIMx->CCER = tmpccer;
 8004b5a:	68fb      	ldr	r3, [r7, #12]
 8004b5c:	693a      	ldr	r2, [r7, #16]
 8004b5e:	621a      	str	r2, [r3, #32]
}
 8004b60:	bf00      	nop
 8004b62:	371c      	adds	r7, #28
 8004b64:	46bd      	mov	sp, r7
 8004b66:	f85d 7b04 	ldr.w	r7, [sp], #4
 8004b6a:	4770      	bx	lr

08004b6c <TIM_TI3_SetConfig>:
  *       (on channel1 path) is used as the input signal. Therefore CCMR2 must be
  *        protected against un-initialized filter and polarity values.
  */
static void TIM_TI3_SetConfig(TIM_TypeDef *TIMx, uint32_t TIM_ICPolarity, uint32_t TIM_ICSelection,
                              uint32_t TIM_ICFilter)
{
 8004b6c:	b480      	push	{r7}
 8004b6e:	b087      	sub	sp, #28
 8004b70:	af00      	add	r7, sp, #0
 8004b72:	60f8      	str	r0, [r7, #12]
 8004b74:	60b9      	str	r1, [r7, #8]
 8004b76:	607a      	str	r2, [r7, #4]
 8004b78:	603b      	str	r3, [r7, #0]
  uint32_t tmpccmr2;
  uint32_t tmpccer;

  /* Disable the Channel 3: Reset the CC3E Bit */
  TIMx->CCER &= ~TIM_CCER_CC3E;
 8004b7a:	68fb      	ldr	r3, [r7, #12]
 8004b7c:	6a1b      	ldr	r3, [r3, #32]
 8004b7e:	f423 7280 	bic.w	r2, r3, #256	; 0x100
 8004b82:	68fb      	ldr	r3, [r7, #12]
 8004b84:	621a      	str	r2, [r3, #32]
  tmpccmr2 = TIMx->CCMR2;
 8004b86:	68fb      	ldr	r3, [r7, #12]
 8004b88:	69db      	ldr	r3, [r3, #28]
 8004b8a:	617b      	str	r3, [r7, #20]
  tmpccer = TIMx->CCER;
 8004b8c:	68fb      	ldr	r3, [r7, #12]
 8004b8e:	6a1b      	ldr	r3, [r3, #32]
 8004b90:	613b      	str	r3, [r7, #16]

  /* Select the Input */
  tmpccmr2 &= ~TIM_CCMR2_CC3S;
 8004b92:	697b      	ldr	r3, [r7, #20]
 8004b94:	f023 0303 	bic.w	r3, r3, #3
 8004b98:	617b      	str	r3, [r7, #20]
  tmpccmr2 |= TIM_ICSelection;
 8004b9a:	697a      	ldr	r2, [r7, #20]
 8004b9c:	687b      	ldr	r3, [r7, #4]
 8004b9e:	4313      	orrs	r3, r2
 8004ba0:	617b      	str	r3, [r7, #20]

  /* Set the filter */
  tmpccmr2 &= ~TIM_CCMR2_IC3F;
 8004ba2:	697b      	ldr	r3, [r7, #20]
 8004ba4:	f023 03f0 	bic.w	r3, r3, #240	; 0xf0
 8004ba8:	617b      	str	r3, [r7, #20]
  tmpccmr2 |= ((TIM_ICFilter << 4U) & TIM_CCMR2_IC3F);
 8004baa:	683b      	ldr	r3, [r7, #0]
 8004bac:	011b      	lsls	r3, r3, #4
 8004bae:	b2db      	uxtb	r3, r3
 8004bb0:	697a      	ldr	r2, [r7, #20]
 8004bb2:	4313      	orrs	r3, r2
 8004bb4:	617b      	str	r3, [r7, #20]

  /* Select the Polarity and set the CC3E Bit */
  tmpccer &= ~(TIM_CCER_CC3P | TIM_CCER_CC3NP);
 8004bb6:	693b      	ldr	r3, [r7, #16]
 8004bb8:	f423 6320 	bic.w	r3, r3, #2560	; 0xa00
 8004bbc:	613b      	str	r3, [r7, #16]
  tmpccer |= ((TIM_ICPolarity << 8U) & (TIM_CCER_CC3P | TIM_CCER_CC3NP));
 8004bbe:	68bb      	ldr	r3, [r7, #8]
 8004bc0:	021b      	lsls	r3, r3, #8
 8004bc2:	f403 6320 	and.w	r3, r3, #2560	; 0xa00
 8004bc6:	693a      	ldr	r2, [r7, #16]
 8004bc8:	4313      	orrs	r3, r2
 8004bca:	613b      	str	r3, [r7, #16]

  /* Write to TIMx CCMR2 and CCER registers */
  TIMx->CCMR2 = tmpccmr2;
 8004bcc:	68fb      	ldr	r3, [r7, #12]
 8004bce:	697a      	ldr	r2, [r7, #20]
 8004bd0:	61da      	str	r2, [r3, #28]
  TIMx->CCER = tmpccer;
 8004bd2:	68fb      	ldr	r3, [r7, #12]
 8004bd4:	693a      	ldr	r2, [r7, #16]
 8004bd6:	621a      	str	r2, [r3, #32]
}
 8004bd8:	bf00      	nop
 8004bda:	371c      	adds	r7, #28
 8004bdc:	46bd      	mov	sp, r7
 8004bde:	f85d 7b04 	ldr.w	r7, [sp], #4
 8004be2:	4770      	bx	lr

08004be4 <TIM_TI4_SetConfig>:
  *        protected against un-initialized filter and polarity values.
  * @retval None
  */
static void TIM_TI4_SetConfig(TIM_TypeDef *TIMx, uint32_t TIM_ICPolarity, uint32_t TIM_ICSelection,
                              uint32_t TIM_ICFilter)
{
 8004be4:	b480      	push	{r7}
 8004be6:	b087      	sub	sp, #28
 8004be8:	af00      	add	r7, sp, #0
 8004bea:	60f8      	str	r0, [r7, #12]
 8004bec:	60b9      	str	r1, [r7, #8]
 8004bee:	607a      	str	r2, [r7, #4]
 8004bf0:	603b      	str	r3, [r7, #0]
  uint32_t tmpccmr2;
  uint32_t tmpccer;

  /* Disable the Channel 4: Reset the CC4E Bit */
  TIMx->CCER &= ~TIM_CCER_CC4E;
 8004bf2:	68fb      	ldr	r3, [r7, #12]
 8004bf4:	6a1b      	ldr	r3, [r3, #32]
 8004bf6:	f423 5280 	bic.w	r2, r3, #4096	; 0x1000
 8004bfa:	68fb      	ldr	r3, [r7, #12]
 8004bfc:	621a      	str	r2, [r3, #32]
  tmpccmr2 = TIMx->CCMR2;
 8004bfe:	68fb      	ldr	r3, [r7, #12]
 8004c00:	69db      	ldr	r3, [r3, #28]
 8004c02:	617b      	str	r3, [r7, #20]
  tmpccer = TIMx->CCER;
 8004c04:	68fb      	ldr	r3, [r7, #12]
 8004c06:	6a1b      	ldr	r3, [r3, #32]
 8004c08:	613b      	str	r3, [r7, #16]

  /* Select the Input */
  tmpccmr2 &= ~TIM_CCMR2_CC4S;
 8004c0a:	697b      	ldr	r3, [r7, #20]
 8004c0c:	f423 7340 	bic.w	r3, r3, #768	; 0x300
 8004c10:	617b      	str	r3, [r7, #20]
  tmpccmr2 |= (TIM_ICSelection << 8U);
 8004c12:	687b      	ldr	r3, [r7, #4]
 8004c14:	021b      	lsls	r3, r3, #8
 8004c16:	697a      	ldr	r2, [r7, #20]
 8004c18:	4313      	orrs	r3, r2
 8004c1a:	617b      	str	r3, [r7, #20]

  /* Set the filter */
  tmpccmr2 &= ~TIM_CCMR2_IC4F;
 8004c1c:	697b      	ldr	r3, [r7, #20]
 8004c1e:	f423 4370 	bic.w	r3, r3, #61440	; 0xf000
 8004c22:	617b      	str	r3, [r7, #20]
  tmpccmr2 |= ((TIM_ICFilter << 12U) & TIM_CCMR2_IC4F);
 8004c24:	683b      	ldr	r3, [r7, #0]
 8004c26:	031b      	lsls	r3, r3, #12
 8004c28:	b29b      	uxth	r3, r3
 8004c2a:	697a      	ldr	r2, [r7, #20]
 8004c2c:	4313      	orrs	r3, r2
 8004c2e:	617b      	str	r3, [r7, #20]

  /* Select the Polarity and set the CC4E Bit */
  tmpccer &= ~(TIM_CCER_CC4P | TIM_CCER_CC4NP);
 8004c30:	693b      	ldr	r3, [r7, #16]
 8004c32:	f423 4320 	bic.w	r3, r3, #40960	; 0xa000
 8004c36:	613b      	str	r3, [r7, #16]
  tmpccer |= ((TIM_ICPolarity << 12U) & (TIM_CCER_CC4P | TIM_CCER_CC4NP));
 8004c38:	68bb      	ldr	r3, [r7, #8]
 8004c3a:	031b      	lsls	r3, r3, #12
 8004c3c:	f403 4320 	and.w	r3, r3, #40960	; 0xa000
 8004c40:	693a      	ldr	r2, [r7, #16]
 8004c42:	4313      	orrs	r3, r2
 8004c44:	613b      	str	r3, [r7, #16]

  /* Write to TIMx CCMR2 and CCER registers */
  TIMx->CCMR2 = tmpccmr2;
 8004c46:	68fb      	ldr	r3, [r7, #12]
 8004c48:	697a      	ldr	r2, [r7, #20]
 8004c4a:	61da      	str	r2, [r3, #28]
  TIMx->CCER = tmpccer ;
 8004c4c:	68fb      	ldr	r3, [r7, #12]
 8004c4e:	693a      	ldr	r2, [r7, #16]
 8004c50:	621a      	str	r2, [r3, #32]
}
 8004c52:	bf00      	nop
 8004c54:	371c      	adds	r7, #28
 8004c56:	46bd      	mov	sp, r7
 8004c58:	f85d 7b04 	ldr.w	r7, [sp], #4
 8004c5c:	4770      	bx	lr

08004c5e <TIM_ITRx_SetConfig>:
  *            @arg TIM_TS_TI2FP2: Filtered Timer Input 2
  *            @arg TIM_TS_ETRF: External Trigger input
  * @retval None
  */
static void TIM_ITRx_SetConfig(TIM_TypeDef *TIMx, uint32_t InputTriggerSource)
{
 8004c5e:	b480      	push	{r7}
 8004c60:	b085      	sub	sp, #20
 8004c62:	af00      	add	r7, sp, #0
 8004c64:	6078      	str	r0, [r7, #4]
 8004c66:	6039      	str	r1, [r7, #0]
  uint32_t tmpsmcr;

  /* Get the TIMx SMCR register value */
  tmpsmcr = TIMx->SMCR;
 8004c68:	687b      	ldr	r3, [r7, #4]
 8004c6a:	689b      	ldr	r3, [r3, #8]
 8004c6c:	60fb      	str	r3, [r7, #12]
  /* Reset the TS Bits */
  tmpsmcr &= ~TIM_SMCR_TS;
 8004c6e:	68fb      	ldr	r3, [r7, #12]
 8004c70:	f023 0370 	bic.w	r3, r3, #112	; 0x70
 8004c74:	60fb      	str	r3, [r7, #12]
  /* Set the Input Trigger source and the slave mode*/
  tmpsmcr |= (InputTriggerSource | TIM_SLAVEMODE_EXTERNAL1);
 8004c76:	683a      	ldr	r2, [r7, #0]
 8004c78:	68fb      	ldr	r3, [r7, #12]
 8004c7a:	4313      	orrs	r3, r2
 8004c7c:	f043 0307 	orr.w	r3, r3, #7
 8004c80:	60fb      	str	r3, [r7, #12]
  /* Write to TIMx SMCR */
  TIMx->SMCR = tmpsmcr;
 8004c82:	687b      	ldr	r3, [r7, #4]
 8004c84:	68fa      	ldr	r2, [r7, #12]
 8004c86:	609a      	str	r2, [r3, #8]
}
 8004c88:	bf00      	nop
 8004c8a:	3714      	adds	r7, #20
 8004c8c:	46bd      	mov	sp, r7
 8004c8e:	f85d 7b04 	ldr.w	r7, [sp], #4
 8004c92:	4770      	bx	lr

08004c94 <TIM_ETR_SetConfig>:
  *          This parameter must be a value between 0x00 and 0x0F
  * @retval None
  */
void TIM_ETR_SetConfig(TIM_TypeDef *TIMx, uint32_t TIM_ExtTRGPrescaler,
                       uint32_t TIM_ExtTRGPolarity, uint32_t ExtTRGFilter)
{
 8004c94:	b480      	push	{r7}
 8004c96:	b087      	sub	sp, #28
 8004c98:	af00      	add	r7, sp, #0
 8004c9a:	60f8      	str	r0, [r7, #12]
 8004c9c:	60b9      	str	r1, [r7, #8]
 8004c9e:	607a      	str	r2, [r7, #4]
 8004ca0:	603b      	str	r3, [r7, #0]
  uint32_t tmpsmcr;

  tmpsmcr = TIMx->SMCR;
 8004ca2:	68fb      	ldr	r3, [r7, #12]
 8004ca4:	689b      	ldr	r3, [r3, #8]
 8004ca6:	617b      	str	r3, [r7, #20]

  /* Reset the ETR Bits */
  tmpsmcr &= ~(TIM_SMCR_ETF | TIM_SMCR_ETPS | TIM_SMCR_ECE | TIM_SMCR_ETP);
 8004ca8:	697b      	ldr	r3, [r7, #20]
 8004caa:	f423 437f 	bic.w	r3, r3, #65280	; 0xff00
 8004cae:	617b      	str	r3, [r7, #20]

  /* Set the Prescaler, the Filter value and the Polarity */
  tmpsmcr |= (uint32_t)(TIM_ExtTRGPrescaler | (TIM_ExtTRGPolarity | (ExtTRGFilter << 8U)));
 8004cb0:	683b      	ldr	r3, [r7, #0]
 8004cb2:	021a      	lsls	r2, r3, #8
 8004cb4:	687b      	ldr	r3, [r7, #4]
 8004cb6:	431a      	orrs	r2, r3
 8004cb8:	68bb      	ldr	r3, [r7, #8]
 8004cba:	4313      	orrs	r3, r2
 8004cbc:	697a      	ldr	r2, [r7, #20]
 8004cbe:	4313      	orrs	r3, r2
 8004cc0:	617b      	str	r3, [r7, #20]

  /* Write to TIMx SMCR */
  TIMx->SMCR = tmpsmcr;
 8004cc2:	68fb      	ldr	r3, [r7, #12]
 8004cc4:	697a      	ldr	r2, [r7, #20]
 8004cc6:	609a      	str	r2, [r3, #8]
}
 8004cc8:	bf00      	nop
 8004cca:	371c      	adds	r7, #28
 8004ccc:	46bd      	mov	sp, r7
 8004cce:	f85d 7b04 	ldr.w	r7, [sp], #4
 8004cd2:	4770      	bx	lr

08004cd4 <TIM_CCxChannelCmd>:
  * @param  ChannelState specifies the TIM Channel CCxE bit new state.
  *          This parameter can be: TIM_CCx_ENABLE or TIM_CCx_DISABLE.
  * @retval None
  */
void TIM_CCxChannelCmd(TIM_TypeDef *TIMx, uint32_t Channel, uint32_t ChannelState)
{
 8004cd4:	b480      	push	{r7}
 8004cd6:	b087      	sub	sp, #28
 8004cd8:	af00      	add	r7, sp, #0
 8004cda:	60f8      	str	r0, [r7, #12]
 8004cdc:	60b9      	str	r1, [r7, #8]
 8004cde:	607a      	str	r2, [r7, #4]

  /* Check the parameters */
  assert_param(IS_TIM_CC1_INSTANCE(TIMx));
  assert_param(IS_TIM_CHANNELS(Channel));

  tmp = TIM_CCER_CC1E << (Channel & 0x1FU); /* 0x1FU = 31 bits max shift */
 8004ce0:	68bb      	ldr	r3, [r7, #8]
 8004ce2:	f003 031f 	and.w	r3, r3, #31
 8004ce6:	2201      	movs	r2, #1
 8004ce8:	fa02 f303 	lsl.w	r3, r2, r3
 8004cec:	617b      	str	r3, [r7, #20]

  /* Reset the CCxE Bit */
  TIMx->CCER &= ~tmp;
 8004cee:	68fb      	ldr	r3, [r7, #12]
 8004cf0:	6a1a      	ldr	r2, [r3, #32]
 8004cf2:	697b      	ldr	r3, [r7, #20]
 8004cf4:	43db      	mvns	r3, r3
 8004cf6:	401a      	ands	r2, r3
 8004cf8:	68fb      	ldr	r3, [r7, #12]
 8004cfa:	621a      	str	r2, [r3, #32]

  /* Set or reset the CCxE Bit */
  TIMx->CCER |= (uint32_t)(ChannelState << (Channel & 0x1FU)); /* 0x1FU = 31 bits max shift */
 8004cfc:	68fb      	ldr	r3, [r7, #12]
 8004cfe:	6a1a      	ldr	r2, [r3, #32]
 8004d00:	68bb      	ldr	r3, [r7, #8]
 8004d02:	f003 031f 	and.w	r3, r3, #31
 8004d06:	6879      	ldr	r1, [r7, #4]
 8004d08:	fa01 f303 	lsl.w	r3, r1, r3
 8004d0c:	431a      	orrs	r2, r3
 8004d0e:	68fb      	ldr	r3, [r7, #12]
 8004d10:	621a      	str	r2, [r3, #32]
}
 8004d12:	bf00      	nop
 8004d14:	371c      	adds	r7, #28
 8004d16:	46bd      	mov	sp, r7
 8004d18:	f85d 7b04 	ldr.w	r7, [sp], #4
 8004d1c:	4770      	bx	lr
	...

08004d20 <HAL_TIMEx_MasterConfigSynchronization>:
  *         mode.
  * @retval HAL status
  */
HAL_StatusTypeDef HAL_TIMEx_MasterConfigSynchronization(TIM_HandleTypeDef *htim,
                                                        TIM_MasterConfigTypeDef *sMasterConfig)
{
 8004d20:	b480      	push	{r7}
 8004d22:	b085      	sub	sp, #20
 8004d24:	af00      	add	r7, sp, #0
 8004d26:	6078      	str	r0, [r7, #4]
 8004d28:	6039      	str	r1, [r7, #0]
  assert_param(IS_TIM_MASTER_INSTANCE(htim->Instance));
  assert_param(IS_TIM_TRGO_SOURCE(sMasterConfig->MasterOutputTrigger));
  assert_param(IS_TIM_MSM_STATE(sMasterConfig->MasterSlaveMode));

  /* Check input state */
  __HAL_LOCK(htim);
 8004d2a:	687b      	ldr	r3, [r7, #4]
 8004d2c:	f893 303c 	ldrb.w	r3, [r3, #60]	; 0x3c
 8004d30:	2b01      	cmp	r3, #1
 8004d32:	d101      	bne.n	8004d38 <HAL_TIMEx_MasterConfigSynchronization+0x18>
 8004d34:	2302      	movs	r3, #2
 8004d36:	e05a      	b.n	8004dee <HAL_TIMEx_MasterConfigSynchronization+0xce>
 8004d38:	687b      	ldr	r3, [r7, #4]
 8004d3a:	2201      	movs	r2, #1
 8004d3c:	f883 203c 	strb.w	r2, [r3, #60]	; 0x3c

  /* Change the handler state */
  htim->State = HAL_TIM_STATE_BUSY;
 8004d40:	687b      	ldr	r3, [r7, #4]
 8004d42:	2202      	movs	r2, #2
 8004d44:	f883 203d 	strb.w	r2, [r3, #61]	; 0x3d

  /* Get the TIMx CR2 register value */
  tmpcr2 = htim->Instance->CR2;
 8004d48:	687b      	ldr	r3, [r7, #4]
 8004d4a:	681b      	ldr	r3, [r3, #0]
 8004d4c:	685b      	ldr	r3, [r3, #4]
 8004d4e:	60fb      	str	r3, [r7, #12]

  /* Get the TIMx SMCR register value */
  tmpsmcr = htim->Instance->SMCR;
 8004d50:	687b      	ldr	r3, [r7, #4]
 8004d52:	681b      	ldr	r3, [r3, #0]
 8004d54:	689b      	ldr	r3, [r3, #8]
 8004d56:	60bb      	str	r3, [r7, #8]

  /* Reset the MMS Bits */
  tmpcr2 &= ~TIM_CR2_MMS;
 8004d58:	68fb      	ldr	r3, [r7, #12]
 8004d5a:	f023 0370 	bic.w	r3, r3, #112	; 0x70
 8004d5e:	60fb      	str	r3, [r7, #12]
  /* Select the TRGO source */
  tmpcr2 |=  sMasterConfig->MasterOutputTrigger;
 8004d60:	683b      	ldr	r3, [r7, #0]
 8004d62:	681b      	ldr	r3, [r3, #0]
 8004d64:	68fa      	ldr	r2, [r7, #12]
 8004d66:	4313      	orrs	r3, r2
 8004d68:	60fb      	str	r3, [r7, #12]

  /* Update TIMx CR2 */
  htim->Instance->CR2 = tmpcr2;
 8004d6a:	687b      	ldr	r3, [r7, #4]
 8004d6c:	681b      	ldr	r3, [r3, #0]
 8004d6e:	68fa      	ldr	r2, [r7, #12]
 8004d70:	605a      	str	r2, [r3, #4]

  if (IS_TIM_SLAVE_INSTANCE(htim->Instance))
 8004d72:	687b      	ldr	r3, [r7, #4]
 8004d74:	681b      	ldr	r3, [r3, #0]
 8004d76:	4a21      	ldr	r2, [pc, #132]	; (8004dfc <HAL_TIMEx_MasterConfigSynchronization+0xdc>)
 8004d78:	4293      	cmp	r3, r2
 8004d7a:	d022      	beq.n	8004dc2 <HAL_TIMEx_MasterConfigSynchronization+0xa2>
 8004d7c:	687b      	ldr	r3, [r7, #4]
 8004d7e:	681b      	ldr	r3, [r3, #0]
 8004d80:	f1b3 4f80 	cmp.w	r3, #1073741824	; 0x40000000
 8004d84:	d01d      	beq.n	8004dc2 <HAL_TIMEx_MasterConfigSynchronization+0xa2>
 8004d86:	687b      	ldr	r3, [r7, #4]
 8004d88:	681b      	ldr	r3, [r3, #0]
 8004d8a:	4a1d      	ldr	r2, [pc, #116]	; (8004e00 <HAL_TIMEx_MasterConfigSynchronization+0xe0>)
 8004d8c:	4293      	cmp	r3, r2
 8004d8e:	d018      	beq.n	8004dc2 <HAL_TIMEx_MasterConfigSynchronization+0xa2>
 8004d90:	687b      	ldr	r3, [r7, #4]
 8004d92:	681b      	ldr	r3, [r3, #0]
 8004d94:	4a1b      	ldr	r2, [pc, #108]	; (8004e04 <HAL_TIMEx_MasterConfigSynchronization+0xe4>)
 8004d96:	4293      	cmp	r3, r2
 8004d98:	d013      	beq.n	8004dc2 <HAL_TIMEx_MasterConfigSynchronization+0xa2>
 8004d9a:	687b      	ldr	r3, [r7, #4]
 8004d9c:	681b      	ldr	r3, [r3, #0]
 8004d9e:	4a1a      	ldr	r2, [pc, #104]	; (8004e08 <HAL_TIMEx_MasterConfigSynchronization+0xe8>)
 8004da0:	4293      	cmp	r3, r2
 8004da2:	d00e      	beq.n	8004dc2 <HAL_TIMEx_MasterConfigSynchronization+0xa2>
 8004da4:	687b      	ldr	r3, [r7, #4]
 8004da6:	681b      	ldr	r3, [r3, #0]
 8004da8:	4a18      	ldr	r2, [pc, #96]	; (8004e0c <HAL_TIMEx_MasterConfigSynchronization+0xec>)
 8004daa:	4293      	cmp	r3, r2
 8004dac:	d009      	beq.n	8004dc2 <HAL_TIMEx_MasterConfigSynchronization+0xa2>
 8004dae:	687b      	ldr	r3, [r7, #4]
 8004db0:	681b      	ldr	r3, [r3, #0]
 8004db2:	4a17      	ldr	r2, [pc, #92]	; (8004e10 <HAL_TIMEx_MasterConfigSynchronization+0xf0>)
 8004db4:	4293      	cmp	r3, r2
 8004db6:	d004      	beq.n	8004dc2 <HAL_TIMEx_MasterConfigSynchronization+0xa2>
 8004db8:	687b      	ldr	r3, [r7, #4]
 8004dba:	681b      	ldr	r3, [r3, #0]
 8004dbc:	4a15      	ldr	r2, [pc, #84]	; (8004e14 <HAL_TIMEx_MasterConfigSynchronization+0xf4>)
 8004dbe:	4293      	cmp	r3, r2
 8004dc0:	d10c      	bne.n	8004ddc <HAL_TIMEx_MasterConfigSynchronization+0xbc>
  {
    /* Reset the MSM Bit */
    tmpsmcr &= ~TIM_SMCR_MSM;
 8004dc2:	68bb      	ldr	r3, [r7, #8]
 8004dc4:	f023 0380 	bic.w	r3, r3, #128	; 0x80
 8004dc8:	60bb      	str	r3, [r7, #8]
    /* Set master mode */
    tmpsmcr |= sMasterConfig->MasterSlaveMode;
 8004dca:	683b      	ldr	r3, [r7, #0]
 8004dcc:	685b      	ldr	r3, [r3, #4]
 8004dce:	68ba      	ldr	r2, [r7, #8]
 8004dd0:	4313      	orrs	r3, r2
 8004dd2:	60bb      	str	r3, [r7, #8]

    /* Update TIMx SMCR */
    htim->Instance->SMCR = tmpsmcr;
 8004dd4:	687b      	ldr	r3, [r7, #4]
 8004dd6:	681b      	ldr	r3, [r3, #0]
 8004dd8:	68ba      	ldr	r2, [r7, #8]
 8004dda:	609a      	str	r2, [r3, #8]
  }

  /* Change the htim state */
  htim->State = HAL_TIM_STATE_READY;
 8004ddc:	687b      	ldr	r3, [r7, #4]
 8004dde:	2201      	movs	r2, #1
 8004de0:	f883 203d 	strb.w	r2, [r3, #61]	; 0x3d

  __HAL_UNLOCK(htim);
 8004de4:	687b      	ldr	r3, [r7, #4]
 8004de6:	2200      	movs	r2, #0
 8004de8:	f883 203c 	strb.w	r2, [r3, #60]	; 0x3c

  return HAL_OK;
 8004dec:	2300      	movs	r3, #0
}
 8004dee:	4618      	mov	r0, r3
 8004df0:	3714      	adds	r7, #20
 8004df2:	46bd      	mov	sp, r7
 8004df4:	f85d 7b04 	ldr.w	r7, [sp], #4
 8004df8:	4770      	bx	lr
 8004dfa:	bf00      	nop
 8004dfc:	40010000 	.word	0x40010000
 8004e00:	40000400 	.word	0x40000400
 8004e04:	40000800 	.word	0x40000800
 8004e08:	40000c00 	.word	0x40000c00
 8004e0c:	40010400 	.word	0x40010400
 8004e10:	40014000 	.word	0x40014000
 8004e14:	40001800 	.word	0x40001800

08004e18 <HAL_TIMEx_ConfigBreakDeadTime>:
  *         interrupt can be enabled by calling the @ref __HAL_TIM_ENABLE_IT macro.
  * @retval HAL status
  */
HAL_StatusTypeDef HAL_TIMEx_ConfigBreakDeadTime(TIM_HandleTypeDef *htim,
                                                TIM_BreakDeadTimeConfigTypeDef *sBreakDeadTimeConfig)
{
 8004e18:	b480      	push	{r7}
 8004e1a:	b085      	sub	sp, #20
 8004e1c:	af00      	add	r7, sp, #0
 8004e1e:	6078      	str	r0, [r7, #4]
 8004e20:	6039      	str	r1, [r7, #0]
  /* Keep this variable initialized to 0 as it is used to configure BDTR register */
  uint32_t tmpbdtr = 0U;
 8004e22:	2300      	movs	r3, #0
 8004e24:	60fb      	str	r3, [r7, #12]
  assert_param(IS_TIM_BREAK_STATE(sBreakDeadTimeConfig->BreakState));
  assert_param(IS_TIM_BREAK_POLARITY(sBreakDeadTimeConfig->BreakPolarity));
  assert_param(IS_TIM_AUTOMATIC_OUTPUT_STATE(sBreakDeadTimeConfig->AutomaticOutput));

  /* Check input state */
  __HAL_LOCK(htim);
 8004e26:	687b      	ldr	r3, [r7, #4]
 8004e28:	f893 303c 	ldrb.w	r3, [r3, #60]	; 0x3c
 8004e2c:	2b01      	cmp	r3, #1
 8004e2e:	d101      	bne.n	8004e34 <HAL_TIMEx_ConfigBreakDeadTime+0x1c>
 8004e30:	2302      	movs	r3, #2
 8004e32:	e03d      	b.n	8004eb0 <HAL_TIMEx_ConfigBreakDeadTime+0x98>
 8004e34:	687b      	ldr	r3, [r7, #4]
 8004e36:	2201      	movs	r2, #1
 8004e38:	f883 203c 	strb.w	r2, [r3, #60]	; 0x3c

  /* Set the Lock level, the Break enable Bit and the Polarity, the OSSR State,
     the OSSI State, the dead time value and the Automatic Output Enable Bit */

  /* Set the BDTR bits */
  MODIFY_REG(tmpbdtr, TIM_BDTR_DTG, sBreakDeadTimeConfig->DeadTime);
 8004e3c:	68fb      	ldr	r3, [r7, #12]
 8004e3e:	f023 02ff 	bic.w	r2, r3, #255	; 0xff
 8004e42:	683b      	ldr	r3, [r7, #0]
 8004e44:	68db      	ldr	r3, [r3, #12]
 8004e46:	4313      	orrs	r3, r2
 8004e48:	60fb      	str	r3, [r7, #12]
  MODIFY_REG(tmpbdtr, TIM_BDTR_LOCK, sBreakDeadTimeConfig->LockLevel);
 8004e4a:	68fb      	ldr	r3, [r7, #12]
 8004e4c:	f423 7240 	bic.w	r2, r3, #768	; 0x300
 8004e50:	683b      	ldr	r3, [r7, #0]
 8004e52:	689b      	ldr	r3, [r3, #8]
 8004e54:	4313      	orrs	r3, r2
 8004e56:	60fb      	str	r3, [r7, #12]
  MODIFY_REG(tmpbdtr, TIM_BDTR_OSSI, sBreakDeadTimeConfig->OffStateIDLEMode);
 8004e58:	68fb      	ldr	r3, [r7, #12]
 8004e5a:	f423 6280 	bic.w	r2, r3, #1024	; 0x400
 8004e5e:	683b      	ldr	r3, [r7, #0]
 8004e60:	685b      	ldr	r3, [r3, #4]
 8004e62:	4313      	orrs	r3, r2
 8004e64:	60fb      	str	r3, [r7, #12]
  MODIFY_REG(tmpbdtr, TIM_BDTR_OSSR, sBreakDeadTimeConfig->OffStateRunMode);
 8004e66:	68fb      	ldr	r3, [r7, #12]
 8004e68:	f423 6200 	bic.w	r2, r3, #2048	; 0x800
 8004e6c:	683b      	ldr	r3, [r7, #0]
 8004e6e:	681b      	ldr	r3, [r3, #0]
 8004e70:	4313      	orrs	r3, r2
 8004e72:	60fb      	str	r3, [r7, #12]
  MODIFY_REG(tmpbdtr, TIM_BDTR_BKE, sBreakDeadTimeConfig->BreakState);
 8004e74:	68fb      	ldr	r3, [r7, #12]
 8004e76:	f423 5280 	bic.w	r2, r3, #4096	; 0x1000
 8004e7a:	683b      	ldr	r3, [r7, #0]
 8004e7c:	691b      	ldr	r3, [r3, #16]
 8004e7e:	4313      	orrs	r3, r2
 8004e80:	60fb      	str	r3, [r7, #12]
  MODIFY_REG(tmpbdtr, TIM_BDTR_BKP, sBreakDeadTimeConfig->BreakPolarity);
 8004e82:	68fb      	ldr	r3, [r7, #12]
 8004e84:	f423 5200 	bic.w	r2, r3, #8192	; 0x2000
 8004e88:	683b      	ldr	r3, [r7, #0]
 8004e8a:	695b      	ldr	r3, [r3, #20]
 8004e8c:	4313      	orrs	r3, r2
 8004e8e:	60fb      	str	r3, [r7, #12]
  MODIFY_REG(tmpbdtr, TIM_BDTR_AOE, sBreakDeadTimeConfig->AutomaticOutput);
 8004e90:	68fb      	ldr	r3, [r7, #12]
 8004e92:	f423 4280 	bic.w	r2, r3, #16384	; 0x4000
 8004e96:	683b      	ldr	r3, [r7, #0]
 8004e98:	69db      	ldr	r3, [r3, #28]
 8004e9a:	4313      	orrs	r3, r2
 8004e9c:	60fb      	str	r3, [r7, #12]


  /* Set TIMx_BDTR */
  htim->Instance->BDTR = tmpbdtr;
 8004e9e:	687b      	ldr	r3, [r7, #4]
 8004ea0:	681b      	ldr	r3, [r3, #0]
 8004ea2:	68fa      	ldr	r2, [r7, #12]
 8004ea4:	645a      	str	r2, [r3, #68]	; 0x44

  __HAL_UNLOCK(htim);
 8004ea6:	687b      	ldr	r3, [r7, #4]
 8004ea8:	2200      	movs	r2, #0
 8004eaa:	f883 203c 	strb.w	r2, [r3, #60]	; 0x3c

  return HAL_OK;
 8004eae:	2300      	movs	r3, #0
}
 8004eb0:	4618      	mov	r0, r3
 8004eb2:	3714      	adds	r7, #20
 8004eb4:	46bd      	mov	sp, r7
 8004eb6:	f85d 7b04 	ldr.w	r7, [sp], #4
 8004eba:	4770      	bx	lr

08004ebc <HAL_TIMEx_CommutCallback>:
  * @brief  Hall commutation changed callback in non-blocking mode
  * @param  htim TIM handle
  * @retval None
  */
__weak void HAL_TIMEx_CommutCallback(TIM_HandleTypeDef *htim)
{
 8004ebc:	b480      	push	{r7}
 8004ebe:	b083      	sub	sp, #12
 8004ec0:	af00      	add	r7, sp, #0
 8004ec2:	6078      	str	r0, [r7, #4]
  UNUSED(htim);

  /* NOTE : This function should not be modified, when the callback is needed,
            the HAL_TIMEx_CommutCallback could be implemented in the user file
   */
}
 8004ec4:	bf00      	nop
 8004ec6:	370c      	adds	r7, #12
 8004ec8:	46bd      	mov	sp, r7
 8004eca:	f85d 7b04 	ldr.w	r7, [sp], #4
 8004ece:	4770      	bx	lr

08004ed0 <HAL_TIMEx_BreakCallback>:
  * @brief  Hall Break detection callback in non-blocking mode
  * @param  htim TIM handle
  * @retval None
  */
__weak void HAL_TIMEx_BreakCallback(TIM_HandleTypeDef *htim)
{
 8004ed0:	b480      	push	{r7}
 8004ed2:	b083      	sub	sp, #12
 8004ed4:	af00      	add	r7, sp, #0
 8004ed6:	6078      	str	r0, [r7, #4]
  UNUSED(htim);

  /* NOTE : This function should not be modified, when the callback is needed,
            the HAL_TIMEx_BreakCallback could be implemented in the user file
   */
}
 8004ed8:	bf00      	nop
 8004eda:	370c      	adds	r7, #12
 8004edc:	46bd      	mov	sp, r7
 8004ede:	f85d 7b04 	ldr.w	r7, [sp], #4
 8004ee2:	4770      	bx	lr

08004ee4 <HAL_UART_Init>:
  * @param  huart  Pointer to a UART_HandleTypeDef structure that contains
  *                the configuration information for the specified UART module.
  * @retval HAL status
  */
HAL_StatusTypeDef HAL_UART_Init(UART_HandleTypeDef *huart)
{
 8004ee4:	b580      	push	{r7, lr}
 8004ee6:	b082      	sub	sp, #8
 8004ee8:	af00      	add	r7, sp, #0
 8004eea:	6078      	str	r0, [r7, #4]
  /* Check the UART handle allocation */
  if (huart == NULL)
 8004eec:	687b      	ldr	r3, [r7, #4]
 8004eee:	2b00      	cmp	r3, #0
 8004ef0:	d101      	bne.n	8004ef6 <HAL_UART_Init+0x12>
  {
    return HAL_ERROR;
 8004ef2:	2301      	movs	r3, #1
 8004ef4:	e03f      	b.n	8004f76 <HAL_UART_Init+0x92>
    assert_param(IS_UART_INSTANCE(huart->Instance));
  }
  assert_param(IS_UART_WORD_LENGTH(huart->Init.WordLength));
  assert_param(IS_UART_OVERSAMPLING(huart->Init.OverSampling));

  if (huart->gState == HAL_UART_STATE_RESET)
 8004ef6:	687b      	ldr	r3, [r7, #4]
 8004ef8:	f893 303d 	ldrb.w	r3, [r3, #61]	; 0x3d
 8004efc:	b2db      	uxtb	r3, r3
 8004efe:	2b00      	cmp	r3, #0
 8004f00:	d106      	bne.n	8004f10 <HAL_UART_Init+0x2c>
  {
    /* Allocate lock resource and initialize it */
    huart->Lock = HAL_UNLOCKED;
 8004f02:	687b      	ldr	r3, [r7, #4]
 8004f04:	2200      	movs	r2, #0
 8004f06:	f883 203c 	strb.w	r2, [r3, #60]	; 0x3c

    /* Init the low level hardware */
    huart->MspInitCallback(huart);
#else
    /* Init the low level hardware : GPIO, CLOCK */
    HAL_UART_MspInit(huart);
 8004f0a:	6878      	ldr	r0, [r7, #4]
 8004f0c:	f7fd f9a4 	bl	8002258 <HAL_UART_MspInit>
#endif /* (USE_HAL_UART_REGISTER_CALLBACKS) */
  }

  huart->gState = HAL_UART_STATE_BUSY;
 8004f10:	687b      	ldr	r3, [r7, #4]
 8004f12:	2224      	movs	r2, #36	; 0x24
 8004f14:	f883 203d 	strb.w	r2, [r3, #61]	; 0x3d

  /* Disable the peripheral */
  __HAL_UART_DISABLE(huart);
 8004f18:	687b      	ldr	r3, [r7, #4]
 8004f1a:	681b      	ldr	r3, [r3, #0]
 8004f1c:	68da      	ldr	r2, [r3, #12]
 8004f1e:	687b      	ldr	r3, [r7, #4]
 8004f20:	681b      	ldr	r3, [r3, #0]
 8004f22:	f422 5200 	bic.w	r2, r2, #8192	; 0x2000
 8004f26:	60da      	str	r2, [r3, #12]

  /* Set the UART Communication parameters */
  UART_SetConfig(huart);
 8004f28:	6878      	ldr	r0, [r7, #4]
 8004f2a:	f000 f929 	bl	8005180 <UART_SetConfig>

  /* In asynchronous mode, the following bits must be kept cleared:
     - LINEN and CLKEN bits in the USART_CR2 register,
     - SCEN, HDSEL and IREN  bits in the USART_CR3 register.*/
  CLEAR_BIT(huart->Instance->CR2, (USART_CR2_LINEN | USART_CR2_CLKEN));
 8004f2e:	687b      	ldr	r3, [r7, #4]
 8004f30:	681b      	ldr	r3, [r3, #0]
 8004f32:	691a      	ldr	r2, [r3, #16]
 8004f34:	687b      	ldr	r3, [r7, #4]
 8004f36:	681b      	ldr	r3, [r3, #0]
 8004f38:	f422 4290 	bic.w	r2, r2, #18432	; 0x4800
 8004f3c:	611a      	str	r2, [r3, #16]
  CLEAR_BIT(huart->Instance->CR3, (USART_CR3_SCEN | USART_CR3_HDSEL | USART_CR3_IREN));
 8004f3e:	687b      	ldr	r3, [r7, #4]
 8004f40:	681b      	ldr	r3, [r3, #0]
 8004f42:	695a      	ldr	r2, [r3, #20]
 8004f44:	687b      	ldr	r3, [r7, #4]
 8004f46:	681b      	ldr	r3, [r3, #0]
 8004f48:	f022 022a 	bic.w	r2, r2, #42	; 0x2a
 8004f4c:	615a      	str	r2, [r3, #20]

  /* Enable the peripheral */
  __HAL_UART_ENABLE(huart);
 8004f4e:	687b      	ldr	r3, [r7, #4]
 8004f50:	681b      	ldr	r3, [r3, #0]
 8004f52:	68da      	ldr	r2, [r3, #12]
 8004f54:	687b      	ldr	r3, [r7, #4]
 8004f56:	681b      	ldr	r3, [r3, #0]
 8004f58:	f442 5200 	orr.w	r2, r2, #8192	; 0x2000
 8004f5c:	60da      	str	r2, [r3, #12]

  /* Initialize the UART state */
  huart->ErrorCode = HAL_UART_ERROR_NONE;
 8004f5e:	687b      	ldr	r3, [r7, #4]
 8004f60:	2200      	movs	r2, #0
 8004f62:	641a      	str	r2, [r3, #64]	; 0x40
  huart->gState = HAL_UART_STATE_READY;
 8004f64:	687b      	ldr	r3, [r7, #4]
 8004f66:	2220      	movs	r2, #32
 8004f68:	f883 203d 	strb.w	r2, [r3, #61]	; 0x3d
  huart->RxState = HAL_UART_STATE_READY;
 8004f6c:	687b      	ldr	r3, [r7, #4]
 8004f6e:	2220      	movs	r2, #32
 8004f70:	f883 203e 	strb.w	r2, [r3, #62]	; 0x3e

  return HAL_OK;
 8004f74:	2300      	movs	r3, #0
}
 8004f76:	4618      	mov	r0, r3
 8004f78:	3708      	adds	r7, #8
 8004f7a:	46bd      	mov	sp, r7
 8004f7c:	bd80      	pop	{r7, pc}

08004f7e <HAL_UART_Transmit>:
  * @param  Size  Amount of data elements (u8 or u16) to be sent
  * @param  Timeout Timeout duration
  * @retval HAL status
  */
HAL_StatusTypeDef HAL_UART_Transmit(UART_HandleTypeDef *huart, uint8_t *pData, uint16_t Size, uint32_t Timeout)
{
 8004f7e:	b580      	push	{r7, lr}
 8004f80:	b08a      	sub	sp, #40	; 0x28
 8004f82:	af02      	add	r7, sp, #8
 8004f84:	60f8      	str	r0, [r7, #12]
 8004f86:	60b9      	str	r1, [r7, #8]
 8004f88:	603b      	str	r3, [r7, #0]
 8004f8a:	4613      	mov	r3, r2
 8004f8c:	80fb      	strh	r3, [r7, #6]
  uint8_t  *pdata8bits;
  uint16_t *pdata16bits;
  uint32_t tickstart = 0U;
 8004f8e:	2300      	movs	r3, #0
 8004f90:	617b      	str	r3, [r7, #20]

  /* Check that a Tx process is not already ongoing */
  if (huart->gState == HAL_UART_STATE_READY)
 8004f92:	68fb      	ldr	r3, [r7, #12]
 8004f94:	f893 303d 	ldrb.w	r3, [r3, #61]	; 0x3d
 8004f98:	b2db      	uxtb	r3, r3
 8004f9a:	2b20      	cmp	r3, #32
 8004f9c:	d17c      	bne.n	8005098 <HAL_UART_Transmit+0x11a>
  {
    if ((pData == NULL) || (Size == 0U))
 8004f9e:	68bb      	ldr	r3, [r7, #8]
 8004fa0:	2b00      	cmp	r3, #0
 8004fa2:	d002      	beq.n	8004faa <HAL_UART_Transmit+0x2c>
 8004fa4:	88fb      	ldrh	r3, [r7, #6]
 8004fa6:	2b00      	cmp	r3, #0
 8004fa8:	d101      	bne.n	8004fae <HAL_UART_Transmit+0x30>
    {
      return  HAL_ERROR;
 8004faa:	2301      	movs	r3, #1
 8004fac:	e075      	b.n	800509a <HAL_UART_Transmit+0x11c>
    }

    /* Process Locked */
    __HAL_LOCK(huart);
 8004fae:	68fb      	ldr	r3, [r7, #12]
 8004fb0:	f893 303c 	ldrb.w	r3, [r3, #60]	; 0x3c
 8004fb4:	2b01      	cmp	r3, #1
 8004fb6:	d101      	bne.n	8004fbc <HAL_UART_Transmit+0x3e>
 8004fb8:	2302      	movs	r3, #2
 8004fba:	e06e      	b.n	800509a <HAL_UART_Transmit+0x11c>
 8004fbc:	68fb      	ldr	r3, [r7, #12]
 8004fbe:	2201      	movs	r2, #1
 8004fc0:	f883 203c 	strb.w	r2, [r3, #60]	; 0x3c

    huart->ErrorCode = HAL_UART_ERROR_NONE;
 8004fc4:	68fb      	ldr	r3, [r7, #12]
 8004fc6:	2200      	movs	r2, #0
 8004fc8:	641a      	str	r2, [r3, #64]	; 0x40
    huart->gState = HAL_UART_STATE_BUSY_TX;
 8004fca:	68fb      	ldr	r3, [r7, #12]
 8004fcc:	2221      	movs	r2, #33	; 0x21
 8004fce:	f883 203d 	strb.w	r2, [r3, #61]	; 0x3d

    /* Init tickstart for timeout management */
    tickstart = HAL_GetTick();
 8004fd2:	f7fd fb27 	bl	8002624 <HAL_GetTick>
 8004fd6:	6178      	str	r0, [r7, #20]

    huart->TxXferSize = Size;
 8004fd8:	68fb      	ldr	r3, [r7, #12]
 8004fda:	88fa      	ldrh	r2, [r7, #6]
 8004fdc:	849a      	strh	r2, [r3, #36]	; 0x24
    huart->TxXferCount = Size;
 8004fde:	68fb      	ldr	r3, [r7, #12]
 8004fe0:	88fa      	ldrh	r2, [r7, #6]
 8004fe2:	84da      	strh	r2, [r3, #38]	; 0x26

    /* In case of 9bits/No Parity transfer, pData needs to be handled as a uint16_t pointer */
    if ((huart->Init.WordLength == UART_WORDLENGTH_9B) && (huart->Init.Parity == UART_PARITY_NONE))
 8004fe4:	68fb      	ldr	r3, [r7, #12]
 8004fe6:	689b      	ldr	r3, [r3, #8]
 8004fe8:	f5b3 5f80 	cmp.w	r3, #4096	; 0x1000
 8004fec:	d108      	bne.n	8005000 <HAL_UART_Transmit+0x82>
 8004fee:	68fb      	ldr	r3, [r7, #12]
 8004ff0:	691b      	ldr	r3, [r3, #16]
 8004ff2:	2b00      	cmp	r3, #0
 8004ff4:	d104      	bne.n	8005000 <HAL_UART_Transmit+0x82>
    {
      pdata8bits  = NULL;
 8004ff6:	2300      	movs	r3, #0
 8004ff8:	61fb      	str	r3, [r7, #28]
      pdata16bits = (uint16_t *) pData;
 8004ffa:	68bb      	ldr	r3, [r7, #8]
 8004ffc:	61bb      	str	r3, [r7, #24]
 8004ffe:	e003      	b.n	8005008 <HAL_UART_Transmit+0x8a>
    }
    else
    {
      pdata8bits  = pData;
 8005000:	68bb      	ldr	r3, [r7, #8]
 8005002:	61fb      	str	r3, [r7, #28]
      pdata16bits = NULL;
 8005004:	2300      	movs	r3, #0
 8005006:	61bb      	str	r3, [r7, #24]
    }

    /* Process Unlocked */
    __HAL_UNLOCK(huart);
 8005008:	68fb      	ldr	r3, [r7, #12]
 800500a:	2200      	movs	r2, #0
 800500c:	f883 203c 	strb.w	r2, [r3, #60]	; 0x3c

    while (huart->TxXferCount > 0U)
 8005010:	e02a      	b.n	8005068 <HAL_UART_Transmit+0xea>
    {
      if (UART_WaitOnFlagUntilTimeout(huart, UART_FLAG_TXE, RESET, tickstart, Timeout) != HAL_OK)
 8005012:	683b      	ldr	r3, [r7, #0]
 8005014:	9300      	str	r3, [sp, #0]
 8005016:	697b      	ldr	r3, [r7, #20]
 8005018:	2200      	movs	r2, #0
 800501a:	2180      	movs	r1, #128	; 0x80
 800501c:	68f8      	ldr	r0, [r7, #12]
 800501e:	f000 f840 	bl	80050a2 <UART_WaitOnFlagUntilTimeout>
 8005022:	4603      	mov	r3, r0
 8005024:	2b00      	cmp	r3, #0
 8005026:	d001      	beq.n	800502c <HAL_UART_Transmit+0xae>
      {
        return HAL_TIMEOUT;
 8005028:	2303      	movs	r3, #3
 800502a:	e036      	b.n	800509a <HAL_UART_Transmit+0x11c>
      }
      if (pdata8bits == NULL)
 800502c:	69fb      	ldr	r3, [r7, #28]
 800502e:	2b00      	cmp	r3, #0
 8005030:	d10b      	bne.n	800504a <HAL_UART_Transmit+0xcc>
      {
        huart->Instance->DR = (uint16_t)(*pdata16bits & 0x01FFU);
 8005032:	69bb      	ldr	r3, [r7, #24]
 8005034:	881b      	ldrh	r3, [r3, #0]
 8005036:	461a      	mov	r2, r3
 8005038:	68fb      	ldr	r3, [r7, #12]
 800503a:	681b      	ldr	r3, [r3, #0]
 800503c:	f3c2 0208 	ubfx	r2, r2, #0, #9
 8005040:	605a      	str	r2, [r3, #4]
        pdata16bits++;
 8005042:	69bb      	ldr	r3, [r7, #24]
 8005044:	3302      	adds	r3, #2
 8005046:	61bb      	str	r3, [r7, #24]
 8005048:	e007      	b.n	800505a <HAL_UART_Transmit+0xdc>
      }
      else
      {
        huart->Instance->DR = (uint8_t)(*pdata8bits & 0xFFU);
 800504a:	69fb      	ldr	r3, [r7, #28]
 800504c:	781a      	ldrb	r2, [r3, #0]
 800504e:	68fb      	ldr	r3, [r7, #12]
 8005050:	681b      	ldr	r3, [r3, #0]
 8005052:	605a      	str	r2, [r3, #4]
        pdata8bits++;
 8005054:	69fb      	ldr	r3, [r7, #28]
 8005056:	3301      	adds	r3, #1
 8005058:	61fb      	str	r3, [r7, #28]
      }
      huart->TxXferCount--;
 800505a:	68fb      	ldr	r3, [r7, #12]
 800505c:	8cdb      	ldrh	r3, [r3, #38]	; 0x26
 800505e:	b29b      	uxth	r3, r3
 8005060:	3b01      	subs	r3, #1
 8005062:	b29a      	uxth	r2, r3
 8005064:	68fb      	ldr	r3, [r7, #12]
 8005066:	84da      	strh	r2, [r3, #38]	; 0x26
    while (huart->TxXferCount > 0U)
 8005068:	68fb      	ldr	r3, [r7, #12]
 800506a:	8cdb      	ldrh	r3, [r3, #38]	; 0x26
 800506c:	b29b      	uxth	r3, r3
 800506e:	2b00      	cmp	r3, #0
 8005070:	d1cf      	bne.n	8005012 <HAL_UART_Transmit+0x94>
    }

    if (UART_WaitOnFlagUntilTimeout(huart, UART_FLAG_TC, RESET, tickstart, Timeout) != HAL_OK)
 8005072:	683b      	ldr	r3, [r7, #0]
 8005074:	9300      	str	r3, [sp, #0]
 8005076:	697b      	ldr	r3, [r7, #20]
 8005078:	2200      	movs	r2, #0
 800507a:	2140      	movs	r1, #64	; 0x40
 800507c:	68f8      	ldr	r0, [r7, #12]
 800507e:	f000 f810 	bl	80050a2 <UART_WaitOnFlagUntilTimeout>
 8005082:	4603      	mov	r3, r0
 8005084:	2b00      	cmp	r3, #0
 8005086:	d001      	beq.n	800508c <HAL_UART_Transmit+0x10e>
    {
      return HAL_TIMEOUT;
 8005088:	2303      	movs	r3, #3
 800508a:	e006      	b.n	800509a <HAL_UART_Transmit+0x11c>
    }

    /* At end of Tx process, restore huart->gState to Ready */
    huart->gState = HAL_UART_STATE_READY;
 800508c:	68fb      	ldr	r3, [r7, #12]
 800508e:	2220      	movs	r2, #32
 8005090:	f883 203d 	strb.w	r2, [r3, #61]	; 0x3d

    return HAL_OK;
 8005094:	2300      	movs	r3, #0
 8005096:	e000      	b.n	800509a <HAL_UART_Transmit+0x11c>
  }
  else
  {
    return HAL_BUSY;
 8005098:	2302      	movs	r3, #2
  }
}
 800509a:	4618      	mov	r0, r3
 800509c:	3720      	adds	r7, #32
 800509e:	46bd      	mov	sp, r7
 80050a0:	bd80      	pop	{r7, pc}

080050a2 <UART_WaitOnFlagUntilTimeout>:
  * @param  Timeout Timeout duration
  * @retval HAL status
  */
static HAL_StatusTypeDef UART_WaitOnFlagUntilTimeout(UART_HandleTypeDef *huart, uint32_t Flag, FlagStatus Status,
                                                     uint32_t Tickstart, uint32_t Timeout)
{
 80050a2:	b580      	push	{r7, lr}
 80050a4:	b090      	sub	sp, #64	; 0x40
 80050a6:	af00      	add	r7, sp, #0
 80050a8:	60f8      	str	r0, [r7, #12]
 80050aa:	60b9      	str	r1, [r7, #8]
 80050ac:	603b      	str	r3, [r7, #0]
 80050ae:	4613      	mov	r3, r2
 80050b0:	71fb      	strb	r3, [r7, #7]
  /* Wait until flag is set */
  while ((__HAL_UART_GET_FLAG(huart, Flag) ? SET : RESET) == Status)
 80050b2:	e050      	b.n	8005156 <UART_WaitOnFlagUntilTimeout+0xb4>
  {
    /* Check for the Timeout */
    if (Timeout != HAL_MAX_DELAY)
 80050b4:	6cbb      	ldr	r3, [r7, #72]	; 0x48
 80050b6:	f1b3 3fff 	cmp.w	r3, #4294967295	; 0xffffffff
 80050ba:	d04c      	beq.n	8005156 <UART_WaitOnFlagUntilTimeout+0xb4>
    {
      if ((Timeout == 0U) || ((HAL_GetTick() - Tickstart) > Timeout))
 80050bc:	6cbb      	ldr	r3, [r7, #72]	; 0x48
 80050be:	2b00      	cmp	r3, #0
 80050c0:	d007      	beq.n	80050d2 <UART_WaitOnFlagUntilTimeout+0x30>
 80050c2:	f7fd faaf 	bl	8002624 <HAL_GetTick>
 80050c6:	4602      	mov	r2, r0
 80050c8:	683b      	ldr	r3, [r7, #0]
 80050ca:	1ad3      	subs	r3, r2, r3
 80050cc:	6cba      	ldr	r2, [r7, #72]	; 0x48
 80050ce:	429a      	cmp	r2, r3
 80050d0:	d241      	bcs.n	8005156 <UART_WaitOnFlagUntilTimeout+0xb4>
      {
        /* Disable TXE, RXNE, PE and ERR (Frame error, noise error, overrun error) interrupts for the interrupt process */
        ATOMIC_CLEAR_BIT(huart->Instance->CR1, (USART_CR1_RXNEIE | USART_CR1_PEIE | USART_CR1_TXEIE));
 80050d2:	68fb      	ldr	r3, [r7, #12]
 80050d4:	681b      	ldr	r3, [r3, #0]
 80050d6:	330c      	adds	r3, #12
 80050d8:	62bb      	str	r3, [r7, #40]	; 0x28
 */
__STATIC_FORCEINLINE uint32_t __LDREXW(volatile uint32_t *addr)
{
    uint32_t result;

   __ASM volatile ("ldrex %0, %1" : "=r" (result) : "Q" (*addr) );
 80050da:	6abb      	ldr	r3, [r7, #40]	; 0x28
 80050dc:	e853 3f00 	ldrex	r3, [r3]
 80050e0:	627b      	str	r3, [r7, #36]	; 0x24
   return(result);
 80050e2:	6a7b      	ldr	r3, [r7, #36]	; 0x24
 80050e4:	f423 73d0 	bic.w	r3, r3, #416	; 0x1a0
 80050e8:	63fb      	str	r3, [r7, #60]	; 0x3c
 80050ea:	68fb      	ldr	r3, [r7, #12]
 80050ec:	681b      	ldr	r3, [r3, #0]
 80050ee:	330c      	adds	r3, #12
 80050f0:	6bfa      	ldr	r2, [r7, #60]	; 0x3c
 80050f2:	637a      	str	r2, [r7, #52]	; 0x34
 80050f4:	633b      	str	r3, [r7, #48]	; 0x30
 */
__STATIC_FORCEINLINE uint32_t __STREXW(uint32_t value, volatile uint32_t *addr)
{
   uint32_t result;

   __ASM volatile ("strex %0, %2, %1" : "=&r" (result), "=Q" (*addr) : "r" (value) );
 80050f6:	6b39      	ldr	r1, [r7, #48]	; 0x30
 80050f8:	6b7a      	ldr	r2, [r7, #52]	; 0x34
 80050fa:	e841 2300 	strex	r3, r2, [r1]
 80050fe:	62fb      	str	r3, [r7, #44]	; 0x2c
   return(result);
 8005100:	6afb      	ldr	r3, [r7, #44]	; 0x2c
 8005102:	2b00      	cmp	r3, #0
 8005104:	d1e5      	bne.n	80050d2 <UART_WaitOnFlagUntilTimeout+0x30>
        ATOMIC_CLEAR_BIT(huart->Instance->CR3, USART_CR3_EIE);
 8005106:	68fb      	ldr	r3, [r7, #12]
 8005108:	681b      	ldr	r3, [r3, #0]
 800510a:	3314      	adds	r3, #20
 800510c:	617b      	str	r3, [r7, #20]
   __ASM volatile ("ldrex %0, %1" : "=r" (result) : "Q" (*addr) );
 800510e:	697b      	ldr	r3, [r7, #20]
 8005110:	e853 3f00 	ldrex	r3, [r3]
 8005114:	613b      	str	r3, [r7, #16]
   return(result);
 8005116:	693b      	ldr	r3, [r7, #16]
 8005118:	f023 0301 	bic.w	r3, r3, #1
 800511c:	63bb      	str	r3, [r7, #56]	; 0x38
 800511e:	68fb      	ldr	r3, [r7, #12]
 8005120:	681b      	ldr	r3, [r3, #0]
 8005122:	3314      	adds	r3, #20
 8005124:	6bba      	ldr	r2, [r7, #56]	; 0x38
 8005126:	623a      	str	r2, [r7, #32]
 8005128:	61fb      	str	r3, [r7, #28]
   __ASM volatile ("strex %0, %2, %1" : "=&r" (result), "=Q" (*addr) : "r" (value) );
 800512a:	69f9      	ldr	r1, [r7, #28]
 800512c:	6a3a      	ldr	r2, [r7, #32]
 800512e:	e841 2300 	strex	r3, r2, [r1]
 8005132:	61bb      	str	r3, [r7, #24]
   return(result);
 8005134:	69bb      	ldr	r3, [r7, #24]
 8005136:	2b00      	cmp	r3, #0
 8005138:	d1e5      	bne.n	8005106 <UART_WaitOnFlagUntilTimeout+0x64>

        huart->gState  = HAL_UART_STATE_READY;
 800513a:	68fb      	ldr	r3, [r7, #12]
 800513c:	2220      	movs	r2, #32
 800513e:	f883 203d 	strb.w	r2, [r3, #61]	; 0x3d
        huart->RxState = HAL_UART_STATE_READY;
 8005142:	68fb      	ldr	r3, [r7, #12]
 8005144:	2220      	movs	r2, #32
 8005146:	f883 203e 	strb.w	r2, [r3, #62]	; 0x3e

        /* Process Unlocked */
        __HAL_UNLOCK(huart);
 800514a:	68fb      	ldr	r3, [r7, #12]
 800514c:	2200      	movs	r2, #0
 800514e:	f883 203c 	strb.w	r2, [r3, #60]	; 0x3c

        return HAL_TIMEOUT;
 8005152:	2303      	movs	r3, #3
 8005154:	e00f      	b.n	8005176 <UART_WaitOnFlagUntilTimeout+0xd4>
  while ((__HAL_UART_GET_FLAG(huart, Flag) ? SET : RESET) == Status)
 8005156:	68fb      	ldr	r3, [r7, #12]
 8005158:	681b      	ldr	r3, [r3, #0]
 800515a:	681a      	ldr	r2, [r3, #0]
 800515c:	68bb      	ldr	r3, [r7, #8]
 800515e:	4013      	ands	r3, r2
 8005160:	68ba      	ldr	r2, [r7, #8]
 8005162:	429a      	cmp	r2, r3
 8005164:	bf0c      	ite	eq
 8005166:	2301      	moveq	r3, #1
 8005168:	2300      	movne	r3, #0
 800516a:	b2db      	uxtb	r3, r3
 800516c:	461a      	mov	r2, r3
 800516e:	79fb      	ldrb	r3, [r7, #7]
 8005170:	429a      	cmp	r2, r3
 8005172:	d09f      	beq.n	80050b4 <UART_WaitOnFlagUntilTimeout+0x12>
      }
    }
  }
  return HAL_OK;
 8005174:	2300      	movs	r3, #0
}
 8005176:	4618      	mov	r0, r3
 8005178:	3740      	adds	r7, #64	; 0x40
 800517a:	46bd      	mov	sp, r7
 800517c:	bd80      	pop	{r7, pc}
	...

08005180 <UART_SetConfig>:
  * @param  huart  Pointer to a UART_HandleTypeDef structure that contains
  *                the configuration information for the specified UART module.
  * @retval None
  */
static void UART_SetConfig(UART_HandleTypeDef *huart)
{
 8005180:	e92d 4ff0 	stmdb	sp!, {r4, r5, r6, r7, r8, r9, sl, fp, lr}
 8005184:	b09f      	sub	sp, #124	; 0x7c
 8005186:	af00      	add	r7, sp, #0
 8005188:	66f8      	str	r0, [r7, #108]	; 0x6c
  assert_param(IS_UART_MODE(huart->Init.Mode));

  /*-------------------------- USART CR2 Configuration -----------------------*/
  /* Configure the UART Stop Bits: Set STOP[13:12] bits
     according to huart->Init.StopBits value */
  MODIFY_REG(huart->Instance->CR2, USART_CR2_STOP, huart->Init.StopBits);
 800518a:	6efb      	ldr	r3, [r7, #108]	; 0x6c
 800518c:	681b      	ldr	r3, [r3, #0]
 800518e:	691b      	ldr	r3, [r3, #16]
 8005190:	f423 5040 	bic.w	r0, r3, #12288	; 0x3000
 8005194:	6efb      	ldr	r3, [r7, #108]	; 0x6c
 8005196:	68d9      	ldr	r1, [r3, #12]
 8005198:	6efb      	ldr	r3, [r7, #108]	; 0x6c
 800519a:	681a      	ldr	r2, [r3, #0]
 800519c:	ea40 0301 	orr.w	r3, r0, r1
 80051a0:	6113      	str	r3, [r2, #16]
     Set the M bits according to huart->Init.WordLength value
     Set PCE and PS bits according to huart->Init.Parity value
     Set TE and RE bits according to huart->Init.Mode value
     Set OVER8 bit according to huart->Init.OverSampling value */

  tmpreg = (uint32_t)huart->Init.WordLength | huart->Init.Parity | huart->Init.Mode | huart->Init.OverSampling;
 80051a2:	6efb      	ldr	r3, [r7, #108]	; 0x6c
 80051a4:	689a      	ldr	r2, [r3, #8]
 80051a6:	6efb      	ldr	r3, [r7, #108]	; 0x6c
 80051a8:	691b      	ldr	r3, [r3, #16]
 80051aa:	431a      	orrs	r2, r3
 80051ac:	6efb      	ldr	r3, [r7, #108]	; 0x6c
 80051ae:	695b      	ldr	r3, [r3, #20]
 80051b0:	431a      	orrs	r2, r3
 80051b2:	6efb      	ldr	r3, [r7, #108]	; 0x6c
 80051b4:	69db      	ldr	r3, [r3, #28]
 80051b6:	4313      	orrs	r3, r2
 80051b8:	673b      	str	r3, [r7, #112]	; 0x70
  MODIFY_REG(huart->Instance->CR1,
 80051ba:	6efb      	ldr	r3, [r7, #108]	; 0x6c
 80051bc:	681b      	ldr	r3, [r3, #0]
 80051be:	68db      	ldr	r3, [r3, #12]
 80051c0:	f423 4116 	bic.w	r1, r3, #38400	; 0x9600
 80051c4:	f021 010c 	bic.w	r1, r1, #12
 80051c8:	6efb      	ldr	r3, [r7, #108]	; 0x6c
 80051ca:	681a      	ldr	r2, [r3, #0]
 80051cc:	6f3b      	ldr	r3, [r7, #112]	; 0x70
 80051ce:	430b      	orrs	r3, r1
 80051d0:	60d3      	str	r3, [r2, #12]
             (uint32_t)(USART_CR1_M | USART_CR1_PCE | USART_CR1_PS | USART_CR1_TE | USART_CR1_RE | USART_CR1_OVER8),
             tmpreg);

  /*-------------------------- USART CR3 Configuration -----------------------*/
  /* Configure the UART HFC: Set CTSE and RTSE bits according to huart->Init.HwFlowCtl value */
  MODIFY_REG(huart->Instance->CR3, (USART_CR3_RTSE | USART_CR3_CTSE), huart->Init.HwFlowCtl);
 80051d2:	6efb      	ldr	r3, [r7, #108]	; 0x6c
 80051d4:	681b      	ldr	r3, [r3, #0]
 80051d6:	695b      	ldr	r3, [r3, #20]
 80051d8:	f423 7040 	bic.w	r0, r3, #768	; 0x300
 80051dc:	6efb      	ldr	r3, [r7, #108]	; 0x6c
 80051de:	6999      	ldr	r1, [r3, #24]
 80051e0:	6efb      	ldr	r3, [r7, #108]	; 0x6c
 80051e2:	681a      	ldr	r2, [r3, #0]
 80051e4:	ea40 0301 	orr.w	r3, r0, r1
 80051e8:	6153      	str	r3, [r2, #20]
    if ((huart->Instance == USART1) || (huart->Instance == USART6) || (huart->Instance == UART9) || (huart->Instance == UART10))
    {
      pclk = HAL_RCC_GetPCLK2Freq();
    }
#elif defined(USART6)
    if ((huart->Instance == USART1) || (huart->Instance == USART6))
 80051ea:	6efb      	ldr	r3, [r7, #108]	; 0x6c
 80051ec:	681a      	ldr	r2, [r3, #0]
 80051ee:	4bc5      	ldr	r3, [pc, #788]	; (8005504 <UART_SetConfig+0x384>)
 80051f0:	429a      	cmp	r2, r3
 80051f2:	d004      	beq.n	80051fe <UART_SetConfig+0x7e>
 80051f4:	6efb      	ldr	r3, [r7, #108]	; 0x6c
 80051f6:	681a      	ldr	r2, [r3, #0]
 80051f8:	4bc3      	ldr	r3, [pc, #780]	; (8005508 <UART_SetConfig+0x388>)
 80051fa:	429a      	cmp	r2, r3
 80051fc:	d103      	bne.n	8005206 <UART_SetConfig+0x86>
    {
      pclk = HAL_RCC_GetPCLK2Freq();
 80051fe:	f7fd fe07 	bl	8002e10 <HAL_RCC_GetPCLK2Freq>
 8005202:	6778      	str	r0, [r7, #116]	; 0x74
 8005204:	e002      	b.n	800520c <UART_SetConfig+0x8c>
      pclk = HAL_RCC_GetPCLK2Freq();
    }
#endif /* USART6 */
    else
    {
      pclk = HAL_RCC_GetPCLK1Freq();
 8005206:	f7fd fdef 	bl	8002de8 <HAL_RCC_GetPCLK1Freq>
 800520a:	6778      	str	r0, [r7, #116]	; 0x74
    }
  /*-------------------------- USART BRR Configuration ---------------------*/
  if (huart->Init.OverSampling == UART_OVERSAMPLING_8)
 800520c:	6efb      	ldr	r3, [r7, #108]	; 0x6c
 800520e:	69db      	ldr	r3, [r3, #28]
 8005210:	f5b3 4f00 	cmp.w	r3, #32768	; 0x8000
 8005214:	f040 80b6 	bne.w	8005384 <UART_SetConfig+0x204>
  {
    huart->Instance->BRR = UART_BRR_SAMPLING8(pclk, huart->Init.BaudRate);
 8005218:	6f7b      	ldr	r3, [r7, #116]	; 0x74
 800521a:	461c      	mov	r4, r3
 800521c:	f04f 0500 	mov.w	r5, #0
 8005220:	4622      	mov	r2, r4
 8005222:	462b      	mov	r3, r5
 8005224:	1891      	adds	r1, r2, r2
 8005226:	6439      	str	r1, [r7, #64]	; 0x40
 8005228:	415b      	adcs	r3, r3
 800522a:	647b      	str	r3, [r7, #68]	; 0x44
 800522c:	e9d7 2310 	ldrd	r2, r3, [r7, #64]	; 0x40
 8005230:	1912      	adds	r2, r2, r4
 8005232:	eb45 0303 	adc.w	r3, r5, r3
 8005236:	f04f 0000 	mov.w	r0, #0
 800523a:	f04f 0100 	mov.w	r1, #0
 800523e:	00d9      	lsls	r1, r3, #3
 8005240:	ea41 7152 	orr.w	r1, r1, r2, lsr #29
 8005244:	00d0      	lsls	r0, r2, #3
 8005246:	4602      	mov	r2, r0
 8005248:	460b      	mov	r3, r1
 800524a:	1911      	adds	r1, r2, r4
 800524c:	6639      	str	r1, [r7, #96]	; 0x60
 800524e:	416b      	adcs	r3, r5
 8005250:	667b      	str	r3, [r7, #100]	; 0x64
 8005252:	6efb      	ldr	r3, [r7, #108]	; 0x6c
 8005254:	685b      	ldr	r3, [r3, #4]
 8005256:	461a      	mov	r2, r3
 8005258:	f04f 0300 	mov.w	r3, #0
 800525c:	1891      	adds	r1, r2, r2
 800525e:	63b9      	str	r1, [r7, #56]	; 0x38
 8005260:	415b      	adcs	r3, r3
 8005262:	63fb      	str	r3, [r7, #60]	; 0x3c
 8005264:	e9d7 230e 	ldrd	r2, r3, [r7, #56]	; 0x38
 8005268:	e9d7 0118 	ldrd	r0, r1, [r7, #96]	; 0x60
 800526c:	f7fb fd0c 	bl	8000c88 <__aeabi_uldivmod>
 8005270:	4602      	mov	r2, r0
 8005272:	460b      	mov	r3, r1
 8005274:	4ba5      	ldr	r3, [pc, #660]	; (800550c <UART_SetConfig+0x38c>)
 8005276:	fba3 2302 	umull	r2, r3, r3, r2
 800527a:	095b      	lsrs	r3, r3, #5
 800527c:	011e      	lsls	r6, r3, #4
 800527e:	6f7b      	ldr	r3, [r7, #116]	; 0x74
 8005280:	461c      	mov	r4, r3
 8005282:	f04f 0500 	mov.w	r5, #0
 8005286:	4622      	mov	r2, r4
 8005288:	462b      	mov	r3, r5
 800528a:	1891      	adds	r1, r2, r2
 800528c:	6339      	str	r1, [r7, #48]	; 0x30
 800528e:	415b      	adcs	r3, r3
 8005290:	637b      	str	r3, [r7, #52]	; 0x34
 8005292:	e9d7 230c 	ldrd	r2, r3, [r7, #48]	; 0x30
 8005296:	1912      	adds	r2, r2, r4
 8005298:	eb45 0303 	adc.w	r3, r5, r3
 800529c:	f04f 0000 	mov.w	r0, #0
 80052a0:	f04f 0100 	mov.w	r1, #0
 80052a4:	00d9      	lsls	r1, r3, #3
 80052a6:	ea41 7152 	orr.w	r1, r1, r2, lsr #29
 80052aa:	00d0      	lsls	r0, r2, #3
 80052ac:	4602      	mov	r2, r0
 80052ae:	460b      	mov	r3, r1
 80052b0:	1911      	adds	r1, r2, r4
 80052b2:	65b9      	str	r1, [r7, #88]	; 0x58
 80052b4:	416b      	adcs	r3, r5
 80052b6:	65fb      	str	r3, [r7, #92]	; 0x5c
 80052b8:	6efb      	ldr	r3, [r7, #108]	; 0x6c
 80052ba:	685b      	ldr	r3, [r3, #4]
 80052bc:	461a      	mov	r2, r3
 80052be:	f04f 0300 	mov.w	r3, #0
 80052c2:	1891      	adds	r1, r2, r2
 80052c4:	62b9      	str	r1, [r7, #40]	; 0x28
 80052c6:	415b      	adcs	r3, r3
 80052c8:	62fb      	str	r3, [r7, #44]	; 0x2c
 80052ca:	e9d7 230a 	ldrd	r2, r3, [r7, #40]	; 0x28
 80052ce:	e9d7 0116 	ldrd	r0, r1, [r7, #88]	; 0x58
 80052d2:	f7fb fcd9 	bl	8000c88 <__aeabi_uldivmod>
 80052d6:	4602      	mov	r2, r0
 80052d8:	460b      	mov	r3, r1
 80052da:	4b8c      	ldr	r3, [pc, #560]	; (800550c <UART_SetConfig+0x38c>)
 80052dc:	fba3 1302 	umull	r1, r3, r3, r2
 80052e0:	095b      	lsrs	r3, r3, #5
 80052e2:	2164      	movs	r1, #100	; 0x64
 80052e4:	fb01 f303 	mul.w	r3, r1, r3
 80052e8:	1ad3      	subs	r3, r2, r3
 80052ea:	00db      	lsls	r3, r3, #3
 80052ec:	3332      	adds	r3, #50	; 0x32
 80052ee:	4a87      	ldr	r2, [pc, #540]	; (800550c <UART_SetConfig+0x38c>)
 80052f0:	fba2 2303 	umull	r2, r3, r2, r3
 80052f4:	095b      	lsrs	r3, r3, #5
 80052f6:	005b      	lsls	r3, r3, #1
 80052f8:	f403 73f8 	and.w	r3, r3, #496	; 0x1f0
 80052fc:	441e      	add	r6, r3
 80052fe:	6f7b      	ldr	r3, [r7, #116]	; 0x74
 8005300:	4618      	mov	r0, r3
 8005302:	f04f 0100 	mov.w	r1, #0
 8005306:	4602      	mov	r2, r0
 8005308:	460b      	mov	r3, r1
 800530a:	1894      	adds	r4, r2, r2
 800530c:	623c      	str	r4, [r7, #32]
 800530e:	415b      	adcs	r3, r3
 8005310:	627b      	str	r3, [r7, #36]	; 0x24
 8005312:	e9d7 2308 	ldrd	r2, r3, [r7, #32]
 8005316:	1812      	adds	r2, r2, r0
 8005318:	eb41 0303 	adc.w	r3, r1, r3
 800531c:	f04f 0400 	mov.w	r4, #0
 8005320:	f04f 0500 	mov.w	r5, #0
 8005324:	00dd      	lsls	r5, r3, #3
 8005326:	ea45 7552 	orr.w	r5, r5, r2, lsr #29
 800532a:	00d4      	lsls	r4, r2, #3
 800532c:	4622      	mov	r2, r4
 800532e:	462b      	mov	r3, r5
 8005330:	1814      	adds	r4, r2, r0
 8005332:	653c      	str	r4, [r7, #80]	; 0x50
 8005334:	414b      	adcs	r3, r1
 8005336:	657b      	str	r3, [r7, #84]	; 0x54
 8005338:	6efb      	ldr	r3, [r7, #108]	; 0x6c
 800533a:	685b      	ldr	r3, [r3, #4]
 800533c:	461a      	mov	r2, r3
 800533e:	f04f 0300 	mov.w	r3, #0
 8005342:	1891      	adds	r1, r2, r2
 8005344:	61b9      	str	r1, [r7, #24]
 8005346:	415b      	adcs	r3, r3
 8005348:	61fb      	str	r3, [r7, #28]
 800534a:	e9d7 2306 	ldrd	r2, r3, [r7, #24]
 800534e:	e9d7 0114 	ldrd	r0, r1, [r7, #80]	; 0x50
 8005352:	f7fb fc99 	bl	8000c88 <__aeabi_uldivmod>
 8005356:	4602      	mov	r2, r0
 8005358:	460b      	mov	r3, r1
 800535a:	4b6c      	ldr	r3, [pc, #432]	; (800550c <UART_SetConfig+0x38c>)
 800535c:	fba3 1302 	umull	r1, r3, r3, r2
 8005360:	095b      	lsrs	r3, r3, #5
 8005362:	2164      	movs	r1, #100	; 0x64
 8005364:	fb01 f303 	mul.w	r3, r1, r3
 8005368:	1ad3      	subs	r3, r2, r3
 800536a:	00db      	lsls	r3, r3, #3
 800536c:	3332      	adds	r3, #50	; 0x32
 800536e:	4a67      	ldr	r2, [pc, #412]	; (800550c <UART_SetConfig+0x38c>)
 8005370:	fba2 2303 	umull	r2, r3, r2, r3
 8005374:	095b      	lsrs	r3, r3, #5
 8005376:	f003 0207 	and.w	r2, r3, #7
 800537a:	6efb      	ldr	r3, [r7, #108]	; 0x6c
 800537c:	681b      	ldr	r3, [r3, #0]
 800537e:	4432      	add	r2, r6
 8005380:	609a      	str	r2, [r3, #8]
  }
  else
  {
    huart->Instance->BRR = UART_BRR_SAMPLING16(pclk, huart->Init.BaudRate);
  }
}
 8005382:	e0b9      	b.n	80054f8 <UART_SetConfig+0x378>
    huart->Instance->BRR = UART_BRR_SAMPLING16(pclk, huart->Init.BaudRate);
 8005384:	6f7b      	ldr	r3, [r7, #116]	; 0x74
 8005386:	461c      	mov	r4, r3
 8005388:	f04f 0500 	mov.w	r5, #0
 800538c:	4622      	mov	r2, r4
 800538e:	462b      	mov	r3, r5
 8005390:	1891      	adds	r1, r2, r2
 8005392:	6139      	str	r1, [r7, #16]
 8005394:	415b      	adcs	r3, r3
 8005396:	617b      	str	r3, [r7, #20]
 8005398:	e9d7 2304 	ldrd	r2, r3, [r7, #16]
 800539c:	1912      	adds	r2, r2, r4
 800539e:	eb45 0303 	adc.w	r3, r5, r3
 80053a2:	f04f 0000 	mov.w	r0, #0
 80053a6:	f04f 0100 	mov.w	r1, #0
 80053aa:	00d9      	lsls	r1, r3, #3
 80053ac:	ea41 7152 	orr.w	r1, r1, r2, lsr #29
 80053b0:	00d0      	lsls	r0, r2, #3
 80053b2:	4602      	mov	r2, r0
 80053b4:	460b      	mov	r3, r1
 80053b6:	eb12 0804 	adds.w	r8, r2, r4
 80053ba:	eb43 0905 	adc.w	r9, r3, r5
 80053be:	6efb      	ldr	r3, [r7, #108]	; 0x6c
 80053c0:	685b      	ldr	r3, [r3, #4]
 80053c2:	4618      	mov	r0, r3
 80053c4:	f04f 0100 	mov.w	r1, #0
 80053c8:	f04f 0200 	mov.w	r2, #0
 80053cc:	f04f 0300 	mov.w	r3, #0
 80053d0:	008b      	lsls	r3, r1, #2
 80053d2:	ea43 7390 	orr.w	r3, r3, r0, lsr #30
 80053d6:	0082      	lsls	r2, r0, #2
 80053d8:	4640      	mov	r0, r8
 80053da:	4649      	mov	r1, r9
 80053dc:	f7fb fc54 	bl	8000c88 <__aeabi_uldivmod>
 80053e0:	4602      	mov	r2, r0
 80053e2:	460b      	mov	r3, r1
 80053e4:	4b49      	ldr	r3, [pc, #292]	; (800550c <UART_SetConfig+0x38c>)
 80053e6:	fba3 2302 	umull	r2, r3, r3, r2
 80053ea:	095b      	lsrs	r3, r3, #5
 80053ec:	011e      	lsls	r6, r3, #4
 80053ee:	6f7b      	ldr	r3, [r7, #116]	; 0x74
 80053f0:	4618      	mov	r0, r3
 80053f2:	f04f 0100 	mov.w	r1, #0
 80053f6:	4602      	mov	r2, r0
 80053f8:	460b      	mov	r3, r1
 80053fa:	1894      	adds	r4, r2, r2
 80053fc:	60bc      	str	r4, [r7, #8]
 80053fe:	415b      	adcs	r3, r3
 8005400:	60fb      	str	r3, [r7, #12]
 8005402:	e9d7 2302 	ldrd	r2, r3, [r7, #8]
 8005406:	1812      	adds	r2, r2, r0
 8005408:	eb41 0303 	adc.w	r3, r1, r3
 800540c:	f04f 0400 	mov.w	r4, #0
 8005410:	f04f 0500 	mov.w	r5, #0
 8005414:	00dd      	lsls	r5, r3, #3
 8005416:	ea45 7552 	orr.w	r5, r5, r2, lsr #29
 800541a:	00d4      	lsls	r4, r2, #3
 800541c:	4622      	mov	r2, r4
 800541e:	462b      	mov	r3, r5
 8005420:	1814      	adds	r4, r2, r0
 8005422:	64bc      	str	r4, [r7, #72]	; 0x48
 8005424:	414b      	adcs	r3, r1
 8005426:	64fb      	str	r3, [r7, #76]	; 0x4c
 8005428:	6efb      	ldr	r3, [r7, #108]	; 0x6c
 800542a:	685b      	ldr	r3, [r3, #4]
 800542c:	4618      	mov	r0, r3
 800542e:	f04f 0100 	mov.w	r1, #0
 8005432:	f04f 0200 	mov.w	r2, #0
 8005436:	f04f 0300 	mov.w	r3, #0
 800543a:	008b      	lsls	r3, r1, #2
 800543c:	ea43 7390 	orr.w	r3, r3, r0, lsr #30
 8005440:	0082      	lsls	r2, r0, #2
 8005442:	e9d7 0112 	ldrd	r0, r1, [r7, #72]	; 0x48
 8005446:	f7fb fc1f 	bl	8000c88 <__aeabi_uldivmod>
 800544a:	4602      	mov	r2, r0
 800544c:	460b      	mov	r3, r1
 800544e:	4b2f      	ldr	r3, [pc, #188]	; (800550c <UART_SetConfig+0x38c>)
 8005450:	fba3 1302 	umull	r1, r3, r3, r2
 8005454:	095b      	lsrs	r3, r3, #5
 8005456:	2164      	movs	r1, #100	; 0x64
 8005458:	fb01 f303 	mul.w	r3, r1, r3
 800545c:	1ad3      	subs	r3, r2, r3
 800545e:	011b      	lsls	r3, r3, #4
 8005460:	3332      	adds	r3, #50	; 0x32
 8005462:	4a2a      	ldr	r2, [pc, #168]	; (800550c <UART_SetConfig+0x38c>)
 8005464:	fba2 2303 	umull	r2, r3, r2, r3
 8005468:	095b      	lsrs	r3, r3, #5
 800546a:	f003 03f0 	and.w	r3, r3, #240	; 0xf0
 800546e:	441e      	add	r6, r3
 8005470:	6f7b      	ldr	r3, [r7, #116]	; 0x74
 8005472:	4618      	mov	r0, r3
 8005474:	f04f 0100 	mov.w	r1, #0
 8005478:	4602      	mov	r2, r0
 800547a:	460b      	mov	r3, r1
 800547c:	1894      	adds	r4, r2, r2
 800547e:	603c      	str	r4, [r7, #0]
 8005480:	415b      	adcs	r3, r3
 8005482:	607b      	str	r3, [r7, #4]
 8005484:	e9d7 2300 	ldrd	r2, r3, [r7]
 8005488:	1812      	adds	r2, r2, r0
 800548a:	eb41 0303 	adc.w	r3, r1, r3
 800548e:	f04f 0400 	mov.w	r4, #0
 8005492:	f04f 0500 	mov.w	r5, #0
 8005496:	00dd      	lsls	r5, r3, #3
 8005498:	ea45 7552 	orr.w	r5, r5, r2, lsr #29
 800549c:	00d4      	lsls	r4, r2, #3
 800549e:	4622      	mov	r2, r4
 80054a0:	462b      	mov	r3, r5
 80054a2:	eb12 0a00 	adds.w	sl, r2, r0
 80054a6:	eb43 0b01 	adc.w	fp, r3, r1
 80054aa:	6efb      	ldr	r3, [r7, #108]	; 0x6c
 80054ac:	685b      	ldr	r3, [r3, #4]
 80054ae:	4618      	mov	r0, r3
 80054b0:	f04f 0100 	mov.w	r1, #0
 80054b4:	f04f 0200 	mov.w	r2, #0
 80054b8:	f04f 0300 	mov.w	r3, #0
 80054bc:	008b      	lsls	r3, r1, #2
 80054be:	ea43 7390 	orr.w	r3, r3, r0, lsr #30
 80054c2:	0082      	lsls	r2, r0, #2
 80054c4:	4650      	mov	r0, sl
 80054c6:	4659      	mov	r1, fp
 80054c8:	f7fb fbde 	bl	8000c88 <__aeabi_uldivmod>
 80054cc:	4602      	mov	r2, r0
 80054ce:	460b      	mov	r3, r1
 80054d0:	4b0e      	ldr	r3, [pc, #56]	; (800550c <UART_SetConfig+0x38c>)
 80054d2:	fba3 1302 	umull	r1, r3, r3, r2
 80054d6:	095b      	lsrs	r3, r3, #5
 80054d8:	2164      	movs	r1, #100	; 0x64
 80054da:	fb01 f303 	mul.w	r3, r1, r3
 80054de:	1ad3      	subs	r3, r2, r3
 80054e0:	011b      	lsls	r3, r3, #4
 80054e2:	3332      	adds	r3, #50	; 0x32
 80054e4:	4a09      	ldr	r2, [pc, #36]	; (800550c <UART_SetConfig+0x38c>)
 80054e6:	fba2 2303 	umull	r2, r3, r2, r3
 80054ea:	095b      	lsrs	r3, r3, #5
 80054ec:	f003 020f 	and.w	r2, r3, #15
 80054f0:	6efb      	ldr	r3, [r7, #108]	; 0x6c
 80054f2:	681b      	ldr	r3, [r3, #0]
 80054f4:	4432      	add	r2, r6
 80054f6:	609a      	str	r2, [r3, #8]
}
 80054f8:	bf00      	nop
 80054fa:	377c      	adds	r7, #124	; 0x7c
 80054fc:	46bd      	mov	sp, r7
 80054fe:	e8bd 8ff0 	ldmia.w	sp!, {r4, r5, r6, r7, r8, r9, sl, fp, pc}
 8005502:	bf00      	nop
 8005504:	40011000 	.word	0x40011000
 8005508:	40011400 	.word	0x40011400
 800550c:	51eb851f 	.word	0x51eb851f

08005510 <DWT_Delay_us>:
uint32_t DWT_Delay_Init(void);


// This Function Provides Delay In Microseconds Using DWT
__STATIC_INLINE void DWT_Delay_us(volatile uint32_t au32_microseconds)
{
 8005510:	b580      	push	{r7, lr}
 8005512:	b084      	sub	sp, #16
 8005514:	af00      	add	r7, sp, #0
 8005516:	6078      	str	r0, [r7, #4]
  uint32_t au32_initial_ticks = DWT->CYCCNT;
 8005518:	4b0f      	ldr	r3, [pc, #60]	; (8005558 <DWT_Delay_us+0x48>)
 800551a:	685b      	ldr	r3, [r3, #4]
 800551c:	60fb      	str	r3, [r7, #12]
  uint32_t au32_ticks = (HAL_RCC_GetHCLKFreq() / 1000000);
 800551e:	f7fd fc57 	bl	8002dd0 <HAL_RCC_GetHCLKFreq>
 8005522:	4603      	mov	r3, r0
 8005524:	4a0d      	ldr	r2, [pc, #52]	; (800555c <DWT_Delay_us+0x4c>)
 8005526:	fba2 2303 	umull	r2, r3, r2, r3
 800552a:	0c9b      	lsrs	r3, r3, #18
 800552c:	60bb      	str	r3, [r7, #8]
  au32_microseconds *= au32_ticks;
 800552e:	687b      	ldr	r3, [r7, #4]
 8005530:	68ba      	ldr	r2, [r7, #8]
 8005532:	fb02 f303 	mul.w	r3, r2, r3
 8005536:	607b      	str	r3, [r7, #4]
  while ((DWT->CYCCNT - au32_initial_ticks) < au32_microseconds-au32_ticks);
 8005538:	bf00      	nop
 800553a:	4b07      	ldr	r3, [pc, #28]	; (8005558 <DWT_Delay_us+0x48>)
 800553c:	685a      	ldr	r2, [r3, #4]
 800553e:	68fb      	ldr	r3, [r7, #12]
 8005540:	1ad2      	subs	r2, r2, r3
 8005542:	6879      	ldr	r1, [r7, #4]
 8005544:	68bb      	ldr	r3, [r7, #8]
 8005546:	1acb      	subs	r3, r1, r3
 8005548:	429a      	cmp	r2, r3
 800554a:	d3f6      	bcc.n	800553a <DWT_Delay_us+0x2a>
}
 800554c:	bf00      	nop
 800554e:	bf00      	nop
 8005550:	3710      	adds	r7, #16
 8005552:	46bd      	mov	sp, r7
 8005554:	bd80      	pop	{r7, pc}
 8005556:	bf00      	nop
 8005558:	e0001000 	.word	0xe0001000
 800555c:	431bde83 	.word	0x431bde83

08005560 <HCSR04_Init>:
static HCSR04_info gs_HCSR04_info[HCSR04_UNITS] = {0};



void HCSR04_Init(uint8_t au8_HCSR04_Instance, TIM_HandleTypeDef* TMR_Handle)
{
 8005560:	b580      	push	{r7, lr}
 8005562:	b096      	sub	sp, #88	; 0x58
 8005564:	af00      	add	r7, sp, #0
 8005566:	4603      	mov	r3, r0
 8005568:	6039      	str	r1, [r7, #0]
 800556a:	71fb      	strb	r3, [r7, #7]
	GPIO_InitTypeDef TRIG_GPIO_InitStruct = {0};
 800556c:	f107 0344 	add.w	r3, r7, #68	; 0x44
 8005570:	2200      	movs	r2, #0
 8005572:	601a      	str	r2, [r3, #0]
 8005574:	605a      	str	r2, [r3, #4]
 8005576:	609a      	str	r2, [r3, #8]
 8005578:	60da      	str	r2, [r3, #12]
 800557a:	611a      	str	r2, [r3, #16]
	TIM_ClockConfigTypeDef sClockSourceConfig = {0};
 800557c:	f107 0334 	add.w	r3, r7, #52	; 0x34
 8005580:	2200      	movs	r2, #0
 8005582:	601a      	str	r2, [r3, #0]
 8005584:	605a      	str	r2, [r3, #4]
 8005586:	609a      	str	r2, [r3, #8]
 8005588:	60da      	str	r2, [r3, #12]
	TIM_MasterConfigTypeDef sMasterConfig = {0};
 800558a:	f107 032c 	add.w	r3, r7, #44	; 0x2c
 800558e:	2200      	movs	r2, #0
 8005590:	601a      	str	r2, [r3, #0]
 8005592:	605a      	str	r2, [r3, #4]
	TIM_IC_InitTypeDef sConfigIC = {0};
 8005594:	f107 031c 	add.w	r3, r7, #28
 8005598:	2200      	movs	r2, #0
 800559a:	601a      	str	r2, [r3, #0]
 800559c:	605a      	str	r2, [r3, #4]
 800559e:	609a      	str	r2, [r3, #8]
 80055a0:	60da      	str	r2, [r3, #12]

    DWT_Delay_Init();
 80055a2:	f000 fc9f 	bl	8005ee4 <DWT_Delay_Init>

	/*--------[ Configure The HCSR04 TRIGGER GPIO Pin ]-------*/

    if(HCSR04_CfgParam[au8_HCSR04_Instance].TRIG_GPIO == GPIOA)
 80055a6:	79fa      	ldrb	r2, [r7, #7]
 80055a8:	4997      	ldr	r1, [pc, #604]	; (8005808 <HCSR04_Init+0x2a8>)
 80055aa:	4613      	mov	r3, r2
 80055ac:	009b      	lsls	r3, r3, #2
 80055ae:	4413      	add	r3, r2
 80055b0:	009b      	lsls	r3, r3, #2
 80055b2:	440b      	add	r3, r1
 80055b4:	681b      	ldr	r3, [r3, #0]
 80055b6:	4a95      	ldr	r2, [pc, #596]	; (800580c <HCSR04_Init+0x2ac>)
 80055b8:	4293      	cmp	r3, r2
 80055ba:	d10e      	bne.n	80055da <HCSR04_Init+0x7a>
    {
    	__HAL_RCC_GPIOA_CLK_ENABLE();
 80055bc:	2300      	movs	r3, #0
 80055be:	61bb      	str	r3, [r7, #24]
 80055c0:	4b93      	ldr	r3, [pc, #588]	; (8005810 <HCSR04_Init+0x2b0>)
 80055c2:	6b1b      	ldr	r3, [r3, #48]	; 0x30
 80055c4:	4a92      	ldr	r2, [pc, #584]	; (8005810 <HCSR04_Init+0x2b0>)
 80055c6:	f043 0301 	orr.w	r3, r3, #1
 80055ca:	6313      	str	r3, [r2, #48]	; 0x30
 80055cc:	4b90      	ldr	r3, [pc, #576]	; (8005810 <HCSR04_Init+0x2b0>)
 80055ce:	6b1b      	ldr	r3, [r3, #48]	; 0x30
 80055d0:	f003 0301 	and.w	r3, r3, #1
 80055d4:	61bb      	str	r3, [r7, #24]
 80055d6:	69bb      	ldr	r3, [r7, #24]
 80055d8:	e066      	b.n	80056a8 <HCSR04_Init+0x148>
    }
    else if(HCSR04_CfgParam[au8_HCSR04_Instance].TRIG_GPIO == GPIOB)
 80055da:	79fa      	ldrb	r2, [r7, #7]
 80055dc:	498a      	ldr	r1, [pc, #552]	; (8005808 <HCSR04_Init+0x2a8>)
 80055de:	4613      	mov	r3, r2
 80055e0:	009b      	lsls	r3, r3, #2
 80055e2:	4413      	add	r3, r2
 80055e4:	009b      	lsls	r3, r3, #2
 80055e6:	440b      	add	r3, r1
 80055e8:	681b      	ldr	r3, [r3, #0]
 80055ea:	4a8a      	ldr	r2, [pc, #552]	; (8005814 <HCSR04_Init+0x2b4>)
 80055ec:	4293      	cmp	r3, r2
 80055ee:	d10e      	bne.n	800560e <HCSR04_Init+0xae>
    {
    	__HAL_RCC_GPIOB_CLK_ENABLE();
 80055f0:	2300      	movs	r3, #0
 80055f2:	617b      	str	r3, [r7, #20]
 80055f4:	4b86      	ldr	r3, [pc, #536]	; (8005810 <HCSR04_Init+0x2b0>)
 80055f6:	6b1b      	ldr	r3, [r3, #48]	; 0x30
 80055f8:	4a85      	ldr	r2, [pc, #532]	; (8005810 <HCSR04_Init+0x2b0>)
 80055fa:	f043 0302 	orr.w	r3, r3, #2
 80055fe:	6313      	str	r3, [r2, #48]	; 0x30
 8005600:	4b83      	ldr	r3, [pc, #524]	; (8005810 <HCSR04_Init+0x2b0>)
 8005602:	6b1b      	ldr	r3, [r3, #48]	; 0x30
 8005604:	f003 0302 	and.w	r3, r3, #2
 8005608:	617b      	str	r3, [r7, #20]
 800560a:	697b      	ldr	r3, [r7, #20]
 800560c:	e04c      	b.n	80056a8 <HCSR04_Init+0x148>
    }
    else if(HCSR04_CfgParam[au8_HCSR04_Instance].TRIG_GPIO == GPIOC)
 800560e:	79fa      	ldrb	r2, [r7, #7]
 8005610:	497d      	ldr	r1, [pc, #500]	; (8005808 <HCSR04_Init+0x2a8>)
 8005612:	4613      	mov	r3, r2
 8005614:	009b      	lsls	r3, r3, #2
 8005616:	4413      	add	r3, r2
 8005618:	009b      	lsls	r3, r3, #2
 800561a:	440b      	add	r3, r1
 800561c:	681b      	ldr	r3, [r3, #0]
 800561e:	4a7e      	ldr	r2, [pc, #504]	; (8005818 <HCSR04_Init+0x2b8>)
 8005620:	4293      	cmp	r3, r2
 8005622:	d10e      	bne.n	8005642 <HCSR04_Init+0xe2>
    {
        __HAL_RCC_GPIOC_CLK_ENABLE();
 8005624:	2300      	movs	r3, #0
 8005626:	613b      	str	r3, [r7, #16]
 8005628:	4b79      	ldr	r3, [pc, #484]	; (8005810 <HCSR04_Init+0x2b0>)
 800562a:	6b1b      	ldr	r3, [r3, #48]	; 0x30
 800562c:	4a78      	ldr	r2, [pc, #480]	; (8005810 <HCSR04_Init+0x2b0>)
 800562e:	f043 0304 	orr.w	r3, r3, #4
 8005632:	6313      	str	r3, [r2, #48]	; 0x30
 8005634:	4b76      	ldr	r3, [pc, #472]	; (8005810 <HCSR04_Init+0x2b0>)
 8005636:	6b1b      	ldr	r3, [r3, #48]	; 0x30
 8005638:	f003 0304 	and.w	r3, r3, #4
 800563c:	613b      	str	r3, [r7, #16]
 800563e:	693b      	ldr	r3, [r7, #16]
 8005640:	e032      	b.n	80056a8 <HCSR04_Init+0x148>
    }
    else if(HCSR04_CfgParam[au8_HCSR04_Instance].TRIG_GPIO == GPIOD)
 8005642:	79fa      	ldrb	r2, [r7, #7]
 8005644:	4970      	ldr	r1, [pc, #448]	; (8005808 <HCSR04_Init+0x2a8>)
 8005646:	4613      	mov	r3, r2
 8005648:	009b      	lsls	r3, r3, #2
 800564a:	4413      	add	r3, r2
 800564c:	009b      	lsls	r3, r3, #2
 800564e:	440b      	add	r3, r1
 8005650:	681b      	ldr	r3, [r3, #0]
 8005652:	4a72      	ldr	r2, [pc, #456]	; (800581c <HCSR04_Init+0x2bc>)
 8005654:	4293      	cmp	r3, r2
 8005656:	d10e      	bne.n	8005676 <HCSR04_Init+0x116>
    {
        __HAL_RCC_GPIOD_CLK_ENABLE();
 8005658:	2300      	movs	r3, #0
 800565a:	60fb      	str	r3, [r7, #12]
 800565c:	4b6c      	ldr	r3, [pc, #432]	; (8005810 <HCSR04_Init+0x2b0>)
 800565e:	6b1b      	ldr	r3, [r3, #48]	; 0x30
 8005660:	4a6b      	ldr	r2, [pc, #428]	; (8005810 <HCSR04_Init+0x2b0>)
 8005662:	f043 0308 	orr.w	r3, r3, #8
 8005666:	6313      	str	r3, [r2, #48]	; 0x30
 8005668:	4b69      	ldr	r3, [pc, #420]	; (8005810 <HCSR04_Init+0x2b0>)
 800566a:	6b1b      	ldr	r3, [r3, #48]	; 0x30
 800566c:	f003 0308 	and.w	r3, r3, #8
 8005670:	60fb      	str	r3, [r7, #12]
 8005672:	68fb      	ldr	r3, [r7, #12]
 8005674:	e018      	b.n	80056a8 <HCSR04_Init+0x148>
    }
    else if(HCSR04_CfgParam[au8_HCSR04_Instance].TRIG_GPIO == GPIOE)
 8005676:	79fa      	ldrb	r2, [r7, #7]
 8005678:	4963      	ldr	r1, [pc, #396]	; (8005808 <HCSR04_Init+0x2a8>)
 800567a:	4613      	mov	r3, r2
 800567c:	009b      	lsls	r3, r3, #2
 800567e:	4413      	add	r3, r2
 8005680:	009b      	lsls	r3, r3, #2
 8005682:	440b      	add	r3, r1
 8005684:	681b      	ldr	r3, [r3, #0]
 8005686:	4a66      	ldr	r2, [pc, #408]	; (8005820 <HCSR04_Init+0x2c0>)
 8005688:	4293      	cmp	r3, r2
 800568a:	d10d      	bne.n	80056a8 <HCSR04_Init+0x148>
    {
        __HAL_RCC_GPIOE_CLK_ENABLE();
 800568c:	2300      	movs	r3, #0
 800568e:	60bb      	str	r3, [r7, #8]
 8005690:	4b5f      	ldr	r3, [pc, #380]	; (8005810 <HCSR04_Init+0x2b0>)
 8005692:	6b1b      	ldr	r3, [r3, #48]	; 0x30
 8005694:	4a5e      	ldr	r2, [pc, #376]	; (8005810 <HCSR04_Init+0x2b0>)
 8005696:	f043 0310 	orr.w	r3, r3, #16
 800569a:	6313      	str	r3, [r2, #48]	; 0x30
 800569c:	4b5c      	ldr	r3, [pc, #368]	; (8005810 <HCSR04_Init+0x2b0>)
 800569e:	6b1b      	ldr	r3, [r3, #48]	; 0x30
 80056a0:	f003 0310 	and.w	r3, r3, #16
 80056a4:	60bb      	str	r3, [r7, #8]
 80056a6:	68bb      	ldr	r3, [r7, #8]
    }
    TRIG_GPIO_InitStruct.Pin = HCSR04_CfgParam[au8_HCSR04_Instance].TRIG_PIN;
 80056a8:	79fa      	ldrb	r2, [r7, #7]
 80056aa:	4957      	ldr	r1, [pc, #348]	; (8005808 <HCSR04_Init+0x2a8>)
 80056ac:	4613      	mov	r3, r2
 80056ae:	009b      	lsls	r3, r3, #2
 80056b0:	4413      	add	r3, r2
 80056b2:	009b      	lsls	r3, r3, #2
 80056b4:	440b      	add	r3, r1
 80056b6:	3304      	adds	r3, #4
 80056b8:	881b      	ldrh	r3, [r3, #0]
 80056ba:	647b      	str	r3, [r7, #68]	; 0x44
    TRIG_GPIO_InitStruct.Mode = GPIO_MODE_OUTPUT_PP;
 80056bc:	2301      	movs	r3, #1
 80056be:	64bb      	str	r3, [r7, #72]	; 0x48
    TRIG_GPIO_InitStruct.Pull = GPIO_NOPULL;
 80056c0:	2300      	movs	r3, #0
 80056c2:	64fb      	str	r3, [r7, #76]	; 0x4c
    TRIG_GPIO_InitStruct.Speed = GPIO_SPEED_FREQ_LOW;
 80056c4:	2300      	movs	r3, #0
 80056c6:	653b      	str	r3, [r7, #80]	; 0x50
	HAL_GPIO_Init(HCSR04_CfgParam[au8_HCSR04_Instance].TRIG_GPIO, &TRIG_GPIO_InitStruct);
 80056c8:	79fa      	ldrb	r2, [r7, #7]
 80056ca:	494f      	ldr	r1, [pc, #316]	; (8005808 <HCSR04_Init+0x2a8>)
 80056cc:	4613      	mov	r3, r2
 80056ce:	009b      	lsls	r3, r3, #2
 80056d0:	4413      	add	r3, r2
 80056d2:	009b      	lsls	r3, r3, #2
 80056d4:	440b      	add	r3, r1
 80056d6:	681b      	ldr	r3, [r3, #0]
 80056d8:	f107 0244 	add.w	r2, r7, #68	; 0x44
 80056dc:	4611      	mov	r1, r2
 80056de:	4618      	mov	r0, r3
 80056e0:	f7fd f8e2 	bl	80028a8 <HAL_GPIO_Init>

	/*--------[ Initialize The HCSR04 Static Global Info ]-------*/

	gs_HCSR04_info[au8_HCSR04_Instance].TMR_PSC = HCSR04_CfgParam[au8_HCSR04_Instance].TIM_Instance->PSC;
 80056e4:	79fa      	ldrb	r2, [r7, #7]
 80056e6:	4948      	ldr	r1, [pc, #288]	; (8005808 <HCSR04_Init+0x2a8>)
 80056e8:	4613      	mov	r3, r2
 80056ea:	009b      	lsls	r3, r3, #2
 80056ec:	4413      	add	r3, r2
 80056ee:	009b      	lsls	r3, r3, #2
 80056f0:	440b      	add	r3, r1
 80056f2:	3308      	adds	r3, #8
 80056f4:	681b      	ldr	r3, [r3, #0]
 80056f6:	79fa      	ldrb	r2, [r7, #7]
 80056f8:	6a99      	ldr	r1, [r3, #40]	; 0x28
 80056fa:	484a      	ldr	r0, [pc, #296]	; (8005824 <HCSR04_Init+0x2c4>)
 80056fc:	4613      	mov	r3, r2
 80056fe:	00db      	lsls	r3, r3, #3
 8005700:	4413      	add	r3, r2
 8005702:	009b      	lsls	r3, r3, #2
 8005704:	4403      	add	r3, r0
 8005706:	3304      	adds	r3, #4
 8005708:	6019      	str	r1, [r3, #0]
	gs_HCSR04_info[au8_HCSR04_Instance].TMR_ARR = HCSR04_CfgParam[au8_HCSR04_Instance].TIM_Instance->ARR;
 800570a:	79fa      	ldrb	r2, [r7, #7]
 800570c:	493e      	ldr	r1, [pc, #248]	; (8005808 <HCSR04_Init+0x2a8>)
 800570e:	4613      	mov	r3, r2
 8005710:	009b      	lsls	r3, r3, #2
 8005712:	4413      	add	r3, r2
 8005714:	009b      	lsls	r3, r3, #2
 8005716:	440b      	add	r3, r1
 8005718:	3308      	adds	r3, #8
 800571a:	681b      	ldr	r3, [r3, #0]
 800571c:	79fa      	ldrb	r2, [r7, #7]
 800571e:	6ad9      	ldr	r1, [r3, #44]	; 0x2c
 8005720:	4840      	ldr	r0, [pc, #256]	; (8005824 <HCSR04_Init+0x2c4>)
 8005722:	4613      	mov	r3, r2
 8005724:	00db      	lsls	r3, r3, #3
 8005726:	4413      	add	r3, r2
 8005728:	009b      	lsls	r3, r3, #2
 800572a:	4403      	add	r3, r0
 800572c:	3308      	adds	r3, #8
 800572e:	6019      	str	r1, [r3, #0]
	gs_HCSR04_info[au8_HCSR04_Instance].TMR_OVC = 0;
 8005730:	79fa      	ldrb	r2, [r7, #7]
 8005732:	493c      	ldr	r1, [pc, #240]	; (8005824 <HCSR04_Init+0x2c4>)
 8005734:	4613      	mov	r3, r2
 8005736:	00db      	lsls	r3, r3, #3
 8005738:	4413      	add	r3, r2
 800573a:	009b      	lsls	r3, r3, #2
 800573c:	440b      	add	r3, r1
 800573e:	3302      	adds	r3, #2
 8005740:	2200      	movs	r2, #0
 8005742:	801a      	strh	r2, [r3, #0]
		gs_HCSR04_info[au8_HCSR04_Instance].HTIM = TMR_Handle;
 8005744:	79fa      	ldrb	r2, [r7, #7]
 8005746:	4937      	ldr	r1, [pc, #220]	; (8005824 <HCSR04_Init+0x2c4>)
 8005748:	4613      	mov	r3, r2
 800574a:	00db      	lsls	r3, r3, #3
 800574c:	4413      	add	r3, r2
 800574e:	009b      	lsls	r3, r3, #2
 8005750:	440b      	add	r3, r1
 8005752:	331c      	adds	r3, #28
 8005754:	683a      	ldr	r2, [r7, #0]
 8005756:	601a      	str	r2, [r3, #0]
	if(gs_HCSR04_info[au8_HCSR04_Instance].TMR_ARR == 0)
 8005758:	79fa      	ldrb	r2, [r7, #7]
 800575a:	4932      	ldr	r1, [pc, #200]	; (8005824 <HCSR04_Init+0x2c4>)
 800575c:	4613      	mov	r3, r2
 800575e:	00db      	lsls	r3, r3, #3
 8005760:	4413      	add	r3, r2
 8005762:	009b      	lsls	r3, r3, #2
 8005764:	440b      	add	r3, r1
 8005766:	3308      	adds	r3, #8
 8005768:	681b      	ldr	r3, [r3, #0]
 800576a:	2b00      	cmp	r3, #0
 800576c:	d10a      	bne.n	8005784 <HCSR04_Init+0x224>
	{
		gs_HCSR04_info[au8_HCSR04_Instance].TMR_ARR = 65535;
 800576e:	79fa      	ldrb	r2, [r7, #7]
 8005770:	492c      	ldr	r1, [pc, #176]	; (8005824 <HCSR04_Init+0x2c4>)
 8005772:	4613      	mov	r3, r2
 8005774:	00db      	lsls	r3, r3, #3
 8005776:	4413      	add	r3, r2
 8005778:	009b      	lsls	r3, r3, #2
 800577a:	440b      	add	r3, r1
 800577c:	3308      	adds	r3, #8
 800577e:	f64f 72ff 	movw	r2, #65535	; 0xffff
 8005782:	601a      	str	r2, [r3, #0]
	}
	if(HCSR04_CfgParam[au8_HCSR04_Instance].IC_TIM_CH == TIM_CHANNEL_1)
 8005784:	79fa      	ldrb	r2, [r7, #7]
 8005786:	4920      	ldr	r1, [pc, #128]	; (8005808 <HCSR04_Init+0x2a8>)
 8005788:	4613      	mov	r3, r2
 800578a:	009b      	lsls	r3, r3, #2
 800578c:	4413      	add	r3, r2
 800578e:	009b      	lsls	r3, r3, #2
 8005790:	440b      	add	r3, r1
 8005792:	330c      	adds	r3, #12
 8005794:	681b      	ldr	r3, [r3, #0]
 8005796:	2b00      	cmp	r3, #0
 8005798:	d10a      	bne.n	80057b0 <HCSR04_Init+0x250>
	{
		gs_HCSR04_info[au8_HCSR04_Instance].ACTIV_CH = HAL_TIM_ACTIVE_CHANNEL_1;
 800579a:	79fa      	ldrb	r2, [r7, #7]
 800579c:	4921      	ldr	r1, [pc, #132]	; (8005824 <HCSR04_Init+0x2c4>)
 800579e:	4613      	mov	r3, r2
 80057a0:	00db      	lsls	r3, r3, #3
 80057a2:	4413      	add	r3, r2
 80057a4:	009b      	lsls	r3, r3, #2
 80057a6:	440b      	add	r3, r1
 80057a8:	3320      	adds	r3, #32
 80057aa:	2201      	movs	r2, #1
 80057ac:	701a      	strb	r2, [r3, #0]
 80057ae:	e050      	b.n	8005852 <HCSR04_Init+0x2f2>
	}
	else if(HCSR04_CfgParam[au8_HCSR04_Instance].IC_TIM_CH == TIM_CHANNEL_2)
 80057b0:	79fa      	ldrb	r2, [r7, #7]
 80057b2:	4915      	ldr	r1, [pc, #84]	; (8005808 <HCSR04_Init+0x2a8>)
 80057b4:	4613      	mov	r3, r2
 80057b6:	009b      	lsls	r3, r3, #2
 80057b8:	4413      	add	r3, r2
 80057ba:	009b      	lsls	r3, r3, #2
 80057bc:	440b      	add	r3, r1
 80057be:	330c      	adds	r3, #12
 80057c0:	681b      	ldr	r3, [r3, #0]
 80057c2:	2b04      	cmp	r3, #4
 80057c4:	d10a      	bne.n	80057dc <HCSR04_Init+0x27c>
	{
		gs_HCSR04_info[au8_HCSR04_Instance].ACTIV_CH = HAL_TIM_ACTIVE_CHANNEL_2;
 80057c6:	79fa      	ldrb	r2, [r7, #7]
 80057c8:	4916      	ldr	r1, [pc, #88]	; (8005824 <HCSR04_Init+0x2c4>)
 80057ca:	4613      	mov	r3, r2
 80057cc:	00db      	lsls	r3, r3, #3
 80057ce:	4413      	add	r3, r2
 80057d0:	009b      	lsls	r3, r3, #2
 80057d2:	440b      	add	r3, r1
 80057d4:	3320      	adds	r3, #32
 80057d6:	2202      	movs	r2, #2
 80057d8:	701a      	strb	r2, [r3, #0]
 80057da:	e03a      	b.n	8005852 <HCSR04_Init+0x2f2>
	}
	else if(HCSR04_CfgParam[au8_HCSR04_Instance].IC_TIM_CH == TIM_CHANNEL_3)
 80057dc:	79fa      	ldrb	r2, [r7, #7]
 80057de:	490a      	ldr	r1, [pc, #40]	; (8005808 <HCSR04_Init+0x2a8>)
 80057e0:	4613      	mov	r3, r2
 80057e2:	009b      	lsls	r3, r3, #2
 80057e4:	4413      	add	r3, r2
 80057e6:	009b      	lsls	r3, r3, #2
 80057e8:	440b      	add	r3, r1
 80057ea:	330c      	adds	r3, #12
 80057ec:	681b      	ldr	r3, [r3, #0]
 80057ee:	2b08      	cmp	r3, #8
 80057f0:	d11a      	bne.n	8005828 <HCSR04_Init+0x2c8>
	{
		gs_HCSR04_info[au8_HCSR04_Instance].ACTIV_CH = HAL_TIM_ACTIVE_CHANNEL_3;
 80057f2:	79fa      	ldrb	r2, [r7, #7]
 80057f4:	490b      	ldr	r1, [pc, #44]	; (8005824 <HCSR04_Init+0x2c4>)
 80057f6:	4613      	mov	r3, r2
 80057f8:	00db      	lsls	r3, r3, #3
 80057fa:	4413      	add	r3, r2
 80057fc:	009b      	lsls	r3, r3, #2
 80057fe:	440b      	add	r3, r1
 8005800:	3320      	adds	r3, #32
 8005802:	2204      	movs	r2, #4
 8005804:	701a      	strb	r2, [r3, #0]
 8005806:	e024      	b.n	8005852 <HCSR04_Init+0x2f2>
 8005808:	08008d40 	.word	0x08008d40
 800580c:	40020000 	.word	0x40020000
 8005810:	40023800 	.word	0x40023800
 8005814:	40020400 	.word	0x40020400
 8005818:	40020800 	.word	0x40020800
 800581c:	40020c00 	.word	0x40020c00
 8005820:	40021000 	.word	0x40021000
 8005824:	2000022c 	.word	0x2000022c
	}
	else if(HCSR04_CfgParam[au8_HCSR04_Instance].IC_TIM_CH == TIM_CHANNEL_4)
 8005828:	79fa      	ldrb	r2, [r7, #7]
 800582a:	4941      	ldr	r1, [pc, #260]	; (8005930 <HCSR04_Init+0x3d0>)
 800582c:	4613      	mov	r3, r2
 800582e:	009b      	lsls	r3, r3, #2
 8005830:	4413      	add	r3, r2
 8005832:	009b      	lsls	r3, r3, #2
 8005834:	440b      	add	r3, r1
 8005836:	330c      	adds	r3, #12
 8005838:	681b      	ldr	r3, [r3, #0]
 800583a:	2b0c      	cmp	r3, #12
 800583c:	d109      	bne.n	8005852 <HCSR04_Init+0x2f2>
	{
		gs_HCSR04_info[au8_HCSR04_Instance].ACTIV_CH = HAL_TIM_ACTIVE_CHANNEL_4;
 800583e:	79fa      	ldrb	r2, [r7, #7]
 8005840:	493c      	ldr	r1, [pc, #240]	; (8005934 <HCSR04_Init+0x3d4>)
 8005842:	4613      	mov	r3, r2
 8005844:	00db      	lsls	r3, r3, #3
 8005846:	4413      	add	r3, r2
 8005848:	009b      	lsls	r3, r3, #2
 800584a:	440b      	add	r3, r1
 800584c:	3320      	adds	r3, #32
 800584e:	2208      	movs	r2, #8
 8005850:	701a      	strb	r2, [r3, #0]
	}

	/*--------[ Configure The HCSR04 IC Timer Channel ]-------*/

	TMR_Handle->Instance = HCSR04_CfgParam[au8_HCSR04_Instance].TIM_Instance;
 8005852:	79fa      	ldrb	r2, [r7, #7]
 8005854:	4936      	ldr	r1, [pc, #216]	; (8005930 <HCSR04_Init+0x3d0>)
 8005856:	4613      	mov	r3, r2
 8005858:	009b      	lsls	r3, r3, #2
 800585a:	4413      	add	r3, r2
 800585c:	009b      	lsls	r3, r3, #2
 800585e:	440b      	add	r3, r1
 8005860:	3308      	adds	r3, #8
 8005862:	681a      	ldr	r2, [r3, #0]
 8005864:	683b      	ldr	r3, [r7, #0]
 8005866:	601a      	str	r2, [r3, #0]
	TMR_Handle->Init.Prescaler = gs_HCSR04_info[au8_HCSR04_Instance].TMR_PSC;
 8005868:	79fa      	ldrb	r2, [r7, #7]
 800586a:	4932      	ldr	r1, [pc, #200]	; (8005934 <HCSR04_Init+0x3d4>)
 800586c:	4613      	mov	r3, r2
 800586e:	00db      	lsls	r3, r3, #3
 8005870:	4413      	add	r3, r2
 8005872:	009b      	lsls	r3, r3, #2
 8005874:	440b      	add	r3, r1
 8005876:	3304      	adds	r3, #4
 8005878:	681a      	ldr	r2, [r3, #0]
 800587a:	683b      	ldr	r3, [r7, #0]
 800587c:	605a      	str	r2, [r3, #4]
	TMR_Handle->Init.CounterMode = TIM_COUNTERMODE_UP;
 800587e:	683b      	ldr	r3, [r7, #0]
 8005880:	2200      	movs	r2, #0
 8005882:	609a      	str	r2, [r3, #8]
	TMR_Handle->Init.Period = gs_HCSR04_info[au8_HCSR04_Instance].TMR_ARR;
 8005884:	79fa      	ldrb	r2, [r7, #7]
 8005886:	492b      	ldr	r1, [pc, #172]	; (8005934 <HCSR04_Init+0x3d4>)
 8005888:	4613      	mov	r3, r2
 800588a:	00db      	lsls	r3, r3, #3
 800588c:	4413      	add	r3, r2
 800588e:	009b      	lsls	r3, r3, #2
 8005890:	440b      	add	r3, r1
 8005892:	3308      	adds	r3, #8
 8005894:	681a      	ldr	r2, [r3, #0]
 8005896:	683b      	ldr	r3, [r7, #0]
 8005898:	60da      	str	r2, [r3, #12]
	TMR_Handle->Init.ClockDivision = TIM_CLOCKDIVISION_DIV1;
 800589a:	683b      	ldr	r3, [r7, #0]
 800589c:	2200      	movs	r2, #0
 800589e:	611a      	str	r2, [r3, #16]
	TMR_Handle->Init.AutoReloadPreload = TIM_AUTORELOAD_PRELOAD_ENABLE;
 80058a0:	683b      	ldr	r3, [r7, #0]
 80058a2:	2280      	movs	r2, #128	; 0x80
 80058a4:	619a      	str	r2, [r3, #24]
	HAL_TIM_Base_Init(TMR_Handle);
 80058a6:	6838      	ldr	r0, [r7, #0]
 80058a8:	f7fd ff16 	bl	80036d8 <HAL_TIM_Base_Init>
	sClockSourceConfig.ClockSource = TIM_CLOCKSOURCE_INTERNAL;
 80058ac:	f44f 5380 	mov.w	r3, #4096	; 0x1000
 80058b0:	637b      	str	r3, [r7, #52]	; 0x34
	HAL_TIM_ConfigClockSource(TMR_Handle, &sClockSourceConfig);
 80058b2:	f107 0334 	add.w	r3, r7, #52	; 0x34
 80058b6:	4619      	mov	r1, r3
 80058b8:	6838      	ldr	r0, [r7, #0]
 80058ba:	f7fe fccd 	bl	8004258 <HAL_TIM_ConfigClockSource>
	HAL_TIM_IC_Init(TMR_Handle);
 80058be:	6838      	ldr	r0, [r7, #0]
 80058c0:	f7fe f8e2 	bl	8003a88 <HAL_TIM_IC_Init>
	sMasterConfig.MasterOutputTrigger = TIM_TRGO_RESET;
 80058c4:	2300      	movs	r3, #0
 80058c6:	62fb      	str	r3, [r7, #44]	; 0x2c
	sMasterConfig.MasterSlaveMode = TIM_MASTERSLAVEMODE_DISABLE;
 80058c8:	2300      	movs	r3, #0
 80058ca:	633b      	str	r3, [r7, #48]	; 0x30
	HAL_TIMEx_MasterConfigSynchronization(TMR_Handle, &sMasterConfig);
 80058cc:	f107 032c 	add.w	r3, r7, #44	; 0x2c
 80058d0:	4619      	mov	r1, r3
 80058d2:	6838      	ldr	r0, [r7, #0]
 80058d4:	f7ff fa24 	bl	8004d20 <HAL_TIMEx_MasterConfigSynchronization>
	sConfigIC.ICPolarity = TIM_INPUTCHANNELPOLARITY_RISING;
 80058d8:	2300      	movs	r3, #0
 80058da:	61fb      	str	r3, [r7, #28]
	sConfigIC.ICSelection = TIM_ICSELECTION_DIRECTTI;
 80058dc:	2301      	movs	r3, #1
 80058de:	623b      	str	r3, [r7, #32]
	sConfigIC.ICPrescaler = TIM_ICPSC_DIV1;
 80058e0:	2300      	movs	r3, #0
 80058e2:	627b      	str	r3, [r7, #36]	; 0x24
	sConfigIC.ICFilter = 0;
 80058e4:	2300      	movs	r3, #0
 80058e6:	62bb      	str	r3, [r7, #40]	; 0x28
	HAL_TIM_IC_ConfigChannel(TMR_Handle, &sConfigIC, HCSR04_CfgParam[au8_HCSR04_Instance].IC_TIM_CH);
 80058e8:	79fa      	ldrb	r2, [r7, #7]
 80058ea:	4911      	ldr	r1, [pc, #68]	; (8005930 <HCSR04_Init+0x3d0>)
 80058ec:	4613      	mov	r3, r2
 80058ee:	009b      	lsls	r3, r3, #2
 80058f0:	4413      	add	r3, r2
 80058f2:	009b      	lsls	r3, r3, #2
 80058f4:	440b      	add	r3, r1
 80058f6:	330c      	adds	r3, #12
 80058f8:	681a      	ldr	r2, [r3, #0]
 80058fa:	f107 031c 	add.w	r3, r7, #28
 80058fe:	4619      	mov	r1, r3
 8005900:	6838      	ldr	r0, [r7, #0]
 8005902:	f7fe fb4b 	bl	8003f9c <HAL_TIM_IC_ConfigChannel>

	/*--------[ Start The ICU Channel ]-------*/

	HAL_TIM_Base_Start_IT(TMR_Handle);
 8005906:	6838      	ldr	r0, [r7, #0]
 8005908:	f7fd ff36 	bl	8003778 <HAL_TIM_Base_Start_IT>
	HAL_TIM_IC_Start_IT(TMR_Handle, HCSR04_CfgParam[au8_HCSR04_Instance].IC_TIM_CH);
 800590c:	79fa      	ldrb	r2, [r7, #7]
 800590e:	4908      	ldr	r1, [pc, #32]	; (8005930 <HCSR04_Init+0x3d0>)
 8005910:	4613      	mov	r3, r2
 8005912:	009b      	lsls	r3, r3, #2
 8005914:	4413      	add	r3, r2
 8005916:	009b      	lsls	r3, r3, #2
 8005918:	440b      	add	r3, r1
 800591a:	330c      	adds	r3, #12
 800591c:	681b      	ldr	r3, [r3, #0]
 800591e:	4619      	mov	r1, r3
 8005920:	6838      	ldr	r0, [r7, #0]
 8005922:	f7fe f90b 	bl	8003b3c <HAL_TIM_IC_Start_IT>
}
 8005926:	bf00      	nop
 8005928:	3758      	adds	r7, #88	; 0x58
 800592a:	46bd      	mov	sp, r7
 800592c:	bd80      	pop	{r7, pc}
 800592e:	bf00      	nop
 8005930:	08008d40 	.word	0x08008d40
 8005934:	2000022c 	.word	0x2000022c

08005938 <HCSR04_TMR_OVF_ISR>:


void HCSR04_TMR_OVF_ISR(TIM_HandleTypeDef* htim)
{
 8005938:	b480      	push	{r7}
 800593a:	b085      	sub	sp, #20
 800593c:	af00      	add	r7, sp, #0
 800593e:	6078      	str	r0, [r7, #4]
	uint8_t i = 0;
 8005940:	2300      	movs	r3, #0
 8005942:	73fb      	strb	r3, [r7, #15]
	for(i=0; i<HCSR04_UNITS; i++)
 8005944:	2300      	movs	r3, #0
 8005946:	73fb      	strb	r3, [r7, #15]
 8005948:	e023      	b.n	8005992 <HCSR04_TMR_OVF_ISR+0x5a>
	{
		if(htim->Instance == HCSR04_CfgParam[i].TIM_Instance)
 800594a:	687b      	ldr	r3, [r7, #4]
 800594c:	6819      	ldr	r1, [r3, #0]
 800594e:	7bfa      	ldrb	r2, [r7, #15]
 8005950:	4815      	ldr	r0, [pc, #84]	; (80059a8 <HCSR04_TMR_OVF_ISR+0x70>)
 8005952:	4613      	mov	r3, r2
 8005954:	009b      	lsls	r3, r3, #2
 8005956:	4413      	add	r3, r2
 8005958:	009b      	lsls	r3, r3, #2
 800595a:	4403      	add	r3, r0
 800595c:	3308      	adds	r3, #8
 800595e:	681b      	ldr	r3, [r3, #0]
 8005960:	4299      	cmp	r1, r3
 8005962:	d113      	bne.n	800598c <HCSR04_TMR_OVF_ISR+0x54>
		{
			gs_HCSR04_info[i].TMR_OVC++;
 8005964:	7bfa      	ldrb	r2, [r7, #15]
 8005966:	4911      	ldr	r1, [pc, #68]	; (80059ac <HCSR04_TMR_OVF_ISR+0x74>)
 8005968:	4613      	mov	r3, r2
 800596a:	00db      	lsls	r3, r3, #3
 800596c:	4413      	add	r3, r2
 800596e:	009b      	lsls	r3, r3, #2
 8005970:	440b      	add	r3, r1
 8005972:	3302      	adds	r3, #2
 8005974:	881b      	ldrh	r3, [r3, #0]
 8005976:	3301      	adds	r3, #1
 8005978:	b298      	uxth	r0, r3
 800597a:	490c      	ldr	r1, [pc, #48]	; (80059ac <HCSR04_TMR_OVF_ISR+0x74>)
 800597c:	4613      	mov	r3, r2
 800597e:	00db      	lsls	r3, r3, #3
 8005980:	4413      	add	r3, r2
 8005982:	009b      	lsls	r3, r3, #2
 8005984:	440b      	add	r3, r1
 8005986:	3302      	adds	r3, #2
 8005988:	4602      	mov	r2, r0
 800598a:	801a      	strh	r2, [r3, #0]
	for(i=0; i<HCSR04_UNITS; i++)
 800598c:	7bfb      	ldrb	r3, [r7, #15]
 800598e:	3301      	adds	r3, #1
 8005990:	73fb      	strb	r3, [r7, #15]
 8005992:	7bfb      	ldrb	r3, [r7, #15]
 8005994:	2b03      	cmp	r3, #3
 8005996:	d9d8      	bls.n	800594a <HCSR04_TMR_OVF_ISR+0x12>
		}
	}
}
 8005998:	bf00      	nop
 800599a:	bf00      	nop
 800599c:	3714      	adds	r7, #20
 800599e:	46bd      	mov	sp, r7
 80059a0:	f85d 7b04 	ldr.w	r7, [sp], #4
 80059a4:	4770      	bx	lr
 80059a6:	bf00      	nop
 80059a8:	08008d40 	.word	0x08008d40
 80059ac:	2000022c 	.word	0x2000022c

080059b0 <HCSR04_TMR_IC_ISR>:


void HCSR04_TMR_IC_ISR(TIM_HandleTypeDef* htim)
{
 80059b0:	b5b0      	push	{r4, r5, r7, lr}
 80059b2:	b084      	sub	sp, #16
 80059b4:	af00      	add	r7, sp, #0
 80059b6:	6078      	str	r0, [r7, #4]
	uint8_t i = 0;
 80059b8:	2300      	movs	r3, #0
 80059ba:	73fb      	strb	r3, [r7, #15]
	uint32_t PS = 0;
 80059bc:	2300      	movs	r3, #0
 80059be:	60bb      	str	r3, [r7, #8]
	for(i=0; i<HCSR04_UNITS; i++)
 80059c0:	2300      	movs	r3, #0
 80059c2:	73fb      	strb	r3, [r7, #15]
 80059c4:	e22a      	b.n	8005e1c <HCSR04_TMR_IC_ISR+0x46c>
	{
		if((htim->Instance == HCSR04_CfgParam[i].TIM_Instance) && (htim->Channel == gs_HCSR04_info[i].ACTIV_CH))
 80059c6:	687b      	ldr	r3, [r7, #4]
 80059c8:	6819      	ldr	r1, [r3, #0]
 80059ca:	7bfa      	ldrb	r2, [r7, #15]
 80059cc:	486b      	ldr	r0, [pc, #428]	; (8005b7c <HCSR04_TMR_IC_ISR+0x1cc>)
 80059ce:	4613      	mov	r3, r2
 80059d0:	009b      	lsls	r3, r3, #2
 80059d2:	4413      	add	r3, r2
 80059d4:	009b      	lsls	r3, r3, #2
 80059d6:	4403      	add	r3, r0
 80059d8:	3308      	adds	r3, #8
 80059da:	681b      	ldr	r3, [r3, #0]
 80059dc:	4299      	cmp	r1, r3
 80059de:	f040 821a 	bne.w	8005e16 <HCSR04_TMR_IC_ISR+0x466>
 80059e2:	687b      	ldr	r3, [r7, #4]
 80059e4:	7f19      	ldrb	r1, [r3, #28]
 80059e6:	7bfa      	ldrb	r2, [r7, #15]
 80059e8:	4865      	ldr	r0, [pc, #404]	; (8005b80 <HCSR04_TMR_IC_ISR+0x1d0>)
 80059ea:	4613      	mov	r3, r2
 80059ec:	00db      	lsls	r3, r3, #3
 80059ee:	4413      	add	r3, r2
 80059f0:	009b      	lsls	r3, r3, #2
 80059f2:	4403      	add	r3, r0
 80059f4:	3320      	adds	r3, #32
 80059f6:	781b      	ldrb	r3, [r3, #0]
 80059f8:	4299      	cmp	r1, r3
 80059fa:	f040 820c 	bne.w	8005e16 <HCSR04_TMR_IC_ISR+0x466>
		{
			if (gs_HCSR04_info[i].EDGE_STATE == 0)
 80059fe:	7bfa      	ldrb	r2, [r7, #15]
 8005a00:	495f      	ldr	r1, [pc, #380]	; (8005b80 <HCSR04_TMR_IC_ISR+0x1d0>)
 8005a02:	4613      	mov	r3, r2
 8005a04:	00db      	lsls	r3, r3, #3
 8005a06:	4413      	add	r3, r2
 8005a08:	009b      	lsls	r3, r3, #2
 8005a0a:	440b      	add	r3, r1
 8005a0c:	781b      	ldrb	r3, [r3, #0]
 8005a0e:	2b00      	cmp	r3, #0
 8005a10:	f040 80b8 	bne.w	8005b84 <HCSR04_TMR_IC_ISR+0x1d4>
			{
				// Capture T1 & Reverse The ICU Edge Polarity
				gs_HCSR04_info[i].T1 = HAL_TIM_ReadCapturedValue(htim, HCSR04_CfgParam[i].IC_TIM_CH);
 8005a14:	7bfa      	ldrb	r2, [r7, #15]
 8005a16:	4959      	ldr	r1, [pc, #356]	; (8005b7c <HCSR04_TMR_IC_ISR+0x1cc>)
 8005a18:	4613      	mov	r3, r2
 8005a1a:	009b      	lsls	r3, r3, #2
 8005a1c:	4413      	add	r3, r2
 8005a1e:	009b      	lsls	r3, r3, #2
 8005a20:	440b      	add	r3, r1
 8005a22:	330c      	adds	r3, #12
 8005a24:	681b      	ldr	r3, [r3, #0]
 8005a26:	7bfc      	ldrb	r4, [r7, #15]
 8005a28:	4619      	mov	r1, r3
 8005a2a:	6878      	ldr	r0, [r7, #4]
 8005a2c:	f7fe fcdc 	bl	80043e8 <HAL_TIM_ReadCapturedValue>
 8005a30:	4602      	mov	r2, r0
 8005a32:	4953      	ldr	r1, [pc, #332]	; (8005b80 <HCSR04_TMR_IC_ISR+0x1d0>)
 8005a34:	4623      	mov	r3, r4
 8005a36:	00db      	lsls	r3, r3, #3
 8005a38:	4423      	add	r3, r4
 8005a3a:	009b      	lsls	r3, r3, #2
 8005a3c:	440b      	add	r3, r1
 8005a3e:	330c      	adds	r3, #12
 8005a40:	601a      	str	r2, [r3, #0]
				gs_HCSR04_info[i].EDGE_STATE = 1;
 8005a42:	7bfa      	ldrb	r2, [r7, #15]
 8005a44:	494e      	ldr	r1, [pc, #312]	; (8005b80 <HCSR04_TMR_IC_ISR+0x1d0>)
 8005a46:	4613      	mov	r3, r2
 8005a48:	00db      	lsls	r3, r3, #3
 8005a4a:	4413      	add	r3, r2
 8005a4c:	009b      	lsls	r3, r3, #2
 8005a4e:	440b      	add	r3, r1
 8005a50:	2201      	movs	r2, #1
 8005a52:	701a      	strb	r2, [r3, #0]
				__HAL_TIM_SET_CAPTUREPOLARITY(htim, HCSR04_CfgParam[i].IC_TIM_CH, TIM_INPUTCHANNELPOLARITY_FALLING);
 8005a54:	7bfa      	ldrb	r2, [r7, #15]
 8005a56:	4949      	ldr	r1, [pc, #292]	; (8005b7c <HCSR04_TMR_IC_ISR+0x1cc>)
 8005a58:	4613      	mov	r3, r2
 8005a5a:	009b      	lsls	r3, r3, #2
 8005a5c:	4413      	add	r3, r2
 8005a5e:	009b      	lsls	r3, r3, #2
 8005a60:	440b      	add	r3, r1
 8005a62:	330c      	adds	r3, #12
 8005a64:	681b      	ldr	r3, [r3, #0]
 8005a66:	2b00      	cmp	r3, #0
 8005a68:	d108      	bne.n	8005a7c <HCSR04_TMR_IC_ISR+0xcc>
 8005a6a:	687b      	ldr	r3, [r7, #4]
 8005a6c:	681b      	ldr	r3, [r3, #0]
 8005a6e:	6a1a      	ldr	r2, [r3, #32]
 8005a70:	687b      	ldr	r3, [r7, #4]
 8005a72:	681b      	ldr	r3, [r3, #0]
 8005a74:	f022 020a 	bic.w	r2, r2, #10
 8005a78:	621a      	str	r2, [r3, #32]
 8005a7a:	e02f      	b.n	8005adc <HCSR04_TMR_IC_ISR+0x12c>
 8005a7c:	7bfa      	ldrb	r2, [r7, #15]
 8005a7e:	493f      	ldr	r1, [pc, #252]	; (8005b7c <HCSR04_TMR_IC_ISR+0x1cc>)
 8005a80:	4613      	mov	r3, r2
 8005a82:	009b      	lsls	r3, r3, #2
 8005a84:	4413      	add	r3, r2
 8005a86:	009b      	lsls	r3, r3, #2
 8005a88:	440b      	add	r3, r1
 8005a8a:	330c      	adds	r3, #12
 8005a8c:	681b      	ldr	r3, [r3, #0]
 8005a8e:	2b04      	cmp	r3, #4
 8005a90:	d108      	bne.n	8005aa4 <HCSR04_TMR_IC_ISR+0xf4>
 8005a92:	687b      	ldr	r3, [r7, #4]
 8005a94:	681b      	ldr	r3, [r3, #0]
 8005a96:	6a1b      	ldr	r3, [r3, #32]
 8005a98:	687a      	ldr	r2, [r7, #4]
 8005a9a:	6812      	ldr	r2, [r2, #0]
 8005a9c:	f023 03a0 	bic.w	r3, r3, #160	; 0xa0
 8005aa0:	6213      	str	r3, [r2, #32]
 8005aa2:	e01b      	b.n	8005adc <HCSR04_TMR_IC_ISR+0x12c>
 8005aa4:	7bfa      	ldrb	r2, [r7, #15]
 8005aa6:	4935      	ldr	r1, [pc, #212]	; (8005b7c <HCSR04_TMR_IC_ISR+0x1cc>)
 8005aa8:	4613      	mov	r3, r2
 8005aaa:	009b      	lsls	r3, r3, #2
 8005aac:	4413      	add	r3, r2
 8005aae:	009b      	lsls	r3, r3, #2
 8005ab0:	440b      	add	r3, r1
 8005ab2:	330c      	adds	r3, #12
 8005ab4:	681b      	ldr	r3, [r3, #0]
 8005ab6:	2b08      	cmp	r3, #8
 8005ab8:	d108      	bne.n	8005acc <HCSR04_TMR_IC_ISR+0x11c>
 8005aba:	687b      	ldr	r3, [r7, #4]
 8005abc:	681b      	ldr	r3, [r3, #0]
 8005abe:	6a1b      	ldr	r3, [r3, #32]
 8005ac0:	687a      	ldr	r2, [r7, #4]
 8005ac2:	6812      	ldr	r2, [r2, #0]
 8005ac4:	f423 6320 	bic.w	r3, r3, #2560	; 0xa00
 8005ac8:	6213      	str	r3, [r2, #32]
 8005aca:	e007      	b.n	8005adc <HCSR04_TMR_IC_ISR+0x12c>
 8005acc:	687b      	ldr	r3, [r7, #4]
 8005ace:	681b      	ldr	r3, [r3, #0]
 8005ad0:	6a1b      	ldr	r3, [r3, #32]
 8005ad2:	687a      	ldr	r2, [r7, #4]
 8005ad4:	6812      	ldr	r2, [r2, #0]
 8005ad6:	f423 4320 	bic.w	r3, r3, #40960	; 0xa000
 8005ada:	6213      	str	r3, [r2, #32]
 8005adc:	7bfa      	ldrb	r2, [r7, #15]
 8005ade:	4927      	ldr	r1, [pc, #156]	; (8005b7c <HCSR04_TMR_IC_ISR+0x1cc>)
 8005ae0:	4613      	mov	r3, r2
 8005ae2:	009b      	lsls	r3, r3, #2
 8005ae4:	4413      	add	r3, r2
 8005ae6:	009b      	lsls	r3, r3, #2
 8005ae8:	440b      	add	r3, r1
 8005aea:	330c      	adds	r3, #12
 8005aec:	681b      	ldr	r3, [r3, #0]
 8005aee:	2b00      	cmp	r3, #0
 8005af0:	d108      	bne.n	8005b04 <HCSR04_TMR_IC_ISR+0x154>
 8005af2:	687b      	ldr	r3, [r7, #4]
 8005af4:	681b      	ldr	r3, [r3, #0]
 8005af6:	6a1a      	ldr	r2, [r3, #32]
 8005af8:	687b      	ldr	r3, [r7, #4]
 8005afa:	681b      	ldr	r3, [r3, #0]
 8005afc:	f042 0202 	orr.w	r2, r2, #2
 8005b00:	621a      	str	r2, [r3, #32]
 8005b02:	e02f      	b.n	8005b64 <HCSR04_TMR_IC_ISR+0x1b4>
 8005b04:	7bfa      	ldrb	r2, [r7, #15]
 8005b06:	491d      	ldr	r1, [pc, #116]	; (8005b7c <HCSR04_TMR_IC_ISR+0x1cc>)
 8005b08:	4613      	mov	r3, r2
 8005b0a:	009b      	lsls	r3, r3, #2
 8005b0c:	4413      	add	r3, r2
 8005b0e:	009b      	lsls	r3, r3, #2
 8005b10:	440b      	add	r3, r1
 8005b12:	330c      	adds	r3, #12
 8005b14:	681b      	ldr	r3, [r3, #0]
 8005b16:	2b04      	cmp	r3, #4
 8005b18:	d108      	bne.n	8005b2c <HCSR04_TMR_IC_ISR+0x17c>
 8005b1a:	687b      	ldr	r3, [r7, #4]
 8005b1c:	681b      	ldr	r3, [r3, #0]
 8005b1e:	6a1b      	ldr	r3, [r3, #32]
 8005b20:	687a      	ldr	r2, [r7, #4]
 8005b22:	6812      	ldr	r2, [r2, #0]
 8005b24:	f043 0320 	orr.w	r3, r3, #32
 8005b28:	6213      	str	r3, [r2, #32]
 8005b2a:	e01b      	b.n	8005b64 <HCSR04_TMR_IC_ISR+0x1b4>
 8005b2c:	7bfa      	ldrb	r2, [r7, #15]
 8005b2e:	4913      	ldr	r1, [pc, #76]	; (8005b7c <HCSR04_TMR_IC_ISR+0x1cc>)
 8005b30:	4613      	mov	r3, r2
 8005b32:	009b      	lsls	r3, r3, #2
 8005b34:	4413      	add	r3, r2
 8005b36:	009b      	lsls	r3, r3, #2
 8005b38:	440b      	add	r3, r1
 8005b3a:	330c      	adds	r3, #12
 8005b3c:	681b      	ldr	r3, [r3, #0]
 8005b3e:	2b08      	cmp	r3, #8
 8005b40:	d108      	bne.n	8005b54 <HCSR04_TMR_IC_ISR+0x1a4>
 8005b42:	687b      	ldr	r3, [r7, #4]
 8005b44:	681b      	ldr	r3, [r3, #0]
 8005b46:	6a1b      	ldr	r3, [r3, #32]
 8005b48:	687a      	ldr	r2, [r7, #4]
 8005b4a:	6812      	ldr	r2, [r2, #0]
 8005b4c:	f443 7300 	orr.w	r3, r3, #512	; 0x200
 8005b50:	6213      	str	r3, [r2, #32]
 8005b52:	e007      	b.n	8005b64 <HCSR04_TMR_IC_ISR+0x1b4>
 8005b54:	687b      	ldr	r3, [r7, #4]
 8005b56:	681b      	ldr	r3, [r3, #0]
 8005b58:	6a1b      	ldr	r3, [r3, #32]
 8005b5a:	687a      	ldr	r2, [r7, #4]
 8005b5c:	6812      	ldr	r2, [r2, #0]
 8005b5e:	f443 5300 	orr.w	r3, r3, #8192	; 0x2000
 8005b62:	6213      	str	r3, [r2, #32]
				gs_HCSR04_info[i].TMR_OVC = 0;
 8005b64:	7bfa      	ldrb	r2, [r7, #15]
 8005b66:	4906      	ldr	r1, [pc, #24]	; (8005b80 <HCSR04_TMR_IC_ISR+0x1d0>)
 8005b68:	4613      	mov	r3, r2
 8005b6a:	00db      	lsls	r3, r3, #3
 8005b6c:	4413      	add	r3, r2
 8005b6e:	009b      	lsls	r3, r3, #2
 8005b70:	440b      	add	r3, r1
 8005b72:	3302      	adds	r3, #2
 8005b74:	2200      	movs	r2, #0
 8005b76:	801a      	strh	r2, [r3, #0]
 8005b78:	e14d      	b.n	8005e16 <HCSR04_TMR_IC_ISR+0x466>
 8005b7a:	bf00      	nop
 8005b7c:	08008d40 	.word	0x08008d40
 8005b80:	2000022c 	.word	0x2000022c
			}
			else if (gs_HCSR04_info[i].EDGE_STATE == 1)
 8005b84:	7bfa      	ldrb	r2, [r7, #15]
 8005b86:	49ac      	ldr	r1, [pc, #688]	; (8005e38 <HCSR04_TMR_IC_ISR+0x488>)
 8005b88:	4613      	mov	r3, r2
 8005b8a:	00db      	lsls	r3, r3, #3
 8005b8c:	4413      	add	r3, r2
 8005b8e:	009b      	lsls	r3, r3, #2
 8005b90:	440b      	add	r3, r1
 8005b92:	781b      	ldrb	r3, [r3, #0]
 8005b94:	2b01      	cmp	r3, #1
 8005b96:	f040 813e 	bne.w	8005e16 <HCSR04_TMR_IC_ISR+0x466>
			{
				// Read The Current ARR & Prescaler Values For The Timer
				PS = HCSR04_CfgParam[i].TIM_Instance->PSC;
 8005b9a:	7bfa      	ldrb	r2, [r7, #15]
 8005b9c:	49a7      	ldr	r1, [pc, #668]	; (8005e3c <HCSR04_TMR_IC_ISR+0x48c>)
 8005b9e:	4613      	mov	r3, r2
 8005ba0:	009b      	lsls	r3, r3, #2
 8005ba2:	4413      	add	r3, r2
 8005ba4:	009b      	lsls	r3, r3, #2
 8005ba6:	440b      	add	r3, r1
 8005ba8:	3308      	adds	r3, #8
 8005baa:	681b      	ldr	r3, [r3, #0]
 8005bac:	6a9b      	ldr	r3, [r3, #40]	; 0x28
 8005bae:	60bb      	str	r3, [r7, #8]
				gs_HCSR04_info[i].TMR_ARR = HCSR04_CfgParam[i].TIM_Instance->ARR;
 8005bb0:	7bfa      	ldrb	r2, [r7, #15]
 8005bb2:	49a2      	ldr	r1, [pc, #648]	; (8005e3c <HCSR04_TMR_IC_ISR+0x48c>)
 8005bb4:	4613      	mov	r3, r2
 8005bb6:	009b      	lsls	r3, r3, #2
 8005bb8:	4413      	add	r3, r2
 8005bba:	009b      	lsls	r3, r3, #2
 8005bbc:	440b      	add	r3, r1
 8005bbe:	3308      	adds	r3, #8
 8005bc0:	681b      	ldr	r3, [r3, #0]
 8005bc2:	7bfa      	ldrb	r2, [r7, #15]
 8005bc4:	6ad9      	ldr	r1, [r3, #44]	; 0x2c
 8005bc6:	489c      	ldr	r0, [pc, #624]	; (8005e38 <HCSR04_TMR_IC_ISR+0x488>)
 8005bc8:	4613      	mov	r3, r2
 8005bca:	00db      	lsls	r3, r3, #3
 8005bcc:	4413      	add	r3, r2
 8005bce:	009b      	lsls	r3, r3, #2
 8005bd0:	4403      	add	r3, r0
 8005bd2:	3308      	adds	r3, #8
 8005bd4:	6019      	str	r1, [r3, #0]
				// Capture T2 & Calculate The Distance
				gs_HCSR04_info[i].T2 = HAL_TIM_ReadCapturedValue(htim, HCSR04_CfgParam[i].IC_TIM_CH);
 8005bd6:	7bfa      	ldrb	r2, [r7, #15]
 8005bd8:	4998      	ldr	r1, [pc, #608]	; (8005e3c <HCSR04_TMR_IC_ISR+0x48c>)
 8005bda:	4613      	mov	r3, r2
 8005bdc:	009b      	lsls	r3, r3, #2
 8005bde:	4413      	add	r3, r2
 8005be0:	009b      	lsls	r3, r3, #2
 8005be2:	440b      	add	r3, r1
 8005be4:	330c      	adds	r3, #12
 8005be6:	681b      	ldr	r3, [r3, #0]
 8005be8:	7bfc      	ldrb	r4, [r7, #15]
 8005bea:	4619      	mov	r1, r3
 8005bec:	6878      	ldr	r0, [r7, #4]
 8005bee:	f7fe fbfb 	bl	80043e8 <HAL_TIM_ReadCapturedValue>
 8005bf2:	4602      	mov	r2, r0
 8005bf4:	4990      	ldr	r1, [pc, #576]	; (8005e38 <HCSR04_TMR_IC_ISR+0x488>)
 8005bf6:	4623      	mov	r3, r4
 8005bf8:	00db      	lsls	r3, r3, #3
 8005bfa:	4423      	add	r3, r4
 8005bfc:	009b      	lsls	r3, r3, #2
 8005bfe:	440b      	add	r3, r1
 8005c00:	3310      	adds	r3, #16
 8005c02:	601a      	str	r2, [r3, #0]
				gs_HCSR04_info[i].T2 += (gs_HCSR04_info[i].TMR_OVC * (gs_HCSR04_info[i].TMR_ARR+1));
 8005c04:	7bfa      	ldrb	r2, [r7, #15]
 8005c06:	498c      	ldr	r1, [pc, #560]	; (8005e38 <HCSR04_TMR_IC_ISR+0x488>)
 8005c08:	4613      	mov	r3, r2
 8005c0a:	00db      	lsls	r3, r3, #3
 8005c0c:	4413      	add	r3, r2
 8005c0e:	009b      	lsls	r3, r3, #2
 8005c10:	440b      	add	r3, r1
 8005c12:	3310      	adds	r3, #16
 8005c14:	6819      	ldr	r1, [r3, #0]
 8005c16:	7bfa      	ldrb	r2, [r7, #15]
 8005c18:	4887      	ldr	r0, [pc, #540]	; (8005e38 <HCSR04_TMR_IC_ISR+0x488>)
 8005c1a:	4613      	mov	r3, r2
 8005c1c:	00db      	lsls	r3, r3, #3
 8005c1e:	4413      	add	r3, r2
 8005c20:	009b      	lsls	r3, r3, #2
 8005c22:	4403      	add	r3, r0
 8005c24:	3302      	adds	r3, #2
 8005c26:	881b      	ldrh	r3, [r3, #0]
 8005c28:	461c      	mov	r4, r3
 8005c2a:	7bfa      	ldrb	r2, [r7, #15]
 8005c2c:	4882      	ldr	r0, [pc, #520]	; (8005e38 <HCSR04_TMR_IC_ISR+0x488>)
 8005c2e:	4613      	mov	r3, r2
 8005c30:	00db      	lsls	r3, r3, #3
 8005c32:	4413      	add	r3, r2
 8005c34:	009b      	lsls	r3, r3, #2
 8005c36:	4403      	add	r3, r0
 8005c38:	3308      	adds	r3, #8
 8005c3a:	681b      	ldr	r3, [r3, #0]
 8005c3c:	3301      	adds	r3, #1
 8005c3e:	fb03 f304 	mul.w	r3, r3, r4
 8005c42:	7bfa      	ldrb	r2, [r7, #15]
 8005c44:	4419      	add	r1, r3
 8005c46:	487c      	ldr	r0, [pc, #496]	; (8005e38 <HCSR04_TMR_IC_ISR+0x488>)
 8005c48:	4613      	mov	r3, r2
 8005c4a:	00db      	lsls	r3, r3, #3
 8005c4c:	4413      	add	r3, r2
 8005c4e:	009b      	lsls	r3, r3, #2
 8005c50:	4403      	add	r3, r0
 8005c52:	3310      	adds	r3, #16
 8005c54:	6019      	str	r1, [r3, #0]
				gs_HCSR04_info[i].DIFF = gs_HCSR04_info[i].T2 - gs_HCSR04_info[i].T1;
 8005c56:	7bfa      	ldrb	r2, [r7, #15]
 8005c58:	4977      	ldr	r1, [pc, #476]	; (8005e38 <HCSR04_TMR_IC_ISR+0x488>)
 8005c5a:	4613      	mov	r3, r2
 8005c5c:	00db      	lsls	r3, r3, #3
 8005c5e:	4413      	add	r3, r2
 8005c60:	009b      	lsls	r3, r3, #2
 8005c62:	440b      	add	r3, r1
 8005c64:	3310      	adds	r3, #16
 8005c66:	6819      	ldr	r1, [r3, #0]
 8005c68:	7bfa      	ldrb	r2, [r7, #15]
 8005c6a:	4873      	ldr	r0, [pc, #460]	; (8005e38 <HCSR04_TMR_IC_ISR+0x488>)
 8005c6c:	4613      	mov	r3, r2
 8005c6e:	00db      	lsls	r3, r3, #3
 8005c70:	4413      	add	r3, r2
 8005c72:	009b      	lsls	r3, r3, #2
 8005c74:	4403      	add	r3, r0
 8005c76:	330c      	adds	r3, #12
 8005c78:	681b      	ldr	r3, [r3, #0]
 8005c7a:	7bfa      	ldrb	r2, [r7, #15]
 8005c7c:	1ac9      	subs	r1, r1, r3
 8005c7e:	486e      	ldr	r0, [pc, #440]	; (8005e38 <HCSR04_TMR_IC_ISR+0x488>)
 8005c80:	4613      	mov	r3, r2
 8005c82:	00db      	lsls	r3, r3, #3
 8005c84:	4413      	add	r3, r2
 8005c86:	009b      	lsls	r3, r3, #2
 8005c88:	4403      	add	r3, r0
 8005c8a:	3314      	adds	r3, #20
 8005c8c:	6019      	str	r1, [r3, #0]
				// Write The Distance Value To The Global Struct & Reverse The ICU Edge
				gs_HCSR04_info[i].DISTANCE = (gs_HCSR04_info[i].DIFF * 0.017)/(HCSR04_CfgParam[i].TIM_CLK_MHz/(PS+1));
 8005c8e:	7bfa      	ldrb	r2, [r7, #15]
 8005c90:	4969      	ldr	r1, [pc, #420]	; (8005e38 <HCSR04_TMR_IC_ISR+0x488>)
 8005c92:	4613      	mov	r3, r2
 8005c94:	00db      	lsls	r3, r3, #3
 8005c96:	4413      	add	r3, r2
 8005c98:	009b      	lsls	r3, r3, #2
 8005c9a:	440b      	add	r3, r1
 8005c9c:	3314      	adds	r3, #20
 8005c9e:	681b      	ldr	r3, [r3, #0]
 8005ca0:	4618      	mov	r0, r3
 8005ca2:	f7fa fc4f 	bl	8000544 <__aeabi_ui2d>
 8005ca6:	a362      	add	r3, pc, #392	; (adr r3, 8005e30 <HCSR04_TMR_IC_ISR+0x480>)
 8005ca8:	e9d3 2300 	ldrd	r2, r3, [r3]
 8005cac:	f7fa fcc4 	bl	8000638 <__aeabi_dmul>
 8005cb0:	4602      	mov	r2, r0
 8005cb2:	460b      	mov	r3, r1
 8005cb4:	4614      	mov	r4, r2
 8005cb6:	461d      	mov	r5, r3
 8005cb8:	7bfa      	ldrb	r2, [r7, #15]
 8005cba:	4960      	ldr	r1, [pc, #384]	; (8005e3c <HCSR04_TMR_IC_ISR+0x48c>)
 8005cbc:	4613      	mov	r3, r2
 8005cbe:	009b      	lsls	r3, r3, #2
 8005cc0:	4413      	add	r3, r2
 8005cc2:	009b      	lsls	r3, r3, #2
 8005cc4:	440b      	add	r3, r1
 8005cc6:	3310      	adds	r3, #16
 8005cc8:	681a      	ldr	r2, [r3, #0]
 8005cca:	68bb      	ldr	r3, [r7, #8]
 8005ccc:	3301      	adds	r3, #1
 8005cce:	fbb2 f3f3 	udiv	r3, r2, r3
 8005cd2:	4618      	mov	r0, r3
 8005cd4:	f7fa fc36 	bl	8000544 <__aeabi_ui2d>
 8005cd8:	4602      	mov	r2, r0
 8005cda:	460b      	mov	r3, r1
 8005cdc:	4620      	mov	r0, r4
 8005cde:	4629      	mov	r1, r5
 8005ce0:	f7fa fdd4 	bl	800088c <__aeabi_ddiv>
 8005ce4:	4602      	mov	r2, r0
 8005ce6:	460b      	mov	r3, r1
 8005ce8:	7bfc      	ldrb	r4, [r7, #15]
 8005cea:	4610      	mov	r0, r2
 8005cec:	4619      	mov	r1, r3
 8005cee:	f7fa ff7b 	bl	8000be8 <__aeabi_d2f>
 8005cf2:	4602      	mov	r2, r0
 8005cf4:	4950      	ldr	r1, [pc, #320]	; (8005e38 <HCSR04_TMR_IC_ISR+0x488>)
 8005cf6:	4623      	mov	r3, r4
 8005cf8:	00db      	lsls	r3, r3, #3
 8005cfa:	4423      	add	r3, r4
 8005cfc:	009b      	lsls	r3, r3, #2
 8005cfe:	440b      	add	r3, r1
 8005d00:	3318      	adds	r3, #24
 8005d02:	601a      	str	r2, [r3, #0]
				gs_HCSR04_info[i].EDGE_STATE = 0;
 8005d04:	7bfa      	ldrb	r2, [r7, #15]
 8005d06:	494c      	ldr	r1, [pc, #304]	; (8005e38 <HCSR04_TMR_IC_ISR+0x488>)
 8005d08:	4613      	mov	r3, r2
 8005d0a:	00db      	lsls	r3, r3, #3
 8005d0c:	4413      	add	r3, r2
 8005d0e:	009b      	lsls	r3, r3, #2
 8005d10:	440b      	add	r3, r1
 8005d12:	2200      	movs	r2, #0
 8005d14:	701a      	strb	r2, [r3, #0]
				__HAL_TIM_SET_CAPTUREPOLARITY(htim, HCSR04_CfgParam[i].IC_TIM_CH, TIM_INPUTCHANNELPOLARITY_RISING);
 8005d16:	7bfa      	ldrb	r2, [r7, #15]
 8005d18:	4948      	ldr	r1, [pc, #288]	; (8005e3c <HCSR04_TMR_IC_ISR+0x48c>)
 8005d1a:	4613      	mov	r3, r2
 8005d1c:	009b      	lsls	r3, r3, #2
 8005d1e:	4413      	add	r3, r2
 8005d20:	009b      	lsls	r3, r3, #2
 8005d22:	440b      	add	r3, r1
 8005d24:	330c      	adds	r3, #12
 8005d26:	681b      	ldr	r3, [r3, #0]
 8005d28:	2b00      	cmp	r3, #0
 8005d2a:	d108      	bne.n	8005d3e <HCSR04_TMR_IC_ISR+0x38e>
 8005d2c:	687b      	ldr	r3, [r7, #4]
 8005d2e:	681b      	ldr	r3, [r3, #0]
 8005d30:	6a1a      	ldr	r2, [r3, #32]
 8005d32:	687b      	ldr	r3, [r7, #4]
 8005d34:	681b      	ldr	r3, [r3, #0]
 8005d36:	f022 020a 	bic.w	r2, r2, #10
 8005d3a:	621a      	str	r2, [r3, #32]
 8005d3c:	e02f      	b.n	8005d9e <HCSR04_TMR_IC_ISR+0x3ee>
 8005d3e:	7bfa      	ldrb	r2, [r7, #15]
 8005d40:	493e      	ldr	r1, [pc, #248]	; (8005e3c <HCSR04_TMR_IC_ISR+0x48c>)
 8005d42:	4613      	mov	r3, r2
 8005d44:	009b      	lsls	r3, r3, #2
 8005d46:	4413      	add	r3, r2
 8005d48:	009b      	lsls	r3, r3, #2
 8005d4a:	440b      	add	r3, r1
 8005d4c:	330c      	adds	r3, #12
 8005d4e:	681b      	ldr	r3, [r3, #0]
 8005d50:	2b04      	cmp	r3, #4
 8005d52:	d108      	bne.n	8005d66 <HCSR04_TMR_IC_ISR+0x3b6>
 8005d54:	687b      	ldr	r3, [r7, #4]
 8005d56:	681b      	ldr	r3, [r3, #0]
 8005d58:	6a1b      	ldr	r3, [r3, #32]
 8005d5a:	687a      	ldr	r2, [r7, #4]
 8005d5c:	6812      	ldr	r2, [r2, #0]
 8005d5e:	f023 03a0 	bic.w	r3, r3, #160	; 0xa0
 8005d62:	6213      	str	r3, [r2, #32]
 8005d64:	e01b      	b.n	8005d9e <HCSR04_TMR_IC_ISR+0x3ee>
 8005d66:	7bfa      	ldrb	r2, [r7, #15]
 8005d68:	4934      	ldr	r1, [pc, #208]	; (8005e3c <HCSR04_TMR_IC_ISR+0x48c>)
 8005d6a:	4613      	mov	r3, r2
 8005d6c:	009b      	lsls	r3, r3, #2
 8005d6e:	4413      	add	r3, r2
 8005d70:	009b      	lsls	r3, r3, #2
 8005d72:	440b      	add	r3, r1
 8005d74:	330c      	adds	r3, #12
 8005d76:	681b      	ldr	r3, [r3, #0]
 8005d78:	2b08      	cmp	r3, #8
 8005d7a:	d108      	bne.n	8005d8e <HCSR04_TMR_IC_ISR+0x3de>
 8005d7c:	687b      	ldr	r3, [r7, #4]
 8005d7e:	681b      	ldr	r3, [r3, #0]
 8005d80:	6a1b      	ldr	r3, [r3, #32]
 8005d82:	687a      	ldr	r2, [r7, #4]
 8005d84:	6812      	ldr	r2, [r2, #0]
 8005d86:	f423 6320 	bic.w	r3, r3, #2560	; 0xa00
 8005d8a:	6213      	str	r3, [r2, #32]
 8005d8c:	e007      	b.n	8005d9e <HCSR04_TMR_IC_ISR+0x3ee>
 8005d8e:	687b      	ldr	r3, [r7, #4]
 8005d90:	681b      	ldr	r3, [r3, #0]
 8005d92:	6a1b      	ldr	r3, [r3, #32]
 8005d94:	687a      	ldr	r2, [r7, #4]
 8005d96:	6812      	ldr	r2, [r2, #0]
 8005d98:	f423 4320 	bic.w	r3, r3, #40960	; 0xa000
 8005d9c:	6213      	str	r3, [r2, #32]
 8005d9e:	7bfa      	ldrb	r2, [r7, #15]
 8005da0:	4926      	ldr	r1, [pc, #152]	; (8005e3c <HCSR04_TMR_IC_ISR+0x48c>)
 8005da2:	4613      	mov	r3, r2
 8005da4:	009b      	lsls	r3, r3, #2
 8005da6:	4413      	add	r3, r2
 8005da8:	009b      	lsls	r3, r3, #2
 8005daa:	440b      	add	r3, r1
 8005dac:	330c      	adds	r3, #12
 8005dae:	681b      	ldr	r3, [r3, #0]
 8005db0:	2b00      	cmp	r3, #0
 8005db2:	d106      	bne.n	8005dc2 <HCSR04_TMR_IC_ISR+0x412>
 8005db4:	687b      	ldr	r3, [r7, #4]
 8005db6:	681a      	ldr	r2, [r3, #0]
 8005db8:	687b      	ldr	r3, [r7, #4]
 8005dba:	681b      	ldr	r3, [r3, #0]
 8005dbc:	6a12      	ldr	r2, [r2, #32]
 8005dbe:	621a      	str	r2, [r3, #32]
 8005dc0:	e029      	b.n	8005e16 <HCSR04_TMR_IC_ISR+0x466>
 8005dc2:	7bfa      	ldrb	r2, [r7, #15]
 8005dc4:	491d      	ldr	r1, [pc, #116]	; (8005e3c <HCSR04_TMR_IC_ISR+0x48c>)
 8005dc6:	4613      	mov	r3, r2
 8005dc8:	009b      	lsls	r3, r3, #2
 8005dca:	4413      	add	r3, r2
 8005dcc:	009b      	lsls	r3, r3, #2
 8005dce:	440b      	add	r3, r1
 8005dd0:	330c      	adds	r3, #12
 8005dd2:	681b      	ldr	r3, [r3, #0]
 8005dd4:	2b04      	cmp	r3, #4
 8005dd6:	d106      	bne.n	8005de6 <HCSR04_TMR_IC_ISR+0x436>
 8005dd8:	687b      	ldr	r3, [r7, #4]
 8005dda:	681b      	ldr	r3, [r3, #0]
 8005ddc:	687a      	ldr	r2, [r7, #4]
 8005dde:	6812      	ldr	r2, [r2, #0]
 8005de0:	6a1b      	ldr	r3, [r3, #32]
 8005de2:	6213      	str	r3, [r2, #32]
 8005de4:	e017      	b.n	8005e16 <HCSR04_TMR_IC_ISR+0x466>
 8005de6:	7bfa      	ldrb	r2, [r7, #15]
 8005de8:	4914      	ldr	r1, [pc, #80]	; (8005e3c <HCSR04_TMR_IC_ISR+0x48c>)
 8005dea:	4613      	mov	r3, r2
 8005dec:	009b      	lsls	r3, r3, #2
 8005dee:	4413      	add	r3, r2
 8005df0:	009b      	lsls	r3, r3, #2
 8005df2:	440b      	add	r3, r1
 8005df4:	330c      	adds	r3, #12
 8005df6:	681b      	ldr	r3, [r3, #0]
 8005df8:	2b08      	cmp	r3, #8
 8005dfa:	d106      	bne.n	8005e0a <HCSR04_TMR_IC_ISR+0x45a>
 8005dfc:	687b      	ldr	r3, [r7, #4]
 8005dfe:	681b      	ldr	r3, [r3, #0]
 8005e00:	687a      	ldr	r2, [r7, #4]
 8005e02:	6812      	ldr	r2, [r2, #0]
 8005e04:	6a1b      	ldr	r3, [r3, #32]
 8005e06:	6213      	str	r3, [r2, #32]
 8005e08:	e005      	b.n	8005e16 <HCSR04_TMR_IC_ISR+0x466>
 8005e0a:	687b      	ldr	r3, [r7, #4]
 8005e0c:	681b      	ldr	r3, [r3, #0]
 8005e0e:	687a      	ldr	r2, [r7, #4]
 8005e10:	6812      	ldr	r2, [r2, #0]
 8005e12:	6a1b      	ldr	r3, [r3, #32]
 8005e14:	6213      	str	r3, [r2, #32]
	for(i=0; i<HCSR04_UNITS; i++)
 8005e16:	7bfb      	ldrb	r3, [r7, #15]
 8005e18:	3301      	adds	r3, #1
 8005e1a:	73fb      	strb	r3, [r7, #15]
 8005e1c:	7bfb      	ldrb	r3, [r7, #15]
 8005e1e:	2b03      	cmp	r3, #3
 8005e20:	f67f add1 	bls.w	80059c6 <HCSR04_TMR_IC_ISR+0x16>
			}
		}
	}
}
 8005e24:	bf00      	nop
 8005e26:	bf00      	nop
 8005e28:	3710      	adds	r7, #16
 8005e2a:	46bd      	mov	sp, r7
 8005e2c:	bdb0      	pop	{r4, r5, r7, pc}
 8005e2e:	bf00      	nop
 8005e30:	b020c49c 	.word	0xb020c49c
 8005e34:	3f916872 	.word	0x3f916872
 8005e38:	2000022c 	.word	0x2000022c
 8005e3c:	08008d40 	.word	0x08008d40

08005e40 <HCSR04_Read>:

float HCSR04_Read(uint8_t au8_HCSR04_Instance)
{
 8005e40:	b480      	push	{r7}
 8005e42:	b083      	sub	sp, #12
 8005e44:	af00      	add	r7, sp, #0
 8005e46:	4603      	mov	r3, r0
 8005e48:	71fb      	strb	r3, [r7, #7]
	return gs_HCSR04_info[au8_HCSR04_Instance].DISTANCE;
 8005e4a:	79fa      	ldrb	r2, [r7, #7]
 8005e4c:	4908      	ldr	r1, [pc, #32]	; (8005e70 <HCSR04_Read+0x30>)
 8005e4e:	4613      	mov	r3, r2
 8005e50:	00db      	lsls	r3, r3, #3
 8005e52:	4413      	add	r3, r2
 8005e54:	009b      	lsls	r3, r3, #2
 8005e56:	440b      	add	r3, r1
 8005e58:	3318      	adds	r3, #24
 8005e5a:	681b      	ldr	r3, [r3, #0]
 8005e5c:	ee07 3a90 	vmov	s15, r3
}
 8005e60:	eeb0 0a67 	vmov.f32	s0, s15
 8005e64:	370c      	adds	r7, #12
 8005e66:	46bd      	mov	sp, r7
 8005e68:	f85d 7b04 	ldr.w	r7, [sp], #4
 8005e6c:	4770      	bx	lr
 8005e6e:	bf00      	nop
 8005e70:	2000022c 	.word	0x2000022c

08005e74 <HCSR04_Trigger>:

void HCSR04_Trigger(uint8_t au8_HCSR04_Instance)
{
 8005e74:	b580      	push	{r7, lr}
 8005e76:	b082      	sub	sp, #8
 8005e78:	af00      	add	r7, sp, #0
 8005e7a:	4603      	mov	r3, r0
 8005e7c:	71fb      	strb	r3, [r7, #7]
	HAL_GPIO_WritePin(HCSR04_CfgParam[au8_HCSR04_Instance].TRIG_GPIO, HCSR04_CfgParam[au8_HCSR04_Instance].TRIG_PIN, 1);
 8005e7e:	79fa      	ldrb	r2, [r7, #7]
 8005e80:	4917      	ldr	r1, [pc, #92]	; (8005ee0 <HCSR04_Trigger+0x6c>)
 8005e82:	4613      	mov	r3, r2
 8005e84:	009b      	lsls	r3, r3, #2
 8005e86:	4413      	add	r3, r2
 8005e88:	009b      	lsls	r3, r3, #2
 8005e8a:	440b      	add	r3, r1
 8005e8c:	6818      	ldr	r0, [r3, #0]
 8005e8e:	79fa      	ldrb	r2, [r7, #7]
 8005e90:	4913      	ldr	r1, [pc, #76]	; (8005ee0 <HCSR04_Trigger+0x6c>)
 8005e92:	4613      	mov	r3, r2
 8005e94:	009b      	lsls	r3, r3, #2
 8005e96:	4413      	add	r3, r2
 8005e98:	009b      	lsls	r3, r3, #2
 8005e9a:	440b      	add	r3, r1
 8005e9c:	3304      	adds	r3, #4
 8005e9e:	881b      	ldrh	r3, [r3, #0]
 8005ea0:	2201      	movs	r2, #1
 8005ea2:	4619      	mov	r1, r3
 8005ea4:	f7fc fe94 	bl	8002bd0 <HAL_GPIO_WritePin>
	DWT_Delay_us(2);
 8005ea8:	2002      	movs	r0, #2
 8005eaa:	f7ff fb31 	bl	8005510 <DWT_Delay_us>
	HAL_GPIO_WritePin(HCSR04_CfgParam[au8_HCSR04_Instance].TRIG_GPIO, HCSR04_CfgParam[au8_HCSR04_Instance].TRIG_PIN, 0);
 8005eae:	79fa      	ldrb	r2, [r7, #7]
 8005eb0:	490b      	ldr	r1, [pc, #44]	; (8005ee0 <HCSR04_Trigger+0x6c>)
 8005eb2:	4613      	mov	r3, r2
 8005eb4:	009b      	lsls	r3, r3, #2
 8005eb6:	4413      	add	r3, r2
 8005eb8:	009b      	lsls	r3, r3, #2
 8005eba:	440b      	add	r3, r1
 8005ebc:	6818      	ldr	r0, [r3, #0]
 8005ebe:	79fa      	ldrb	r2, [r7, #7]
 8005ec0:	4907      	ldr	r1, [pc, #28]	; (8005ee0 <HCSR04_Trigger+0x6c>)
 8005ec2:	4613      	mov	r3, r2
 8005ec4:	009b      	lsls	r3, r3, #2
 8005ec6:	4413      	add	r3, r2
 8005ec8:	009b      	lsls	r3, r3, #2
 8005eca:	440b      	add	r3, r1
 8005ecc:	3304      	adds	r3, #4
 8005ece:	881b      	ldrh	r3, [r3, #0]
 8005ed0:	2200      	movs	r2, #0
 8005ed2:	4619      	mov	r1, r3
 8005ed4:	f7fc fe7c 	bl	8002bd0 <HAL_GPIO_WritePin>
}
 8005ed8:	bf00      	nop
 8005eda:	3708      	adds	r7, #8
 8005edc:	46bd      	mov	sp, r7
 8005ede:	bd80      	pop	{r7, pc}
 8005ee0:	08008d40 	.word	0x08008d40

08005ee4 <DWT_Delay_Init>:

#include "DWT_Delay.h"


uint32_t DWT_Delay_Init(void)
{
 8005ee4:	b480      	push	{r7}
 8005ee6:	af00      	add	r7, sp, #0
    /* Disable TRC */
    CoreDebug->DEMCR &= ~CoreDebug_DEMCR_TRCENA_Msk; // ~0x01000000;
 8005ee8:	4b14      	ldr	r3, [pc, #80]	; (8005f3c <DWT_Delay_Init+0x58>)
 8005eea:	68db      	ldr	r3, [r3, #12]
 8005eec:	4a13      	ldr	r2, [pc, #76]	; (8005f3c <DWT_Delay_Init+0x58>)
 8005eee:	f023 7380 	bic.w	r3, r3, #16777216	; 0x1000000
 8005ef2:	60d3      	str	r3, [r2, #12]
    /* Enable TRC */
    CoreDebug->DEMCR |=  CoreDebug_DEMCR_TRCENA_Msk; // 0x01000000;
 8005ef4:	4b11      	ldr	r3, [pc, #68]	; (8005f3c <DWT_Delay_Init+0x58>)
 8005ef6:	68db      	ldr	r3, [r3, #12]
 8005ef8:	4a10      	ldr	r2, [pc, #64]	; (8005f3c <DWT_Delay_Init+0x58>)
 8005efa:	f043 7380 	orr.w	r3, r3, #16777216	; 0x1000000
 8005efe:	60d3      	str	r3, [r2, #12]

    /* Disable clock cycle counter */
    DWT->CTRL &= ~DWT_CTRL_CYCCNTENA_Msk; //~0x00000001;
 8005f00:	4b0f      	ldr	r3, [pc, #60]	; (8005f40 <DWT_Delay_Init+0x5c>)
 8005f02:	681b      	ldr	r3, [r3, #0]
 8005f04:	4a0e      	ldr	r2, [pc, #56]	; (8005f40 <DWT_Delay_Init+0x5c>)
 8005f06:	f023 0301 	bic.w	r3, r3, #1
 8005f0a:	6013      	str	r3, [r2, #0]
    /* Enable  clock cycle counter */
    DWT->CTRL |=  DWT_CTRL_CYCCNTENA_Msk; //0x00000001;
 8005f0c:	4b0c      	ldr	r3, [pc, #48]	; (8005f40 <DWT_Delay_Init+0x5c>)
 8005f0e:	681b      	ldr	r3, [r3, #0]
 8005f10:	4a0b      	ldr	r2, [pc, #44]	; (8005f40 <DWT_Delay_Init+0x5c>)
 8005f12:	f043 0301 	orr.w	r3, r3, #1
 8005f16:	6013      	str	r3, [r2, #0]

    /* Reset the clock cycle counter value */
    DWT->CYCCNT = 0;
 8005f18:	4b09      	ldr	r3, [pc, #36]	; (8005f40 <DWT_Delay_Init+0x5c>)
 8005f1a:	2200      	movs	r2, #0
 8005f1c:	605a      	str	r2, [r3, #4]

    /* 3 NO OPERATION instructions */
    __ASM volatile ("NOP");
 8005f1e:	bf00      	nop
    __ASM volatile ("NOP");
 8005f20:	bf00      	nop
    __ASM volatile ("NOP");
 8005f22:	bf00      	nop

    /* Check if clock cycle counter has started */
    if(DWT->CYCCNT)
 8005f24:	4b06      	ldr	r3, [pc, #24]	; (8005f40 <DWT_Delay_Init+0x5c>)
 8005f26:	685b      	ldr	r3, [r3, #4]
 8005f28:	2b00      	cmp	r3, #0
 8005f2a:	d001      	beq.n	8005f30 <DWT_Delay_Init+0x4c>
    {
       return 0; /*clock cycle counter started*/
 8005f2c:	2300      	movs	r3, #0
 8005f2e:	e000      	b.n	8005f32 <DWT_Delay_Init+0x4e>
    }
    else
    {
      return 1; /*clock cycle counter not started*/
 8005f30:	2301      	movs	r3, #1
    }
}
 8005f32:	4618      	mov	r0, r3
 8005f34:	46bd      	mov	sp, r7
 8005f36:	f85d 7b04 	ldr.w	r7, [sp], #4
 8005f3a:	4770      	bx	lr
 8005f3c:	e000edf0 	.word	0xe000edf0
 8005f40:	e0001000 	.word	0xe0001000

08005f44 <__errno>:
 8005f44:	4b01      	ldr	r3, [pc, #4]	; (8005f4c <__errno+0x8>)
 8005f46:	6818      	ldr	r0, [r3, #0]
 8005f48:	4770      	bx	lr
 8005f4a:	bf00      	nop
 8005f4c:	20000028 	.word	0x20000028

08005f50 <__libc_init_array>:
 8005f50:	b570      	push	{r4, r5, r6, lr}
 8005f52:	4d0d      	ldr	r5, [pc, #52]	; (8005f88 <__libc_init_array+0x38>)
 8005f54:	4c0d      	ldr	r4, [pc, #52]	; (8005f8c <__libc_init_array+0x3c>)
 8005f56:	1b64      	subs	r4, r4, r5
 8005f58:	10a4      	asrs	r4, r4, #2
 8005f5a:	2600      	movs	r6, #0
 8005f5c:	42a6      	cmp	r6, r4
 8005f5e:	d109      	bne.n	8005f74 <__libc_init_array+0x24>
 8005f60:	4d0b      	ldr	r5, [pc, #44]	; (8005f90 <__libc_init_array+0x40>)
 8005f62:	4c0c      	ldr	r4, [pc, #48]	; (8005f94 <__libc_init_array+0x44>)
 8005f64:	f002 feb6 	bl	8008cd4 <_init>
 8005f68:	1b64      	subs	r4, r4, r5
 8005f6a:	10a4      	asrs	r4, r4, #2
 8005f6c:	2600      	movs	r6, #0
 8005f6e:	42a6      	cmp	r6, r4
 8005f70:	d105      	bne.n	8005f7e <__libc_init_array+0x2e>
 8005f72:	bd70      	pop	{r4, r5, r6, pc}
 8005f74:	f855 3b04 	ldr.w	r3, [r5], #4
 8005f78:	4798      	blx	r3
 8005f7a:	3601      	adds	r6, #1
 8005f7c:	e7ee      	b.n	8005f5c <__libc_init_array+0xc>
 8005f7e:	f855 3b04 	ldr.w	r3, [r5], #4
 8005f82:	4798      	blx	r3
 8005f84:	3601      	adds	r6, #1
 8005f86:	e7f2      	b.n	8005f6e <__libc_init_array+0x1e>
 8005f88:	0800917c 	.word	0x0800917c
 8005f8c:	0800917c 	.word	0x0800917c
 8005f90:	0800917c 	.word	0x0800917c
 8005f94:	08009180 	.word	0x08009180

08005f98 <memset>:
 8005f98:	4402      	add	r2, r0
 8005f9a:	4603      	mov	r3, r0
 8005f9c:	4293      	cmp	r3, r2
 8005f9e:	d100      	bne.n	8005fa2 <memset+0xa>
 8005fa0:	4770      	bx	lr
 8005fa2:	f803 1b01 	strb.w	r1, [r3], #1
 8005fa6:	e7f9      	b.n	8005f9c <memset+0x4>

08005fa8 <__cvt>:
 8005fa8:	e92d 47ff 	stmdb	sp!, {r0, r1, r2, r3, r4, r5, r6, r7, r8, r9, sl, lr}
 8005fac:	ec55 4b10 	vmov	r4, r5, d0
 8005fb0:	2d00      	cmp	r5, #0
 8005fb2:	460e      	mov	r6, r1
 8005fb4:	4619      	mov	r1, r3
 8005fb6:	462b      	mov	r3, r5
 8005fb8:	bfbb      	ittet	lt
 8005fba:	f105 4300 	addlt.w	r3, r5, #2147483648	; 0x80000000
 8005fbe:	461d      	movlt	r5, r3
 8005fc0:	2300      	movge	r3, #0
 8005fc2:	232d      	movlt	r3, #45	; 0x2d
 8005fc4:	700b      	strb	r3, [r1, #0]
 8005fc6:	9b0d      	ldr	r3, [sp, #52]	; 0x34
 8005fc8:	f8dd a030 	ldr.w	sl, [sp, #48]	; 0x30
 8005fcc:	4691      	mov	r9, r2
 8005fce:	f023 0820 	bic.w	r8, r3, #32
 8005fd2:	bfbc      	itt	lt
 8005fd4:	4622      	movlt	r2, r4
 8005fd6:	4614      	movlt	r4, r2
 8005fd8:	f1b8 0f46 	cmp.w	r8, #70	; 0x46
 8005fdc:	d005      	beq.n	8005fea <__cvt+0x42>
 8005fde:	f1b8 0f45 	cmp.w	r8, #69	; 0x45
 8005fe2:	d100      	bne.n	8005fe6 <__cvt+0x3e>
 8005fe4:	3601      	adds	r6, #1
 8005fe6:	2102      	movs	r1, #2
 8005fe8:	e000      	b.n	8005fec <__cvt+0x44>
 8005fea:	2103      	movs	r1, #3
 8005fec:	ab03      	add	r3, sp, #12
 8005fee:	9301      	str	r3, [sp, #4]
 8005ff0:	ab02      	add	r3, sp, #8
 8005ff2:	9300      	str	r3, [sp, #0]
 8005ff4:	ec45 4b10 	vmov	d0, r4, r5
 8005ff8:	4653      	mov	r3, sl
 8005ffa:	4632      	mov	r2, r6
 8005ffc:	f000 fcec 	bl	80069d8 <_dtoa_r>
 8006000:	f1b8 0f47 	cmp.w	r8, #71	; 0x47
 8006004:	4607      	mov	r7, r0
 8006006:	d102      	bne.n	800600e <__cvt+0x66>
 8006008:	f019 0f01 	tst.w	r9, #1
 800600c:	d022      	beq.n	8006054 <__cvt+0xac>
 800600e:	f1b8 0f46 	cmp.w	r8, #70	; 0x46
 8006012:	eb07 0906 	add.w	r9, r7, r6
 8006016:	d110      	bne.n	800603a <__cvt+0x92>
 8006018:	783b      	ldrb	r3, [r7, #0]
 800601a:	2b30      	cmp	r3, #48	; 0x30
 800601c:	d10a      	bne.n	8006034 <__cvt+0x8c>
 800601e:	2200      	movs	r2, #0
 8006020:	2300      	movs	r3, #0
 8006022:	4620      	mov	r0, r4
 8006024:	4629      	mov	r1, r5
 8006026:	f7fa fd6f 	bl	8000b08 <__aeabi_dcmpeq>
 800602a:	b918      	cbnz	r0, 8006034 <__cvt+0x8c>
 800602c:	f1c6 0601 	rsb	r6, r6, #1
 8006030:	f8ca 6000 	str.w	r6, [sl]
 8006034:	f8da 3000 	ldr.w	r3, [sl]
 8006038:	4499      	add	r9, r3
 800603a:	2200      	movs	r2, #0
 800603c:	2300      	movs	r3, #0
 800603e:	4620      	mov	r0, r4
 8006040:	4629      	mov	r1, r5
 8006042:	f7fa fd61 	bl	8000b08 <__aeabi_dcmpeq>
 8006046:	b108      	cbz	r0, 800604c <__cvt+0xa4>
 8006048:	f8cd 900c 	str.w	r9, [sp, #12]
 800604c:	2230      	movs	r2, #48	; 0x30
 800604e:	9b03      	ldr	r3, [sp, #12]
 8006050:	454b      	cmp	r3, r9
 8006052:	d307      	bcc.n	8006064 <__cvt+0xbc>
 8006054:	9b03      	ldr	r3, [sp, #12]
 8006056:	9a0e      	ldr	r2, [sp, #56]	; 0x38
 8006058:	1bdb      	subs	r3, r3, r7
 800605a:	4638      	mov	r0, r7
 800605c:	6013      	str	r3, [r2, #0]
 800605e:	b004      	add	sp, #16
 8006060:	e8bd 87f0 	ldmia.w	sp!, {r4, r5, r6, r7, r8, r9, sl, pc}
 8006064:	1c59      	adds	r1, r3, #1
 8006066:	9103      	str	r1, [sp, #12]
 8006068:	701a      	strb	r2, [r3, #0]
 800606a:	e7f0      	b.n	800604e <__cvt+0xa6>

0800606c <__exponent>:
 800606c:	b5f7      	push	{r0, r1, r2, r4, r5, r6, r7, lr}
 800606e:	4603      	mov	r3, r0
 8006070:	2900      	cmp	r1, #0
 8006072:	bfb8      	it	lt
 8006074:	4249      	neglt	r1, r1
 8006076:	f803 2b02 	strb.w	r2, [r3], #2
 800607a:	bfb4      	ite	lt
 800607c:	222d      	movlt	r2, #45	; 0x2d
 800607e:	222b      	movge	r2, #43	; 0x2b
 8006080:	2909      	cmp	r1, #9
 8006082:	7042      	strb	r2, [r0, #1]
 8006084:	dd2a      	ble.n	80060dc <__exponent+0x70>
 8006086:	f10d 0407 	add.w	r4, sp, #7
 800608a:	46a4      	mov	ip, r4
 800608c:	270a      	movs	r7, #10
 800608e:	46a6      	mov	lr, r4
 8006090:	460a      	mov	r2, r1
 8006092:	fb91 f6f7 	sdiv	r6, r1, r7
 8006096:	fb07 1516 	mls	r5, r7, r6, r1
 800609a:	3530      	adds	r5, #48	; 0x30
 800609c:	2a63      	cmp	r2, #99	; 0x63
 800609e:	f104 34ff 	add.w	r4, r4, #4294967295	; 0xffffffff
 80060a2:	f80e 5c01 	strb.w	r5, [lr, #-1]
 80060a6:	4631      	mov	r1, r6
 80060a8:	dcf1      	bgt.n	800608e <__exponent+0x22>
 80060aa:	3130      	adds	r1, #48	; 0x30
 80060ac:	f1ae 0502 	sub.w	r5, lr, #2
 80060b0:	f804 1c01 	strb.w	r1, [r4, #-1]
 80060b4:	1c44      	adds	r4, r0, #1
 80060b6:	4629      	mov	r1, r5
 80060b8:	4561      	cmp	r1, ip
 80060ba:	d30a      	bcc.n	80060d2 <__exponent+0x66>
 80060bc:	f10d 0209 	add.w	r2, sp, #9
 80060c0:	eba2 020e 	sub.w	r2, r2, lr
 80060c4:	4565      	cmp	r5, ip
 80060c6:	bf88      	it	hi
 80060c8:	2200      	movhi	r2, #0
 80060ca:	4413      	add	r3, r2
 80060cc:	1a18      	subs	r0, r3, r0
 80060ce:	b003      	add	sp, #12
 80060d0:	bdf0      	pop	{r4, r5, r6, r7, pc}
 80060d2:	f811 2b01 	ldrb.w	r2, [r1], #1
 80060d6:	f804 2f01 	strb.w	r2, [r4, #1]!
 80060da:	e7ed      	b.n	80060b8 <__exponent+0x4c>
 80060dc:	2330      	movs	r3, #48	; 0x30
 80060de:	3130      	adds	r1, #48	; 0x30
 80060e0:	7083      	strb	r3, [r0, #2]
 80060e2:	70c1      	strb	r1, [r0, #3]
 80060e4:	1d03      	adds	r3, r0, #4
 80060e6:	e7f1      	b.n	80060cc <__exponent+0x60>

080060e8 <_printf_float>:
 80060e8:	e92d 4ff0 	stmdb	sp!, {r4, r5, r6, r7, r8, r9, sl, fp, lr}
 80060ec:	ed2d 8b02 	vpush	{d8}
 80060f0:	b08d      	sub	sp, #52	; 0x34
 80060f2:	460c      	mov	r4, r1
 80060f4:	f8dd 8060 	ldr.w	r8, [sp, #96]	; 0x60
 80060f8:	4616      	mov	r6, r2
 80060fa:	461f      	mov	r7, r3
 80060fc:	4605      	mov	r5, r0
 80060fe:	f001 fa57 	bl	80075b0 <_localeconv_r>
 8006102:	f8d0 a000 	ldr.w	sl, [r0]
 8006106:	4650      	mov	r0, sl
 8006108:	f7fa f882 	bl	8000210 <strlen>
 800610c:	2300      	movs	r3, #0
 800610e:	930a      	str	r3, [sp, #40]	; 0x28
 8006110:	6823      	ldr	r3, [r4, #0]
 8006112:	9305      	str	r3, [sp, #20]
 8006114:	f8d8 3000 	ldr.w	r3, [r8]
 8006118:	f894 b018 	ldrb.w	fp, [r4, #24]
 800611c:	3307      	adds	r3, #7
 800611e:	f023 0307 	bic.w	r3, r3, #7
 8006122:	f103 0208 	add.w	r2, r3, #8
 8006126:	f8c8 2000 	str.w	r2, [r8]
 800612a:	e9d3 2300 	ldrd	r2, r3, [r3]
 800612e:	e9c4 2312 	strd	r2, r3, [r4, #72]	; 0x48
 8006132:	e9d4 8912 	ldrd	r8, r9, [r4, #72]	; 0x48
 8006136:	f029 4300 	bic.w	r3, r9, #2147483648	; 0x80000000
 800613a:	9307      	str	r3, [sp, #28]
 800613c:	f8cd 8018 	str.w	r8, [sp, #24]
 8006140:	ee08 0a10 	vmov	s16, r0
 8006144:	4b9f      	ldr	r3, [pc, #636]	; (80063c4 <_printf_float+0x2dc>)
 8006146:	e9dd 0106 	ldrd	r0, r1, [sp, #24]
 800614a:	f04f 32ff 	mov.w	r2, #4294967295	; 0xffffffff
 800614e:	f7fa fd0d 	bl	8000b6c <__aeabi_dcmpun>
 8006152:	bb88      	cbnz	r0, 80061b8 <_printf_float+0xd0>
 8006154:	e9dd 0106 	ldrd	r0, r1, [sp, #24]
 8006158:	4b9a      	ldr	r3, [pc, #616]	; (80063c4 <_printf_float+0x2dc>)
 800615a:	f04f 32ff 	mov.w	r2, #4294967295	; 0xffffffff
 800615e:	f7fa fce7 	bl	8000b30 <__aeabi_dcmple>
 8006162:	bb48      	cbnz	r0, 80061b8 <_printf_float+0xd0>
 8006164:	2200      	movs	r2, #0
 8006166:	2300      	movs	r3, #0
 8006168:	4640      	mov	r0, r8
 800616a:	4649      	mov	r1, r9
 800616c:	f7fa fcd6 	bl	8000b1c <__aeabi_dcmplt>
 8006170:	b110      	cbz	r0, 8006178 <_printf_float+0x90>
 8006172:	232d      	movs	r3, #45	; 0x2d
 8006174:	f884 3043 	strb.w	r3, [r4, #67]	; 0x43
 8006178:	4b93      	ldr	r3, [pc, #588]	; (80063c8 <_printf_float+0x2e0>)
 800617a:	4894      	ldr	r0, [pc, #592]	; (80063cc <_printf_float+0x2e4>)
 800617c:	f1bb 0f47 	cmp.w	fp, #71	; 0x47
 8006180:	bf94      	ite	ls
 8006182:	4698      	movls	r8, r3
 8006184:	4680      	movhi	r8, r0
 8006186:	2303      	movs	r3, #3
 8006188:	6123      	str	r3, [r4, #16]
 800618a:	9b05      	ldr	r3, [sp, #20]
 800618c:	f023 0204 	bic.w	r2, r3, #4
 8006190:	6022      	str	r2, [r4, #0]
 8006192:	f04f 0900 	mov.w	r9, #0
 8006196:	9700      	str	r7, [sp, #0]
 8006198:	4633      	mov	r3, r6
 800619a:	aa0b      	add	r2, sp, #44	; 0x2c
 800619c:	4621      	mov	r1, r4
 800619e:	4628      	mov	r0, r5
 80061a0:	f000 f9d8 	bl	8006554 <_printf_common>
 80061a4:	3001      	adds	r0, #1
 80061a6:	f040 8090 	bne.w	80062ca <_printf_float+0x1e2>
 80061aa:	f04f 30ff 	mov.w	r0, #4294967295	; 0xffffffff
 80061ae:	b00d      	add	sp, #52	; 0x34
 80061b0:	ecbd 8b02 	vpop	{d8}
 80061b4:	e8bd 8ff0 	ldmia.w	sp!, {r4, r5, r6, r7, r8, r9, sl, fp, pc}
 80061b8:	4642      	mov	r2, r8
 80061ba:	464b      	mov	r3, r9
 80061bc:	4640      	mov	r0, r8
 80061be:	4649      	mov	r1, r9
 80061c0:	f7fa fcd4 	bl	8000b6c <__aeabi_dcmpun>
 80061c4:	b140      	cbz	r0, 80061d8 <_printf_float+0xf0>
 80061c6:	464b      	mov	r3, r9
 80061c8:	2b00      	cmp	r3, #0
 80061ca:	bfbc      	itt	lt
 80061cc:	232d      	movlt	r3, #45	; 0x2d
 80061ce:	f884 3043 	strblt.w	r3, [r4, #67]	; 0x43
 80061d2:	487f      	ldr	r0, [pc, #508]	; (80063d0 <_printf_float+0x2e8>)
 80061d4:	4b7f      	ldr	r3, [pc, #508]	; (80063d4 <_printf_float+0x2ec>)
 80061d6:	e7d1      	b.n	800617c <_printf_float+0x94>
 80061d8:	6863      	ldr	r3, [r4, #4]
 80061da:	f00b 02df 	and.w	r2, fp, #223	; 0xdf
 80061de:	9206      	str	r2, [sp, #24]
 80061e0:	1c5a      	adds	r2, r3, #1
 80061e2:	d13f      	bne.n	8006264 <_printf_float+0x17c>
 80061e4:	2306      	movs	r3, #6
 80061e6:	6063      	str	r3, [r4, #4]
 80061e8:	9b05      	ldr	r3, [sp, #20]
 80061ea:	6861      	ldr	r1, [r4, #4]
 80061ec:	f443 6280 	orr.w	r2, r3, #1024	; 0x400
 80061f0:	2300      	movs	r3, #0
 80061f2:	9303      	str	r3, [sp, #12]
 80061f4:	ab0a      	add	r3, sp, #40	; 0x28
 80061f6:	e9cd b301 	strd	fp, r3, [sp, #4]
 80061fa:	ab09      	add	r3, sp, #36	; 0x24
 80061fc:	ec49 8b10 	vmov	d0, r8, r9
 8006200:	9300      	str	r3, [sp, #0]
 8006202:	6022      	str	r2, [r4, #0]
 8006204:	f10d 0323 	add.w	r3, sp, #35	; 0x23
 8006208:	4628      	mov	r0, r5
 800620a:	f7ff fecd 	bl	8005fa8 <__cvt>
 800620e:	9b06      	ldr	r3, [sp, #24]
 8006210:	9909      	ldr	r1, [sp, #36]	; 0x24
 8006212:	2b47      	cmp	r3, #71	; 0x47
 8006214:	4680      	mov	r8, r0
 8006216:	d108      	bne.n	800622a <_printf_float+0x142>
 8006218:	1cc8      	adds	r0, r1, #3
 800621a:	db02      	blt.n	8006222 <_printf_float+0x13a>
 800621c:	6863      	ldr	r3, [r4, #4]
 800621e:	4299      	cmp	r1, r3
 8006220:	dd41      	ble.n	80062a6 <_printf_float+0x1be>
 8006222:	f1ab 0b02 	sub.w	fp, fp, #2
 8006226:	fa5f fb8b 	uxtb.w	fp, fp
 800622a:	f1bb 0f65 	cmp.w	fp, #101	; 0x65
 800622e:	d820      	bhi.n	8006272 <_printf_float+0x18a>
 8006230:	3901      	subs	r1, #1
 8006232:	465a      	mov	r2, fp
 8006234:	f104 0050 	add.w	r0, r4, #80	; 0x50
 8006238:	9109      	str	r1, [sp, #36]	; 0x24
 800623a:	f7ff ff17 	bl	800606c <__exponent>
 800623e:	9a0a      	ldr	r2, [sp, #40]	; 0x28
 8006240:	1813      	adds	r3, r2, r0
 8006242:	2a01      	cmp	r2, #1
 8006244:	4681      	mov	r9, r0
 8006246:	6123      	str	r3, [r4, #16]
 8006248:	dc02      	bgt.n	8006250 <_printf_float+0x168>
 800624a:	6822      	ldr	r2, [r4, #0]
 800624c:	07d2      	lsls	r2, r2, #31
 800624e:	d501      	bpl.n	8006254 <_printf_float+0x16c>
 8006250:	3301      	adds	r3, #1
 8006252:	6123      	str	r3, [r4, #16]
 8006254:	f89d 3023 	ldrb.w	r3, [sp, #35]	; 0x23
 8006258:	2b00      	cmp	r3, #0
 800625a:	d09c      	beq.n	8006196 <_printf_float+0xae>
 800625c:	232d      	movs	r3, #45	; 0x2d
 800625e:	f884 3043 	strb.w	r3, [r4, #67]	; 0x43
 8006262:	e798      	b.n	8006196 <_printf_float+0xae>
 8006264:	9a06      	ldr	r2, [sp, #24]
 8006266:	2a47      	cmp	r2, #71	; 0x47
 8006268:	d1be      	bne.n	80061e8 <_printf_float+0x100>
 800626a:	2b00      	cmp	r3, #0
 800626c:	d1bc      	bne.n	80061e8 <_printf_float+0x100>
 800626e:	2301      	movs	r3, #1
 8006270:	e7b9      	b.n	80061e6 <_printf_float+0xfe>
 8006272:	f1bb 0f66 	cmp.w	fp, #102	; 0x66
 8006276:	d118      	bne.n	80062aa <_printf_float+0x1c2>
 8006278:	2900      	cmp	r1, #0
 800627a:	6863      	ldr	r3, [r4, #4]
 800627c:	dd0b      	ble.n	8006296 <_printf_float+0x1ae>
 800627e:	6121      	str	r1, [r4, #16]
 8006280:	b913      	cbnz	r3, 8006288 <_printf_float+0x1a0>
 8006282:	6822      	ldr	r2, [r4, #0]
 8006284:	07d0      	lsls	r0, r2, #31
 8006286:	d502      	bpl.n	800628e <_printf_float+0x1a6>
 8006288:	3301      	adds	r3, #1
 800628a:	440b      	add	r3, r1
 800628c:	6123      	str	r3, [r4, #16]
 800628e:	65a1      	str	r1, [r4, #88]	; 0x58
 8006290:	f04f 0900 	mov.w	r9, #0
 8006294:	e7de      	b.n	8006254 <_printf_float+0x16c>
 8006296:	b913      	cbnz	r3, 800629e <_printf_float+0x1b6>
 8006298:	6822      	ldr	r2, [r4, #0]
 800629a:	07d2      	lsls	r2, r2, #31
 800629c:	d501      	bpl.n	80062a2 <_printf_float+0x1ba>
 800629e:	3302      	adds	r3, #2
 80062a0:	e7f4      	b.n	800628c <_printf_float+0x1a4>
 80062a2:	2301      	movs	r3, #1
 80062a4:	e7f2      	b.n	800628c <_printf_float+0x1a4>
 80062a6:	f04f 0b67 	mov.w	fp, #103	; 0x67
 80062aa:	9b0a      	ldr	r3, [sp, #40]	; 0x28
 80062ac:	4299      	cmp	r1, r3
 80062ae:	db05      	blt.n	80062bc <_printf_float+0x1d4>
 80062b0:	6823      	ldr	r3, [r4, #0]
 80062b2:	6121      	str	r1, [r4, #16]
 80062b4:	07d8      	lsls	r0, r3, #31
 80062b6:	d5ea      	bpl.n	800628e <_printf_float+0x1a6>
 80062b8:	1c4b      	adds	r3, r1, #1
 80062ba:	e7e7      	b.n	800628c <_printf_float+0x1a4>
 80062bc:	2900      	cmp	r1, #0
 80062be:	bfd4      	ite	le
 80062c0:	f1c1 0202 	rsble	r2, r1, #2
 80062c4:	2201      	movgt	r2, #1
 80062c6:	4413      	add	r3, r2
 80062c8:	e7e0      	b.n	800628c <_printf_float+0x1a4>
 80062ca:	6823      	ldr	r3, [r4, #0]
 80062cc:	055a      	lsls	r2, r3, #21
 80062ce:	d407      	bmi.n	80062e0 <_printf_float+0x1f8>
 80062d0:	6923      	ldr	r3, [r4, #16]
 80062d2:	4642      	mov	r2, r8
 80062d4:	4631      	mov	r1, r6
 80062d6:	4628      	mov	r0, r5
 80062d8:	47b8      	blx	r7
 80062da:	3001      	adds	r0, #1
 80062dc:	d12c      	bne.n	8006338 <_printf_float+0x250>
 80062de:	e764      	b.n	80061aa <_printf_float+0xc2>
 80062e0:	f1bb 0f65 	cmp.w	fp, #101	; 0x65
 80062e4:	f240 80e0 	bls.w	80064a8 <_printf_float+0x3c0>
 80062e8:	e9d4 0112 	ldrd	r0, r1, [r4, #72]	; 0x48
 80062ec:	2200      	movs	r2, #0
 80062ee:	2300      	movs	r3, #0
 80062f0:	f7fa fc0a 	bl	8000b08 <__aeabi_dcmpeq>
 80062f4:	2800      	cmp	r0, #0
 80062f6:	d034      	beq.n	8006362 <_printf_float+0x27a>
 80062f8:	4a37      	ldr	r2, [pc, #220]	; (80063d8 <_printf_float+0x2f0>)
 80062fa:	2301      	movs	r3, #1
 80062fc:	4631      	mov	r1, r6
 80062fe:	4628      	mov	r0, r5
 8006300:	47b8      	blx	r7
 8006302:	3001      	adds	r0, #1
 8006304:	f43f af51 	beq.w	80061aa <_printf_float+0xc2>
 8006308:	e9dd 2309 	ldrd	r2, r3, [sp, #36]	; 0x24
 800630c:	429a      	cmp	r2, r3
 800630e:	db02      	blt.n	8006316 <_printf_float+0x22e>
 8006310:	6823      	ldr	r3, [r4, #0]
 8006312:	07d8      	lsls	r0, r3, #31
 8006314:	d510      	bpl.n	8006338 <_printf_float+0x250>
 8006316:	ee18 3a10 	vmov	r3, s16
 800631a:	4652      	mov	r2, sl
 800631c:	4631      	mov	r1, r6
 800631e:	4628      	mov	r0, r5
 8006320:	47b8      	blx	r7
 8006322:	3001      	adds	r0, #1
 8006324:	f43f af41 	beq.w	80061aa <_printf_float+0xc2>
 8006328:	f04f 0800 	mov.w	r8, #0
 800632c:	f104 091a 	add.w	r9, r4, #26
 8006330:	9b0a      	ldr	r3, [sp, #40]	; 0x28
 8006332:	3b01      	subs	r3, #1
 8006334:	4543      	cmp	r3, r8
 8006336:	dc09      	bgt.n	800634c <_printf_float+0x264>
 8006338:	6823      	ldr	r3, [r4, #0]
 800633a:	079b      	lsls	r3, r3, #30
 800633c:	f100 8105 	bmi.w	800654a <_printf_float+0x462>
 8006340:	68e0      	ldr	r0, [r4, #12]
 8006342:	9b0b      	ldr	r3, [sp, #44]	; 0x2c
 8006344:	4298      	cmp	r0, r3
 8006346:	bfb8      	it	lt
 8006348:	4618      	movlt	r0, r3
 800634a:	e730      	b.n	80061ae <_printf_float+0xc6>
 800634c:	2301      	movs	r3, #1
 800634e:	464a      	mov	r2, r9
 8006350:	4631      	mov	r1, r6
 8006352:	4628      	mov	r0, r5
 8006354:	47b8      	blx	r7
 8006356:	3001      	adds	r0, #1
 8006358:	f43f af27 	beq.w	80061aa <_printf_float+0xc2>
 800635c:	f108 0801 	add.w	r8, r8, #1
 8006360:	e7e6      	b.n	8006330 <_printf_float+0x248>
 8006362:	9b09      	ldr	r3, [sp, #36]	; 0x24
 8006364:	2b00      	cmp	r3, #0
 8006366:	dc39      	bgt.n	80063dc <_printf_float+0x2f4>
 8006368:	4a1b      	ldr	r2, [pc, #108]	; (80063d8 <_printf_float+0x2f0>)
 800636a:	2301      	movs	r3, #1
 800636c:	4631      	mov	r1, r6
 800636e:	4628      	mov	r0, r5
 8006370:	47b8      	blx	r7
 8006372:	3001      	adds	r0, #1
 8006374:	f43f af19 	beq.w	80061aa <_printf_float+0xc2>
 8006378:	e9dd 2309 	ldrd	r2, r3, [sp, #36]	; 0x24
 800637c:	4313      	orrs	r3, r2
 800637e:	d102      	bne.n	8006386 <_printf_float+0x29e>
 8006380:	6823      	ldr	r3, [r4, #0]
 8006382:	07d9      	lsls	r1, r3, #31
 8006384:	d5d8      	bpl.n	8006338 <_printf_float+0x250>
 8006386:	ee18 3a10 	vmov	r3, s16
 800638a:	4652      	mov	r2, sl
 800638c:	4631      	mov	r1, r6
 800638e:	4628      	mov	r0, r5
 8006390:	47b8      	blx	r7
 8006392:	3001      	adds	r0, #1
 8006394:	f43f af09 	beq.w	80061aa <_printf_float+0xc2>
 8006398:	f04f 0900 	mov.w	r9, #0
 800639c:	f104 0a1a 	add.w	sl, r4, #26
 80063a0:	9b09      	ldr	r3, [sp, #36]	; 0x24
 80063a2:	425b      	negs	r3, r3
 80063a4:	454b      	cmp	r3, r9
 80063a6:	dc01      	bgt.n	80063ac <_printf_float+0x2c4>
 80063a8:	9b0a      	ldr	r3, [sp, #40]	; 0x28
 80063aa:	e792      	b.n	80062d2 <_printf_float+0x1ea>
 80063ac:	2301      	movs	r3, #1
 80063ae:	4652      	mov	r2, sl
 80063b0:	4631      	mov	r1, r6
 80063b2:	4628      	mov	r0, r5
 80063b4:	47b8      	blx	r7
 80063b6:	3001      	adds	r0, #1
 80063b8:	f43f aef7 	beq.w	80061aa <_printf_float+0xc2>
 80063bc:	f109 0901 	add.w	r9, r9, #1
 80063c0:	e7ee      	b.n	80063a0 <_printf_float+0x2b8>
 80063c2:	bf00      	nop
 80063c4:	7fefffff 	.word	0x7fefffff
 80063c8:	08008d94 	.word	0x08008d94
 80063cc:	08008d98 	.word	0x08008d98
 80063d0:	08008da0 	.word	0x08008da0
 80063d4:	08008d9c 	.word	0x08008d9c
 80063d8:	08008da4 	.word	0x08008da4
 80063dc:	9a0a      	ldr	r2, [sp, #40]	; 0x28
 80063de:	6da3      	ldr	r3, [r4, #88]	; 0x58
 80063e0:	429a      	cmp	r2, r3
 80063e2:	bfa8      	it	ge
 80063e4:	461a      	movge	r2, r3
 80063e6:	2a00      	cmp	r2, #0
 80063e8:	4691      	mov	r9, r2
 80063ea:	dc37      	bgt.n	800645c <_printf_float+0x374>
 80063ec:	f04f 0b00 	mov.w	fp, #0
 80063f0:	ea29 79e9 	bic.w	r9, r9, r9, asr #31
 80063f4:	f104 021a 	add.w	r2, r4, #26
 80063f8:	6da3      	ldr	r3, [r4, #88]	; 0x58
 80063fa:	9305      	str	r3, [sp, #20]
 80063fc:	eba3 0309 	sub.w	r3, r3, r9
 8006400:	455b      	cmp	r3, fp
 8006402:	dc33      	bgt.n	800646c <_printf_float+0x384>
 8006404:	e9dd 2309 	ldrd	r2, r3, [sp, #36]	; 0x24
 8006408:	429a      	cmp	r2, r3
 800640a:	db3b      	blt.n	8006484 <_printf_float+0x39c>
 800640c:	6823      	ldr	r3, [r4, #0]
 800640e:	07da      	lsls	r2, r3, #31
 8006410:	d438      	bmi.n	8006484 <_printf_float+0x39c>
 8006412:	9a0a      	ldr	r2, [sp, #40]	; 0x28
 8006414:	9b05      	ldr	r3, [sp, #20]
 8006416:	9909      	ldr	r1, [sp, #36]	; 0x24
 8006418:	1ad3      	subs	r3, r2, r3
 800641a:	eba2 0901 	sub.w	r9, r2, r1
 800641e:	4599      	cmp	r9, r3
 8006420:	bfa8      	it	ge
 8006422:	4699      	movge	r9, r3
 8006424:	f1b9 0f00 	cmp.w	r9, #0
 8006428:	dc35      	bgt.n	8006496 <_printf_float+0x3ae>
 800642a:	f04f 0800 	mov.w	r8, #0
 800642e:	ea29 79e9 	bic.w	r9, r9, r9, asr #31
 8006432:	f104 0a1a 	add.w	sl, r4, #26
 8006436:	e9dd 2309 	ldrd	r2, r3, [sp, #36]	; 0x24
 800643a:	1a9b      	subs	r3, r3, r2
 800643c:	eba3 0309 	sub.w	r3, r3, r9
 8006440:	4543      	cmp	r3, r8
 8006442:	f77f af79 	ble.w	8006338 <_printf_float+0x250>
 8006446:	2301      	movs	r3, #1
 8006448:	4652      	mov	r2, sl
 800644a:	4631      	mov	r1, r6
 800644c:	4628      	mov	r0, r5
 800644e:	47b8      	blx	r7
 8006450:	3001      	adds	r0, #1
 8006452:	f43f aeaa 	beq.w	80061aa <_printf_float+0xc2>
 8006456:	f108 0801 	add.w	r8, r8, #1
 800645a:	e7ec      	b.n	8006436 <_printf_float+0x34e>
 800645c:	4613      	mov	r3, r2
 800645e:	4631      	mov	r1, r6
 8006460:	4642      	mov	r2, r8
 8006462:	4628      	mov	r0, r5
 8006464:	47b8      	blx	r7
 8006466:	3001      	adds	r0, #1
 8006468:	d1c0      	bne.n	80063ec <_printf_float+0x304>
 800646a:	e69e      	b.n	80061aa <_printf_float+0xc2>
 800646c:	2301      	movs	r3, #1
 800646e:	4631      	mov	r1, r6
 8006470:	4628      	mov	r0, r5
 8006472:	9205      	str	r2, [sp, #20]
 8006474:	47b8      	blx	r7
 8006476:	3001      	adds	r0, #1
 8006478:	f43f ae97 	beq.w	80061aa <_printf_float+0xc2>
 800647c:	9a05      	ldr	r2, [sp, #20]
 800647e:	f10b 0b01 	add.w	fp, fp, #1
 8006482:	e7b9      	b.n	80063f8 <_printf_float+0x310>
 8006484:	ee18 3a10 	vmov	r3, s16
 8006488:	4652      	mov	r2, sl
 800648a:	4631      	mov	r1, r6
 800648c:	4628      	mov	r0, r5
 800648e:	47b8      	blx	r7
 8006490:	3001      	adds	r0, #1
 8006492:	d1be      	bne.n	8006412 <_printf_float+0x32a>
 8006494:	e689      	b.n	80061aa <_printf_float+0xc2>
 8006496:	9a05      	ldr	r2, [sp, #20]
 8006498:	464b      	mov	r3, r9
 800649a:	4442      	add	r2, r8
 800649c:	4631      	mov	r1, r6
 800649e:	4628      	mov	r0, r5
 80064a0:	47b8      	blx	r7
 80064a2:	3001      	adds	r0, #1
 80064a4:	d1c1      	bne.n	800642a <_printf_float+0x342>
 80064a6:	e680      	b.n	80061aa <_printf_float+0xc2>
 80064a8:	9a0a      	ldr	r2, [sp, #40]	; 0x28
 80064aa:	2a01      	cmp	r2, #1
 80064ac:	dc01      	bgt.n	80064b2 <_printf_float+0x3ca>
 80064ae:	07db      	lsls	r3, r3, #31
 80064b0:	d538      	bpl.n	8006524 <_printf_float+0x43c>
 80064b2:	2301      	movs	r3, #1
 80064b4:	4642      	mov	r2, r8
 80064b6:	4631      	mov	r1, r6
 80064b8:	4628      	mov	r0, r5
 80064ba:	47b8      	blx	r7
 80064bc:	3001      	adds	r0, #1
 80064be:	f43f ae74 	beq.w	80061aa <_printf_float+0xc2>
 80064c2:	ee18 3a10 	vmov	r3, s16
 80064c6:	4652      	mov	r2, sl
 80064c8:	4631      	mov	r1, r6
 80064ca:	4628      	mov	r0, r5
 80064cc:	47b8      	blx	r7
 80064ce:	3001      	adds	r0, #1
 80064d0:	f43f ae6b 	beq.w	80061aa <_printf_float+0xc2>
 80064d4:	e9d4 0112 	ldrd	r0, r1, [r4, #72]	; 0x48
 80064d8:	2200      	movs	r2, #0
 80064da:	2300      	movs	r3, #0
 80064dc:	f7fa fb14 	bl	8000b08 <__aeabi_dcmpeq>
 80064e0:	b9d8      	cbnz	r0, 800651a <_printf_float+0x432>
 80064e2:	9b0a      	ldr	r3, [sp, #40]	; 0x28
 80064e4:	f108 0201 	add.w	r2, r8, #1
 80064e8:	3b01      	subs	r3, #1
 80064ea:	4631      	mov	r1, r6
 80064ec:	4628      	mov	r0, r5
 80064ee:	47b8      	blx	r7
 80064f0:	3001      	adds	r0, #1
 80064f2:	d10e      	bne.n	8006512 <_printf_float+0x42a>
 80064f4:	e659      	b.n	80061aa <_printf_float+0xc2>
 80064f6:	2301      	movs	r3, #1
 80064f8:	4652      	mov	r2, sl
 80064fa:	4631      	mov	r1, r6
 80064fc:	4628      	mov	r0, r5
 80064fe:	47b8      	blx	r7
 8006500:	3001      	adds	r0, #1
 8006502:	f43f ae52 	beq.w	80061aa <_printf_float+0xc2>
 8006506:	f108 0801 	add.w	r8, r8, #1
 800650a:	9b0a      	ldr	r3, [sp, #40]	; 0x28
 800650c:	3b01      	subs	r3, #1
 800650e:	4543      	cmp	r3, r8
 8006510:	dcf1      	bgt.n	80064f6 <_printf_float+0x40e>
 8006512:	464b      	mov	r3, r9
 8006514:	f104 0250 	add.w	r2, r4, #80	; 0x50
 8006518:	e6dc      	b.n	80062d4 <_printf_float+0x1ec>
 800651a:	f04f 0800 	mov.w	r8, #0
 800651e:	f104 0a1a 	add.w	sl, r4, #26
 8006522:	e7f2      	b.n	800650a <_printf_float+0x422>
 8006524:	2301      	movs	r3, #1
 8006526:	4642      	mov	r2, r8
 8006528:	e7df      	b.n	80064ea <_printf_float+0x402>
 800652a:	2301      	movs	r3, #1
 800652c:	464a      	mov	r2, r9
 800652e:	4631      	mov	r1, r6
 8006530:	4628      	mov	r0, r5
 8006532:	47b8      	blx	r7
 8006534:	3001      	adds	r0, #1
 8006536:	f43f ae38 	beq.w	80061aa <_printf_float+0xc2>
 800653a:	f108 0801 	add.w	r8, r8, #1
 800653e:	68e3      	ldr	r3, [r4, #12]
 8006540:	990b      	ldr	r1, [sp, #44]	; 0x2c
 8006542:	1a5b      	subs	r3, r3, r1
 8006544:	4543      	cmp	r3, r8
 8006546:	dcf0      	bgt.n	800652a <_printf_float+0x442>
 8006548:	e6fa      	b.n	8006340 <_printf_float+0x258>
 800654a:	f04f 0800 	mov.w	r8, #0
 800654e:	f104 0919 	add.w	r9, r4, #25
 8006552:	e7f4      	b.n	800653e <_printf_float+0x456>

08006554 <_printf_common>:
 8006554:	e92d 47f0 	stmdb	sp!, {r4, r5, r6, r7, r8, r9, sl, lr}
 8006558:	4616      	mov	r6, r2
 800655a:	4699      	mov	r9, r3
 800655c:	688a      	ldr	r2, [r1, #8]
 800655e:	690b      	ldr	r3, [r1, #16]
 8006560:	f8dd 8020 	ldr.w	r8, [sp, #32]
 8006564:	4293      	cmp	r3, r2
 8006566:	bfb8      	it	lt
 8006568:	4613      	movlt	r3, r2
 800656a:	6033      	str	r3, [r6, #0]
 800656c:	f891 2043 	ldrb.w	r2, [r1, #67]	; 0x43
 8006570:	4607      	mov	r7, r0
 8006572:	460c      	mov	r4, r1
 8006574:	b10a      	cbz	r2, 800657a <_printf_common+0x26>
 8006576:	3301      	adds	r3, #1
 8006578:	6033      	str	r3, [r6, #0]
 800657a:	6823      	ldr	r3, [r4, #0]
 800657c:	0699      	lsls	r1, r3, #26
 800657e:	bf42      	ittt	mi
 8006580:	6833      	ldrmi	r3, [r6, #0]
 8006582:	3302      	addmi	r3, #2
 8006584:	6033      	strmi	r3, [r6, #0]
 8006586:	6825      	ldr	r5, [r4, #0]
 8006588:	f015 0506 	ands.w	r5, r5, #6
 800658c:	d106      	bne.n	800659c <_printf_common+0x48>
 800658e:	f104 0a19 	add.w	sl, r4, #25
 8006592:	68e3      	ldr	r3, [r4, #12]
 8006594:	6832      	ldr	r2, [r6, #0]
 8006596:	1a9b      	subs	r3, r3, r2
 8006598:	42ab      	cmp	r3, r5
 800659a:	dc26      	bgt.n	80065ea <_printf_common+0x96>
 800659c:	f894 2043 	ldrb.w	r2, [r4, #67]	; 0x43
 80065a0:	1e13      	subs	r3, r2, #0
 80065a2:	6822      	ldr	r2, [r4, #0]
 80065a4:	bf18      	it	ne
 80065a6:	2301      	movne	r3, #1
 80065a8:	0692      	lsls	r2, r2, #26
 80065aa:	d42b      	bmi.n	8006604 <_printf_common+0xb0>
 80065ac:	f104 0243 	add.w	r2, r4, #67	; 0x43
 80065b0:	4649      	mov	r1, r9
 80065b2:	4638      	mov	r0, r7
 80065b4:	47c0      	blx	r8
 80065b6:	3001      	adds	r0, #1
 80065b8:	d01e      	beq.n	80065f8 <_printf_common+0xa4>
 80065ba:	6823      	ldr	r3, [r4, #0]
 80065bc:	68e5      	ldr	r5, [r4, #12]
 80065be:	6832      	ldr	r2, [r6, #0]
 80065c0:	f003 0306 	and.w	r3, r3, #6
 80065c4:	2b04      	cmp	r3, #4
 80065c6:	bf08      	it	eq
 80065c8:	1aad      	subeq	r5, r5, r2
 80065ca:	68a3      	ldr	r3, [r4, #8]
 80065cc:	6922      	ldr	r2, [r4, #16]
 80065ce:	bf0c      	ite	eq
 80065d0:	ea25 75e5 	biceq.w	r5, r5, r5, asr #31
 80065d4:	2500      	movne	r5, #0
 80065d6:	4293      	cmp	r3, r2
 80065d8:	bfc4      	itt	gt
 80065da:	1a9b      	subgt	r3, r3, r2
 80065dc:	18ed      	addgt	r5, r5, r3
 80065de:	2600      	movs	r6, #0
 80065e0:	341a      	adds	r4, #26
 80065e2:	42b5      	cmp	r5, r6
 80065e4:	d11a      	bne.n	800661c <_printf_common+0xc8>
 80065e6:	2000      	movs	r0, #0
 80065e8:	e008      	b.n	80065fc <_printf_common+0xa8>
 80065ea:	2301      	movs	r3, #1
 80065ec:	4652      	mov	r2, sl
 80065ee:	4649      	mov	r1, r9
 80065f0:	4638      	mov	r0, r7
 80065f2:	47c0      	blx	r8
 80065f4:	3001      	adds	r0, #1
 80065f6:	d103      	bne.n	8006600 <_printf_common+0xac>
 80065f8:	f04f 30ff 	mov.w	r0, #4294967295	; 0xffffffff
 80065fc:	e8bd 87f0 	ldmia.w	sp!, {r4, r5, r6, r7, r8, r9, sl, pc}
 8006600:	3501      	adds	r5, #1
 8006602:	e7c6      	b.n	8006592 <_printf_common+0x3e>
 8006604:	18e1      	adds	r1, r4, r3
 8006606:	1c5a      	adds	r2, r3, #1
 8006608:	2030      	movs	r0, #48	; 0x30
 800660a:	f881 0043 	strb.w	r0, [r1, #67]	; 0x43
 800660e:	4422      	add	r2, r4
 8006610:	f894 1045 	ldrb.w	r1, [r4, #69]	; 0x45
 8006614:	f882 1043 	strb.w	r1, [r2, #67]	; 0x43
 8006618:	3302      	adds	r3, #2
 800661a:	e7c7      	b.n	80065ac <_printf_common+0x58>
 800661c:	2301      	movs	r3, #1
 800661e:	4622      	mov	r2, r4
 8006620:	4649      	mov	r1, r9
 8006622:	4638      	mov	r0, r7
 8006624:	47c0      	blx	r8
 8006626:	3001      	adds	r0, #1
 8006628:	d0e6      	beq.n	80065f8 <_printf_common+0xa4>
 800662a:	3601      	adds	r6, #1
 800662c:	e7d9      	b.n	80065e2 <_printf_common+0x8e>
	...

08006630 <_printf_i>:
 8006630:	e92d 47ff 	stmdb	sp!, {r0, r1, r2, r3, r4, r5, r6, r7, r8, r9, sl, lr}
 8006634:	460c      	mov	r4, r1
 8006636:	4691      	mov	r9, r2
 8006638:	7e27      	ldrb	r7, [r4, #24]
 800663a:	990c      	ldr	r1, [sp, #48]	; 0x30
 800663c:	2f78      	cmp	r7, #120	; 0x78
 800663e:	4680      	mov	r8, r0
 8006640:	469a      	mov	sl, r3
 8006642:	f104 0243 	add.w	r2, r4, #67	; 0x43
 8006646:	d807      	bhi.n	8006658 <_printf_i+0x28>
 8006648:	2f62      	cmp	r7, #98	; 0x62
 800664a:	d80a      	bhi.n	8006662 <_printf_i+0x32>
 800664c:	2f00      	cmp	r7, #0
 800664e:	f000 80d8 	beq.w	8006802 <_printf_i+0x1d2>
 8006652:	2f58      	cmp	r7, #88	; 0x58
 8006654:	f000 80a3 	beq.w	800679e <_printf_i+0x16e>
 8006658:	f104 0642 	add.w	r6, r4, #66	; 0x42
 800665c:	f884 7042 	strb.w	r7, [r4, #66]	; 0x42
 8006660:	e03a      	b.n	80066d8 <_printf_i+0xa8>
 8006662:	f1a7 0363 	sub.w	r3, r7, #99	; 0x63
 8006666:	2b15      	cmp	r3, #21
 8006668:	d8f6      	bhi.n	8006658 <_printf_i+0x28>
 800666a:	a001      	add	r0, pc, #4	; (adr r0, 8006670 <_printf_i+0x40>)
 800666c:	f850 f023 	ldr.w	pc, [r0, r3, lsl #2]
 8006670:	080066c9 	.word	0x080066c9
 8006674:	080066dd 	.word	0x080066dd
 8006678:	08006659 	.word	0x08006659
 800667c:	08006659 	.word	0x08006659
 8006680:	08006659 	.word	0x08006659
 8006684:	08006659 	.word	0x08006659
 8006688:	080066dd 	.word	0x080066dd
 800668c:	08006659 	.word	0x08006659
 8006690:	08006659 	.word	0x08006659
 8006694:	08006659 	.word	0x08006659
 8006698:	08006659 	.word	0x08006659
 800669c:	080067e9 	.word	0x080067e9
 80066a0:	0800670d 	.word	0x0800670d
 80066a4:	080067cb 	.word	0x080067cb
 80066a8:	08006659 	.word	0x08006659
 80066ac:	08006659 	.word	0x08006659
 80066b0:	0800680b 	.word	0x0800680b
 80066b4:	08006659 	.word	0x08006659
 80066b8:	0800670d 	.word	0x0800670d
 80066bc:	08006659 	.word	0x08006659
 80066c0:	08006659 	.word	0x08006659
 80066c4:	080067d3 	.word	0x080067d3
 80066c8:	680b      	ldr	r3, [r1, #0]
 80066ca:	1d1a      	adds	r2, r3, #4
 80066cc:	681b      	ldr	r3, [r3, #0]
 80066ce:	600a      	str	r2, [r1, #0]
 80066d0:	f104 0642 	add.w	r6, r4, #66	; 0x42
 80066d4:	f884 3042 	strb.w	r3, [r4, #66]	; 0x42
 80066d8:	2301      	movs	r3, #1
 80066da:	e0a3      	b.n	8006824 <_printf_i+0x1f4>
 80066dc:	6825      	ldr	r5, [r4, #0]
 80066de:	6808      	ldr	r0, [r1, #0]
 80066e0:	062e      	lsls	r6, r5, #24
 80066e2:	f100 0304 	add.w	r3, r0, #4
 80066e6:	d50a      	bpl.n	80066fe <_printf_i+0xce>
 80066e8:	6805      	ldr	r5, [r0, #0]
 80066ea:	600b      	str	r3, [r1, #0]
 80066ec:	2d00      	cmp	r5, #0
 80066ee:	da03      	bge.n	80066f8 <_printf_i+0xc8>
 80066f0:	232d      	movs	r3, #45	; 0x2d
 80066f2:	426d      	negs	r5, r5
 80066f4:	f884 3043 	strb.w	r3, [r4, #67]	; 0x43
 80066f8:	485e      	ldr	r0, [pc, #376]	; (8006874 <_printf_i+0x244>)
 80066fa:	230a      	movs	r3, #10
 80066fc:	e019      	b.n	8006732 <_printf_i+0x102>
 80066fe:	f015 0f40 	tst.w	r5, #64	; 0x40
 8006702:	6805      	ldr	r5, [r0, #0]
 8006704:	600b      	str	r3, [r1, #0]
 8006706:	bf18      	it	ne
 8006708:	b22d      	sxthne	r5, r5
 800670a:	e7ef      	b.n	80066ec <_printf_i+0xbc>
 800670c:	680b      	ldr	r3, [r1, #0]
 800670e:	6825      	ldr	r5, [r4, #0]
 8006710:	1d18      	adds	r0, r3, #4
 8006712:	6008      	str	r0, [r1, #0]
 8006714:	0628      	lsls	r0, r5, #24
 8006716:	d501      	bpl.n	800671c <_printf_i+0xec>
 8006718:	681d      	ldr	r5, [r3, #0]
 800671a:	e002      	b.n	8006722 <_printf_i+0xf2>
 800671c:	0669      	lsls	r1, r5, #25
 800671e:	d5fb      	bpl.n	8006718 <_printf_i+0xe8>
 8006720:	881d      	ldrh	r5, [r3, #0]
 8006722:	4854      	ldr	r0, [pc, #336]	; (8006874 <_printf_i+0x244>)
 8006724:	2f6f      	cmp	r7, #111	; 0x6f
 8006726:	bf0c      	ite	eq
 8006728:	2308      	moveq	r3, #8
 800672a:	230a      	movne	r3, #10
 800672c:	2100      	movs	r1, #0
 800672e:	f884 1043 	strb.w	r1, [r4, #67]	; 0x43
 8006732:	6866      	ldr	r6, [r4, #4]
 8006734:	60a6      	str	r6, [r4, #8]
 8006736:	2e00      	cmp	r6, #0
 8006738:	bfa2      	ittt	ge
 800673a:	6821      	ldrge	r1, [r4, #0]
 800673c:	f021 0104 	bicge.w	r1, r1, #4
 8006740:	6021      	strge	r1, [r4, #0]
 8006742:	b90d      	cbnz	r5, 8006748 <_printf_i+0x118>
 8006744:	2e00      	cmp	r6, #0
 8006746:	d04d      	beq.n	80067e4 <_printf_i+0x1b4>
 8006748:	4616      	mov	r6, r2
 800674a:	fbb5 f1f3 	udiv	r1, r5, r3
 800674e:	fb03 5711 	mls	r7, r3, r1, r5
 8006752:	5dc7      	ldrb	r7, [r0, r7]
 8006754:	f806 7d01 	strb.w	r7, [r6, #-1]!
 8006758:	462f      	mov	r7, r5
 800675a:	42bb      	cmp	r3, r7
 800675c:	460d      	mov	r5, r1
 800675e:	d9f4      	bls.n	800674a <_printf_i+0x11a>
 8006760:	2b08      	cmp	r3, #8
 8006762:	d10b      	bne.n	800677c <_printf_i+0x14c>
 8006764:	6823      	ldr	r3, [r4, #0]
 8006766:	07df      	lsls	r7, r3, #31
 8006768:	d508      	bpl.n	800677c <_printf_i+0x14c>
 800676a:	6923      	ldr	r3, [r4, #16]
 800676c:	6861      	ldr	r1, [r4, #4]
 800676e:	4299      	cmp	r1, r3
 8006770:	bfde      	ittt	le
 8006772:	2330      	movle	r3, #48	; 0x30
 8006774:	f806 3c01 	strble.w	r3, [r6, #-1]
 8006778:	f106 36ff 	addle.w	r6, r6, #4294967295	; 0xffffffff
 800677c:	1b92      	subs	r2, r2, r6
 800677e:	6122      	str	r2, [r4, #16]
 8006780:	f8cd a000 	str.w	sl, [sp]
 8006784:	464b      	mov	r3, r9
 8006786:	aa03      	add	r2, sp, #12
 8006788:	4621      	mov	r1, r4
 800678a:	4640      	mov	r0, r8
 800678c:	f7ff fee2 	bl	8006554 <_printf_common>
 8006790:	3001      	adds	r0, #1
 8006792:	d14c      	bne.n	800682e <_printf_i+0x1fe>
 8006794:	f04f 30ff 	mov.w	r0, #4294967295	; 0xffffffff
 8006798:	b004      	add	sp, #16
 800679a:	e8bd 87f0 	ldmia.w	sp!, {r4, r5, r6, r7, r8, r9, sl, pc}
 800679e:	4835      	ldr	r0, [pc, #212]	; (8006874 <_printf_i+0x244>)
 80067a0:	f884 7045 	strb.w	r7, [r4, #69]	; 0x45
 80067a4:	6823      	ldr	r3, [r4, #0]
 80067a6:	680e      	ldr	r6, [r1, #0]
 80067a8:	061f      	lsls	r7, r3, #24
 80067aa:	f856 5b04 	ldr.w	r5, [r6], #4
 80067ae:	600e      	str	r6, [r1, #0]
 80067b0:	d514      	bpl.n	80067dc <_printf_i+0x1ac>
 80067b2:	07d9      	lsls	r1, r3, #31
 80067b4:	bf44      	itt	mi
 80067b6:	f043 0320 	orrmi.w	r3, r3, #32
 80067ba:	6023      	strmi	r3, [r4, #0]
 80067bc:	b91d      	cbnz	r5, 80067c6 <_printf_i+0x196>
 80067be:	6823      	ldr	r3, [r4, #0]
 80067c0:	f023 0320 	bic.w	r3, r3, #32
 80067c4:	6023      	str	r3, [r4, #0]
 80067c6:	2310      	movs	r3, #16
 80067c8:	e7b0      	b.n	800672c <_printf_i+0xfc>
 80067ca:	6823      	ldr	r3, [r4, #0]
 80067cc:	f043 0320 	orr.w	r3, r3, #32
 80067d0:	6023      	str	r3, [r4, #0]
 80067d2:	2378      	movs	r3, #120	; 0x78
 80067d4:	4828      	ldr	r0, [pc, #160]	; (8006878 <_printf_i+0x248>)
 80067d6:	f884 3045 	strb.w	r3, [r4, #69]	; 0x45
 80067da:	e7e3      	b.n	80067a4 <_printf_i+0x174>
 80067dc:	065e      	lsls	r6, r3, #25
 80067de:	bf48      	it	mi
 80067e0:	b2ad      	uxthmi	r5, r5
 80067e2:	e7e6      	b.n	80067b2 <_printf_i+0x182>
 80067e4:	4616      	mov	r6, r2
 80067e6:	e7bb      	b.n	8006760 <_printf_i+0x130>
 80067e8:	680b      	ldr	r3, [r1, #0]
 80067ea:	6826      	ldr	r6, [r4, #0]
 80067ec:	6960      	ldr	r0, [r4, #20]
 80067ee:	1d1d      	adds	r5, r3, #4
 80067f0:	600d      	str	r5, [r1, #0]
 80067f2:	0635      	lsls	r5, r6, #24
 80067f4:	681b      	ldr	r3, [r3, #0]
 80067f6:	d501      	bpl.n	80067fc <_printf_i+0x1cc>
 80067f8:	6018      	str	r0, [r3, #0]
 80067fa:	e002      	b.n	8006802 <_printf_i+0x1d2>
 80067fc:	0671      	lsls	r1, r6, #25
 80067fe:	d5fb      	bpl.n	80067f8 <_printf_i+0x1c8>
 8006800:	8018      	strh	r0, [r3, #0]
 8006802:	2300      	movs	r3, #0
 8006804:	6123      	str	r3, [r4, #16]
 8006806:	4616      	mov	r6, r2
 8006808:	e7ba      	b.n	8006780 <_printf_i+0x150>
 800680a:	680b      	ldr	r3, [r1, #0]
 800680c:	1d1a      	adds	r2, r3, #4
 800680e:	600a      	str	r2, [r1, #0]
 8006810:	681e      	ldr	r6, [r3, #0]
 8006812:	6862      	ldr	r2, [r4, #4]
 8006814:	2100      	movs	r1, #0
 8006816:	4630      	mov	r0, r6
 8006818:	f7f9 fd02 	bl	8000220 <memchr>
 800681c:	b108      	cbz	r0, 8006822 <_printf_i+0x1f2>
 800681e:	1b80      	subs	r0, r0, r6
 8006820:	6060      	str	r0, [r4, #4]
 8006822:	6863      	ldr	r3, [r4, #4]
 8006824:	6123      	str	r3, [r4, #16]
 8006826:	2300      	movs	r3, #0
 8006828:	f884 3043 	strb.w	r3, [r4, #67]	; 0x43
 800682c:	e7a8      	b.n	8006780 <_printf_i+0x150>
 800682e:	6923      	ldr	r3, [r4, #16]
 8006830:	4632      	mov	r2, r6
 8006832:	4649      	mov	r1, r9
 8006834:	4640      	mov	r0, r8
 8006836:	47d0      	blx	sl
 8006838:	3001      	adds	r0, #1
 800683a:	d0ab      	beq.n	8006794 <_printf_i+0x164>
 800683c:	6823      	ldr	r3, [r4, #0]
 800683e:	079b      	lsls	r3, r3, #30
 8006840:	d413      	bmi.n	800686a <_printf_i+0x23a>
 8006842:	68e0      	ldr	r0, [r4, #12]
 8006844:	9b03      	ldr	r3, [sp, #12]
 8006846:	4298      	cmp	r0, r3
 8006848:	bfb8      	it	lt
 800684a:	4618      	movlt	r0, r3
 800684c:	e7a4      	b.n	8006798 <_printf_i+0x168>
 800684e:	2301      	movs	r3, #1
 8006850:	4632      	mov	r2, r6
 8006852:	4649      	mov	r1, r9
 8006854:	4640      	mov	r0, r8
 8006856:	47d0      	blx	sl
 8006858:	3001      	adds	r0, #1
 800685a:	d09b      	beq.n	8006794 <_printf_i+0x164>
 800685c:	3501      	adds	r5, #1
 800685e:	68e3      	ldr	r3, [r4, #12]
 8006860:	9903      	ldr	r1, [sp, #12]
 8006862:	1a5b      	subs	r3, r3, r1
 8006864:	42ab      	cmp	r3, r5
 8006866:	dcf2      	bgt.n	800684e <_printf_i+0x21e>
 8006868:	e7eb      	b.n	8006842 <_printf_i+0x212>
 800686a:	2500      	movs	r5, #0
 800686c:	f104 0619 	add.w	r6, r4, #25
 8006870:	e7f5      	b.n	800685e <_printf_i+0x22e>
 8006872:	bf00      	nop
 8006874:	08008da6 	.word	0x08008da6
 8006878:	08008db7 	.word	0x08008db7

0800687c <siprintf>:
 800687c:	b40e      	push	{r1, r2, r3}
 800687e:	b500      	push	{lr}
 8006880:	b09c      	sub	sp, #112	; 0x70
 8006882:	ab1d      	add	r3, sp, #116	; 0x74
 8006884:	9002      	str	r0, [sp, #8]
 8006886:	9006      	str	r0, [sp, #24]
 8006888:	f06f 4100 	mvn.w	r1, #2147483648	; 0x80000000
 800688c:	4809      	ldr	r0, [pc, #36]	; (80068b4 <siprintf+0x38>)
 800688e:	9107      	str	r1, [sp, #28]
 8006890:	9104      	str	r1, [sp, #16]
 8006892:	4909      	ldr	r1, [pc, #36]	; (80068b8 <siprintf+0x3c>)
 8006894:	f853 2b04 	ldr.w	r2, [r3], #4
 8006898:	9105      	str	r1, [sp, #20]
 800689a:	6800      	ldr	r0, [r0, #0]
 800689c:	9301      	str	r3, [sp, #4]
 800689e:	a902      	add	r1, sp, #8
 80068a0:	f001 fb34 	bl	8007f0c <_svfiprintf_r>
 80068a4:	9b02      	ldr	r3, [sp, #8]
 80068a6:	2200      	movs	r2, #0
 80068a8:	701a      	strb	r2, [r3, #0]
 80068aa:	b01c      	add	sp, #112	; 0x70
 80068ac:	f85d eb04 	ldr.w	lr, [sp], #4
 80068b0:	b003      	add	sp, #12
 80068b2:	4770      	bx	lr
 80068b4:	20000028 	.word	0x20000028
 80068b8:	ffff0208 	.word	0xffff0208

080068bc <quorem>:
 80068bc:	e92d 4ff7 	stmdb	sp!, {r0, r1, r2, r4, r5, r6, r7, r8, r9, sl, fp, lr}
 80068c0:	6903      	ldr	r3, [r0, #16]
 80068c2:	690c      	ldr	r4, [r1, #16]
 80068c4:	42a3      	cmp	r3, r4
 80068c6:	4607      	mov	r7, r0
 80068c8:	f2c0 8081 	blt.w	80069ce <quorem+0x112>
 80068cc:	3c01      	subs	r4, #1
 80068ce:	f101 0814 	add.w	r8, r1, #20
 80068d2:	f100 0514 	add.w	r5, r0, #20
 80068d6:	eb05 0384 	add.w	r3, r5, r4, lsl #2
 80068da:	9301      	str	r3, [sp, #4]
 80068dc:	f858 3024 	ldr.w	r3, [r8, r4, lsl #2]
 80068e0:	f855 2024 	ldr.w	r2, [r5, r4, lsl #2]
 80068e4:	3301      	adds	r3, #1
 80068e6:	429a      	cmp	r2, r3
 80068e8:	ea4f 0b84 	mov.w	fp, r4, lsl #2
 80068ec:	eb08 0984 	add.w	r9, r8, r4, lsl #2
 80068f0:	fbb2 f6f3 	udiv	r6, r2, r3
 80068f4:	d331      	bcc.n	800695a <quorem+0x9e>
 80068f6:	f04f 0e00 	mov.w	lr, #0
 80068fa:	4640      	mov	r0, r8
 80068fc:	46ac      	mov	ip, r5
 80068fe:	46f2      	mov	sl, lr
 8006900:	f850 2b04 	ldr.w	r2, [r0], #4
 8006904:	b293      	uxth	r3, r2
 8006906:	fb06 e303 	mla	r3, r6, r3, lr
 800690a:	ea4f 4e13 	mov.w	lr, r3, lsr #16
 800690e:	b29b      	uxth	r3, r3
 8006910:	ebaa 0303 	sub.w	r3, sl, r3
 8006914:	0c12      	lsrs	r2, r2, #16
 8006916:	f8dc a000 	ldr.w	sl, [ip]
 800691a:	fb06 e202 	mla	r2, r6, r2, lr
 800691e:	fa13 f38a 	uxtah	r3, r3, sl
 8006922:	ea4f 4e12 	mov.w	lr, r2, lsr #16
 8006926:	fa1f fa82 	uxth.w	sl, r2
 800692a:	f8dc 2000 	ldr.w	r2, [ip]
 800692e:	ebca 4212 	rsb	r2, sl, r2, lsr #16
 8006932:	eb02 4223 	add.w	r2, r2, r3, asr #16
 8006936:	b29b      	uxth	r3, r3
 8006938:	ea43 4302 	orr.w	r3, r3, r2, lsl #16
 800693c:	4581      	cmp	r9, r0
 800693e:	f84c 3b04 	str.w	r3, [ip], #4
 8006942:	ea4f 4a22 	mov.w	sl, r2, asr #16
 8006946:	d2db      	bcs.n	8006900 <quorem+0x44>
 8006948:	f855 300b 	ldr.w	r3, [r5, fp]
 800694c:	b92b      	cbnz	r3, 800695a <quorem+0x9e>
 800694e:	9b01      	ldr	r3, [sp, #4]
 8006950:	3b04      	subs	r3, #4
 8006952:	429d      	cmp	r5, r3
 8006954:	461a      	mov	r2, r3
 8006956:	d32e      	bcc.n	80069b6 <quorem+0xfa>
 8006958:	613c      	str	r4, [r7, #16]
 800695a:	4638      	mov	r0, r7
 800695c:	f001 f8c0 	bl	8007ae0 <__mcmp>
 8006960:	2800      	cmp	r0, #0
 8006962:	db24      	blt.n	80069ae <quorem+0xf2>
 8006964:	3601      	adds	r6, #1
 8006966:	4628      	mov	r0, r5
 8006968:	f04f 0c00 	mov.w	ip, #0
 800696c:	f858 2b04 	ldr.w	r2, [r8], #4
 8006970:	f8d0 e000 	ldr.w	lr, [r0]
 8006974:	b293      	uxth	r3, r2
 8006976:	ebac 0303 	sub.w	r3, ip, r3
 800697a:	0c12      	lsrs	r2, r2, #16
 800697c:	fa13 f38e 	uxtah	r3, r3, lr
 8006980:	ebc2 421e 	rsb	r2, r2, lr, lsr #16
 8006984:	eb02 4223 	add.w	r2, r2, r3, asr #16
 8006988:	b29b      	uxth	r3, r3
 800698a:	ea43 4302 	orr.w	r3, r3, r2, lsl #16
 800698e:	45c1      	cmp	r9, r8
 8006990:	f840 3b04 	str.w	r3, [r0], #4
 8006994:	ea4f 4c22 	mov.w	ip, r2, asr #16
 8006998:	d2e8      	bcs.n	800696c <quorem+0xb0>
 800699a:	f855 2024 	ldr.w	r2, [r5, r4, lsl #2]
 800699e:	eb05 0384 	add.w	r3, r5, r4, lsl #2
 80069a2:	b922      	cbnz	r2, 80069ae <quorem+0xf2>
 80069a4:	3b04      	subs	r3, #4
 80069a6:	429d      	cmp	r5, r3
 80069a8:	461a      	mov	r2, r3
 80069aa:	d30a      	bcc.n	80069c2 <quorem+0x106>
 80069ac:	613c      	str	r4, [r7, #16]
 80069ae:	4630      	mov	r0, r6
 80069b0:	b003      	add	sp, #12
 80069b2:	e8bd 8ff0 	ldmia.w	sp!, {r4, r5, r6, r7, r8, r9, sl, fp, pc}
 80069b6:	6812      	ldr	r2, [r2, #0]
 80069b8:	3b04      	subs	r3, #4
 80069ba:	2a00      	cmp	r2, #0
 80069bc:	d1cc      	bne.n	8006958 <quorem+0x9c>
 80069be:	3c01      	subs	r4, #1
 80069c0:	e7c7      	b.n	8006952 <quorem+0x96>
 80069c2:	6812      	ldr	r2, [r2, #0]
 80069c4:	3b04      	subs	r3, #4
 80069c6:	2a00      	cmp	r2, #0
 80069c8:	d1f0      	bne.n	80069ac <quorem+0xf0>
 80069ca:	3c01      	subs	r4, #1
 80069cc:	e7eb      	b.n	80069a6 <quorem+0xea>
 80069ce:	2000      	movs	r0, #0
 80069d0:	e7ee      	b.n	80069b0 <quorem+0xf4>
 80069d2:	0000      	movs	r0, r0
 80069d4:	0000      	movs	r0, r0
	...

080069d8 <_dtoa_r>:
 80069d8:	e92d 4ff0 	stmdb	sp!, {r4, r5, r6, r7, r8, r9, sl, fp, lr}
 80069dc:	ed2d 8b02 	vpush	{d8}
 80069e0:	ec57 6b10 	vmov	r6, r7, d0
 80069e4:	b095      	sub	sp, #84	; 0x54
 80069e6:	6a45      	ldr	r5, [r0, #36]	; 0x24
 80069e8:	f8dd 8080 	ldr.w	r8, [sp, #128]	; 0x80
 80069ec:	9105      	str	r1, [sp, #20]
 80069ee:	e9cd 6702 	strd	r6, r7, [sp, #8]
 80069f2:	4604      	mov	r4, r0
 80069f4:	9209      	str	r2, [sp, #36]	; 0x24
 80069f6:	930f      	str	r3, [sp, #60]	; 0x3c
 80069f8:	b975      	cbnz	r5, 8006a18 <_dtoa_r+0x40>
 80069fa:	2010      	movs	r0, #16
 80069fc:	f000 fddc 	bl	80075b8 <malloc>
 8006a00:	4602      	mov	r2, r0
 8006a02:	6260      	str	r0, [r4, #36]	; 0x24
 8006a04:	b920      	cbnz	r0, 8006a10 <_dtoa_r+0x38>
 8006a06:	4bb2      	ldr	r3, [pc, #712]	; (8006cd0 <_dtoa_r+0x2f8>)
 8006a08:	21ea      	movs	r1, #234	; 0xea
 8006a0a:	48b2      	ldr	r0, [pc, #712]	; (8006cd4 <_dtoa_r+0x2fc>)
 8006a0c:	f001 fb8e 	bl	800812c <__assert_func>
 8006a10:	e9c0 5501 	strd	r5, r5, [r0, #4]
 8006a14:	6005      	str	r5, [r0, #0]
 8006a16:	60c5      	str	r5, [r0, #12]
 8006a18:	6a63      	ldr	r3, [r4, #36]	; 0x24
 8006a1a:	6819      	ldr	r1, [r3, #0]
 8006a1c:	b151      	cbz	r1, 8006a34 <_dtoa_r+0x5c>
 8006a1e:	685a      	ldr	r2, [r3, #4]
 8006a20:	604a      	str	r2, [r1, #4]
 8006a22:	2301      	movs	r3, #1
 8006a24:	4093      	lsls	r3, r2
 8006a26:	608b      	str	r3, [r1, #8]
 8006a28:	4620      	mov	r0, r4
 8006a2a:	f000 fe1b 	bl	8007664 <_Bfree>
 8006a2e:	6a63      	ldr	r3, [r4, #36]	; 0x24
 8006a30:	2200      	movs	r2, #0
 8006a32:	601a      	str	r2, [r3, #0]
 8006a34:	1e3b      	subs	r3, r7, #0
 8006a36:	bfb9      	ittee	lt
 8006a38:	f023 4300 	biclt.w	r3, r3, #2147483648	; 0x80000000
 8006a3c:	9303      	strlt	r3, [sp, #12]
 8006a3e:	2300      	movge	r3, #0
 8006a40:	f8c8 3000 	strge.w	r3, [r8]
 8006a44:	f8dd 900c 	ldr.w	r9, [sp, #12]
 8006a48:	4ba3      	ldr	r3, [pc, #652]	; (8006cd8 <_dtoa_r+0x300>)
 8006a4a:	bfbc      	itt	lt
 8006a4c:	2201      	movlt	r2, #1
 8006a4e:	f8c8 2000 	strlt.w	r2, [r8]
 8006a52:	ea33 0309 	bics.w	r3, r3, r9
 8006a56:	d11b      	bne.n	8006a90 <_dtoa_r+0xb8>
 8006a58:	9a0f      	ldr	r2, [sp, #60]	; 0x3c
 8006a5a:	f242 730f 	movw	r3, #9999	; 0x270f
 8006a5e:	6013      	str	r3, [r2, #0]
 8006a60:	f3c9 0313 	ubfx	r3, r9, #0, #20
 8006a64:	4333      	orrs	r3, r6
 8006a66:	f000 857a 	beq.w	800755e <_dtoa_r+0xb86>
 8006a6a:	9b21      	ldr	r3, [sp, #132]	; 0x84
 8006a6c:	b963      	cbnz	r3, 8006a88 <_dtoa_r+0xb0>
 8006a6e:	4b9b      	ldr	r3, [pc, #620]	; (8006cdc <_dtoa_r+0x304>)
 8006a70:	e024      	b.n	8006abc <_dtoa_r+0xe4>
 8006a72:	4b9b      	ldr	r3, [pc, #620]	; (8006ce0 <_dtoa_r+0x308>)
 8006a74:	9300      	str	r3, [sp, #0]
 8006a76:	3308      	adds	r3, #8
 8006a78:	9a21      	ldr	r2, [sp, #132]	; 0x84
 8006a7a:	6013      	str	r3, [r2, #0]
 8006a7c:	9800      	ldr	r0, [sp, #0]
 8006a7e:	b015      	add	sp, #84	; 0x54
 8006a80:	ecbd 8b02 	vpop	{d8}
 8006a84:	e8bd 8ff0 	ldmia.w	sp!, {r4, r5, r6, r7, r8, r9, sl, fp, pc}
 8006a88:	4b94      	ldr	r3, [pc, #592]	; (8006cdc <_dtoa_r+0x304>)
 8006a8a:	9300      	str	r3, [sp, #0]
 8006a8c:	3303      	adds	r3, #3
 8006a8e:	e7f3      	b.n	8006a78 <_dtoa_r+0xa0>
 8006a90:	ed9d 7b02 	vldr	d7, [sp, #8]
 8006a94:	2200      	movs	r2, #0
 8006a96:	ec51 0b17 	vmov	r0, r1, d7
 8006a9a:	2300      	movs	r3, #0
 8006a9c:	ed8d 7b0a 	vstr	d7, [sp, #40]	; 0x28
 8006aa0:	f7fa f832 	bl	8000b08 <__aeabi_dcmpeq>
 8006aa4:	4680      	mov	r8, r0
 8006aa6:	b158      	cbz	r0, 8006ac0 <_dtoa_r+0xe8>
 8006aa8:	9a0f      	ldr	r2, [sp, #60]	; 0x3c
 8006aaa:	2301      	movs	r3, #1
 8006aac:	6013      	str	r3, [r2, #0]
 8006aae:	9b21      	ldr	r3, [sp, #132]	; 0x84
 8006ab0:	2b00      	cmp	r3, #0
 8006ab2:	f000 8551 	beq.w	8007558 <_dtoa_r+0xb80>
 8006ab6:	488b      	ldr	r0, [pc, #556]	; (8006ce4 <_dtoa_r+0x30c>)
 8006ab8:	6018      	str	r0, [r3, #0]
 8006aba:	1e43      	subs	r3, r0, #1
 8006abc:	9300      	str	r3, [sp, #0]
 8006abe:	e7dd      	b.n	8006a7c <_dtoa_r+0xa4>
 8006ac0:	ed9d 0b0a 	vldr	d0, [sp, #40]	; 0x28
 8006ac4:	aa12      	add	r2, sp, #72	; 0x48
 8006ac6:	a913      	add	r1, sp, #76	; 0x4c
 8006ac8:	4620      	mov	r0, r4
 8006aca:	f001 f8ad 	bl	8007c28 <__d2b>
 8006ace:	f3c9 550a 	ubfx	r5, r9, #20, #11
 8006ad2:	4683      	mov	fp, r0
 8006ad4:	2d00      	cmp	r5, #0
 8006ad6:	d07c      	beq.n	8006bd2 <_dtoa_r+0x1fa>
 8006ad8:	9b0b      	ldr	r3, [sp, #44]	; 0x2c
 8006ada:	f8cd 8040 	str.w	r8, [sp, #64]	; 0x40
 8006ade:	f3c3 0313 	ubfx	r3, r3, #0, #20
 8006ae2:	e9dd 670a 	ldrd	r6, r7, [sp, #40]	; 0x28
 8006ae6:	f043 577f 	orr.w	r7, r3, #1069547520	; 0x3fc00000
 8006aea:	f447 1740 	orr.w	r7, r7, #3145728	; 0x300000
 8006aee:	f2a5 35ff 	subw	r5, r5, #1023	; 0x3ff
 8006af2:	4b7d      	ldr	r3, [pc, #500]	; (8006ce8 <_dtoa_r+0x310>)
 8006af4:	2200      	movs	r2, #0
 8006af6:	4630      	mov	r0, r6
 8006af8:	4639      	mov	r1, r7
 8006afa:	f7f9 fbe5 	bl	80002c8 <__aeabi_dsub>
 8006afe:	a36e      	add	r3, pc, #440	; (adr r3, 8006cb8 <_dtoa_r+0x2e0>)
 8006b00:	e9d3 2300 	ldrd	r2, r3, [r3]
 8006b04:	f7f9 fd98 	bl	8000638 <__aeabi_dmul>
 8006b08:	a36d      	add	r3, pc, #436	; (adr r3, 8006cc0 <_dtoa_r+0x2e8>)
 8006b0a:	e9d3 2300 	ldrd	r2, r3, [r3]
 8006b0e:	f7f9 fbdd 	bl	80002cc <__adddf3>
 8006b12:	4606      	mov	r6, r0
 8006b14:	4628      	mov	r0, r5
 8006b16:	460f      	mov	r7, r1
 8006b18:	f7f9 fd24 	bl	8000564 <__aeabi_i2d>
 8006b1c:	a36a      	add	r3, pc, #424	; (adr r3, 8006cc8 <_dtoa_r+0x2f0>)
 8006b1e:	e9d3 2300 	ldrd	r2, r3, [r3]
 8006b22:	f7f9 fd89 	bl	8000638 <__aeabi_dmul>
 8006b26:	4602      	mov	r2, r0
 8006b28:	460b      	mov	r3, r1
 8006b2a:	4630      	mov	r0, r6
 8006b2c:	4639      	mov	r1, r7
 8006b2e:	f7f9 fbcd 	bl	80002cc <__adddf3>
 8006b32:	4606      	mov	r6, r0
 8006b34:	460f      	mov	r7, r1
 8006b36:	f7fa f82f 	bl	8000b98 <__aeabi_d2iz>
 8006b3a:	2200      	movs	r2, #0
 8006b3c:	4682      	mov	sl, r0
 8006b3e:	2300      	movs	r3, #0
 8006b40:	4630      	mov	r0, r6
 8006b42:	4639      	mov	r1, r7
 8006b44:	f7f9 ffea 	bl	8000b1c <__aeabi_dcmplt>
 8006b48:	b148      	cbz	r0, 8006b5e <_dtoa_r+0x186>
 8006b4a:	4650      	mov	r0, sl
 8006b4c:	f7f9 fd0a 	bl	8000564 <__aeabi_i2d>
 8006b50:	4632      	mov	r2, r6
 8006b52:	463b      	mov	r3, r7
 8006b54:	f7f9 ffd8 	bl	8000b08 <__aeabi_dcmpeq>
 8006b58:	b908      	cbnz	r0, 8006b5e <_dtoa_r+0x186>
 8006b5a:	f10a 3aff 	add.w	sl, sl, #4294967295	; 0xffffffff
 8006b5e:	f1ba 0f16 	cmp.w	sl, #22
 8006b62:	d854      	bhi.n	8006c0e <_dtoa_r+0x236>
 8006b64:	4b61      	ldr	r3, [pc, #388]	; (8006cec <_dtoa_r+0x314>)
 8006b66:	eb03 03ca 	add.w	r3, r3, sl, lsl #3
 8006b6a:	e9d3 2300 	ldrd	r2, r3, [r3]
 8006b6e:	e9dd 010a 	ldrd	r0, r1, [sp, #40]	; 0x28
 8006b72:	f7f9 ffd3 	bl	8000b1c <__aeabi_dcmplt>
 8006b76:	2800      	cmp	r0, #0
 8006b78:	d04b      	beq.n	8006c12 <_dtoa_r+0x23a>
 8006b7a:	f10a 3aff 	add.w	sl, sl, #4294967295	; 0xffffffff
 8006b7e:	2300      	movs	r3, #0
 8006b80:	930e      	str	r3, [sp, #56]	; 0x38
 8006b82:	9b12      	ldr	r3, [sp, #72]	; 0x48
 8006b84:	1b5d      	subs	r5, r3, r5
 8006b86:	1e6b      	subs	r3, r5, #1
 8006b88:	9304      	str	r3, [sp, #16]
 8006b8a:	bf43      	ittte	mi
 8006b8c:	2300      	movmi	r3, #0
 8006b8e:	f1c5 0801 	rsbmi	r8, r5, #1
 8006b92:	9304      	strmi	r3, [sp, #16]
 8006b94:	f04f 0800 	movpl.w	r8, #0
 8006b98:	f1ba 0f00 	cmp.w	sl, #0
 8006b9c:	db3b      	blt.n	8006c16 <_dtoa_r+0x23e>
 8006b9e:	9b04      	ldr	r3, [sp, #16]
 8006ba0:	f8cd a034 	str.w	sl, [sp, #52]	; 0x34
 8006ba4:	4453      	add	r3, sl
 8006ba6:	9304      	str	r3, [sp, #16]
 8006ba8:	2300      	movs	r3, #0
 8006baa:	9306      	str	r3, [sp, #24]
 8006bac:	9b05      	ldr	r3, [sp, #20]
 8006bae:	2b09      	cmp	r3, #9
 8006bb0:	d869      	bhi.n	8006c86 <_dtoa_r+0x2ae>
 8006bb2:	2b05      	cmp	r3, #5
 8006bb4:	bfc4      	itt	gt
 8006bb6:	3b04      	subgt	r3, #4
 8006bb8:	9305      	strgt	r3, [sp, #20]
 8006bba:	9b05      	ldr	r3, [sp, #20]
 8006bbc:	f1a3 0302 	sub.w	r3, r3, #2
 8006bc0:	bfcc      	ite	gt
 8006bc2:	2500      	movgt	r5, #0
 8006bc4:	2501      	movle	r5, #1
 8006bc6:	2b03      	cmp	r3, #3
 8006bc8:	d869      	bhi.n	8006c9e <_dtoa_r+0x2c6>
 8006bca:	e8df f003 	tbb	[pc, r3]
 8006bce:	4e2c      	.short	0x4e2c
 8006bd0:	5a4c      	.short	0x5a4c
 8006bd2:	e9dd 5312 	ldrd	r5, r3, [sp, #72]	; 0x48
 8006bd6:	441d      	add	r5, r3
 8006bd8:	f205 4332 	addw	r3, r5, #1074	; 0x432
 8006bdc:	2b20      	cmp	r3, #32
 8006bde:	bfc1      	itttt	gt
 8006be0:	f1c3 0340 	rsbgt	r3, r3, #64	; 0x40
 8006be4:	f205 4012 	addwgt	r0, r5, #1042	; 0x412
 8006be8:	fa09 f303 	lslgt.w	r3, r9, r3
 8006bec:	fa26 f000 	lsrgt.w	r0, r6, r0
 8006bf0:	bfda      	itte	le
 8006bf2:	f1c3 0320 	rsble	r3, r3, #32
 8006bf6:	fa06 f003 	lslle.w	r0, r6, r3
 8006bfa:	4318      	orrgt	r0, r3
 8006bfc:	f7f9 fca2 	bl	8000544 <__aeabi_ui2d>
 8006c00:	2301      	movs	r3, #1
 8006c02:	4606      	mov	r6, r0
 8006c04:	f1a1 77f8 	sub.w	r7, r1, #32505856	; 0x1f00000
 8006c08:	3d01      	subs	r5, #1
 8006c0a:	9310      	str	r3, [sp, #64]	; 0x40
 8006c0c:	e771      	b.n	8006af2 <_dtoa_r+0x11a>
 8006c0e:	2301      	movs	r3, #1
 8006c10:	e7b6      	b.n	8006b80 <_dtoa_r+0x1a8>
 8006c12:	900e      	str	r0, [sp, #56]	; 0x38
 8006c14:	e7b5      	b.n	8006b82 <_dtoa_r+0x1aa>
 8006c16:	f1ca 0300 	rsb	r3, sl, #0
 8006c1a:	9306      	str	r3, [sp, #24]
 8006c1c:	2300      	movs	r3, #0
 8006c1e:	eba8 080a 	sub.w	r8, r8, sl
 8006c22:	930d      	str	r3, [sp, #52]	; 0x34
 8006c24:	e7c2      	b.n	8006bac <_dtoa_r+0x1d4>
 8006c26:	2300      	movs	r3, #0
 8006c28:	9308      	str	r3, [sp, #32]
 8006c2a:	9b09      	ldr	r3, [sp, #36]	; 0x24
 8006c2c:	2b00      	cmp	r3, #0
 8006c2e:	dc39      	bgt.n	8006ca4 <_dtoa_r+0x2cc>
 8006c30:	f04f 0901 	mov.w	r9, #1
 8006c34:	f8cd 9004 	str.w	r9, [sp, #4]
 8006c38:	464b      	mov	r3, r9
 8006c3a:	f8cd 9024 	str.w	r9, [sp, #36]	; 0x24
 8006c3e:	6a60      	ldr	r0, [r4, #36]	; 0x24
 8006c40:	2200      	movs	r2, #0
 8006c42:	6042      	str	r2, [r0, #4]
 8006c44:	2204      	movs	r2, #4
 8006c46:	f102 0614 	add.w	r6, r2, #20
 8006c4a:	429e      	cmp	r6, r3
 8006c4c:	6841      	ldr	r1, [r0, #4]
 8006c4e:	d92f      	bls.n	8006cb0 <_dtoa_r+0x2d8>
 8006c50:	4620      	mov	r0, r4
 8006c52:	f000 fcc7 	bl	80075e4 <_Balloc>
 8006c56:	9000      	str	r0, [sp, #0]
 8006c58:	2800      	cmp	r0, #0
 8006c5a:	d14b      	bne.n	8006cf4 <_dtoa_r+0x31c>
 8006c5c:	4b24      	ldr	r3, [pc, #144]	; (8006cf0 <_dtoa_r+0x318>)
 8006c5e:	4602      	mov	r2, r0
 8006c60:	f44f 71d5 	mov.w	r1, #426	; 0x1aa
 8006c64:	e6d1      	b.n	8006a0a <_dtoa_r+0x32>
 8006c66:	2301      	movs	r3, #1
 8006c68:	e7de      	b.n	8006c28 <_dtoa_r+0x250>
 8006c6a:	2300      	movs	r3, #0
 8006c6c:	9308      	str	r3, [sp, #32]
 8006c6e:	9b09      	ldr	r3, [sp, #36]	; 0x24
 8006c70:	eb0a 0903 	add.w	r9, sl, r3
 8006c74:	f109 0301 	add.w	r3, r9, #1
 8006c78:	2b01      	cmp	r3, #1
 8006c7a:	9301      	str	r3, [sp, #4]
 8006c7c:	bfb8      	it	lt
 8006c7e:	2301      	movlt	r3, #1
 8006c80:	e7dd      	b.n	8006c3e <_dtoa_r+0x266>
 8006c82:	2301      	movs	r3, #1
 8006c84:	e7f2      	b.n	8006c6c <_dtoa_r+0x294>
 8006c86:	2501      	movs	r5, #1
 8006c88:	2300      	movs	r3, #0
 8006c8a:	9305      	str	r3, [sp, #20]
 8006c8c:	9508      	str	r5, [sp, #32]
 8006c8e:	f04f 39ff 	mov.w	r9, #4294967295	; 0xffffffff
 8006c92:	2200      	movs	r2, #0
 8006c94:	f8cd 9004 	str.w	r9, [sp, #4]
 8006c98:	2312      	movs	r3, #18
 8006c9a:	9209      	str	r2, [sp, #36]	; 0x24
 8006c9c:	e7cf      	b.n	8006c3e <_dtoa_r+0x266>
 8006c9e:	2301      	movs	r3, #1
 8006ca0:	9308      	str	r3, [sp, #32]
 8006ca2:	e7f4      	b.n	8006c8e <_dtoa_r+0x2b6>
 8006ca4:	f8dd 9024 	ldr.w	r9, [sp, #36]	; 0x24
 8006ca8:	f8cd 9004 	str.w	r9, [sp, #4]
 8006cac:	464b      	mov	r3, r9
 8006cae:	e7c6      	b.n	8006c3e <_dtoa_r+0x266>
 8006cb0:	3101      	adds	r1, #1
 8006cb2:	6041      	str	r1, [r0, #4]
 8006cb4:	0052      	lsls	r2, r2, #1
 8006cb6:	e7c6      	b.n	8006c46 <_dtoa_r+0x26e>
 8006cb8:	636f4361 	.word	0x636f4361
 8006cbc:	3fd287a7 	.word	0x3fd287a7
 8006cc0:	8b60c8b3 	.word	0x8b60c8b3
 8006cc4:	3fc68a28 	.word	0x3fc68a28
 8006cc8:	509f79fb 	.word	0x509f79fb
 8006ccc:	3fd34413 	.word	0x3fd34413
 8006cd0:	08008dd5 	.word	0x08008dd5
 8006cd4:	08008dec 	.word	0x08008dec
 8006cd8:	7ff00000 	.word	0x7ff00000
 8006cdc:	08008dd1 	.word	0x08008dd1
 8006ce0:	08008dc8 	.word	0x08008dc8
 8006ce4:	08008da5 	.word	0x08008da5
 8006ce8:	3ff80000 	.word	0x3ff80000
 8006cec:	08008ee8 	.word	0x08008ee8
 8006cf0:	08008e4b 	.word	0x08008e4b
 8006cf4:	6a63      	ldr	r3, [r4, #36]	; 0x24
 8006cf6:	9a00      	ldr	r2, [sp, #0]
 8006cf8:	601a      	str	r2, [r3, #0]
 8006cfa:	9b01      	ldr	r3, [sp, #4]
 8006cfc:	2b0e      	cmp	r3, #14
 8006cfe:	f200 80ad 	bhi.w	8006e5c <_dtoa_r+0x484>
 8006d02:	2d00      	cmp	r5, #0
 8006d04:	f000 80aa 	beq.w	8006e5c <_dtoa_r+0x484>
 8006d08:	f1ba 0f00 	cmp.w	sl, #0
 8006d0c:	dd36      	ble.n	8006d7c <_dtoa_r+0x3a4>
 8006d0e:	4ac3      	ldr	r2, [pc, #780]	; (800701c <_dtoa_r+0x644>)
 8006d10:	f00a 030f 	and.w	r3, sl, #15
 8006d14:	eb02 03c3 	add.w	r3, r2, r3, lsl #3
 8006d18:	ed93 7b00 	vldr	d7, [r3]
 8006d1c:	f41a 7f80 	tst.w	sl, #256	; 0x100
 8006d20:	ea4f 172a 	mov.w	r7, sl, asr #4
 8006d24:	eeb0 8a47 	vmov.f32	s16, s14
 8006d28:	eef0 8a67 	vmov.f32	s17, s15
 8006d2c:	d016      	beq.n	8006d5c <_dtoa_r+0x384>
 8006d2e:	4bbc      	ldr	r3, [pc, #752]	; (8007020 <_dtoa_r+0x648>)
 8006d30:	e9dd 010a 	ldrd	r0, r1, [sp, #40]	; 0x28
 8006d34:	e9d3 2308 	ldrd	r2, r3, [r3, #32]
 8006d38:	f7f9 fda8 	bl	800088c <__aeabi_ddiv>
 8006d3c:	e9cd 0102 	strd	r0, r1, [sp, #8]
 8006d40:	f007 070f 	and.w	r7, r7, #15
 8006d44:	2503      	movs	r5, #3
 8006d46:	4eb6      	ldr	r6, [pc, #728]	; (8007020 <_dtoa_r+0x648>)
 8006d48:	b957      	cbnz	r7, 8006d60 <_dtoa_r+0x388>
 8006d4a:	e9dd 0102 	ldrd	r0, r1, [sp, #8]
 8006d4e:	ec53 2b18 	vmov	r2, r3, d8
 8006d52:	f7f9 fd9b 	bl	800088c <__aeabi_ddiv>
 8006d56:	e9cd 0102 	strd	r0, r1, [sp, #8]
 8006d5a:	e029      	b.n	8006db0 <_dtoa_r+0x3d8>
 8006d5c:	2502      	movs	r5, #2
 8006d5e:	e7f2      	b.n	8006d46 <_dtoa_r+0x36e>
 8006d60:	07f9      	lsls	r1, r7, #31
 8006d62:	d508      	bpl.n	8006d76 <_dtoa_r+0x39e>
 8006d64:	ec51 0b18 	vmov	r0, r1, d8
 8006d68:	e9d6 2300 	ldrd	r2, r3, [r6]
 8006d6c:	f7f9 fc64 	bl	8000638 <__aeabi_dmul>
 8006d70:	ec41 0b18 	vmov	d8, r0, r1
 8006d74:	3501      	adds	r5, #1
 8006d76:	107f      	asrs	r7, r7, #1
 8006d78:	3608      	adds	r6, #8
 8006d7a:	e7e5      	b.n	8006d48 <_dtoa_r+0x370>
 8006d7c:	f000 80a6 	beq.w	8006ecc <_dtoa_r+0x4f4>
 8006d80:	f1ca 0600 	rsb	r6, sl, #0
 8006d84:	4ba5      	ldr	r3, [pc, #660]	; (800701c <_dtoa_r+0x644>)
 8006d86:	4fa6      	ldr	r7, [pc, #664]	; (8007020 <_dtoa_r+0x648>)
 8006d88:	f006 020f 	and.w	r2, r6, #15
 8006d8c:	eb03 03c2 	add.w	r3, r3, r2, lsl #3
 8006d90:	e9d3 2300 	ldrd	r2, r3, [r3]
 8006d94:	e9dd 010a 	ldrd	r0, r1, [sp, #40]	; 0x28
 8006d98:	f7f9 fc4e 	bl	8000638 <__aeabi_dmul>
 8006d9c:	e9cd 0102 	strd	r0, r1, [sp, #8]
 8006da0:	1136      	asrs	r6, r6, #4
 8006da2:	2300      	movs	r3, #0
 8006da4:	2502      	movs	r5, #2
 8006da6:	2e00      	cmp	r6, #0
 8006da8:	f040 8085 	bne.w	8006eb6 <_dtoa_r+0x4de>
 8006dac:	2b00      	cmp	r3, #0
 8006dae:	d1d2      	bne.n	8006d56 <_dtoa_r+0x37e>
 8006db0:	9b0e      	ldr	r3, [sp, #56]	; 0x38
 8006db2:	2b00      	cmp	r3, #0
 8006db4:	f000 808c 	beq.w	8006ed0 <_dtoa_r+0x4f8>
 8006db8:	e9dd 6702 	ldrd	r6, r7, [sp, #8]
 8006dbc:	4b99      	ldr	r3, [pc, #612]	; (8007024 <_dtoa_r+0x64c>)
 8006dbe:	2200      	movs	r2, #0
 8006dc0:	4630      	mov	r0, r6
 8006dc2:	4639      	mov	r1, r7
 8006dc4:	f7f9 feaa 	bl	8000b1c <__aeabi_dcmplt>
 8006dc8:	2800      	cmp	r0, #0
 8006dca:	f000 8081 	beq.w	8006ed0 <_dtoa_r+0x4f8>
 8006dce:	9b01      	ldr	r3, [sp, #4]
 8006dd0:	2b00      	cmp	r3, #0
 8006dd2:	d07d      	beq.n	8006ed0 <_dtoa_r+0x4f8>
 8006dd4:	f1b9 0f00 	cmp.w	r9, #0
 8006dd8:	dd3c      	ble.n	8006e54 <_dtoa_r+0x47c>
 8006dda:	f10a 33ff 	add.w	r3, sl, #4294967295	; 0xffffffff
 8006dde:	9307      	str	r3, [sp, #28]
 8006de0:	2200      	movs	r2, #0
 8006de2:	4b91      	ldr	r3, [pc, #580]	; (8007028 <_dtoa_r+0x650>)
 8006de4:	4630      	mov	r0, r6
 8006de6:	4639      	mov	r1, r7
 8006de8:	f7f9 fc26 	bl	8000638 <__aeabi_dmul>
 8006dec:	e9cd 0102 	strd	r0, r1, [sp, #8]
 8006df0:	3501      	adds	r5, #1
 8006df2:	f8cd 9030 	str.w	r9, [sp, #48]	; 0x30
 8006df6:	e9dd 6702 	ldrd	r6, r7, [sp, #8]
 8006dfa:	4628      	mov	r0, r5
 8006dfc:	f7f9 fbb2 	bl	8000564 <__aeabi_i2d>
 8006e00:	4632      	mov	r2, r6
 8006e02:	463b      	mov	r3, r7
 8006e04:	f7f9 fc18 	bl	8000638 <__aeabi_dmul>
 8006e08:	4b88      	ldr	r3, [pc, #544]	; (800702c <_dtoa_r+0x654>)
 8006e0a:	2200      	movs	r2, #0
 8006e0c:	f7f9 fa5e 	bl	80002cc <__adddf3>
 8006e10:	f1a1 7350 	sub.w	r3, r1, #54525952	; 0x3400000
 8006e14:	e9cd 0102 	strd	r0, r1, [sp, #8]
 8006e18:	9303      	str	r3, [sp, #12]
 8006e1a:	9b0c      	ldr	r3, [sp, #48]	; 0x30
 8006e1c:	2b00      	cmp	r3, #0
 8006e1e:	d15c      	bne.n	8006eda <_dtoa_r+0x502>
 8006e20:	4b83      	ldr	r3, [pc, #524]	; (8007030 <_dtoa_r+0x658>)
 8006e22:	2200      	movs	r2, #0
 8006e24:	4630      	mov	r0, r6
 8006e26:	4639      	mov	r1, r7
 8006e28:	f7f9 fa4e 	bl	80002c8 <__aeabi_dsub>
 8006e2c:	e9dd 2302 	ldrd	r2, r3, [sp, #8]
 8006e30:	4606      	mov	r6, r0
 8006e32:	460f      	mov	r7, r1
 8006e34:	f7f9 fe90 	bl	8000b58 <__aeabi_dcmpgt>
 8006e38:	2800      	cmp	r0, #0
 8006e3a:	f040 8296 	bne.w	800736a <_dtoa_r+0x992>
 8006e3e:	e9dd 2102 	ldrd	r2, r1, [sp, #8]
 8006e42:	4630      	mov	r0, r6
 8006e44:	f101 4300 	add.w	r3, r1, #2147483648	; 0x80000000
 8006e48:	4639      	mov	r1, r7
 8006e4a:	f7f9 fe67 	bl	8000b1c <__aeabi_dcmplt>
 8006e4e:	2800      	cmp	r0, #0
 8006e50:	f040 8288 	bne.w	8007364 <_dtoa_r+0x98c>
 8006e54:	e9dd 230a 	ldrd	r2, r3, [sp, #40]	; 0x28
 8006e58:	e9cd 2302 	strd	r2, r3, [sp, #8]
 8006e5c:	9b13      	ldr	r3, [sp, #76]	; 0x4c
 8006e5e:	2b00      	cmp	r3, #0
 8006e60:	f2c0 8158 	blt.w	8007114 <_dtoa_r+0x73c>
 8006e64:	f1ba 0f0e 	cmp.w	sl, #14
 8006e68:	f300 8154 	bgt.w	8007114 <_dtoa_r+0x73c>
 8006e6c:	4b6b      	ldr	r3, [pc, #428]	; (800701c <_dtoa_r+0x644>)
 8006e6e:	eb03 03ca 	add.w	r3, r3, sl, lsl #3
 8006e72:	e9d3 8900 	ldrd	r8, r9, [r3]
 8006e76:	9b09      	ldr	r3, [sp, #36]	; 0x24
 8006e78:	2b00      	cmp	r3, #0
 8006e7a:	f280 80e3 	bge.w	8007044 <_dtoa_r+0x66c>
 8006e7e:	9b01      	ldr	r3, [sp, #4]
 8006e80:	2b00      	cmp	r3, #0
 8006e82:	f300 80df 	bgt.w	8007044 <_dtoa_r+0x66c>
 8006e86:	f040 826d 	bne.w	8007364 <_dtoa_r+0x98c>
 8006e8a:	4b69      	ldr	r3, [pc, #420]	; (8007030 <_dtoa_r+0x658>)
 8006e8c:	2200      	movs	r2, #0
 8006e8e:	4640      	mov	r0, r8
 8006e90:	4649      	mov	r1, r9
 8006e92:	f7f9 fbd1 	bl	8000638 <__aeabi_dmul>
 8006e96:	e9dd 2302 	ldrd	r2, r3, [sp, #8]
 8006e9a:	f7f9 fe53 	bl	8000b44 <__aeabi_dcmpge>
 8006e9e:	9e01      	ldr	r6, [sp, #4]
 8006ea0:	4637      	mov	r7, r6
 8006ea2:	2800      	cmp	r0, #0
 8006ea4:	f040 8243 	bne.w	800732e <_dtoa_r+0x956>
 8006ea8:	9d00      	ldr	r5, [sp, #0]
 8006eaa:	2331      	movs	r3, #49	; 0x31
 8006eac:	f805 3b01 	strb.w	r3, [r5], #1
 8006eb0:	f10a 0a01 	add.w	sl, sl, #1
 8006eb4:	e23f      	b.n	8007336 <_dtoa_r+0x95e>
 8006eb6:	07f2      	lsls	r2, r6, #31
 8006eb8:	d505      	bpl.n	8006ec6 <_dtoa_r+0x4ee>
 8006eba:	e9d7 2300 	ldrd	r2, r3, [r7]
 8006ebe:	f7f9 fbbb 	bl	8000638 <__aeabi_dmul>
 8006ec2:	3501      	adds	r5, #1
 8006ec4:	2301      	movs	r3, #1
 8006ec6:	1076      	asrs	r6, r6, #1
 8006ec8:	3708      	adds	r7, #8
 8006eca:	e76c      	b.n	8006da6 <_dtoa_r+0x3ce>
 8006ecc:	2502      	movs	r5, #2
 8006ece:	e76f      	b.n	8006db0 <_dtoa_r+0x3d8>
 8006ed0:	9b01      	ldr	r3, [sp, #4]
 8006ed2:	f8cd a01c 	str.w	sl, [sp, #28]
 8006ed6:	930c      	str	r3, [sp, #48]	; 0x30
 8006ed8:	e78d      	b.n	8006df6 <_dtoa_r+0x41e>
 8006eda:	9900      	ldr	r1, [sp, #0]
 8006edc:	980c      	ldr	r0, [sp, #48]	; 0x30
 8006ede:	9a0c      	ldr	r2, [sp, #48]	; 0x30
 8006ee0:	4b4e      	ldr	r3, [pc, #312]	; (800701c <_dtoa_r+0x644>)
 8006ee2:	ed9d 7b02 	vldr	d7, [sp, #8]
 8006ee6:	4401      	add	r1, r0
 8006ee8:	9102      	str	r1, [sp, #8]
 8006eea:	9908      	ldr	r1, [sp, #32]
 8006eec:	eeb0 8a47 	vmov.f32	s16, s14
 8006ef0:	eef0 8a67 	vmov.f32	s17, s15
 8006ef4:	eb03 03c2 	add.w	r3, r3, r2, lsl #3
 8006ef8:	e953 2302 	ldrd	r2, r3, [r3, #-8]
 8006efc:	2900      	cmp	r1, #0
 8006efe:	d045      	beq.n	8006f8c <_dtoa_r+0x5b4>
 8006f00:	494c      	ldr	r1, [pc, #304]	; (8007034 <_dtoa_r+0x65c>)
 8006f02:	2000      	movs	r0, #0
 8006f04:	f7f9 fcc2 	bl	800088c <__aeabi_ddiv>
 8006f08:	ec53 2b18 	vmov	r2, r3, d8
 8006f0c:	f7f9 f9dc 	bl	80002c8 <__aeabi_dsub>
 8006f10:	9d00      	ldr	r5, [sp, #0]
 8006f12:	ec41 0b18 	vmov	d8, r0, r1
 8006f16:	4639      	mov	r1, r7
 8006f18:	4630      	mov	r0, r6
 8006f1a:	f7f9 fe3d 	bl	8000b98 <__aeabi_d2iz>
 8006f1e:	900c      	str	r0, [sp, #48]	; 0x30
 8006f20:	f7f9 fb20 	bl	8000564 <__aeabi_i2d>
 8006f24:	4602      	mov	r2, r0
 8006f26:	460b      	mov	r3, r1
 8006f28:	4630      	mov	r0, r6
 8006f2a:	4639      	mov	r1, r7
 8006f2c:	f7f9 f9cc 	bl	80002c8 <__aeabi_dsub>
 8006f30:	9b0c      	ldr	r3, [sp, #48]	; 0x30
 8006f32:	3330      	adds	r3, #48	; 0x30
 8006f34:	f805 3b01 	strb.w	r3, [r5], #1
 8006f38:	ec53 2b18 	vmov	r2, r3, d8
 8006f3c:	4606      	mov	r6, r0
 8006f3e:	460f      	mov	r7, r1
 8006f40:	f7f9 fdec 	bl	8000b1c <__aeabi_dcmplt>
 8006f44:	2800      	cmp	r0, #0
 8006f46:	d165      	bne.n	8007014 <_dtoa_r+0x63c>
 8006f48:	4632      	mov	r2, r6
 8006f4a:	463b      	mov	r3, r7
 8006f4c:	4935      	ldr	r1, [pc, #212]	; (8007024 <_dtoa_r+0x64c>)
 8006f4e:	2000      	movs	r0, #0
 8006f50:	f7f9 f9ba 	bl	80002c8 <__aeabi_dsub>
 8006f54:	ec53 2b18 	vmov	r2, r3, d8
 8006f58:	f7f9 fde0 	bl	8000b1c <__aeabi_dcmplt>
 8006f5c:	2800      	cmp	r0, #0
 8006f5e:	f040 80b9 	bne.w	80070d4 <_dtoa_r+0x6fc>
 8006f62:	9b02      	ldr	r3, [sp, #8]
 8006f64:	429d      	cmp	r5, r3
 8006f66:	f43f af75 	beq.w	8006e54 <_dtoa_r+0x47c>
 8006f6a:	4b2f      	ldr	r3, [pc, #188]	; (8007028 <_dtoa_r+0x650>)
 8006f6c:	ec51 0b18 	vmov	r0, r1, d8
 8006f70:	2200      	movs	r2, #0
 8006f72:	f7f9 fb61 	bl	8000638 <__aeabi_dmul>
 8006f76:	4b2c      	ldr	r3, [pc, #176]	; (8007028 <_dtoa_r+0x650>)
 8006f78:	ec41 0b18 	vmov	d8, r0, r1
 8006f7c:	2200      	movs	r2, #0
 8006f7e:	4630      	mov	r0, r6
 8006f80:	4639      	mov	r1, r7
 8006f82:	f7f9 fb59 	bl	8000638 <__aeabi_dmul>
 8006f86:	4606      	mov	r6, r0
 8006f88:	460f      	mov	r7, r1
 8006f8a:	e7c4      	b.n	8006f16 <_dtoa_r+0x53e>
 8006f8c:	ec51 0b17 	vmov	r0, r1, d7
 8006f90:	f7f9 fb52 	bl	8000638 <__aeabi_dmul>
 8006f94:	9b02      	ldr	r3, [sp, #8]
 8006f96:	9d00      	ldr	r5, [sp, #0]
 8006f98:	930c      	str	r3, [sp, #48]	; 0x30
 8006f9a:	ec41 0b18 	vmov	d8, r0, r1
 8006f9e:	4639      	mov	r1, r7
 8006fa0:	4630      	mov	r0, r6
 8006fa2:	f7f9 fdf9 	bl	8000b98 <__aeabi_d2iz>
 8006fa6:	9011      	str	r0, [sp, #68]	; 0x44
 8006fa8:	f7f9 fadc 	bl	8000564 <__aeabi_i2d>
 8006fac:	4602      	mov	r2, r0
 8006fae:	460b      	mov	r3, r1
 8006fb0:	4630      	mov	r0, r6
 8006fb2:	4639      	mov	r1, r7
 8006fb4:	f7f9 f988 	bl	80002c8 <__aeabi_dsub>
 8006fb8:	9b11      	ldr	r3, [sp, #68]	; 0x44
 8006fba:	3330      	adds	r3, #48	; 0x30
 8006fbc:	f805 3b01 	strb.w	r3, [r5], #1
 8006fc0:	9b02      	ldr	r3, [sp, #8]
 8006fc2:	429d      	cmp	r5, r3
 8006fc4:	4606      	mov	r6, r0
 8006fc6:	460f      	mov	r7, r1
 8006fc8:	f04f 0200 	mov.w	r2, #0
 8006fcc:	d134      	bne.n	8007038 <_dtoa_r+0x660>
 8006fce:	4b19      	ldr	r3, [pc, #100]	; (8007034 <_dtoa_r+0x65c>)
 8006fd0:	ec51 0b18 	vmov	r0, r1, d8
 8006fd4:	f7f9 f97a 	bl	80002cc <__adddf3>
 8006fd8:	4602      	mov	r2, r0
 8006fda:	460b      	mov	r3, r1
 8006fdc:	4630      	mov	r0, r6
 8006fde:	4639      	mov	r1, r7
 8006fe0:	f7f9 fdba 	bl	8000b58 <__aeabi_dcmpgt>
 8006fe4:	2800      	cmp	r0, #0
 8006fe6:	d175      	bne.n	80070d4 <_dtoa_r+0x6fc>
 8006fe8:	ec53 2b18 	vmov	r2, r3, d8
 8006fec:	4911      	ldr	r1, [pc, #68]	; (8007034 <_dtoa_r+0x65c>)
 8006fee:	2000      	movs	r0, #0
 8006ff0:	f7f9 f96a 	bl	80002c8 <__aeabi_dsub>
 8006ff4:	4602      	mov	r2, r0
 8006ff6:	460b      	mov	r3, r1
 8006ff8:	4630      	mov	r0, r6
 8006ffa:	4639      	mov	r1, r7
 8006ffc:	f7f9 fd8e 	bl	8000b1c <__aeabi_dcmplt>
 8007000:	2800      	cmp	r0, #0
 8007002:	f43f af27 	beq.w	8006e54 <_dtoa_r+0x47c>
 8007006:	9d0c      	ldr	r5, [sp, #48]	; 0x30
 8007008:	1e6b      	subs	r3, r5, #1
 800700a:	930c      	str	r3, [sp, #48]	; 0x30
 800700c:	f815 3c01 	ldrb.w	r3, [r5, #-1]
 8007010:	2b30      	cmp	r3, #48	; 0x30
 8007012:	d0f8      	beq.n	8007006 <_dtoa_r+0x62e>
 8007014:	f8dd a01c 	ldr.w	sl, [sp, #28]
 8007018:	e04a      	b.n	80070b0 <_dtoa_r+0x6d8>
 800701a:	bf00      	nop
 800701c:	08008ee8 	.word	0x08008ee8
 8007020:	08008ec0 	.word	0x08008ec0
 8007024:	3ff00000 	.word	0x3ff00000
 8007028:	40240000 	.word	0x40240000
 800702c:	401c0000 	.word	0x401c0000
 8007030:	40140000 	.word	0x40140000
 8007034:	3fe00000 	.word	0x3fe00000
 8007038:	4baf      	ldr	r3, [pc, #700]	; (80072f8 <_dtoa_r+0x920>)
 800703a:	f7f9 fafd 	bl	8000638 <__aeabi_dmul>
 800703e:	4606      	mov	r6, r0
 8007040:	460f      	mov	r7, r1
 8007042:	e7ac      	b.n	8006f9e <_dtoa_r+0x5c6>
 8007044:	e9dd 6702 	ldrd	r6, r7, [sp, #8]
 8007048:	9d00      	ldr	r5, [sp, #0]
 800704a:	4642      	mov	r2, r8
 800704c:	464b      	mov	r3, r9
 800704e:	4630      	mov	r0, r6
 8007050:	4639      	mov	r1, r7
 8007052:	f7f9 fc1b 	bl	800088c <__aeabi_ddiv>
 8007056:	f7f9 fd9f 	bl	8000b98 <__aeabi_d2iz>
 800705a:	9002      	str	r0, [sp, #8]
 800705c:	f7f9 fa82 	bl	8000564 <__aeabi_i2d>
 8007060:	4642      	mov	r2, r8
 8007062:	464b      	mov	r3, r9
 8007064:	f7f9 fae8 	bl	8000638 <__aeabi_dmul>
 8007068:	4602      	mov	r2, r0
 800706a:	460b      	mov	r3, r1
 800706c:	4630      	mov	r0, r6
 800706e:	4639      	mov	r1, r7
 8007070:	f7f9 f92a 	bl	80002c8 <__aeabi_dsub>
 8007074:	9e02      	ldr	r6, [sp, #8]
 8007076:	9f01      	ldr	r7, [sp, #4]
 8007078:	3630      	adds	r6, #48	; 0x30
 800707a:	f805 6b01 	strb.w	r6, [r5], #1
 800707e:	9e00      	ldr	r6, [sp, #0]
 8007080:	1bae      	subs	r6, r5, r6
 8007082:	42b7      	cmp	r7, r6
 8007084:	4602      	mov	r2, r0
 8007086:	460b      	mov	r3, r1
 8007088:	d137      	bne.n	80070fa <_dtoa_r+0x722>
 800708a:	f7f9 f91f 	bl	80002cc <__adddf3>
 800708e:	4642      	mov	r2, r8
 8007090:	464b      	mov	r3, r9
 8007092:	4606      	mov	r6, r0
 8007094:	460f      	mov	r7, r1
 8007096:	f7f9 fd5f 	bl	8000b58 <__aeabi_dcmpgt>
 800709a:	b9c8      	cbnz	r0, 80070d0 <_dtoa_r+0x6f8>
 800709c:	4642      	mov	r2, r8
 800709e:	464b      	mov	r3, r9
 80070a0:	4630      	mov	r0, r6
 80070a2:	4639      	mov	r1, r7
 80070a4:	f7f9 fd30 	bl	8000b08 <__aeabi_dcmpeq>
 80070a8:	b110      	cbz	r0, 80070b0 <_dtoa_r+0x6d8>
 80070aa:	9b02      	ldr	r3, [sp, #8]
 80070ac:	07d9      	lsls	r1, r3, #31
 80070ae:	d40f      	bmi.n	80070d0 <_dtoa_r+0x6f8>
 80070b0:	4620      	mov	r0, r4
 80070b2:	4659      	mov	r1, fp
 80070b4:	f000 fad6 	bl	8007664 <_Bfree>
 80070b8:	2300      	movs	r3, #0
 80070ba:	702b      	strb	r3, [r5, #0]
 80070bc:	9b0f      	ldr	r3, [sp, #60]	; 0x3c
 80070be:	f10a 0001 	add.w	r0, sl, #1
 80070c2:	6018      	str	r0, [r3, #0]
 80070c4:	9b21      	ldr	r3, [sp, #132]	; 0x84
 80070c6:	2b00      	cmp	r3, #0
 80070c8:	f43f acd8 	beq.w	8006a7c <_dtoa_r+0xa4>
 80070cc:	601d      	str	r5, [r3, #0]
 80070ce:	e4d5      	b.n	8006a7c <_dtoa_r+0xa4>
 80070d0:	f8cd a01c 	str.w	sl, [sp, #28]
 80070d4:	462b      	mov	r3, r5
 80070d6:	461d      	mov	r5, r3
 80070d8:	f813 2d01 	ldrb.w	r2, [r3, #-1]!
 80070dc:	2a39      	cmp	r2, #57	; 0x39
 80070de:	d108      	bne.n	80070f2 <_dtoa_r+0x71a>
 80070e0:	9a00      	ldr	r2, [sp, #0]
 80070e2:	429a      	cmp	r2, r3
 80070e4:	d1f7      	bne.n	80070d6 <_dtoa_r+0x6fe>
 80070e6:	9a07      	ldr	r2, [sp, #28]
 80070e8:	9900      	ldr	r1, [sp, #0]
 80070ea:	3201      	adds	r2, #1
 80070ec:	9207      	str	r2, [sp, #28]
 80070ee:	2230      	movs	r2, #48	; 0x30
 80070f0:	700a      	strb	r2, [r1, #0]
 80070f2:	781a      	ldrb	r2, [r3, #0]
 80070f4:	3201      	adds	r2, #1
 80070f6:	701a      	strb	r2, [r3, #0]
 80070f8:	e78c      	b.n	8007014 <_dtoa_r+0x63c>
 80070fa:	4b7f      	ldr	r3, [pc, #508]	; (80072f8 <_dtoa_r+0x920>)
 80070fc:	2200      	movs	r2, #0
 80070fe:	f7f9 fa9b 	bl	8000638 <__aeabi_dmul>
 8007102:	2200      	movs	r2, #0
 8007104:	2300      	movs	r3, #0
 8007106:	4606      	mov	r6, r0
 8007108:	460f      	mov	r7, r1
 800710a:	f7f9 fcfd 	bl	8000b08 <__aeabi_dcmpeq>
 800710e:	2800      	cmp	r0, #0
 8007110:	d09b      	beq.n	800704a <_dtoa_r+0x672>
 8007112:	e7cd      	b.n	80070b0 <_dtoa_r+0x6d8>
 8007114:	9a08      	ldr	r2, [sp, #32]
 8007116:	2a00      	cmp	r2, #0
 8007118:	f000 80c4 	beq.w	80072a4 <_dtoa_r+0x8cc>
 800711c:	9a05      	ldr	r2, [sp, #20]
 800711e:	2a01      	cmp	r2, #1
 8007120:	f300 80a8 	bgt.w	8007274 <_dtoa_r+0x89c>
 8007124:	9a10      	ldr	r2, [sp, #64]	; 0x40
 8007126:	2a00      	cmp	r2, #0
 8007128:	f000 80a0 	beq.w	800726c <_dtoa_r+0x894>
 800712c:	f203 4333 	addw	r3, r3, #1075	; 0x433
 8007130:	9e06      	ldr	r6, [sp, #24]
 8007132:	4645      	mov	r5, r8
 8007134:	9a04      	ldr	r2, [sp, #16]
 8007136:	2101      	movs	r1, #1
 8007138:	441a      	add	r2, r3
 800713a:	4620      	mov	r0, r4
 800713c:	4498      	add	r8, r3
 800713e:	9204      	str	r2, [sp, #16]
 8007140:	f000 fb4c 	bl	80077dc <__i2b>
 8007144:	4607      	mov	r7, r0
 8007146:	2d00      	cmp	r5, #0
 8007148:	dd0b      	ble.n	8007162 <_dtoa_r+0x78a>
 800714a:	9b04      	ldr	r3, [sp, #16]
 800714c:	2b00      	cmp	r3, #0
 800714e:	dd08      	ble.n	8007162 <_dtoa_r+0x78a>
 8007150:	42ab      	cmp	r3, r5
 8007152:	9a04      	ldr	r2, [sp, #16]
 8007154:	bfa8      	it	ge
 8007156:	462b      	movge	r3, r5
 8007158:	eba8 0803 	sub.w	r8, r8, r3
 800715c:	1aed      	subs	r5, r5, r3
 800715e:	1ad3      	subs	r3, r2, r3
 8007160:	9304      	str	r3, [sp, #16]
 8007162:	9b06      	ldr	r3, [sp, #24]
 8007164:	b1fb      	cbz	r3, 80071a6 <_dtoa_r+0x7ce>
 8007166:	9b08      	ldr	r3, [sp, #32]
 8007168:	2b00      	cmp	r3, #0
 800716a:	f000 809f 	beq.w	80072ac <_dtoa_r+0x8d4>
 800716e:	2e00      	cmp	r6, #0
 8007170:	dd11      	ble.n	8007196 <_dtoa_r+0x7be>
 8007172:	4639      	mov	r1, r7
 8007174:	4632      	mov	r2, r6
 8007176:	4620      	mov	r0, r4
 8007178:	f000 fbec 	bl	8007954 <__pow5mult>
 800717c:	465a      	mov	r2, fp
 800717e:	4601      	mov	r1, r0
 8007180:	4607      	mov	r7, r0
 8007182:	4620      	mov	r0, r4
 8007184:	f000 fb40 	bl	8007808 <__multiply>
 8007188:	4659      	mov	r1, fp
 800718a:	9007      	str	r0, [sp, #28]
 800718c:	4620      	mov	r0, r4
 800718e:	f000 fa69 	bl	8007664 <_Bfree>
 8007192:	9b07      	ldr	r3, [sp, #28]
 8007194:	469b      	mov	fp, r3
 8007196:	9b06      	ldr	r3, [sp, #24]
 8007198:	1b9a      	subs	r2, r3, r6
 800719a:	d004      	beq.n	80071a6 <_dtoa_r+0x7ce>
 800719c:	4659      	mov	r1, fp
 800719e:	4620      	mov	r0, r4
 80071a0:	f000 fbd8 	bl	8007954 <__pow5mult>
 80071a4:	4683      	mov	fp, r0
 80071a6:	2101      	movs	r1, #1
 80071a8:	4620      	mov	r0, r4
 80071aa:	f000 fb17 	bl	80077dc <__i2b>
 80071ae:	9b0d      	ldr	r3, [sp, #52]	; 0x34
 80071b0:	2b00      	cmp	r3, #0
 80071b2:	4606      	mov	r6, r0
 80071b4:	dd7c      	ble.n	80072b0 <_dtoa_r+0x8d8>
 80071b6:	461a      	mov	r2, r3
 80071b8:	4601      	mov	r1, r0
 80071ba:	4620      	mov	r0, r4
 80071bc:	f000 fbca 	bl	8007954 <__pow5mult>
 80071c0:	9b05      	ldr	r3, [sp, #20]
 80071c2:	2b01      	cmp	r3, #1
 80071c4:	4606      	mov	r6, r0
 80071c6:	dd76      	ble.n	80072b6 <_dtoa_r+0x8de>
 80071c8:	2300      	movs	r3, #0
 80071ca:	9306      	str	r3, [sp, #24]
 80071cc:	6933      	ldr	r3, [r6, #16]
 80071ce:	eb06 0383 	add.w	r3, r6, r3, lsl #2
 80071d2:	6918      	ldr	r0, [r3, #16]
 80071d4:	f000 fab2 	bl	800773c <__hi0bits>
 80071d8:	f1c0 0020 	rsb	r0, r0, #32
 80071dc:	9b04      	ldr	r3, [sp, #16]
 80071de:	4418      	add	r0, r3
 80071e0:	f010 001f 	ands.w	r0, r0, #31
 80071e4:	f000 8086 	beq.w	80072f4 <_dtoa_r+0x91c>
 80071e8:	f1c0 0320 	rsb	r3, r0, #32
 80071ec:	2b04      	cmp	r3, #4
 80071ee:	dd7f      	ble.n	80072f0 <_dtoa_r+0x918>
 80071f0:	f1c0 001c 	rsb	r0, r0, #28
 80071f4:	9b04      	ldr	r3, [sp, #16]
 80071f6:	4403      	add	r3, r0
 80071f8:	4480      	add	r8, r0
 80071fa:	4405      	add	r5, r0
 80071fc:	9304      	str	r3, [sp, #16]
 80071fe:	f1b8 0f00 	cmp.w	r8, #0
 8007202:	dd05      	ble.n	8007210 <_dtoa_r+0x838>
 8007204:	4659      	mov	r1, fp
 8007206:	4642      	mov	r2, r8
 8007208:	4620      	mov	r0, r4
 800720a:	f000 fbfd 	bl	8007a08 <__lshift>
 800720e:	4683      	mov	fp, r0
 8007210:	9b04      	ldr	r3, [sp, #16]
 8007212:	2b00      	cmp	r3, #0
 8007214:	dd05      	ble.n	8007222 <_dtoa_r+0x84a>
 8007216:	4631      	mov	r1, r6
 8007218:	461a      	mov	r2, r3
 800721a:	4620      	mov	r0, r4
 800721c:	f000 fbf4 	bl	8007a08 <__lshift>
 8007220:	4606      	mov	r6, r0
 8007222:	9b0e      	ldr	r3, [sp, #56]	; 0x38
 8007224:	2b00      	cmp	r3, #0
 8007226:	d069      	beq.n	80072fc <_dtoa_r+0x924>
 8007228:	4631      	mov	r1, r6
 800722a:	4658      	mov	r0, fp
 800722c:	f000 fc58 	bl	8007ae0 <__mcmp>
 8007230:	2800      	cmp	r0, #0
 8007232:	da63      	bge.n	80072fc <_dtoa_r+0x924>
 8007234:	2300      	movs	r3, #0
 8007236:	4659      	mov	r1, fp
 8007238:	220a      	movs	r2, #10
 800723a:	4620      	mov	r0, r4
 800723c:	f000 fa34 	bl	80076a8 <__multadd>
 8007240:	9b08      	ldr	r3, [sp, #32]
 8007242:	f10a 3aff 	add.w	sl, sl, #4294967295	; 0xffffffff
 8007246:	4683      	mov	fp, r0
 8007248:	2b00      	cmp	r3, #0
 800724a:	f000 818f 	beq.w	800756c <_dtoa_r+0xb94>
 800724e:	4639      	mov	r1, r7
 8007250:	2300      	movs	r3, #0
 8007252:	220a      	movs	r2, #10
 8007254:	4620      	mov	r0, r4
 8007256:	f000 fa27 	bl	80076a8 <__multadd>
 800725a:	f1b9 0f00 	cmp.w	r9, #0
 800725e:	4607      	mov	r7, r0
 8007260:	f300 808e 	bgt.w	8007380 <_dtoa_r+0x9a8>
 8007264:	9b05      	ldr	r3, [sp, #20]
 8007266:	2b02      	cmp	r3, #2
 8007268:	dc50      	bgt.n	800730c <_dtoa_r+0x934>
 800726a:	e089      	b.n	8007380 <_dtoa_r+0x9a8>
 800726c:	9b12      	ldr	r3, [sp, #72]	; 0x48
 800726e:	f1c3 0336 	rsb	r3, r3, #54	; 0x36
 8007272:	e75d      	b.n	8007130 <_dtoa_r+0x758>
 8007274:	9b01      	ldr	r3, [sp, #4]
 8007276:	1e5e      	subs	r6, r3, #1
 8007278:	9b06      	ldr	r3, [sp, #24]
 800727a:	42b3      	cmp	r3, r6
 800727c:	bfbf      	itttt	lt
 800727e:	9b06      	ldrlt	r3, [sp, #24]
 8007280:	9606      	strlt	r6, [sp, #24]
 8007282:	1af2      	sublt	r2, r6, r3
 8007284:	9b0d      	ldrlt	r3, [sp, #52]	; 0x34
 8007286:	bfb6      	itet	lt
 8007288:	189b      	addlt	r3, r3, r2
 800728a:	1b9e      	subge	r6, r3, r6
 800728c:	930d      	strlt	r3, [sp, #52]	; 0x34
 800728e:	9b01      	ldr	r3, [sp, #4]
 8007290:	bfb8      	it	lt
 8007292:	2600      	movlt	r6, #0
 8007294:	2b00      	cmp	r3, #0
 8007296:	bfb5      	itete	lt
 8007298:	eba8 0503 	sublt.w	r5, r8, r3
 800729c:	9b01      	ldrge	r3, [sp, #4]
 800729e:	2300      	movlt	r3, #0
 80072a0:	4645      	movge	r5, r8
 80072a2:	e747      	b.n	8007134 <_dtoa_r+0x75c>
 80072a4:	9e06      	ldr	r6, [sp, #24]
 80072a6:	9f08      	ldr	r7, [sp, #32]
 80072a8:	4645      	mov	r5, r8
 80072aa:	e74c      	b.n	8007146 <_dtoa_r+0x76e>
 80072ac:	9a06      	ldr	r2, [sp, #24]
 80072ae:	e775      	b.n	800719c <_dtoa_r+0x7c4>
 80072b0:	9b05      	ldr	r3, [sp, #20]
 80072b2:	2b01      	cmp	r3, #1
 80072b4:	dc18      	bgt.n	80072e8 <_dtoa_r+0x910>
 80072b6:	9b02      	ldr	r3, [sp, #8]
 80072b8:	b9b3      	cbnz	r3, 80072e8 <_dtoa_r+0x910>
 80072ba:	9b03      	ldr	r3, [sp, #12]
 80072bc:	f3c3 0313 	ubfx	r3, r3, #0, #20
 80072c0:	b9a3      	cbnz	r3, 80072ec <_dtoa_r+0x914>
 80072c2:	9b03      	ldr	r3, [sp, #12]
 80072c4:	f023 4300 	bic.w	r3, r3, #2147483648	; 0x80000000
 80072c8:	0d1b      	lsrs	r3, r3, #20
 80072ca:	051b      	lsls	r3, r3, #20
 80072cc:	b12b      	cbz	r3, 80072da <_dtoa_r+0x902>
 80072ce:	9b04      	ldr	r3, [sp, #16]
 80072d0:	3301      	adds	r3, #1
 80072d2:	9304      	str	r3, [sp, #16]
 80072d4:	f108 0801 	add.w	r8, r8, #1
 80072d8:	2301      	movs	r3, #1
 80072da:	9306      	str	r3, [sp, #24]
 80072dc:	9b0d      	ldr	r3, [sp, #52]	; 0x34
 80072de:	2b00      	cmp	r3, #0
 80072e0:	f47f af74 	bne.w	80071cc <_dtoa_r+0x7f4>
 80072e4:	2001      	movs	r0, #1
 80072e6:	e779      	b.n	80071dc <_dtoa_r+0x804>
 80072e8:	2300      	movs	r3, #0
 80072ea:	e7f6      	b.n	80072da <_dtoa_r+0x902>
 80072ec:	9b02      	ldr	r3, [sp, #8]
 80072ee:	e7f4      	b.n	80072da <_dtoa_r+0x902>
 80072f0:	d085      	beq.n	80071fe <_dtoa_r+0x826>
 80072f2:	4618      	mov	r0, r3
 80072f4:	301c      	adds	r0, #28
 80072f6:	e77d      	b.n	80071f4 <_dtoa_r+0x81c>
 80072f8:	40240000 	.word	0x40240000
 80072fc:	9b01      	ldr	r3, [sp, #4]
 80072fe:	2b00      	cmp	r3, #0
 8007300:	dc38      	bgt.n	8007374 <_dtoa_r+0x99c>
 8007302:	9b05      	ldr	r3, [sp, #20]
 8007304:	2b02      	cmp	r3, #2
 8007306:	dd35      	ble.n	8007374 <_dtoa_r+0x99c>
 8007308:	f8dd 9004 	ldr.w	r9, [sp, #4]
 800730c:	f1b9 0f00 	cmp.w	r9, #0
 8007310:	d10d      	bne.n	800732e <_dtoa_r+0x956>
 8007312:	4631      	mov	r1, r6
 8007314:	464b      	mov	r3, r9
 8007316:	2205      	movs	r2, #5
 8007318:	4620      	mov	r0, r4
 800731a:	f000 f9c5 	bl	80076a8 <__multadd>
 800731e:	4601      	mov	r1, r0
 8007320:	4606      	mov	r6, r0
 8007322:	4658      	mov	r0, fp
 8007324:	f000 fbdc 	bl	8007ae0 <__mcmp>
 8007328:	2800      	cmp	r0, #0
 800732a:	f73f adbd 	bgt.w	8006ea8 <_dtoa_r+0x4d0>
 800732e:	9b09      	ldr	r3, [sp, #36]	; 0x24
 8007330:	9d00      	ldr	r5, [sp, #0]
 8007332:	ea6f 0a03 	mvn.w	sl, r3
 8007336:	f04f 0800 	mov.w	r8, #0
 800733a:	4631      	mov	r1, r6
 800733c:	4620      	mov	r0, r4
 800733e:	f000 f991 	bl	8007664 <_Bfree>
 8007342:	2f00      	cmp	r7, #0
 8007344:	f43f aeb4 	beq.w	80070b0 <_dtoa_r+0x6d8>
 8007348:	f1b8 0f00 	cmp.w	r8, #0
 800734c:	d005      	beq.n	800735a <_dtoa_r+0x982>
 800734e:	45b8      	cmp	r8, r7
 8007350:	d003      	beq.n	800735a <_dtoa_r+0x982>
 8007352:	4641      	mov	r1, r8
 8007354:	4620      	mov	r0, r4
 8007356:	f000 f985 	bl	8007664 <_Bfree>
 800735a:	4639      	mov	r1, r7
 800735c:	4620      	mov	r0, r4
 800735e:	f000 f981 	bl	8007664 <_Bfree>
 8007362:	e6a5      	b.n	80070b0 <_dtoa_r+0x6d8>
 8007364:	2600      	movs	r6, #0
 8007366:	4637      	mov	r7, r6
 8007368:	e7e1      	b.n	800732e <_dtoa_r+0x956>
 800736a:	9e0c      	ldr	r6, [sp, #48]	; 0x30
 800736c:	f8dd a01c 	ldr.w	sl, [sp, #28]
 8007370:	4637      	mov	r7, r6
 8007372:	e599      	b.n	8006ea8 <_dtoa_r+0x4d0>
 8007374:	9b08      	ldr	r3, [sp, #32]
 8007376:	f8dd 9004 	ldr.w	r9, [sp, #4]
 800737a:	2b00      	cmp	r3, #0
 800737c:	f000 80fd 	beq.w	800757a <_dtoa_r+0xba2>
 8007380:	2d00      	cmp	r5, #0
 8007382:	dd05      	ble.n	8007390 <_dtoa_r+0x9b8>
 8007384:	4639      	mov	r1, r7
 8007386:	462a      	mov	r2, r5
 8007388:	4620      	mov	r0, r4
 800738a:	f000 fb3d 	bl	8007a08 <__lshift>
 800738e:	4607      	mov	r7, r0
 8007390:	9b06      	ldr	r3, [sp, #24]
 8007392:	2b00      	cmp	r3, #0
 8007394:	d05c      	beq.n	8007450 <_dtoa_r+0xa78>
 8007396:	6879      	ldr	r1, [r7, #4]
 8007398:	4620      	mov	r0, r4
 800739a:	f000 f923 	bl	80075e4 <_Balloc>
 800739e:	4605      	mov	r5, r0
 80073a0:	b928      	cbnz	r0, 80073ae <_dtoa_r+0x9d6>
 80073a2:	4b80      	ldr	r3, [pc, #512]	; (80075a4 <_dtoa_r+0xbcc>)
 80073a4:	4602      	mov	r2, r0
 80073a6:	f240 21ea 	movw	r1, #746	; 0x2ea
 80073aa:	f7ff bb2e 	b.w	8006a0a <_dtoa_r+0x32>
 80073ae:	693a      	ldr	r2, [r7, #16]
 80073b0:	3202      	adds	r2, #2
 80073b2:	0092      	lsls	r2, r2, #2
 80073b4:	f107 010c 	add.w	r1, r7, #12
 80073b8:	300c      	adds	r0, #12
 80073ba:	f000 f905 	bl	80075c8 <memcpy>
 80073be:	2201      	movs	r2, #1
 80073c0:	4629      	mov	r1, r5
 80073c2:	4620      	mov	r0, r4
 80073c4:	f000 fb20 	bl	8007a08 <__lshift>
 80073c8:	9b00      	ldr	r3, [sp, #0]
 80073ca:	3301      	adds	r3, #1
 80073cc:	9301      	str	r3, [sp, #4]
 80073ce:	9b00      	ldr	r3, [sp, #0]
 80073d0:	444b      	add	r3, r9
 80073d2:	9307      	str	r3, [sp, #28]
 80073d4:	9b02      	ldr	r3, [sp, #8]
 80073d6:	f003 0301 	and.w	r3, r3, #1
 80073da:	46b8      	mov	r8, r7
 80073dc:	9306      	str	r3, [sp, #24]
 80073de:	4607      	mov	r7, r0
 80073e0:	9b01      	ldr	r3, [sp, #4]
 80073e2:	4631      	mov	r1, r6
 80073e4:	3b01      	subs	r3, #1
 80073e6:	4658      	mov	r0, fp
 80073e8:	9302      	str	r3, [sp, #8]
 80073ea:	f7ff fa67 	bl	80068bc <quorem>
 80073ee:	4603      	mov	r3, r0
 80073f0:	3330      	adds	r3, #48	; 0x30
 80073f2:	9004      	str	r0, [sp, #16]
 80073f4:	4641      	mov	r1, r8
 80073f6:	4658      	mov	r0, fp
 80073f8:	9308      	str	r3, [sp, #32]
 80073fa:	f000 fb71 	bl	8007ae0 <__mcmp>
 80073fe:	463a      	mov	r2, r7
 8007400:	4681      	mov	r9, r0
 8007402:	4631      	mov	r1, r6
 8007404:	4620      	mov	r0, r4
 8007406:	f000 fb87 	bl	8007b18 <__mdiff>
 800740a:	68c2      	ldr	r2, [r0, #12]
 800740c:	9b08      	ldr	r3, [sp, #32]
 800740e:	4605      	mov	r5, r0
 8007410:	bb02      	cbnz	r2, 8007454 <_dtoa_r+0xa7c>
 8007412:	4601      	mov	r1, r0
 8007414:	4658      	mov	r0, fp
 8007416:	f000 fb63 	bl	8007ae0 <__mcmp>
 800741a:	9b08      	ldr	r3, [sp, #32]
 800741c:	4602      	mov	r2, r0
 800741e:	4629      	mov	r1, r5
 8007420:	4620      	mov	r0, r4
 8007422:	e9cd 3208 	strd	r3, r2, [sp, #32]
 8007426:	f000 f91d 	bl	8007664 <_Bfree>
 800742a:	9b05      	ldr	r3, [sp, #20]
 800742c:	9a09      	ldr	r2, [sp, #36]	; 0x24
 800742e:	9d01      	ldr	r5, [sp, #4]
 8007430:	ea43 0102 	orr.w	r1, r3, r2
 8007434:	9b06      	ldr	r3, [sp, #24]
 8007436:	430b      	orrs	r3, r1
 8007438:	9b08      	ldr	r3, [sp, #32]
 800743a:	d10d      	bne.n	8007458 <_dtoa_r+0xa80>
 800743c:	2b39      	cmp	r3, #57	; 0x39
 800743e:	d029      	beq.n	8007494 <_dtoa_r+0xabc>
 8007440:	f1b9 0f00 	cmp.w	r9, #0
 8007444:	dd01      	ble.n	800744a <_dtoa_r+0xa72>
 8007446:	9b04      	ldr	r3, [sp, #16]
 8007448:	3331      	adds	r3, #49	; 0x31
 800744a:	9a02      	ldr	r2, [sp, #8]
 800744c:	7013      	strb	r3, [r2, #0]
 800744e:	e774      	b.n	800733a <_dtoa_r+0x962>
 8007450:	4638      	mov	r0, r7
 8007452:	e7b9      	b.n	80073c8 <_dtoa_r+0x9f0>
 8007454:	2201      	movs	r2, #1
 8007456:	e7e2      	b.n	800741e <_dtoa_r+0xa46>
 8007458:	f1b9 0f00 	cmp.w	r9, #0
 800745c:	db06      	blt.n	800746c <_dtoa_r+0xa94>
 800745e:	9905      	ldr	r1, [sp, #20]
 8007460:	ea41 0909 	orr.w	r9, r1, r9
 8007464:	9906      	ldr	r1, [sp, #24]
 8007466:	ea59 0101 	orrs.w	r1, r9, r1
 800746a:	d120      	bne.n	80074ae <_dtoa_r+0xad6>
 800746c:	2a00      	cmp	r2, #0
 800746e:	ddec      	ble.n	800744a <_dtoa_r+0xa72>
 8007470:	4659      	mov	r1, fp
 8007472:	2201      	movs	r2, #1
 8007474:	4620      	mov	r0, r4
 8007476:	9301      	str	r3, [sp, #4]
 8007478:	f000 fac6 	bl	8007a08 <__lshift>
 800747c:	4631      	mov	r1, r6
 800747e:	4683      	mov	fp, r0
 8007480:	f000 fb2e 	bl	8007ae0 <__mcmp>
 8007484:	2800      	cmp	r0, #0
 8007486:	9b01      	ldr	r3, [sp, #4]
 8007488:	dc02      	bgt.n	8007490 <_dtoa_r+0xab8>
 800748a:	d1de      	bne.n	800744a <_dtoa_r+0xa72>
 800748c:	07da      	lsls	r2, r3, #31
 800748e:	d5dc      	bpl.n	800744a <_dtoa_r+0xa72>
 8007490:	2b39      	cmp	r3, #57	; 0x39
 8007492:	d1d8      	bne.n	8007446 <_dtoa_r+0xa6e>
 8007494:	9a02      	ldr	r2, [sp, #8]
 8007496:	2339      	movs	r3, #57	; 0x39
 8007498:	7013      	strb	r3, [r2, #0]
 800749a:	462b      	mov	r3, r5
 800749c:	461d      	mov	r5, r3
 800749e:	3b01      	subs	r3, #1
 80074a0:	f815 2c01 	ldrb.w	r2, [r5, #-1]
 80074a4:	2a39      	cmp	r2, #57	; 0x39
 80074a6:	d050      	beq.n	800754a <_dtoa_r+0xb72>
 80074a8:	3201      	adds	r2, #1
 80074aa:	701a      	strb	r2, [r3, #0]
 80074ac:	e745      	b.n	800733a <_dtoa_r+0x962>
 80074ae:	2a00      	cmp	r2, #0
 80074b0:	dd03      	ble.n	80074ba <_dtoa_r+0xae2>
 80074b2:	2b39      	cmp	r3, #57	; 0x39
 80074b4:	d0ee      	beq.n	8007494 <_dtoa_r+0xabc>
 80074b6:	3301      	adds	r3, #1
 80074b8:	e7c7      	b.n	800744a <_dtoa_r+0xa72>
 80074ba:	9a01      	ldr	r2, [sp, #4]
 80074bc:	9907      	ldr	r1, [sp, #28]
 80074be:	f802 3c01 	strb.w	r3, [r2, #-1]
 80074c2:	428a      	cmp	r2, r1
 80074c4:	d02a      	beq.n	800751c <_dtoa_r+0xb44>
 80074c6:	4659      	mov	r1, fp
 80074c8:	2300      	movs	r3, #0
 80074ca:	220a      	movs	r2, #10
 80074cc:	4620      	mov	r0, r4
 80074ce:	f000 f8eb 	bl	80076a8 <__multadd>
 80074d2:	45b8      	cmp	r8, r7
 80074d4:	4683      	mov	fp, r0
 80074d6:	f04f 0300 	mov.w	r3, #0
 80074da:	f04f 020a 	mov.w	r2, #10
 80074de:	4641      	mov	r1, r8
 80074e0:	4620      	mov	r0, r4
 80074e2:	d107      	bne.n	80074f4 <_dtoa_r+0xb1c>
 80074e4:	f000 f8e0 	bl	80076a8 <__multadd>
 80074e8:	4680      	mov	r8, r0
 80074ea:	4607      	mov	r7, r0
 80074ec:	9b01      	ldr	r3, [sp, #4]
 80074ee:	3301      	adds	r3, #1
 80074f0:	9301      	str	r3, [sp, #4]
 80074f2:	e775      	b.n	80073e0 <_dtoa_r+0xa08>
 80074f4:	f000 f8d8 	bl	80076a8 <__multadd>
 80074f8:	4639      	mov	r1, r7
 80074fa:	4680      	mov	r8, r0
 80074fc:	2300      	movs	r3, #0
 80074fe:	220a      	movs	r2, #10
 8007500:	4620      	mov	r0, r4
 8007502:	f000 f8d1 	bl	80076a8 <__multadd>
 8007506:	4607      	mov	r7, r0
 8007508:	e7f0      	b.n	80074ec <_dtoa_r+0xb14>
 800750a:	f1b9 0f00 	cmp.w	r9, #0
 800750e:	9a00      	ldr	r2, [sp, #0]
 8007510:	bfcc      	ite	gt
 8007512:	464d      	movgt	r5, r9
 8007514:	2501      	movle	r5, #1
 8007516:	4415      	add	r5, r2
 8007518:	f04f 0800 	mov.w	r8, #0
 800751c:	4659      	mov	r1, fp
 800751e:	2201      	movs	r2, #1
 8007520:	4620      	mov	r0, r4
 8007522:	9301      	str	r3, [sp, #4]
 8007524:	f000 fa70 	bl	8007a08 <__lshift>
 8007528:	4631      	mov	r1, r6
 800752a:	4683      	mov	fp, r0
 800752c:	f000 fad8 	bl	8007ae0 <__mcmp>
 8007530:	2800      	cmp	r0, #0
 8007532:	dcb2      	bgt.n	800749a <_dtoa_r+0xac2>
 8007534:	d102      	bne.n	800753c <_dtoa_r+0xb64>
 8007536:	9b01      	ldr	r3, [sp, #4]
 8007538:	07db      	lsls	r3, r3, #31
 800753a:	d4ae      	bmi.n	800749a <_dtoa_r+0xac2>
 800753c:	462b      	mov	r3, r5
 800753e:	461d      	mov	r5, r3
 8007540:	f813 2d01 	ldrb.w	r2, [r3, #-1]!
 8007544:	2a30      	cmp	r2, #48	; 0x30
 8007546:	d0fa      	beq.n	800753e <_dtoa_r+0xb66>
 8007548:	e6f7      	b.n	800733a <_dtoa_r+0x962>
 800754a:	9a00      	ldr	r2, [sp, #0]
 800754c:	429a      	cmp	r2, r3
 800754e:	d1a5      	bne.n	800749c <_dtoa_r+0xac4>
 8007550:	f10a 0a01 	add.w	sl, sl, #1
 8007554:	2331      	movs	r3, #49	; 0x31
 8007556:	e779      	b.n	800744c <_dtoa_r+0xa74>
 8007558:	4b13      	ldr	r3, [pc, #76]	; (80075a8 <_dtoa_r+0xbd0>)
 800755a:	f7ff baaf 	b.w	8006abc <_dtoa_r+0xe4>
 800755e:	9b21      	ldr	r3, [sp, #132]	; 0x84
 8007560:	2b00      	cmp	r3, #0
 8007562:	f47f aa86 	bne.w	8006a72 <_dtoa_r+0x9a>
 8007566:	4b11      	ldr	r3, [pc, #68]	; (80075ac <_dtoa_r+0xbd4>)
 8007568:	f7ff baa8 	b.w	8006abc <_dtoa_r+0xe4>
 800756c:	f1b9 0f00 	cmp.w	r9, #0
 8007570:	dc03      	bgt.n	800757a <_dtoa_r+0xba2>
 8007572:	9b05      	ldr	r3, [sp, #20]
 8007574:	2b02      	cmp	r3, #2
 8007576:	f73f aec9 	bgt.w	800730c <_dtoa_r+0x934>
 800757a:	9d00      	ldr	r5, [sp, #0]
 800757c:	4631      	mov	r1, r6
 800757e:	4658      	mov	r0, fp
 8007580:	f7ff f99c 	bl	80068bc <quorem>
 8007584:	f100 0330 	add.w	r3, r0, #48	; 0x30
 8007588:	f805 3b01 	strb.w	r3, [r5], #1
 800758c:	9a00      	ldr	r2, [sp, #0]
 800758e:	1aaa      	subs	r2, r5, r2
 8007590:	4591      	cmp	r9, r2
 8007592:	ddba      	ble.n	800750a <_dtoa_r+0xb32>
 8007594:	4659      	mov	r1, fp
 8007596:	2300      	movs	r3, #0
 8007598:	220a      	movs	r2, #10
 800759a:	4620      	mov	r0, r4
 800759c:	f000 f884 	bl	80076a8 <__multadd>
 80075a0:	4683      	mov	fp, r0
 80075a2:	e7eb      	b.n	800757c <_dtoa_r+0xba4>
 80075a4:	08008e4b 	.word	0x08008e4b
 80075a8:	08008da4 	.word	0x08008da4
 80075ac:	08008dc8 	.word	0x08008dc8

080075b0 <_localeconv_r>:
 80075b0:	4800      	ldr	r0, [pc, #0]	; (80075b4 <_localeconv_r+0x4>)
 80075b2:	4770      	bx	lr
 80075b4:	2000017c 	.word	0x2000017c

080075b8 <malloc>:
 80075b8:	4b02      	ldr	r3, [pc, #8]	; (80075c4 <malloc+0xc>)
 80075ba:	4601      	mov	r1, r0
 80075bc:	6818      	ldr	r0, [r3, #0]
 80075be:	f000 bbef 	b.w	8007da0 <_malloc_r>
 80075c2:	bf00      	nop
 80075c4:	20000028 	.word	0x20000028

080075c8 <memcpy>:
 80075c8:	440a      	add	r2, r1
 80075ca:	4291      	cmp	r1, r2
 80075cc:	f100 33ff 	add.w	r3, r0, #4294967295	; 0xffffffff
 80075d0:	d100      	bne.n	80075d4 <memcpy+0xc>
 80075d2:	4770      	bx	lr
 80075d4:	b510      	push	{r4, lr}
 80075d6:	f811 4b01 	ldrb.w	r4, [r1], #1
 80075da:	f803 4f01 	strb.w	r4, [r3, #1]!
 80075de:	4291      	cmp	r1, r2
 80075e0:	d1f9      	bne.n	80075d6 <memcpy+0xe>
 80075e2:	bd10      	pop	{r4, pc}

080075e4 <_Balloc>:
 80075e4:	b570      	push	{r4, r5, r6, lr}
 80075e6:	6a46      	ldr	r6, [r0, #36]	; 0x24
 80075e8:	4604      	mov	r4, r0
 80075ea:	460d      	mov	r5, r1
 80075ec:	b976      	cbnz	r6, 800760c <_Balloc+0x28>
 80075ee:	2010      	movs	r0, #16
 80075f0:	f7ff ffe2 	bl	80075b8 <malloc>
 80075f4:	4602      	mov	r2, r0
 80075f6:	6260      	str	r0, [r4, #36]	; 0x24
 80075f8:	b920      	cbnz	r0, 8007604 <_Balloc+0x20>
 80075fa:	4b18      	ldr	r3, [pc, #96]	; (800765c <_Balloc+0x78>)
 80075fc:	4818      	ldr	r0, [pc, #96]	; (8007660 <_Balloc+0x7c>)
 80075fe:	2166      	movs	r1, #102	; 0x66
 8007600:	f000 fd94 	bl	800812c <__assert_func>
 8007604:	e9c0 6601 	strd	r6, r6, [r0, #4]
 8007608:	6006      	str	r6, [r0, #0]
 800760a:	60c6      	str	r6, [r0, #12]
 800760c:	6a66      	ldr	r6, [r4, #36]	; 0x24
 800760e:	68f3      	ldr	r3, [r6, #12]
 8007610:	b183      	cbz	r3, 8007634 <_Balloc+0x50>
 8007612:	6a63      	ldr	r3, [r4, #36]	; 0x24
 8007614:	68db      	ldr	r3, [r3, #12]
 8007616:	f853 0025 	ldr.w	r0, [r3, r5, lsl #2]
 800761a:	b9b8      	cbnz	r0, 800764c <_Balloc+0x68>
 800761c:	2101      	movs	r1, #1
 800761e:	fa01 f605 	lsl.w	r6, r1, r5
 8007622:	1d72      	adds	r2, r6, #5
 8007624:	0092      	lsls	r2, r2, #2
 8007626:	4620      	mov	r0, r4
 8007628:	f000 fb5a 	bl	8007ce0 <_calloc_r>
 800762c:	b160      	cbz	r0, 8007648 <_Balloc+0x64>
 800762e:	e9c0 5601 	strd	r5, r6, [r0, #4]
 8007632:	e00e      	b.n	8007652 <_Balloc+0x6e>
 8007634:	2221      	movs	r2, #33	; 0x21
 8007636:	2104      	movs	r1, #4
 8007638:	4620      	mov	r0, r4
 800763a:	f000 fb51 	bl	8007ce0 <_calloc_r>
 800763e:	6a63      	ldr	r3, [r4, #36]	; 0x24
 8007640:	60f0      	str	r0, [r6, #12]
 8007642:	68db      	ldr	r3, [r3, #12]
 8007644:	2b00      	cmp	r3, #0
 8007646:	d1e4      	bne.n	8007612 <_Balloc+0x2e>
 8007648:	2000      	movs	r0, #0
 800764a:	bd70      	pop	{r4, r5, r6, pc}
 800764c:	6802      	ldr	r2, [r0, #0]
 800764e:	f843 2025 	str.w	r2, [r3, r5, lsl #2]
 8007652:	2300      	movs	r3, #0
 8007654:	e9c0 3303 	strd	r3, r3, [r0, #12]
 8007658:	e7f7      	b.n	800764a <_Balloc+0x66>
 800765a:	bf00      	nop
 800765c:	08008dd5 	.word	0x08008dd5
 8007660:	08008e5c 	.word	0x08008e5c

08007664 <_Bfree>:
 8007664:	b570      	push	{r4, r5, r6, lr}
 8007666:	6a46      	ldr	r6, [r0, #36]	; 0x24
 8007668:	4605      	mov	r5, r0
 800766a:	460c      	mov	r4, r1
 800766c:	b976      	cbnz	r6, 800768c <_Bfree+0x28>
 800766e:	2010      	movs	r0, #16
 8007670:	f7ff ffa2 	bl	80075b8 <malloc>
 8007674:	4602      	mov	r2, r0
 8007676:	6268      	str	r0, [r5, #36]	; 0x24
 8007678:	b920      	cbnz	r0, 8007684 <_Bfree+0x20>
 800767a:	4b09      	ldr	r3, [pc, #36]	; (80076a0 <_Bfree+0x3c>)
 800767c:	4809      	ldr	r0, [pc, #36]	; (80076a4 <_Bfree+0x40>)
 800767e:	218a      	movs	r1, #138	; 0x8a
 8007680:	f000 fd54 	bl	800812c <__assert_func>
 8007684:	e9c0 6601 	strd	r6, r6, [r0, #4]
 8007688:	6006      	str	r6, [r0, #0]
 800768a:	60c6      	str	r6, [r0, #12]
 800768c:	b13c      	cbz	r4, 800769e <_Bfree+0x3a>
 800768e:	6a6b      	ldr	r3, [r5, #36]	; 0x24
 8007690:	6862      	ldr	r2, [r4, #4]
 8007692:	68db      	ldr	r3, [r3, #12]
 8007694:	f853 1022 	ldr.w	r1, [r3, r2, lsl #2]
 8007698:	6021      	str	r1, [r4, #0]
 800769a:	f843 4022 	str.w	r4, [r3, r2, lsl #2]
 800769e:	bd70      	pop	{r4, r5, r6, pc}
 80076a0:	08008dd5 	.word	0x08008dd5
 80076a4:	08008e5c 	.word	0x08008e5c

080076a8 <__multadd>:
 80076a8:	e92d 41f0 	stmdb	sp!, {r4, r5, r6, r7, r8, lr}
 80076ac:	690e      	ldr	r6, [r1, #16]
 80076ae:	4607      	mov	r7, r0
 80076b0:	4698      	mov	r8, r3
 80076b2:	460c      	mov	r4, r1
 80076b4:	f101 0014 	add.w	r0, r1, #20
 80076b8:	2300      	movs	r3, #0
 80076ba:	6805      	ldr	r5, [r0, #0]
 80076bc:	b2a9      	uxth	r1, r5
 80076be:	fb02 8101 	mla	r1, r2, r1, r8
 80076c2:	ea4f 4c11 	mov.w	ip, r1, lsr #16
 80076c6:	0c2d      	lsrs	r5, r5, #16
 80076c8:	fb02 c505 	mla	r5, r2, r5, ip
 80076cc:	b289      	uxth	r1, r1
 80076ce:	3301      	adds	r3, #1
 80076d0:	eb01 4105 	add.w	r1, r1, r5, lsl #16
 80076d4:	429e      	cmp	r6, r3
 80076d6:	f840 1b04 	str.w	r1, [r0], #4
 80076da:	ea4f 4815 	mov.w	r8, r5, lsr #16
 80076de:	dcec      	bgt.n	80076ba <__multadd+0x12>
 80076e0:	f1b8 0f00 	cmp.w	r8, #0
 80076e4:	d022      	beq.n	800772c <__multadd+0x84>
 80076e6:	68a3      	ldr	r3, [r4, #8]
 80076e8:	42b3      	cmp	r3, r6
 80076ea:	dc19      	bgt.n	8007720 <__multadd+0x78>
 80076ec:	6861      	ldr	r1, [r4, #4]
 80076ee:	4638      	mov	r0, r7
 80076f0:	3101      	adds	r1, #1
 80076f2:	f7ff ff77 	bl	80075e4 <_Balloc>
 80076f6:	4605      	mov	r5, r0
 80076f8:	b928      	cbnz	r0, 8007706 <__multadd+0x5e>
 80076fa:	4602      	mov	r2, r0
 80076fc:	4b0d      	ldr	r3, [pc, #52]	; (8007734 <__multadd+0x8c>)
 80076fe:	480e      	ldr	r0, [pc, #56]	; (8007738 <__multadd+0x90>)
 8007700:	21b5      	movs	r1, #181	; 0xb5
 8007702:	f000 fd13 	bl	800812c <__assert_func>
 8007706:	6922      	ldr	r2, [r4, #16]
 8007708:	3202      	adds	r2, #2
 800770a:	f104 010c 	add.w	r1, r4, #12
 800770e:	0092      	lsls	r2, r2, #2
 8007710:	300c      	adds	r0, #12
 8007712:	f7ff ff59 	bl	80075c8 <memcpy>
 8007716:	4621      	mov	r1, r4
 8007718:	4638      	mov	r0, r7
 800771a:	f7ff ffa3 	bl	8007664 <_Bfree>
 800771e:	462c      	mov	r4, r5
 8007720:	eb04 0386 	add.w	r3, r4, r6, lsl #2
 8007724:	3601      	adds	r6, #1
 8007726:	f8c3 8014 	str.w	r8, [r3, #20]
 800772a:	6126      	str	r6, [r4, #16]
 800772c:	4620      	mov	r0, r4
 800772e:	e8bd 81f0 	ldmia.w	sp!, {r4, r5, r6, r7, r8, pc}
 8007732:	bf00      	nop
 8007734:	08008e4b 	.word	0x08008e4b
 8007738:	08008e5c 	.word	0x08008e5c

0800773c <__hi0bits>:
 800773c:	0c03      	lsrs	r3, r0, #16
 800773e:	041b      	lsls	r3, r3, #16
 8007740:	b9d3      	cbnz	r3, 8007778 <__hi0bits+0x3c>
 8007742:	0400      	lsls	r0, r0, #16
 8007744:	2310      	movs	r3, #16
 8007746:	f010 4f7f 	tst.w	r0, #4278190080	; 0xff000000
 800774a:	bf04      	itt	eq
 800774c:	0200      	lsleq	r0, r0, #8
 800774e:	3308      	addeq	r3, #8
 8007750:	f010 4f70 	tst.w	r0, #4026531840	; 0xf0000000
 8007754:	bf04      	itt	eq
 8007756:	0100      	lsleq	r0, r0, #4
 8007758:	3304      	addeq	r3, #4
 800775a:	f010 4f40 	tst.w	r0, #3221225472	; 0xc0000000
 800775e:	bf04      	itt	eq
 8007760:	0080      	lsleq	r0, r0, #2
 8007762:	3302      	addeq	r3, #2
 8007764:	2800      	cmp	r0, #0
 8007766:	db05      	blt.n	8007774 <__hi0bits+0x38>
 8007768:	f010 4f80 	tst.w	r0, #1073741824	; 0x40000000
 800776c:	f103 0301 	add.w	r3, r3, #1
 8007770:	bf08      	it	eq
 8007772:	2320      	moveq	r3, #32
 8007774:	4618      	mov	r0, r3
 8007776:	4770      	bx	lr
 8007778:	2300      	movs	r3, #0
 800777a:	e7e4      	b.n	8007746 <__hi0bits+0xa>

0800777c <__lo0bits>:
 800777c:	6803      	ldr	r3, [r0, #0]
 800777e:	f013 0207 	ands.w	r2, r3, #7
 8007782:	4601      	mov	r1, r0
 8007784:	d00b      	beq.n	800779e <__lo0bits+0x22>
 8007786:	07da      	lsls	r2, r3, #31
 8007788:	d424      	bmi.n	80077d4 <__lo0bits+0x58>
 800778a:	0798      	lsls	r0, r3, #30
 800778c:	bf49      	itett	mi
 800778e:	085b      	lsrmi	r3, r3, #1
 8007790:	089b      	lsrpl	r3, r3, #2
 8007792:	2001      	movmi	r0, #1
 8007794:	600b      	strmi	r3, [r1, #0]
 8007796:	bf5c      	itt	pl
 8007798:	600b      	strpl	r3, [r1, #0]
 800779a:	2002      	movpl	r0, #2
 800779c:	4770      	bx	lr
 800779e:	b298      	uxth	r0, r3
 80077a0:	b9b0      	cbnz	r0, 80077d0 <__lo0bits+0x54>
 80077a2:	0c1b      	lsrs	r3, r3, #16
 80077a4:	2010      	movs	r0, #16
 80077a6:	f013 0fff 	tst.w	r3, #255	; 0xff
 80077aa:	bf04      	itt	eq
 80077ac:	0a1b      	lsreq	r3, r3, #8
 80077ae:	3008      	addeq	r0, #8
 80077b0:	071a      	lsls	r2, r3, #28
 80077b2:	bf04      	itt	eq
 80077b4:	091b      	lsreq	r3, r3, #4
 80077b6:	3004      	addeq	r0, #4
 80077b8:	079a      	lsls	r2, r3, #30
 80077ba:	bf04      	itt	eq
 80077bc:	089b      	lsreq	r3, r3, #2
 80077be:	3002      	addeq	r0, #2
 80077c0:	07da      	lsls	r2, r3, #31
 80077c2:	d403      	bmi.n	80077cc <__lo0bits+0x50>
 80077c4:	085b      	lsrs	r3, r3, #1
 80077c6:	f100 0001 	add.w	r0, r0, #1
 80077ca:	d005      	beq.n	80077d8 <__lo0bits+0x5c>
 80077cc:	600b      	str	r3, [r1, #0]
 80077ce:	4770      	bx	lr
 80077d0:	4610      	mov	r0, r2
 80077d2:	e7e8      	b.n	80077a6 <__lo0bits+0x2a>
 80077d4:	2000      	movs	r0, #0
 80077d6:	4770      	bx	lr
 80077d8:	2020      	movs	r0, #32
 80077da:	4770      	bx	lr

080077dc <__i2b>:
 80077dc:	b510      	push	{r4, lr}
 80077de:	460c      	mov	r4, r1
 80077e0:	2101      	movs	r1, #1
 80077e2:	f7ff feff 	bl	80075e4 <_Balloc>
 80077e6:	4602      	mov	r2, r0
 80077e8:	b928      	cbnz	r0, 80077f6 <__i2b+0x1a>
 80077ea:	4b05      	ldr	r3, [pc, #20]	; (8007800 <__i2b+0x24>)
 80077ec:	4805      	ldr	r0, [pc, #20]	; (8007804 <__i2b+0x28>)
 80077ee:	f44f 71a0 	mov.w	r1, #320	; 0x140
 80077f2:	f000 fc9b 	bl	800812c <__assert_func>
 80077f6:	2301      	movs	r3, #1
 80077f8:	6144      	str	r4, [r0, #20]
 80077fa:	6103      	str	r3, [r0, #16]
 80077fc:	bd10      	pop	{r4, pc}
 80077fe:	bf00      	nop
 8007800:	08008e4b 	.word	0x08008e4b
 8007804:	08008e5c 	.word	0x08008e5c

08007808 <__multiply>:
 8007808:	e92d 4ff0 	stmdb	sp!, {r4, r5, r6, r7, r8, r9, sl, fp, lr}
 800780c:	4614      	mov	r4, r2
 800780e:	690a      	ldr	r2, [r1, #16]
 8007810:	6923      	ldr	r3, [r4, #16]
 8007812:	429a      	cmp	r2, r3
 8007814:	bfb8      	it	lt
 8007816:	460b      	movlt	r3, r1
 8007818:	460d      	mov	r5, r1
 800781a:	bfbc      	itt	lt
 800781c:	4625      	movlt	r5, r4
 800781e:	461c      	movlt	r4, r3
 8007820:	f8d5 a010 	ldr.w	sl, [r5, #16]
 8007824:	f8d4 9010 	ldr.w	r9, [r4, #16]
 8007828:	68ab      	ldr	r3, [r5, #8]
 800782a:	6869      	ldr	r1, [r5, #4]
 800782c:	eb0a 0709 	add.w	r7, sl, r9
 8007830:	42bb      	cmp	r3, r7
 8007832:	b085      	sub	sp, #20
 8007834:	bfb8      	it	lt
 8007836:	3101      	addlt	r1, #1
 8007838:	f7ff fed4 	bl	80075e4 <_Balloc>
 800783c:	b930      	cbnz	r0, 800784c <__multiply+0x44>
 800783e:	4602      	mov	r2, r0
 8007840:	4b42      	ldr	r3, [pc, #264]	; (800794c <__multiply+0x144>)
 8007842:	4843      	ldr	r0, [pc, #268]	; (8007950 <__multiply+0x148>)
 8007844:	f240 115d 	movw	r1, #349	; 0x15d
 8007848:	f000 fc70 	bl	800812c <__assert_func>
 800784c:	f100 0614 	add.w	r6, r0, #20
 8007850:	eb06 0887 	add.w	r8, r6, r7, lsl #2
 8007854:	4633      	mov	r3, r6
 8007856:	2200      	movs	r2, #0
 8007858:	4543      	cmp	r3, r8
 800785a:	d31e      	bcc.n	800789a <__multiply+0x92>
 800785c:	f105 0c14 	add.w	ip, r5, #20
 8007860:	f104 0314 	add.w	r3, r4, #20
 8007864:	eb0c 0c8a 	add.w	ip, ip, sl, lsl #2
 8007868:	eb03 0289 	add.w	r2, r3, r9, lsl #2
 800786c:	9202      	str	r2, [sp, #8]
 800786e:	ebac 0205 	sub.w	r2, ip, r5
 8007872:	3a15      	subs	r2, #21
 8007874:	f022 0203 	bic.w	r2, r2, #3
 8007878:	3204      	adds	r2, #4
 800787a:	f105 0115 	add.w	r1, r5, #21
 800787e:	458c      	cmp	ip, r1
 8007880:	bf38      	it	cc
 8007882:	2204      	movcc	r2, #4
 8007884:	9201      	str	r2, [sp, #4]
 8007886:	9a02      	ldr	r2, [sp, #8]
 8007888:	9303      	str	r3, [sp, #12]
 800788a:	429a      	cmp	r2, r3
 800788c:	d808      	bhi.n	80078a0 <__multiply+0x98>
 800788e:	2f00      	cmp	r7, #0
 8007890:	dc55      	bgt.n	800793e <__multiply+0x136>
 8007892:	6107      	str	r7, [r0, #16]
 8007894:	b005      	add	sp, #20
 8007896:	e8bd 8ff0 	ldmia.w	sp!, {r4, r5, r6, r7, r8, r9, sl, fp, pc}
 800789a:	f843 2b04 	str.w	r2, [r3], #4
 800789e:	e7db      	b.n	8007858 <__multiply+0x50>
 80078a0:	f8b3 a000 	ldrh.w	sl, [r3]
 80078a4:	f1ba 0f00 	cmp.w	sl, #0
 80078a8:	d020      	beq.n	80078ec <__multiply+0xe4>
 80078aa:	f105 0e14 	add.w	lr, r5, #20
 80078ae:	46b1      	mov	r9, r6
 80078b0:	2200      	movs	r2, #0
 80078b2:	f85e 4b04 	ldr.w	r4, [lr], #4
 80078b6:	f8d9 b000 	ldr.w	fp, [r9]
 80078ba:	b2a1      	uxth	r1, r4
 80078bc:	fa1f fb8b 	uxth.w	fp, fp
 80078c0:	fb0a b101 	mla	r1, sl, r1, fp
 80078c4:	4411      	add	r1, r2
 80078c6:	f8d9 2000 	ldr.w	r2, [r9]
 80078ca:	0c24      	lsrs	r4, r4, #16
 80078cc:	0c12      	lsrs	r2, r2, #16
 80078ce:	fb0a 2404 	mla	r4, sl, r4, r2
 80078d2:	eb04 4411 	add.w	r4, r4, r1, lsr #16
 80078d6:	b289      	uxth	r1, r1
 80078d8:	ea41 4104 	orr.w	r1, r1, r4, lsl #16
 80078dc:	45f4      	cmp	ip, lr
 80078de:	f849 1b04 	str.w	r1, [r9], #4
 80078e2:	ea4f 4214 	mov.w	r2, r4, lsr #16
 80078e6:	d8e4      	bhi.n	80078b2 <__multiply+0xaa>
 80078e8:	9901      	ldr	r1, [sp, #4]
 80078ea:	5072      	str	r2, [r6, r1]
 80078ec:	9a03      	ldr	r2, [sp, #12]
 80078ee:	f8b2 9002 	ldrh.w	r9, [r2, #2]
 80078f2:	3304      	adds	r3, #4
 80078f4:	f1b9 0f00 	cmp.w	r9, #0
 80078f8:	d01f      	beq.n	800793a <__multiply+0x132>
 80078fa:	6834      	ldr	r4, [r6, #0]
 80078fc:	f105 0114 	add.w	r1, r5, #20
 8007900:	46b6      	mov	lr, r6
 8007902:	f04f 0a00 	mov.w	sl, #0
 8007906:	880a      	ldrh	r2, [r1, #0]
 8007908:	f8be b002 	ldrh.w	fp, [lr, #2]
 800790c:	fb09 b202 	mla	r2, r9, r2, fp
 8007910:	4492      	add	sl, r2
 8007912:	b2a4      	uxth	r4, r4
 8007914:	ea44 440a 	orr.w	r4, r4, sl, lsl #16
 8007918:	f84e 4b04 	str.w	r4, [lr], #4
 800791c:	f851 4b04 	ldr.w	r4, [r1], #4
 8007920:	f8be 2000 	ldrh.w	r2, [lr]
 8007924:	0c24      	lsrs	r4, r4, #16
 8007926:	fb09 2404 	mla	r4, r9, r4, r2
 800792a:	eb04 441a 	add.w	r4, r4, sl, lsr #16
 800792e:	458c      	cmp	ip, r1
 8007930:	ea4f 4a14 	mov.w	sl, r4, lsr #16
 8007934:	d8e7      	bhi.n	8007906 <__multiply+0xfe>
 8007936:	9a01      	ldr	r2, [sp, #4]
 8007938:	50b4      	str	r4, [r6, r2]
 800793a:	3604      	adds	r6, #4
 800793c:	e7a3      	b.n	8007886 <__multiply+0x7e>
 800793e:	f858 3d04 	ldr.w	r3, [r8, #-4]!
 8007942:	2b00      	cmp	r3, #0
 8007944:	d1a5      	bne.n	8007892 <__multiply+0x8a>
 8007946:	3f01      	subs	r7, #1
 8007948:	e7a1      	b.n	800788e <__multiply+0x86>
 800794a:	bf00      	nop
 800794c:	08008e4b 	.word	0x08008e4b
 8007950:	08008e5c 	.word	0x08008e5c

08007954 <__pow5mult>:
 8007954:	e92d 43f8 	stmdb	sp!, {r3, r4, r5, r6, r7, r8, r9, lr}
 8007958:	4615      	mov	r5, r2
 800795a:	f012 0203 	ands.w	r2, r2, #3
 800795e:	4606      	mov	r6, r0
 8007960:	460f      	mov	r7, r1
 8007962:	d007      	beq.n	8007974 <__pow5mult+0x20>
 8007964:	4c25      	ldr	r4, [pc, #148]	; (80079fc <__pow5mult+0xa8>)
 8007966:	3a01      	subs	r2, #1
 8007968:	2300      	movs	r3, #0
 800796a:	f854 2022 	ldr.w	r2, [r4, r2, lsl #2]
 800796e:	f7ff fe9b 	bl	80076a8 <__multadd>
 8007972:	4607      	mov	r7, r0
 8007974:	10ad      	asrs	r5, r5, #2
 8007976:	d03d      	beq.n	80079f4 <__pow5mult+0xa0>
 8007978:	6a74      	ldr	r4, [r6, #36]	; 0x24
 800797a:	b97c      	cbnz	r4, 800799c <__pow5mult+0x48>
 800797c:	2010      	movs	r0, #16
 800797e:	f7ff fe1b 	bl	80075b8 <malloc>
 8007982:	4602      	mov	r2, r0
 8007984:	6270      	str	r0, [r6, #36]	; 0x24
 8007986:	b928      	cbnz	r0, 8007994 <__pow5mult+0x40>
 8007988:	4b1d      	ldr	r3, [pc, #116]	; (8007a00 <__pow5mult+0xac>)
 800798a:	481e      	ldr	r0, [pc, #120]	; (8007a04 <__pow5mult+0xb0>)
 800798c:	f44f 71d7 	mov.w	r1, #430	; 0x1ae
 8007990:	f000 fbcc 	bl	800812c <__assert_func>
 8007994:	e9c0 4401 	strd	r4, r4, [r0, #4]
 8007998:	6004      	str	r4, [r0, #0]
 800799a:	60c4      	str	r4, [r0, #12]
 800799c:	f8d6 8024 	ldr.w	r8, [r6, #36]	; 0x24
 80079a0:	f8d8 4008 	ldr.w	r4, [r8, #8]
 80079a4:	b94c      	cbnz	r4, 80079ba <__pow5mult+0x66>
 80079a6:	f240 2171 	movw	r1, #625	; 0x271
 80079aa:	4630      	mov	r0, r6
 80079ac:	f7ff ff16 	bl	80077dc <__i2b>
 80079b0:	2300      	movs	r3, #0
 80079b2:	f8c8 0008 	str.w	r0, [r8, #8]
 80079b6:	4604      	mov	r4, r0
 80079b8:	6003      	str	r3, [r0, #0]
 80079ba:	f04f 0900 	mov.w	r9, #0
 80079be:	07eb      	lsls	r3, r5, #31
 80079c0:	d50a      	bpl.n	80079d8 <__pow5mult+0x84>
 80079c2:	4639      	mov	r1, r7
 80079c4:	4622      	mov	r2, r4
 80079c6:	4630      	mov	r0, r6
 80079c8:	f7ff ff1e 	bl	8007808 <__multiply>
 80079cc:	4639      	mov	r1, r7
 80079ce:	4680      	mov	r8, r0
 80079d0:	4630      	mov	r0, r6
 80079d2:	f7ff fe47 	bl	8007664 <_Bfree>
 80079d6:	4647      	mov	r7, r8
 80079d8:	106d      	asrs	r5, r5, #1
 80079da:	d00b      	beq.n	80079f4 <__pow5mult+0xa0>
 80079dc:	6820      	ldr	r0, [r4, #0]
 80079de:	b938      	cbnz	r0, 80079f0 <__pow5mult+0x9c>
 80079e0:	4622      	mov	r2, r4
 80079e2:	4621      	mov	r1, r4
 80079e4:	4630      	mov	r0, r6
 80079e6:	f7ff ff0f 	bl	8007808 <__multiply>
 80079ea:	6020      	str	r0, [r4, #0]
 80079ec:	f8c0 9000 	str.w	r9, [r0]
 80079f0:	4604      	mov	r4, r0
 80079f2:	e7e4      	b.n	80079be <__pow5mult+0x6a>
 80079f4:	4638      	mov	r0, r7
 80079f6:	e8bd 83f8 	ldmia.w	sp!, {r3, r4, r5, r6, r7, r8, r9, pc}
 80079fa:	bf00      	nop
 80079fc:	08008fb0 	.word	0x08008fb0
 8007a00:	08008dd5 	.word	0x08008dd5
 8007a04:	08008e5c 	.word	0x08008e5c

08007a08 <__lshift>:
 8007a08:	e92d 47f0 	stmdb	sp!, {r4, r5, r6, r7, r8, r9, sl, lr}
 8007a0c:	460c      	mov	r4, r1
 8007a0e:	6849      	ldr	r1, [r1, #4]
 8007a10:	6923      	ldr	r3, [r4, #16]
 8007a12:	eb03 1862 	add.w	r8, r3, r2, asr #5
 8007a16:	68a3      	ldr	r3, [r4, #8]
 8007a18:	4607      	mov	r7, r0
 8007a1a:	4691      	mov	r9, r2
 8007a1c:	ea4f 1a62 	mov.w	sl, r2, asr #5
 8007a20:	f108 0601 	add.w	r6, r8, #1
 8007a24:	42b3      	cmp	r3, r6
 8007a26:	db0b      	blt.n	8007a40 <__lshift+0x38>
 8007a28:	4638      	mov	r0, r7
 8007a2a:	f7ff fddb 	bl	80075e4 <_Balloc>
 8007a2e:	4605      	mov	r5, r0
 8007a30:	b948      	cbnz	r0, 8007a46 <__lshift+0x3e>
 8007a32:	4602      	mov	r2, r0
 8007a34:	4b28      	ldr	r3, [pc, #160]	; (8007ad8 <__lshift+0xd0>)
 8007a36:	4829      	ldr	r0, [pc, #164]	; (8007adc <__lshift+0xd4>)
 8007a38:	f240 11d9 	movw	r1, #473	; 0x1d9
 8007a3c:	f000 fb76 	bl	800812c <__assert_func>
 8007a40:	3101      	adds	r1, #1
 8007a42:	005b      	lsls	r3, r3, #1
 8007a44:	e7ee      	b.n	8007a24 <__lshift+0x1c>
 8007a46:	2300      	movs	r3, #0
 8007a48:	f100 0114 	add.w	r1, r0, #20
 8007a4c:	f100 0210 	add.w	r2, r0, #16
 8007a50:	4618      	mov	r0, r3
 8007a52:	4553      	cmp	r3, sl
 8007a54:	db33      	blt.n	8007abe <__lshift+0xb6>
 8007a56:	6920      	ldr	r0, [r4, #16]
 8007a58:	ea2a 7aea 	bic.w	sl, sl, sl, asr #31
 8007a5c:	f104 0314 	add.w	r3, r4, #20
 8007a60:	f019 091f 	ands.w	r9, r9, #31
 8007a64:	eb01 018a 	add.w	r1, r1, sl, lsl #2
 8007a68:	eb03 0c80 	add.w	ip, r3, r0, lsl #2
 8007a6c:	d02b      	beq.n	8007ac6 <__lshift+0xbe>
 8007a6e:	f1c9 0e20 	rsb	lr, r9, #32
 8007a72:	468a      	mov	sl, r1
 8007a74:	2200      	movs	r2, #0
 8007a76:	6818      	ldr	r0, [r3, #0]
 8007a78:	fa00 f009 	lsl.w	r0, r0, r9
 8007a7c:	4302      	orrs	r2, r0
 8007a7e:	f84a 2b04 	str.w	r2, [sl], #4
 8007a82:	f853 2b04 	ldr.w	r2, [r3], #4
 8007a86:	459c      	cmp	ip, r3
 8007a88:	fa22 f20e 	lsr.w	r2, r2, lr
 8007a8c:	d8f3      	bhi.n	8007a76 <__lshift+0x6e>
 8007a8e:	ebac 0304 	sub.w	r3, ip, r4
 8007a92:	3b15      	subs	r3, #21
 8007a94:	f023 0303 	bic.w	r3, r3, #3
 8007a98:	3304      	adds	r3, #4
 8007a9a:	f104 0015 	add.w	r0, r4, #21
 8007a9e:	4584      	cmp	ip, r0
 8007aa0:	bf38      	it	cc
 8007aa2:	2304      	movcc	r3, #4
 8007aa4:	50ca      	str	r2, [r1, r3]
 8007aa6:	b10a      	cbz	r2, 8007aac <__lshift+0xa4>
 8007aa8:	f108 0602 	add.w	r6, r8, #2
 8007aac:	3e01      	subs	r6, #1
 8007aae:	4638      	mov	r0, r7
 8007ab0:	612e      	str	r6, [r5, #16]
 8007ab2:	4621      	mov	r1, r4
 8007ab4:	f7ff fdd6 	bl	8007664 <_Bfree>
 8007ab8:	4628      	mov	r0, r5
 8007aba:	e8bd 87f0 	ldmia.w	sp!, {r4, r5, r6, r7, r8, r9, sl, pc}
 8007abe:	f842 0f04 	str.w	r0, [r2, #4]!
 8007ac2:	3301      	adds	r3, #1
 8007ac4:	e7c5      	b.n	8007a52 <__lshift+0x4a>
 8007ac6:	3904      	subs	r1, #4
 8007ac8:	f853 2b04 	ldr.w	r2, [r3], #4
 8007acc:	f841 2f04 	str.w	r2, [r1, #4]!
 8007ad0:	459c      	cmp	ip, r3
 8007ad2:	d8f9      	bhi.n	8007ac8 <__lshift+0xc0>
 8007ad4:	e7ea      	b.n	8007aac <__lshift+0xa4>
 8007ad6:	bf00      	nop
 8007ad8:	08008e4b 	.word	0x08008e4b
 8007adc:	08008e5c 	.word	0x08008e5c

08007ae0 <__mcmp>:
 8007ae0:	b530      	push	{r4, r5, lr}
 8007ae2:	6902      	ldr	r2, [r0, #16]
 8007ae4:	690c      	ldr	r4, [r1, #16]
 8007ae6:	1b12      	subs	r2, r2, r4
 8007ae8:	d10e      	bne.n	8007b08 <__mcmp+0x28>
 8007aea:	f100 0314 	add.w	r3, r0, #20
 8007aee:	3114      	adds	r1, #20
 8007af0:	eb03 0084 	add.w	r0, r3, r4, lsl #2
 8007af4:	eb01 0184 	add.w	r1, r1, r4, lsl #2
 8007af8:	f850 5d04 	ldr.w	r5, [r0, #-4]!
 8007afc:	f851 4d04 	ldr.w	r4, [r1, #-4]!
 8007b00:	42a5      	cmp	r5, r4
 8007b02:	d003      	beq.n	8007b0c <__mcmp+0x2c>
 8007b04:	d305      	bcc.n	8007b12 <__mcmp+0x32>
 8007b06:	2201      	movs	r2, #1
 8007b08:	4610      	mov	r0, r2
 8007b0a:	bd30      	pop	{r4, r5, pc}
 8007b0c:	4283      	cmp	r3, r0
 8007b0e:	d3f3      	bcc.n	8007af8 <__mcmp+0x18>
 8007b10:	e7fa      	b.n	8007b08 <__mcmp+0x28>
 8007b12:	f04f 32ff 	mov.w	r2, #4294967295	; 0xffffffff
 8007b16:	e7f7      	b.n	8007b08 <__mcmp+0x28>

08007b18 <__mdiff>:
 8007b18:	e92d 4ff8 	stmdb	sp!, {r3, r4, r5, r6, r7, r8, r9, sl, fp, lr}
 8007b1c:	460c      	mov	r4, r1
 8007b1e:	4606      	mov	r6, r0
 8007b20:	4611      	mov	r1, r2
 8007b22:	4620      	mov	r0, r4
 8007b24:	4617      	mov	r7, r2
 8007b26:	f7ff ffdb 	bl	8007ae0 <__mcmp>
 8007b2a:	1e05      	subs	r5, r0, #0
 8007b2c:	d110      	bne.n	8007b50 <__mdiff+0x38>
 8007b2e:	4629      	mov	r1, r5
 8007b30:	4630      	mov	r0, r6
 8007b32:	f7ff fd57 	bl	80075e4 <_Balloc>
 8007b36:	b930      	cbnz	r0, 8007b46 <__mdiff+0x2e>
 8007b38:	4b39      	ldr	r3, [pc, #228]	; (8007c20 <__mdiff+0x108>)
 8007b3a:	4602      	mov	r2, r0
 8007b3c:	f240 2132 	movw	r1, #562	; 0x232
 8007b40:	4838      	ldr	r0, [pc, #224]	; (8007c24 <__mdiff+0x10c>)
 8007b42:	f000 faf3 	bl	800812c <__assert_func>
 8007b46:	2301      	movs	r3, #1
 8007b48:	e9c0 3504 	strd	r3, r5, [r0, #16]
 8007b4c:	e8bd 8ff8 	ldmia.w	sp!, {r3, r4, r5, r6, r7, r8, r9, sl, fp, pc}
 8007b50:	bfa4      	itt	ge
 8007b52:	463b      	movge	r3, r7
 8007b54:	4627      	movge	r7, r4
 8007b56:	4630      	mov	r0, r6
 8007b58:	6879      	ldr	r1, [r7, #4]
 8007b5a:	bfa6      	itte	ge
 8007b5c:	461c      	movge	r4, r3
 8007b5e:	2500      	movge	r5, #0
 8007b60:	2501      	movlt	r5, #1
 8007b62:	f7ff fd3f 	bl	80075e4 <_Balloc>
 8007b66:	b920      	cbnz	r0, 8007b72 <__mdiff+0x5a>
 8007b68:	4b2d      	ldr	r3, [pc, #180]	; (8007c20 <__mdiff+0x108>)
 8007b6a:	4602      	mov	r2, r0
 8007b6c:	f44f 7110 	mov.w	r1, #576	; 0x240
 8007b70:	e7e6      	b.n	8007b40 <__mdiff+0x28>
 8007b72:	693e      	ldr	r6, [r7, #16]
 8007b74:	60c5      	str	r5, [r0, #12]
 8007b76:	6925      	ldr	r5, [r4, #16]
 8007b78:	f107 0114 	add.w	r1, r7, #20
 8007b7c:	f104 0914 	add.w	r9, r4, #20
 8007b80:	f100 0e14 	add.w	lr, r0, #20
 8007b84:	f107 0210 	add.w	r2, r7, #16
 8007b88:	eb01 0c86 	add.w	ip, r1, r6, lsl #2
 8007b8c:	eb09 0585 	add.w	r5, r9, r5, lsl #2
 8007b90:	46f2      	mov	sl, lr
 8007b92:	2700      	movs	r7, #0
 8007b94:	f859 3b04 	ldr.w	r3, [r9], #4
 8007b98:	f852 bf04 	ldr.w	fp, [r2, #4]!
 8007b9c:	fa1f f883 	uxth.w	r8, r3
 8007ba0:	fa17 f78b 	uxtah	r7, r7, fp
 8007ba4:	0c1b      	lsrs	r3, r3, #16
 8007ba6:	eba7 0808 	sub.w	r8, r7, r8
 8007baa:	ebc3 431b 	rsb	r3, r3, fp, lsr #16
 8007bae:	eb03 4328 	add.w	r3, r3, r8, asr #16
 8007bb2:	fa1f f888 	uxth.w	r8, r8
 8007bb6:	141f      	asrs	r7, r3, #16
 8007bb8:	454d      	cmp	r5, r9
 8007bba:	ea48 4303 	orr.w	r3, r8, r3, lsl #16
 8007bbe:	f84a 3b04 	str.w	r3, [sl], #4
 8007bc2:	d8e7      	bhi.n	8007b94 <__mdiff+0x7c>
 8007bc4:	1b2b      	subs	r3, r5, r4
 8007bc6:	3b15      	subs	r3, #21
 8007bc8:	f023 0303 	bic.w	r3, r3, #3
 8007bcc:	3304      	adds	r3, #4
 8007bce:	3415      	adds	r4, #21
 8007bd0:	42a5      	cmp	r5, r4
 8007bd2:	bf38      	it	cc
 8007bd4:	2304      	movcc	r3, #4
 8007bd6:	4419      	add	r1, r3
 8007bd8:	4473      	add	r3, lr
 8007bda:	469e      	mov	lr, r3
 8007bdc:	460d      	mov	r5, r1
 8007bde:	4565      	cmp	r5, ip
 8007be0:	d30e      	bcc.n	8007c00 <__mdiff+0xe8>
 8007be2:	f10c 0203 	add.w	r2, ip, #3
 8007be6:	1a52      	subs	r2, r2, r1
 8007be8:	f022 0203 	bic.w	r2, r2, #3
 8007bec:	3903      	subs	r1, #3
 8007bee:	458c      	cmp	ip, r1
 8007bf0:	bf38      	it	cc
 8007bf2:	2200      	movcc	r2, #0
 8007bf4:	441a      	add	r2, r3
 8007bf6:	f852 3d04 	ldr.w	r3, [r2, #-4]!
 8007bfa:	b17b      	cbz	r3, 8007c1c <__mdiff+0x104>
 8007bfc:	6106      	str	r6, [r0, #16]
 8007bfe:	e7a5      	b.n	8007b4c <__mdiff+0x34>
 8007c00:	f855 8b04 	ldr.w	r8, [r5], #4
 8007c04:	fa17 f488 	uxtah	r4, r7, r8
 8007c08:	1422      	asrs	r2, r4, #16
 8007c0a:	eb02 4218 	add.w	r2, r2, r8, lsr #16
 8007c0e:	b2a4      	uxth	r4, r4
 8007c10:	ea44 4402 	orr.w	r4, r4, r2, lsl #16
 8007c14:	f84e 4b04 	str.w	r4, [lr], #4
 8007c18:	1417      	asrs	r7, r2, #16
 8007c1a:	e7e0      	b.n	8007bde <__mdiff+0xc6>
 8007c1c:	3e01      	subs	r6, #1
 8007c1e:	e7ea      	b.n	8007bf6 <__mdiff+0xde>
 8007c20:	08008e4b 	.word	0x08008e4b
 8007c24:	08008e5c 	.word	0x08008e5c

08007c28 <__d2b>:
 8007c28:	e92d 43f7 	stmdb	sp!, {r0, r1, r2, r4, r5, r6, r7, r8, r9, lr}
 8007c2c:	4689      	mov	r9, r1
 8007c2e:	2101      	movs	r1, #1
 8007c30:	ec57 6b10 	vmov	r6, r7, d0
 8007c34:	4690      	mov	r8, r2
 8007c36:	f7ff fcd5 	bl	80075e4 <_Balloc>
 8007c3a:	4604      	mov	r4, r0
 8007c3c:	b930      	cbnz	r0, 8007c4c <__d2b+0x24>
 8007c3e:	4602      	mov	r2, r0
 8007c40:	4b25      	ldr	r3, [pc, #148]	; (8007cd8 <__d2b+0xb0>)
 8007c42:	4826      	ldr	r0, [pc, #152]	; (8007cdc <__d2b+0xb4>)
 8007c44:	f240 310a 	movw	r1, #778	; 0x30a
 8007c48:	f000 fa70 	bl	800812c <__assert_func>
 8007c4c:	f3c7 550a 	ubfx	r5, r7, #20, #11
 8007c50:	f3c7 0313 	ubfx	r3, r7, #0, #20
 8007c54:	bb35      	cbnz	r5, 8007ca4 <__d2b+0x7c>
 8007c56:	2e00      	cmp	r6, #0
 8007c58:	9301      	str	r3, [sp, #4]
 8007c5a:	d028      	beq.n	8007cae <__d2b+0x86>
 8007c5c:	4668      	mov	r0, sp
 8007c5e:	9600      	str	r6, [sp, #0]
 8007c60:	f7ff fd8c 	bl	800777c <__lo0bits>
 8007c64:	9900      	ldr	r1, [sp, #0]
 8007c66:	b300      	cbz	r0, 8007caa <__d2b+0x82>
 8007c68:	9a01      	ldr	r2, [sp, #4]
 8007c6a:	f1c0 0320 	rsb	r3, r0, #32
 8007c6e:	fa02 f303 	lsl.w	r3, r2, r3
 8007c72:	430b      	orrs	r3, r1
 8007c74:	40c2      	lsrs	r2, r0
 8007c76:	6163      	str	r3, [r4, #20]
 8007c78:	9201      	str	r2, [sp, #4]
 8007c7a:	9b01      	ldr	r3, [sp, #4]
 8007c7c:	61a3      	str	r3, [r4, #24]
 8007c7e:	2b00      	cmp	r3, #0
 8007c80:	bf14      	ite	ne
 8007c82:	2202      	movne	r2, #2
 8007c84:	2201      	moveq	r2, #1
 8007c86:	6122      	str	r2, [r4, #16]
 8007c88:	b1d5      	cbz	r5, 8007cc0 <__d2b+0x98>
 8007c8a:	f2a5 4533 	subw	r5, r5, #1075	; 0x433
 8007c8e:	4405      	add	r5, r0
 8007c90:	f8c9 5000 	str.w	r5, [r9]
 8007c94:	f1c0 0035 	rsb	r0, r0, #53	; 0x35
 8007c98:	f8c8 0000 	str.w	r0, [r8]
 8007c9c:	4620      	mov	r0, r4
 8007c9e:	b003      	add	sp, #12
 8007ca0:	e8bd 83f0 	ldmia.w	sp!, {r4, r5, r6, r7, r8, r9, pc}
 8007ca4:	f443 1380 	orr.w	r3, r3, #1048576	; 0x100000
 8007ca8:	e7d5      	b.n	8007c56 <__d2b+0x2e>
 8007caa:	6161      	str	r1, [r4, #20]
 8007cac:	e7e5      	b.n	8007c7a <__d2b+0x52>
 8007cae:	a801      	add	r0, sp, #4
 8007cb0:	f7ff fd64 	bl	800777c <__lo0bits>
 8007cb4:	9b01      	ldr	r3, [sp, #4]
 8007cb6:	6163      	str	r3, [r4, #20]
 8007cb8:	2201      	movs	r2, #1
 8007cba:	6122      	str	r2, [r4, #16]
 8007cbc:	3020      	adds	r0, #32
 8007cbe:	e7e3      	b.n	8007c88 <__d2b+0x60>
 8007cc0:	eb04 0382 	add.w	r3, r4, r2, lsl #2
 8007cc4:	f2a0 4032 	subw	r0, r0, #1074	; 0x432
 8007cc8:	f8c9 0000 	str.w	r0, [r9]
 8007ccc:	6918      	ldr	r0, [r3, #16]
 8007cce:	f7ff fd35 	bl	800773c <__hi0bits>
 8007cd2:	ebc0 1042 	rsb	r0, r0, r2, lsl #5
 8007cd6:	e7df      	b.n	8007c98 <__d2b+0x70>
 8007cd8:	08008e4b 	.word	0x08008e4b
 8007cdc:	08008e5c 	.word	0x08008e5c

08007ce0 <_calloc_r>:
 8007ce0:	b513      	push	{r0, r1, r4, lr}
 8007ce2:	434a      	muls	r2, r1
 8007ce4:	4611      	mov	r1, r2
 8007ce6:	9201      	str	r2, [sp, #4]
 8007ce8:	f000 f85a 	bl	8007da0 <_malloc_r>
 8007cec:	4604      	mov	r4, r0
 8007cee:	b118      	cbz	r0, 8007cf8 <_calloc_r+0x18>
 8007cf0:	9a01      	ldr	r2, [sp, #4]
 8007cf2:	2100      	movs	r1, #0
 8007cf4:	f7fe f950 	bl	8005f98 <memset>
 8007cf8:	4620      	mov	r0, r4
 8007cfa:	b002      	add	sp, #8
 8007cfc:	bd10      	pop	{r4, pc}
	...

08007d00 <_free_r>:
 8007d00:	b537      	push	{r0, r1, r2, r4, r5, lr}
 8007d02:	2900      	cmp	r1, #0
 8007d04:	d048      	beq.n	8007d98 <_free_r+0x98>
 8007d06:	f851 3c04 	ldr.w	r3, [r1, #-4]
 8007d0a:	9001      	str	r0, [sp, #4]
 8007d0c:	2b00      	cmp	r3, #0
 8007d0e:	f1a1 0404 	sub.w	r4, r1, #4
 8007d12:	bfb8      	it	lt
 8007d14:	18e4      	addlt	r4, r4, r3
 8007d16:	f000 fa65 	bl	80081e4 <__malloc_lock>
 8007d1a:	4a20      	ldr	r2, [pc, #128]	; (8007d9c <_free_r+0x9c>)
 8007d1c:	9801      	ldr	r0, [sp, #4]
 8007d1e:	6813      	ldr	r3, [r2, #0]
 8007d20:	4615      	mov	r5, r2
 8007d22:	b933      	cbnz	r3, 8007d32 <_free_r+0x32>
 8007d24:	6063      	str	r3, [r4, #4]
 8007d26:	6014      	str	r4, [r2, #0]
 8007d28:	b003      	add	sp, #12
 8007d2a:	e8bd 4030 	ldmia.w	sp!, {r4, r5, lr}
 8007d2e:	f000 ba5f 	b.w	80081f0 <__malloc_unlock>
 8007d32:	42a3      	cmp	r3, r4
 8007d34:	d90b      	bls.n	8007d4e <_free_r+0x4e>
 8007d36:	6821      	ldr	r1, [r4, #0]
 8007d38:	1862      	adds	r2, r4, r1
 8007d3a:	4293      	cmp	r3, r2
 8007d3c:	bf04      	itt	eq
 8007d3e:	681a      	ldreq	r2, [r3, #0]
 8007d40:	685b      	ldreq	r3, [r3, #4]
 8007d42:	6063      	str	r3, [r4, #4]
 8007d44:	bf04      	itt	eq
 8007d46:	1852      	addeq	r2, r2, r1
 8007d48:	6022      	streq	r2, [r4, #0]
 8007d4a:	602c      	str	r4, [r5, #0]
 8007d4c:	e7ec      	b.n	8007d28 <_free_r+0x28>
 8007d4e:	461a      	mov	r2, r3
 8007d50:	685b      	ldr	r3, [r3, #4]
 8007d52:	b10b      	cbz	r3, 8007d58 <_free_r+0x58>
 8007d54:	42a3      	cmp	r3, r4
 8007d56:	d9fa      	bls.n	8007d4e <_free_r+0x4e>
 8007d58:	6811      	ldr	r1, [r2, #0]
 8007d5a:	1855      	adds	r5, r2, r1
 8007d5c:	42a5      	cmp	r5, r4
 8007d5e:	d10b      	bne.n	8007d78 <_free_r+0x78>
 8007d60:	6824      	ldr	r4, [r4, #0]
 8007d62:	4421      	add	r1, r4
 8007d64:	1854      	adds	r4, r2, r1
 8007d66:	42a3      	cmp	r3, r4
 8007d68:	6011      	str	r1, [r2, #0]
 8007d6a:	d1dd      	bne.n	8007d28 <_free_r+0x28>
 8007d6c:	681c      	ldr	r4, [r3, #0]
 8007d6e:	685b      	ldr	r3, [r3, #4]
 8007d70:	6053      	str	r3, [r2, #4]
 8007d72:	4421      	add	r1, r4
 8007d74:	6011      	str	r1, [r2, #0]
 8007d76:	e7d7      	b.n	8007d28 <_free_r+0x28>
 8007d78:	d902      	bls.n	8007d80 <_free_r+0x80>
 8007d7a:	230c      	movs	r3, #12
 8007d7c:	6003      	str	r3, [r0, #0]
 8007d7e:	e7d3      	b.n	8007d28 <_free_r+0x28>
 8007d80:	6825      	ldr	r5, [r4, #0]
 8007d82:	1961      	adds	r1, r4, r5
 8007d84:	428b      	cmp	r3, r1
 8007d86:	bf04      	itt	eq
 8007d88:	6819      	ldreq	r1, [r3, #0]
 8007d8a:	685b      	ldreq	r3, [r3, #4]
 8007d8c:	6063      	str	r3, [r4, #4]
 8007d8e:	bf04      	itt	eq
 8007d90:	1949      	addeq	r1, r1, r5
 8007d92:	6021      	streq	r1, [r4, #0]
 8007d94:	6054      	str	r4, [r2, #4]
 8007d96:	e7c7      	b.n	8007d28 <_free_r+0x28>
 8007d98:	b003      	add	sp, #12
 8007d9a:	bd30      	pop	{r4, r5, pc}
 8007d9c:	200002bc 	.word	0x200002bc

08007da0 <_malloc_r>:
 8007da0:	b5f8      	push	{r3, r4, r5, r6, r7, lr}
 8007da2:	1ccd      	adds	r5, r1, #3
 8007da4:	f025 0503 	bic.w	r5, r5, #3
 8007da8:	3508      	adds	r5, #8
 8007daa:	2d0c      	cmp	r5, #12
 8007dac:	bf38      	it	cc
 8007dae:	250c      	movcc	r5, #12
 8007db0:	2d00      	cmp	r5, #0
 8007db2:	4606      	mov	r6, r0
 8007db4:	db01      	blt.n	8007dba <_malloc_r+0x1a>
 8007db6:	42a9      	cmp	r1, r5
 8007db8:	d903      	bls.n	8007dc2 <_malloc_r+0x22>
 8007dba:	230c      	movs	r3, #12
 8007dbc:	6033      	str	r3, [r6, #0]
 8007dbe:	2000      	movs	r0, #0
 8007dc0:	bdf8      	pop	{r3, r4, r5, r6, r7, pc}
 8007dc2:	f000 fa0f 	bl	80081e4 <__malloc_lock>
 8007dc6:	4921      	ldr	r1, [pc, #132]	; (8007e4c <_malloc_r+0xac>)
 8007dc8:	680a      	ldr	r2, [r1, #0]
 8007dca:	4614      	mov	r4, r2
 8007dcc:	b99c      	cbnz	r4, 8007df6 <_malloc_r+0x56>
 8007dce:	4f20      	ldr	r7, [pc, #128]	; (8007e50 <_malloc_r+0xb0>)
 8007dd0:	683b      	ldr	r3, [r7, #0]
 8007dd2:	b923      	cbnz	r3, 8007dde <_malloc_r+0x3e>
 8007dd4:	4621      	mov	r1, r4
 8007dd6:	4630      	mov	r0, r6
 8007dd8:	f000 f998 	bl	800810c <_sbrk_r>
 8007ddc:	6038      	str	r0, [r7, #0]
 8007dde:	4629      	mov	r1, r5
 8007de0:	4630      	mov	r0, r6
 8007de2:	f000 f993 	bl	800810c <_sbrk_r>
 8007de6:	1c43      	adds	r3, r0, #1
 8007de8:	d123      	bne.n	8007e32 <_malloc_r+0x92>
 8007dea:	230c      	movs	r3, #12
 8007dec:	6033      	str	r3, [r6, #0]
 8007dee:	4630      	mov	r0, r6
 8007df0:	f000 f9fe 	bl	80081f0 <__malloc_unlock>
 8007df4:	e7e3      	b.n	8007dbe <_malloc_r+0x1e>
 8007df6:	6823      	ldr	r3, [r4, #0]
 8007df8:	1b5b      	subs	r3, r3, r5
 8007dfa:	d417      	bmi.n	8007e2c <_malloc_r+0x8c>
 8007dfc:	2b0b      	cmp	r3, #11
 8007dfe:	d903      	bls.n	8007e08 <_malloc_r+0x68>
 8007e00:	6023      	str	r3, [r4, #0]
 8007e02:	441c      	add	r4, r3
 8007e04:	6025      	str	r5, [r4, #0]
 8007e06:	e004      	b.n	8007e12 <_malloc_r+0x72>
 8007e08:	6863      	ldr	r3, [r4, #4]
 8007e0a:	42a2      	cmp	r2, r4
 8007e0c:	bf0c      	ite	eq
 8007e0e:	600b      	streq	r3, [r1, #0]
 8007e10:	6053      	strne	r3, [r2, #4]
 8007e12:	4630      	mov	r0, r6
 8007e14:	f000 f9ec 	bl	80081f0 <__malloc_unlock>
 8007e18:	f104 000b 	add.w	r0, r4, #11
 8007e1c:	1d23      	adds	r3, r4, #4
 8007e1e:	f020 0007 	bic.w	r0, r0, #7
 8007e22:	1ac2      	subs	r2, r0, r3
 8007e24:	d0cc      	beq.n	8007dc0 <_malloc_r+0x20>
 8007e26:	1a1b      	subs	r3, r3, r0
 8007e28:	50a3      	str	r3, [r4, r2]
 8007e2a:	e7c9      	b.n	8007dc0 <_malloc_r+0x20>
 8007e2c:	4622      	mov	r2, r4
 8007e2e:	6864      	ldr	r4, [r4, #4]
 8007e30:	e7cc      	b.n	8007dcc <_malloc_r+0x2c>
 8007e32:	1cc4      	adds	r4, r0, #3
 8007e34:	f024 0403 	bic.w	r4, r4, #3
 8007e38:	42a0      	cmp	r0, r4
 8007e3a:	d0e3      	beq.n	8007e04 <_malloc_r+0x64>
 8007e3c:	1a21      	subs	r1, r4, r0
 8007e3e:	4630      	mov	r0, r6
 8007e40:	f000 f964 	bl	800810c <_sbrk_r>
 8007e44:	3001      	adds	r0, #1
 8007e46:	d1dd      	bne.n	8007e04 <_malloc_r+0x64>
 8007e48:	e7cf      	b.n	8007dea <_malloc_r+0x4a>
 8007e4a:	bf00      	nop
 8007e4c:	200002bc 	.word	0x200002bc
 8007e50:	200002c0 	.word	0x200002c0

08007e54 <__ssputs_r>:
 8007e54:	e92d 47f0 	stmdb	sp!, {r4, r5, r6, r7, r8, r9, sl, lr}
 8007e58:	688e      	ldr	r6, [r1, #8]
 8007e5a:	429e      	cmp	r6, r3
 8007e5c:	4682      	mov	sl, r0
 8007e5e:	460c      	mov	r4, r1
 8007e60:	4690      	mov	r8, r2
 8007e62:	461f      	mov	r7, r3
 8007e64:	d838      	bhi.n	8007ed8 <__ssputs_r+0x84>
 8007e66:	898a      	ldrh	r2, [r1, #12]
 8007e68:	f412 6f90 	tst.w	r2, #1152	; 0x480
 8007e6c:	d032      	beq.n	8007ed4 <__ssputs_r+0x80>
 8007e6e:	6825      	ldr	r5, [r4, #0]
 8007e70:	6909      	ldr	r1, [r1, #16]
 8007e72:	eba5 0901 	sub.w	r9, r5, r1
 8007e76:	6965      	ldr	r5, [r4, #20]
 8007e78:	eb05 0545 	add.w	r5, r5, r5, lsl #1
 8007e7c:	eb05 75d5 	add.w	r5, r5, r5, lsr #31
 8007e80:	3301      	adds	r3, #1
 8007e82:	444b      	add	r3, r9
 8007e84:	106d      	asrs	r5, r5, #1
 8007e86:	429d      	cmp	r5, r3
 8007e88:	bf38      	it	cc
 8007e8a:	461d      	movcc	r5, r3
 8007e8c:	0553      	lsls	r3, r2, #21
 8007e8e:	d531      	bpl.n	8007ef4 <__ssputs_r+0xa0>
 8007e90:	4629      	mov	r1, r5
 8007e92:	f7ff ff85 	bl	8007da0 <_malloc_r>
 8007e96:	4606      	mov	r6, r0
 8007e98:	b950      	cbnz	r0, 8007eb0 <__ssputs_r+0x5c>
 8007e9a:	230c      	movs	r3, #12
 8007e9c:	f8ca 3000 	str.w	r3, [sl]
 8007ea0:	89a3      	ldrh	r3, [r4, #12]
 8007ea2:	f043 0340 	orr.w	r3, r3, #64	; 0x40
 8007ea6:	81a3      	strh	r3, [r4, #12]
 8007ea8:	f04f 30ff 	mov.w	r0, #4294967295	; 0xffffffff
 8007eac:	e8bd 87f0 	ldmia.w	sp!, {r4, r5, r6, r7, r8, r9, sl, pc}
 8007eb0:	6921      	ldr	r1, [r4, #16]
 8007eb2:	464a      	mov	r2, r9
 8007eb4:	f7ff fb88 	bl	80075c8 <memcpy>
 8007eb8:	89a3      	ldrh	r3, [r4, #12]
 8007eba:	f423 6390 	bic.w	r3, r3, #1152	; 0x480
 8007ebe:	f043 0380 	orr.w	r3, r3, #128	; 0x80
 8007ec2:	81a3      	strh	r3, [r4, #12]
 8007ec4:	6126      	str	r6, [r4, #16]
 8007ec6:	6165      	str	r5, [r4, #20]
 8007ec8:	444e      	add	r6, r9
 8007eca:	eba5 0509 	sub.w	r5, r5, r9
 8007ece:	6026      	str	r6, [r4, #0]
 8007ed0:	60a5      	str	r5, [r4, #8]
 8007ed2:	463e      	mov	r6, r7
 8007ed4:	42be      	cmp	r6, r7
 8007ed6:	d900      	bls.n	8007eda <__ssputs_r+0x86>
 8007ed8:	463e      	mov	r6, r7
 8007eda:	4632      	mov	r2, r6
 8007edc:	6820      	ldr	r0, [r4, #0]
 8007ede:	4641      	mov	r1, r8
 8007ee0:	f000 f966 	bl	80081b0 <memmove>
 8007ee4:	68a3      	ldr	r3, [r4, #8]
 8007ee6:	6822      	ldr	r2, [r4, #0]
 8007ee8:	1b9b      	subs	r3, r3, r6
 8007eea:	4432      	add	r2, r6
 8007eec:	60a3      	str	r3, [r4, #8]
 8007eee:	6022      	str	r2, [r4, #0]
 8007ef0:	2000      	movs	r0, #0
 8007ef2:	e7db      	b.n	8007eac <__ssputs_r+0x58>
 8007ef4:	462a      	mov	r2, r5
 8007ef6:	f000 f981 	bl	80081fc <_realloc_r>
 8007efa:	4606      	mov	r6, r0
 8007efc:	2800      	cmp	r0, #0
 8007efe:	d1e1      	bne.n	8007ec4 <__ssputs_r+0x70>
 8007f00:	6921      	ldr	r1, [r4, #16]
 8007f02:	4650      	mov	r0, sl
 8007f04:	f7ff fefc 	bl	8007d00 <_free_r>
 8007f08:	e7c7      	b.n	8007e9a <__ssputs_r+0x46>
	...

08007f0c <_svfiprintf_r>:
 8007f0c:	e92d 4ff0 	stmdb	sp!, {r4, r5, r6, r7, r8, r9, sl, fp, lr}
 8007f10:	4698      	mov	r8, r3
 8007f12:	898b      	ldrh	r3, [r1, #12]
 8007f14:	061b      	lsls	r3, r3, #24
 8007f16:	b09d      	sub	sp, #116	; 0x74
 8007f18:	4607      	mov	r7, r0
 8007f1a:	460d      	mov	r5, r1
 8007f1c:	4614      	mov	r4, r2
 8007f1e:	d50e      	bpl.n	8007f3e <_svfiprintf_r+0x32>
 8007f20:	690b      	ldr	r3, [r1, #16]
 8007f22:	b963      	cbnz	r3, 8007f3e <_svfiprintf_r+0x32>
 8007f24:	2140      	movs	r1, #64	; 0x40
 8007f26:	f7ff ff3b 	bl	8007da0 <_malloc_r>
 8007f2a:	6028      	str	r0, [r5, #0]
 8007f2c:	6128      	str	r0, [r5, #16]
 8007f2e:	b920      	cbnz	r0, 8007f3a <_svfiprintf_r+0x2e>
 8007f30:	230c      	movs	r3, #12
 8007f32:	603b      	str	r3, [r7, #0]
 8007f34:	f04f 30ff 	mov.w	r0, #4294967295	; 0xffffffff
 8007f38:	e0d1      	b.n	80080de <_svfiprintf_r+0x1d2>
 8007f3a:	2340      	movs	r3, #64	; 0x40
 8007f3c:	616b      	str	r3, [r5, #20]
 8007f3e:	2300      	movs	r3, #0
 8007f40:	9309      	str	r3, [sp, #36]	; 0x24
 8007f42:	2320      	movs	r3, #32
 8007f44:	f88d 3029 	strb.w	r3, [sp, #41]	; 0x29
 8007f48:	f8cd 800c 	str.w	r8, [sp, #12]
 8007f4c:	2330      	movs	r3, #48	; 0x30
 8007f4e:	f8df 81a8 	ldr.w	r8, [pc, #424]	; 80080f8 <_svfiprintf_r+0x1ec>
 8007f52:	f88d 302a 	strb.w	r3, [sp, #42]	; 0x2a
 8007f56:	f04f 0901 	mov.w	r9, #1
 8007f5a:	4623      	mov	r3, r4
 8007f5c:	469a      	mov	sl, r3
 8007f5e:	f813 2b01 	ldrb.w	r2, [r3], #1
 8007f62:	b10a      	cbz	r2, 8007f68 <_svfiprintf_r+0x5c>
 8007f64:	2a25      	cmp	r2, #37	; 0x25
 8007f66:	d1f9      	bne.n	8007f5c <_svfiprintf_r+0x50>
 8007f68:	ebba 0b04 	subs.w	fp, sl, r4
 8007f6c:	d00b      	beq.n	8007f86 <_svfiprintf_r+0x7a>
 8007f6e:	465b      	mov	r3, fp
 8007f70:	4622      	mov	r2, r4
 8007f72:	4629      	mov	r1, r5
 8007f74:	4638      	mov	r0, r7
 8007f76:	f7ff ff6d 	bl	8007e54 <__ssputs_r>
 8007f7a:	3001      	adds	r0, #1
 8007f7c:	f000 80aa 	beq.w	80080d4 <_svfiprintf_r+0x1c8>
 8007f80:	9a09      	ldr	r2, [sp, #36]	; 0x24
 8007f82:	445a      	add	r2, fp
 8007f84:	9209      	str	r2, [sp, #36]	; 0x24
 8007f86:	f89a 3000 	ldrb.w	r3, [sl]
 8007f8a:	2b00      	cmp	r3, #0
 8007f8c:	f000 80a2 	beq.w	80080d4 <_svfiprintf_r+0x1c8>
 8007f90:	2300      	movs	r3, #0
 8007f92:	f04f 32ff 	mov.w	r2, #4294967295	; 0xffffffff
 8007f96:	e9cd 2305 	strd	r2, r3, [sp, #20]
 8007f9a:	f10a 0a01 	add.w	sl, sl, #1
 8007f9e:	9304      	str	r3, [sp, #16]
 8007fa0:	9307      	str	r3, [sp, #28]
 8007fa2:	f88d 3053 	strb.w	r3, [sp, #83]	; 0x53
 8007fa6:	931a      	str	r3, [sp, #104]	; 0x68
 8007fa8:	4654      	mov	r4, sl
 8007faa:	2205      	movs	r2, #5
 8007fac:	f814 1b01 	ldrb.w	r1, [r4], #1
 8007fb0:	4851      	ldr	r0, [pc, #324]	; (80080f8 <_svfiprintf_r+0x1ec>)
 8007fb2:	f7f8 f935 	bl	8000220 <memchr>
 8007fb6:	9a04      	ldr	r2, [sp, #16]
 8007fb8:	b9d8      	cbnz	r0, 8007ff2 <_svfiprintf_r+0xe6>
 8007fba:	06d0      	lsls	r0, r2, #27
 8007fbc:	bf44      	itt	mi
 8007fbe:	2320      	movmi	r3, #32
 8007fc0:	f88d 3053 	strbmi.w	r3, [sp, #83]	; 0x53
 8007fc4:	0711      	lsls	r1, r2, #28
 8007fc6:	bf44      	itt	mi
 8007fc8:	232b      	movmi	r3, #43	; 0x2b
 8007fca:	f88d 3053 	strbmi.w	r3, [sp, #83]	; 0x53
 8007fce:	f89a 3000 	ldrb.w	r3, [sl]
 8007fd2:	2b2a      	cmp	r3, #42	; 0x2a
 8007fd4:	d015      	beq.n	8008002 <_svfiprintf_r+0xf6>
 8007fd6:	9a07      	ldr	r2, [sp, #28]
 8007fd8:	4654      	mov	r4, sl
 8007fda:	2000      	movs	r0, #0
 8007fdc:	f04f 0c0a 	mov.w	ip, #10
 8007fe0:	4621      	mov	r1, r4
 8007fe2:	f811 3b01 	ldrb.w	r3, [r1], #1
 8007fe6:	3b30      	subs	r3, #48	; 0x30
 8007fe8:	2b09      	cmp	r3, #9
 8007fea:	d94e      	bls.n	800808a <_svfiprintf_r+0x17e>
 8007fec:	b1b0      	cbz	r0, 800801c <_svfiprintf_r+0x110>
 8007fee:	9207      	str	r2, [sp, #28]
 8007ff0:	e014      	b.n	800801c <_svfiprintf_r+0x110>
 8007ff2:	eba0 0308 	sub.w	r3, r0, r8
 8007ff6:	fa09 f303 	lsl.w	r3, r9, r3
 8007ffa:	4313      	orrs	r3, r2
 8007ffc:	9304      	str	r3, [sp, #16]
 8007ffe:	46a2      	mov	sl, r4
 8008000:	e7d2      	b.n	8007fa8 <_svfiprintf_r+0x9c>
 8008002:	9b03      	ldr	r3, [sp, #12]
 8008004:	1d19      	adds	r1, r3, #4
 8008006:	681b      	ldr	r3, [r3, #0]
 8008008:	9103      	str	r1, [sp, #12]
 800800a:	2b00      	cmp	r3, #0
 800800c:	bfbb      	ittet	lt
 800800e:	425b      	neglt	r3, r3
 8008010:	f042 0202 	orrlt.w	r2, r2, #2
 8008014:	9307      	strge	r3, [sp, #28]
 8008016:	9307      	strlt	r3, [sp, #28]
 8008018:	bfb8      	it	lt
 800801a:	9204      	strlt	r2, [sp, #16]
 800801c:	7823      	ldrb	r3, [r4, #0]
 800801e:	2b2e      	cmp	r3, #46	; 0x2e
 8008020:	d10c      	bne.n	800803c <_svfiprintf_r+0x130>
 8008022:	7863      	ldrb	r3, [r4, #1]
 8008024:	2b2a      	cmp	r3, #42	; 0x2a
 8008026:	d135      	bne.n	8008094 <_svfiprintf_r+0x188>
 8008028:	9b03      	ldr	r3, [sp, #12]
 800802a:	1d1a      	adds	r2, r3, #4
 800802c:	681b      	ldr	r3, [r3, #0]
 800802e:	9203      	str	r2, [sp, #12]
 8008030:	2b00      	cmp	r3, #0
 8008032:	bfb8      	it	lt
 8008034:	f04f 33ff 	movlt.w	r3, #4294967295	; 0xffffffff
 8008038:	3402      	adds	r4, #2
 800803a:	9305      	str	r3, [sp, #20]
 800803c:	f8df a0c8 	ldr.w	sl, [pc, #200]	; 8008108 <_svfiprintf_r+0x1fc>
 8008040:	7821      	ldrb	r1, [r4, #0]
 8008042:	2203      	movs	r2, #3
 8008044:	4650      	mov	r0, sl
 8008046:	f7f8 f8eb 	bl	8000220 <memchr>
 800804a:	b140      	cbz	r0, 800805e <_svfiprintf_r+0x152>
 800804c:	2340      	movs	r3, #64	; 0x40
 800804e:	eba0 000a 	sub.w	r0, r0, sl
 8008052:	fa03 f000 	lsl.w	r0, r3, r0
 8008056:	9b04      	ldr	r3, [sp, #16]
 8008058:	4303      	orrs	r3, r0
 800805a:	3401      	adds	r4, #1
 800805c:	9304      	str	r3, [sp, #16]
 800805e:	f814 1b01 	ldrb.w	r1, [r4], #1
 8008062:	4826      	ldr	r0, [pc, #152]	; (80080fc <_svfiprintf_r+0x1f0>)
 8008064:	f88d 1028 	strb.w	r1, [sp, #40]	; 0x28
 8008068:	2206      	movs	r2, #6
 800806a:	f7f8 f8d9 	bl	8000220 <memchr>
 800806e:	2800      	cmp	r0, #0
 8008070:	d038      	beq.n	80080e4 <_svfiprintf_r+0x1d8>
 8008072:	4b23      	ldr	r3, [pc, #140]	; (8008100 <_svfiprintf_r+0x1f4>)
 8008074:	bb1b      	cbnz	r3, 80080be <_svfiprintf_r+0x1b2>
 8008076:	9b03      	ldr	r3, [sp, #12]
 8008078:	3307      	adds	r3, #7
 800807a:	f023 0307 	bic.w	r3, r3, #7
 800807e:	3308      	adds	r3, #8
 8008080:	9303      	str	r3, [sp, #12]
 8008082:	9b09      	ldr	r3, [sp, #36]	; 0x24
 8008084:	4433      	add	r3, r6
 8008086:	9309      	str	r3, [sp, #36]	; 0x24
 8008088:	e767      	b.n	8007f5a <_svfiprintf_r+0x4e>
 800808a:	fb0c 3202 	mla	r2, ip, r2, r3
 800808e:	460c      	mov	r4, r1
 8008090:	2001      	movs	r0, #1
 8008092:	e7a5      	b.n	8007fe0 <_svfiprintf_r+0xd4>
 8008094:	2300      	movs	r3, #0
 8008096:	3401      	adds	r4, #1
 8008098:	9305      	str	r3, [sp, #20]
 800809a:	4619      	mov	r1, r3
 800809c:	f04f 0c0a 	mov.w	ip, #10
 80080a0:	4620      	mov	r0, r4
 80080a2:	f810 2b01 	ldrb.w	r2, [r0], #1
 80080a6:	3a30      	subs	r2, #48	; 0x30
 80080a8:	2a09      	cmp	r2, #9
 80080aa:	d903      	bls.n	80080b4 <_svfiprintf_r+0x1a8>
 80080ac:	2b00      	cmp	r3, #0
 80080ae:	d0c5      	beq.n	800803c <_svfiprintf_r+0x130>
 80080b0:	9105      	str	r1, [sp, #20]
 80080b2:	e7c3      	b.n	800803c <_svfiprintf_r+0x130>
 80080b4:	fb0c 2101 	mla	r1, ip, r1, r2
 80080b8:	4604      	mov	r4, r0
 80080ba:	2301      	movs	r3, #1
 80080bc:	e7f0      	b.n	80080a0 <_svfiprintf_r+0x194>
 80080be:	ab03      	add	r3, sp, #12
 80080c0:	9300      	str	r3, [sp, #0]
 80080c2:	462a      	mov	r2, r5
 80080c4:	4b0f      	ldr	r3, [pc, #60]	; (8008104 <_svfiprintf_r+0x1f8>)
 80080c6:	a904      	add	r1, sp, #16
 80080c8:	4638      	mov	r0, r7
 80080ca:	f7fe f80d 	bl	80060e8 <_printf_float>
 80080ce:	1c42      	adds	r2, r0, #1
 80080d0:	4606      	mov	r6, r0
 80080d2:	d1d6      	bne.n	8008082 <_svfiprintf_r+0x176>
 80080d4:	89ab      	ldrh	r3, [r5, #12]
 80080d6:	065b      	lsls	r3, r3, #25
 80080d8:	f53f af2c 	bmi.w	8007f34 <_svfiprintf_r+0x28>
 80080dc:	9809      	ldr	r0, [sp, #36]	; 0x24
 80080de:	b01d      	add	sp, #116	; 0x74
 80080e0:	e8bd 8ff0 	ldmia.w	sp!, {r4, r5, r6, r7, r8, r9, sl, fp, pc}
 80080e4:	ab03      	add	r3, sp, #12
 80080e6:	9300      	str	r3, [sp, #0]
 80080e8:	462a      	mov	r2, r5
 80080ea:	4b06      	ldr	r3, [pc, #24]	; (8008104 <_svfiprintf_r+0x1f8>)
 80080ec:	a904      	add	r1, sp, #16
 80080ee:	4638      	mov	r0, r7
 80080f0:	f7fe fa9e 	bl	8006630 <_printf_i>
 80080f4:	e7eb      	b.n	80080ce <_svfiprintf_r+0x1c2>
 80080f6:	bf00      	nop
 80080f8:	08008fbc 	.word	0x08008fbc
 80080fc:	08008fc6 	.word	0x08008fc6
 8008100:	080060e9 	.word	0x080060e9
 8008104:	08007e55 	.word	0x08007e55
 8008108:	08008fc2 	.word	0x08008fc2

0800810c <_sbrk_r>:
 800810c:	b538      	push	{r3, r4, r5, lr}
 800810e:	4d06      	ldr	r5, [pc, #24]	; (8008128 <_sbrk_r+0x1c>)
 8008110:	2300      	movs	r3, #0
 8008112:	4604      	mov	r4, r0
 8008114:	4608      	mov	r0, r1
 8008116:	602b      	str	r3, [r5, #0]
 8008118:	f7fa f9ac 	bl	8002474 <_sbrk>
 800811c:	1c43      	adds	r3, r0, #1
 800811e:	d102      	bne.n	8008126 <_sbrk_r+0x1a>
 8008120:	682b      	ldr	r3, [r5, #0]
 8008122:	b103      	cbz	r3, 8008126 <_sbrk_r+0x1a>
 8008124:	6023      	str	r3, [r4, #0]
 8008126:	bd38      	pop	{r3, r4, r5, pc}
 8008128:	2000054c 	.word	0x2000054c

0800812c <__assert_func>:
 800812c:	b51f      	push	{r0, r1, r2, r3, r4, lr}
 800812e:	4614      	mov	r4, r2
 8008130:	461a      	mov	r2, r3
 8008132:	4b09      	ldr	r3, [pc, #36]	; (8008158 <__assert_func+0x2c>)
 8008134:	681b      	ldr	r3, [r3, #0]
 8008136:	4605      	mov	r5, r0
 8008138:	68d8      	ldr	r0, [r3, #12]
 800813a:	b14c      	cbz	r4, 8008150 <__assert_func+0x24>
 800813c:	4b07      	ldr	r3, [pc, #28]	; (800815c <__assert_func+0x30>)
 800813e:	9100      	str	r1, [sp, #0]
 8008140:	e9cd 3401 	strd	r3, r4, [sp, #4]
 8008144:	4906      	ldr	r1, [pc, #24]	; (8008160 <__assert_func+0x34>)
 8008146:	462b      	mov	r3, r5
 8008148:	f000 f80e 	bl	8008168 <fiprintf>
 800814c:	f000 faa4 	bl	8008698 <abort>
 8008150:	4b04      	ldr	r3, [pc, #16]	; (8008164 <__assert_func+0x38>)
 8008152:	461c      	mov	r4, r3
 8008154:	e7f3      	b.n	800813e <__assert_func+0x12>
 8008156:	bf00      	nop
 8008158:	20000028 	.word	0x20000028
 800815c:	08008fcd 	.word	0x08008fcd
 8008160:	08008fda 	.word	0x08008fda
 8008164:	08009008 	.word	0x08009008

08008168 <fiprintf>:
 8008168:	b40e      	push	{r1, r2, r3}
 800816a:	b503      	push	{r0, r1, lr}
 800816c:	4601      	mov	r1, r0
 800816e:	ab03      	add	r3, sp, #12
 8008170:	4805      	ldr	r0, [pc, #20]	; (8008188 <fiprintf+0x20>)
 8008172:	f853 2b04 	ldr.w	r2, [r3], #4
 8008176:	6800      	ldr	r0, [r0, #0]
 8008178:	9301      	str	r3, [sp, #4]
 800817a:	f000 f88f 	bl	800829c <_vfiprintf_r>
 800817e:	b002      	add	sp, #8
 8008180:	f85d eb04 	ldr.w	lr, [sp], #4
 8008184:	b003      	add	sp, #12
 8008186:	4770      	bx	lr
 8008188:	20000028 	.word	0x20000028

0800818c <__ascii_mbtowc>:
 800818c:	b082      	sub	sp, #8
 800818e:	b901      	cbnz	r1, 8008192 <__ascii_mbtowc+0x6>
 8008190:	a901      	add	r1, sp, #4
 8008192:	b142      	cbz	r2, 80081a6 <__ascii_mbtowc+0x1a>
 8008194:	b14b      	cbz	r3, 80081aa <__ascii_mbtowc+0x1e>
 8008196:	7813      	ldrb	r3, [r2, #0]
 8008198:	600b      	str	r3, [r1, #0]
 800819a:	7812      	ldrb	r2, [r2, #0]
 800819c:	1e10      	subs	r0, r2, #0
 800819e:	bf18      	it	ne
 80081a0:	2001      	movne	r0, #1
 80081a2:	b002      	add	sp, #8
 80081a4:	4770      	bx	lr
 80081a6:	4610      	mov	r0, r2
 80081a8:	e7fb      	b.n	80081a2 <__ascii_mbtowc+0x16>
 80081aa:	f06f 0001 	mvn.w	r0, #1
 80081ae:	e7f8      	b.n	80081a2 <__ascii_mbtowc+0x16>

080081b0 <memmove>:
 80081b0:	4288      	cmp	r0, r1
 80081b2:	b510      	push	{r4, lr}
 80081b4:	eb01 0402 	add.w	r4, r1, r2
 80081b8:	d902      	bls.n	80081c0 <memmove+0x10>
 80081ba:	4284      	cmp	r4, r0
 80081bc:	4623      	mov	r3, r4
 80081be:	d807      	bhi.n	80081d0 <memmove+0x20>
 80081c0:	1e43      	subs	r3, r0, #1
 80081c2:	42a1      	cmp	r1, r4
 80081c4:	d008      	beq.n	80081d8 <memmove+0x28>
 80081c6:	f811 2b01 	ldrb.w	r2, [r1], #1
 80081ca:	f803 2f01 	strb.w	r2, [r3, #1]!
 80081ce:	e7f8      	b.n	80081c2 <memmove+0x12>
 80081d0:	4402      	add	r2, r0
 80081d2:	4601      	mov	r1, r0
 80081d4:	428a      	cmp	r2, r1
 80081d6:	d100      	bne.n	80081da <memmove+0x2a>
 80081d8:	bd10      	pop	{r4, pc}
 80081da:	f813 4d01 	ldrb.w	r4, [r3, #-1]!
 80081de:	f802 4d01 	strb.w	r4, [r2, #-1]!
 80081e2:	e7f7      	b.n	80081d4 <memmove+0x24>

080081e4 <__malloc_lock>:
 80081e4:	4801      	ldr	r0, [pc, #4]	; (80081ec <__malloc_lock+0x8>)
 80081e6:	f000 bc17 	b.w	8008a18 <__retarget_lock_acquire_recursive>
 80081ea:	bf00      	nop
 80081ec:	20000554 	.word	0x20000554

080081f0 <__malloc_unlock>:
 80081f0:	4801      	ldr	r0, [pc, #4]	; (80081f8 <__malloc_unlock+0x8>)
 80081f2:	f000 bc12 	b.w	8008a1a <__retarget_lock_release_recursive>
 80081f6:	bf00      	nop
 80081f8:	20000554 	.word	0x20000554

080081fc <_realloc_r>:
 80081fc:	b5f8      	push	{r3, r4, r5, r6, r7, lr}
 80081fe:	4607      	mov	r7, r0
 8008200:	4614      	mov	r4, r2
 8008202:	460e      	mov	r6, r1
 8008204:	b921      	cbnz	r1, 8008210 <_realloc_r+0x14>
 8008206:	e8bd 40f8 	ldmia.w	sp!, {r3, r4, r5, r6, r7, lr}
 800820a:	4611      	mov	r1, r2
 800820c:	f7ff bdc8 	b.w	8007da0 <_malloc_r>
 8008210:	b922      	cbnz	r2, 800821c <_realloc_r+0x20>
 8008212:	f7ff fd75 	bl	8007d00 <_free_r>
 8008216:	4625      	mov	r5, r4
 8008218:	4628      	mov	r0, r5
 800821a:	bdf8      	pop	{r3, r4, r5, r6, r7, pc}
 800821c:	f000 fc62 	bl	8008ae4 <_malloc_usable_size_r>
 8008220:	42a0      	cmp	r0, r4
 8008222:	d20f      	bcs.n	8008244 <_realloc_r+0x48>
 8008224:	4621      	mov	r1, r4
 8008226:	4638      	mov	r0, r7
 8008228:	f7ff fdba 	bl	8007da0 <_malloc_r>
 800822c:	4605      	mov	r5, r0
 800822e:	2800      	cmp	r0, #0
 8008230:	d0f2      	beq.n	8008218 <_realloc_r+0x1c>
 8008232:	4631      	mov	r1, r6
 8008234:	4622      	mov	r2, r4
 8008236:	f7ff f9c7 	bl	80075c8 <memcpy>
 800823a:	4631      	mov	r1, r6
 800823c:	4638      	mov	r0, r7
 800823e:	f7ff fd5f 	bl	8007d00 <_free_r>
 8008242:	e7e9      	b.n	8008218 <_realloc_r+0x1c>
 8008244:	4635      	mov	r5, r6
 8008246:	e7e7      	b.n	8008218 <_realloc_r+0x1c>

08008248 <__sfputc_r>:
 8008248:	6893      	ldr	r3, [r2, #8]
 800824a:	3b01      	subs	r3, #1
 800824c:	2b00      	cmp	r3, #0
 800824e:	b410      	push	{r4}
 8008250:	6093      	str	r3, [r2, #8]
 8008252:	da08      	bge.n	8008266 <__sfputc_r+0x1e>
 8008254:	6994      	ldr	r4, [r2, #24]
 8008256:	42a3      	cmp	r3, r4
 8008258:	db01      	blt.n	800825e <__sfputc_r+0x16>
 800825a:	290a      	cmp	r1, #10
 800825c:	d103      	bne.n	8008266 <__sfputc_r+0x1e>
 800825e:	f85d 4b04 	ldr.w	r4, [sp], #4
 8008262:	f000 b94b 	b.w	80084fc <__swbuf_r>
 8008266:	6813      	ldr	r3, [r2, #0]
 8008268:	1c58      	adds	r0, r3, #1
 800826a:	6010      	str	r0, [r2, #0]
 800826c:	7019      	strb	r1, [r3, #0]
 800826e:	4608      	mov	r0, r1
 8008270:	f85d 4b04 	ldr.w	r4, [sp], #4
 8008274:	4770      	bx	lr

08008276 <__sfputs_r>:
 8008276:	b5f8      	push	{r3, r4, r5, r6, r7, lr}
 8008278:	4606      	mov	r6, r0
 800827a:	460f      	mov	r7, r1
 800827c:	4614      	mov	r4, r2
 800827e:	18d5      	adds	r5, r2, r3
 8008280:	42ac      	cmp	r4, r5
 8008282:	d101      	bne.n	8008288 <__sfputs_r+0x12>
 8008284:	2000      	movs	r0, #0
 8008286:	e007      	b.n	8008298 <__sfputs_r+0x22>
 8008288:	f814 1b01 	ldrb.w	r1, [r4], #1
 800828c:	463a      	mov	r2, r7
 800828e:	4630      	mov	r0, r6
 8008290:	f7ff ffda 	bl	8008248 <__sfputc_r>
 8008294:	1c43      	adds	r3, r0, #1
 8008296:	d1f3      	bne.n	8008280 <__sfputs_r+0xa>
 8008298:	bdf8      	pop	{r3, r4, r5, r6, r7, pc}
	...

0800829c <_vfiprintf_r>:
 800829c:	e92d 4ff0 	stmdb	sp!, {r4, r5, r6, r7, r8, r9, sl, fp, lr}
 80082a0:	460d      	mov	r5, r1
 80082a2:	b09d      	sub	sp, #116	; 0x74
 80082a4:	4614      	mov	r4, r2
 80082a6:	4698      	mov	r8, r3
 80082a8:	4606      	mov	r6, r0
 80082aa:	b118      	cbz	r0, 80082b4 <_vfiprintf_r+0x18>
 80082ac:	6983      	ldr	r3, [r0, #24]
 80082ae:	b90b      	cbnz	r3, 80082b4 <_vfiprintf_r+0x18>
 80082b0:	f000 fb14 	bl	80088dc <__sinit>
 80082b4:	4b89      	ldr	r3, [pc, #548]	; (80084dc <_vfiprintf_r+0x240>)
 80082b6:	429d      	cmp	r5, r3
 80082b8:	d11b      	bne.n	80082f2 <_vfiprintf_r+0x56>
 80082ba:	6875      	ldr	r5, [r6, #4]
 80082bc:	6e6b      	ldr	r3, [r5, #100]	; 0x64
 80082be:	07d9      	lsls	r1, r3, #31
 80082c0:	d405      	bmi.n	80082ce <_vfiprintf_r+0x32>
 80082c2:	89ab      	ldrh	r3, [r5, #12]
 80082c4:	059a      	lsls	r2, r3, #22
 80082c6:	d402      	bmi.n	80082ce <_vfiprintf_r+0x32>
 80082c8:	6da8      	ldr	r0, [r5, #88]	; 0x58
 80082ca:	f000 fba5 	bl	8008a18 <__retarget_lock_acquire_recursive>
 80082ce:	89ab      	ldrh	r3, [r5, #12]
 80082d0:	071b      	lsls	r3, r3, #28
 80082d2:	d501      	bpl.n	80082d8 <_vfiprintf_r+0x3c>
 80082d4:	692b      	ldr	r3, [r5, #16]
 80082d6:	b9eb      	cbnz	r3, 8008314 <_vfiprintf_r+0x78>
 80082d8:	4629      	mov	r1, r5
 80082da:	4630      	mov	r0, r6
 80082dc:	f000 f96e 	bl	80085bc <__swsetup_r>
 80082e0:	b1c0      	cbz	r0, 8008314 <_vfiprintf_r+0x78>
 80082e2:	6e6b      	ldr	r3, [r5, #100]	; 0x64
 80082e4:	07dc      	lsls	r4, r3, #31
 80082e6:	d50e      	bpl.n	8008306 <_vfiprintf_r+0x6a>
 80082e8:	f04f 30ff 	mov.w	r0, #4294967295	; 0xffffffff
 80082ec:	b01d      	add	sp, #116	; 0x74
 80082ee:	e8bd 8ff0 	ldmia.w	sp!, {r4, r5, r6, r7, r8, r9, sl, fp, pc}
 80082f2:	4b7b      	ldr	r3, [pc, #492]	; (80084e0 <_vfiprintf_r+0x244>)
 80082f4:	429d      	cmp	r5, r3
 80082f6:	d101      	bne.n	80082fc <_vfiprintf_r+0x60>
 80082f8:	68b5      	ldr	r5, [r6, #8]
 80082fa:	e7df      	b.n	80082bc <_vfiprintf_r+0x20>
 80082fc:	4b79      	ldr	r3, [pc, #484]	; (80084e4 <_vfiprintf_r+0x248>)
 80082fe:	429d      	cmp	r5, r3
 8008300:	bf08      	it	eq
 8008302:	68f5      	ldreq	r5, [r6, #12]
 8008304:	e7da      	b.n	80082bc <_vfiprintf_r+0x20>
 8008306:	89ab      	ldrh	r3, [r5, #12]
 8008308:	0598      	lsls	r0, r3, #22
 800830a:	d4ed      	bmi.n	80082e8 <_vfiprintf_r+0x4c>
 800830c:	6da8      	ldr	r0, [r5, #88]	; 0x58
 800830e:	f000 fb84 	bl	8008a1a <__retarget_lock_release_recursive>
 8008312:	e7e9      	b.n	80082e8 <_vfiprintf_r+0x4c>
 8008314:	2300      	movs	r3, #0
 8008316:	9309      	str	r3, [sp, #36]	; 0x24
 8008318:	2320      	movs	r3, #32
 800831a:	f88d 3029 	strb.w	r3, [sp, #41]	; 0x29
 800831e:	f8cd 800c 	str.w	r8, [sp, #12]
 8008322:	2330      	movs	r3, #48	; 0x30
 8008324:	f8df 81c0 	ldr.w	r8, [pc, #448]	; 80084e8 <_vfiprintf_r+0x24c>
 8008328:	f88d 302a 	strb.w	r3, [sp, #42]	; 0x2a
 800832c:	f04f 0901 	mov.w	r9, #1
 8008330:	4623      	mov	r3, r4
 8008332:	469a      	mov	sl, r3
 8008334:	f813 2b01 	ldrb.w	r2, [r3], #1
 8008338:	b10a      	cbz	r2, 800833e <_vfiprintf_r+0xa2>
 800833a:	2a25      	cmp	r2, #37	; 0x25
 800833c:	d1f9      	bne.n	8008332 <_vfiprintf_r+0x96>
 800833e:	ebba 0b04 	subs.w	fp, sl, r4
 8008342:	d00b      	beq.n	800835c <_vfiprintf_r+0xc0>
 8008344:	465b      	mov	r3, fp
 8008346:	4622      	mov	r2, r4
 8008348:	4629      	mov	r1, r5
 800834a:	4630      	mov	r0, r6
 800834c:	f7ff ff93 	bl	8008276 <__sfputs_r>
 8008350:	3001      	adds	r0, #1
 8008352:	f000 80aa 	beq.w	80084aa <_vfiprintf_r+0x20e>
 8008356:	9a09      	ldr	r2, [sp, #36]	; 0x24
 8008358:	445a      	add	r2, fp
 800835a:	9209      	str	r2, [sp, #36]	; 0x24
 800835c:	f89a 3000 	ldrb.w	r3, [sl]
 8008360:	2b00      	cmp	r3, #0
 8008362:	f000 80a2 	beq.w	80084aa <_vfiprintf_r+0x20e>
 8008366:	2300      	movs	r3, #0
 8008368:	f04f 32ff 	mov.w	r2, #4294967295	; 0xffffffff
 800836c:	e9cd 2305 	strd	r2, r3, [sp, #20]
 8008370:	f10a 0a01 	add.w	sl, sl, #1
 8008374:	9304      	str	r3, [sp, #16]
 8008376:	9307      	str	r3, [sp, #28]
 8008378:	f88d 3053 	strb.w	r3, [sp, #83]	; 0x53
 800837c:	931a      	str	r3, [sp, #104]	; 0x68
 800837e:	4654      	mov	r4, sl
 8008380:	2205      	movs	r2, #5
 8008382:	f814 1b01 	ldrb.w	r1, [r4], #1
 8008386:	4858      	ldr	r0, [pc, #352]	; (80084e8 <_vfiprintf_r+0x24c>)
 8008388:	f7f7 ff4a 	bl	8000220 <memchr>
 800838c:	9a04      	ldr	r2, [sp, #16]
 800838e:	b9d8      	cbnz	r0, 80083c8 <_vfiprintf_r+0x12c>
 8008390:	06d1      	lsls	r1, r2, #27
 8008392:	bf44      	itt	mi
 8008394:	2320      	movmi	r3, #32
 8008396:	f88d 3053 	strbmi.w	r3, [sp, #83]	; 0x53
 800839a:	0713      	lsls	r3, r2, #28
 800839c:	bf44      	itt	mi
 800839e:	232b      	movmi	r3, #43	; 0x2b
 80083a0:	f88d 3053 	strbmi.w	r3, [sp, #83]	; 0x53
 80083a4:	f89a 3000 	ldrb.w	r3, [sl]
 80083a8:	2b2a      	cmp	r3, #42	; 0x2a
 80083aa:	d015      	beq.n	80083d8 <_vfiprintf_r+0x13c>
 80083ac:	9a07      	ldr	r2, [sp, #28]
 80083ae:	4654      	mov	r4, sl
 80083b0:	2000      	movs	r0, #0
 80083b2:	f04f 0c0a 	mov.w	ip, #10
 80083b6:	4621      	mov	r1, r4
 80083b8:	f811 3b01 	ldrb.w	r3, [r1], #1
 80083bc:	3b30      	subs	r3, #48	; 0x30
 80083be:	2b09      	cmp	r3, #9
 80083c0:	d94e      	bls.n	8008460 <_vfiprintf_r+0x1c4>
 80083c2:	b1b0      	cbz	r0, 80083f2 <_vfiprintf_r+0x156>
 80083c4:	9207      	str	r2, [sp, #28]
 80083c6:	e014      	b.n	80083f2 <_vfiprintf_r+0x156>
 80083c8:	eba0 0308 	sub.w	r3, r0, r8
 80083cc:	fa09 f303 	lsl.w	r3, r9, r3
 80083d0:	4313      	orrs	r3, r2
 80083d2:	9304      	str	r3, [sp, #16]
 80083d4:	46a2      	mov	sl, r4
 80083d6:	e7d2      	b.n	800837e <_vfiprintf_r+0xe2>
 80083d8:	9b03      	ldr	r3, [sp, #12]
 80083da:	1d19      	adds	r1, r3, #4
 80083dc:	681b      	ldr	r3, [r3, #0]
 80083de:	9103      	str	r1, [sp, #12]
 80083e0:	2b00      	cmp	r3, #0
 80083e2:	bfbb      	ittet	lt
 80083e4:	425b      	neglt	r3, r3
 80083e6:	f042 0202 	orrlt.w	r2, r2, #2
 80083ea:	9307      	strge	r3, [sp, #28]
 80083ec:	9307      	strlt	r3, [sp, #28]
 80083ee:	bfb8      	it	lt
 80083f0:	9204      	strlt	r2, [sp, #16]
 80083f2:	7823      	ldrb	r3, [r4, #0]
 80083f4:	2b2e      	cmp	r3, #46	; 0x2e
 80083f6:	d10c      	bne.n	8008412 <_vfiprintf_r+0x176>
 80083f8:	7863      	ldrb	r3, [r4, #1]
 80083fa:	2b2a      	cmp	r3, #42	; 0x2a
 80083fc:	d135      	bne.n	800846a <_vfiprintf_r+0x1ce>
 80083fe:	9b03      	ldr	r3, [sp, #12]
 8008400:	1d1a      	adds	r2, r3, #4
 8008402:	681b      	ldr	r3, [r3, #0]
 8008404:	9203      	str	r2, [sp, #12]
 8008406:	2b00      	cmp	r3, #0
 8008408:	bfb8      	it	lt
 800840a:	f04f 33ff 	movlt.w	r3, #4294967295	; 0xffffffff
 800840e:	3402      	adds	r4, #2
 8008410:	9305      	str	r3, [sp, #20]
 8008412:	f8df a0e4 	ldr.w	sl, [pc, #228]	; 80084f8 <_vfiprintf_r+0x25c>
 8008416:	7821      	ldrb	r1, [r4, #0]
 8008418:	2203      	movs	r2, #3
 800841a:	4650      	mov	r0, sl
 800841c:	f7f7 ff00 	bl	8000220 <memchr>
 8008420:	b140      	cbz	r0, 8008434 <_vfiprintf_r+0x198>
 8008422:	2340      	movs	r3, #64	; 0x40
 8008424:	eba0 000a 	sub.w	r0, r0, sl
 8008428:	fa03 f000 	lsl.w	r0, r3, r0
 800842c:	9b04      	ldr	r3, [sp, #16]
 800842e:	4303      	orrs	r3, r0
 8008430:	3401      	adds	r4, #1
 8008432:	9304      	str	r3, [sp, #16]
 8008434:	f814 1b01 	ldrb.w	r1, [r4], #1
 8008438:	482c      	ldr	r0, [pc, #176]	; (80084ec <_vfiprintf_r+0x250>)
 800843a:	f88d 1028 	strb.w	r1, [sp, #40]	; 0x28
 800843e:	2206      	movs	r2, #6
 8008440:	f7f7 feee 	bl	8000220 <memchr>
 8008444:	2800      	cmp	r0, #0
 8008446:	d03f      	beq.n	80084c8 <_vfiprintf_r+0x22c>
 8008448:	4b29      	ldr	r3, [pc, #164]	; (80084f0 <_vfiprintf_r+0x254>)
 800844a:	bb1b      	cbnz	r3, 8008494 <_vfiprintf_r+0x1f8>
 800844c:	9b03      	ldr	r3, [sp, #12]
 800844e:	3307      	adds	r3, #7
 8008450:	f023 0307 	bic.w	r3, r3, #7
 8008454:	3308      	adds	r3, #8
 8008456:	9303      	str	r3, [sp, #12]
 8008458:	9b09      	ldr	r3, [sp, #36]	; 0x24
 800845a:	443b      	add	r3, r7
 800845c:	9309      	str	r3, [sp, #36]	; 0x24
 800845e:	e767      	b.n	8008330 <_vfiprintf_r+0x94>
 8008460:	fb0c 3202 	mla	r2, ip, r2, r3
 8008464:	460c      	mov	r4, r1
 8008466:	2001      	movs	r0, #1
 8008468:	e7a5      	b.n	80083b6 <_vfiprintf_r+0x11a>
 800846a:	2300      	movs	r3, #0
 800846c:	3401      	adds	r4, #1
 800846e:	9305      	str	r3, [sp, #20]
 8008470:	4619      	mov	r1, r3
 8008472:	f04f 0c0a 	mov.w	ip, #10
 8008476:	4620      	mov	r0, r4
 8008478:	f810 2b01 	ldrb.w	r2, [r0], #1
 800847c:	3a30      	subs	r2, #48	; 0x30
 800847e:	2a09      	cmp	r2, #9
 8008480:	d903      	bls.n	800848a <_vfiprintf_r+0x1ee>
 8008482:	2b00      	cmp	r3, #0
 8008484:	d0c5      	beq.n	8008412 <_vfiprintf_r+0x176>
 8008486:	9105      	str	r1, [sp, #20]
 8008488:	e7c3      	b.n	8008412 <_vfiprintf_r+0x176>
 800848a:	fb0c 2101 	mla	r1, ip, r1, r2
 800848e:	4604      	mov	r4, r0
 8008490:	2301      	movs	r3, #1
 8008492:	e7f0      	b.n	8008476 <_vfiprintf_r+0x1da>
 8008494:	ab03      	add	r3, sp, #12
 8008496:	9300      	str	r3, [sp, #0]
 8008498:	462a      	mov	r2, r5
 800849a:	4b16      	ldr	r3, [pc, #88]	; (80084f4 <_vfiprintf_r+0x258>)
 800849c:	a904      	add	r1, sp, #16
 800849e:	4630      	mov	r0, r6
 80084a0:	f7fd fe22 	bl	80060e8 <_printf_float>
 80084a4:	4607      	mov	r7, r0
 80084a6:	1c78      	adds	r0, r7, #1
 80084a8:	d1d6      	bne.n	8008458 <_vfiprintf_r+0x1bc>
 80084aa:	6e6b      	ldr	r3, [r5, #100]	; 0x64
 80084ac:	07d9      	lsls	r1, r3, #31
 80084ae:	d405      	bmi.n	80084bc <_vfiprintf_r+0x220>
 80084b0:	89ab      	ldrh	r3, [r5, #12]
 80084b2:	059a      	lsls	r2, r3, #22
 80084b4:	d402      	bmi.n	80084bc <_vfiprintf_r+0x220>
 80084b6:	6da8      	ldr	r0, [r5, #88]	; 0x58
 80084b8:	f000 faaf 	bl	8008a1a <__retarget_lock_release_recursive>
 80084bc:	89ab      	ldrh	r3, [r5, #12]
 80084be:	065b      	lsls	r3, r3, #25
 80084c0:	f53f af12 	bmi.w	80082e8 <_vfiprintf_r+0x4c>
 80084c4:	9809      	ldr	r0, [sp, #36]	; 0x24
 80084c6:	e711      	b.n	80082ec <_vfiprintf_r+0x50>
 80084c8:	ab03      	add	r3, sp, #12
 80084ca:	9300      	str	r3, [sp, #0]
 80084cc:	462a      	mov	r2, r5
 80084ce:	4b09      	ldr	r3, [pc, #36]	; (80084f4 <_vfiprintf_r+0x258>)
 80084d0:	a904      	add	r1, sp, #16
 80084d2:	4630      	mov	r0, r6
 80084d4:	f7fe f8ac 	bl	8006630 <_printf_i>
 80084d8:	e7e4      	b.n	80084a4 <_vfiprintf_r+0x208>
 80084da:	bf00      	nop
 80084dc:	08009134 	.word	0x08009134
 80084e0:	08009154 	.word	0x08009154
 80084e4:	08009114 	.word	0x08009114
 80084e8:	08008fbc 	.word	0x08008fbc
 80084ec:	08008fc6 	.word	0x08008fc6
 80084f0:	080060e9 	.word	0x080060e9
 80084f4:	08008277 	.word	0x08008277
 80084f8:	08008fc2 	.word	0x08008fc2

080084fc <__swbuf_r>:
 80084fc:	b5f8      	push	{r3, r4, r5, r6, r7, lr}
 80084fe:	460e      	mov	r6, r1
 8008500:	4614      	mov	r4, r2
 8008502:	4605      	mov	r5, r0
 8008504:	b118      	cbz	r0, 800850e <__swbuf_r+0x12>
 8008506:	6983      	ldr	r3, [r0, #24]
 8008508:	b90b      	cbnz	r3, 800850e <__swbuf_r+0x12>
 800850a:	f000 f9e7 	bl	80088dc <__sinit>
 800850e:	4b21      	ldr	r3, [pc, #132]	; (8008594 <__swbuf_r+0x98>)
 8008510:	429c      	cmp	r4, r3
 8008512:	d12b      	bne.n	800856c <__swbuf_r+0x70>
 8008514:	686c      	ldr	r4, [r5, #4]
 8008516:	69a3      	ldr	r3, [r4, #24]
 8008518:	60a3      	str	r3, [r4, #8]
 800851a:	89a3      	ldrh	r3, [r4, #12]
 800851c:	071a      	lsls	r2, r3, #28
 800851e:	d52f      	bpl.n	8008580 <__swbuf_r+0x84>
 8008520:	6923      	ldr	r3, [r4, #16]
 8008522:	b36b      	cbz	r3, 8008580 <__swbuf_r+0x84>
 8008524:	6923      	ldr	r3, [r4, #16]
 8008526:	6820      	ldr	r0, [r4, #0]
 8008528:	1ac0      	subs	r0, r0, r3
 800852a:	6963      	ldr	r3, [r4, #20]
 800852c:	b2f6      	uxtb	r6, r6
 800852e:	4283      	cmp	r3, r0
 8008530:	4637      	mov	r7, r6
 8008532:	dc04      	bgt.n	800853e <__swbuf_r+0x42>
 8008534:	4621      	mov	r1, r4
 8008536:	4628      	mov	r0, r5
 8008538:	f000 f93c 	bl	80087b4 <_fflush_r>
 800853c:	bb30      	cbnz	r0, 800858c <__swbuf_r+0x90>
 800853e:	68a3      	ldr	r3, [r4, #8]
 8008540:	3b01      	subs	r3, #1
 8008542:	60a3      	str	r3, [r4, #8]
 8008544:	6823      	ldr	r3, [r4, #0]
 8008546:	1c5a      	adds	r2, r3, #1
 8008548:	6022      	str	r2, [r4, #0]
 800854a:	701e      	strb	r6, [r3, #0]
 800854c:	6963      	ldr	r3, [r4, #20]
 800854e:	3001      	adds	r0, #1
 8008550:	4283      	cmp	r3, r0
 8008552:	d004      	beq.n	800855e <__swbuf_r+0x62>
 8008554:	89a3      	ldrh	r3, [r4, #12]
 8008556:	07db      	lsls	r3, r3, #31
 8008558:	d506      	bpl.n	8008568 <__swbuf_r+0x6c>
 800855a:	2e0a      	cmp	r6, #10
 800855c:	d104      	bne.n	8008568 <__swbuf_r+0x6c>
 800855e:	4621      	mov	r1, r4
 8008560:	4628      	mov	r0, r5
 8008562:	f000 f927 	bl	80087b4 <_fflush_r>
 8008566:	b988      	cbnz	r0, 800858c <__swbuf_r+0x90>
 8008568:	4638      	mov	r0, r7
 800856a:	bdf8      	pop	{r3, r4, r5, r6, r7, pc}
 800856c:	4b0a      	ldr	r3, [pc, #40]	; (8008598 <__swbuf_r+0x9c>)
 800856e:	429c      	cmp	r4, r3
 8008570:	d101      	bne.n	8008576 <__swbuf_r+0x7a>
 8008572:	68ac      	ldr	r4, [r5, #8]
 8008574:	e7cf      	b.n	8008516 <__swbuf_r+0x1a>
 8008576:	4b09      	ldr	r3, [pc, #36]	; (800859c <__swbuf_r+0xa0>)
 8008578:	429c      	cmp	r4, r3
 800857a:	bf08      	it	eq
 800857c:	68ec      	ldreq	r4, [r5, #12]
 800857e:	e7ca      	b.n	8008516 <__swbuf_r+0x1a>
 8008580:	4621      	mov	r1, r4
 8008582:	4628      	mov	r0, r5
 8008584:	f000 f81a 	bl	80085bc <__swsetup_r>
 8008588:	2800      	cmp	r0, #0
 800858a:	d0cb      	beq.n	8008524 <__swbuf_r+0x28>
 800858c:	f04f 37ff 	mov.w	r7, #4294967295	; 0xffffffff
 8008590:	e7ea      	b.n	8008568 <__swbuf_r+0x6c>
 8008592:	bf00      	nop
 8008594:	08009134 	.word	0x08009134
 8008598:	08009154 	.word	0x08009154
 800859c:	08009114 	.word	0x08009114

080085a0 <__ascii_wctomb>:
 80085a0:	b149      	cbz	r1, 80085b6 <__ascii_wctomb+0x16>
 80085a2:	2aff      	cmp	r2, #255	; 0xff
 80085a4:	bf85      	ittet	hi
 80085a6:	238a      	movhi	r3, #138	; 0x8a
 80085a8:	6003      	strhi	r3, [r0, #0]
 80085aa:	700a      	strbls	r2, [r1, #0]
 80085ac:	f04f 30ff 	movhi.w	r0, #4294967295	; 0xffffffff
 80085b0:	bf98      	it	ls
 80085b2:	2001      	movls	r0, #1
 80085b4:	4770      	bx	lr
 80085b6:	4608      	mov	r0, r1
 80085b8:	4770      	bx	lr
	...

080085bc <__swsetup_r>:
 80085bc:	4b32      	ldr	r3, [pc, #200]	; (8008688 <__swsetup_r+0xcc>)
 80085be:	b570      	push	{r4, r5, r6, lr}
 80085c0:	681d      	ldr	r5, [r3, #0]
 80085c2:	4606      	mov	r6, r0
 80085c4:	460c      	mov	r4, r1
 80085c6:	b125      	cbz	r5, 80085d2 <__swsetup_r+0x16>
 80085c8:	69ab      	ldr	r3, [r5, #24]
 80085ca:	b913      	cbnz	r3, 80085d2 <__swsetup_r+0x16>
 80085cc:	4628      	mov	r0, r5
 80085ce:	f000 f985 	bl	80088dc <__sinit>
 80085d2:	4b2e      	ldr	r3, [pc, #184]	; (800868c <__swsetup_r+0xd0>)
 80085d4:	429c      	cmp	r4, r3
 80085d6:	d10f      	bne.n	80085f8 <__swsetup_r+0x3c>
 80085d8:	686c      	ldr	r4, [r5, #4]
 80085da:	89a3      	ldrh	r3, [r4, #12]
 80085dc:	f9b4 200c 	ldrsh.w	r2, [r4, #12]
 80085e0:	0719      	lsls	r1, r3, #28
 80085e2:	d42c      	bmi.n	800863e <__swsetup_r+0x82>
 80085e4:	06dd      	lsls	r5, r3, #27
 80085e6:	d411      	bmi.n	800860c <__swsetup_r+0x50>
 80085e8:	2309      	movs	r3, #9
 80085ea:	6033      	str	r3, [r6, #0]
 80085ec:	f042 0340 	orr.w	r3, r2, #64	; 0x40
 80085f0:	81a3      	strh	r3, [r4, #12]
 80085f2:	f04f 30ff 	mov.w	r0, #4294967295	; 0xffffffff
 80085f6:	e03e      	b.n	8008676 <__swsetup_r+0xba>
 80085f8:	4b25      	ldr	r3, [pc, #148]	; (8008690 <__swsetup_r+0xd4>)
 80085fa:	429c      	cmp	r4, r3
 80085fc:	d101      	bne.n	8008602 <__swsetup_r+0x46>
 80085fe:	68ac      	ldr	r4, [r5, #8]
 8008600:	e7eb      	b.n	80085da <__swsetup_r+0x1e>
 8008602:	4b24      	ldr	r3, [pc, #144]	; (8008694 <__swsetup_r+0xd8>)
 8008604:	429c      	cmp	r4, r3
 8008606:	bf08      	it	eq
 8008608:	68ec      	ldreq	r4, [r5, #12]
 800860a:	e7e6      	b.n	80085da <__swsetup_r+0x1e>
 800860c:	0758      	lsls	r0, r3, #29
 800860e:	d512      	bpl.n	8008636 <__swsetup_r+0x7a>
 8008610:	6b61      	ldr	r1, [r4, #52]	; 0x34
 8008612:	b141      	cbz	r1, 8008626 <__swsetup_r+0x6a>
 8008614:	f104 0344 	add.w	r3, r4, #68	; 0x44
 8008618:	4299      	cmp	r1, r3
 800861a:	d002      	beq.n	8008622 <__swsetup_r+0x66>
 800861c:	4630      	mov	r0, r6
 800861e:	f7ff fb6f 	bl	8007d00 <_free_r>
 8008622:	2300      	movs	r3, #0
 8008624:	6363      	str	r3, [r4, #52]	; 0x34
 8008626:	89a3      	ldrh	r3, [r4, #12]
 8008628:	f023 0324 	bic.w	r3, r3, #36	; 0x24
 800862c:	81a3      	strh	r3, [r4, #12]
 800862e:	2300      	movs	r3, #0
 8008630:	6063      	str	r3, [r4, #4]
 8008632:	6923      	ldr	r3, [r4, #16]
 8008634:	6023      	str	r3, [r4, #0]
 8008636:	89a3      	ldrh	r3, [r4, #12]
 8008638:	f043 0308 	orr.w	r3, r3, #8
 800863c:	81a3      	strh	r3, [r4, #12]
 800863e:	6923      	ldr	r3, [r4, #16]
 8008640:	b94b      	cbnz	r3, 8008656 <__swsetup_r+0x9a>
 8008642:	89a3      	ldrh	r3, [r4, #12]
 8008644:	f403 7320 	and.w	r3, r3, #640	; 0x280
 8008648:	f5b3 7f00 	cmp.w	r3, #512	; 0x200
 800864c:	d003      	beq.n	8008656 <__swsetup_r+0x9a>
 800864e:	4621      	mov	r1, r4
 8008650:	4630      	mov	r0, r6
 8008652:	f000 fa07 	bl	8008a64 <__smakebuf_r>
 8008656:	89a0      	ldrh	r0, [r4, #12]
 8008658:	f9b4 200c 	ldrsh.w	r2, [r4, #12]
 800865c:	f010 0301 	ands.w	r3, r0, #1
 8008660:	d00a      	beq.n	8008678 <__swsetup_r+0xbc>
 8008662:	2300      	movs	r3, #0
 8008664:	60a3      	str	r3, [r4, #8]
 8008666:	6963      	ldr	r3, [r4, #20]
 8008668:	425b      	negs	r3, r3
 800866a:	61a3      	str	r3, [r4, #24]
 800866c:	6923      	ldr	r3, [r4, #16]
 800866e:	b943      	cbnz	r3, 8008682 <__swsetup_r+0xc6>
 8008670:	f010 0080 	ands.w	r0, r0, #128	; 0x80
 8008674:	d1ba      	bne.n	80085ec <__swsetup_r+0x30>
 8008676:	bd70      	pop	{r4, r5, r6, pc}
 8008678:	0781      	lsls	r1, r0, #30
 800867a:	bf58      	it	pl
 800867c:	6963      	ldrpl	r3, [r4, #20]
 800867e:	60a3      	str	r3, [r4, #8]
 8008680:	e7f4      	b.n	800866c <__swsetup_r+0xb0>
 8008682:	2000      	movs	r0, #0
 8008684:	e7f7      	b.n	8008676 <__swsetup_r+0xba>
 8008686:	bf00      	nop
 8008688:	20000028 	.word	0x20000028
 800868c:	08009134 	.word	0x08009134
 8008690:	08009154 	.word	0x08009154
 8008694:	08009114 	.word	0x08009114

08008698 <abort>:
 8008698:	b508      	push	{r3, lr}
 800869a:	2006      	movs	r0, #6
 800869c:	f000 fa52 	bl	8008b44 <raise>
 80086a0:	2001      	movs	r0, #1
 80086a2:	f7f9 fe6f 	bl	8002384 <_exit>
	...

080086a8 <__sflush_r>:
 80086a8:	898a      	ldrh	r2, [r1, #12]
 80086aa:	e92d 41f0 	stmdb	sp!, {r4, r5, r6, r7, r8, lr}
 80086ae:	4605      	mov	r5, r0
 80086b0:	0710      	lsls	r0, r2, #28
 80086b2:	460c      	mov	r4, r1
 80086b4:	d458      	bmi.n	8008768 <__sflush_r+0xc0>
 80086b6:	684b      	ldr	r3, [r1, #4]
 80086b8:	2b00      	cmp	r3, #0
 80086ba:	dc05      	bgt.n	80086c8 <__sflush_r+0x20>
 80086bc:	6c0b      	ldr	r3, [r1, #64]	; 0x40
 80086be:	2b00      	cmp	r3, #0
 80086c0:	dc02      	bgt.n	80086c8 <__sflush_r+0x20>
 80086c2:	2000      	movs	r0, #0
 80086c4:	e8bd 81f0 	ldmia.w	sp!, {r4, r5, r6, r7, r8, pc}
 80086c8:	6ae6      	ldr	r6, [r4, #44]	; 0x2c
 80086ca:	2e00      	cmp	r6, #0
 80086cc:	d0f9      	beq.n	80086c2 <__sflush_r+0x1a>
 80086ce:	2300      	movs	r3, #0
 80086d0:	f412 5280 	ands.w	r2, r2, #4096	; 0x1000
 80086d4:	682f      	ldr	r7, [r5, #0]
 80086d6:	602b      	str	r3, [r5, #0]
 80086d8:	d032      	beq.n	8008740 <__sflush_r+0x98>
 80086da:	6d60      	ldr	r0, [r4, #84]	; 0x54
 80086dc:	89a3      	ldrh	r3, [r4, #12]
 80086de:	075a      	lsls	r2, r3, #29
 80086e0:	d505      	bpl.n	80086ee <__sflush_r+0x46>
 80086e2:	6863      	ldr	r3, [r4, #4]
 80086e4:	1ac0      	subs	r0, r0, r3
 80086e6:	6b63      	ldr	r3, [r4, #52]	; 0x34
 80086e8:	b10b      	cbz	r3, 80086ee <__sflush_r+0x46>
 80086ea:	6c23      	ldr	r3, [r4, #64]	; 0x40
 80086ec:	1ac0      	subs	r0, r0, r3
 80086ee:	2300      	movs	r3, #0
 80086f0:	4602      	mov	r2, r0
 80086f2:	6ae6      	ldr	r6, [r4, #44]	; 0x2c
 80086f4:	6a21      	ldr	r1, [r4, #32]
 80086f6:	4628      	mov	r0, r5
 80086f8:	47b0      	blx	r6
 80086fa:	1c43      	adds	r3, r0, #1
 80086fc:	89a3      	ldrh	r3, [r4, #12]
 80086fe:	d106      	bne.n	800870e <__sflush_r+0x66>
 8008700:	6829      	ldr	r1, [r5, #0]
 8008702:	291d      	cmp	r1, #29
 8008704:	d82c      	bhi.n	8008760 <__sflush_r+0xb8>
 8008706:	4a2a      	ldr	r2, [pc, #168]	; (80087b0 <__sflush_r+0x108>)
 8008708:	40ca      	lsrs	r2, r1
 800870a:	07d6      	lsls	r6, r2, #31
 800870c:	d528      	bpl.n	8008760 <__sflush_r+0xb8>
 800870e:	2200      	movs	r2, #0
 8008710:	6062      	str	r2, [r4, #4]
 8008712:	04d9      	lsls	r1, r3, #19
 8008714:	6922      	ldr	r2, [r4, #16]
 8008716:	6022      	str	r2, [r4, #0]
 8008718:	d504      	bpl.n	8008724 <__sflush_r+0x7c>
 800871a:	1c42      	adds	r2, r0, #1
 800871c:	d101      	bne.n	8008722 <__sflush_r+0x7a>
 800871e:	682b      	ldr	r3, [r5, #0]
 8008720:	b903      	cbnz	r3, 8008724 <__sflush_r+0x7c>
 8008722:	6560      	str	r0, [r4, #84]	; 0x54
 8008724:	6b61      	ldr	r1, [r4, #52]	; 0x34
 8008726:	602f      	str	r7, [r5, #0]
 8008728:	2900      	cmp	r1, #0
 800872a:	d0ca      	beq.n	80086c2 <__sflush_r+0x1a>
 800872c:	f104 0344 	add.w	r3, r4, #68	; 0x44
 8008730:	4299      	cmp	r1, r3
 8008732:	d002      	beq.n	800873a <__sflush_r+0x92>
 8008734:	4628      	mov	r0, r5
 8008736:	f7ff fae3 	bl	8007d00 <_free_r>
 800873a:	2000      	movs	r0, #0
 800873c:	6360      	str	r0, [r4, #52]	; 0x34
 800873e:	e7c1      	b.n	80086c4 <__sflush_r+0x1c>
 8008740:	6a21      	ldr	r1, [r4, #32]
 8008742:	2301      	movs	r3, #1
 8008744:	4628      	mov	r0, r5
 8008746:	47b0      	blx	r6
 8008748:	1c41      	adds	r1, r0, #1
 800874a:	d1c7      	bne.n	80086dc <__sflush_r+0x34>
 800874c:	682b      	ldr	r3, [r5, #0]
 800874e:	2b00      	cmp	r3, #0
 8008750:	d0c4      	beq.n	80086dc <__sflush_r+0x34>
 8008752:	2b1d      	cmp	r3, #29
 8008754:	d001      	beq.n	800875a <__sflush_r+0xb2>
 8008756:	2b16      	cmp	r3, #22
 8008758:	d101      	bne.n	800875e <__sflush_r+0xb6>
 800875a:	602f      	str	r7, [r5, #0]
 800875c:	e7b1      	b.n	80086c2 <__sflush_r+0x1a>
 800875e:	89a3      	ldrh	r3, [r4, #12]
 8008760:	f043 0340 	orr.w	r3, r3, #64	; 0x40
 8008764:	81a3      	strh	r3, [r4, #12]
 8008766:	e7ad      	b.n	80086c4 <__sflush_r+0x1c>
 8008768:	690f      	ldr	r7, [r1, #16]
 800876a:	2f00      	cmp	r7, #0
 800876c:	d0a9      	beq.n	80086c2 <__sflush_r+0x1a>
 800876e:	0793      	lsls	r3, r2, #30
 8008770:	680e      	ldr	r6, [r1, #0]
 8008772:	bf08      	it	eq
 8008774:	694b      	ldreq	r3, [r1, #20]
 8008776:	600f      	str	r7, [r1, #0]
 8008778:	bf18      	it	ne
 800877a:	2300      	movne	r3, #0
 800877c:	eba6 0807 	sub.w	r8, r6, r7
 8008780:	608b      	str	r3, [r1, #8]
 8008782:	f1b8 0f00 	cmp.w	r8, #0
 8008786:	dd9c      	ble.n	80086c2 <__sflush_r+0x1a>
 8008788:	6a21      	ldr	r1, [r4, #32]
 800878a:	6aa6      	ldr	r6, [r4, #40]	; 0x28
 800878c:	4643      	mov	r3, r8
 800878e:	463a      	mov	r2, r7
 8008790:	4628      	mov	r0, r5
 8008792:	47b0      	blx	r6
 8008794:	2800      	cmp	r0, #0
 8008796:	dc06      	bgt.n	80087a6 <__sflush_r+0xfe>
 8008798:	89a3      	ldrh	r3, [r4, #12]
 800879a:	f043 0340 	orr.w	r3, r3, #64	; 0x40
 800879e:	81a3      	strh	r3, [r4, #12]
 80087a0:	f04f 30ff 	mov.w	r0, #4294967295	; 0xffffffff
 80087a4:	e78e      	b.n	80086c4 <__sflush_r+0x1c>
 80087a6:	4407      	add	r7, r0
 80087a8:	eba8 0800 	sub.w	r8, r8, r0
 80087ac:	e7e9      	b.n	8008782 <__sflush_r+0xda>
 80087ae:	bf00      	nop
 80087b0:	20400001 	.word	0x20400001

080087b4 <_fflush_r>:
 80087b4:	b538      	push	{r3, r4, r5, lr}
 80087b6:	690b      	ldr	r3, [r1, #16]
 80087b8:	4605      	mov	r5, r0
 80087ba:	460c      	mov	r4, r1
 80087bc:	b913      	cbnz	r3, 80087c4 <_fflush_r+0x10>
 80087be:	2500      	movs	r5, #0
 80087c0:	4628      	mov	r0, r5
 80087c2:	bd38      	pop	{r3, r4, r5, pc}
 80087c4:	b118      	cbz	r0, 80087ce <_fflush_r+0x1a>
 80087c6:	6983      	ldr	r3, [r0, #24]
 80087c8:	b90b      	cbnz	r3, 80087ce <_fflush_r+0x1a>
 80087ca:	f000 f887 	bl	80088dc <__sinit>
 80087ce:	4b14      	ldr	r3, [pc, #80]	; (8008820 <_fflush_r+0x6c>)
 80087d0:	429c      	cmp	r4, r3
 80087d2:	d11b      	bne.n	800880c <_fflush_r+0x58>
 80087d4:	686c      	ldr	r4, [r5, #4]
 80087d6:	f9b4 300c 	ldrsh.w	r3, [r4, #12]
 80087da:	2b00      	cmp	r3, #0
 80087dc:	d0ef      	beq.n	80087be <_fflush_r+0xa>
 80087de:	6e62      	ldr	r2, [r4, #100]	; 0x64
 80087e0:	07d0      	lsls	r0, r2, #31
 80087e2:	d404      	bmi.n	80087ee <_fflush_r+0x3a>
 80087e4:	0599      	lsls	r1, r3, #22
 80087e6:	d402      	bmi.n	80087ee <_fflush_r+0x3a>
 80087e8:	6da0      	ldr	r0, [r4, #88]	; 0x58
 80087ea:	f000 f915 	bl	8008a18 <__retarget_lock_acquire_recursive>
 80087ee:	4628      	mov	r0, r5
 80087f0:	4621      	mov	r1, r4
 80087f2:	f7ff ff59 	bl	80086a8 <__sflush_r>
 80087f6:	6e63      	ldr	r3, [r4, #100]	; 0x64
 80087f8:	07da      	lsls	r2, r3, #31
 80087fa:	4605      	mov	r5, r0
 80087fc:	d4e0      	bmi.n	80087c0 <_fflush_r+0xc>
 80087fe:	89a3      	ldrh	r3, [r4, #12]
 8008800:	059b      	lsls	r3, r3, #22
 8008802:	d4dd      	bmi.n	80087c0 <_fflush_r+0xc>
 8008804:	6da0      	ldr	r0, [r4, #88]	; 0x58
 8008806:	f000 f908 	bl	8008a1a <__retarget_lock_release_recursive>
 800880a:	e7d9      	b.n	80087c0 <_fflush_r+0xc>
 800880c:	4b05      	ldr	r3, [pc, #20]	; (8008824 <_fflush_r+0x70>)
 800880e:	429c      	cmp	r4, r3
 8008810:	d101      	bne.n	8008816 <_fflush_r+0x62>
 8008812:	68ac      	ldr	r4, [r5, #8]
 8008814:	e7df      	b.n	80087d6 <_fflush_r+0x22>
 8008816:	4b04      	ldr	r3, [pc, #16]	; (8008828 <_fflush_r+0x74>)
 8008818:	429c      	cmp	r4, r3
 800881a:	bf08      	it	eq
 800881c:	68ec      	ldreq	r4, [r5, #12]
 800881e:	e7da      	b.n	80087d6 <_fflush_r+0x22>
 8008820:	08009134 	.word	0x08009134
 8008824:	08009154 	.word	0x08009154
 8008828:	08009114 	.word	0x08009114

0800882c <std>:
 800882c:	2300      	movs	r3, #0
 800882e:	b510      	push	{r4, lr}
 8008830:	4604      	mov	r4, r0
 8008832:	e9c0 3300 	strd	r3, r3, [r0]
 8008836:	e9c0 3304 	strd	r3, r3, [r0, #16]
 800883a:	6083      	str	r3, [r0, #8]
 800883c:	8181      	strh	r1, [r0, #12]
 800883e:	6643      	str	r3, [r0, #100]	; 0x64
 8008840:	81c2      	strh	r2, [r0, #14]
 8008842:	6183      	str	r3, [r0, #24]
 8008844:	4619      	mov	r1, r3
 8008846:	2208      	movs	r2, #8
 8008848:	305c      	adds	r0, #92	; 0x5c
 800884a:	f7fd fba5 	bl	8005f98 <memset>
 800884e:	4b05      	ldr	r3, [pc, #20]	; (8008864 <std+0x38>)
 8008850:	6263      	str	r3, [r4, #36]	; 0x24
 8008852:	4b05      	ldr	r3, [pc, #20]	; (8008868 <std+0x3c>)
 8008854:	62a3      	str	r3, [r4, #40]	; 0x28
 8008856:	4b05      	ldr	r3, [pc, #20]	; (800886c <std+0x40>)
 8008858:	62e3      	str	r3, [r4, #44]	; 0x2c
 800885a:	4b05      	ldr	r3, [pc, #20]	; (8008870 <std+0x44>)
 800885c:	6224      	str	r4, [r4, #32]
 800885e:	6323      	str	r3, [r4, #48]	; 0x30
 8008860:	bd10      	pop	{r4, pc}
 8008862:	bf00      	nop
 8008864:	08008b7d 	.word	0x08008b7d
 8008868:	08008b9f 	.word	0x08008b9f
 800886c:	08008bd7 	.word	0x08008bd7
 8008870:	08008bfb 	.word	0x08008bfb

08008874 <_cleanup_r>:
 8008874:	4901      	ldr	r1, [pc, #4]	; (800887c <_cleanup_r+0x8>)
 8008876:	f000 b8af 	b.w	80089d8 <_fwalk_reent>
 800887a:	bf00      	nop
 800887c:	080087b5 	.word	0x080087b5

08008880 <__sfmoreglue>:
 8008880:	b570      	push	{r4, r5, r6, lr}
 8008882:	1e4a      	subs	r2, r1, #1
 8008884:	2568      	movs	r5, #104	; 0x68
 8008886:	4355      	muls	r5, r2
 8008888:	460e      	mov	r6, r1
 800888a:	f105 0174 	add.w	r1, r5, #116	; 0x74
 800888e:	f7ff fa87 	bl	8007da0 <_malloc_r>
 8008892:	4604      	mov	r4, r0
 8008894:	b140      	cbz	r0, 80088a8 <__sfmoreglue+0x28>
 8008896:	2100      	movs	r1, #0
 8008898:	e9c0 1600 	strd	r1, r6, [r0]
 800889c:	300c      	adds	r0, #12
 800889e:	60a0      	str	r0, [r4, #8]
 80088a0:	f105 0268 	add.w	r2, r5, #104	; 0x68
 80088a4:	f7fd fb78 	bl	8005f98 <memset>
 80088a8:	4620      	mov	r0, r4
 80088aa:	bd70      	pop	{r4, r5, r6, pc}

080088ac <__sfp_lock_acquire>:
 80088ac:	4801      	ldr	r0, [pc, #4]	; (80088b4 <__sfp_lock_acquire+0x8>)
 80088ae:	f000 b8b3 	b.w	8008a18 <__retarget_lock_acquire_recursive>
 80088b2:	bf00      	nop
 80088b4:	20000558 	.word	0x20000558

080088b8 <__sfp_lock_release>:
 80088b8:	4801      	ldr	r0, [pc, #4]	; (80088c0 <__sfp_lock_release+0x8>)
 80088ba:	f000 b8ae 	b.w	8008a1a <__retarget_lock_release_recursive>
 80088be:	bf00      	nop
 80088c0:	20000558 	.word	0x20000558

080088c4 <__sinit_lock_acquire>:
 80088c4:	4801      	ldr	r0, [pc, #4]	; (80088cc <__sinit_lock_acquire+0x8>)
 80088c6:	f000 b8a7 	b.w	8008a18 <__retarget_lock_acquire_recursive>
 80088ca:	bf00      	nop
 80088cc:	20000553 	.word	0x20000553

080088d0 <__sinit_lock_release>:
 80088d0:	4801      	ldr	r0, [pc, #4]	; (80088d8 <__sinit_lock_release+0x8>)
 80088d2:	f000 b8a2 	b.w	8008a1a <__retarget_lock_release_recursive>
 80088d6:	bf00      	nop
 80088d8:	20000553 	.word	0x20000553

080088dc <__sinit>:
 80088dc:	b510      	push	{r4, lr}
 80088de:	4604      	mov	r4, r0
 80088e0:	f7ff fff0 	bl	80088c4 <__sinit_lock_acquire>
 80088e4:	69a3      	ldr	r3, [r4, #24]
 80088e6:	b11b      	cbz	r3, 80088f0 <__sinit+0x14>
 80088e8:	e8bd 4010 	ldmia.w	sp!, {r4, lr}
 80088ec:	f7ff bff0 	b.w	80088d0 <__sinit_lock_release>
 80088f0:	e9c4 3312 	strd	r3, r3, [r4, #72]	; 0x48
 80088f4:	6523      	str	r3, [r4, #80]	; 0x50
 80088f6:	4b13      	ldr	r3, [pc, #76]	; (8008944 <__sinit+0x68>)
 80088f8:	4a13      	ldr	r2, [pc, #76]	; (8008948 <__sinit+0x6c>)
 80088fa:	681b      	ldr	r3, [r3, #0]
 80088fc:	62a2      	str	r2, [r4, #40]	; 0x28
 80088fe:	42a3      	cmp	r3, r4
 8008900:	bf04      	itt	eq
 8008902:	2301      	moveq	r3, #1
 8008904:	61a3      	streq	r3, [r4, #24]
 8008906:	4620      	mov	r0, r4
 8008908:	f000 f820 	bl	800894c <__sfp>
 800890c:	6060      	str	r0, [r4, #4]
 800890e:	4620      	mov	r0, r4
 8008910:	f000 f81c 	bl	800894c <__sfp>
 8008914:	60a0      	str	r0, [r4, #8]
 8008916:	4620      	mov	r0, r4
 8008918:	f000 f818 	bl	800894c <__sfp>
 800891c:	2200      	movs	r2, #0
 800891e:	60e0      	str	r0, [r4, #12]
 8008920:	2104      	movs	r1, #4
 8008922:	6860      	ldr	r0, [r4, #4]
 8008924:	f7ff ff82 	bl	800882c <std>
 8008928:	68a0      	ldr	r0, [r4, #8]
 800892a:	2201      	movs	r2, #1
 800892c:	2109      	movs	r1, #9
 800892e:	f7ff ff7d 	bl	800882c <std>
 8008932:	68e0      	ldr	r0, [r4, #12]
 8008934:	2202      	movs	r2, #2
 8008936:	2112      	movs	r1, #18
 8008938:	f7ff ff78 	bl	800882c <std>
 800893c:	2301      	movs	r3, #1
 800893e:	61a3      	str	r3, [r4, #24]
 8008940:	e7d2      	b.n	80088e8 <__sinit+0xc>
 8008942:	bf00      	nop
 8008944:	08008d90 	.word	0x08008d90
 8008948:	08008875 	.word	0x08008875

0800894c <__sfp>:
 800894c:	b5f8      	push	{r3, r4, r5, r6, r7, lr}
 800894e:	4607      	mov	r7, r0
 8008950:	f7ff ffac 	bl	80088ac <__sfp_lock_acquire>
 8008954:	4b1e      	ldr	r3, [pc, #120]	; (80089d0 <__sfp+0x84>)
 8008956:	681e      	ldr	r6, [r3, #0]
 8008958:	69b3      	ldr	r3, [r6, #24]
 800895a:	b913      	cbnz	r3, 8008962 <__sfp+0x16>
 800895c:	4630      	mov	r0, r6
 800895e:	f7ff ffbd 	bl	80088dc <__sinit>
 8008962:	3648      	adds	r6, #72	; 0x48
 8008964:	e9d6 3401 	ldrd	r3, r4, [r6, #4]
 8008968:	3b01      	subs	r3, #1
 800896a:	d503      	bpl.n	8008974 <__sfp+0x28>
 800896c:	6833      	ldr	r3, [r6, #0]
 800896e:	b30b      	cbz	r3, 80089b4 <__sfp+0x68>
 8008970:	6836      	ldr	r6, [r6, #0]
 8008972:	e7f7      	b.n	8008964 <__sfp+0x18>
 8008974:	f9b4 500c 	ldrsh.w	r5, [r4, #12]
 8008978:	b9d5      	cbnz	r5, 80089b0 <__sfp+0x64>
 800897a:	4b16      	ldr	r3, [pc, #88]	; (80089d4 <__sfp+0x88>)
 800897c:	60e3      	str	r3, [r4, #12]
 800897e:	f104 0058 	add.w	r0, r4, #88	; 0x58
 8008982:	6665      	str	r5, [r4, #100]	; 0x64
 8008984:	f000 f847 	bl	8008a16 <__retarget_lock_init_recursive>
 8008988:	f7ff ff96 	bl	80088b8 <__sfp_lock_release>
 800898c:	e9c4 5501 	strd	r5, r5, [r4, #4]
 8008990:	e9c4 5504 	strd	r5, r5, [r4, #16]
 8008994:	6025      	str	r5, [r4, #0]
 8008996:	61a5      	str	r5, [r4, #24]
 8008998:	2208      	movs	r2, #8
 800899a:	4629      	mov	r1, r5
 800899c:	f104 005c 	add.w	r0, r4, #92	; 0x5c
 80089a0:	f7fd fafa 	bl	8005f98 <memset>
 80089a4:	e9c4 550d 	strd	r5, r5, [r4, #52]	; 0x34
 80089a8:	e9c4 5512 	strd	r5, r5, [r4, #72]	; 0x48
 80089ac:	4620      	mov	r0, r4
 80089ae:	bdf8      	pop	{r3, r4, r5, r6, r7, pc}
 80089b0:	3468      	adds	r4, #104	; 0x68
 80089b2:	e7d9      	b.n	8008968 <__sfp+0x1c>
 80089b4:	2104      	movs	r1, #4
 80089b6:	4638      	mov	r0, r7
 80089b8:	f7ff ff62 	bl	8008880 <__sfmoreglue>
 80089bc:	4604      	mov	r4, r0
 80089be:	6030      	str	r0, [r6, #0]
 80089c0:	2800      	cmp	r0, #0
 80089c2:	d1d5      	bne.n	8008970 <__sfp+0x24>
 80089c4:	f7ff ff78 	bl	80088b8 <__sfp_lock_release>
 80089c8:	230c      	movs	r3, #12
 80089ca:	603b      	str	r3, [r7, #0]
 80089cc:	e7ee      	b.n	80089ac <__sfp+0x60>
 80089ce:	bf00      	nop
 80089d0:	08008d90 	.word	0x08008d90
 80089d4:	ffff0001 	.word	0xffff0001

080089d8 <_fwalk_reent>:
 80089d8:	e92d 43f8 	stmdb	sp!, {r3, r4, r5, r6, r7, r8, r9, lr}
 80089dc:	4606      	mov	r6, r0
 80089de:	4688      	mov	r8, r1
 80089e0:	f100 0448 	add.w	r4, r0, #72	; 0x48
 80089e4:	2700      	movs	r7, #0
 80089e6:	e9d4 9501 	ldrd	r9, r5, [r4, #4]
 80089ea:	f1b9 0901 	subs.w	r9, r9, #1
 80089ee:	d505      	bpl.n	80089fc <_fwalk_reent+0x24>
 80089f0:	6824      	ldr	r4, [r4, #0]
 80089f2:	2c00      	cmp	r4, #0
 80089f4:	d1f7      	bne.n	80089e6 <_fwalk_reent+0xe>
 80089f6:	4638      	mov	r0, r7
 80089f8:	e8bd 83f8 	ldmia.w	sp!, {r3, r4, r5, r6, r7, r8, r9, pc}
 80089fc:	89ab      	ldrh	r3, [r5, #12]
 80089fe:	2b01      	cmp	r3, #1
 8008a00:	d907      	bls.n	8008a12 <_fwalk_reent+0x3a>
 8008a02:	f9b5 300e 	ldrsh.w	r3, [r5, #14]
 8008a06:	3301      	adds	r3, #1
 8008a08:	d003      	beq.n	8008a12 <_fwalk_reent+0x3a>
 8008a0a:	4629      	mov	r1, r5
 8008a0c:	4630      	mov	r0, r6
 8008a0e:	47c0      	blx	r8
 8008a10:	4307      	orrs	r7, r0
 8008a12:	3568      	adds	r5, #104	; 0x68
 8008a14:	e7e9      	b.n	80089ea <_fwalk_reent+0x12>

08008a16 <__retarget_lock_init_recursive>:
 8008a16:	4770      	bx	lr

08008a18 <__retarget_lock_acquire_recursive>:
 8008a18:	4770      	bx	lr

08008a1a <__retarget_lock_release_recursive>:
 8008a1a:	4770      	bx	lr

08008a1c <__swhatbuf_r>:
 8008a1c:	b570      	push	{r4, r5, r6, lr}
 8008a1e:	460e      	mov	r6, r1
 8008a20:	f9b1 100e 	ldrsh.w	r1, [r1, #14]
 8008a24:	2900      	cmp	r1, #0
 8008a26:	b096      	sub	sp, #88	; 0x58
 8008a28:	4614      	mov	r4, r2
 8008a2a:	461d      	mov	r5, r3
 8008a2c:	da07      	bge.n	8008a3e <__swhatbuf_r+0x22>
 8008a2e:	2300      	movs	r3, #0
 8008a30:	602b      	str	r3, [r5, #0]
 8008a32:	89b3      	ldrh	r3, [r6, #12]
 8008a34:	061a      	lsls	r2, r3, #24
 8008a36:	d410      	bmi.n	8008a5a <__swhatbuf_r+0x3e>
 8008a38:	f44f 6380 	mov.w	r3, #1024	; 0x400
 8008a3c:	e00e      	b.n	8008a5c <__swhatbuf_r+0x40>
 8008a3e:	466a      	mov	r2, sp
 8008a40:	f000 f902 	bl	8008c48 <_fstat_r>
 8008a44:	2800      	cmp	r0, #0
 8008a46:	dbf2      	blt.n	8008a2e <__swhatbuf_r+0x12>
 8008a48:	9a01      	ldr	r2, [sp, #4]
 8008a4a:	f402 4270 	and.w	r2, r2, #61440	; 0xf000
 8008a4e:	f5a2 5300 	sub.w	r3, r2, #8192	; 0x2000
 8008a52:	425a      	negs	r2, r3
 8008a54:	415a      	adcs	r2, r3
 8008a56:	602a      	str	r2, [r5, #0]
 8008a58:	e7ee      	b.n	8008a38 <__swhatbuf_r+0x1c>
 8008a5a:	2340      	movs	r3, #64	; 0x40
 8008a5c:	2000      	movs	r0, #0
 8008a5e:	6023      	str	r3, [r4, #0]
 8008a60:	b016      	add	sp, #88	; 0x58
 8008a62:	bd70      	pop	{r4, r5, r6, pc}

08008a64 <__smakebuf_r>:
 8008a64:	898b      	ldrh	r3, [r1, #12]
 8008a66:	b573      	push	{r0, r1, r4, r5, r6, lr}
 8008a68:	079d      	lsls	r5, r3, #30
 8008a6a:	4606      	mov	r6, r0
 8008a6c:	460c      	mov	r4, r1
 8008a6e:	d507      	bpl.n	8008a80 <__smakebuf_r+0x1c>
 8008a70:	f104 0347 	add.w	r3, r4, #71	; 0x47
 8008a74:	6023      	str	r3, [r4, #0]
 8008a76:	6123      	str	r3, [r4, #16]
 8008a78:	2301      	movs	r3, #1
 8008a7a:	6163      	str	r3, [r4, #20]
 8008a7c:	b002      	add	sp, #8
 8008a7e:	bd70      	pop	{r4, r5, r6, pc}
 8008a80:	ab01      	add	r3, sp, #4
 8008a82:	466a      	mov	r2, sp
 8008a84:	f7ff ffca 	bl	8008a1c <__swhatbuf_r>
 8008a88:	9900      	ldr	r1, [sp, #0]
 8008a8a:	4605      	mov	r5, r0
 8008a8c:	4630      	mov	r0, r6
 8008a8e:	f7ff f987 	bl	8007da0 <_malloc_r>
 8008a92:	b948      	cbnz	r0, 8008aa8 <__smakebuf_r+0x44>
 8008a94:	f9b4 300c 	ldrsh.w	r3, [r4, #12]
 8008a98:	059a      	lsls	r2, r3, #22
 8008a9a:	d4ef      	bmi.n	8008a7c <__smakebuf_r+0x18>
 8008a9c:	f023 0303 	bic.w	r3, r3, #3
 8008aa0:	f043 0302 	orr.w	r3, r3, #2
 8008aa4:	81a3      	strh	r3, [r4, #12]
 8008aa6:	e7e3      	b.n	8008a70 <__smakebuf_r+0xc>
 8008aa8:	4b0d      	ldr	r3, [pc, #52]	; (8008ae0 <__smakebuf_r+0x7c>)
 8008aaa:	62b3      	str	r3, [r6, #40]	; 0x28
 8008aac:	89a3      	ldrh	r3, [r4, #12]
 8008aae:	6020      	str	r0, [r4, #0]
 8008ab0:	f043 0380 	orr.w	r3, r3, #128	; 0x80
 8008ab4:	81a3      	strh	r3, [r4, #12]
 8008ab6:	9b00      	ldr	r3, [sp, #0]
 8008ab8:	6163      	str	r3, [r4, #20]
 8008aba:	9b01      	ldr	r3, [sp, #4]
 8008abc:	6120      	str	r0, [r4, #16]
 8008abe:	b15b      	cbz	r3, 8008ad8 <__smakebuf_r+0x74>
 8008ac0:	f9b4 100e 	ldrsh.w	r1, [r4, #14]
 8008ac4:	4630      	mov	r0, r6
 8008ac6:	f000 f8d1 	bl	8008c6c <_isatty_r>
 8008aca:	b128      	cbz	r0, 8008ad8 <__smakebuf_r+0x74>
 8008acc:	89a3      	ldrh	r3, [r4, #12]
 8008ace:	f023 0303 	bic.w	r3, r3, #3
 8008ad2:	f043 0301 	orr.w	r3, r3, #1
 8008ad6:	81a3      	strh	r3, [r4, #12]
 8008ad8:	89a0      	ldrh	r0, [r4, #12]
 8008ada:	4305      	orrs	r5, r0
 8008adc:	81a5      	strh	r5, [r4, #12]
 8008ade:	e7cd      	b.n	8008a7c <__smakebuf_r+0x18>
 8008ae0:	08008875 	.word	0x08008875

08008ae4 <_malloc_usable_size_r>:
 8008ae4:	f851 3c04 	ldr.w	r3, [r1, #-4]
 8008ae8:	1f18      	subs	r0, r3, #4
 8008aea:	2b00      	cmp	r3, #0
 8008aec:	bfbc      	itt	lt
 8008aee:	580b      	ldrlt	r3, [r1, r0]
 8008af0:	18c0      	addlt	r0, r0, r3
 8008af2:	4770      	bx	lr

08008af4 <_raise_r>:
 8008af4:	291f      	cmp	r1, #31
 8008af6:	b538      	push	{r3, r4, r5, lr}
 8008af8:	4604      	mov	r4, r0
 8008afa:	460d      	mov	r5, r1
 8008afc:	d904      	bls.n	8008b08 <_raise_r+0x14>
 8008afe:	2316      	movs	r3, #22
 8008b00:	6003      	str	r3, [r0, #0]
 8008b02:	f04f 30ff 	mov.w	r0, #4294967295	; 0xffffffff
 8008b06:	bd38      	pop	{r3, r4, r5, pc}
 8008b08:	6c42      	ldr	r2, [r0, #68]	; 0x44
 8008b0a:	b112      	cbz	r2, 8008b12 <_raise_r+0x1e>
 8008b0c:	f852 3021 	ldr.w	r3, [r2, r1, lsl #2]
 8008b10:	b94b      	cbnz	r3, 8008b26 <_raise_r+0x32>
 8008b12:	4620      	mov	r0, r4
 8008b14:	f000 f830 	bl	8008b78 <_getpid_r>
 8008b18:	462a      	mov	r2, r5
 8008b1a:	4601      	mov	r1, r0
 8008b1c:	4620      	mov	r0, r4
 8008b1e:	e8bd 4038 	ldmia.w	sp!, {r3, r4, r5, lr}
 8008b22:	f000 b817 	b.w	8008b54 <_kill_r>
 8008b26:	2b01      	cmp	r3, #1
 8008b28:	d00a      	beq.n	8008b40 <_raise_r+0x4c>
 8008b2a:	1c59      	adds	r1, r3, #1
 8008b2c:	d103      	bne.n	8008b36 <_raise_r+0x42>
 8008b2e:	2316      	movs	r3, #22
 8008b30:	6003      	str	r3, [r0, #0]
 8008b32:	2001      	movs	r0, #1
 8008b34:	e7e7      	b.n	8008b06 <_raise_r+0x12>
 8008b36:	2400      	movs	r4, #0
 8008b38:	f842 4025 	str.w	r4, [r2, r5, lsl #2]
 8008b3c:	4628      	mov	r0, r5
 8008b3e:	4798      	blx	r3
 8008b40:	2000      	movs	r0, #0
 8008b42:	e7e0      	b.n	8008b06 <_raise_r+0x12>

08008b44 <raise>:
 8008b44:	4b02      	ldr	r3, [pc, #8]	; (8008b50 <raise+0xc>)
 8008b46:	4601      	mov	r1, r0
 8008b48:	6818      	ldr	r0, [r3, #0]
 8008b4a:	f7ff bfd3 	b.w	8008af4 <_raise_r>
 8008b4e:	bf00      	nop
 8008b50:	20000028 	.word	0x20000028

08008b54 <_kill_r>:
 8008b54:	b538      	push	{r3, r4, r5, lr}
 8008b56:	4d07      	ldr	r5, [pc, #28]	; (8008b74 <_kill_r+0x20>)
 8008b58:	2300      	movs	r3, #0
 8008b5a:	4604      	mov	r4, r0
 8008b5c:	4608      	mov	r0, r1
 8008b5e:	4611      	mov	r1, r2
 8008b60:	602b      	str	r3, [r5, #0]
 8008b62:	f7f9 fbff 	bl	8002364 <_kill>
 8008b66:	1c43      	adds	r3, r0, #1
 8008b68:	d102      	bne.n	8008b70 <_kill_r+0x1c>
 8008b6a:	682b      	ldr	r3, [r5, #0]
 8008b6c:	b103      	cbz	r3, 8008b70 <_kill_r+0x1c>
 8008b6e:	6023      	str	r3, [r4, #0]
 8008b70:	bd38      	pop	{r3, r4, r5, pc}
 8008b72:	bf00      	nop
 8008b74:	2000054c 	.word	0x2000054c

08008b78 <_getpid_r>:
 8008b78:	f7f9 bbec 	b.w	8002354 <_getpid>

08008b7c <__sread>:
 8008b7c:	b510      	push	{r4, lr}
 8008b7e:	460c      	mov	r4, r1
 8008b80:	f9b1 100e 	ldrsh.w	r1, [r1, #14]
 8008b84:	f000 f894 	bl	8008cb0 <_read_r>
 8008b88:	2800      	cmp	r0, #0
 8008b8a:	bfab      	itete	ge
 8008b8c:	6d63      	ldrge	r3, [r4, #84]	; 0x54
 8008b8e:	89a3      	ldrhlt	r3, [r4, #12]
 8008b90:	181b      	addge	r3, r3, r0
 8008b92:	f423 5380 	biclt.w	r3, r3, #4096	; 0x1000
 8008b96:	bfac      	ite	ge
 8008b98:	6563      	strge	r3, [r4, #84]	; 0x54
 8008b9a:	81a3      	strhlt	r3, [r4, #12]
 8008b9c:	bd10      	pop	{r4, pc}

08008b9e <__swrite>:
 8008b9e:	e92d 41f0 	stmdb	sp!, {r4, r5, r6, r7, r8, lr}
 8008ba2:	461f      	mov	r7, r3
 8008ba4:	898b      	ldrh	r3, [r1, #12]
 8008ba6:	05db      	lsls	r3, r3, #23
 8008ba8:	4605      	mov	r5, r0
 8008baa:	460c      	mov	r4, r1
 8008bac:	4616      	mov	r6, r2
 8008bae:	d505      	bpl.n	8008bbc <__swrite+0x1e>
 8008bb0:	f9b1 100e 	ldrsh.w	r1, [r1, #14]
 8008bb4:	2302      	movs	r3, #2
 8008bb6:	2200      	movs	r2, #0
 8008bb8:	f000 f868 	bl	8008c8c <_lseek_r>
 8008bbc:	89a3      	ldrh	r3, [r4, #12]
 8008bbe:	f9b4 100e 	ldrsh.w	r1, [r4, #14]
 8008bc2:	f423 5380 	bic.w	r3, r3, #4096	; 0x1000
 8008bc6:	81a3      	strh	r3, [r4, #12]
 8008bc8:	4632      	mov	r2, r6
 8008bca:	463b      	mov	r3, r7
 8008bcc:	4628      	mov	r0, r5
 8008bce:	e8bd 41f0 	ldmia.w	sp!, {r4, r5, r6, r7, r8, lr}
 8008bd2:	f000 b817 	b.w	8008c04 <_write_r>

08008bd6 <__sseek>:
 8008bd6:	b510      	push	{r4, lr}
 8008bd8:	460c      	mov	r4, r1
 8008bda:	f9b1 100e 	ldrsh.w	r1, [r1, #14]
 8008bde:	f000 f855 	bl	8008c8c <_lseek_r>
 8008be2:	1c43      	adds	r3, r0, #1
 8008be4:	89a3      	ldrh	r3, [r4, #12]
 8008be6:	bf15      	itete	ne
 8008be8:	6560      	strne	r0, [r4, #84]	; 0x54
 8008bea:	f423 5380 	biceq.w	r3, r3, #4096	; 0x1000
 8008bee:	f443 5380 	orrne.w	r3, r3, #4096	; 0x1000
 8008bf2:	81a3      	strheq	r3, [r4, #12]
 8008bf4:	bf18      	it	ne
 8008bf6:	81a3      	strhne	r3, [r4, #12]
 8008bf8:	bd10      	pop	{r4, pc}

08008bfa <__sclose>:
 8008bfa:	f9b1 100e 	ldrsh.w	r1, [r1, #14]
 8008bfe:	f000 b813 	b.w	8008c28 <_close_r>
	...

08008c04 <_write_r>:
 8008c04:	b538      	push	{r3, r4, r5, lr}
 8008c06:	4d07      	ldr	r5, [pc, #28]	; (8008c24 <_write_r+0x20>)
 8008c08:	4604      	mov	r4, r0
 8008c0a:	4608      	mov	r0, r1
 8008c0c:	4611      	mov	r1, r2
 8008c0e:	2200      	movs	r2, #0
 8008c10:	602a      	str	r2, [r5, #0]
 8008c12:	461a      	mov	r2, r3
 8008c14:	f7f9 fbdd 	bl	80023d2 <_write>
 8008c18:	1c43      	adds	r3, r0, #1
 8008c1a:	d102      	bne.n	8008c22 <_write_r+0x1e>
 8008c1c:	682b      	ldr	r3, [r5, #0]
 8008c1e:	b103      	cbz	r3, 8008c22 <_write_r+0x1e>
 8008c20:	6023      	str	r3, [r4, #0]
 8008c22:	bd38      	pop	{r3, r4, r5, pc}
 8008c24:	2000054c 	.word	0x2000054c

08008c28 <_close_r>:
 8008c28:	b538      	push	{r3, r4, r5, lr}
 8008c2a:	4d06      	ldr	r5, [pc, #24]	; (8008c44 <_close_r+0x1c>)
 8008c2c:	2300      	movs	r3, #0
 8008c2e:	4604      	mov	r4, r0
 8008c30:	4608      	mov	r0, r1
 8008c32:	602b      	str	r3, [r5, #0]
 8008c34:	f7f9 fbe9 	bl	800240a <_close>
 8008c38:	1c43      	adds	r3, r0, #1
 8008c3a:	d102      	bne.n	8008c42 <_close_r+0x1a>
 8008c3c:	682b      	ldr	r3, [r5, #0]
 8008c3e:	b103      	cbz	r3, 8008c42 <_close_r+0x1a>
 8008c40:	6023      	str	r3, [r4, #0]
 8008c42:	bd38      	pop	{r3, r4, r5, pc}
 8008c44:	2000054c 	.word	0x2000054c

08008c48 <_fstat_r>:
 8008c48:	b538      	push	{r3, r4, r5, lr}
 8008c4a:	4d07      	ldr	r5, [pc, #28]	; (8008c68 <_fstat_r+0x20>)
 8008c4c:	2300      	movs	r3, #0
 8008c4e:	4604      	mov	r4, r0
 8008c50:	4608      	mov	r0, r1
 8008c52:	4611      	mov	r1, r2
 8008c54:	602b      	str	r3, [r5, #0]
 8008c56:	f7f9 fbe4 	bl	8002422 <_fstat>
 8008c5a:	1c43      	adds	r3, r0, #1
 8008c5c:	d102      	bne.n	8008c64 <_fstat_r+0x1c>
 8008c5e:	682b      	ldr	r3, [r5, #0]
 8008c60:	b103      	cbz	r3, 8008c64 <_fstat_r+0x1c>
 8008c62:	6023      	str	r3, [r4, #0]
 8008c64:	bd38      	pop	{r3, r4, r5, pc}
 8008c66:	bf00      	nop
 8008c68:	2000054c 	.word	0x2000054c

08008c6c <_isatty_r>:
 8008c6c:	b538      	push	{r3, r4, r5, lr}
 8008c6e:	4d06      	ldr	r5, [pc, #24]	; (8008c88 <_isatty_r+0x1c>)
 8008c70:	2300      	movs	r3, #0
 8008c72:	4604      	mov	r4, r0
 8008c74:	4608      	mov	r0, r1
 8008c76:	602b      	str	r3, [r5, #0]
 8008c78:	f7f9 fbe3 	bl	8002442 <_isatty>
 8008c7c:	1c43      	adds	r3, r0, #1
 8008c7e:	d102      	bne.n	8008c86 <_isatty_r+0x1a>
 8008c80:	682b      	ldr	r3, [r5, #0]
 8008c82:	b103      	cbz	r3, 8008c86 <_isatty_r+0x1a>
 8008c84:	6023      	str	r3, [r4, #0]
 8008c86:	bd38      	pop	{r3, r4, r5, pc}
 8008c88:	2000054c 	.word	0x2000054c

08008c8c <_lseek_r>:
 8008c8c:	b538      	push	{r3, r4, r5, lr}
 8008c8e:	4d07      	ldr	r5, [pc, #28]	; (8008cac <_lseek_r+0x20>)
 8008c90:	4604      	mov	r4, r0
 8008c92:	4608      	mov	r0, r1
 8008c94:	4611      	mov	r1, r2
 8008c96:	2200      	movs	r2, #0
 8008c98:	602a      	str	r2, [r5, #0]
 8008c9a:	461a      	mov	r2, r3
 8008c9c:	f7f9 fbdc 	bl	8002458 <_lseek>
 8008ca0:	1c43      	adds	r3, r0, #1
 8008ca2:	d102      	bne.n	8008caa <_lseek_r+0x1e>
 8008ca4:	682b      	ldr	r3, [r5, #0]
 8008ca6:	b103      	cbz	r3, 8008caa <_lseek_r+0x1e>
 8008ca8:	6023      	str	r3, [r4, #0]
 8008caa:	bd38      	pop	{r3, r4, r5, pc}
 8008cac:	2000054c 	.word	0x2000054c

08008cb0 <_read_r>:
 8008cb0:	b538      	push	{r3, r4, r5, lr}
 8008cb2:	4d07      	ldr	r5, [pc, #28]	; (8008cd0 <_read_r+0x20>)
 8008cb4:	4604      	mov	r4, r0
 8008cb6:	4608      	mov	r0, r1
 8008cb8:	4611      	mov	r1, r2
 8008cba:	2200      	movs	r2, #0
 8008cbc:	602a      	str	r2, [r5, #0]
 8008cbe:	461a      	mov	r2, r3
 8008cc0:	f7f9 fb6a 	bl	8002398 <_read>
 8008cc4:	1c43      	adds	r3, r0, #1
 8008cc6:	d102      	bne.n	8008cce <_read_r+0x1e>
 8008cc8:	682b      	ldr	r3, [r5, #0]
 8008cca:	b103      	cbz	r3, 8008cce <_read_r+0x1e>
 8008ccc:	6023      	str	r3, [r4, #0]
 8008cce:	bd38      	pop	{r3, r4, r5, pc}
 8008cd0:	2000054c 	.word	0x2000054c

08008cd4 <_init>:
 8008cd4:	b5f8      	push	{r3, r4, r5, r6, r7, lr}
 8008cd6:	bf00      	nop
 8008cd8:	bcf8      	pop	{r3, r4, r5, r6, r7}
 8008cda:	bc08      	pop	{r3}
 8008cdc:	469e      	mov	lr, r3
 8008cde:	4770      	bx	lr

08008ce0 <_fini>:
 8008ce0:	b5f8      	push	{r3, r4, r5, r6, r7, lr}
 8008ce2:	bf00      	nop
 8008ce4:	bcf8      	pop	{r3, r4, r5, r6, r7}
 8008ce6:	bc08      	pop	{r3}
 8008ce8:	469e      	mov	lr, r3
 8008cea:	4770      	bx	lr
