
UltrasonicVest.elf:     file format elf32-littlearm

Sections:
Idx Name          Size      VMA       LMA       File off  Algn
  0 .isr_vector   000001c4  08000000  08000000  00010000  2**0
                  CONTENTS, ALLOC, LOAD, READONLY, DATA
  1 .text         00006f54  080001d0  080001d0  000101d0  2**4
                  CONTENTS, ALLOC, LOAD, READONLY, CODE
  2 .rodata       0000046c  08007128  08007128  00017128  2**3
                  CONTENTS, ALLOC, LOAD, READONLY, DATA
  3 .ARM.extab    00000000  08007594  08007594  000201dc  2**0
                  CONTENTS
  4 .ARM          00000008  08007594  08007594  00017594  2**2
                  CONTENTS, ALLOC, LOAD, READONLY, DATA
  5 .preinit_array 00000000  0800759c  0800759c  000201dc  2**0
                  CONTENTS, ALLOC, LOAD, DATA
  6 .init_array   00000004  0800759c  0800759c  0001759c  2**2
                  CONTENTS, ALLOC, LOAD, DATA
  7 .fini_array   00000004  080075a0  080075a0  000175a0  2**2
                  CONTENTS, ALLOC, LOAD, DATA
  8 .data         000001dc  20000000  080075a4  00020000  2**2
                  CONTENTS, ALLOC, LOAD, DATA
  9 .bss          000001a0  200001dc  08007780  000201dc  2**2
                  ALLOC
 10 ._user_heap_stack 00000604  2000037c  08007780  0002037c  2**0
                  ALLOC
 11 .ARM.attributes 00000030  00000000  00000000  000201dc  2**0
                  CONTENTS, READONLY
 12 .debug_info   0001123d  00000000  00000000  0002020c  2**0
                  CONTENTS, READONLY, DEBUGGING, OCTETS
 13 .debug_abbrev 00002308  00000000  00000000  00031449  2**0
                  CONTENTS, READONLY, DEBUGGING, OCTETS
 14 .debug_aranges 00000d20  00000000  00000000  00033758  2**3
                  CONTENTS, READONLY, DEBUGGING, OCTETS
 15 .debug_ranges 00000c30  00000000  00000000  00034478  2**3
                  CONTENTS, READONLY, DEBUGGING, OCTETS
 16 .debug_macro  000230fc  00000000  00000000  000350a8  2**0
                  CONTENTS, READONLY, DEBUGGING, OCTETS
 17 .debug_line   000105cd  00000000  00000000  000581a4  2**0
                  CONTENTS, READONLY, DEBUGGING, OCTETS
 18 .debug_str    000d23e6  00000000  00000000  00068771  2**0
                  CONTENTS, READONLY, DEBUGGING, OCTETS
 19 .comment      00000053  00000000  00000000  0013ab57  2**0
                  CONTENTS, READONLY
 20 .debug_frame  000047bc  00000000  00000000  0013abac  2**2
                  CONTENTS, READONLY, DEBUGGING, OCTETS

Disassembly of section .text:

080001d0 <__do_global_dtors_aux>:
 80001d0:	b510      	push	{r4, lr}
 80001d2:	4c05      	ldr	r4, [pc, #20]	; (80001e8 <__do_global_dtors_aux+0x18>)
 80001d4:	7823      	ldrb	r3, [r4, #0]
 80001d6:	b933      	cbnz	r3, 80001e6 <__do_global_dtors_aux+0x16>
 80001d8:	4b04      	ldr	r3, [pc, #16]	; (80001ec <__do_global_dtors_aux+0x1c>)
 80001da:	b113      	cbz	r3, 80001e2 <__do_global_dtors_aux+0x12>
 80001dc:	4804      	ldr	r0, [pc, #16]	; (80001f0 <__do_global_dtors_aux+0x20>)
 80001de:	f3af 8000 	nop.w
 80001e2:	2301      	movs	r3, #1
 80001e4:	7023      	strb	r3, [r4, #0]
 80001e6:	bd10      	pop	{r4, pc}
 80001e8:	200001dc 	.word	0x200001dc
 80001ec:	00000000 	.word	0x00000000
 80001f0:	0800710c 	.word	0x0800710c

080001f4 <frame_dummy>:
 80001f4:	b508      	push	{r3, lr}
 80001f6:	4b03      	ldr	r3, [pc, #12]	; (8000204 <frame_dummy+0x10>)
 80001f8:	b11b      	cbz	r3, 8000202 <frame_dummy+0xe>
 80001fa:	4903      	ldr	r1, [pc, #12]	; (8000208 <frame_dummy+0x14>)
 80001fc:	4803      	ldr	r0, [pc, #12]	; (800020c <frame_dummy+0x18>)
 80001fe:	f3af 8000 	nop.w
 8000202:	bd08      	pop	{r3, pc}
 8000204:	00000000 	.word	0x00000000
 8000208:	200001e0 	.word	0x200001e0
 800020c:	0800710c 	.word	0x0800710c

08000210 <strlen>:
 8000210:	4603      	mov	r3, r0
 8000212:	f813 2b01 	ldrb.w	r2, [r3], #1
 8000216:	2a00      	cmp	r2, #0
 8000218:	d1fb      	bne.n	8000212 <strlen+0x2>
 800021a:	1a18      	subs	r0, r3, r0
 800021c:	3801      	subs	r0, #1
 800021e:	4770      	bx	lr

08000220 <memchr>:
 8000220:	f001 01ff 	and.w	r1, r1, #255	; 0xff
 8000224:	2a10      	cmp	r2, #16
 8000226:	db2b      	blt.n	8000280 <memchr+0x60>
 8000228:	f010 0f07 	tst.w	r0, #7
 800022c:	d008      	beq.n	8000240 <memchr+0x20>
 800022e:	f810 3b01 	ldrb.w	r3, [r0], #1
 8000232:	3a01      	subs	r2, #1
 8000234:	428b      	cmp	r3, r1
 8000236:	d02d      	beq.n	8000294 <memchr+0x74>
 8000238:	f010 0f07 	tst.w	r0, #7
 800023c:	b342      	cbz	r2, 8000290 <memchr+0x70>
 800023e:	d1f6      	bne.n	800022e <memchr+0xe>
 8000240:	b4f0      	push	{r4, r5, r6, r7}
 8000242:	ea41 2101 	orr.w	r1, r1, r1, lsl #8
 8000246:	ea41 4101 	orr.w	r1, r1, r1, lsl #16
 800024a:	f022 0407 	bic.w	r4, r2, #7
 800024e:	f07f 0700 	mvns.w	r7, #0
 8000252:	2300      	movs	r3, #0
 8000254:	e8f0 5602 	ldrd	r5, r6, [r0], #8
 8000258:	3c08      	subs	r4, #8
 800025a:	ea85 0501 	eor.w	r5, r5, r1
 800025e:	ea86 0601 	eor.w	r6, r6, r1
 8000262:	fa85 f547 	uadd8	r5, r5, r7
 8000266:	faa3 f587 	sel	r5, r3, r7
 800026a:	fa86 f647 	uadd8	r6, r6, r7
 800026e:	faa5 f687 	sel	r6, r5, r7
 8000272:	b98e      	cbnz	r6, 8000298 <memchr+0x78>
 8000274:	d1ee      	bne.n	8000254 <memchr+0x34>
 8000276:	bcf0      	pop	{r4, r5, r6, r7}
 8000278:	f001 01ff 	and.w	r1, r1, #255	; 0xff
 800027c:	f002 0207 	and.w	r2, r2, #7
 8000280:	b132      	cbz	r2, 8000290 <memchr+0x70>
 8000282:	f810 3b01 	ldrb.w	r3, [r0], #1
 8000286:	3a01      	subs	r2, #1
 8000288:	ea83 0301 	eor.w	r3, r3, r1
 800028c:	b113      	cbz	r3, 8000294 <memchr+0x74>
 800028e:	d1f8      	bne.n	8000282 <memchr+0x62>
 8000290:	2000      	movs	r0, #0
 8000292:	4770      	bx	lr
 8000294:	3801      	subs	r0, #1
 8000296:	4770      	bx	lr
 8000298:	2d00      	cmp	r5, #0
 800029a:	bf06      	itte	eq
 800029c:	4635      	moveq	r5, r6
 800029e:	3803      	subeq	r0, #3
 80002a0:	3807      	subne	r0, #7
 80002a2:	f015 0f01 	tst.w	r5, #1
 80002a6:	d107      	bne.n	80002b8 <memchr+0x98>
 80002a8:	3001      	adds	r0, #1
 80002aa:	f415 7f80 	tst.w	r5, #256	; 0x100
 80002ae:	bf02      	ittt	eq
 80002b0:	3001      	addeq	r0, #1
 80002b2:	f415 3fc0 	tsteq.w	r5, #98304	; 0x18000
 80002b6:	3001      	addeq	r0, #1
 80002b8:	bcf0      	pop	{r4, r5, r6, r7}
 80002ba:	3801      	subs	r0, #1
 80002bc:	4770      	bx	lr
 80002be:	bf00      	nop

080002c0 <__aeabi_drsub>:
 80002c0:	f081 4100 	eor.w	r1, r1, #2147483648	; 0x80000000
 80002c4:	e002      	b.n	80002cc <__adddf3>
 80002c6:	bf00      	nop

080002c8 <__aeabi_dsub>:
 80002c8:	f083 4300 	eor.w	r3, r3, #2147483648	; 0x80000000

080002cc <__adddf3>:
 80002cc:	b530      	push	{r4, r5, lr}
 80002ce:	ea4f 0441 	mov.w	r4, r1, lsl #1
 80002d2:	ea4f 0543 	mov.w	r5, r3, lsl #1
 80002d6:	ea94 0f05 	teq	r4, r5
 80002da:	bf08      	it	eq
 80002dc:	ea90 0f02 	teqeq	r0, r2
 80002e0:	bf1f      	itttt	ne
 80002e2:	ea54 0c00 	orrsne.w	ip, r4, r0
 80002e6:	ea55 0c02 	orrsne.w	ip, r5, r2
 80002ea:	ea7f 5c64 	mvnsne.w	ip, r4, asr #21
 80002ee:	ea7f 5c65 	mvnsne.w	ip, r5, asr #21
 80002f2:	f000 80e2 	beq.w	80004ba <__adddf3+0x1ee>
 80002f6:	ea4f 5454 	mov.w	r4, r4, lsr #21
 80002fa:	ebd4 5555 	rsbs	r5, r4, r5, lsr #21
 80002fe:	bfb8      	it	lt
 8000300:	426d      	neglt	r5, r5
 8000302:	dd0c      	ble.n	800031e <__adddf3+0x52>
 8000304:	442c      	add	r4, r5
 8000306:	ea80 0202 	eor.w	r2, r0, r2
 800030a:	ea81 0303 	eor.w	r3, r1, r3
 800030e:	ea82 0000 	eor.w	r0, r2, r0
 8000312:	ea83 0101 	eor.w	r1, r3, r1
 8000316:	ea80 0202 	eor.w	r2, r0, r2
 800031a:	ea81 0303 	eor.w	r3, r1, r3
 800031e:	2d36      	cmp	r5, #54	; 0x36
 8000320:	bf88      	it	hi
 8000322:	bd30      	pophi	{r4, r5, pc}
 8000324:	f011 4f00 	tst.w	r1, #2147483648	; 0x80000000
 8000328:	ea4f 3101 	mov.w	r1, r1, lsl #12
 800032c:	f44f 1c80 	mov.w	ip, #1048576	; 0x100000
 8000330:	ea4c 3111 	orr.w	r1, ip, r1, lsr #12
 8000334:	d002      	beq.n	800033c <__adddf3+0x70>
 8000336:	4240      	negs	r0, r0
 8000338:	eb61 0141 	sbc.w	r1, r1, r1, lsl #1
 800033c:	f013 4f00 	tst.w	r3, #2147483648	; 0x80000000
 8000340:	ea4f 3303 	mov.w	r3, r3, lsl #12
 8000344:	ea4c 3313 	orr.w	r3, ip, r3, lsr #12
 8000348:	d002      	beq.n	8000350 <__adddf3+0x84>
 800034a:	4252      	negs	r2, r2
 800034c:	eb63 0343 	sbc.w	r3, r3, r3, lsl #1
 8000350:	ea94 0f05 	teq	r4, r5
 8000354:	f000 80a7 	beq.w	80004a6 <__adddf3+0x1da>
 8000358:	f1a4 0401 	sub.w	r4, r4, #1
 800035c:	f1d5 0e20 	rsbs	lr, r5, #32
 8000360:	db0d      	blt.n	800037e <__adddf3+0xb2>
 8000362:	fa02 fc0e 	lsl.w	ip, r2, lr
 8000366:	fa22 f205 	lsr.w	r2, r2, r5
 800036a:	1880      	adds	r0, r0, r2
 800036c:	f141 0100 	adc.w	r1, r1, #0
 8000370:	fa03 f20e 	lsl.w	r2, r3, lr
 8000374:	1880      	adds	r0, r0, r2
 8000376:	fa43 f305 	asr.w	r3, r3, r5
 800037a:	4159      	adcs	r1, r3
 800037c:	e00e      	b.n	800039c <__adddf3+0xd0>
 800037e:	f1a5 0520 	sub.w	r5, r5, #32
 8000382:	f10e 0e20 	add.w	lr, lr, #32
 8000386:	2a01      	cmp	r2, #1
 8000388:	fa03 fc0e 	lsl.w	ip, r3, lr
 800038c:	bf28      	it	cs
 800038e:	f04c 0c02 	orrcs.w	ip, ip, #2
 8000392:	fa43 f305 	asr.w	r3, r3, r5
 8000396:	18c0      	adds	r0, r0, r3
 8000398:	eb51 71e3 	adcs.w	r1, r1, r3, asr #31
 800039c:	f001 4500 	and.w	r5, r1, #2147483648	; 0x80000000
 80003a0:	d507      	bpl.n	80003b2 <__adddf3+0xe6>
 80003a2:	f04f 0e00 	mov.w	lr, #0
 80003a6:	f1dc 0c00 	rsbs	ip, ip, #0
 80003aa:	eb7e 0000 	sbcs.w	r0, lr, r0
 80003ae:	eb6e 0101 	sbc.w	r1, lr, r1
 80003b2:	f5b1 1f80 	cmp.w	r1, #1048576	; 0x100000
 80003b6:	d31b      	bcc.n	80003f0 <__adddf3+0x124>
 80003b8:	f5b1 1f00 	cmp.w	r1, #2097152	; 0x200000
 80003bc:	d30c      	bcc.n	80003d8 <__adddf3+0x10c>
 80003be:	0849      	lsrs	r1, r1, #1
 80003c0:	ea5f 0030 	movs.w	r0, r0, rrx
 80003c4:	ea4f 0c3c 	mov.w	ip, ip, rrx
 80003c8:	f104 0401 	add.w	r4, r4, #1
 80003cc:	ea4f 5244 	mov.w	r2, r4, lsl #21
 80003d0:	f512 0f80 	cmn.w	r2, #4194304	; 0x400000
 80003d4:	f080 809a 	bcs.w	800050c <__adddf3+0x240>
 80003d8:	f1bc 4f00 	cmp.w	ip, #2147483648	; 0x80000000
 80003dc:	bf08      	it	eq
 80003de:	ea5f 0c50 	movseq.w	ip, r0, lsr #1
 80003e2:	f150 0000 	adcs.w	r0, r0, #0
 80003e6:	eb41 5104 	adc.w	r1, r1, r4, lsl #20
 80003ea:	ea41 0105 	orr.w	r1, r1, r5
 80003ee:	bd30      	pop	{r4, r5, pc}
 80003f0:	ea5f 0c4c 	movs.w	ip, ip, lsl #1
 80003f4:	4140      	adcs	r0, r0
 80003f6:	eb41 0101 	adc.w	r1, r1, r1
 80003fa:	3c01      	subs	r4, #1
 80003fc:	bf28      	it	cs
 80003fe:	f5b1 1f80 	cmpcs.w	r1, #1048576	; 0x100000
 8000402:	d2e9      	bcs.n	80003d8 <__adddf3+0x10c>
 8000404:	f091 0f00 	teq	r1, #0
 8000408:	bf04      	itt	eq
 800040a:	4601      	moveq	r1, r0
 800040c:	2000      	moveq	r0, #0
 800040e:	fab1 f381 	clz	r3, r1
 8000412:	bf08      	it	eq
 8000414:	3320      	addeq	r3, #32
 8000416:	f1a3 030b 	sub.w	r3, r3, #11
 800041a:	f1b3 0220 	subs.w	r2, r3, #32
 800041e:	da0c      	bge.n	800043a <__adddf3+0x16e>
 8000420:	320c      	adds	r2, #12
 8000422:	dd08      	ble.n	8000436 <__adddf3+0x16a>
 8000424:	f102 0c14 	add.w	ip, r2, #20
 8000428:	f1c2 020c 	rsb	r2, r2, #12
 800042c:	fa01 f00c 	lsl.w	r0, r1, ip
 8000430:	fa21 f102 	lsr.w	r1, r1, r2
 8000434:	e00c      	b.n	8000450 <__adddf3+0x184>
 8000436:	f102 0214 	add.w	r2, r2, #20
 800043a:	bfd8      	it	le
 800043c:	f1c2 0c20 	rsble	ip, r2, #32
 8000440:	fa01 f102 	lsl.w	r1, r1, r2
 8000444:	fa20 fc0c 	lsr.w	ip, r0, ip
 8000448:	bfdc      	itt	le
 800044a:	ea41 010c 	orrle.w	r1, r1, ip
 800044e:	4090      	lslle	r0, r2
 8000450:	1ae4      	subs	r4, r4, r3
 8000452:	bfa2      	ittt	ge
 8000454:	eb01 5104 	addge.w	r1, r1, r4, lsl #20
 8000458:	4329      	orrge	r1, r5
 800045a:	bd30      	popge	{r4, r5, pc}
 800045c:	ea6f 0404 	mvn.w	r4, r4
 8000460:	3c1f      	subs	r4, #31
 8000462:	da1c      	bge.n	800049e <__adddf3+0x1d2>
 8000464:	340c      	adds	r4, #12
 8000466:	dc0e      	bgt.n	8000486 <__adddf3+0x1ba>
 8000468:	f104 0414 	add.w	r4, r4, #20
 800046c:	f1c4 0220 	rsb	r2, r4, #32
 8000470:	fa20 f004 	lsr.w	r0, r0, r4
 8000474:	fa01 f302 	lsl.w	r3, r1, r2
 8000478:	ea40 0003 	orr.w	r0, r0, r3
 800047c:	fa21 f304 	lsr.w	r3, r1, r4
 8000480:	ea45 0103 	orr.w	r1, r5, r3
 8000484:	bd30      	pop	{r4, r5, pc}
 8000486:	f1c4 040c 	rsb	r4, r4, #12
 800048a:	f1c4 0220 	rsb	r2, r4, #32
 800048e:	fa20 f002 	lsr.w	r0, r0, r2
 8000492:	fa01 f304 	lsl.w	r3, r1, r4
 8000496:	ea40 0003 	orr.w	r0, r0, r3
 800049a:	4629      	mov	r1, r5
 800049c:	bd30      	pop	{r4, r5, pc}
 800049e:	fa21 f004 	lsr.w	r0, r1, r4
 80004a2:	4629      	mov	r1, r5
 80004a4:	bd30      	pop	{r4, r5, pc}
 80004a6:	f094 0f00 	teq	r4, #0
 80004aa:	f483 1380 	eor.w	r3, r3, #1048576	; 0x100000
 80004ae:	bf06      	itte	eq
 80004b0:	f481 1180 	eoreq.w	r1, r1, #1048576	; 0x100000
 80004b4:	3401      	addeq	r4, #1
 80004b6:	3d01      	subne	r5, #1
 80004b8:	e74e      	b.n	8000358 <__adddf3+0x8c>
 80004ba:	ea7f 5c64 	mvns.w	ip, r4, asr #21
 80004be:	bf18      	it	ne
 80004c0:	ea7f 5c65 	mvnsne.w	ip, r5, asr #21
 80004c4:	d029      	beq.n	800051a <__adddf3+0x24e>
 80004c6:	ea94 0f05 	teq	r4, r5
 80004ca:	bf08      	it	eq
 80004cc:	ea90 0f02 	teqeq	r0, r2
 80004d0:	d005      	beq.n	80004de <__adddf3+0x212>
 80004d2:	ea54 0c00 	orrs.w	ip, r4, r0
 80004d6:	bf04      	itt	eq
 80004d8:	4619      	moveq	r1, r3
 80004da:	4610      	moveq	r0, r2
 80004dc:	bd30      	pop	{r4, r5, pc}
 80004de:	ea91 0f03 	teq	r1, r3
 80004e2:	bf1e      	ittt	ne
 80004e4:	2100      	movne	r1, #0
 80004e6:	2000      	movne	r0, #0
 80004e8:	bd30      	popne	{r4, r5, pc}
 80004ea:	ea5f 5c54 	movs.w	ip, r4, lsr #21
 80004ee:	d105      	bne.n	80004fc <__adddf3+0x230>
 80004f0:	0040      	lsls	r0, r0, #1
 80004f2:	4149      	adcs	r1, r1
 80004f4:	bf28      	it	cs
 80004f6:	f041 4100 	orrcs.w	r1, r1, #2147483648	; 0x80000000
 80004fa:	bd30      	pop	{r4, r5, pc}
 80004fc:	f514 0480 	adds.w	r4, r4, #4194304	; 0x400000
 8000500:	bf3c      	itt	cc
 8000502:	f501 1180 	addcc.w	r1, r1, #1048576	; 0x100000
 8000506:	bd30      	popcc	{r4, r5, pc}
 8000508:	f001 4500 	and.w	r5, r1, #2147483648	; 0x80000000
 800050c:	f045 41fe 	orr.w	r1, r5, #2130706432	; 0x7f000000
 8000510:	f441 0170 	orr.w	r1, r1, #15728640	; 0xf00000
 8000514:	f04f 0000 	mov.w	r0, #0
 8000518:	bd30      	pop	{r4, r5, pc}
 800051a:	ea7f 5c64 	mvns.w	ip, r4, asr #21
 800051e:	bf1a      	itte	ne
 8000520:	4619      	movne	r1, r3
 8000522:	4610      	movne	r0, r2
 8000524:	ea7f 5c65 	mvnseq.w	ip, r5, asr #21
 8000528:	bf1c      	itt	ne
 800052a:	460b      	movne	r3, r1
 800052c:	4602      	movne	r2, r0
 800052e:	ea50 3401 	orrs.w	r4, r0, r1, lsl #12
 8000532:	bf06      	itte	eq
 8000534:	ea52 3503 	orrseq.w	r5, r2, r3, lsl #12
 8000538:	ea91 0f03 	teqeq	r1, r3
 800053c:	f441 2100 	orrne.w	r1, r1, #524288	; 0x80000
 8000540:	bd30      	pop	{r4, r5, pc}
 8000542:	bf00      	nop

08000544 <__aeabi_ui2d>:
 8000544:	f090 0f00 	teq	r0, #0
 8000548:	bf04      	itt	eq
 800054a:	2100      	moveq	r1, #0
 800054c:	4770      	bxeq	lr
 800054e:	b530      	push	{r4, r5, lr}
 8000550:	f44f 6480 	mov.w	r4, #1024	; 0x400
 8000554:	f104 0432 	add.w	r4, r4, #50	; 0x32
 8000558:	f04f 0500 	mov.w	r5, #0
 800055c:	f04f 0100 	mov.w	r1, #0
 8000560:	e750      	b.n	8000404 <__adddf3+0x138>
 8000562:	bf00      	nop

08000564 <__aeabi_i2d>:
 8000564:	f090 0f00 	teq	r0, #0
 8000568:	bf04      	itt	eq
 800056a:	2100      	moveq	r1, #0
 800056c:	4770      	bxeq	lr
 800056e:	b530      	push	{r4, r5, lr}
 8000570:	f44f 6480 	mov.w	r4, #1024	; 0x400
 8000574:	f104 0432 	add.w	r4, r4, #50	; 0x32
 8000578:	f010 4500 	ands.w	r5, r0, #2147483648	; 0x80000000
 800057c:	bf48      	it	mi
 800057e:	4240      	negmi	r0, r0
 8000580:	f04f 0100 	mov.w	r1, #0
 8000584:	e73e      	b.n	8000404 <__adddf3+0x138>
 8000586:	bf00      	nop

08000588 <__aeabi_f2d>:
 8000588:	0042      	lsls	r2, r0, #1
 800058a:	ea4f 01e2 	mov.w	r1, r2, asr #3
 800058e:	ea4f 0131 	mov.w	r1, r1, rrx
 8000592:	ea4f 7002 	mov.w	r0, r2, lsl #28
 8000596:	bf1f      	itttt	ne
 8000598:	f012 437f 	andsne.w	r3, r2, #4278190080	; 0xff000000
 800059c:	f093 4f7f 	teqne	r3, #4278190080	; 0xff000000
 80005a0:	f081 5160 	eorne.w	r1, r1, #939524096	; 0x38000000
 80005a4:	4770      	bxne	lr
 80005a6:	f032 427f 	bics.w	r2, r2, #4278190080	; 0xff000000
 80005aa:	bf08      	it	eq
 80005ac:	4770      	bxeq	lr
 80005ae:	f093 4f7f 	teq	r3, #4278190080	; 0xff000000
 80005b2:	bf04      	itt	eq
 80005b4:	f441 2100 	orreq.w	r1, r1, #524288	; 0x80000
 80005b8:	4770      	bxeq	lr
 80005ba:	b530      	push	{r4, r5, lr}
 80005bc:	f44f 7460 	mov.w	r4, #896	; 0x380
 80005c0:	f001 4500 	and.w	r5, r1, #2147483648	; 0x80000000
 80005c4:	f021 4100 	bic.w	r1, r1, #2147483648	; 0x80000000
 80005c8:	e71c      	b.n	8000404 <__adddf3+0x138>
 80005ca:	bf00      	nop

080005cc <__aeabi_ul2d>:
 80005cc:	ea50 0201 	orrs.w	r2, r0, r1
 80005d0:	bf08      	it	eq
 80005d2:	4770      	bxeq	lr
 80005d4:	b530      	push	{r4, r5, lr}
 80005d6:	f04f 0500 	mov.w	r5, #0
 80005da:	e00a      	b.n	80005f2 <__aeabi_l2d+0x16>

080005dc <__aeabi_l2d>:
 80005dc:	ea50 0201 	orrs.w	r2, r0, r1
 80005e0:	bf08      	it	eq
 80005e2:	4770      	bxeq	lr
 80005e4:	b530      	push	{r4, r5, lr}
 80005e6:	f011 4500 	ands.w	r5, r1, #2147483648	; 0x80000000
 80005ea:	d502      	bpl.n	80005f2 <__aeabi_l2d+0x16>
 80005ec:	4240      	negs	r0, r0
 80005ee:	eb61 0141 	sbc.w	r1, r1, r1, lsl #1
 80005f2:	f44f 6480 	mov.w	r4, #1024	; 0x400
 80005f6:	f104 0432 	add.w	r4, r4, #50	; 0x32
 80005fa:	ea5f 5c91 	movs.w	ip, r1, lsr #22
 80005fe:	f43f aed8 	beq.w	80003b2 <__adddf3+0xe6>
 8000602:	f04f 0203 	mov.w	r2, #3
 8000606:	ea5f 0cdc 	movs.w	ip, ip, lsr #3
 800060a:	bf18      	it	ne
 800060c:	3203      	addne	r2, #3
 800060e:	ea5f 0cdc 	movs.w	ip, ip, lsr #3
 8000612:	bf18      	it	ne
 8000614:	3203      	addne	r2, #3
 8000616:	eb02 02dc 	add.w	r2, r2, ip, lsr #3
 800061a:	f1c2 0320 	rsb	r3, r2, #32
 800061e:	fa00 fc03 	lsl.w	ip, r0, r3
 8000622:	fa20 f002 	lsr.w	r0, r0, r2
 8000626:	fa01 fe03 	lsl.w	lr, r1, r3
 800062a:	ea40 000e 	orr.w	r0, r0, lr
 800062e:	fa21 f102 	lsr.w	r1, r1, r2
 8000632:	4414      	add	r4, r2
 8000634:	e6bd      	b.n	80003b2 <__adddf3+0xe6>
 8000636:	bf00      	nop

08000638 <__aeabi_dmul>:
 8000638:	b570      	push	{r4, r5, r6, lr}
 800063a:	f04f 0cff 	mov.w	ip, #255	; 0xff
 800063e:	f44c 6ce0 	orr.w	ip, ip, #1792	; 0x700
 8000642:	ea1c 5411 	ands.w	r4, ip, r1, lsr #20
 8000646:	bf1d      	ittte	ne
 8000648:	ea1c 5513 	andsne.w	r5, ip, r3, lsr #20
 800064c:	ea94 0f0c 	teqne	r4, ip
 8000650:	ea95 0f0c 	teqne	r5, ip
 8000654:	f000 f8de 	bleq	8000814 <__aeabi_dmul+0x1dc>
 8000658:	442c      	add	r4, r5
 800065a:	ea81 0603 	eor.w	r6, r1, r3
 800065e:	ea21 514c 	bic.w	r1, r1, ip, lsl #21
 8000662:	ea23 534c 	bic.w	r3, r3, ip, lsl #21
 8000666:	ea50 3501 	orrs.w	r5, r0, r1, lsl #12
 800066a:	bf18      	it	ne
 800066c:	ea52 3503 	orrsne.w	r5, r2, r3, lsl #12
 8000670:	f441 1180 	orr.w	r1, r1, #1048576	; 0x100000
 8000674:	f443 1380 	orr.w	r3, r3, #1048576	; 0x100000
 8000678:	d038      	beq.n	80006ec <__aeabi_dmul+0xb4>
 800067a:	fba0 ce02 	umull	ip, lr, r0, r2
 800067e:	f04f 0500 	mov.w	r5, #0
 8000682:	fbe1 e502 	umlal	lr, r5, r1, r2
 8000686:	f006 4200 	and.w	r2, r6, #2147483648	; 0x80000000
 800068a:	fbe0 e503 	umlal	lr, r5, r0, r3
 800068e:	f04f 0600 	mov.w	r6, #0
 8000692:	fbe1 5603 	umlal	r5, r6, r1, r3
 8000696:	f09c 0f00 	teq	ip, #0
 800069a:	bf18      	it	ne
 800069c:	f04e 0e01 	orrne.w	lr, lr, #1
 80006a0:	f1a4 04ff 	sub.w	r4, r4, #255	; 0xff
 80006a4:	f5b6 7f00 	cmp.w	r6, #512	; 0x200
 80006a8:	f564 7440 	sbc.w	r4, r4, #768	; 0x300
 80006ac:	d204      	bcs.n	80006b8 <__aeabi_dmul+0x80>
 80006ae:	ea5f 0e4e 	movs.w	lr, lr, lsl #1
 80006b2:	416d      	adcs	r5, r5
 80006b4:	eb46 0606 	adc.w	r6, r6, r6
 80006b8:	ea42 21c6 	orr.w	r1, r2, r6, lsl #11
 80006bc:	ea41 5155 	orr.w	r1, r1, r5, lsr #21
 80006c0:	ea4f 20c5 	mov.w	r0, r5, lsl #11
 80006c4:	ea40 505e 	orr.w	r0, r0, lr, lsr #21
 80006c8:	ea4f 2ece 	mov.w	lr, lr, lsl #11
 80006cc:	f1b4 0cfd 	subs.w	ip, r4, #253	; 0xfd
 80006d0:	bf88      	it	hi
 80006d2:	f5bc 6fe0 	cmphi.w	ip, #1792	; 0x700
 80006d6:	d81e      	bhi.n	8000716 <__aeabi_dmul+0xde>
 80006d8:	f1be 4f00 	cmp.w	lr, #2147483648	; 0x80000000
 80006dc:	bf08      	it	eq
 80006de:	ea5f 0e50 	movseq.w	lr, r0, lsr #1
 80006e2:	f150 0000 	adcs.w	r0, r0, #0
 80006e6:	eb41 5104 	adc.w	r1, r1, r4, lsl #20
 80006ea:	bd70      	pop	{r4, r5, r6, pc}
 80006ec:	f006 4600 	and.w	r6, r6, #2147483648	; 0x80000000
 80006f0:	ea46 0101 	orr.w	r1, r6, r1
 80006f4:	ea40 0002 	orr.w	r0, r0, r2
 80006f8:	ea81 0103 	eor.w	r1, r1, r3
 80006fc:	ebb4 045c 	subs.w	r4, r4, ip, lsr #1
 8000700:	bfc2      	ittt	gt
 8000702:	ebd4 050c 	rsbsgt	r5, r4, ip
 8000706:	ea41 5104 	orrgt.w	r1, r1, r4, lsl #20
 800070a:	bd70      	popgt	{r4, r5, r6, pc}
 800070c:	f441 1180 	orr.w	r1, r1, #1048576	; 0x100000
 8000710:	f04f 0e00 	mov.w	lr, #0
 8000714:	3c01      	subs	r4, #1
 8000716:	f300 80ab 	bgt.w	8000870 <__aeabi_dmul+0x238>
 800071a:	f114 0f36 	cmn.w	r4, #54	; 0x36
 800071e:	bfde      	ittt	le
 8000720:	2000      	movle	r0, #0
 8000722:	f001 4100 	andle.w	r1, r1, #2147483648	; 0x80000000
 8000726:	bd70      	pople	{r4, r5, r6, pc}
 8000728:	f1c4 0400 	rsb	r4, r4, #0
 800072c:	3c20      	subs	r4, #32
 800072e:	da35      	bge.n	800079c <__aeabi_dmul+0x164>
 8000730:	340c      	adds	r4, #12
 8000732:	dc1b      	bgt.n	800076c <__aeabi_dmul+0x134>
 8000734:	f104 0414 	add.w	r4, r4, #20
 8000738:	f1c4 0520 	rsb	r5, r4, #32
 800073c:	fa00 f305 	lsl.w	r3, r0, r5
 8000740:	fa20 f004 	lsr.w	r0, r0, r4
 8000744:	fa01 f205 	lsl.w	r2, r1, r5
 8000748:	ea40 0002 	orr.w	r0, r0, r2
 800074c:	f001 4200 	and.w	r2, r1, #2147483648	; 0x80000000
 8000750:	f021 4100 	bic.w	r1, r1, #2147483648	; 0x80000000
 8000754:	eb10 70d3 	adds.w	r0, r0, r3, lsr #31
 8000758:	fa21 f604 	lsr.w	r6, r1, r4
 800075c:	eb42 0106 	adc.w	r1, r2, r6
 8000760:	ea5e 0e43 	orrs.w	lr, lr, r3, lsl #1
 8000764:	bf08      	it	eq
 8000766:	ea20 70d3 	biceq.w	r0, r0, r3, lsr #31
 800076a:	bd70      	pop	{r4, r5, r6, pc}
 800076c:	f1c4 040c 	rsb	r4, r4, #12
 8000770:	f1c4 0520 	rsb	r5, r4, #32
 8000774:	fa00 f304 	lsl.w	r3, r0, r4
 8000778:	fa20 f005 	lsr.w	r0, r0, r5
 800077c:	fa01 f204 	lsl.w	r2, r1, r4
 8000780:	ea40 0002 	orr.w	r0, r0, r2
 8000784:	f001 4100 	and.w	r1, r1, #2147483648	; 0x80000000
 8000788:	eb10 70d3 	adds.w	r0, r0, r3, lsr #31
 800078c:	f141 0100 	adc.w	r1, r1, #0
 8000790:	ea5e 0e43 	orrs.w	lr, lr, r3, lsl #1
 8000794:	bf08      	it	eq
 8000796:	ea20 70d3 	biceq.w	r0, r0, r3, lsr #31
 800079a:	bd70      	pop	{r4, r5, r6, pc}
 800079c:	f1c4 0520 	rsb	r5, r4, #32
 80007a0:	fa00 f205 	lsl.w	r2, r0, r5
 80007a4:	ea4e 0e02 	orr.w	lr, lr, r2
 80007a8:	fa20 f304 	lsr.w	r3, r0, r4
 80007ac:	fa01 f205 	lsl.w	r2, r1, r5
 80007b0:	ea43 0302 	orr.w	r3, r3, r2
 80007b4:	fa21 f004 	lsr.w	r0, r1, r4
 80007b8:	f001 4100 	and.w	r1, r1, #2147483648	; 0x80000000
 80007bc:	fa21 f204 	lsr.w	r2, r1, r4
 80007c0:	ea20 0002 	bic.w	r0, r0, r2
 80007c4:	eb00 70d3 	add.w	r0, r0, r3, lsr #31
 80007c8:	ea5e 0e43 	orrs.w	lr, lr, r3, lsl #1
 80007cc:	bf08      	it	eq
 80007ce:	ea20 70d3 	biceq.w	r0, r0, r3, lsr #31
 80007d2:	bd70      	pop	{r4, r5, r6, pc}
 80007d4:	f094 0f00 	teq	r4, #0
 80007d8:	d10f      	bne.n	80007fa <__aeabi_dmul+0x1c2>
 80007da:	f001 4600 	and.w	r6, r1, #2147483648	; 0x80000000
 80007de:	0040      	lsls	r0, r0, #1
 80007e0:	eb41 0101 	adc.w	r1, r1, r1
 80007e4:	f411 1f80 	tst.w	r1, #1048576	; 0x100000
 80007e8:	bf08      	it	eq
 80007ea:	3c01      	subeq	r4, #1
 80007ec:	d0f7      	beq.n	80007de <__aeabi_dmul+0x1a6>
 80007ee:	ea41 0106 	orr.w	r1, r1, r6
 80007f2:	f095 0f00 	teq	r5, #0
 80007f6:	bf18      	it	ne
 80007f8:	4770      	bxne	lr
 80007fa:	f003 4600 	and.w	r6, r3, #2147483648	; 0x80000000
 80007fe:	0052      	lsls	r2, r2, #1
 8000800:	eb43 0303 	adc.w	r3, r3, r3
 8000804:	f413 1f80 	tst.w	r3, #1048576	; 0x100000
 8000808:	bf08      	it	eq
 800080a:	3d01      	subeq	r5, #1
 800080c:	d0f7      	beq.n	80007fe <__aeabi_dmul+0x1c6>
 800080e:	ea43 0306 	orr.w	r3, r3, r6
 8000812:	4770      	bx	lr
 8000814:	ea94 0f0c 	teq	r4, ip
 8000818:	ea0c 5513 	and.w	r5, ip, r3, lsr #20
 800081c:	bf18      	it	ne
 800081e:	ea95 0f0c 	teqne	r5, ip
 8000822:	d00c      	beq.n	800083e <__aeabi_dmul+0x206>
 8000824:	ea50 0641 	orrs.w	r6, r0, r1, lsl #1
 8000828:	bf18      	it	ne
 800082a:	ea52 0643 	orrsne.w	r6, r2, r3, lsl #1
 800082e:	d1d1      	bne.n	80007d4 <__aeabi_dmul+0x19c>
 8000830:	ea81 0103 	eor.w	r1, r1, r3
 8000834:	f001 4100 	and.w	r1, r1, #2147483648	; 0x80000000
 8000838:	f04f 0000 	mov.w	r0, #0
 800083c:	bd70      	pop	{r4, r5, r6, pc}
 800083e:	ea50 0641 	orrs.w	r6, r0, r1, lsl #1
 8000842:	bf06      	itte	eq
 8000844:	4610      	moveq	r0, r2
 8000846:	4619      	moveq	r1, r3
 8000848:	ea52 0643 	orrsne.w	r6, r2, r3, lsl #1
 800084c:	d019      	beq.n	8000882 <__aeabi_dmul+0x24a>
 800084e:	ea94 0f0c 	teq	r4, ip
 8000852:	d102      	bne.n	800085a <__aeabi_dmul+0x222>
 8000854:	ea50 3601 	orrs.w	r6, r0, r1, lsl #12
 8000858:	d113      	bne.n	8000882 <__aeabi_dmul+0x24a>
 800085a:	ea95 0f0c 	teq	r5, ip
 800085e:	d105      	bne.n	800086c <__aeabi_dmul+0x234>
 8000860:	ea52 3603 	orrs.w	r6, r2, r3, lsl #12
 8000864:	bf1c      	itt	ne
 8000866:	4610      	movne	r0, r2
 8000868:	4619      	movne	r1, r3
 800086a:	d10a      	bne.n	8000882 <__aeabi_dmul+0x24a>
 800086c:	ea81 0103 	eor.w	r1, r1, r3
 8000870:	f001 4100 	and.w	r1, r1, #2147483648	; 0x80000000
 8000874:	f041 41fe 	orr.w	r1, r1, #2130706432	; 0x7f000000
 8000878:	f441 0170 	orr.w	r1, r1, #15728640	; 0xf00000
 800087c:	f04f 0000 	mov.w	r0, #0
 8000880:	bd70      	pop	{r4, r5, r6, pc}
 8000882:	f041 41fe 	orr.w	r1, r1, #2130706432	; 0x7f000000
 8000886:	f441 0178 	orr.w	r1, r1, #16252928	; 0xf80000
 800088a:	bd70      	pop	{r4, r5, r6, pc}

0800088c <__aeabi_ddiv>:
 800088c:	b570      	push	{r4, r5, r6, lr}
 800088e:	f04f 0cff 	mov.w	ip, #255	; 0xff
 8000892:	f44c 6ce0 	orr.w	ip, ip, #1792	; 0x700
 8000896:	ea1c 5411 	ands.w	r4, ip, r1, lsr #20
 800089a:	bf1d      	ittte	ne
 800089c:	ea1c 5513 	andsne.w	r5, ip, r3, lsr #20
 80008a0:	ea94 0f0c 	teqne	r4, ip
 80008a4:	ea95 0f0c 	teqne	r5, ip
 80008a8:	f000 f8a7 	bleq	80009fa <__aeabi_ddiv+0x16e>
 80008ac:	eba4 0405 	sub.w	r4, r4, r5
 80008b0:	ea81 0e03 	eor.w	lr, r1, r3
 80008b4:	ea52 3503 	orrs.w	r5, r2, r3, lsl #12
 80008b8:	ea4f 3101 	mov.w	r1, r1, lsl #12
 80008bc:	f000 8088 	beq.w	80009d0 <__aeabi_ddiv+0x144>
 80008c0:	ea4f 3303 	mov.w	r3, r3, lsl #12
 80008c4:	f04f 5580 	mov.w	r5, #268435456	; 0x10000000
 80008c8:	ea45 1313 	orr.w	r3, r5, r3, lsr #4
 80008cc:	ea43 6312 	orr.w	r3, r3, r2, lsr #24
 80008d0:	ea4f 2202 	mov.w	r2, r2, lsl #8
 80008d4:	ea45 1511 	orr.w	r5, r5, r1, lsr #4
 80008d8:	ea45 6510 	orr.w	r5, r5, r0, lsr #24
 80008dc:	ea4f 2600 	mov.w	r6, r0, lsl #8
 80008e0:	f00e 4100 	and.w	r1, lr, #2147483648	; 0x80000000
 80008e4:	429d      	cmp	r5, r3
 80008e6:	bf08      	it	eq
 80008e8:	4296      	cmpeq	r6, r2
 80008ea:	f144 04fd 	adc.w	r4, r4, #253	; 0xfd
 80008ee:	f504 7440 	add.w	r4, r4, #768	; 0x300
 80008f2:	d202      	bcs.n	80008fa <__aeabi_ddiv+0x6e>
 80008f4:	085b      	lsrs	r3, r3, #1
 80008f6:	ea4f 0232 	mov.w	r2, r2, rrx
 80008fa:	1ab6      	subs	r6, r6, r2
 80008fc:	eb65 0503 	sbc.w	r5, r5, r3
 8000900:	085b      	lsrs	r3, r3, #1
 8000902:	ea4f 0232 	mov.w	r2, r2, rrx
 8000906:	f44f 1080 	mov.w	r0, #1048576	; 0x100000
 800090a:	f44f 2c00 	mov.w	ip, #524288	; 0x80000
 800090e:	ebb6 0e02 	subs.w	lr, r6, r2
 8000912:	eb75 0e03 	sbcs.w	lr, r5, r3
 8000916:	bf22      	ittt	cs
 8000918:	1ab6      	subcs	r6, r6, r2
 800091a:	4675      	movcs	r5, lr
 800091c:	ea40 000c 	orrcs.w	r0, r0, ip
 8000920:	085b      	lsrs	r3, r3, #1
 8000922:	ea4f 0232 	mov.w	r2, r2, rrx
 8000926:	ebb6 0e02 	subs.w	lr, r6, r2
 800092a:	eb75 0e03 	sbcs.w	lr, r5, r3
 800092e:	bf22      	ittt	cs
 8000930:	1ab6      	subcs	r6, r6, r2
 8000932:	4675      	movcs	r5, lr
 8000934:	ea40 005c 	orrcs.w	r0, r0, ip, lsr #1
 8000938:	085b      	lsrs	r3, r3, #1
 800093a:	ea4f 0232 	mov.w	r2, r2, rrx
 800093e:	ebb6 0e02 	subs.w	lr, r6, r2
 8000942:	eb75 0e03 	sbcs.w	lr, r5, r3
 8000946:	bf22      	ittt	cs
 8000948:	1ab6      	subcs	r6, r6, r2
 800094a:	4675      	movcs	r5, lr
 800094c:	ea40 009c 	orrcs.w	r0, r0, ip, lsr #2
 8000950:	085b      	lsrs	r3, r3, #1
 8000952:	ea4f 0232 	mov.w	r2, r2, rrx
 8000956:	ebb6 0e02 	subs.w	lr, r6, r2
 800095a:	eb75 0e03 	sbcs.w	lr, r5, r3
 800095e:	bf22      	ittt	cs
 8000960:	1ab6      	subcs	r6, r6, r2
 8000962:	4675      	movcs	r5, lr
 8000964:	ea40 00dc 	orrcs.w	r0, r0, ip, lsr #3
 8000968:	ea55 0e06 	orrs.w	lr, r5, r6
 800096c:	d018      	beq.n	80009a0 <__aeabi_ddiv+0x114>
 800096e:	ea4f 1505 	mov.w	r5, r5, lsl #4
 8000972:	ea45 7516 	orr.w	r5, r5, r6, lsr #28
 8000976:	ea4f 1606 	mov.w	r6, r6, lsl #4
 800097a:	ea4f 03c3 	mov.w	r3, r3, lsl #3
 800097e:	ea43 7352 	orr.w	r3, r3, r2, lsr #29
 8000982:	ea4f 02c2 	mov.w	r2, r2, lsl #3
 8000986:	ea5f 1c1c 	movs.w	ip, ip, lsr #4
 800098a:	d1c0      	bne.n	800090e <__aeabi_ddiv+0x82>
 800098c:	f411 1f80 	tst.w	r1, #1048576	; 0x100000
 8000990:	d10b      	bne.n	80009aa <__aeabi_ddiv+0x11e>
 8000992:	ea41 0100 	orr.w	r1, r1, r0
 8000996:	f04f 0000 	mov.w	r0, #0
 800099a:	f04f 4c00 	mov.w	ip, #2147483648	; 0x80000000
 800099e:	e7b6      	b.n	800090e <__aeabi_ddiv+0x82>
 80009a0:	f411 1f80 	tst.w	r1, #1048576	; 0x100000
 80009a4:	bf04      	itt	eq
 80009a6:	4301      	orreq	r1, r0
 80009a8:	2000      	moveq	r0, #0
 80009aa:	f1b4 0cfd 	subs.w	ip, r4, #253	; 0xfd
 80009ae:	bf88      	it	hi
 80009b0:	f5bc 6fe0 	cmphi.w	ip, #1792	; 0x700
 80009b4:	f63f aeaf 	bhi.w	8000716 <__aeabi_dmul+0xde>
 80009b8:	ebb5 0c03 	subs.w	ip, r5, r3
 80009bc:	bf04      	itt	eq
 80009be:	ebb6 0c02 	subseq.w	ip, r6, r2
 80009c2:	ea5f 0c50 	movseq.w	ip, r0, lsr #1
 80009c6:	f150 0000 	adcs.w	r0, r0, #0
 80009ca:	eb41 5104 	adc.w	r1, r1, r4, lsl #20
 80009ce:	bd70      	pop	{r4, r5, r6, pc}
 80009d0:	f00e 4e00 	and.w	lr, lr, #2147483648	; 0x80000000
 80009d4:	ea4e 3111 	orr.w	r1, lr, r1, lsr #12
 80009d8:	eb14 045c 	adds.w	r4, r4, ip, lsr #1
 80009dc:	bfc2      	ittt	gt
 80009de:	ebd4 050c 	rsbsgt	r5, r4, ip
 80009e2:	ea41 5104 	orrgt.w	r1, r1, r4, lsl #20
 80009e6:	bd70      	popgt	{r4, r5, r6, pc}
 80009e8:	f441 1180 	orr.w	r1, r1, #1048576	; 0x100000
 80009ec:	f04f 0e00 	mov.w	lr, #0
 80009f0:	3c01      	subs	r4, #1
 80009f2:	e690      	b.n	8000716 <__aeabi_dmul+0xde>
 80009f4:	ea45 0e06 	orr.w	lr, r5, r6
 80009f8:	e68d      	b.n	8000716 <__aeabi_dmul+0xde>
 80009fa:	ea0c 5513 	and.w	r5, ip, r3, lsr #20
 80009fe:	ea94 0f0c 	teq	r4, ip
 8000a02:	bf08      	it	eq
 8000a04:	ea95 0f0c 	teqeq	r5, ip
 8000a08:	f43f af3b 	beq.w	8000882 <__aeabi_dmul+0x24a>
 8000a0c:	ea94 0f0c 	teq	r4, ip
 8000a10:	d10a      	bne.n	8000a28 <__aeabi_ddiv+0x19c>
 8000a12:	ea50 3401 	orrs.w	r4, r0, r1, lsl #12
 8000a16:	f47f af34 	bne.w	8000882 <__aeabi_dmul+0x24a>
 8000a1a:	ea95 0f0c 	teq	r5, ip
 8000a1e:	f47f af25 	bne.w	800086c <__aeabi_dmul+0x234>
 8000a22:	4610      	mov	r0, r2
 8000a24:	4619      	mov	r1, r3
 8000a26:	e72c      	b.n	8000882 <__aeabi_dmul+0x24a>
 8000a28:	ea95 0f0c 	teq	r5, ip
 8000a2c:	d106      	bne.n	8000a3c <__aeabi_ddiv+0x1b0>
 8000a2e:	ea52 3503 	orrs.w	r5, r2, r3, lsl #12
 8000a32:	f43f aefd 	beq.w	8000830 <__aeabi_dmul+0x1f8>
 8000a36:	4610      	mov	r0, r2
 8000a38:	4619      	mov	r1, r3
 8000a3a:	e722      	b.n	8000882 <__aeabi_dmul+0x24a>
 8000a3c:	ea50 0641 	orrs.w	r6, r0, r1, lsl #1
 8000a40:	bf18      	it	ne
 8000a42:	ea52 0643 	orrsne.w	r6, r2, r3, lsl #1
 8000a46:	f47f aec5 	bne.w	80007d4 <__aeabi_dmul+0x19c>
 8000a4a:	ea50 0441 	orrs.w	r4, r0, r1, lsl #1
 8000a4e:	f47f af0d 	bne.w	800086c <__aeabi_dmul+0x234>
 8000a52:	ea52 0543 	orrs.w	r5, r2, r3, lsl #1
 8000a56:	f47f aeeb 	bne.w	8000830 <__aeabi_dmul+0x1f8>
 8000a5a:	e712      	b.n	8000882 <__aeabi_dmul+0x24a>

08000a5c <__gedf2>:
 8000a5c:	f04f 3cff 	mov.w	ip, #4294967295	; 0xffffffff
 8000a60:	e006      	b.n	8000a70 <__cmpdf2+0x4>
 8000a62:	bf00      	nop

08000a64 <__ledf2>:
 8000a64:	f04f 0c01 	mov.w	ip, #1
 8000a68:	e002      	b.n	8000a70 <__cmpdf2+0x4>
 8000a6a:	bf00      	nop

08000a6c <__cmpdf2>:
 8000a6c:	f04f 0c01 	mov.w	ip, #1
 8000a70:	f84d cd04 	str.w	ip, [sp, #-4]!
 8000a74:	ea4f 0c41 	mov.w	ip, r1, lsl #1
 8000a78:	ea7f 5c6c 	mvns.w	ip, ip, asr #21
 8000a7c:	ea4f 0c43 	mov.w	ip, r3, lsl #1
 8000a80:	bf18      	it	ne
 8000a82:	ea7f 5c6c 	mvnsne.w	ip, ip, asr #21
 8000a86:	d01b      	beq.n	8000ac0 <__cmpdf2+0x54>
 8000a88:	b001      	add	sp, #4
 8000a8a:	ea50 0c41 	orrs.w	ip, r0, r1, lsl #1
 8000a8e:	bf0c      	ite	eq
 8000a90:	ea52 0c43 	orrseq.w	ip, r2, r3, lsl #1
 8000a94:	ea91 0f03 	teqne	r1, r3
 8000a98:	bf02      	ittt	eq
 8000a9a:	ea90 0f02 	teqeq	r0, r2
 8000a9e:	2000      	moveq	r0, #0
 8000aa0:	4770      	bxeq	lr
 8000aa2:	f110 0f00 	cmn.w	r0, #0
 8000aa6:	ea91 0f03 	teq	r1, r3
 8000aaa:	bf58      	it	pl
 8000aac:	4299      	cmppl	r1, r3
 8000aae:	bf08      	it	eq
 8000ab0:	4290      	cmpeq	r0, r2
 8000ab2:	bf2c      	ite	cs
 8000ab4:	17d8      	asrcs	r0, r3, #31
 8000ab6:	ea6f 70e3 	mvncc.w	r0, r3, asr #31
 8000aba:	f040 0001 	orr.w	r0, r0, #1
 8000abe:	4770      	bx	lr
 8000ac0:	ea4f 0c41 	mov.w	ip, r1, lsl #1
 8000ac4:	ea7f 5c6c 	mvns.w	ip, ip, asr #21
 8000ac8:	d102      	bne.n	8000ad0 <__cmpdf2+0x64>
 8000aca:	ea50 3c01 	orrs.w	ip, r0, r1, lsl #12
 8000ace:	d107      	bne.n	8000ae0 <__cmpdf2+0x74>
 8000ad0:	ea4f 0c43 	mov.w	ip, r3, lsl #1
 8000ad4:	ea7f 5c6c 	mvns.w	ip, ip, asr #21
 8000ad8:	d1d6      	bne.n	8000a88 <__cmpdf2+0x1c>
 8000ada:	ea52 3c03 	orrs.w	ip, r2, r3, lsl #12
 8000ade:	d0d3      	beq.n	8000a88 <__cmpdf2+0x1c>
 8000ae0:	f85d 0b04 	ldr.w	r0, [sp], #4
 8000ae4:	4770      	bx	lr
 8000ae6:	bf00      	nop

08000ae8 <__aeabi_cdrcmple>:
 8000ae8:	4684      	mov	ip, r0
 8000aea:	4610      	mov	r0, r2
 8000aec:	4662      	mov	r2, ip
 8000aee:	468c      	mov	ip, r1
 8000af0:	4619      	mov	r1, r3
 8000af2:	4663      	mov	r3, ip
 8000af4:	e000      	b.n	8000af8 <__aeabi_cdcmpeq>
 8000af6:	bf00      	nop

08000af8 <__aeabi_cdcmpeq>:
 8000af8:	b501      	push	{r0, lr}
 8000afa:	f7ff ffb7 	bl	8000a6c <__cmpdf2>
 8000afe:	2800      	cmp	r0, #0
 8000b00:	bf48      	it	mi
 8000b02:	f110 0f00 	cmnmi.w	r0, #0
 8000b06:	bd01      	pop	{r0, pc}

08000b08 <__aeabi_dcmpeq>:
 8000b08:	f84d ed08 	str.w	lr, [sp, #-8]!
 8000b0c:	f7ff fff4 	bl	8000af8 <__aeabi_cdcmpeq>
 8000b10:	bf0c      	ite	eq
 8000b12:	2001      	moveq	r0, #1
 8000b14:	2000      	movne	r0, #0
 8000b16:	f85d fb08 	ldr.w	pc, [sp], #8
 8000b1a:	bf00      	nop

08000b1c <__aeabi_dcmplt>:
 8000b1c:	f84d ed08 	str.w	lr, [sp, #-8]!
 8000b20:	f7ff ffea 	bl	8000af8 <__aeabi_cdcmpeq>
 8000b24:	bf34      	ite	cc
 8000b26:	2001      	movcc	r0, #1
 8000b28:	2000      	movcs	r0, #0
 8000b2a:	f85d fb08 	ldr.w	pc, [sp], #8
 8000b2e:	bf00      	nop

08000b30 <__aeabi_dcmple>:
 8000b30:	f84d ed08 	str.w	lr, [sp, #-8]!
 8000b34:	f7ff ffe0 	bl	8000af8 <__aeabi_cdcmpeq>
 8000b38:	bf94      	ite	ls
 8000b3a:	2001      	movls	r0, #1
 8000b3c:	2000      	movhi	r0, #0
 8000b3e:	f85d fb08 	ldr.w	pc, [sp], #8
 8000b42:	bf00      	nop

08000b44 <__aeabi_dcmpge>:
 8000b44:	f84d ed08 	str.w	lr, [sp, #-8]!
 8000b48:	f7ff ffce 	bl	8000ae8 <__aeabi_cdrcmple>
 8000b4c:	bf94      	ite	ls
 8000b4e:	2001      	movls	r0, #1
 8000b50:	2000      	movhi	r0, #0
 8000b52:	f85d fb08 	ldr.w	pc, [sp], #8
 8000b56:	bf00      	nop

08000b58 <__aeabi_dcmpgt>:
 8000b58:	f84d ed08 	str.w	lr, [sp, #-8]!
 8000b5c:	f7ff ffc4 	bl	8000ae8 <__aeabi_cdrcmple>
 8000b60:	bf34      	ite	cc
 8000b62:	2001      	movcc	r0, #1
 8000b64:	2000      	movcs	r0, #0
 8000b66:	f85d fb08 	ldr.w	pc, [sp], #8
 8000b6a:	bf00      	nop

08000b6c <__aeabi_dcmpun>:
 8000b6c:	ea4f 0c41 	mov.w	ip, r1, lsl #1
 8000b70:	ea7f 5c6c 	mvns.w	ip, ip, asr #21
 8000b74:	d102      	bne.n	8000b7c <__aeabi_dcmpun+0x10>
 8000b76:	ea50 3c01 	orrs.w	ip, r0, r1, lsl #12
 8000b7a:	d10a      	bne.n	8000b92 <__aeabi_dcmpun+0x26>
 8000b7c:	ea4f 0c43 	mov.w	ip, r3, lsl #1
 8000b80:	ea7f 5c6c 	mvns.w	ip, ip, asr #21
 8000b84:	d102      	bne.n	8000b8c <__aeabi_dcmpun+0x20>
 8000b86:	ea52 3c03 	orrs.w	ip, r2, r3, lsl #12
 8000b8a:	d102      	bne.n	8000b92 <__aeabi_dcmpun+0x26>
 8000b8c:	f04f 0000 	mov.w	r0, #0
 8000b90:	4770      	bx	lr
 8000b92:	f04f 0001 	mov.w	r0, #1
 8000b96:	4770      	bx	lr

08000b98 <__aeabi_d2iz>:
 8000b98:	ea4f 0241 	mov.w	r2, r1, lsl #1
 8000b9c:	f512 1200 	adds.w	r2, r2, #2097152	; 0x200000
 8000ba0:	d215      	bcs.n	8000bce <__aeabi_d2iz+0x36>
 8000ba2:	d511      	bpl.n	8000bc8 <__aeabi_d2iz+0x30>
 8000ba4:	f46f 7378 	mvn.w	r3, #992	; 0x3e0
 8000ba8:	ebb3 5262 	subs.w	r2, r3, r2, asr #21
 8000bac:	d912      	bls.n	8000bd4 <__aeabi_d2iz+0x3c>
 8000bae:	ea4f 23c1 	mov.w	r3, r1, lsl #11
 8000bb2:	f043 4300 	orr.w	r3, r3, #2147483648	; 0x80000000
 8000bb6:	ea43 5350 	orr.w	r3, r3, r0, lsr #21
 8000bba:	f011 4f00 	tst.w	r1, #2147483648	; 0x80000000
 8000bbe:	fa23 f002 	lsr.w	r0, r3, r2
 8000bc2:	bf18      	it	ne
 8000bc4:	4240      	negne	r0, r0
 8000bc6:	4770      	bx	lr
 8000bc8:	f04f 0000 	mov.w	r0, #0
 8000bcc:	4770      	bx	lr
 8000bce:	ea50 3001 	orrs.w	r0, r0, r1, lsl #12
 8000bd2:	d105      	bne.n	8000be0 <__aeabi_d2iz+0x48>
 8000bd4:	f011 4000 	ands.w	r0, r1, #2147483648	; 0x80000000
 8000bd8:	bf08      	it	eq
 8000bda:	f06f 4000 	mvneq.w	r0, #2147483648	; 0x80000000
 8000bde:	4770      	bx	lr
 8000be0:	f04f 0000 	mov.w	r0, #0
 8000be4:	4770      	bx	lr
 8000be6:	bf00      	nop

08000be8 <__aeabi_uldivmod>:
 8000be8:	b953      	cbnz	r3, 8000c00 <__aeabi_uldivmod+0x18>
 8000bea:	b94a      	cbnz	r2, 8000c00 <__aeabi_uldivmod+0x18>
 8000bec:	2900      	cmp	r1, #0
 8000bee:	bf08      	it	eq
 8000bf0:	2800      	cmpeq	r0, #0
 8000bf2:	bf1c      	itt	ne
 8000bf4:	f04f 31ff 	movne.w	r1, #4294967295	; 0xffffffff
 8000bf8:	f04f 30ff 	movne.w	r0, #4294967295	; 0xffffffff
 8000bfc:	f000 b96e 	b.w	8000edc <__aeabi_idiv0>
 8000c00:	f1ad 0c08 	sub.w	ip, sp, #8
 8000c04:	e96d ce04 	strd	ip, lr, [sp, #-16]!
 8000c08:	f000 f806 	bl	8000c18 <__udivmoddi4>
 8000c0c:	f8dd e004 	ldr.w	lr, [sp, #4]
 8000c10:	e9dd 2302 	ldrd	r2, r3, [sp, #8]
 8000c14:	b004      	add	sp, #16
 8000c16:	4770      	bx	lr

08000c18 <__udivmoddi4>:
 8000c18:	e92d 47f0 	stmdb	sp!, {r4, r5, r6, r7, r8, r9, sl, lr}
 8000c1c:	9d08      	ldr	r5, [sp, #32]
 8000c1e:	4604      	mov	r4, r0
 8000c20:	468c      	mov	ip, r1
 8000c22:	2b00      	cmp	r3, #0
 8000c24:	f040 8083 	bne.w	8000d2e <__udivmoddi4+0x116>
 8000c28:	428a      	cmp	r2, r1
 8000c2a:	4617      	mov	r7, r2
 8000c2c:	d947      	bls.n	8000cbe <__udivmoddi4+0xa6>
 8000c2e:	fab2 f282 	clz	r2, r2
 8000c32:	b142      	cbz	r2, 8000c46 <__udivmoddi4+0x2e>
 8000c34:	f1c2 0020 	rsb	r0, r2, #32
 8000c38:	fa24 f000 	lsr.w	r0, r4, r0
 8000c3c:	4091      	lsls	r1, r2
 8000c3e:	4097      	lsls	r7, r2
 8000c40:	ea40 0c01 	orr.w	ip, r0, r1
 8000c44:	4094      	lsls	r4, r2
 8000c46:	ea4f 4817 	mov.w	r8, r7, lsr #16
 8000c4a:	0c23      	lsrs	r3, r4, #16
 8000c4c:	fbbc f6f8 	udiv	r6, ip, r8
 8000c50:	fa1f fe87 	uxth.w	lr, r7
 8000c54:	fb08 c116 	mls	r1, r8, r6, ip
 8000c58:	ea43 4301 	orr.w	r3, r3, r1, lsl #16
 8000c5c:	fb06 f10e 	mul.w	r1, r6, lr
 8000c60:	4299      	cmp	r1, r3
 8000c62:	d909      	bls.n	8000c78 <__udivmoddi4+0x60>
 8000c64:	18fb      	adds	r3, r7, r3
 8000c66:	f106 30ff 	add.w	r0, r6, #4294967295	; 0xffffffff
 8000c6a:	f080 8119 	bcs.w	8000ea0 <__udivmoddi4+0x288>
 8000c6e:	4299      	cmp	r1, r3
 8000c70:	f240 8116 	bls.w	8000ea0 <__udivmoddi4+0x288>
 8000c74:	3e02      	subs	r6, #2
 8000c76:	443b      	add	r3, r7
 8000c78:	1a5b      	subs	r3, r3, r1
 8000c7a:	b2a4      	uxth	r4, r4
 8000c7c:	fbb3 f0f8 	udiv	r0, r3, r8
 8000c80:	fb08 3310 	mls	r3, r8, r0, r3
 8000c84:	ea44 4403 	orr.w	r4, r4, r3, lsl #16
 8000c88:	fb00 fe0e 	mul.w	lr, r0, lr
 8000c8c:	45a6      	cmp	lr, r4
 8000c8e:	d909      	bls.n	8000ca4 <__udivmoddi4+0x8c>
 8000c90:	193c      	adds	r4, r7, r4
 8000c92:	f100 33ff 	add.w	r3, r0, #4294967295	; 0xffffffff
 8000c96:	f080 8105 	bcs.w	8000ea4 <__udivmoddi4+0x28c>
 8000c9a:	45a6      	cmp	lr, r4
 8000c9c:	f240 8102 	bls.w	8000ea4 <__udivmoddi4+0x28c>
 8000ca0:	3802      	subs	r0, #2
 8000ca2:	443c      	add	r4, r7
 8000ca4:	ea40 4006 	orr.w	r0, r0, r6, lsl #16
 8000ca8:	eba4 040e 	sub.w	r4, r4, lr
 8000cac:	2600      	movs	r6, #0
 8000cae:	b11d      	cbz	r5, 8000cb8 <__udivmoddi4+0xa0>
 8000cb0:	40d4      	lsrs	r4, r2
 8000cb2:	2300      	movs	r3, #0
 8000cb4:	e9c5 4300 	strd	r4, r3, [r5]
 8000cb8:	4631      	mov	r1, r6
 8000cba:	e8bd 87f0 	ldmia.w	sp!, {r4, r5, r6, r7, r8, r9, sl, pc}
 8000cbe:	b902      	cbnz	r2, 8000cc2 <__udivmoddi4+0xaa>
 8000cc0:	deff      	udf	#255	; 0xff
 8000cc2:	fab2 f282 	clz	r2, r2
 8000cc6:	2a00      	cmp	r2, #0
 8000cc8:	d150      	bne.n	8000d6c <__udivmoddi4+0x154>
 8000cca:	1bcb      	subs	r3, r1, r7
 8000ccc:	ea4f 4e17 	mov.w	lr, r7, lsr #16
 8000cd0:	fa1f f887 	uxth.w	r8, r7
 8000cd4:	2601      	movs	r6, #1
 8000cd6:	fbb3 fcfe 	udiv	ip, r3, lr
 8000cda:	0c21      	lsrs	r1, r4, #16
 8000cdc:	fb0e 331c 	mls	r3, lr, ip, r3
 8000ce0:	ea41 4103 	orr.w	r1, r1, r3, lsl #16
 8000ce4:	fb08 f30c 	mul.w	r3, r8, ip
 8000ce8:	428b      	cmp	r3, r1
 8000cea:	d907      	bls.n	8000cfc <__udivmoddi4+0xe4>
 8000cec:	1879      	adds	r1, r7, r1
 8000cee:	f10c 30ff 	add.w	r0, ip, #4294967295	; 0xffffffff
 8000cf2:	d202      	bcs.n	8000cfa <__udivmoddi4+0xe2>
 8000cf4:	428b      	cmp	r3, r1
 8000cf6:	f200 80e9 	bhi.w	8000ecc <__udivmoddi4+0x2b4>
 8000cfa:	4684      	mov	ip, r0
 8000cfc:	1ac9      	subs	r1, r1, r3
 8000cfe:	b2a3      	uxth	r3, r4
 8000d00:	fbb1 f0fe 	udiv	r0, r1, lr
 8000d04:	fb0e 1110 	mls	r1, lr, r0, r1
 8000d08:	ea43 4401 	orr.w	r4, r3, r1, lsl #16
 8000d0c:	fb08 f800 	mul.w	r8, r8, r0
 8000d10:	45a0      	cmp	r8, r4
 8000d12:	d907      	bls.n	8000d24 <__udivmoddi4+0x10c>
 8000d14:	193c      	adds	r4, r7, r4
 8000d16:	f100 33ff 	add.w	r3, r0, #4294967295	; 0xffffffff
 8000d1a:	d202      	bcs.n	8000d22 <__udivmoddi4+0x10a>
 8000d1c:	45a0      	cmp	r8, r4
 8000d1e:	f200 80d9 	bhi.w	8000ed4 <__udivmoddi4+0x2bc>
 8000d22:	4618      	mov	r0, r3
 8000d24:	eba4 0408 	sub.w	r4, r4, r8
 8000d28:	ea40 400c 	orr.w	r0, r0, ip, lsl #16
 8000d2c:	e7bf      	b.n	8000cae <__udivmoddi4+0x96>
 8000d2e:	428b      	cmp	r3, r1
 8000d30:	d909      	bls.n	8000d46 <__udivmoddi4+0x12e>
 8000d32:	2d00      	cmp	r5, #0
 8000d34:	f000 80b1 	beq.w	8000e9a <__udivmoddi4+0x282>
 8000d38:	2600      	movs	r6, #0
 8000d3a:	e9c5 0100 	strd	r0, r1, [r5]
 8000d3e:	4630      	mov	r0, r6
 8000d40:	4631      	mov	r1, r6
 8000d42:	e8bd 87f0 	ldmia.w	sp!, {r4, r5, r6, r7, r8, r9, sl, pc}
 8000d46:	fab3 f683 	clz	r6, r3
 8000d4a:	2e00      	cmp	r6, #0
 8000d4c:	d14a      	bne.n	8000de4 <__udivmoddi4+0x1cc>
 8000d4e:	428b      	cmp	r3, r1
 8000d50:	d302      	bcc.n	8000d58 <__udivmoddi4+0x140>
 8000d52:	4282      	cmp	r2, r0
 8000d54:	f200 80b8 	bhi.w	8000ec8 <__udivmoddi4+0x2b0>
 8000d58:	1a84      	subs	r4, r0, r2
 8000d5a:	eb61 0103 	sbc.w	r1, r1, r3
 8000d5e:	2001      	movs	r0, #1
 8000d60:	468c      	mov	ip, r1
 8000d62:	2d00      	cmp	r5, #0
 8000d64:	d0a8      	beq.n	8000cb8 <__udivmoddi4+0xa0>
 8000d66:	e9c5 4c00 	strd	r4, ip, [r5]
 8000d6a:	e7a5      	b.n	8000cb8 <__udivmoddi4+0xa0>
 8000d6c:	f1c2 0320 	rsb	r3, r2, #32
 8000d70:	fa20 f603 	lsr.w	r6, r0, r3
 8000d74:	4097      	lsls	r7, r2
 8000d76:	fa01 f002 	lsl.w	r0, r1, r2
 8000d7a:	ea4f 4e17 	mov.w	lr, r7, lsr #16
 8000d7e:	40d9      	lsrs	r1, r3
 8000d80:	4330      	orrs	r0, r6
 8000d82:	0c03      	lsrs	r3, r0, #16
 8000d84:	fbb1 f6fe 	udiv	r6, r1, lr
 8000d88:	fa1f f887 	uxth.w	r8, r7
 8000d8c:	fb0e 1116 	mls	r1, lr, r6, r1
 8000d90:	ea43 4301 	orr.w	r3, r3, r1, lsl #16
 8000d94:	fb06 f108 	mul.w	r1, r6, r8
 8000d98:	4299      	cmp	r1, r3
 8000d9a:	fa04 f402 	lsl.w	r4, r4, r2
 8000d9e:	d909      	bls.n	8000db4 <__udivmoddi4+0x19c>
 8000da0:	18fb      	adds	r3, r7, r3
 8000da2:	f106 3cff 	add.w	ip, r6, #4294967295	; 0xffffffff
 8000da6:	f080 808d 	bcs.w	8000ec4 <__udivmoddi4+0x2ac>
 8000daa:	4299      	cmp	r1, r3
 8000dac:	f240 808a 	bls.w	8000ec4 <__udivmoddi4+0x2ac>
 8000db0:	3e02      	subs	r6, #2
 8000db2:	443b      	add	r3, r7
 8000db4:	1a5b      	subs	r3, r3, r1
 8000db6:	b281      	uxth	r1, r0
 8000db8:	fbb3 f0fe 	udiv	r0, r3, lr
 8000dbc:	fb0e 3310 	mls	r3, lr, r0, r3
 8000dc0:	ea41 4103 	orr.w	r1, r1, r3, lsl #16
 8000dc4:	fb00 f308 	mul.w	r3, r0, r8
 8000dc8:	428b      	cmp	r3, r1
 8000dca:	d907      	bls.n	8000ddc <__udivmoddi4+0x1c4>
 8000dcc:	1879      	adds	r1, r7, r1
 8000dce:	f100 3cff 	add.w	ip, r0, #4294967295	; 0xffffffff
 8000dd2:	d273      	bcs.n	8000ebc <__udivmoddi4+0x2a4>
 8000dd4:	428b      	cmp	r3, r1
 8000dd6:	d971      	bls.n	8000ebc <__udivmoddi4+0x2a4>
 8000dd8:	3802      	subs	r0, #2
 8000dda:	4439      	add	r1, r7
 8000ddc:	1acb      	subs	r3, r1, r3
 8000dde:	ea40 4606 	orr.w	r6, r0, r6, lsl #16
 8000de2:	e778      	b.n	8000cd6 <__udivmoddi4+0xbe>
 8000de4:	f1c6 0c20 	rsb	ip, r6, #32
 8000de8:	fa03 f406 	lsl.w	r4, r3, r6
 8000dec:	fa22 f30c 	lsr.w	r3, r2, ip
 8000df0:	431c      	orrs	r4, r3
 8000df2:	fa20 f70c 	lsr.w	r7, r0, ip
 8000df6:	fa01 f306 	lsl.w	r3, r1, r6
 8000dfa:	ea4f 4e14 	mov.w	lr, r4, lsr #16
 8000dfe:	fa21 f10c 	lsr.w	r1, r1, ip
 8000e02:	431f      	orrs	r7, r3
 8000e04:	0c3b      	lsrs	r3, r7, #16
 8000e06:	fbb1 f9fe 	udiv	r9, r1, lr
 8000e0a:	fa1f f884 	uxth.w	r8, r4
 8000e0e:	fb0e 1119 	mls	r1, lr, r9, r1
 8000e12:	ea43 4101 	orr.w	r1, r3, r1, lsl #16
 8000e16:	fb09 fa08 	mul.w	sl, r9, r8
 8000e1a:	458a      	cmp	sl, r1
 8000e1c:	fa02 f206 	lsl.w	r2, r2, r6
 8000e20:	fa00 f306 	lsl.w	r3, r0, r6
 8000e24:	d908      	bls.n	8000e38 <__udivmoddi4+0x220>
 8000e26:	1861      	adds	r1, r4, r1
 8000e28:	f109 30ff 	add.w	r0, r9, #4294967295	; 0xffffffff
 8000e2c:	d248      	bcs.n	8000ec0 <__udivmoddi4+0x2a8>
 8000e2e:	458a      	cmp	sl, r1
 8000e30:	d946      	bls.n	8000ec0 <__udivmoddi4+0x2a8>
 8000e32:	f1a9 0902 	sub.w	r9, r9, #2
 8000e36:	4421      	add	r1, r4
 8000e38:	eba1 010a 	sub.w	r1, r1, sl
 8000e3c:	b2bf      	uxth	r7, r7
 8000e3e:	fbb1 f0fe 	udiv	r0, r1, lr
 8000e42:	fb0e 1110 	mls	r1, lr, r0, r1
 8000e46:	ea47 4701 	orr.w	r7, r7, r1, lsl #16
 8000e4a:	fb00 f808 	mul.w	r8, r0, r8
 8000e4e:	45b8      	cmp	r8, r7
 8000e50:	d907      	bls.n	8000e62 <__udivmoddi4+0x24a>
 8000e52:	19e7      	adds	r7, r4, r7
 8000e54:	f100 31ff 	add.w	r1, r0, #4294967295	; 0xffffffff
 8000e58:	d22e      	bcs.n	8000eb8 <__udivmoddi4+0x2a0>
 8000e5a:	45b8      	cmp	r8, r7
 8000e5c:	d92c      	bls.n	8000eb8 <__udivmoddi4+0x2a0>
 8000e5e:	3802      	subs	r0, #2
 8000e60:	4427      	add	r7, r4
 8000e62:	ea40 4009 	orr.w	r0, r0, r9, lsl #16
 8000e66:	eba7 0708 	sub.w	r7, r7, r8
 8000e6a:	fba0 8902 	umull	r8, r9, r0, r2
 8000e6e:	454f      	cmp	r7, r9
 8000e70:	46c6      	mov	lr, r8
 8000e72:	4649      	mov	r1, r9
 8000e74:	d31a      	bcc.n	8000eac <__udivmoddi4+0x294>
 8000e76:	d017      	beq.n	8000ea8 <__udivmoddi4+0x290>
 8000e78:	b15d      	cbz	r5, 8000e92 <__udivmoddi4+0x27a>
 8000e7a:	ebb3 020e 	subs.w	r2, r3, lr
 8000e7e:	eb67 0701 	sbc.w	r7, r7, r1
 8000e82:	fa07 fc0c 	lsl.w	ip, r7, ip
 8000e86:	40f2      	lsrs	r2, r6
 8000e88:	ea4c 0202 	orr.w	r2, ip, r2
 8000e8c:	40f7      	lsrs	r7, r6
 8000e8e:	e9c5 2700 	strd	r2, r7, [r5]
 8000e92:	2600      	movs	r6, #0
 8000e94:	4631      	mov	r1, r6
 8000e96:	e8bd 87f0 	ldmia.w	sp!, {r4, r5, r6, r7, r8, r9, sl, pc}
 8000e9a:	462e      	mov	r6, r5
 8000e9c:	4628      	mov	r0, r5
 8000e9e:	e70b      	b.n	8000cb8 <__udivmoddi4+0xa0>
 8000ea0:	4606      	mov	r6, r0
 8000ea2:	e6e9      	b.n	8000c78 <__udivmoddi4+0x60>
 8000ea4:	4618      	mov	r0, r3
 8000ea6:	e6fd      	b.n	8000ca4 <__udivmoddi4+0x8c>
 8000ea8:	4543      	cmp	r3, r8
 8000eaa:	d2e5      	bcs.n	8000e78 <__udivmoddi4+0x260>
 8000eac:	ebb8 0e02 	subs.w	lr, r8, r2
 8000eb0:	eb69 0104 	sbc.w	r1, r9, r4
 8000eb4:	3801      	subs	r0, #1
 8000eb6:	e7df      	b.n	8000e78 <__udivmoddi4+0x260>
 8000eb8:	4608      	mov	r0, r1
 8000eba:	e7d2      	b.n	8000e62 <__udivmoddi4+0x24a>
 8000ebc:	4660      	mov	r0, ip
 8000ebe:	e78d      	b.n	8000ddc <__udivmoddi4+0x1c4>
 8000ec0:	4681      	mov	r9, r0
 8000ec2:	e7b9      	b.n	8000e38 <__udivmoddi4+0x220>
 8000ec4:	4666      	mov	r6, ip
 8000ec6:	e775      	b.n	8000db4 <__udivmoddi4+0x19c>
 8000ec8:	4630      	mov	r0, r6
 8000eca:	e74a      	b.n	8000d62 <__udivmoddi4+0x14a>
 8000ecc:	f1ac 0c02 	sub.w	ip, ip, #2
 8000ed0:	4439      	add	r1, r7
 8000ed2:	e713      	b.n	8000cfc <__udivmoddi4+0xe4>
 8000ed4:	3802      	subs	r0, #2
 8000ed6:	443c      	add	r4, r7
 8000ed8:	e724      	b.n	8000d24 <__udivmoddi4+0x10c>
 8000eda:	bf00      	nop

08000edc <__aeabi_idiv0>:
 8000edc:	4770      	bx	lr
 8000ede:	bf00      	nop

08000ee0 <main>:
/**
  * @brief  The application entry point.
  * @retval int
  */
int main(void)
{
 8000ee0:	b580      	push	{r7, lr}
 8000ee2:	af00      	add	r7, sp, #0
  /* USER CODE END 1 */

  /* MCU Configuration--------------------------------------------------------*/

  /* Reset of all peripherals, Initializes the Flash interface and the Systick. */
  HAL_Init();
 8000ee4:	f000 fbe6 	bl	80016b4 <HAL_Init>
  /* USER CODE BEGIN Init */

  /* USER CODE END Init */

  /* Configure the system clock */
  SystemClock_Config();
 8000ee8:	f000 f8a2 	bl	8001030 <SystemClock_Config>
  /* USER CODE BEGIN SysInit */

  /* USER CODE END SysInit */

  /* Initialize all configured peripherals */
  MX_GPIO_Init();
 8000eec:	f000 f938 	bl	8001160 <MX_GPIO_Init>
  MX_USART2_UART_Init();
 8000ef0:	f000 f90c 	bl	800110c <MX_USART2_UART_Init>
  /* USER CODE BEGIN 2 */
  HCSR04_Init(HCSR04_SENSOR1, &htim2);
 8000ef4:	4945      	ldr	r1, [pc, #276]	; (800100c <main+0x12c>)
 8000ef6:	2000      	movs	r0, #0
 8000ef8:	f002 ffd4 	bl	8003ea4 <HCSR04_Init>
  HCSR04_Init(HCSR04_SENSOR2, &htim2);
 8000efc:	4943      	ldr	r1, [pc, #268]	; (800100c <main+0x12c>)
 8000efe:	2001      	movs	r0, #1
 8000f00:	f002 ffd0 	bl	8003ea4 <HCSR04_Init>
  HCSR04_Init(HCSR04_SENSOR3, &htim2);
 8000f04:	4941      	ldr	r1, [pc, #260]	; (800100c <main+0x12c>)
 8000f06:	2002      	movs	r0, #2
 8000f08:	f002 ffcc 	bl	8003ea4 <HCSR04_Init>
  HCSR04_Init(HCSR04_SENSOR4, &htim2);
 8000f0c:	493f      	ldr	r1, [pc, #252]	; (800100c <main+0x12c>)
 8000f0e:	2003      	movs	r0, #3
 8000f10:	f002 ffc8 	bl	8003ea4 <HCSR04_Init>
  while (1)
  {
    /* USER CODE END WHILE */

    /* USER CODE BEGIN 3 */
	  Distance1 = HCSR04_Read(HCSR04_SENSOR1);
 8000f14:	2000      	movs	r0, #0
 8000f16:	f003 f9b1 	bl	800427c <HCSR04_Read>
 8000f1a:	eef0 7a40 	vmov.f32	s15, s0
 8000f1e:	4b3c      	ldr	r3, [pc, #240]	; (8001010 <main+0x130>)
 8000f20:	edc3 7a00 	vstr	s15, [r3]
	  Distance2 = HCSR04_Read(HCSR04_SENSOR2);
 8000f24:	2001      	movs	r0, #1
 8000f26:	f003 f9a9 	bl	800427c <HCSR04_Read>
 8000f2a:	eef0 7a40 	vmov.f32	s15, s0
 8000f2e:	4b39      	ldr	r3, [pc, #228]	; (8001014 <main+0x134>)
 8000f30:	edc3 7a00 	vstr	s15, [r3]
	  Distance3 = HCSR04_Read(HCSR04_SENSOR3);
 8000f34:	2002      	movs	r0, #2
 8000f36:	f003 f9a1 	bl	800427c <HCSR04_Read>
 8000f3a:	eef0 7a40 	vmov.f32	s15, s0
 8000f3e:	4b36      	ldr	r3, [pc, #216]	; (8001018 <main+0x138>)
 8000f40:	edc3 7a00 	vstr	s15, [r3]
	  Distance4 = HCSR04_Read(HCSR04_SENSOR4);
 8000f44:	2003      	movs	r0, #3
 8000f46:	f003 f999 	bl	800427c <HCSR04_Read>
 8000f4a:	eef0 7a40 	vmov.f32	s15, s0
 8000f4e:	4b33      	ldr	r3, [pc, #204]	; (800101c <main+0x13c>)
 8000f50:	edc3 7a00 	vstr	s15, [r3]
	  sprintf(buff, "Dist= %.2f cm    ", Distance1);
 8000f54:	4b2e      	ldr	r3, [pc, #184]	; (8001010 <main+0x130>)
 8000f56:	681b      	ldr	r3, [r3, #0]
 8000f58:	4618      	mov	r0, r3
 8000f5a:	f7ff fb15 	bl	8000588 <__aeabi_f2d>
 8000f5e:	4602      	mov	r2, r0
 8000f60:	460b      	mov	r3, r1
 8000f62:	492f      	ldr	r1, [pc, #188]	; (8001020 <main+0x140>)
 8000f64:	482f      	ldr	r0, [pc, #188]	; (8001024 <main+0x144>)
 8000f66:	f003 fea7 	bl	8004cb8 <siprintf>
	  HAL_UART_Transmit(&huart2, buff, strlen(buff), 1000);
 8000f6a:	482e      	ldr	r0, [pc, #184]	; (8001024 <main+0x144>)
 8000f6c:	f7ff f950 	bl	8000210 <strlen>
 8000f70:	4603      	mov	r3, r0
 8000f72:	b29a      	uxth	r2, r3
 8000f74:	f44f 737a 	mov.w	r3, #1000	; 0x3e8
 8000f78:	492a      	ldr	r1, [pc, #168]	; (8001024 <main+0x144>)
 8000f7a:	482b      	ldr	r0, [pc, #172]	; (8001028 <main+0x148>)
 8000f7c:	f002 fca1 	bl	80038c2 <HAL_UART_Transmit>
	  sprintf(buff, "Dist= %.2f cm    ", Distance2);
 8000f80:	4b24      	ldr	r3, [pc, #144]	; (8001014 <main+0x134>)
 8000f82:	681b      	ldr	r3, [r3, #0]
 8000f84:	4618      	mov	r0, r3
 8000f86:	f7ff faff 	bl	8000588 <__aeabi_f2d>
 8000f8a:	4602      	mov	r2, r0
 8000f8c:	460b      	mov	r3, r1
 8000f8e:	4924      	ldr	r1, [pc, #144]	; (8001020 <main+0x140>)
 8000f90:	4824      	ldr	r0, [pc, #144]	; (8001024 <main+0x144>)
 8000f92:	f003 fe91 	bl	8004cb8 <siprintf>
	  HAL_UART_Transmit(&huart2, buff, strlen(buff), 1000);
 8000f96:	4823      	ldr	r0, [pc, #140]	; (8001024 <main+0x144>)
 8000f98:	f7ff f93a 	bl	8000210 <strlen>
 8000f9c:	4603      	mov	r3, r0
 8000f9e:	b29a      	uxth	r2, r3
 8000fa0:	f44f 737a 	mov.w	r3, #1000	; 0x3e8
 8000fa4:	491f      	ldr	r1, [pc, #124]	; (8001024 <main+0x144>)
 8000fa6:	4820      	ldr	r0, [pc, #128]	; (8001028 <main+0x148>)
 8000fa8:	f002 fc8b 	bl	80038c2 <HAL_UART_Transmit>
	  sprintf(buff, "Dist= %.2f cm    ", Distance3);
 8000fac:	4b1a      	ldr	r3, [pc, #104]	; (8001018 <main+0x138>)
 8000fae:	681b      	ldr	r3, [r3, #0]
 8000fb0:	4618      	mov	r0, r3
 8000fb2:	f7ff fae9 	bl	8000588 <__aeabi_f2d>
 8000fb6:	4602      	mov	r2, r0
 8000fb8:	460b      	mov	r3, r1
 8000fba:	4919      	ldr	r1, [pc, #100]	; (8001020 <main+0x140>)
 8000fbc:	4819      	ldr	r0, [pc, #100]	; (8001024 <main+0x144>)
 8000fbe:	f003 fe7b 	bl	8004cb8 <siprintf>
	  HAL_UART_Transmit(&huart2, buff, strlen(buff), 1000);
 8000fc2:	4818      	ldr	r0, [pc, #96]	; (8001024 <main+0x144>)
 8000fc4:	f7ff f924 	bl	8000210 <strlen>
 8000fc8:	4603      	mov	r3, r0
 8000fca:	b29a      	uxth	r2, r3
 8000fcc:	f44f 737a 	mov.w	r3, #1000	; 0x3e8
 8000fd0:	4914      	ldr	r1, [pc, #80]	; (8001024 <main+0x144>)
 8000fd2:	4815      	ldr	r0, [pc, #84]	; (8001028 <main+0x148>)
 8000fd4:	f002 fc75 	bl	80038c2 <HAL_UART_Transmit>
	  sprintf(buff, "Dist= %.2f cm\n", Distance4);
 8000fd8:	4b10      	ldr	r3, [pc, #64]	; (800101c <main+0x13c>)
 8000fda:	681b      	ldr	r3, [r3, #0]
 8000fdc:	4618      	mov	r0, r3
 8000fde:	f7ff fad3 	bl	8000588 <__aeabi_f2d>
 8000fe2:	4602      	mov	r2, r0
 8000fe4:	460b      	mov	r3, r1
 8000fe6:	4911      	ldr	r1, [pc, #68]	; (800102c <main+0x14c>)
 8000fe8:	480e      	ldr	r0, [pc, #56]	; (8001024 <main+0x144>)
 8000fea:	f003 fe65 	bl	8004cb8 <siprintf>
	  HAL_UART_Transmit(&huart2, buff, strlen(buff), 1000);
 8000fee:	480d      	ldr	r0, [pc, #52]	; (8001024 <main+0x144>)
 8000ff0:	f7ff f90e 	bl	8000210 <strlen>
 8000ff4:	4603      	mov	r3, r0
 8000ff6:	b29a      	uxth	r2, r3
 8000ff8:	f44f 737a 	mov.w	r3, #1000	; 0x3e8
 8000ffc:	4909      	ldr	r1, [pc, #36]	; (8001024 <main+0x144>)
 8000ffe:	480a      	ldr	r0, [pc, #40]	; (8001028 <main+0x148>)
 8001000:	f002 fc5f 	bl	80038c2 <HAL_UART_Transmit>
	  HAL_Delay(10);
 8001004:	200a      	movs	r0, #10
 8001006:	f000 fbc7 	bl	8001798 <HAL_Delay>
  {
 800100a:	e783      	b.n	8000f14 <main+0x34>
 800100c:	200002d8 	.word	0x200002d8
 8001010:	200001f8 	.word	0x200001f8
 8001014:	200001fc 	.word	0x200001fc
 8001018:	20000200 	.word	0x20000200
 800101c:	20000204 	.word	0x20000204
 8001020:	08007128 	.word	0x08007128
 8001024:	200002a4 	.word	0x200002a4
 8001028:	20000320 	.word	0x20000320
 800102c:	0800713c 	.word	0x0800713c

08001030 <SystemClock_Config>:
/**
  * @brief System Clock Configuration
  * @retval None
  */
void SystemClock_Config(void)
{
 8001030:	b580      	push	{r7, lr}
 8001032:	b094      	sub	sp, #80	; 0x50
 8001034:	af00      	add	r7, sp, #0
  RCC_OscInitTypeDef RCC_OscInitStruct = {0};
 8001036:	f107 031c 	add.w	r3, r7, #28
 800103a:	2234      	movs	r2, #52	; 0x34
 800103c:	2100      	movs	r1, #0
 800103e:	4618      	mov	r0, r3
 8001040:	f003 f9c8 	bl	80043d4 <memset>
  RCC_ClkInitTypeDef RCC_ClkInitStruct = {0};
 8001044:	f107 0308 	add.w	r3, r7, #8
 8001048:	2200      	movs	r2, #0
 800104a:	601a      	str	r2, [r3, #0]
 800104c:	605a      	str	r2, [r3, #4]
 800104e:	609a      	str	r2, [r3, #8]
 8001050:	60da      	str	r2, [r3, #12]
 8001052:	611a      	str	r2, [r3, #16]

  /** Configure the main internal regulator output voltage
  */
  __HAL_RCC_PWR_CLK_ENABLE();
 8001054:	2300      	movs	r3, #0
 8001056:	607b      	str	r3, [r7, #4]
 8001058:	4b2a      	ldr	r3, [pc, #168]	; (8001104 <SystemClock_Config+0xd4>)
 800105a:	6c1b      	ldr	r3, [r3, #64]	; 0x40
 800105c:	4a29      	ldr	r2, [pc, #164]	; (8001104 <SystemClock_Config+0xd4>)
 800105e:	f043 5380 	orr.w	r3, r3, #268435456	; 0x10000000
 8001062:	6413      	str	r3, [r2, #64]	; 0x40
 8001064:	4b27      	ldr	r3, [pc, #156]	; (8001104 <SystemClock_Config+0xd4>)
 8001066:	6c1b      	ldr	r3, [r3, #64]	; 0x40
 8001068:	f003 5380 	and.w	r3, r3, #268435456	; 0x10000000
 800106c:	607b      	str	r3, [r7, #4]
 800106e:	687b      	ldr	r3, [r7, #4]
  __HAL_PWR_VOLTAGESCALING_CONFIG(PWR_REGULATOR_VOLTAGE_SCALE3);
 8001070:	2300      	movs	r3, #0
 8001072:	603b      	str	r3, [r7, #0]
 8001074:	4b24      	ldr	r3, [pc, #144]	; (8001108 <SystemClock_Config+0xd8>)
 8001076:	681b      	ldr	r3, [r3, #0]
 8001078:	f423 4340 	bic.w	r3, r3, #49152	; 0xc000
 800107c:	4a22      	ldr	r2, [pc, #136]	; (8001108 <SystemClock_Config+0xd8>)
 800107e:	f443 4380 	orr.w	r3, r3, #16384	; 0x4000
 8001082:	6013      	str	r3, [r2, #0]
 8001084:	4b20      	ldr	r3, [pc, #128]	; (8001108 <SystemClock_Config+0xd8>)
 8001086:	681b      	ldr	r3, [r3, #0]
 8001088:	f403 4340 	and.w	r3, r3, #49152	; 0xc000
 800108c:	603b      	str	r3, [r7, #0]
 800108e:	683b      	ldr	r3, [r7, #0]
  /** Initializes the RCC Oscillators according to the specified parameters
  * in the RCC_OscInitTypeDef structure.
  */
  RCC_OscInitStruct.OscillatorType = RCC_OSCILLATORTYPE_HSI;
 8001090:	2302      	movs	r3, #2
 8001092:	61fb      	str	r3, [r7, #28]
  RCC_OscInitStruct.HSIState = RCC_HSI_ON;
 8001094:	2301      	movs	r3, #1
 8001096:	62bb      	str	r3, [r7, #40]	; 0x28
  RCC_OscInitStruct.HSICalibrationValue = RCC_HSICALIBRATION_DEFAULT;
 8001098:	2310      	movs	r3, #16
 800109a:	62fb      	str	r3, [r7, #44]	; 0x2c
  RCC_OscInitStruct.PLL.PLLState = RCC_PLL_ON;
 800109c:	2302      	movs	r3, #2
 800109e:	637b      	str	r3, [r7, #52]	; 0x34
  RCC_OscInitStruct.PLL.PLLSource = RCC_PLLSOURCE_HSI;
 80010a0:	2300      	movs	r3, #0
 80010a2:	63bb      	str	r3, [r7, #56]	; 0x38
  RCC_OscInitStruct.PLL.PLLM = 16;
 80010a4:	2310      	movs	r3, #16
 80010a6:	63fb      	str	r3, [r7, #60]	; 0x3c
  RCC_OscInitStruct.PLL.PLLN = 336;
 80010a8:	f44f 73a8 	mov.w	r3, #336	; 0x150
 80010ac:	643b      	str	r3, [r7, #64]	; 0x40
  RCC_OscInitStruct.PLL.PLLP = RCC_PLLP_DIV4;
 80010ae:	2304      	movs	r3, #4
 80010b0:	647b      	str	r3, [r7, #68]	; 0x44
  RCC_OscInitStruct.PLL.PLLQ = 2;
 80010b2:	2302      	movs	r3, #2
 80010b4:	64bb      	str	r3, [r7, #72]	; 0x48
  RCC_OscInitStruct.PLL.PLLR = 2;
 80010b6:	2302      	movs	r3, #2
 80010b8:	64fb      	str	r3, [r7, #76]	; 0x4c
  if (HAL_RCC_OscConfig(&RCC_OscInitStruct) != HAL_OK)
 80010ba:	f107 031c 	add.w	r3, r7, #28
 80010be:	4618      	mov	r0, r3
 80010c0:	f001 f91a 	bl	80022f8 <HAL_RCC_OscConfig>
 80010c4:	4603      	mov	r3, r0
 80010c6:	2b00      	cmp	r3, #0
 80010c8:	d001      	beq.n	80010ce <SystemClock_Config+0x9e>
  {
    Error_Handler();
 80010ca:	f000 f8d7 	bl	800127c <Error_Handler>
  }
  /** Initializes the CPU, AHB and APB buses clocks
  */
  RCC_ClkInitStruct.ClockType = RCC_CLOCKTYPE_HCLK|RCC_CLOCKTYPE_SYSCLK
 80010ce:	230f      	movs	r3, #15
 80010d0:	60bb      	str	r3, [r7, #8]
                              |RCC_CLOCKTYPE_PCLK1|RCC_CLOCKTYPE_PCLK2;
  RCC_ClkInitStruct.SYSCLKSource = RCC_SYSCLKSOURCE_PLLCLK;
 80010d2:	2302      	movs	r3, #2
 80010d4:	60fb      	str	r3, [r7, #12]
  RCC_ClkInitStruct.AHBCLKDivider = RCC_SYSCLK_DIV1;
 80010d6:	2300      	movs	r3, #0
 80010d8:	613b      	str	r3, [r7, #16]
  RCC_ClkInitStruct.APB1CLKDivider = RCC_HCLK_DIV2;
 80010da:	f44f 5380 	mov.w	r3, #4096	; 0x1000
 80010de:	617b      	str	r3, [r7, #20]
  RCC_ClkInitStruct.APB2CLKDivider = RCC_HCLK_DIV1;
 80010e0:	2300      	movs	r3, #0
 80010e2:	61bb      	str	r3, [r7, #24]

  if (HAL_RCC_ClockConfig(&RCC_ClkInitStruct, FLASH_LATENCY_2) != HAL_OK)
 80010e4:	f107 0308 	add.w	r3, r7, #8
 80010e8:	2102      	movs	r1, #2
 80010ea:	4618      	mov	r0, r3
 80010ec:	f000 fe38 	bl	8001d60 <HAL_RCC_ClockConfig>
 80010f0:	4603      	mov	r3, r0
 80010f2:	2b00      	cmp	r3, #0
 80010f4:	d001      	beq.n	80010fa <SystemClock_Config+0xca>
  {
    Error_Handler();
 80010f6:	f000 f8c1 	bl	800127c <Error_Handler>
  }
}
 80010fa:	bf00      	nop
 80010fc:	3750      	adds	r7, #80	; 0x50
 80010fe:	46bd      	mov	sp, r7
 8001100:	bd80      	pop	{r7, pc}
 8001102:	bf00      	nop
 8001104:	40023800 	.word	0x40023800
 8001108:	40007000 	.word	0x40007000

0800110c <MX_USART2_UART_Init>:
  * @brief USART2 Initialization Function
  * @param None
  * @retval None
  */
static void MX_USART2_UART_Init(void)
{
 800110c:	b580      	push	{r7, lr}
 800110e:	af00      	add	r7, sp, #0
  /* USER CODE END USART2_Init 0 */

  /* USER CODE BEGIN USART2_Init 1 */

  /* USER CODE END USART2_Init 1 */
  huart2.Instance = USART2;
 8001110:	4b11      	ldr	r3, [pc, #68]	; (8001158 <MX_USART2_UART_Init+0x4c>)
 8001112:	4a12      	ldr	r2, [pc, #72]	; (800115c <MX_USART2_UART_Init+0x50>)
 8001114:	601a      	str	r2, [r3, #0]
  huart2.Init.BaudRate = 115200;
 8001116:	4b10      	ldr	r3, [pc, #64]	; (8001158 <MX_USART2_UART_Init+0x4c>)
 8001118:	f44f 32e1 	mov.w	r2, #115200	; 0x1c200
 800111c:	605a      	str	r2, [r3, #4]
  huart2.Init.WordLength = UART_WORDLENGTH_8B;
 800111e:	4b0e      	ldr	r3, [pc, #56]	; (8001158 <MX_USART2_UART_Init+0x4c>)
 8001120:	2200      	movs	r2, #0
 8001122:	609a      	str	r2, [r3, #8]
  huart2.Init.StopBits = UART_STOPBITS_1;
 8001124:	4b0c      	ldr	r3, [pc, #48]	; (8001158 <MX_USART2_UART_Init+0x4c>)
 8001126:	2200      	movs	r2, #0
 8001128:	60da      	str	r2, [r3, #12]
  huart2.Init.Parity = UART_PARITY_NONE;
 800112a:	4b0b      	ldr	r3, [pc, #44]	; (8001158 <MX_USART2_UART_Init+0x4c>)
 800112c:	2200      	movs	r2, #0
 800112e:	611a      	str	r2, [r3, #16]
  huart2.Init.Mode = UART_MODE_TX_RX;
 8001130:	4b09      	ldr	r3, [pc, #36]	; (8001158 <MX_USART2_UART_Init+0x4c>)
 8001132:	220c      	movs	r2, #12
 8001134:	615a      	str	r2, [r3, #20]
  huart2.Init.HwFlowCtl = UART_HWCONTROL_NONE;
 8001136:	4b08      	ldr	r3, [pc, #32]	; (8001158 <MX_USART2_UART_Init+0x4c>)
 8001138:	2200      	movs	r2, #0
 800113a:	619a      	str	r2, [r3, #24]
  huart2.Init.OverSampling = UART_OVERSAMPLING_16;
 800113c:	4b06      	ldr	r3, [pc, #24]	; (8001158 <MX_USART2_UART_Init+0x4c>)
 800113e:	2200      	movs	r2, #0
 8001140:	61da      	str	r2, [r3, #28]
  if (HAL_UART_Init(&huart2) != HAL_OK)
 8001142:	4805      	ldr	r0, [pc, #20]	; (8001158 <MX_USART2_UART_Init+0x4c>)
 8001144:	f002 fb70 	bl	8003828 <HAL_UART_Init>
 8001148:	4603      	mov	r3, r0
 800114a:	2b00      	cmp	r3, #0
 800114c:	d001      	beq.n	8001152 <MX_USART2_UART_Init+0x46>
  {
    Error_Handler();
 800114e:	f000 f895 	bl	800127c <Error_Handler>
  }
  /* USER CODE BEGIN USART2_Init 2 */

  /* USER CODE END USART2_Init 2 */

}
 8001152:	bf00      	nop
 8001154:	bd80      	pop	{r7, pc}
 8001156:	bf00      	nop
 8001158:	20000320 	.word	0x20000320
 800115c:	40004400 	.word	0x40004400

08001160 <MX_GPIO_Init>:
  * @brief GPIO Initialization Function
  * @param None
  * @retval None
  */
static void MX_GPIO_Init(void)
{
 8001160:	b580      	push	{r7, lr}
 8001162:	b08a      	sub	sp, #40	; 0x28
 8001164:	af00      	add	r7, sp, #0
  GPIO_InitTypeDef GPIO_InitStruct = {0};
 8001166:	f107 0314 	add.w	r3, r7, #20
 800116a:	2200      	movs	r2, #0
 800116c:	601a      	str	r2, [r3, #0]
 800116e:	605a      	str	r2, [r3, #4]
 8001170:	609a      	str	r2, [r3, #8]
 8001172:	60da      	str	r2, [r3, #12]
 8001174:	611a      	str	r2, [r3, #16]

  /* GPIO Ports Clock Enable */
  __HAL_RCC_GPIOC_CLK_ENABLE();
 8001176:	2300      	movs	r3, #0
 8001178:	613b      	str	r3, [r7, #16]
 800117a:	4b2d      	ldr	r3, [pc, #180]	; (8001230 <MX_GPIO_Init+0xd0>)
 800117c:	6b1b      	ldr	r3, [r3, #48]	; 0x30
 800117e:	4a2c      	ldr	r2, [pc, #176]	; (8001230 <MX_GPIO_Init+0xd0>)
 8001180:	f043 0304 	orr.w	r3, r3, #4
 8001184:	6313      	str	r3, [r2, #48]	; 0x30
 8001186:	4b2a      	ldr	r3, [pc, #168]	; (8001230 <MX_GPIO_Init+0xd0>)
 8001188:	6b1b      	ldr	r3, [r3, #48]	; 0x30
 800118a:	f003 0304 	and.w	r3, r3, #4
 800118e:	613b      	str	r3, [r7, #16]
 8001190:	693b      	ldr	r3, [r7, #16]
  __HAL_RCC_GPIOH_CLK_ENABLE();
 8001192:	2300      	movs	r3, #0
 8001194:	60fb      	str	r3, [r7, #12]
 8001196:	4b26      	ldr	r3, [pc, #152]	; (8001230 <MX_GPIO_Init+0xd0>)
 8001198:	6b1b      	ldr	r3, [r3, #48]	; 0x30
 800119a:	4a25      	ldr	r2, [pc, #148]	; (8001230 <MX_GPIO_Init+0xd0>)
 800119c:	f043 0380 	orr.w	r3, r3, #128	; 0x80
 80011a0:	6313      	str	r3, [r2, #48]	; 0x30
 80011a2:	4b23      	ldr	r3, [pc, #140]	; (8001230 <MX_GPIO_Init+0xd0>)
 80011a4:	6b1b      	ldr	r3, [r3, #48]	; 0x30
 80011a6:	f003 0380 	and.w	r3, r3, #128	; 0x80
 80011aa:	60fb      	str	r3, [r7, #12]
 80011ac:	68fb      	ldr	r3, [r7, #12]
  __HAL_RCC_GPIOA_CLK_ENABLE();
 80011ae:	2300      	movs	r3, #0
 80011b0:	60bb      	str	r3, [r7, #8]
 80011b2:	4b1f      	ldr	r3, [pc, #124]	; (8001230 <MX_GPIO_Init+0xd0>)
 80011b4:	6b1b      	ldr	r3, [r3, #48]	; 0x30
 80011b6:	4a1e      	ldr	r2, [pc, #120]	; (8001230 <MX_GPIO_Init+0xd0>)
 80011b8:	f043 0301 	orr.w	r3, r3, #1
 80011bc:	6313      	str	r3, [r2, #48]	; 0x30
 80011be:	4b1c      	ldr	r3, [pc, #112]	; (8001230 <MX_GPIO_Init+0xd0>)
 80011c0:	6b1b      	ldr	r3, [r3, #48]	; 0x30
 80011c2:	f003 0301 	and.w	r3, r3, #1
 80011c6:	60bb      	str	r3, [r7, #8]
 80011c8:	68bb      	ldr	r3, [r7, #8]
  __HAL_RCC_GPIOB_CLK_ENABLE();
 80011ca:	2300      	movs	r3, #0
 80011cc:	607b      	str	r3, [r7, #4]
 80011ce:	4b18      	ldr	r3, [pc, #96]	; (8001230 <MX_GPIO_Init+0xd0>)
 80011d0:	6b1b      	ldr	r3, [r3, #48]	; 0x30
 80011d2:	4a17      	ldr	r2, [pc, #92]	; (8001230 <MX_GPIO_Init+0xd0>)
 80011d4:	f043 0302 	orr.w	r3, r3, #2
 80011d8:	6313      	str	r3, [r2, #48]	; 0x30
 80011da:	4b15      	ldr	r3, [pc, #84]	; (8001230 <MX_GPIO_Init+0xd0>)
 80011dc:	6b1b      	ldr	r3, [r3, #48]	; 0x30
 80011de:	f003 0302 	and.w	r3, r3, #2
 80011e2:	607b      	str	r3, [r7, #4]
 80011e4:	687b      	ldr	r3, [r7, #4]

  /*Configure GPIO pin Output Level */
  HAL_GPIO_WritePin(LD2_GPIO_Port, LD2_Pin, GPIO_PIN_RESET);
 80011e6:	2200      	movs	r2, #0
 80011e8:	2120      	movs	r1, #32
 80011ea:	4812      	ldr	r0, [pc, #72]	; (8001234 <MX_GPIO_Init+0xd4>)
 80011ec:	f000 fd9e 	bl	8001d2c <HAL_GPIO_WritePin>

  /*Configure GPIO pin : B1_Pin */
  GPIO_InitStruct.Pin = B1_Pin;
 80011f0:	f44f 5300 	mov.w	r3, #8192	; 0x2000
 80011f4:	617b      	str	r3, [r7, #20]
  GPIO_InitStruct.Mode = GPIO_MODE_IT_FALLING;
 80011f6:	f44f 1304 	mov.w	r3, #2162688	; 0x210000
 80011fa:	61bb      	str	r3, [r7, #24]
  GPIO_InitStruct.Pull = GPIO_NOPULL;
 80011fc:	2300      	movs	r3, #0
 80011fe:	61fb      	str	r3, [r7, #28]
  HAL_GPIO_Init(B1_GPIO_Port, &GPIO_InitStruct);
 8001200:	f107 0314 	add.w	r3, r7, #20
 8001204:	4619      	mov	r1, r3
 8001206:	480c      	ldr	r0, [pc, #48]	; (8001238 <MX_GPIO_Init+0xd8>)
 8001208:	f000 fbfc 	bl	8001a04 <HAL_GPIO_Init>

  /*Configure GPIO pin : LD2_Pin */
  GPIO_InitStruct.Pin = LD2_Pin;
 800120c:	2320      	movs	r3, #32
 800120e:	617b      	str	r3, [r7, #20]
  GPIO_InitStruct.Mode = GPIO_MODE_OUTPUT_PP;
 8001210:	2301      	movs	r3, #1
 8001212:	61bb      	str	r3, [r7, #24]
  GPIO_InitStruct.Pull = GPIO_NOPULL;
 8001214:	2300      	movs	r3, #0
 8001216:	61fb      	str	r3, [r7, #28]
  GPIO_InitStruct.Speed = GPIO_SPEED_FREQ_LOW;
 8001218:	2300      	movs	r3, #0
 800121a:	623b      	str	r3, [r7, #32]
  HAL_GPIO_Init(LD2_GPIO_Port, &GPIO_InitStruct);
 800121c:	f107 0314 	add.w	r3, r7, #20
 8001220:	4619      	mov	r1, r3
 8001222:	4804      	ldr	r0, [pc, #16]	; (8001234 <MX_GPIO_Init+0xd4>)
 8001224:	f000 fbee 	bl	8001a04 <HAL_GPIO_Init>

}
 8001228:	bf00      	nop
 800122a:	3728      	adds	r7, #40	; 0x28
 800122c:	46bd      	mov	sp, r7
 800122e:	bd80      	pop	{r7, pc}
 8001230:	40023800 	.word	0x40023800
 8001234:	40020000 	.word	0x40020000
 8001238:	40020800 	.word	0x40020800

0800123c <SysTick_CallBack>:

/* USER CODE BEGIN 4 */
uint8_t TRIG_Ticks;
void SysTick_CallBack(void)
{
 800123c:	b580      	push	{r7, lr}
 800123e:	af00      	add	r7, sp, #0
    TRIG_Ticks++;
 8001240:	4b0d      	ldr	r3, [pc, #52]	; (8001278 <SysTick_CallBack+0x3c>)
 8001242:	781b      	ldrb	r3, [r3, #0]
 8001244:	3301      	adds	r3, #1
 8001246:	b2da      	uxtb	r2, r3
 8001248:	4b0b      	ldr	r3, [pc, #44]	; (8001278 <SysTick_CallBack+0x3c>)
 800124a:	701a      	strb	r2, [r3, #0]
    if(TRIG_Ticks >= 15) // Each 15msec
 800124c:	4b0a      	ldr	r3, [pc, #40]	; (8001278 <SysTick_CallBack+0x3c>)
 800124e:	781b      	ldrb	r3, [r3, #0]
 8001250:	2b0e      	cmp	r3, #14
 8001252:	d90e      	bls.n	8001272 <SysTick_CallBack+0x36>
    {
        HCSR04_Trigger(HCSR04_SENSOR1);
 8001254:	2000      	movs	r0, #0
 8001256:	f003 f82b 	bl	80042b0 <HCSR04_Trigger>
        HCSR04_Trigger(HCSR04_SENSOR2);
 800125a:	2001      	movs	r0, #1
 800125c:	f003 f828 	bl	80042b0 <HCSR04_Trigger>
        HCSR04_Trigger(HCSR04_SENSOR3);
 8001260:	2002      	movs	r0, #2
 8001262:	f003 f825 	bl	80042b0 <HCSR04_Trigger>
        HCSR04_Trigger(HCSR04_SENSOR4);
 8001266:	2003      	movs	r0, #3
 8001268:	f003 f822 	bl	80042b0 <HCSR04_Trigger>
        TRIG_Ticks = 0;
 800126c:	4b02      	ldr	r3, [pc, #8]	; (8001278 <SysTick_CallBack+0x3c>)
 800126e:	2200      	movs	r2, #0
 8001270:	701a      	strb	r2, [r3, #0]
    }
}
 8001272:	bf00      	nop
 8001274:	bd80      	pop	{r7, pc}
 8001276:	bf00      	nop
 8001278:	20000364 	.word	0x20000364

0800127c <Error_Handler>:
/**
  * @brief  This function is executed in case of error occurrence.
  * @retval None
  */
void Error_Handler(void)
{
 800127c:	b480      	push	{r7}
 800127e:	af00      	add	r7, sp, #0
  \details Disables IRQ interrupts by setting the I-bit in the CPSR.
           Can only be executed in Privileged modes.
 */
__STATIC_FORCEINLINE void __disable_irq(void)
{
  __ASM volatile ("cpsid i" : : : "memory");
 8001280:	b672      	cpsid	i
}
 8001282:	bf00      	nop
  /* USER CODE BEGIN Error_Handler_Debug */
  /* User can add his own implementation to report the HAL error return state */
  __disable_irq();
  while (1)
 8001284:	e7fe      	b.n	8001284 <Error_Handler+0x8>
	...

08001288 <HAL_MspInit>:
/* USER CODE END 0 */
/**
  * Initializes the Global MSP.
  */
void HAL_MspInit(void)
{
 8001288:	b580      	push	{r7, lr}
 800128a:	b082      	sub	sp, #8
 800128c:	af00      	add	r7, sp, #0
  /* USER CODE BEGIN MspInit 0 */

  /* USER CODE END MspInit 0 */

  __HAL_RCC_SYSCFG_CLK_ENABLE();
 800128e:	2300      	movs	r3, #0
 8001290:	607b      	str	r3, [r7, #4]
 8001292:	4b10      	ldr	r3, [pc, #64]	; (80012d4 <HAL_MspInit+0x4c>)
 8001294:	6c5b      	ldr	r3, [r3, #68]	; 0x44
 8001296:	4a0f      	ldr	r2, [pc, #60]	; (80012d4 <HAL_MspInit+0x4c>)
 8001298:	f443 4380 	orr.w	r3, r3, #16384	; 0x4000
 800129c:	6453      	str	r3, [r2, #68]	; 0x44
 800129e:	4b0d      	ldr	r3, [pc, #52]	; (80012d4 <HAL_MspInit+0x4c>)
 80012a0:	6c5b      	ldr	r3, [r3, #68]	; 0x44
 80012a2:	f403 4380 	and.w	r3, r3, #16384	; 0x4000
 80012a6:	607b      	str	r3, [r7, #4]
 80012a8:	687b      	ldr	r3, [r7, #4]
  __HAL_RCC_PWR_CLK_ENABLE();
 80012aa:	2300      	movs	r3, #0
 80012ac:	603b      	str	r3, [r7, #0]
 80012ae:	4b09      	ldr	r3, [pc, #36]	; (80012d4 <HAL_MspInit+0x4c>)
 80012b0:	6c1b      	ldr	r3, [r3, #64]	; 0x40
 80012b2:	4a08      	ldr	r2, [pc, #32]	; (80012d4 <HAL_MspInit+0x4c>)
 80012b4:	f043 5380 	orr.w	r3, r3, #268435456	; 0x10000000
 80012b8:	6413      	str	r3, [r2, #64]	; 0x40
 80012ba:	4b06      	ldr	r3, [pc, #24]	; (80012d4 <HAL_MspInit+0x4c>)
 80012bc:	6c1b      	ldr	r3, [r3, #64]	; 0x40
 80012be:	f003 5380 	and.w	r3, r3, #268435456	; 0x10000000
 80012c2:	603b      	str	r3, [r7, #0]
 80012c4:	683b      	ldr	r3, [r7, #0]

  HAL_NVIC_SetPriorityGrouping(NVIC_PRIORITYGROUP_0);
 80012c6:	2007      	movs	r0, #7
 80012c8:	f000 fb5a 	bl	8001980 <HAL_NVIC_SetPriorityGrouping>
  /* System interrupt init*/

  /* USER CODE BEGIN MspInit 1 */

  /* USER CODE END MspInit 1 */
}
 80012cc:	bf00      	nop
 80012ce:	3708      	adds	r7, #8
 80012d0:	46bd      	mov	sp, r7
 80012d2:	bd80      	pop	{r7, pc}
 80012d4:	40023800 	.word	0x40023800

080012d8 <HAL_TIM_Base_MspInit>:
* This function configures the hardware resources used in this example
* @param htim_base: TIM_Base handle pointer
* @retval None
*/
void HAL_TIM_Base_MspInit(TIM_HandleTypeDef* htim_base)
{
 80012d8:	b580      	push	{r7, lr}
 80012da:	b08a      	sub	sp, #40	; 0x28
 80012dc:	af00      	add	r7, sp, #0
 80012de:	6078      	str	r0, [r7, #4]
  GPIO_InitTypeDef GPIO_InitStruct = {0};
 80012e0:	f107 0314 	add.w	r3, r7, #20
 80012e4:	2200      	movs	r2, #0
 80012e6:	601a      	str	r2, [r3, #0]
 80012e8:	605a      	str	r2, [r3, #4]
 80012ea:	609a      	str	r2, [r3, #8]
 80012ec:	60da      	str	r2, [r3, #12]
 80012ee:	611a      	str	r2, [r3, #16]
  if(htim_base->Instance==TIM2)
 80012f0:	687b      	ldr	r3, [r7, #4]
 80012f2:	681b      	ldr	r3, [r3, #0]
 80012f4:	f1b3 4f80 	cmp.w	r3, #1073741824	; 0x40000000
 80012f8:	d152      	bne.n	80013a0 <HAL_TIM_Base_MspInit+0xc8>
  {
  /* USER CODE BEGIN TIM2_MspInit 0 */

  /* USER CODE END TIM2_MspInit 0 */
    /* Peripheral clock enable */
    __HAL_RCC_TIM2_CLK_ENABLE();
 80012fa:	2300      	movs	r3, #0
 80012fc:	613b      	str	r3, [r7, #16]
 80012fe:	4b2a      	ldr	r3, [pc, #168]	; (80013a8 <HAL_TIM_Base_MspInit+0xd0>)
 8001300:	6c1b      	ldr	r3, [r3, #64]	; 0x40
 8001302:	4a29      	ldr	r2, [pc, #164]	; (80013a8 <HAL_TIM_Base_MspInit+0xd0>)
 8001304:	f043 0301 	orr.w	r3, r3, #1
 8001308:	6413      	str	r3, [r2, #64]	; 0x40
 800130a:	4b27      	ldr	r3, [pc, #156]	; (80013a8 <HAL_TIM_Base_MspInit+0xd0>)
 800130c:	6c1b      	ldr	r3, [r3, #64]	; 0x40
 800130e:	f003 0301 	and.w	r3, r3, #1
 8001312:	613b      	str	r3, [r7, #16]
 8001314:	693b      	ldr	r3, [r7, #16]

    __HAL_RCC_GPIOA_CLK_ENABLE();
 8001316:	2300      	movs	r3, #0
 8001318:	60fb      	str	r3, [r7, #12]
 800131a:	4b23      	ldr	r3, [pc, #140]	; (80013a8 <HAL_TIM_Base_MspInit+0xd0>)
 800131c:	6b1b      	ldr	r3, [r3, #48]	; 0x30
 800131e:	4a22      	ldr	r2, [pc, #136]	; (80013a8 <HAL_TIM_Base_MspInit+0xd0>)
 8001320:	f043 0301 	orr.w	r3, r3, #1
 8001324:	6313      	str	r3, [r2, #48]	; 0x30
 8001326:	4b20      	ldr	r3, [pc, #128]	; (80013a8 <HAL_TIM_Base_MspInit+0xd0>)
 8001328:	6b1b      	ldr	r3, [r3, #48]	; 0x30
 800132a:	f003 0301 	and.w	r3, r3, #1
 800132e:	60fb      	str	r3, [r7, #12]
 8001330:	68fb      	ldr	r3, [r7, #12]
    __HAL_RCC_GPIOB_CLK_ENABLE();
 8001332:	2300      	movs	r3, #0
 8001334:	60bb      	str	r3, [r7, #8]
 8001336:	4b1c      	ldr	r3, [pc, #112]	; (80013a8 <HAL_TIM_Base_MspInit+0xd0>)
 8001338:	6b1b      	ldr	r3, [r3, #48]	; 0x30
 800133a:	4a1b      	ldr	r2, [pc, #108]	; (80013a8 <HAL_TIM_Base_MspInit+0xd0>)
 800133c:	f043 0302 	orr.w	r3, r3, #2
 8001340:	6313      	str	r3, [r2, #48]	; 0x30
 8001342:	4b19      	ldr	r3, [pc, #100]	; (80013a8 <HAL_TIM_Base_MspInit+0xd0>)
 8001344:	6b1b      	ldr	r3, [r3, #48]	; 0x30
 8001346:	f003 0302 	and.w	r3, r3, #2
 800134a:	60bb      	str	r3, [r7, #8]
 800134c:	68bb      	ldr	r3, [r7, #8]
    PA0-WKUP     ------> TIM2_CH1
    PA1     ------> TIM2_CH2
    PB2     ------> TIM2_CH4
    PB10     ------> TIM2_CH3
    */
    GPIO_InitStruct.Pin = GPIO_PIN_0|GPIO_PIN_1;
 800134e:	2303      	movs	r3, #3
 8001350:	617b      	str	r3, [r7, #20]
    GPIO_InitStruct.Mode = GPIO_MODE_AF_PP;
 8001352:	2302      	movs	r3, #2
 8001354:	61bb      	str	r3, [r7, #24]
    GPIO_InitStruct.Pull = GPIO_NOPULL;
 8001356:	2300      	movs	r3, #0
 8001358:	61fb      	str	r3, [r7, #28]
    GPIO_InitStruct.Speed = GPIO_SPEED_FREQ_LOW;
 800135a:	2300      	movs	r3, #0
 800135c:	623b      	str	r3, [r7, #32]
    GPIO_InitStruct.Alternate = GPIO_AF1_TIM2;
 800135e:	2301      	movs	r3, #1
 8001360:	627b      	str	r3, [r7, #36]	; 0x24
    HAL_GPIO_Init(GPIOA, &GPIO_InitStruct);
 8001362:	f107 0314 	add.w	r3, r7, #20
 8001366:	4619      	mov	r1, r3
 8001368:	4810      	ldr	r0, [pc, #64]	; (80013ac <HAL_TIM_Base_MspInit+0xd4>)
 800136a:	f000 fb4b 	bl	8001a04 <HAL_GPIO_Init>

    GPIO_InitStruct.Pin = GPIO_PIN_2|GPIO_PIN_10;
 800136e:	f240 4304 	movw	r3, #1028	; 0x404
 8001372:	617b      	str	r3, [r7, #20]
    GPIO_InitStruct.Mode = GPIO_MODE_AF_PP;
 8001374:	2302      	movs	r3, #2
 8001376:	61bb      	str	r3, [r7, #24]
    GPIO_InitStruct.Pull = GPIO_NOPULL;
 8001378:	2300      	movs	r3, #0
 800137a:	61fb      	str	r3, [r7, #28]
    GPIO_InitStruct.Speed = GPIO_SPEED_FREQ_LOW;
 800137c:	2300      	movs	r3, #0
 800137e:	623b      	str	r3, [r7, #32]
    GPIO_InitStruct.Alternate = GPIO_AF1_TIM2;
 8001380:	2301      	movs	r3, #1
 8001382:	627b      	str	r3, [r7, #36]	; 0x24
    HAL_GPIO_Init(GPIOB, &GPIO_InitStruct);
 8001384:	f107 0314 	add.w	r3, r7, #20
 8001388:	4619      	mov	r1, r3
 800138a:	4809      	ldr	r0, [pc, #36]	; (80013b0 <HAL_TIM_Base_MspInit+0xd8>)
 800138c:	f000 fb3a 	bl	8001a04 <HAL_GPIO_Init>

    /* TIM2 interrupt Init */
    HAL_NVIC_SetPriority(TIM2_IRQn, 0, 0);
 8001390:	2200      	movs	r2, #0
 8001392:	2100      	movs	r1, #0
 8001394:	201c      	movs	r0, #28
 8001396:	f000 fafe 	bl	8001996 <HAL_NVIC_SetPriority>
    HAL_NVIC_EnableIRQ(TIM2_IRQn);
 800139a:	201c      	movs	r0, #28
 800139c:	f000 fb17 	bl	80019ce <HAL_NVIC_EnableIRQ>
  /* USER CODE BEGIN TIM2_MspInit 1 */

  /* USER CODE END TIM2_MspInit 1 */
  }

}
 80013a0:	bf00      	nop
 80013a2:	3728      	adds	r7, #40	; 0x28
 80013a4:	46bd      	mov	sp, r7
 80013a6:	bd80      	pop	{r7, pc}
 80013a8:	40023800 	.word	0x40023800
 80013ac:	40020000 	.word	0x40020000
 80013b0:	40020400 	.word	0x40020400

080013b4 <HAL_UART_MspInit>:
* This function configures the hardware resources used in this example
* @param huart: UART handle pointer
* @retval None
*/
void HAL_UART_MspInit(UART_HandleTypeDef* huart)
{
 80013b4:	b580      	push	{r7, lr}
 80013b6:	b08a      	sub	sp, #40	; 0x28
 80013b8:	af00      	add	r7, sp, #0
 80013ba:	6078      	str	r0, [r7, #4]
  GPIO_InitTypeDef GPIO_InitStruct = {0};
 80013bc:	f107 0314 	add.w	r3, r7, #20
 80013c0:	2200      	movs	r2, #0
 80013c2:	601a      	str	r2, [r3, #0]
 80013c4:	605a      	str	r2, [r3, #4]
 80013c6:	609a      	str	r2, [r3, #8]
 80013c8:	60da      	str	r2, [r3, #12]
 80013ca:	611a      	str	r2, [r3, #16]
  if(huart->Instance==USART2)
 80013cc:	687b      	ldr	r3, [r7, #4]
 80013ce:	681b      	ldr	r3, [r3, #0]
 80013d0:	4a19      	ldr	r2, [pc, #100]	; (8001438 <HAL_UART_MspInit+0x84>)
 80013d2:	4293      	cmp	r3, r2
 80013d4:	d12b      	bne.n	800142e <HAL_UART_MspInit+0x7a>
  {
  /* USER CODE BEGIN USART2_MspInit 0 */

  /* USER CODE END USART2_MspInit 0 */
    /* Peripheral clock enable */
    __HAL_RCC_USART2_CLK_ENABLE();
 80013d6:	2300      	movs	r3, #0
 80013d8:	613b      	str	r3, [r7, #16]
 80013da:	4b18      	ldr	r3, [pc, #96]	; (800143c <HAL_UART_MspInit+0x88>)
 80013dc:	6c1b      	ldr	r3, [r3, #64]	; 0x40
 80013de:	4a17      	ldr	r2, [pc, #92]	; (800143c <HAL_UART_MspInit+0x88>)
 80013e0:	f443 3300 	orr.w	r3, r3, #131072	; 0x20000
 80013e4:	6413      	str	r3, [r2, #64]	; 0x40
 80013e6:	4b15      	ldr	r3, [pc, #84]	; (800143c <HAL_UART_MspInit+0x88>)
 80013e8:	6c1b      	ldr	r3, [r3, #64]	; 0x40
 80013ea:	f403 3300 	and.w	r3, r3, #131072	; 0x20000
 80013ee:	613b      	str	r3, [r7, #16]
 80013f0:	693b      	ldr	r3, [r7, #16]

    __HAL_RCC_GPIOA_CLK_ENABLE();
 80013f2:	2300      	movs	r3, #0
 80013f4:	60fb      	str	r3, [r7, #12]
 80013f6:	4b11      	ldr	r3, [pc, #68]	; (800143c <HAL_UART_MspInit+0x88>)
 80013f8:	6b1b      	ldr	r3, [r3, #48]	; 0x30
 80013fa:	4a10      	ldr	r2, [pc, #64]	; (800143c <HAL_UART_MspInit+0x88>)
 80013fc:	f043 0301 	orr.w	r3, r3, #1
 8001400:	6313      	str	r3, [r2, #48]	; 0x30
 8001402:	4b0e      	ldr	r3, [pc, #56]	; (800143c <HAL_UART_MspInit+0x88>)
 8001404:	6b1b      	ldr	r3, [r3, #48]	; 0x30
 8001406:	f003 0301 	and.w	r3, r3, #1
 800140a:	60fb      	str	r3, [r7, #12]
 800140c:	68fb      	ldr	r3, [r7, #12]
    /**USART2 GPIO Configuration
    PA2     ------> USART2_TX
    PA3     ------> USART2_RX
    */
    GPIO_InitStruct.Pin = USART_TX_Pin|USART_RX_Pin;
 800140e:	230c      	movs	r3, #12
 8001410:	617b      	str	r3, [r7, #20]
    GPIO_InitStruct.Mode = GPIO_MODE_AF_PP;
 8001412:	2302      	movs	r3, #2
 8001414:	61bb      	str	r3, [r7, #24]
    GPIO_InitStruct.Pull = GPIO_NOPULL;
 8001416:	2300      	movs	r3, #0
 8001418:	61fb      	str	r3, [r7, #28]
    GPIO_InitStruct.Speed = GPIO_SPEED_FREQ_VERY_HIGH;
 800141a:	2303      	movs	r3, #3
 800141c:	623b      	str	r3, [r7, #32]
    GPIO_InitStruct.Alternate = GPIO_AF7_USART2;
 800141e:	2307      	movs	r3, #7
 8001420:	627b      	str	r3, [r7, #36]	; 0x24
    HAL_GPIO_Init(GPIOA, &GPIO_InitStruct);
 8001422:	f107 0314 	add.w	r3, r7, #20
 8001426:	4619      	mov	r1, r3
 8001428:	4805      	ldr	r0, [pc, #20]	; (8001440 <HAL_UART_MspInit+0x8c>)
 800142a:	f000 faeb 	bl	8001a04 <HAL_GPIO_Init>
  /* USER CODE BEGIN USART2_MspInit 1 */

  /* USER CODE END USART2_MspInit 1 */
  }

}
 800142e:	bf00      	nop
 8001430:	3728      	adds	r7, #40	; 0x28
 8001432:	46bd      	mov	sp, r7
 8001434:	bd80      	pop	{r7, pc}
 8001436:	bf00      	nop
 8001438:	40004400 	.word	0x40004400
 800143c:	40023800 	.word	0x40023800
 8001440:	40020000 	.word	0x40020000

08001444 <NMI_Handler>:
/******************************************************************************/
/**
  * @brief This function handles Non maskable interrupt.
  */
void NMI_Handler(void)
{
 8001444:	b480      	push	{r7}
 8001446:	af00      	add	r7, sp, #0
  /* USER CODE BEGIN NonMaskableInt_IRQn 0 */

  /* USER CODE END NonMaskableInt_IRQn 0 */
  /* USER CODE BEGIN NonMaskableInt_IRQn 1 */
  while (1)
 8001448:	e7fe      	b.n	8001448 <NMI_Handler+0x4>

0800144a <HardFault_Handler>:

/**
  * @brief This function handles Hard fault interrupt.
  */
void HardFault_Handler(void)
{
 800144a:	b480      	push	{r7}
 800144c:	af00      	add	r7, sp, #0
  /* USER CODE BEGIN HardFault_IRQn 0 */

  /* USER CODE END HardFault_IRQn 0 */
  while (1)
 800144e:	e7fe      	b.n	800144e <HardFault_Handler+0x4>

08001450 <MemManage_Handler>:

/**
  * @brief This function handles Memory management fault.
  */
void MemManage_Handler(void)
{
 8001450:	b480      	push	{r7}
 8001452:	af00      	add	r7, sp, #0
  /* USER CODE BEGIN MemoryManagement_IRQn 0 */

  /* USER CODE END MemoryManagement_IRQn 0 */
  while (1)
 8001454:	e7fe      	b.n	8001454 <MemManage_Handler+0x4>

08001456 <BusFault_Handler>:

/**
  * @brief This function handles Pre-fetch fault, memory access fault.
  */
void BusFault_Handler(void)
{
 8001456:	b480      	push	{r7}
 8001458:	af00      	add	r7, sp, #0
  /* USER CODE BEGIN BusFault_IRQn 0 */

  /* USER CODE END BusFault_IRQn 0 */
  while (1)
 800145a:	e7fe      	b.n	800145a <BusFault_Handler+0x4>

0800145c <UsageFault_Handler>:

/**
  * @brief This function handles Undefined instruction or illegal state.
  */
void UsageFault_Handler(void)
{
 800145c:	b480      	push	{r7}
 800145e:	af00      	add	r7, sp, #0
  /* USER CODE BEGIN UsageFault_IRQn 0 */

  /* USER CODE END UsageFault_IRQn 0 */
  while (1)
 8001460:	e7fe      	b.n	8001460 <UsageFault_Handler+0x4>

08001462 <SVC_Handler>:

/**
  * @brief This function handles System service call via SWI instruction.
  */
void SVC_Handler(void)
{
 8001462:	b480      	push	{r7}
 8001464:	af00      	add	r7, sp, #0

  /* USER CODE END SVCall_IRQn 0 */
  /* USER CODE BEGIN SVCall_IRQn 1 */

  /* USER CODE END SVCall_IRQn 1 */
}
 8001466:	bf00      	nop
 8001468:	46bd      	mov	sp, r7
 800146a:	f85d 7b04 	ldr.w	r7, [sp], #4
 800146e:	4770      	bx	lr

08001470 <DebugMon_Handler>:

/**
  * @brief This function handles Debug monitor.
  */
void DebugMon_Handler(void)
{
 8001470:	b480      	push	{r7}
 8001472:	af00      	add	r7, sp, #0

  /* USER CODE END DebugMonitor_IRQn 0 */
  /* USER CODE BEGIN DebugMonitor_IRQn 1 */

  /* USER CODE END DebugMonitor_IRQn 1 */
}
 8001474:	bf00      	nop
 8001476:	46bd      	mov	sp, r7
 8001478:	f85d 7b04 	ldr.w	r7, [sp], #4
 800147c:	4770      	bx	lr

0800147e <PendSV_Handler>:

/**
  * @brief This function handles Pendable request for system service.
  */
void PendSV_Handler(void)
{
 800147e:	b480      	push	{r7}
 8001480:	af00      	add	r7, sp, #0

  /* USER CODE END PendSV_IRQn 0 */
  /* USER CODE BEGIN PendSV_IRQn 1 */

  /* USER CODE END PendSV_IRQn 1 */
}
 8001482:	bf00      	nop
 8001484:	46bd      	mov	sp, r7
 8001486:	f85d 7b04 	ldr.w	r7, [sp], #4
 800148a:	4770      	bx	lr

0800148c <SysTick_Handler>:

/**
  * @brief This function handles System tick timer.
  */
void SysTick_Handler(void)
{
 800148c:	b580      	push	{r7, lr}
 800148e:	af00      	add	r7, sp, #0
  /* USER CODE BEGIN SysTick_IRQn 0 */

  /* USER CODE END SysTick_IRQn 0 */
  HAL_IncTick();
 8001490:	f000 f962 	bl	8001758 <HAL_IncTick>
  /* USER CODE BEGIN SysTick_IRQn 1 */
  SysTick_CallBack();
 8001494:	f7ff fed2 	bl	800123c <SysTick_CallBack>
  /* USER CODE END SysTick_IRQn 1 */
}
 8001498:	bf00      	nop
 800149a:	bd80      	pop	{r7, pc}

0800149c <TIM2_IRQHandler>:

/**
  * @brief This function handles TIM2 global interrupt.
  */
void TIM2_IRQHandler(void)
{
 800149c:	b580      	push	{r7, lr}
 800149e:	af00      	add	r7, sp, #0
  /* USER CODE BEGIN TIM2_IRQn 0 */

  /* USER CODE END TIM2_IRQn 0 */
  HAL_TIM_IRQHandler(&htim2);
 80014a0:	4802      	ldr	r0, [pc, #8]	; (80014ac <TIM2_IRQHandler+0x10>)
 80014a2:	f001 fc09 	bl	8002cb8 <HAL_TIM_IRQHandler>
  /* USER CODE BEGIN TIM2_IRQn 1 */

  /* USER CODE END TIM2_IRQn 1 */
}
 80014a6:	bf00      	nop
 80014a8:	bd80      	pop	{r7, pc}
 80014aa:	bf00      	nop
 80014ac:	200002d8 	.word	0x200002d8

080014b0 <_getpid>:
void initialise_monitor_handles()
{
}

int _getpid(void)
{
 80014b0:	b480      	push	{r7}
 80014b2:	af00      	add	r7, sp, #0
	return 1;
 80014b4:	2301      	movs	r3, #1
}
 80014b6:	4618      	mov	r0, r3
 80014b8:	46bd      	mov	sp, r7
 80014ba:	f85d 7b04 	ldr.w	r7, [sp], #4
 80014be:	4770      	bx	lr

080014c0 <_kill>:

int _kill(int pid, int sig)
{
 80014c0:	b580      	push	{r7, lr}
 80014c2:	b082      	sub	sp, #8
 80014c4:	af00      	add	r7, sp, #0
 80014c6:	6078      	str	r0, [r7, #4]
 80014c8:	6039      	str	r1, [r7, #0]
	errno = EINVAL;
 80014ca:	f002 ff59 	bl	8004380 <__errno>
 80014ce:	4603      	mov	r3, r0
 80014d0:	2216      	movs	r2, #22
 80014d2:	601a      	str	r2, [r3, #0]
	return -1;
 80014d4:	f04f 33ff 	mov.w	r3, #4294967295	; 0xffffffff
}
 80014d8:	4618      	mov	r0, r3
 80014da:	3708      	adds	r7, #8
 80014dc:	46bd      	mov	sp, r7
 80014de:	bd80      	pop	{r7, pc}

080014e0 <_exit>:

void _exit (int status)
{
 80014e0:	b580      	push	{r7, lr}
 80014e2:	b082      	sub	sp, #8
 80014e4:	af00      	add	r7, sp, #0
 80014e6:	6078      	str	r0, [r7, #4]
	_kill(status, -1);
 80014e8:	f04f 31ff 	mov.w	r1, #4294967295	; 0xffffffff
 80014ec:	6878      	ldr	r0, [r7, #4]
 80014ee:	f7ff ffe7 	bl	80014c0 <_kill>
	while (1) {}		/* Make sure we hang here */
 80014f2:	e7fe      	b.n	80014f2 <_exit+0x12>

080014f4 <_read>:
}

__attribute__((weak)) int _read(int file, char *ptr, int len)
{
 80014f4:	b580      	push	{r7, lr}
 80014f6:	b086      	sub	sp, #24
 80014f8:	af00      	add	r7, sp, #0
 80014fa:	60f8      	str	r0, [r7, #12]
 80014fc:	60b9      	str	r1, [r7, #8]
 80014fe:	607a      	str	r2, [r7, #4]
	int DataIdx;

	for (DataIdx = 0; DataIdx < len; DataIdx++)
 8001500:	2300      	movs	r3, #0
 8001502:	617b      	str	r3, [r7, #20]
 8001504:	e00a      	b.n	800151c <_read+0x28>
	{
		*ptr++ = __io_getchar();
 8001506:	f3af 8000 	nop.w
 800150a:	4601      	mov	r1, r0
 800150c:	68bb      	ldr	r3, [r7, #8]
 800150e:	1c5a      	adds	r2, r3, #1
 8001510:	60ba      	str	r2, [r7, #8]
 8001512:	b2ca      	uxtb	r2, r1
 8001514:	701a      	strb	r2, [r3, #0]
	for (DataIdx = 0; DataIdx < len; DataIdx++)
 8001516:	697b      	ldr	r3, [r7, #20]
 8001518:	3301      	adds	r3, #1
 800151a:	617b      	str	r3, [r7, #20]
 800151c:	697a      	ldr	r2, [r7, #20]
 800151e:	687b      	ldr	r3, [r7, #4]
 8001520:	429a      	cmp	r2, r3
 8001522:	dbf0      	blt.n	8001506 <_read+0x12>
	}

return len;
 8001524:	687b      	ldr	r3, [r7, #4]
}
 8001526:	4618      	mov	r0, r3
 8001528:	3718      	adds	r7, #24
 800152a:	46bd      	mov	sp, r7
 800152c:	bd80      	pop	{r7, pc}

0800152e <_write>:

__attribute__((weak)) int _write(int file, char *ptr, int len)
{
 800152e:	b580      	push	{r7, lr}
 8001530:	b086      	sub	sp, #24
 8001532:	af00      	add	r7, sp, #0
 8001534:	60f8      	str	r0, [r7, #12]
 8001536:	60b9      	str	r1, [r7, #8]
 8001538:	607a      	str	r2, [r7, #4]
	int DataIdx;

	for (DataIdx = 0; DataIdx < len; DataIdx++)
 800153a:	2300      	movs	r3, #0
 800153c:	617b      	str	r3, [r7, #20]
 800153e:	e009      	b.n	8001554 <_write+0x26>
	{
		__io_putchar(*ptr++);
 8001540:	68bb      	ldr	r3, [r7, #8]
 8001542:	1c5a      	adds	r2, r3, #1
 8001544:	60ba      	str	r2, [r7, #8]
 8001546:	781b      	ldrb	r3, [r3, #0]
 8001548:	4618      	mov	r0, r3
 800154a:	f3af 8000 	nop.w
	for (DataIdx = 0; DataIdx < len; DataIdx++)
 800154e:	697b      	ldr	r3, [r7, #20]
 8001550:	3301      	adds	r3, #1
 8001552:	617b      	str	r3, [r7, #20]
 8001554:	697a      	ldr	r2, [r7, #20]
 8001556:	687b      	ldr	r3, [r7, #4]
 8001558:	429a      	cmp	r2, r3
 800155a:	dbf1      	blt.n	8001540 <_write+0x12>
	}
	return len;
 800155c:	687b      	ldr	r3, [r7, #4]
}
 800155e:	4618      	mov	r0, r3
 8001560:	3718      	adds	r7, #24
 8001562:	46bd      	mov	sp, r7
 8001564:	bd80      	pop	{r7, pc}

08001566 <_close>:

int _close(int file)
{
 8001566:	b480      	push	{r7}
 8001568:	b083      	sub	sp, #12
 800156a:	af00      	add	r7, sp, #0
 800156c:	6078      	str	r0, [r7, #4]
	return -1;
 800156e:	f04f 33ff 	mov.w	r3, #4294967295	; 0xffffffff
}
 8001572:	4618      	mov	r0, r3
 8001574:	370c      	adds	r7, #12
 8001576:	46bd      	mov	sp, r7
 8001578:	f85d 7b04 	ldr.w	r7, [sp], #4
 800157c:	4770      	bx	lr

0800157e <_fstat>:


int _fstat(int file, struct stat *st)
{
 800157e:	b480      	push	{r7}
 8001580:	b083      	sub	sp, #12
 8001582:	af00      	add	r7, sp, #0
 8001584:	6078      	str	r0, [r7, #4]
 8001586:	6039      	str	r1, [r7, #0]
	st->st_mode = S_IFCHR;
 8001588:	683b      	ldr	r3, [r7, #0]
 800158a:	f44f 5200 	mov.w	r2, #8192	; 0x2000
 800158e:	605a      	str	r2, [r3, #4]
	return 0;
 8001590:	2300      	movs	r3, #0
}
 8001592:	4618      	mov	r0, r3
 8001594:	370c      	adds	r7, #12
 8001596:	46bd      	mov	sp, r7
 8001598:	f85d 7b04 	ldr.w	r7, [sp], #4
 800159c:	4770      	bx	lr

0800159e <_isatty>:

int _isatty(int file)
{
 800159e:	b480      	push	{r7}
 80015a0:	b083      	sub	sp, #12
 80015a2:	af00      	add	r7, sp, #0
 80015a4:	6078      	str	r0, [r7, #4]
	return 1;
 80015a6:	2301      	movs	r3, #1
}
 80015a8:	4618      	mov	r0, r3
 80015aa:	370c      	adds	r7, #12
 80015ac:	46bd      	mov	sp, r7
 80015ae:	f85d 7b04 	ldr.w	r7, [sp], #4
 80015b2:	4770      	bx	lr

080015b4 <_lseek>:

int _lseek(int file, int ptr, int dir)
{
 80015b4:	b480      	push	{r7}
 80015b6:	b085      	sub	sp, #20
 80015b8:	af00      	add	r7, sp, #0
 80015ba:	60f8      	str	r0, [r7, #12]
 80015bc:	60b9      	str	r1, [r7, #8]
 80015be:	607a      	str	r2, [r7, #4]
	return 0;
 80015c0:	2300      	movs	r3, #0
}
 80015c2:	4618      	mov	r0, r3
 80015c4:	3714      	adds	r7, #20
 80015c6:	46bd      	mov	sp, r7
 80015c8:	f85d 7b04 	ldr.w	r7, [sp], #4
 80015cc:	4770      	bx	lr
	...

080015d0 <_sbrk>:
 *
 * @param incr Memory size
 * @return Pointer to allocated memory
 */
void *_sbrk(ptrdiff_t incr)
{
 80015d0:	b580      	push	{r7, lr}
 80015d2:	b086      	sub	sp, #24
 80015d4:	af00      	add	r7, sp, #0
 80015d6:	6078      	str	r0, [r7, #4]
  extern uint8_t _end; /* Symbol defined in the linker script */
  extern uint8_t _estack; /* Symbol defined in the linker script */
  extern uint32_t _Min_Stack_Size; /* Symbol defined in the linker script */
  const uint32_t stack_limit = (uint32_t)&_estack - (uint32_t)&_Min_Stack_Size;
 80015d8:	4a14      	ldr	r2, [pc, #80]	; (800162c <_sbrk+0x5c>)
 80015da:	4b15      	ldr	r3, [pc, #84]	; (8001630 <_sbrk+0x60>)
 80015dc:	1ad3      	subs	r3, r2, r3
 80015de:	617b      	str	r3, [r7, #20]
  const uint8_t *max_heap = (uint8_t *)stack_limit;
 80015e0:	697b      	ldr	r3, [r7, #20]
 80015e2:	613b      	str	r3, [r7, #16]
  uint8_t *prev_heap_end;

  /* Initialize heap end at first call */
  if (NULL == __sbrk_heap_end)
 80015e4:	4b13      	ldr	r3, [pc, #76]	; (8001634 <_sbrk+0x64>)
 80015e6:	681b      	ldr	r3, [r3, #0]
 80015e8:	2b00      	cmp	r3, #0
 80015ea:	d102      	bne.n	80015f2 <_sbrk+0x22>
  {
    __sbrk_heap_end = &_end;
 80015ec:	4b11      	ldr	r3, [pc, #68]	; (8001634 <_sbrk+0x64>)
 80015ee:	4a12      	ldr	r2, [pc, #72]	; (8001638 <_sbrk+0x68>)
 80015f0:	601a      	str	r2, [r3, #0]
  }

  /* Protect heap from growing into the reserved MSP stack */
  if (__sbrk_heap_end + incr > max_heap)
 80015f2:	4b10      	ldr	r3, [pc, #64]	; (8001634 <_sbrk+0x64>)
 80015f4:	681a      	ldr	r2, [r3, #0]
 80015f6:	687b      	ldr	r3, [r7, #4]
 80015f8:	4413      	add	r3, r2
 80015fa:	693a      	ldr	r2, [r7, #16]
 80015fc:	429a      	cmp	r2, r3
 80015fe:	d207      	bcs.n	8001610 <_sbrk+0x40>
  {
    errno = ENOMEM;
 8001600:	f002 febe 	bl	8004380 <__errno>
 8001604:	4603      	mov	r3, r0
 8001606:	220c      	movs	r2, #12
 8001608:	601a      	str	r2, [r3, #0]
    return (void *)-1;
 800160a:	f04f 33ff 	mov.w	r3, #4294967295	; 0xffffffff
 800160e:	e009      	b.n	8001624 <_sbrk+0x54>
  }

  prev_heap_end = __sbrk_heap_end;
 8001610:	4b08      	ldr	r3, [pc, #32]	; (8001634 <_sbrk+0x64>)
 8001612:	681b      	ldr	r3, [r3, #0]
 8001614:	60fb      	str	r3, [r7, #12]
  __sbrk_heap_end += incr;
 8001616:	4b07      	ldr	r3, [pc, #28]	; (8001634 <_sbrk+0x64>)
 8001618:	681a      	ldr	r2, [r3, #0]
 800161a:	687b      	ldr	r3, [r7, #4]
 800161c:	4413      	add	r3, r2
 800161e:	4a05      	ldr	r2, [pc, #20]	; (8001634 <_sbrk+0x64>)
 8001620:	6013      	str	r3, [r2, #0]

  return (void *)prev_heap_end;
 8001622:	68fb      	ldr	r3, [r7, #12]
}
 8001624:	4618      	mov	r0, r3
 8001626:	3718      	adds	r7, #24
 8001628:	46bd      	mov	sp, r7
 800162a:	bd80      	pop	{r7, pc}
 800162c:	20020000 	.word	0x20020000
 8001630:	00000400 	.word	0x00000400
 8001634:	20000208 	.word	0x20000208
 8001638:	20000380 	.word	0x20000380

0800163c <SystemInit>:
  *         configuration.
  * @param  None
  * @retval None
  */
void SystemInit(void)
{
 800163c:	b480      	push	{r7}
 800163e:	af00      	add	r7, sp, #0
  /* FPU settings ------------------------------------------------------------*/
  #if (__FPU_PRESENT == 1) && (__FPU_USED == 1)
    SCB->CPACR |= ((3UL << 10*2)|(3UL << 11*2));  /* set CP10 and CP11 Full Access */
 8001640:	4b06      	ldr	r3, [pc, #24]	; (800165c <SystemInit+0x20>)
 8001642:	f8d3 3088 	ldr.w	r3, [r3, #136]	; 0x88
 8001646:	4a05      	ldr	r2, [pc, #20]	; (800165c <SystemInit+0x20>)
 8001648:	f443 0370 	orr.w	r3, r3, #15728640	; 0xf00000
 800164c:	f8c2 3088 	str.w	r3, [r2, #136]	; 0x88

  /* Configure the Vector Table location -------------------------------------*/
#if defined(USER_VECT_TAB_ADDRESS)
  SCB->VTOR = VECT_TAB_BASE_ADDRESS | VECT_TAB_OFFSET; /* Vector Table Relocation in Internal SRAM */
#endif /* USER_VECT_TAB_ADDRESS */
}
 8001650:	bf00      	nop
 8001652:	46bd      	mov	sp, r7
 8001654:	f85d 7b04 	ldr.w	r7, [sp], #4
 8001658:	4770      	bx	lr
 800165a:	bf00      	nop
 800165c:	e000ed00 	.word	0xe000ed00

08001660 <Reset_Handler>:

    .section  .text.Reset_Handler
  .weak  Reset_Handler
  .type  Reset_Handler, %function
Reset_Handler:  
  ldr   sp, =_estack      /* set stack pointer */
 8001660:	f8df d034 	ldr.w	sp, [pc, #52]	; 8001698 <LoopFillZerobss+0x12>

/* Copy the data segment initializers from flash to SRAM */  
  ldr r0, =_sdata
 8001664:	480d      	ldr	r0, [pc, #52]	; (800169c <LoopFillZerobss+0x16>)
  ldr r1, =_edata
 8001666:	490e      	ldr	r1, [pc, #56]	; (80016a0 <LoopFillZerobss+0x1a>)
  ldr r2, =_sidata
 8001668:	4a0e      	ldr	r2, [pc, #56]	; (80016a4 <LoopFillZerobss+0x1e>)
  movs r3, #0
 800166a:	2300      	movs	r3, #0
  b LoopCopyDataInit
 800166c:	e002      	b.n	8001674 <LoopCopyDataInit>

0800166e <CopyDataInit>:

CopyDataInit:
  ldr r4, [r2, r3]
 800166e:	58d4      	ldr	r4, [r2, r3]
  str r4, [r0, r3]
 8001670:	50c4      	str	r4, [r0, r3]
  adds r3, r3, #4
 8001672:	3304      	adds	r3, #4

08001674 <LoopCopyDataInit>:

LoopCopyDataInit:
  adds r4, r0, r3
 8001674:	18c4      	adds	r4, r0, r3
  cmp r4, r1
 8001676:	428c      	cmp	r4, r1
  bcc CopyDataInit
 8001678:	d3f9      	bcc.n	800166e <CopyDataInit>
  
/* Zero fill the bss segment. */
  ldr r2, =_sbss
 800167a:	4a0b      	ldr	r2, [pc, #44]	; (80016a8 <LoopFillZerobss+0x22>)
  ldr r4, =_ebss
 800167c:	4c0b      	ldr	r4, [pc, #44]	; (80016ac <LoopFillZerobss+0x26>)
  movs r3, #0
 800167e:	2300      	movs	r3, #0
  b LoopFillZerobss
 8001680:	e001      	b.n	8001686 <LoopFillZerobss>

08001682 <FillZerobss>:

FillZerobss:
  str  r3, [r2]
 8001682:	6013      	str	r3, [r2, #0]
  adds r2, r2, #4
 8001684:	3204      	adds	r2, #4

08001686 <LoopFillZerobss>:

LoopFillZerobss:
  cmp r2, r4
 8001686:	42a2      	cmp	r2, r4
  bcc FillZerobss
 8001688:	d3fb      	bcc.n	8001682 <FillZerobss>

/* Call the clock system intitialization function.*/
  bl  SystemInit   
 800168a:	f7ff ffd7 	bl	800163c <SystemInit>
/* Call static constructors */
    bl __libc_init_array
 800168e:	f002 fe7d 	bl	800438c <__libc_init_array>
/* Call the application's entry point.*/
  bl  main
 8001692:	f7ff fc25 	bl	8000ee0 <main>
  bx  lr    
 8001696:	4770      	bx	lr
  ldr   sp, =_estack      /* set stack pointer */
 8001698:	20020000 	.word	0x20020000
  ldr r0, =_sdata
 800169c:	20000000 	.word	0x20000000
  ldr r1, =_edata
 80016a0:	200001dc 	.word	0x200001dc
  ldr r2, =_sidata
 80016a4:	080075a4 	.word	0x080075a4
  ldr r2, =_sbss
 80016a8:	200001dc 	.word	0x200001dc
  ldr r4, =_ebss
 80016ac:	2000037c 	.word	0x2000037c

080016b0 <ADC_IRQHandler>:
 * @retval None       
*/
    .section  .text.Default_Handler,"ax",%progbits
Default_Handler:
Infinite_Loop:
  b  Infinite_Loop
 80016b0:	e7fe      	b.n	80016b0 <ADC_IRQHandler>
	...

080016b4 <HAL_Init>:
  *         need to ensure that the SysTick time base is always set to 1 millisecond
  *         to have correct HAL operation.
  * @retval HAL status
  */
HAL_StatusTypeDef HAL_Init(void)
{
 80016b4:	b580      	push	{r7, lr}
 80016b6:	af00      	add	r7, sp, #0
  /* Configure Flash prefetch, Instruction cache, Data cache */ 
#if (INSTRUCTION_CACHE_ENABLE != 0U)
  __HAL_FLASH_INSTRUCTION_CACHE_ENABLE();
 80016b8:	4b0e      	ldr	r3, [pc, #56]	; (80016f4 <HAL_Init+0x40>)
 80016ba:	681b      	ldr	r3, [r3, #0]
 80016bc:	4a0d      	ldr	r2, [pc, #52]	; (80016f4 <HAL_Init+0x40>)
 80016be:	f443 7300 	orr.w	r3, r3, #512	; 0x200
 80016c2:	6013      	str	r3, [r2, #0]
#endif /* INSTRUCTION_CACHE_ENABLE */

#if (DATA_CACHE_ENABLE != 0U)
  __HAL_FLASH_DATA_CACHE_ENABLE();
 80016c4:	4b0b      	ldr	r3, [pc, #44]	; (80016f4 <HAL_Init+0x40>)
 80016c6:	681b      	ldr	r3, [r3, #0]
 80016c8:	4a0a      	ldr	r2, [pc, #40]	; (80016f4 <HAL_Init+0x40>)
 80016ca:	f443 6380 	orr.w	r3, r3, #1024	; 0x400
 80016ce:	6013      	str	r3, [r2, #0]
#endif /* DATA_CACHE_ENABLE */

#if (PREFETCH_ENABLE != 0U)
  __HAL_FLASH_PREFETCH_BUFFER_ENABLE();
 80016d0:	4b08      	ldr	r3, [pc, #32]	; (80016f4 <HAL_Init+0x40>)
 80016d2:	681b      	ldr	r3, [r3, #0]
 80016d4:	4a07      	ldr	r2, [pc, #28]	; (80016f4 <HAL_Init+0x40>)
 80016d6:	f443 7380 	orr.w	r3, r3, #256	; 0x100
 80016da:	6013      	str	r3, [r2, #0]
#endif /* PREFETCH_ENABLE */

  /* Set Interrupt Group Priority */
  HAL_NVIC_SetPriorityGrouping(NVIC_PRIORITYGROUP_4);
 80016dc:	2003      	movs	r0, #3
 80016de:	f000 f94f 	bl	8001980 <HAL_NVIC_SetPriorityGrouping>

  /* Use systick as time base source and configure 1ms tick (default clock after Reset is HSI) */
  HAL_InitTick(TICK_INT_PRIORITY);
 80016e2:	2000      	movs	r0, #0
 80016e4:	f000 f808 	bl	80016f8 <HAL_InitTick>

  /* Init the low level hardware */
  HAL_MspInit();
 80016e8:	f7ff fdce 	bl	8001288 <HAL_MspInit>

  /* Return function status */
  return HAL_OK;
 80016ec:	2300      	movs	r3, #0
}
 80016ee:	4618      	mov	r0, r3
 80016f0:	bd80      	pop	{r7, pc}
 80016f2:	bf00      	nop
 80016f4:	40023c00 	.word	0x40023c00

080016f8 <HAL_InitTick>:
  *       implementation  in user file.
  * @param TickPriority Tick interrupt priority.
  * @retval HAL status
  */
__weak HAL_StatusTypeDef HAL_InitTick(uint32_t TickPriority)
{
 80016f8:	b580      	push	{r7, lr}
 80016fa:	b082      	sub	sp, #8
 80016fc:	af00      	add	r7, sp, #0
 80016fe:	6078      	str	r0, [r7, #4]
  /* Configure the SysTick to have interrupt in 1ms time basis*/
  if (HAL_SYSTICK_Config(SystemCoreClock / (1000U / uwTickFreq)) > 0U)
 8001700:	4b12      	ldr	r3, [pc, #72]	; (800174c <HAL_InitTick+0x54>)
 8001702:	681a      	ldr	r2, [r3, #0]
 8001704:	4b12      	ldr	r3, [pc, #72]	; (8001750 <HAL_InitTick+0x58>)
 8001706:	781b      	ldrb	r3, [r3, #0]
 8001708:	4619      	mov	r1, r3
 800170a:	f44f 737a 	mov.w	r3, #1000	; 0x3e8
 800170e:	fbb3 f3f1 	udiv	r3, r3, r1
 8001712:	fbb2 f3f3 	udiv	r3, r2, r3
 8001716:	4618      	mov	r0, r3
 8001718:	f000 f967 	bl	80019ea <HAL_SYSTICK_Config>
 800171c:	4603      	mov	r3, r0
 800171e:	2b00      	cmp	r3, #0
 8001720:	d001      	beq.n	8001726 <HAL_InitTick+0x2e>
  {
    return HAL_ERROR;
 8001722:	2301      	movs	r3, #1
 8001724:	e00e      	b.n	8001744 <HAL_InitTick+0x4c>
  }

  /* Configure the SysTick IRQ priority */
  if (TickPriority < (1UL << __NVIC_PRIO_BITS))
 8001726:	687b      	ldr	r3, [r7, #4]
 8001728:	2b0f      	cmp	r3, #15
 800172a:	d80a      	bhi.n	8001742 <HAL_InitTick+0x4a>
  {
    HAL_NVIC_SetPriority(SysTick_IRQn, TickPriority, 0U);
 800172c:	2200      	movs	r2, #0
 800172e:	6879      	ldr	r1, [r7, #4]
 8001730:	f04f 30ff 	mov.w	r0, #4294967295	; 0xffffffff
 8001734:	f000 f92f 	bl	8001996 <HAL_NVIC_SetPriority>
    uwTickPrio = TickPriority;
 8001738:	4a06      	ldr	r2, [pc, #24]	; (8001754 <HAL_InitTick+0x5c>)
 800173a:	687b      	ldr	r3, [r7, #4]
 800173c:	6013      	str	r3, [r2, #0]
  {
    return HAL_ERROR;
  }

  /* Return function status */
  return HAL_OK;
 800173e:	2300      	movs	r3, #0
 8001740:	e000      	b.n	8001744 <HAL_InitTick+0x4c>
    return HAL_ERROR;
 8001742:	2301      	movs	r3, #1
}
 8001744:	4618      	mov	r0, r3
 8001746:	3708      	adds	r7, #8
 8001748:	46bd      	mov	sp, r7
 800174a:	bd80      	pop	{r7, pc}
 800174c:	20000000 	.word	0x20000000
 8001750:	20000008 	.word	0x20000008
 8001754:	20000004 	.word	0x20000004

08001758 <HAL_IncTick>:
 * @note This function is declared as __weak to be overwritten in case of other 
  *      implementations in user file.
  * @retval None
  */
__weak void HAL_IncTick(void)
{
 8001758:	b480      	push	{r7}
 800175a:	af00      	add	r7, sp, #0
  uwTick += uwTickFreq;
 800175c:	4b06      	ldr	r3, [pc, #24]	; (8001778 <HAL_IncTick+0x20>)
 800175e:	781b      	ldrb	r3, [r3, #0]
 8001760:	461a      	mov	r2, r3
 8001762:	4b06      	ldr	r3, [pc, #24]	; (800177c <HAL_IncTick+0x24>)
 8001764:	681b      	ldr	r3, [r3, #0]
 8001766:	4413      	add	r3, r2
 8001768:	4a04      	ldr	r2, [pc, #16]	; (800177c <HAL_IncTick+0x24>)
 800176a:	6013      	str	r3, [r2, #0]
}
 800176c:	bf00      	nop
 800176e:	46bd      	mov	sp, r7
 8001770:	f85d 7b04 	ldr.w	r7, [sp], #4
 8001774:	4770      	bx	lr
 8001776:	bf00      	nop
 8001778:	20000008 	.word	0x20000008
 800177c:	20000368 	.word	0x20000368

08001780 <HAL_GetTick>:
  * @note This function is declared as __weak to be overwritten in case of other 
  *       implementations in user file.
  * @retval tick value
  */
__weak uint32_t HAL_GetTick(void)
{
 8001780:	b480      	push	{r7}
 8001782:	af00      	add	r7, sp, #0
  return uwTick;
 8001784:	4b03      	ldr	r3, [pc, #12]	; (8001794 <HAL_GetTick+0x14>)
 8001786:	681b      	ldr	r3, [r3, #0]
}
 8001788:	4618      	mov	r0, r3
 800178a:	46bd      	mov	sp, r7
 800178c:	f85d 7b04 	ldr.w	r7, [sp], #4
 8001790:	4770      	bx	lr
 8001792:	bf00      	nop
 8001794:	20000368 	.word	0x20000368

08001798 <HAL_Delay>:
  *       implementations in user file.
  * @param Delay specifies the delay time length, in milliseconds.
  * @retval None
  */
__weak void HAL_Delay(uint32_t Delay)
{
 8001798:	b580      	push	{r7, lr}
 800179a:	b084      	sub	sp, #16
 800179c:	af00      	add	r7, sp, #0
 800179e:	6078      	str	r0, [r7, #4]
  uint32_t tickstart = HAL_GetTick();
 80017a0:	f7ff ffee 	bl	8001780 <HAL_GetTick>
 80017a4:	60b8      	str	r0, [r7, #8]
  uint32_t wait = Delay;
 80017a6:	687b      	ldr	r3, [r7, #4]
 80017a8:	60fb      	str	r3, [r7, #12]

  /* Add a freq to guarantee minimum wait */
  if (wait < HAL_MAX_DELAY)
 80017aa:	68fb      	ldr	r3, [r7, #12]
 80017ac:	f1b3 3fff 	cmp.w	r3, #4294967295	; 0xffffffff
 80017b0:	d005      	beq.n	80017be <HAL_Delay+0x26>
  {
    wait += (uint32_t)(uwTickFreq);
 80017b2:	4b0a      	ldr	r3, [pc, #40]	; (80017dc <HAL_Delay+0x44>)
 80017b4:	781b      	ldrb	r3, [r3, #0]
 80017b6:	461a      	mov	r2, r3
 80017b8:	68fb      	ldr	r3, [r7, #12]
 80017ba:	4413      	add	r3, r2
 80017bc:	60fb      	str	r3, [r7, #12]
  }

  while((HAL_GetTick() - tickstart) < wait)
 80017be:	bf00      	nop
 80017c0:	f7ff ffde 	bl	8001780 <HAL_GetTick>
 80017c4:	4602      	mov	r2, r0
 80017c6:	68bb      	ldr	r3, [r7, #8]
 80017c8:	1ad3      	subs	r3, r2, r3
 80017ca:	68fa      	ldr	r2, [r7, #12]
 80017cc:	429a      	cmp	r2, r3
 80017ce:	d8f7      	bhi.n	80017c0 <HAL_Delay+0x28>
  {
  }
}
 80017d0:	bf00      	nop
 80017d2:	bf00      	nop
 80017d4:	3710      	adds	r7, #16
 80017d6:	46bd      	mov	sp, r7
 80017d8:	bd80      	pop	{r7, pc}
 80017da:	bf00      	nop
 80017dc:	20000008 	.word	0x20000008

080017e0 <__NVIC_SetPriorityGrouping>:
           In case of a conflict between priority grouping and available
           priority bits (__NVIC_PRIO_BITS), the smallest possible priority group is set.
  \param [in]      PriorityGroup  Priority grouping field.
 */
__STATIC_INLINE void __NVIC_SetPriorityGrouping(uint32_t PriorityGroup)
{
 80017e0:	b480      	push	{r7}
 80017e2:	b085      	sub	sp, #20
 80017e4:	af00      	add	r7, sp, #0
 80017e6:	6078      	str	r0, [r7, #4]
  uint32_t reg_value;
  uint32_t PriorityGroupTmp = (PriorityGroup & (uint32_t)0x07UL);             /* only values 0..7 are used          */
 80017e8:	687b      	ldr	r3, [r7, #4]
 80017ea:	f003 0307 	and.w	r3, r3, #7
 80017ee:	60fb      	str	r3, [r7, #12]

  reg_value  =  SCB->AIRCR;                                                   /* read old register configuration    */
 80017f0:	4b0c      	ldr	r3, [pc, #48]	; (8001824 <__NVIC_SetPriorityGrouping+0x44>)
 80017f2:	68db      	ldr	r3, [r3, #12]
 80017f4:	60bb      	str	r3, [r7, #8]
  reg_value &= ~((uint32_t)(SCB_AIRCR_VECTKEY_Msk | SCB_AIRCR_PRIGROUP_Msk)); /* clear bits to change               */
 80017f6:	68ba      	ldr	r2, [r7, #8]
 80017f8:	f64f 03ff 	movw	r3, #63743	; 0xf8ff
 80017fc:	4013      	ands	r3, r2
 80017fe:	60bb      	str	r3, [r7, #8]
  reg_value  =  (reg_value                                   |
                ((uint32_t)0x5FAUL << SCB_AIRCR_VECTKEY_Pos) |
                (PriorityGroupTmp << SCB_AIRCR_PRIGROUP_Pos)  );              /* Insert write key and priority group */
 8001800:	68fb      	ldr	r3, [r7, #12]
 8001802:	021a      	lsls	r2, r3, #8
                ((uint32_t)0x5FAUL << SCB_AIRCR_VECTKEY_Pos) |
 8001804:	68bb      	ldr	r3, [r7, #8]
 8001806:	4313      	orrs	r3, r2
  reg_value  =  (reg_value                                   |
 8001808:	f043 63bf 	orr.w	r3, r3, #100139008	; 0x5f80000
 800180c:	f443 3300 	orr.w	r3, r3, #131072	; 0x20000
 8001810:	60bb      	str	r3, [r7, #8]
  SCB->AIRCR =  reg_value;
 8001812:	4a04      	ldr	r2, [pc, #16]	; (8001824 <__NVIC_SetPriorityGrouping+0x44>)
 8001814:	68bb      	ldr	r3, [r7, #8]
 8001816:	60d3      	str	r3, [r2, #12]
}
 8001818:	bf00      	nop
 800181a:	3714      	adds	r7, #20
 800181c:	46bd      	mov	sp, r7
 800181e:	f85d 7b04 	ldr.w	r7, [sp], #4
 8001822:	4770      	bx	lr
 8001824:	e000ed00 	.word	0xe000ed00

08001828 <__NVIC_GetPriorityGrouping>:
  \brief   Get Priority Grouping
  \details Reads the priority grouping field from the NVIC Interrupt Controller.
  \return                Priority grouping field (SCB->AIRCR [10:8] PRIGROUP field).
 */
__STATIC_INLINE uint32_t __NVIC_GetPriorityGrouping(void)
{
 8001828:	b480      	push	{r7}
 800182a:	af00      	add	r7, sp, #0
  return ((uint32_t)((SCB->AIRCR & SCB_AIRCR_PRIGROUP_Msk) >> SCB_AIRCR_PRIGROUP_Pos));
 800182c:	4b04      	ldr	r3, [pc, #16]	; (8001840 <__NVIC_GetPriorityGrouping+0x18>)
 800182e:	68db      	ldr	r3, [r3, #12]
 8001830:	0a1b      	lsrs	r3, r3, #8
 8001832:	f003 0307 	and.w	r3, r3, #7
}
 8001836:	4618      	mov	r0, r3
 8001838:	46bd      	mov	sp, r7
 800183a:	f85d 7b04 	ldr.w	r7, [sp], #4
 800183e:	4770      	bx	lr
 8001840:	e000ed00 	.word	0xe000ed00

08001844 <__NVIC_EnableIRQ>:
  \details Enables a device specific interrupt in the NVIC interrupt controller.
  \param [in]      IRQn  Device specific interrupt number.
  \note    IRQn must not be negative.
 */
__STATIC_INLINE void __NVIC_EnableIRQ(IRQn_Type IRQn)
{
 8001844:	b480      	push	{r7}
 8001846:	b083      	sub	sp, #12
 8001848:	af00      	add	r7, sp, #0
 800184a:	4603      	mov	r3, r0
 800184c:	71fb      	strb	r3, [r7, #7]
  if ((int32_t)(IRQn) >= 0)
 800184e:	f997 3007 	ldrsb.w	r3, [r7, #7]
 8001852:	2b00      	cmp	r3, #0
 8001854:	db0b      	blt.n	800186e <__NVIC_EnableIRQ+0x2a>
  {
    NVIC->ISER[(((uint32_t)IRQn) >> 5UL)] = (uint32_t)(1UL << (((uint32_t)IRQn) & 0x1FUL));
 8001856:	79fb      	ldrb	r3, [r7, #7]
 8001858:	f003 021f 	and.w	r2, r3, #31
 800185c:	4907      	ldr	r1, [pc, #28]	; (800187c <__NVIC_EnableIRQ+0x38>)
 800185e:	f997 3007 	ldrsb.w	r3, [r7, #7]
 8001862:	095b      	lsrs	r3, r3, #5
 8001864:	2001      	movs	r0, #1
 8001866:	fa00 f202 	lsl.w	r2, r0, r2
 800186a:	f841 2023 	str.w	r2, [r1, r3, lsl #2]
  }
}
 800186e:	bf00      	nop
 8001870:	370c      	adds	r7, #12
 8001872:	46bd      	mov	sp, r7
 8001874:	f85d 7b04 	ldr.w	r7, [sp], #4
 8001878:	4770      	bx	lr
 800187a:	bf00      	nop
 800187c:	e000e100 	.word	0xe000e100

08001880 <__NVIC_SetPriority>:
  \param [in]      IRQn  Interrupt number.
  \param [in]  priority  Priority to set.
  \note    The priority cannot be set for every processor exception.
 */
__STATIC_INLINE void __NVIC_SetPriority(IRQn_Type IRQn, uint32_t priority)
{
 8001880:	b480      	push	{r7}
 8001882:	b083      	sub	sp, #12
 8001884:	af00      	add	r7, sp, #0
 8001886:	4603      	mov	r3, r0
 8001888:	6039      	str	r1, [r7, #0]
 800188a:	71fb      	strb	r3, [r7, #7]
  if ((int32_t)(IRQn) >= 0)
 800188c:	f997 3007 	ldrsb.w	r3, [r7, #7]
 8001890:	2b00      	cmp	r3, #0
 8001892:	db0a      	blt.n	80018aa <__NVIC_SetPriority+0x2a>
  {
    NVIC->IP[((uint32_t)IRQn)]               = (uint8_t)((priority << (8U - __NVIC_PRIO_BITS)) & (uint32_t)0xFFUL);
 8001894:	683b      	ldr	r3, [r7, #0]
 8001896:	b2da      	uxtb	r2, r3
 8001898:	490c      	ldr	r1, [pc, #48]	; (80018cc <__NVIC_SetPriority+0x4c>)
 800189a:	f997 3007 	ldrsb.w	r3, [r7, #7]
 800189e:	0112      	lsls	r2, r2, #4
 80018a0:	b2d2      	uxtb	r2, r2
 80018a2:	440b      	add	r3, r1
 80018a4:	f883 2300 	strb.w	r2, [r3, #768]	; 0x300
  }
  else
  {
    SCB->SHP[(((uint32_t)IRQn) & 0xFUL)-4UL] = (uint8_t)((priority << (8U - __NVIC_PRIO_BITS)) & (uint32_t)0xFFUL);
  }
}
 80018a8:	e00a      	b.n	80018c0 <__NVIC_SetPriority+0x40>
    SCB->SHP[(((uint32_t)IRQn) & 0xFUL)-4UL] = (uint8_t)((priority << (8U - __NVIC_PRIO_BITS)) & (uint32_t)0xFFUL);
 80018aa:	683b      	ldr	r3, [r7, #0]
 80018ac:	b2da      	uxtb	r2, r3
 80018ae:	4908      	ldr	r1, [pc, #32]	; (80018d0 <__NVIC_SetPriority+0x50>)
 80018b0:	79fb      	ldrb	r3, [r7, #7]
 80018b2:	f003 030f 	and.w	r3, r3, #15
 80018b6:	3b04      	subs	r3, #4
 80018b8:	0112      	lsls	r2, r2, #4
 80018ba:	b2d2      	uxtb	r2, r2
 80018bc:	440b      	add	r3, r1
 80018be:	761a      	strb	r2, [r3, #24]
}
 80018c0:	bf00      	nop
 80018c2:	370c      	adds	r7, #12
 80018c4:	46bd      	mov	sp, r7
 80018c6:	f85d 7b04 	ldr.w	r7, [sp], #4
 80018ca:	4770      	bx	lr
 80018cc:	e000e100 	.word	0xe000e100
 80018d0:	e000ed00 	.word	0xe000ed00

080018d4 <NVIC_EncodePriority>:
  \param [in]   PreemptPriority  Preemptive priority value (starting from 0).
  \param [in]       SubPriority  Subpriority value (starting from 0).
  \return                        Encoded priority. Value can be used in the function \ref NVIC_SetPriority().
 */
__STATIC_INLINE uint32_t NVIC_EncodePriority (uint32_t PriorityGroup, uint32_t PreemptPriority, uint32_t SubPriority)
{
 80018d4:	b480      	push	{r7}
 80018d6:	b089      	sub	sp, #36	; 0x24
 80018d8:	af00      	add	r7, sp, #0
 80018da:	60f8      	str	r0, [r7, #12]
 80018dc:	60b9      	str	r1, [r7, #8]
 80018de:	607a      	str	r2, [r7, #4]
  uint32_t PriorityGroupTmp = (PriorityGroup & (uint32_t)0x07UL);   /* only values 0..7 are used          */
 80018e0:	68fb      	ldr	r3, [r7, #12]
 80018e2:	f003 0307 	and.w	r3, r3, #7
 80018e6:	61fb      	str	r3, [r7, #28]
  uint32_t PreemptPriorityBits;
  uint32_t SubPriorityBits;

  PreemptPriorityBits = ((7UL - PriorityGroupTmp) > (uint32_t)(__NVIC_PRIO_BITS)) ? (uint32_t)(__NVIC_PRIO_BITS) : (uint32_t)(7UL - PriorityGroupTmp);
 80018e8:	69fb      	ldr	r3, [r7, #28]
 80018ea:	f1c3 0307 	rsb	r3, r3, #7
 80018ee:	2b04      	cmp	r3, #4
 80018f0:	bf28      	it	cs
 80018f2:	2304      	movcs	r3, #4
 80018f4:	61bb      	str	r3, [r7, #24]
  SubPriorityBits     = ((PriorityGroupTmp + (uint32_t)(__NVIC_PRIO_BITS)) < (uint32_t)7UL) ? (uint32_t)0UL : (uint32_t)((PriorityGroupTmp - 7UL) + (uint32_t)(__NVIC_PRIO_BITS));
 80018f6:	69fb      	ldr	r3, [r7, #28]
 80018f8:	3304      	adds	r3, #4
 80018fa:	2b06      	cmp	r3, #6
 80018fc:	d902      	bls.n	8001904 <NVIC_EncodePriority+0x30>
 80018fe:	69fb      	ldr	r3, [r7, #28]
 8001900:	3b03      	subs	r3, #3
 8001902:	e000      	b.n	8001906 <NVIC_EncodePriority+0x32>
 8001904:	2300      	movs	r3, #0
 8001906:	617b      	str	r3, [r7, #20]

  return (
           ((PreemptPriority & (uint32_t)((1UL << (PreemptPriorityBits)) - 1UL)) << SubPriorityBits) |
 8001908:	f04f 32ff 	mov.w	r2, #4294967295	; 0xffffffff
 800190c:	69bb      	ldr	r3, [r7, #24]
 800190e:	fa02 f303 	lsl.w	r3, r2, r3
 8001912:	43da      	mvns	r2, r3
 8001914:	68bb      	ldr	r3, [r7, #8]
 8001916:	401a      	ands	r2, r3
 8001918:	697b      	ldr	r3, [r7, #20]
 800191a:	409a      	lsls	r2, r3
           ((SubPriority     & (uint32_t)((1UL << (SubPriorityBits    )) - 1UL)))
 800191c:	f04f 31ff 	mov.w	r1, #4294967295	; 0xffffffff
 8001920:	697b      	ldr	r3, [r7, #20]
 8001922:	fa01 f303 	lsl.w	r3, r1, r3
 8001926:	43d9      	mvns	r1, r3
 8001928:	687b      	ldr	r3, [r7, #4]
 800192a:	400b      	ands	r3, r1
           ((PreemptPriority & (uint32_t)((1UL << (PreemptPriorityBits)) - 1UL)) << SubPriorityBits) |
 800192c:	4313      	orrs	r3, r2
         );
}
 800192e:	4618      	mov	r0, r3
 8001930:	3724      	adds	r7, #36	; 0x24
 8001932:	46bd      	mov	sp, r7
 8001934:	f85d 7b04 	ldr.w	r7, [sp], #4
 8001938:	4770      	bx	lr
	...

0800193c <SysTick_Config>:
  \note    When the variable <b>__Vendor_SysTickConfig</b> is set to 1, then the
           function <b>SysTick_Config</b> is not included. In this case, the file <b><i>device</i>.h</b>
           must contain a vendor-specific implementation of this function.
 */
__STATIC_INLINE uint32_t SysTick_Config(uint32_t ticks)
{
 800193c:	b580      	push	{r7, lr}
 800193e:	b082      	sub	sp, #8
 8001940:	af00      	add	r7, sp, #0
 8001942:	6078      	str	r0, [r7, #4]
  if ((ticks - 1UL) > SysTick_LOAD_RELOAD_Msk)
 8001944:	687b      	ldr	r3, [r7, #4]
 8001946:	3b01      	subs	r3, #1
 8001948:	f1b3 7f80 	cmp.w	r3, #16777216	; 0x1000000
 800194c:	d301      	bcc.n	8001952 <SysTick_Config+0x16>
  {
    return (1UL);                                                   /* Reload value impossible */
 800194e:	2301      	movs	r3, #1
 8001950:	e00f      	b.n	8001972 <SysTick_Config+0x36>
  }

  SysTick->LOAD  = (uint32_t)(ticks - 1UL);                         /* set reload register */
 8001952:	4a0a      	ldr	r2, [pc, #40]	; (800197c <SysTick_Config+0x40>)
 8001954:	687b      	ldr	r3, [r7, #4]
 8001956:	3b01      	subs	r3, #1
 8001958:	6053      	str	r3, [r2, #4]
  NVIC_SetPriority (SysTick_IRQn, (1UL << __NVIC_PRIO_BITS) - 1UL); /* set Priority for Systick Interrupt */
 800195a:	210f      	movs	r1, #15
 800195c:	f04f 30ff 	mov.w	r0, #4294967295	; 0xffffffff
 8001960:	f7ff ff8e 	bl	8001880 <__NVIC_SetPriority>
  SysTick->VAL   = 0UL;                                             /* Load the SysTick Counter Value */
 8001964:	4b05      	ldr	r3, [pc, #20]	; (800197c <SysTick_Config+0x40>)
 8001966:	2200      	movs	r2, #0
 8001968:	609a      	str	r2, [r3, #8]
  SysTick->CTRL  = SysTick_CTRL_CLKSOURCE_Msk |
 800196a:	4b04      	ldr	r3, [pc, #16]	; (800197c <SysTick_Config+0x40>)
 800196c:	2207      	movs	r2, #7
 800196e:	601a      	str	r2, [r3, #0]
                   SysTick_CTRL_TICKINT_Msk   |
                   SysTick_CTRL_ENABLE_Msk;                         /* Enable SysTick IRQ and SysTick Timer */
  return (0UL);                                                     /* Function successful */
 8001970:	2300      	movs	r3, #0
}
 8001972:	4618      	mov	r0, r3
 8001974:	3708      	adds	r7, #8
 8001976:	46bd      	mov	sp, r7
 8001978:	bd80      	pop	{r7, pc}
 800197a:	bf00      	nop
 800197c:	e000e010 	.word	0xe000e010

08001980 <HAL_NVIC_SetPriorityGrouping>:
  * @note   When the NVIC_PriorityGroup_0 is selected, IRQ preemption is no more possible. 
  *         The pending IRQ priority will be managed only by the subpriority. 
  * @retval None
  */
void HAL_NVIC_SetPriorityGrouping(uint32_t PriorityGroup)
{
 8001980:	b580      	push	{r7, lr}
 8001982:	b082      	sub	sp, #8
 8001984:	af00      	add	r7, sp, #0
 8001986:	6078      	str	r0, [r7, #4]
  /* Check the parameters */
  assert_param(IS_NVIC_PRIORITY_GROUP(PriorityGroup));
  
  /* Set the PRIGROUP[10:8] bits according to the PriorityGroup parameter value */
  NVIC_SetPriorityGrouping(PriorityGroup);
 8001988:	6878      	ldr	r0, [r7, #4]
 800198a:	f7ff ff29 	bl	80017e0 <__NVIC_SetPriorityGrouping>
}
 800198e:	bf00      	nop
 8001990:	3708      	adds	r7, #8
 8001992:	46bd      	mov	sp, r7
 8001994:	bd80      	pop	{r7, pc}

08001996 <HAL_NVIC_SetPriority>:
  *         This parameter can be a value between 0 and 15
  *         A lower priority value indicates a higher priority.          
  * @retval None
  */
void HAL_NVIC_SetPriority(IRQn_Type IRQn, uint32_t PreemptPriority, uint32_t SubPriority)
{ 
 8001996:	b580      	push	{r7, lr}
 8001998:	b086      	sub	sp, #24
 800199a:	af00      	add	r7, sp, #0
 800199c:	4603      	mov	r3, r0
 800199e:	60b9      	str	r1, [r7, #8]
 80019a0:	607a      	str	r2, [r7, #4]
 80019a2:	73fb      	strb	r3, [r7, #15]
  uint32_t prioritygroup = 0x00U;
 80019a4:	2300      	movs	r3, #0
 80019a6:	617b      	str	r3, [r7, #20]
  
  /* Check the parameters */
  assert_param(IS_NVIC_SUB_PRIORITY(SubPriority));
  assert_param(IS_NVIC_PREEMPTION_PRIORITY(PreemptPriority));
  
  prioritygroup = NVIC_GetPriorityGrouping();
 80019a8:	f7ff ff3e 	bl	8001828 <__NVIC_GetPriorityGrouping>
 80019ac:	6178      	str	r0, [r7, #20]
  
  NVIC_SetPriority(IRQn, NVIC_EncodePriority(prioritygroup, PreemptPriority, SubPriority));
 80019ae:	687a      	ldr	r2, [r7, #4]
 80019b0:	68b9      	ldr	r1, [r7, #8]
 80019b2:	6978      	ldr	r0, [r7, #20]
 80019b4:	f7ff ff8e 	bl	80018d4 <NVIC_EncodePriority>
 80019b8:	4602      	mov	r2, r0
 80019ba:	f997 300f 	ldrsb.w	r3, [r7, #15]
 80019be:	4611      	mov	r1, r2
 80019c0:	4618      	mov	r0, r3
 80019c2:	f7ff ff5d 	bl	8001880 <__NVIC_SetPriority>
}
 80019c6:	bf00      	nop
 80019c8:	3718      	adds	r7, #24
 80019ca:	46bd      	mov	sp, r7
 80019cc:	bd80      	pop	{r7, pc}

080019ce <HAL_NVIC_EnableIRQ>:
  *         This parameter can be an enumerator of IRQn_Type enumeration
  *         (For the complete STM32 Devices IRQ Channels list, please refer to the appropriate CMSIS device file (stm32f4xxxx.h))
  * @retval None
  */
void HAL_NVIC_EnableIRQ(IRQn_Type IRQn)
{
 80019ce:	b580      	push	{r7, lr}
 80019d0:	b082      	sub	sp, #8
 80019d2:	af00      	add	r7, sp, #0
 80019d4:	4603      	mov	r3, r0
 80019d6:	71fb      	strb	r3, [r7, #7]
  /* Check the parameters */
  assert_param(IS_NVIC_DEVICE_IRQ(IRQn));
  
  /* Enable interrupt */
  NVIC_EnableIRQ(IRQn);
 80019d8:	f997 3007 	ldrsb.w	r3, [r7, #7]
 80019dc:	4618      	mov	r0, r3
 80019de:	f7ff ff31 	bl	8001844 <__NVIC_EnableIRQ>
}
 80019e2:	bf00      	nop
 80019e4:	3708      	adds	r7, #8
 80019e6:	46bd      	mov	sp, r7
 80019e8:	bd80      	pop	{r7, pc}

080019ea <HAL_SYSTICK_Config>:
  * @param  TicksNumb Specifies the ticks Number of ticks between two interrupts.
  * @retval status:  - 0  Function succeeded.
  *                  - 1  Function failed.
  */
uint32_t HAL_SYSTICK_Config(uint32_t TicksNumb)
{
 80019ea:	b580      	push	{r7, lr}
 80019ec:	b082      	sub	sp, #8
 80019ee:	af00      	add	r7, sp, #0
 80019f0:	6078      	str	r0, [r7, #4]
   return SysTick_Config(TicksNumb);
 80019f2:	6878      	ldr	r0, [r7, #4]
 80019f4:	f7ff ffa2 	bl	800193c <SysTick_Config>
 80019f8:	4603      	mov	r3, r0
}
 80019fa:	4618      	mov	r0, r3
 80019fc:	3708      	adds	r7, #8
 80019fe:	46bd      	mov	sp, r7
 8001a00:	bd80      	pop	{r7, pc}
	...

08001a04 <HAL_GPIO_Init>:
  * @param  GPIO_Init pointer to a GPIO_InitTypeDef structure that contains
  *         the configuration information for the specified GPIO peripheral.
  * @retval None
  */
void HAL_GPIO_Init(GPIO_TypeDef  *GPIOx, GPIO_InitTypeDef *GPIO_Init)
{
 8001a04:	b480      	push	{r7}
 8001a06:	b089      	sub	sp, #36	; 0x24
 8001a08:	af00      	add	r7, sp, #0
 8001a0a:	6078      	str	r0, [r7, #4]
 8001a0c:	6039      	str	r1, [r7, #0]
  uint32_t position;
  uint32_t ioposition = 0x00U;
 8001a0e:	2300      	movs	r3, #0
 8001a10:	617b      	str	r3, [r7, #20]
  uint32_t iocurrent = 0x00U;
 8001a12:	2300      	movs	r3, #0
 8001a14:	613b      	str	r3, [r7, #16]
  uint32_t temp = 0x00U;
 8001a16:	2300      	movs	r3, #0
 8001a18:	61bb      	str	r3, [r7, #24]
  assert_param(IS_GPIO_ALL_INSTANCE(GPIOx));
  assert_param(IS_GPIO_PIN(GPIO_Init->Pin));
  assert_param(IS_GPIO_MODE(GPIO_Init->Mode));

  /* Configure the port pins */
  for(position = 0U; position < GPIO_NUMBER; position++)
 8001a1a:	2300      	movs	r3, #0
 8001a1c:	61fb      	str	r3, [r7, #28]
 8001a1e:	e165      	b.n	8001cec <HAL_GPIO_Init+0x2e8>
  {
    /* Get the IO position */
    ioposition = 0x01U << position;
 8001a20:	2201      	movs	r2, #1
 8001a22:	69fb      	ldr	r3, [r7, #28]
 8001a24:	fa02 f303 	lsl.w	r3, r2, r3
 8001a28:	617b      	str	r3, [r7, #20]
    /* Get the current IO position */
    iocurrent = (uint32_t)(GPIO_Init->Pin) & ioposition;
 8001a2a:	683b      	ldr	r3, [r7, #0]
 8001a2c:	681b      	ldr	r3, [r3, #0]
 8001a2e:	697a      	ldr	r2, [r7, #20]
 8001a30:	4013      	ands	r3, r2
 8001a32:	613b      	str	r3, [r7, #16]

    if(iocurrent == ioposition)
 8001a34:	693a      	ldr	r2, [r7, #16]
 8001a36:	697b      	ldr	r3, [r7, #20]
 8001a38:	429a      	cmp	r2, r3
 8001a3a:	f040 8154 	bne.w	8001ce6 <HAL_GPIO_Init+0x2e2>
    {
      /*--------------------- GPIO Mode Configuration ------------------------*/
      /* In case of Output or Alternate function mode selection */
      if(((GPIO_Init->Mode & GPIO_MODE) == MODE_OUTPUT) || \
 8001a3e:	683b      	ldr	r3, [r7, #0]
 8001a40:	685b      	ldr	r3, [r3, #4]
 8001a42:	f003 0303 	and.w	r3, r3, #3
 8001a46:	2b01      	cmp	r3, #1
 8001a48:	d005      	beq.n	8001a56 <HAL_GPIO_Init+0x52>
          (GPIO_Init->Mode & GPIO_MODE) == MODE_AF)
 8001a4a:	683b      	ldr	r3, [r7, #0]
 8001a4c:	685b      	ldr	r3, [r3, #4]
 8001a4e:	f003 0303 	and.w	r3, r3, #3
      if(((GPIO_Init->Mode & GPIO_MODE) == MODE_OUTPUT) || \
 8001a52:	2b02      	cmp	r3, #2
 8001a54:	d130      	bne.n	8001ab8 <HAL_GPIO_Init+0xb4>
      {
        /* Check the Speed parameter */
        assert_param(IS_GPIO_SPEED(GPIO_Init->Speed));
        /* Configure the IO Speed */
        temp = GPIOx->OSPEEDR; 
 8001a56:	687b      	ldr	r3, [r7, #4]
 8001a58:	689b      	ldr	r3, [r3, #8]
 8001a5a:	61bb      	str	r3, [r7, #24]
        temp &= ~(GPIO_OSPEEDER_OSPEEDR0 << (position * 2U));
 8001a5c:	69fb      	ldr	r3, [r7, #28]
 8001a5e:	005b      	lsls	r3, r3, #1
 8001a60:	2203      	movs	r2, #3
 8001a62:	fa02 f303 	lsl.w	r3, r2, r3
 8001a66:	43db      	mvns	r3, r3
 8001a68:	69ba      	ldr	r2, [r7, #24]
 8001a6a:	4013      	ands	r3, r2
 8001a6c:	61bb      	str	r3, [r7, #24]
        temp |= (GPIO_Init->Speed << (position * 2U));
 8001a6e:	683b      	ldr	r3, [r7, #0]
 8001a70:	68da      	ldr	r2, [r3, #12]
 8001a72:	69fb      	ldr	r3, [r7, #28]
 8001a74:	005b      	lsls	r3, r3, #1
 8001a76:	fa02 f303 	lsl.w	r3, r2, r3
 8001a7a:	69ba      	ldr	r2, [r7, #24]
 8001a7c:	4313      	orrs	r3, r2
 8001a7e:	61bb      	str	r3, [r7, #24]
        GPIOx->OSPEEDR = temp;
 8001a80:	687b      	ldr	r3, [r7, #4]
 8001a82:	69ba      	ldr	r2, [r7, #24]
 8001a84:	609a      	str	r2, [r3, #8]

        /* Configure the IO Output Type */
        temp = GPIOx->OTYPER;
 8001a86:	687b      	ldr	r3, [r7, #4]
 8001a88:	685b      	ldr	r3, [r3, #4]
 8001a8a:	61bb      	str	r3, [r7, #24]
        temp &= ~(GPIO_OTYPER_OT_0 << position) ;
 8001a8c:	2201      	movs	r2, #1
 8001a8e:	69fb      	ldr	r3, [r7, #28]
 8001a90:	fa02 f303 	lsl.w	r3, r2, r3
 8001a94:	43db      	mvns	r3, r3
 8001a96:	69ba      	ldr	r2, [r7, #24]
 8001a98:	4013      	ands	r3, r2
 8001a9a:	61bb      	str	r3, [r7, #24]
        temp |= (((GPIO_Init->Mode & OUTPUT_TYPE) >> OUTPUT_TYPE_Pos) << position);
 8001a9c:	683b      	ldr	r3, [r7, #0]
 8001a9e:	685b      	ldr	r3, [r3, #4]
 8001aa0:	091b      	lsrs	r3, r3, #4
 8001aa2:	f003 0201 	and.w	r2, r3, #1
 8001aa6:	69fb      	ldr	r3, [r7, #28]
 8001aa8:	fa02 f303 	lsl.w	r3, r2, r3
 8001aac:	69ba      	ldr	r2, [r7, #24]
 8001aae:	4313      	orrs	r3, r2
 8001ab0:	61bb      	str	r3, [r7, #24]
        GPIOx->OTYPER = temp;
 8001ab2:	687b      	ldr	r3, [r7, #4]
 8001ab4:	69ba      	ldr	r2, [r7, #24]
 8001ab6:	605a      	str	r2, [r3, #4]
       }

      if((GPIO_Init->Mode & GPIO_MODE) != MODE_ANALOG)
 8001ab8:	683b      	ldr	r3, [r7, #0]
 8001aba:	685b      	ldr	r3, [r3, #4]
 8001abc:	f003 0303 	and.w	r3, r3, #3
 8001ac0:	2b03      	cmp	r3, #3
 8001ac2:	d017      	beq.n	8001af4 <HAL_GPIO_Init+0xf0>
      {
        /* Check the parameters */
        assert_param(IS_GPIO_PULL(GPIO_Init->Pull));
        
        /* Activate the Pull-up or Pull down resistor for the current IO */
        temp = GPIOx->PUPDR;
 8001ac4:	687b      	ldr	r3, [r7, #4]
 8001ac6:	68db      	ldr	r3, [r3, #12]
 8001ac8:	61bb      	str	r3, [r7, #24]
        temp &= ~(GPIO_PUPDR_PUPDR0 << (position * 2U));
 8001aca:	69fb      	ldr	r3, [r7, #28]
 8001acc:	005b      	lsls	r3, r3, #1
 8001ace:	2203      	movs	r2, #3
 8001ad0:	fa02 f303 	lsl.w	r3, r2, r3
 8001ad4:	43db      	mvns	r3, r3
 8001ad6:	69ba      	ldr	r2, [r7, #24]
 8001ad8:	4013      	ands	r3, r2
 8001ada:	61bb      	str	r3, [r7, #24]
        temp |= ((GPIO_Init->Pull) << (position * 2U));
 8001adc:	683b      	ldr	r3, [r7, #0]
 8001ade:	689a      	ldr	r2, [r3, #8]
 8001ae0:	69fb      	ldr	r3, [r7, #28]
 8001ae2:	005b      	lsls	r3, r3, #1
 8001ae4:	fa02 f303 	lsl.w	r3, r2, r3
 8001ae8:	69ba      	ldr	r2, [r7, #24]
 8001aea:	4313      	orrs	r3, r2
 8001aec:	61bb      	str	r3, [r7, #24]
        GPIOx->PUPDR = temp;
 8001aee:	687b      	ldr	r3, [r7, #4]
 8001af0:	69ba      	ldr	r2, [r7, #24]
 8001af2:	60da      	str	r2, [r3, #12]
      }

      /* In case of Alternate function mode selection */
      if((GPIO_Init->Mode & GPIO_MODE) == MODE_AF)
 8001af4:	683b      	ldr	r3, [r7, #0]
 8001af6:	685b      	ldr	r3, [r3, #4]
 8001af8:	f003 0303 	and.w	r3, r3, #3
 8001afc:	2b02      	cmp	r3, #2
 8001afe:	d123      	bne.n	8001b48 <HAL_GPIO_Init+0x144>
      {
        /* Check the Alternate function parameter */
        assert_param(IS_GPIO_AF(GPIO_Init->Alternate));
        /* Configure Alternate function mapped with the current IO */
        temp = GPIOx->AFR[position >> 3U];
 8001b00:	69fb      	ldr	r3, [r7, #28]
 8001b02:	08da      	lsrs	r2, r3, #3
 8001b04:	687b      	ldr	r3, [r7, #4]
 8001b06:	3208      	adds	r2, #8
 8001b08:	f853 3022 	ldr.w	r3, [r3, r2, lsl #2]
 8001b0c:	61bb      	str	r3, [r7, #24]
        temp &= ~(0xFU << ((uint32_t)(position & 0x07U) * 4U)) ;
 8001b0e:	69fb      	ldr	r3, [r7, #28]
 8001b10:	f003 0307 	and.w	r3, r3, #7
 8001b14:	009b      	lsls	r3, r3, #2
 8001b16:	220f      	movs	r2, #15
 8001b18:	fa02 f303 	lsl.w	r3, r2, r3
 8001b1c:	43db      	mvns	r3, r3
 8001b1e:	69ba      	ldr	r2, [r7, #24]
 8001b20:	4013      	ands	r3, r2
 8001b22:	61bb      	str	r3, [r7, #24]
        temp |= ((uint32_t)(GPIO_Init->Alternate) << (((uint32_t)position & 0x07U) * 4U));
 8001b24:	683b      	ldr	r3, [r7, #0]
 8001b26:	691a      	ldr	r2, [r3, #16]
 8001b28:	69fb      	ldr	r3, [r7, #28]
 8001b2a:	f003 0307 	and.w	r3, r3, #7
 8001b2e:	009b      	lsls	r3, r3, #2
 8001b30:	fa02 f303 	lsl.w	r3, r2, r3
 8001b34:	69ba      	ldr	r2, [r7, #24]
 8001b36:	4313      	orrs	r3, r2
 8001b38:	61bb      	str	r3, [r7, #24]
        GPIOx->AFR[position >> 3U] = temp;
 8001b3a:	69fb      	ldr	r3, [r7, #28]
 8001b3c:	08da      	lsrs	r2, r3, #3
 8001b3e:	687b      	ldr	r3, [r7, #4]
 8001b40:	3208      	adds	r2, #8
 8001b42:	69b9      	ldr	r1, [r7, #24]
 8001b44:	f843 1022 	str.w	r1, [r3, r2, lsl #2]
      }

      /* Configure IO Direction mode (Input, Output, Alternate or Analog) */
      temp = GPIOx->MODER;
 8001b48:	687b      	ldr	r3, [r7, #4]
 8001b4a:	681b      	ldr	r3, [r3, #0]
 8001b4c:	61bb      	str	r3, [r7, #24]
      temp &= ~(GPIO_MODER_MODER0 << (position * 2U));
 8001b4e:	69fb      	ldr	r3, [r7, #28]
 8001b50:	005b      	lsls	r3, r3, #1
 8001b52:	2203      	movs	r2, #3
 8001b54:	fa02 f303 	lsl.w	r3, r2, r3
 8001b58:	43db      	mvns	r3, r3
 8001b5a:	69ba      	ldr	r2, [r7, #24]
 8001b5c:	4013      	ands	r3, r2
 8001b5e:	61bb      	str	r3, [r7, #24]
      temp |= ((GPIO_Init->Mode & GPIO_MODE) << (position * 2U));
 8001b60:	683b      	ldr	r3, [r7, #0]
 8001b62:	685b      	ldr	r3, [r3, #4]
 8001b64:	f003 0203 	and.w	r2, r3, #3
 8001b68:	69fb      	ldr	r3, [r7, #28]
 8001b6a:	005b      	lsls	r3, r3, #1
 8001b6c:	fa02 f303 	lsl.w	r3, r2, r3
 8001b70:	69ba      	ldr	r2, [r7, #24]
 8001b72:	4313      	orrs	r3, r2
 8001b74:	61bb      	str	r3, [r7, #24]
      GPIOx->MODER = temp;
 8001b76:	687b      	ldr	r3, [r7, #4]
 8001b78:	69ba      	ldr	r2, [r7, #24]
 8001b7a:	601a      	str	r2, [r3, #0]

      /*--------------------- EXTI Mode Configuration ------------------------*/
      /* Configure the External Interrupt or event for the current IO */
      if((GPIO_Init->Mode & EXTI_MODE) != 0x00U)
 8001b7c:	683b      	ldr	r3, [r7, #0]
 8001b7e:	685b      	ldr	r3, [r3, #4]
 8001b80:	f403 3340 	and.w	r3, r3, #196608	; 0x30000
 8001b84:	2b00      	cmp	r3, #0
 8001b86:	f000 80ae 	beq.w	8001ce6 <HAL_GPIO_Init+0x2e2>
      {
        /* Enable SYSCFG Clock */
        __HAL_RCC_SYSCFG_CLK_ENABLE();
 8001b8a:	2300      	movs	r3, #0
 8001b8c:	60fb      	str	r3, [r7, #12]
 8001b8e:	4b5d      	ldr	r3, [pc, #372]	; (8001d04 <HAL_GPIO_Init+0x300>)
 8001b90:	6c5b      	ldr	r3, [r3, #68]	; 0x44
 8001b92:	4a5c      	ldr	r2, [pc, #368]	; (8001d04 <HAL_GPIO_Init+0x300>)
 8001b94:	f443 4380 	orr.w	r3, r3, #16384	; 0x4000
 8001b98:	6453      	str	r3, [r2, #68]	; 0x44
 8001b9a:	4b5a      	ldr	r3, [pc, #360]	; (8001d04 <HAL_GPIO_Init+0x300>)
 8001b9c:	6c5b      	ldr	r3, [r3, #68]	; 0x44
 8001b9e:	f403 4380 	and.w	r3, r3, #16384	; 0x4000
 8001ba2:	60fb      	str	r3, [r7, #12]
 8001ba4:	68fb      	ldr	r3, [r7, #12]

        temp = SYSCFG->EXTICR[position >> 2U];
 8001ba6:	4a58      	ldr	r2, [pc, #352]	; (8001d08 <HAL_GPIO_Init+0x304>)
 8001ba8:	69fb      	ldr	r3, [r7, #28]
 8001baa:	089b      	lsrs	r3, r3, #2
 8001bac:	3302      	adds	r3, #2
 8001bae:	f852 3023 	ldr.w	r3, [r2, r3, lsl #2]
 8001bb2:	61bb      	str	r3, [r7, #24]
        temp &= ~(0x0FU << (4U * (position & 0x03U)));
 8001bb4:	69fb      	ldr	r3, [r7, #28]
 8001bb6:	f003 0303 	and.w	r3, r3, #3
 8001bba:	009b      	lsls	r3, r3, #2
 8001bbc:	220f      	movs	r2, #15
 8001bbe:	fa02 f303 	lsl.w	r3, r2, r3
 8001bc2:	43db      	mvns	r3, r3
 8001bc4:	69ba      	ldr	r2, [r7, #24]
 8001bc6:	4013      	ands	r3, r2
 8001bc8:	61bb      	str	r3, [r7, #24]
        temp |= ((uint32_t)(GPIO_GET_INDEX(GPIOx)) << (4U * (position & 0x03U)));
 8001bca:	687b      	ldr	r3, [r7, #4]
 8001bcc:	4a4f      	ldr	r2, [pc, #316]	; (8001d0c <HAL_GPIO_Init+0x308>)
 8001bce:	4293      	cmp	r3, r2
 8001bd0:	d025      	beq.n	8001c1e <HAL_GPIO_Init+0x21a>
 8001bd2:	687b      	ldr	r3, [r7, #4]
 8001bd4:	4a4e      	ldr	r2, [pc, #312]	; (8001d10 <HAL_GPIO_Init+0x30c>)
 8001bd6:	4293      	cmp	r3, r2
 8001bd8:	d01f      	beq.n	8001c1a <HAL_GPIO_Init+0x216>
 8001bda:	687b      	ldr	r3, [r7, #4]
 8001bdc:	4a4d      	ldr	r2, [pc, #308]	; (8001d14 <HAL_GPIO_Init+0x310>)
 8001bde:	4293      	cmp	r3, r2
 8001be0:	d019      	beq.n	8001c16 <HAL_GPIO_Init+0x212>
 8001be2:	687b      	ldr	r3, [r7, #4]
 8001be4:	4a4c      	ldr	r2, [pc, #304]	; (8001d18 <HAL_GPIO_Init+0x314>)
 8001be6:	4293      	cmp	r3, r2
 8001be8:	d013      	beq.n	8001c12 <HAL_GPIO_Init+0x20e>
 8001bea:	687b      	ldr	r3, [r7, #4]
 8001bec:	4a4b      	ldr	r2, [pc, #300]	; (8001d1c <HAL_GPIO_Init+0x318>)
 8001bee:	4293      	cmp	r3, r2
 8001bf0:	d00d      	beq.n	8001c0e <HAL_GPIO_Init+0x20a>
 8001bf2:	687b      	ldr	r3, [r7, #4]
 8001bf4:	4a4a      	ldr	r2, [pc, #296]	; (8001d20 <HAL_GPIO_Init+0x31c>)
 8001bf6:	4293      	cmp	r3, r2
 8001bf8:	d007      	beq.n	8001c0a <HAL_GPIO_Init+0x206>
 8001bfa:	687b      	ldr	r3, [r7, #4]
 8001bfc:	4a49      	ldr	r2, [pc, #292]	; (8001d24 <HAL_GPIO_Init+0x320>)
 8001bfe:	4293      	cmp	r3, r2
 8001c00:	d101      	bne.n	8001c06 <HAL_GPIO_Init+0x202>
 8001c02:	2306      	movs	r3, #6
 8001c04:	e00c      	b.n	8001c20 <HAL_GPIO_Init+0x21c>
 8001c06:	2307      	movs	r3, #7
 8001c08:	e00a      	b.n	8001c20 <HAL_GPIO_Init+0x21c>
 8001c0a:	2305      	movs	r3, #5
 8001c0c:	e008      	b.n	8001c20 <HAL_GPIO_Init+0x21c>
 8001c0e:	2304      	movs	r3, #4
 8001c10:	e006      	b.n	8001c20 <HAL_GPIO_Init+0x21c>
 8001c12:	2303      	movs	r3, #3
 8001c14:	e004      	b.n	8001c20 <HAL_GPIO_Init+0x21c>
 8001c16:	2302      	movs	r3, #2
 8001c18:	e002      	b.n	8001c20 <HAL_GPIO_Init+0x21c>
 8001c1a:	2301      	movs	r3, #1
 8001c1c:	e000      	b.n	8001c20 <HAL_GPIO_Init+0x21c>
 8001c1e:	2300      	movs	r3, #0
 8001c20:	69fa      	ldr	r2, [r7, #28]
 8001c22:	f002 0203 	and.w	r2, r2, #3
 8001c26:	0092      	lsls	r2, r2, #2
 8001c28:	4093      	lsls	r3, r2
 8001c2a:	69ba      	ldr	r2, [r7, #24]
 8001c2c:	4313      	orrs	r3, r2
 8001c2e:	61bb      	str	r3, [r7, #24]
        SYSCFG->EXTICR[position >> 2U] = temp;
 8001c30:	4935      	ldr	r1, [pc, #212]	; (8001d08 <HAL_GPIO_Init+0x304>)
 8001c32:	69fb      	ldr	r3, [r7, #28]
 8001c34:	089b      	lsrs	r3, r3, #2
 8001c36:	3302      	adds	r3, #2
 8001c38:	69ba      	ldr	r2, [r7, #24]
 8001c3a:	f841 2023 	str.w	r2, [r1, r3, lsl #2]

        /* Clear EXTI line configuration */
        temp = EXTI->IMR;
 8001c3e:	4b3a      	ldr	r3, [pc, #232]	; (8001d28 <HAL_GPIO_Init+0x324>)
 8001c40:	681b      	ldr	r3, [r3, #0]
 8001c42:	61bb      	str	r3, [r7, #24]
        temp &= ~((uint32_t)iocurrent);
 8001c44:	693b      	ldr	r3, [r7, #16]
 8001c46:	43db      	mvns	r3, r3
 8001c48:	69ba      	ldr	r2, [r7, #24]
 8001c4a:	4013      	ands	r3, r2
 8001c4c:	61bb      	str	r3, [r7, #24]
        if((GPIO_Init->Mode & EXTI_IT) != 0x00U)
 8001c4e:	683b      	ldr	r3, [r7, #0]
 8001c50:	685b      	ldr	r3, [r3, #4]
 8001c52:	f403 3380 	and.w	r3, r3, #65536	; 0x10000
 8001c56:	2b00      	cmp	r3, #0
 8001c58:	d003      	beq.n	8001c62 <HAL_GPIO_Init+0x25e>
        {
          temp |= iocurrent;
 8001c5a:	69ba      	ldr	r2, [r7, #24]
 8001c5c:	693b      	ldr	r3, [r7, #16]
 8001c5e:	4313      	orrs	r3, r2
 8001c60:	61bb      	str	r3, [r7, #24]
        }
        EXTI->IMR = temp;
 8001c62:	4a31      	ldr	r2, [pc, #196]	; (8001d28 <HAL_GPIO_Init+0x324>)
 8001c64:	69bb      	ldr	r3, [r7, #24]
 8001c66:	6013      	str	r3, [r2, #0]

        temp = EXTI->EMR;
 8001c68:	4b2f      	ldr	r3, [pc, #188]	; (8001d28 <HAL_GPIO_Init+0x324>)
 8001c6a:	685b      	ldr	r3, [r3, #4]
 8001c6c:	61bb      	str	r3, [r7, #24]
        temp &= ~((uint32_t)iocurrent);
 8001c6e:	693b      	ldr	r3, [r7, #16]
 8001c70:	43db      	mvns	r3, r3
 8001c72:	69ba      	ldr	r2, [r7, #24]
 8001c74:	4013      	ands	r3, r2
 8001c76:	61bb      	str	r3, [r7, #24]
        if((GPIO_Init->Mode & EXTI_EVT) != 0x00U)
 8001c78:	683b      	ldr	r3, [r7, #0]
 8001c7a:	685b      	ldr	r3, [r3, #4]
 8001c7c:	f403 3300 	and.w	r3, r3, #131072	; 0x20000
 8001c80:	2b00      	cmp	r3, #0
 8001c82:	d003      	beq.n	8001c8c <HAL_GPIO_Init+0x288>
        {
          temp |= iocurrent;
 8001c84:	69ba      	ldr	r2, [r7, #24]
 8001c86:	693b      	ldr	r3, [r7, #16]
 8001c88:	4313      	orrs	r3, r2
 8001c8a:	61bb      	str	r3, [r7, #24]
        }
        EXTI->EMR = temp;
 8001c8c:	4a26      	ldr	r2, [pc, #152]	; (8001d28 <HAL_GPIO_Init+0x324>)
 8001c8e:	69bb      	ldr	r3, [r7, #24]
 8001c90:	6053      	str	r3, [r2, #4]

        /* Clear Rising Falling edge configuration */
        temp = EXTI->RTSR;
 8001c92:	4b25      	ldr	r3, [pc, #148]	; (8001d28 <HAL_GPIO_Init+0x324>)
 8001c94:	689b      	ldr	r3, [r3, #8]
 8001c96:	61bb      	str	r3, [r7, #24]
        temp &= ~((uint32_t)iocurrent);
 8001c98:	693b      	ldr	r3, [r7, #16]
 8001c9a:	43db      	mvns	r3, r3
 8001c9c:	69ba      	ldr	r2, [r7, #24]
 8001c9e:	4013      	ands	r3, r2
 8001ca0:	61bb      	str	r3, [r7, #24]
        if((GPIO_Init->Mode & TRIGGER_RISING) != 0x00U)
 8001ca2:	683b      	ldr	r3, [r7, #0]
 8001ca4:	685b      	ldr	r3, [r3, #4]
 8001ca6:	f403 1380 	and.w	r3, r3, #1048576	; 0x100000
 8001caa:	2b00      	cmp	r3, #0
 8001cac:	d003      	beq.n	8001cb6 <HAL_GPIO_Init+0x2b2>
        {
          temp |= iocurrent;
 8001cae:	69ba      	ldr	r2, [r7, #24]
 8001cb0:	693b      	ldr	r3, [r7, #16]
 8001cb2:	4313      	orrs	r3, r2
 8001cb4:	61bb      	str	r3, [r7, #24]
        }
        EXTI->RTSR = temp;
 8001cb6:	4a1c      	ldr	r2, [pc, #112]	; (8001d28 <HAL_GPIO_Init+0x324>)
 8001cb8:	69bb      	ldr	r3, [r7, #24]
 8001cba:	6093      	str	r3, [r2, #8]

        temp = EXTI->FTSR;
 8001cbc:	4b1a      	ldr	r3, [pc, #104]	; (8001d28 <HAL_GPIO_Init+0x324>)
 8001cbe:	68db      	ldr	r3, [r3, #12]
 8001cc0:	61bb      	str	r3, [r7, #24]
        temp &= ~((uint32_t)iocurrent);
 8001cc2:	693b      	ldr	r3, [r7, #16]
 8001cc4:	43db      	mvns	r3, r3
 8001cc6:	69ba      	ldr	r2, [r7, #24]
 8001cc8:	4013      	ands	r3, r2
 8001cca:	61bb      	str	r3, [r7, #24]
        if((GPIO_Init->Mode & TRIGGER_FALLING) != 0x00U)
 8001ccc:	683b      	ldr	r3, [r7, #0]
 8001cce:	685b      	ldr	r3, [r3, #4]
 8001cd0:	f403 1300 	and.w	r3, r3, #2097152	; 0x200000
 8001cd4:	2b00      	cmp	r3, #0
 8001cd6:	d003      	beq.n	8001ce0 <HAL_GPIO_Init+0x2dc>
        {
          temp |= iocurrent;
 8001cd8:	69ba      	ldr	r2, [r7, #24]
 8001cda:	693b      	ldr	r3, [r7, #16]
 8001cdc:	4313      	orrs	r3, r2
 8001cde:	61bb      	str	r3, [r7, #24]
        }
        EXTI->FTSR = temp;
 8001ce0:	4a11      	ldr	r2, [pc, #68]	; (8001d28 <HAL_GPIO_Init+0x324>)
 8001ce2:	69bb      	ldr	r3, [r7, #24]
 8001ce4:	60d3      	str	r3, [r2, #12]
  for(position = 0U; position < GPIO_NUMBER; position++)
 8001ce6:	69fb      	ldr	r3, [r7, #28]
 8001ce8:	3301      	adds	r3, #1
 8001cea:	61fb      	str	r3, [r7, #28]
 8001cec:	69fb      	ldr	r3, [r7, #28]
 8001cee:	2b0f      	cmp	r3, #15
 8001cf0:	f67f ae96 	bls.w	8001a20 <HAL_GPIO_Init+0x1c>
      }
    }
  }
}
 8001cf4:	bf00      	nop
 8001cf6:	bf00      	nop
 8001cf8:	3724      	adds	r7, #36	; 0x24
 8001cfa:	46bd      	mov	sp, r7
 8001cfc:	f85d 7b04 	ldr.w	r7, [sp], #4
 8001d00:	4770      	bx	lr
 8001d02:	bf00      	nop
 8001d04:	40023800 	.word	0x40023800
 8001d08:	40013800 	.word	0x40013800
 8001d0c:	40020000 	.word	0x40020000
 8001d10:	40020400 	.word	0x40020400
 8001d14:	40020800 	.word	0x40020800
 8001d18:	40020c00 	.word	0x40020c00
 8001d1c:	40021000 	.word	0x40021000
 8001d20:	40021400 	.word	0x40021400
 8001d24:	40021800 	.word	0x40021800
 8001d28:	40013c00 	.word	0x40013c00

08001d2c <HAL_GPIO_WritePin>:
  *            @arg GPIO_PIN_RESET: to clear the port pin
  *            @arg GPIO_PIN_SET: to set the port pin
  * @retval None
  */
void HAL_GPIO_WritePin(GPIO_TypeDef* GPIOx, uint16_t GPIO_Pin, GPIO_PinState PinState)
{
 8001d2c:	b480      	push	{r7}
 8001d2e:	b083      	sub	sp, #12
 8001d30:	af00      	add	r7, sp, #0
 8001d32:	6078      	str	r0, [r7, #4]
 8001d34:	460b      	mov	r3, r1
 8001d36:	807b      	strh	r3, [r7, #2]
 8001d38:	4613      	mov	r3, r2
 8001d3a:	707b      	strb	r3, [r7, #1]
  /* Check the parameters */
  assert_param(IS_GPIO_PIN(GPIO_Pin));
  assert_param(IS_GPIO_PIN_ACTION(PinState));

  if(PinState != GPIO_PIN_RESET)
 8001d3c:	787b      	ldrb	r3, [r7, #1]
 8001d3e:	2b00      	cmp	r3, #0
 8001d40:	d003      	beq.n	8001d4a <HAL_GPIO_WritePin+0x1e>
  {
    GPIOx->BSRR = GPIO_Pin;
 8001d42:	887a      	ldrh	r2, [r7, #2]
 8001d44:	687b      	ldr	r3, [r7, #4]
 8001d46:	619a      	str	r2, [r3, #24]
  }
  else
  {
    GPIOx->BSRR = (uint32_t)GPIO_Pin << 16U;
  }
}
 8001d48:	e003      	b.n	8001d52 <HAL_GPIO_WritePin+0x26>
    GPIOx->BSRR = (uint32_t)GPIO_Pin << 16U;
 8001d4a:	887b      	ldrh	r3, [r7, #2]
 8001d4c:	041a      	lsls	r2, r3, #16
 8001d4e:	687b      	ldr	r3, [r7, #4]
 8001d50:	619a      	str	r2, [r3, #24]
}
 8001d52:	bf00      	nop
 8001d54:	370c      	adds	r7, #12
 8001d56:	46bd      	mov	sp, r7
 8001d58:	f85d 7b04 	ldr.w	r7, [sp], #4
 8001d5c:	4770      	bx	lr
	...

08001d60 <HAL_RCC_ClockConfig>:
  *         HPRE[3:0] bits to ensure that HCLK not exceed the maximum allowed frequency
  *         (for more details refer to section above "Initialization/de-initialization functions")
  * @retval None
  */
HAL_StatusTypeDef HAL_RCC_ClockConfig(RCC_ClkInitTypeDef  *RCC_ClkInitStruct, uint32_t FLatency)
{
 8001d60:	b580      	push	{r7, lr}
 8001d62:	b084      	sub	sp, #16
 8001d64:	af00      	add	r7, sp, #0
 8001d66:	6078      	str	r0, [r7, #4]
 8001d68:	6039      	str	r1, [r7, #0]
  uint32_t tickstart;

  /* Check Null pointer */
  if(RCC_ClkInitStruct == NULL)
 8001d6a:	687b      	ldr	r3, [r7, #4]
 8001d6c:	2b00      	cmp	r3, #0
 8001d6e:	d101      	bne.n	8001d74 <HAL_RCC_ClockConfig+0x14>
  {
    return HAL_ERROR;
 8001d70:	2301      	movs	r3, #1
 8001d72:	e0cc      	b.n	8001f0e <HAL_RCC_ClockConfig+0x1ae>
  /* To correctly read data from FLASH memory, the number of wait states (LATENCY)
    must be correctly programmed according to the frequency of the CPU clock
    (HCLK) and the supply voltage of the device. */

  /* Increasing the number of wait states because of higher CPU frequency */
  if(FLatency > __HAL_FLASH_GET_LATENCY())
 8001d74:	4b68      	ldr	r3, [pc, #416]	; (8001f18 <HAL_RCC_ClockConfig+0x1b8>)
 8001d76:	681b      	ldr	r3, [r3, #0]
 8001d78:	f003 030f 	and.w	r3, r3, #15
 8001d7c:	683a      	ldr	r2, [r7, #0]
 8001d7e:	429a      	cmp	r2, r3
 8001d80:	d90c      	bls.n	8001d9c <HAL_RCC_ClockConfig+0x3c>
  {
    /* Program the new number of wait states to the LATENCY bits in the FLASH_ACR register */
    __HAL_FLASH_SET_LATENCY(FLatency);
 8001d82:	4b65      	ldr	r3, [pc, #404]	; (8001f18 <HAL_RCC_ClockConfig+0x1b8>)
 8001d84:	683a      	ldr	r2, [r7, #0]
 8001d86:	b2d2      	uxtb	r2, r2
 8001d88:	701a      	strb	r2, [r3, #0]

    /* Check that the new number of wait states is taken into account to access the Flash
    memory by reading the FLASH_ACR register */
    if(__HAL_FLASH_GET_LATENCY() != FLatency)
 8001d8a:	4b63      	ldr	r3, [pc, #396]	; (8001f18 <HAL_RCC_ClockConfig+0x1b8>)
 8001d8c:	681b      	ldr	r3, [r3, #0]
 8001d8e:	f003 030f 	and.w	r3, r3, #15
 8001d92:	683a      	ldr	r2, [r7, #0]
 8001d94:	429a      	cmp	r2, r3
 8001d96:	d001      	beq.n	8001d9c <HAL_RCC_ClockConfig+0x3c>
    {
      return HAL_ERROR;
 8001d98:	2301      	movs	r3, #1
 8001d9a:	e0b8      	b.n	8001f0e <HAL_RCC_ClockConfig+0x1ae>
    }
  }

  /*-------------------------- HCLK Configuration --------------------------*/
  if(((RCC_ClkInitStruct->ClockType) & RCC_CLOCKTYPE_HCLK) == RCC_CLOCKTYPE_HCLK)
 8001d9c:	687b      	ldr	r3, [r7, #4]
 8001d9e:	681b      	ldr	r3, [r3, #0]
 8001da0:	f003 0302 	and.w	r3, r3, #2
 8001da4:	2b00      	cmp	r3, #0
 8001da6:	d020      	beq.n	8001dea <HAL_RCC_ClockConfig+0x8a>
  {
    /* Set the highest APBx dividers in order to ensure that we do not go through
       a non-spec phase whatever we decrease or increase HCLK. */
    if(((RCC_ClkInitStruct->ClockType) & RCC_CLOCKTYPE_PCLK1) == RCC_CLOCKTYPE_PCLK1)
 8001da8:	687b      	ldr	r3, [r7, #4]
 8001daa:	681b      	ldr	r3, [r3, #0]
 8001dac:	f003 0304 	and.w	r3, r3, #4
 8001db0:	2b00      	cmp	r3, #0
 8001db2:	d005      	beq.n	8001dc0 <HAL_RCC_ClockConfig+0x60>
    {
      MODIFY_REG(RCC->CFGR, RCC_CFGR_PPRE1, RCC_HCLK_DIV16);
 8001db4:	4b59      	ldr	r3, [pc, #356]	; (8001f1c <HAL_RCC_ClockConfig+0x1bc>)
 8001db6:	689b      	ldr	r3, [r3, #8]
 8001db8:	4a58      	ldr	r2, [pc, #352]	; (8001f1c <HAL_RCC_ClockConfig+0x1bc>)
 8001dba:	f443 53e0 	orr.w	r3, r3, #7168	; 0x1c00
 8001dbe:	6093      	str	r3, [r2, #8]
    }

    if(((RCC_ClkInitStruct->ClockType) & RCC_CLOCKTYPE_PCLK2) == RCC_CLOCKTYPE_PCLK2)
 8001dc0:	687b      	ldr	r3, [r7, #4]
 8001dc2:	681b      	ldr	r3, [r3, #0]
 8001dc4:	f003 0308 	and.w	r3, r3, #8
 8001dc8:	2b00      	cmp	r3, #0
 8001dca:	d005      	beq.n	8001dd8 <HAL_RCC_ClockConfig+0x78>
    {
      MODIFY_REG(RCC->CFGR, RCC_CFGR_PPRE2, (RCC_HCLK_DIV16 << 3));
 8001dcc:	4b53      	ldr	r3, [pc, #332]	; (8001f1c <HAL_RCC_ClockConfig+0x1bc>)
 8001dce:	689b      	ldr	r3, [r3, #8]
 8001dd0:	4a52      	ldr	r2, [pc, #328]	; (8001f1c <HAL_RCC_ClockConfig+0x1bc>)
 8001dd2:	f443 4360 	orr.w	r3, r3, #57344	; 0xe000
 8001dd6:	6093      	str	r3, [r2, #8]
    }

    assert_param(IS_RCC_HCLK(RCC_ClkInitStruct->AHBCLKDivider));
    MODIFY_REG(RCC->CFGR, RCC_CFGR_HPRE, RCC_ClkInitStruct->AHBCLKDivider);
 8001dd8:	4b50      	ldr	r3, [pc, #320]	; (8001f1c <HAL_RCC_ClockConfig+0x1bc>)
 8001dda:	689b      	ldr	r3, [r3, #8]
 8001ddc:	f023 02f0 	bic.w	r2, r3, #240	; 0xf0
 8001de0:	687b      	ldr	r3, [r7, #4]
 8001de2:	689b      	ldr	r3, [r3, #8]
 8001de4:	494d      	ldr	r1, [pc, #308]	; (8001f1c <HAL_RCC_ClockConfig+0x1bc>)
 8001de6:	4313      	orrs	r3, r2
 8001de8:	608b      	str	r3, [r1, #8]
  }

  /*------------------------- SYSCLK Configuration ---------------------------*/
  if(((RCC_ClkInitStruct->ClockType) & RCC_CLOCKTYPE_SYSCLK) == RCC_CLOCKTYPE_SYSCLK)
 8001dea:	687b      	ldr	r3, [r7, #4]
 8001dec:	681b      	ldr	r3, [r3, #0]
 8001dee:	f003 0301 	and.w	r3, r3, #1
 8001df2:	2b00      	cmp	r3, #0
 8001df4:	d044      	beq.n	8001e80 <HAL_RCC_ClockConfig+0x120>
  {
    assert_param(IS_RCC_SYSCLKSOURCE(RCC_ClkInitStruct->SYSCLKSource));

    /* HSE is selected as System Clock Source */
    if(RCC_ClkInitStruct->SYSCLKSource == RCC_SYSCLKSOURCE_HSE)
 8001df6:	687b      	ldr	r3, [r7, #4]
 8001df8:	685b      	ldr	r3, [r3, #4]
 8001dfa:	2b01      	cmp	r3, #1
 8001dfc:	d107      	bne.n	8001e0e <HAL_RCC_ClockConfig+0xae>
    {
      /* Check the HSE ready flag */
      if(__HAL_RCC_GET_FLAG(RCC_FLAG_HSERDY) == RESET)
 8001dfe:	4b47      	ldr	r3, [pc, #284]	; (8001f1c <HAL_RCC_ClockConfig+0x1bc>)
 8001e00:	681b      	ldr	r3, [r3, #0]
 8001e02:	f403 3300 	and.w	r3, r3, #131072	; 0x20000
 8001e06:	2b00      	cmp	r3, #0
 8001e08:	d119      	bne.n	8001e3e <HAL_RCC_ClockConfig+0xde>
      {
        return HAL_ERROR;
 8001e0a:	2301      	movs	r3, #1
 8001e0c:	e07f      	b.n	8001f0e <HAL_RCC_ClockConfig+0x1ae>
      }
    }
    /* PLL is selected as System Clock Source */
    else if((RCC_ClkInitStruct->SYSCLKSource == RCC_SYSCLKSOURCE_PLLCLK)   ||
 8001e0e:	687b      	ldr	r3, [r7, #4]
 8001e10:	685b      	ldr	r3, [r3, #4]
 8001e12:	2b02      	cmp	r3, #2
 8001e14:	d003      	beq.n	8001e1e <HAL_RCC_ClockConfig+0xbe>
            (RCC_ClkInitStruct->SYSCLKSource == RCC_SYSCLKSOURCE_PLLRCLK))
 8001e16:	687b      	ldr	r3, [r7, #4]
 8001e18:	685b      	ldr	r3, [r3, #4]
    else if((RCC_ClkInitStruct->SYSCLKSource == RCC_SYSCLKSOURCE_PLLCLK)   ||
 8001e1a:	2b03      	cmp	r3, #3
 8001e1c:	d107      	bne.n	8001e2e <HAL_RCC_ClockConfig+0xce>
    {
      /* Check the PLL ready flag */
      if(__HAL_RCC_GET_FLAG(RCC_FLAG_PLLRDY) == RESET)
 8001e1e:	4b3f      	ldr	r3, [pc, #252]	; (8001f1c <HAL_RCC_ClockConfig+0x1bc>)
 8001e20:	681b      	ldr	r3, [r3, #0]
 8001e22:	f003 7300 	and.w	r3, r3, #33554432	; 0x2000000
 8001e26:	2b00      	cmp	r3, #0
 8001e28:	d109      	bne.n	8001e3e <HAL_RCC_ClockConfig+0xde>
      {
        return HAL_ERROR;
 8001e2a:	2301      	movs	r3, #1
 8001e2c:	e06f      	b.n	8001f0e <HAL_RCC_ClockConfig+0x1ae>
    }
    /* HSI is selected as System Clock Source */
    else
    {
      /* Check the HSI ready flag */
      if(__HAL_RCC_GET_FLAG(RCC_FLAG_HSIRDY) == RESET)
 8001e2e:	4b3b      	ldr	r3, [pc, #236]	; (8001f1c <HAL_RCC_ClockConfig+0x1bc>)
 8001e30:	681b      	ldr	r3, [r3, #0]
 8001e32:	f003 0302 	and.w	r3, r3, #2
 8001e36:	2b00      	cmp	r3, #0
 8001e38:	d101      	bne.n	8001e3e <HAL_RCC_ClockConfig+0xde>
      {
        return HAL_ERROR;
 8001e3a:	2301      	movs	r3, #1
 8001e3c:	e067      	b.n	8001f0e <HAL_RCC_ClockConfig+0x1ae>
      }
    }

    __HAL_RCC_SYSCLK_CONFIG(RCC_ClkInitStruct->SYSCLKSource);
 8001e3e:	4b37      	ldr	r3, [pc, #220]	; (8001f1c <HAL_RCC_ClockConfig+0x1bc>)
 8001e40:	689b      	ldr	r3, [r3, #8]
 8001e42:	f023 0203 	bic.w	r2, r3, #3
 8001e46:	687b      	ldr	r3, [r7, #4]
 8001e48:	685b      	ldr	r3, [r3, #4]
 8001e4a:	4934      	ldr	r1, [pc, #208]	; (8001f1c <HAL_RCC_ClockConfig+0x1bc>)
 8001e4c:	4313      	orrs	r3, r2
 8001e4e:	608b      	str	r3, [r1, #8]

    /* Get Start Tick */
    tickstart = HAL_GetTick();
 8001e50:	f7ff fc96 	bl	8001780 <HAL_GetTick>
 8001e54:	60f8      	str	r0, [r7, #12]

    while (__HAL_RCC_GET_SYSCLK_SOURCE() != (RCC_ClkInitStruct->SYSCLKSource << RCC_CFGR_SWS_Pos))
 8001e56:	e00a      	b.n	8001e6e <HAL_RCC_ClockConfig+0x10e>
    {
      if ((HAL_GetTick() - tickstart) > CLOCKSWITCH_TIMEOUT_VALUE)
 8001e58:	f7ff fc92 	bl	8001780 <HAL_GetTick>
 8001e5c:	4602      	mov	r2, r0
 8001e5e:	68fb      	ldr	r3, [r7, #12]
 8001e60:	1ad3      	subs	r3, r2, r3
 8001e62:	f241 3288 	movw	r2, #5000	; 0x1388
 8001e66:	4293      	cmp	r3, r2
 8001e68:	d901      	bls.n	8001e6e <HAL_RCC_ClockConfig+0x10e>
      {
        return HAL_TIMEOUT;
 8001e6a:	2303      	movs	r3, #3
 8001e6c:	e04f      	b.n	8001f0e <HAL_RCC_ClockConfig+0x1ae>
    while (__HAL_RCC_GET_SYSCLK_SOURCE() != (RCC_ClkInitStruct->SYSCLKSource << RCC_CFGR_SWS_Pos))
 8001e6e:	4b2b      	ldr	r3, [pc, #172]	; (8001f1c <HAL_RCC_ClockConfig+0x1bc>)
 8001e70:	689b      	ldr	r3, [r3, #8]
 8001e72:	f003 020c 	and.w	r2, r3, #12
 8001e76:	687b      	ldr	r3, [r7, #4]
 8001e78:	685b      	ldr	r3, [r3, #4]
 8001e7a:	009b      	lsls	r3, r3, #2
 8001e7c:	429a      	cmp	r2, r3
 8001e7e:	d1eb      	bne.n	8001e58 <HAL_RCC_ClockConfig+0xf8>
      }
    }
  }

  /* Decreasing the number of wait states because of lower CPU frequency */
  if(FLatency < __HAL_FLASH_GET_LATENCY())
 8001e80:	4b25      	ldr	r3, [pc, #148]	; (8001f18 <HAL_RCC_ClockConfig+0x1b8>)
 8001e82:	681b      	ldr	r3, [r3, #0]
 8001e84:	f003 030f 	and.w	r3, r3, #15
 8001e88:	683a      	ldr	r2, [r7, #0]
 8001e8a:	429a      	cmp	r2, r3
 8001e8c:	d20c      	bcs.n	8001ea8 <HAL_RCC_ClockConfig+0x148>
  {
     /* Program the new number of wait states to the LATENCY bits in the FLASH_ACR register */
    __HAL_FLASH_SET_LATENCY(FLatency);
 8001e8e:	4b22      	ldr	r3, [pc, #136]	; (8001f18 <HAL_RCC_ClockConfig+0x1b8>)
 8001e90:	683a      	ldr	r2, [r7, #0]
 8001e92:	b2d2      	uxtb	r2, r2
 8001e94:	701a      	strb	r2, [r3, #0]

    /* Check that the new number of wait states is taken into account to access the Flash
    memory by reading the FLASH_ACR register */
    if(__HAL_FLASH_GET_LATENCY() != FLatency)
 8001e96:	4b20      	ldr	r3, [pc, #128]	; (8001f18 <HAL_RCC_ClockConfig+0x1b8>)
 8001e98:	681b      	ldr	r3, [r3, #0]
 8001e9a:	f003 030f 	and.w	r3, r3, #15
 8001e9e:	683a      	ldr	r2, [r7, #0]
 8001ea0:	429a      	cmp	r2, r3
 8001ea2:	d001      	beq.n	8001ea8 <HAL_RCC_ClockConfig+0x148>
    {
      return HAL_ERROR;
 8001ea4:	2301      	movs	r3, #1
 8001ea6:	e032      	b.n	8001f0e <HAL_RCC_ClockConfig+0x1ae>
    }
  }

  /*-------------------------- PCLK1 Configuration ---------------------------*/
  if(((RCC_ClkInitStruct->ClockType) & RCC_CLOCKTYPE_PCLK1) == RCC_CLOCKTYPE_PCLK1)
 8001ea8:	687b      	ldr	r3, [r7, #4]
 8001eaa:	681b      	ldr	r3, [r3, #0]
 8001eac:	f003 0304 	and.w	r3, r3, #4
 8001eb0:	2b00      	cmp	r3, #0
 8001eb2:	d008      	beq.n	8001ec6 <HAL_RCC_ClockConfig+0x166>
  {
    assert_param(IS_RCC_PCLK(RCC_ClkInitStruct->APB1CLKDivider));
    MODIFY_REG(RCC->CFGR, RCC_CFGR_PPRE1, RCC_ClkInitStruct->APB1CLKDivider);
 8001eb4:	4b19      	ldr	r3, [pc, #100]	; (8001f1c <HAL_RCC_ClockConfig+0x1bc>)
 8001eb6:	689b      	ldr	r3, [r3, #8]
 8001eb8:	f423 52e0 	bic.w	r2, r3, #7168	; 0x1c00
 8001ebc:	687b      	ldr	r3, [r7, #4]
 8001ebe:	68db      	ldr	r3, [r3, #12]
 8001ec0:	4916      	ldr	r1, [pc, #88]	; (8001f1c <HAL_RCC_ClockConfig+0x1bc>)
 8001ec2:	4313      	orrs	r3, r2
 8001ec4:	608b      	str	r3, [r1, #8]
  }

  /*-------------------------- PCLK2 Configuration ---------------------------*/
  if(((RCC_ClkInitStruct->ClockType) & RCC_CLOCKTYPE_PCLK2) == RCC_CLOCKTYPE_PCLK2)
 8001ec6:	687b      	ldr	r3, [r7, #4]
 8001ec8:	681b      	ldr	r3, [r3, #0]
 8001eca:	f003 0308 	and.w	r3, r3, #8
 8001ece:	2b00      	cmp	r3, #0
 8001ed0:	d009      	beq.n	8001ee6 <HAL_RCC_ClockConfig+0x186>
  {
    assert_param(IS_RCC_PCLK(RCC_ClkInitStruct->APB2CLKDivider));
    MODIFY_REG(RCC->CFGR, RCC_CFGR_PPRE2, ((RCC_ClkInitStruct->APB2CLKDivider) << 3U));
 8001ed2:	4b12      	ldr	r3, [pc, #72]	; (8001f1c <HAL_RCC_ClockConfig+0x1bc>)
 8001ed4:	689b      	ldr	r3, [r3, #8]
 8001ed6:	f423 4260 	bic.w	r2, r3, #57344	; 0xe000
 8001eda:	687b      	ldr	r3, [r7, #4]
 8001edc:	691b      	ldr	r3, [r3, #16]
 8001ede:	00db      	lsls	r3, r3, #3
 8001ee0:	490e      	ldr	r1, [pc, #56]	; (8001f1c <HAL_RCC_ClockConfig+0x1bc>)
 8001ee2:	4313      	orrs	r3, r2
 8001ee4:	608b      	str	r3, [r1, #8]
  }

  /* Update the SystemCoreClock global variable */
  SystemCoreClock = HAL_RCC_GetSysClockFreq() >> AHBPrescTable[(RCC->CFGR & RCC_CFGR_HPRE)>> RCC_CFGR_HPRE_Pos];
 8001ee6:	f000 f855 	bl	8001f94 <HAL_RCC_GetSysClockFreq>
 8001eea:	4602      	mov	r2, r0
 8001eec:	4b0b      	ldr	r3, [pc, #44]	; (8001f1c <HAL_RCC_ClockConfig+0x1bc>)
 8001eee:	689b      	ldr	r3, [r3, #8]
 8001ef0:	091b      	lsrs	r3, r3, #4
 8001ef2:	f003 030f 	and.w	r3, r3, #15
 8001ef6:	490a      	ldr	r1, [pc, #40]	; (8001f20 <HAL_RCC_ClockConfig+0x1c0>)
 8001ef8:	5ccb      	ldrb	r3, [r1, r3]
 8001efa:	fa22 f303 	lsr.w	r3, r2, r3
 8001efe:	4a09      	ldr	r2, [pc, #36]	; (8001f24 <HAL_RCC_ClockConfig+0x1c4>)
 8001f00:	6013      	str	r3, [r2, #0]

  /* Configure the source of time base considering new system clocks settings */
  HAL_InitTick (uwTickPrio);
 8001f02:	4b09      	ldr	r3, [pc, #36]	; (8001f28 <HAL_RCC_ClockConfig+0x1c8>)
 8001f04:	681b      	ldr	r3, [r3, #0]
 8001f06:	4618      	mov	r0, r3
 8001f08:	f7ff fbf6 	bl	80016f8 <HAL_InitTick>

  return HAL_OK;
 8001f0c:	2300      	movs	r3, #0
}
 8001f0e:	4618      	mov	r0, r3
 8001f10:	3710      	adds	r7, #16
 8001f12:	46bd      	mov	sp, r7
 8001f14:	bd80      	pop	{r7, pc}
 8001f16:	bf00      	nop
 8001f18:	40023c00 	.word	0x40023c00
 8001f1c:	40023800 	.word	0x40023800
 8001f20:	0800714c 	.word	0x0800714c
 8001f24:	20000000 	.word	0x20000000
 8001f28:	20000004 	.word	0x20000004

08001f2c <HAL_RCC_GetHCLKFreq>:
  * @note   The SystemCoreClock CMSIS variable is used to store System Clock Frequency
  *         and updated within this function
  * @retval HCLK frequency
  */
uint32_t HAL_RCC_GetHCLKFreq(void)
{
 8001f2c:	b480      	push	{r7}
 8001f2e:	af00      	add	r7, sp, #0
  return SystemCoreClock;
 8001f30:	4b03      	ldr	r3, [pc, #12]	; (8001f40 <HAL_RCC_GetHCLKFreq+0x14>)
 8001f32:	681b      	ldr	r3, [r3, #0]
}
 8001f34:	4618      	mov	r0, r3
 8001f36:	46bd      	mov	sp, r7
 8001f38:	f85d 7b04 	ldr.w	r7, [sp], #4
 8001f3c:	4770      	bx	lr
 8001f3e:	bf00      	nop
 8001f40:	20000000 	.word	0x20000000

08001f44 <HAL_RCC_GetPCLK1Freq>:
  * @note   Each time PCLK1 changes, this function must be called to update the
  *         right PCLK1 value. Otherwise, any configuration based on this function will be incorrect.
  * @retval PCLK1 frequency
  */
uint32_t HAL_RCC_GetPCLK1Freq(void)
{
 8001f44:	b580      	push	{r7, lr}
 8001f46:	af00      	add	r7, sp, #0
  /* Get HCLK source and Compute PCLK1 frequency ---------------------------*/
  return (HAL_RCC_GetHCLKFreq() >> APBPrescTable[(RCC->CFGR & RCC_CFGR_PPRE1)>> RCC_CFGR_PPRE1_Pos]);
 8001f48:	f7ff fff0 	bl	8001f2c <HAL_RCC_GetHCLKFreq>
 8001f4c:	4602      	mov	r2, r0
 8001f4e:	4b05      	ldr	r3, [pc, #20]	; (8001f64 <HAL_RCC_GetPCLK1Freq+0x20>)
 8001f50:	689b      	ldr	r3, [r3, #8]
 8001f52:	0a9b      	lsrs	r3, r3, #10
 8001f54:	f003 0307 	and.w	r3, r3, #7
 8001f58:	4903      	ldr	r1, [pc, #12]	; (8001f68 <HAL_RCC_GetPCLK1Freq+0x24>)
 8001f5a:	5ccb      	ldrb	r3, [r1, r3]
 8001f5c:	fa22 f303 	lsr.w	r3, r2, r3
}
 8001f60:	4618      	mov	r0, r3
 8001f62:	bd80      	pop	{r7, pc}
 8001f64:	40023800 	.word	0x40023800
 8001f68:	0800715c 	.word	0x0800715c

08001f6c <HAL_RCC_GetPCLK2Freq>:
  * @note   Each time PCLK2 changes, this function must be called to update the
  *         right PCLK2 value. Otherwise, any configuration based on this function will be incorrect.
  * @retval PCLK2 frequency
  */
uint32_t HAL_RCC_GetPCLK2Freq(void)
{
 8001f6c:	b580      	push	{r7, lr}
 8001f6e:	af00      	add	r7, sp, #0
  /* Get HCLK source and Compute PCLK2 frequency ---------------------------*/
  return (HAL_RCC_GetHCLKFreq()>> APBPrescTable[(RCC->CFGR & RCC_CFGR_PPRE2)>> RCC_CFGR_PPRE2_Pos]);
 8001f70:	f7ff ffdc 	bl	8001f2c <HAL_RCC_GetHCLKFreq>
 8001f74:	4602      	mov	r2, r0
 8001f76:	4b05      	ldr	r3, [pc, #20]	; (8001f8c <HAL_RCC_GetPCLK2Freq+0x20>)
 8001f78:	689b      	ldr	r3, [r3, #8]
 8001f7a:	0b5b      	lsrs	r3, r3, #13
 8001f7c:	f003 0307 	and.w	r3, r3, #7
 8001f80:	4903      	ldr	r1, [pc, #12]	; (8001f90 <HAL_RCC_GetPCLK2Freq+0x24>)
 8001f82:	5ccb      	ldrb	r3, [r1, r3]
 8001f84:	fa22 f303 	lsr.w	r3, r2, r3
}
 8001f88:	4618      	mov	r0, r3
 8001f8a:	bd80      	pop	{r7, pc}
 8001f8c:	40023800 	.word	0x40023800
 8001f90:	0800715c 	.word	0x0800715c

08001f94 <HAL_RCC_GetSysClockFreq>:
  *
  *
  * @retval SYSCLK frequency
  */
uint32_t HAL_RCC_GetSysClockFreq(void)
{
 8001f94:	e92d 4fb0 	stmdb	sp!, {r4, r5, r7, r8, r9, sl, fp, lr}
 8001f98:	b088      	sub	sp, #32
 8001f9a:	af00      	add	r7, sp, #0
  uint32_t pllm = 0U;
 8001f9c:	2300      	movs	r3, #0
 8001f9e:	617b      	str	r3, [r7, #20]
  uint32_t pllvco = 0U;
 8001fa0:	2300      	movs	r3, #0
 8001fa2:	61fb      	str	r3, [r7, #28]
  uint32_t pllp = 0U;
 8001fa4:	2300      	movs	r3, #0
 8001fa6:	613b      	str	r3, [r7, #16]
  uint32_t pllr = 0U;
 8001fa8:	2300      	movs	r3, #0
 8001faa:	60fb      	str	r3, [r7, #12]
  uint32_t sysclockfreq = 0U;
 8001fac:	2300      	movs	r3, #0
 8001fae:	61bb      	str	r3, [r7, #24]

  /* Get SYSCLK source -------------------------------------------------------*/
  switch (RCC->CFGR & RCC_CFGR_SWS)
 8001fb0:	4bce      	ldr	r3, [pc, #824]	; (80022ec <HAL_RCC_GetSysClockFreq+0x358>)
 8001fb2:	689b      	ldr	r3, [r3, #8]
 8001fb4:	f003 030c 	and.w	r3, r3, #12
 8001fb8:	2b0c      	cmp	r3, #12
 8001fba:	f200 818d 	bhi.w	80022d8 <HAL_RCC_GetSysClockFreq+0x344>
 8001fbe:	a201      	add	r2, pc, #4	; (adr r2, 8001fc4 <HAL_RCC_GetSysClockFreq+0x30>)
 8001fc0:	f852 f023 	ldr.w	pc, [r2, r3, lsl #2]
 8001fc4:	08001ff9 	.word	0x08001ff9
 8001fc8:	080022d9 	.word	0x080022d9
 8001fcc:	080022d9 	.word	0x080022d9
 8001fd0:	080022d9 	.word	0x080022d9
 8001fd4:	08001fff 	.word	0x08001fff
 8001fd8:	080022d9 	.word	0x080022d9
 8001fdc:	080022d9 	.word	0x080022d9
 8001fe0:	080022d9 	.word	0x080022d9
 8001fe4:	08002005 	.word	0x08002005
 8001fe8:	080022d9 	.word	0x080022d9
 8001fec:	080022d9 	.word	0x080022d9
 8001ff0:	080022d9 	.word	0x080022d9
 8001ff4:	08002179 	.word	0x08002179
  {
    case RCC_CFGR_SWS_HSI:  /* HSI used as system clock source */
    {
      sysclockfreq = HSI_VALUE;
 8001ff8:	4bbd      	ldr	r3, [pc, #756]	; (80022f0 <HAL_RCC_GetSysClockFreq+0x35c>)
 8001ffa:	61bb      	str	r3, [r7, #24]
       break;
 8001ffc:	e16f      	b.n	80022de <HAL_RCC_GetSysClockFreq+0x34a>
    }
    case RCC_CFGR_SWS_HSE:  /* HSE used as system clock  source */
    {
      sysclockfreq = HSE_VALUE;
 8001ffe:	4bbd      	ldr	r3, [pc, #756]	; (80022f4 <HAL_RCC_GetSysClockFreq+0x360>)
 8002000:	61bb      	str	r3, [r7, #24]
      break;
 8002002:	e16c      	b.n	80022de <HAL_RCC_GetSysClockFreq+0x34a>
    }
    case RCC_CFGR_SWS_PLL:  /* PLL/PLLP used as system clock  source */
    {
      /* PLL_VCO = (HSE_VALUE or HSI_VALUE / PLLM) * PLLN
      SYSCLK = PLL_VCO / PLLP */
      pllm = RCC->PLLCFGR & RCC_PLLCFGR_PLLM;
 8002004:	4bb9      	ldr	r3, [pc, #740]	; (80022ec <HAL_RCC_GetSysClockFreq+0x358>)
 8002006:	685b      	ldr	r3, [r3, #4]
 8002008:	f003 033f 	and.w	r3, r3, #63	; 0x3f
 800200c:	617b      	str	r3, [r7, #20]
      if(__HAL_RCC_GET_PLL_OSCSOURCE() != RCC_PLLSOURCE_HSI)
 800200e:	4bb7      	ldr	r3, [pc, #732]	; (80022ec <HAL_RCC_GetSysClockFreq+0x358>)
 8002010:	685b      	ldr	r3, [r3, #4]
 8002012:	f403 0380 	and.w	r3, r3, #4194304	; 0x400000
 8002016:	2b00      	cmp	r3, #0
 8002018:	d053      	beq.n	80020c2 <HAL_RCC_GetSysClockFreq+0x12e>
      {
        /* HSE used as PLL clock source */
        pllvco = (uint32_t) ((((uint64_t) HSE_VALUE * ((uint64_t) ((RCC->PLLCFGR & RCC_PLLCFGR_PLLN) >> RCC_PLLCFGR_PLLN_Pos)))) / (uint64_t)pllm);
 800201a:	4bb4      	ldr	r3, [pc, #720]	; (80022ec <HAL_RCC_GetSysClockFreq+0x358>)
 800201c:	685b      	ldr	r3, [r3, #4]
 800201e:	099b      	lsrs	r3, r3, #6
 8002020:	461a      	mov	r2, r3
 8002022:	f04f 0300 	mov.w	r3, #0
 8002026:	f240 10ff 	movw	r0, #511	; 0x1ff
 800202a:	f04f 0100 	mov.w	r1, #0
 800202e:	ea02 0400 	and.w	r4, r2, r0
 8002032:	603c      	str	r4, [r7, #0]
 8002034:	400b      	ands	r3, r1
 8002036:	607b      	str	r3, [r7, #4]
 8002038:	e9d7 4500 	ldrd	r4, r5, [r7]
 800203c:	4620      	mov	r0, r4
 800203e:	4629      	mov	r1, r5
 8002040:	f04f 0200 	mov.w	r2, #0
 8002044:	f04f 0300 	mov.w	r3, #0
 8002048:	014b      	lsls	r3, r1, #5
 800204a:	ea43 63d0 	orr.w	r3, r3, r0, lsr #27
 800204e:	0142      	lsls	r2, r0, #5
 8002050:	4610      	mov	r0, r2
 8002052:	4619      	mov	r1, r3
 8002054:	4623      	mov	r3, r4
 8002056:	1ac0      	subs	r0, r0, r3
 8002058:	462b      	mov	r3, r5
 800205a:	eb61 0103 	sbc.w	r1, r1, r3
 800205e:	f04f 0200 	mov.w	r2, #0
 8002062:	f04f 0300 	mov.w	r3, #0
 8002066:	018b      	lsls	r3, r1, #6
 8002068:	ea43 6390 	orr.w	r3, r3, r0, lsr #26
 800206c:	0182      	lsls	r2, r0, #6
 800206e:	1a12      	subs	r2, r2, r0
 8002070:	eb63 0301 	sbc.w	r3, r3, r1
 8002074:	f04f 0000 	mov.w	r0, #0
 8002078:	f04f 0100 	mov.w	r1, #0
 800207c:	00d9      	lsls	r1, r3, #3
 800207e:	ea41 7152 	orr.w	r1, r1, r2, lsr #29
 8002082:	00d0      	lsls	r0, r2, #3
 8002084:	4602      	mov	r2, r0
 8002086:	460b      	mov	r3, r1
 8002088:	4621      	mov	r1, r4
 800208a:	1852      	adds	r2, r2, r1
 800208c:	4629      	mov	r1, r5
 800208e:	eb43 0101 	adc.w	r1, r3, r1
 8002092:	460b      	mov	r3, r1
 8002094:	f04f 0000 	mov.w	r0, #0
 8002098:	f04f 0100 	mov.w	r1, #0
 800209c:	0259      	lsls	r1, r3, #9
 800209e:	ea41 51d2 	orr.w	r1, r1, r2, lsr #23
 80020a2:	0250      	lsls	r0, r2, #9
 80020a4:	4602      	mov	r2, r0
 80020a6:	460b      	mov	r3, r1
 80020a8:	4610      	mov	r0, r2
 80020aa:	4619      	mov	r1, r3
 80020ac:	697b      	ldr	r3, [r7, #20]
 80020ae:	461a      	mov	r2, r3
 80020b0:	f04f 0300 	mov.w	r3, #0
 80020b4:	f7fe fd98 	bl	8000be8 <__aeabi_uldivmod>
 80020b8:	4602      	mov	r2, r0
 80020ba:	460b      	mov	r3, r1
 80020bc:	4613      	mov	r3, r2
 80020be:	61fb      	str	r3, [r7, #28]
 80020c0:	e04c      	b.n	800215c <HAL_RCC_GetSysClockFreq+0x1c8>
      }
      else
      {
        /* HSI used as PLL clock source */
        pllvco = (uint32_t) ((((uint64_t) HSI_VALUE * ((uint64_t) ((RCC->PLLCFGR & RCC_PLLCFGR_PLLN) >> RCC_PLLCFGR_PLLN_Pos)))) / (uint64_t)pllm);
 80020c2:	4b8a      	ldr	r3, [pc, #552]	; (80022ec <HAL_RCC_GetSysClockFreq+0x358>)
 80020c4:	685b      	ldr	r3, [r3, #4]
 80020c6:	099b      	lsrs	r3, r3, #6
 80020c8:	461a      	mov	r2, r3
 80020ca:	f04f 0300 	mov.w	r3, #0
 80020ce:	f240 10ff 	movw	r0, #511	; 0x1ff
 80020d2:	f04f 0100 	mov.w	r1, #0
 80020d6:	ea02 0a00 	and.w	sl, r2, r0
 80020da:	ea03 0b01 	and.w	fp, r3, r1
 80020de:	4650      	mov	r0, sl
 80020e0:	4659      	mov	r1, fp
 80020e2:	f04f 0200 	mov.w	r2, #0
 80020e6:	f04f 0300 	mov.w	r3, #0
 80020ea:	014b      	lsls	r3, r1, #5
 80020ec:	ea43 63d0 	orr.w	r3, r3, r0, lsr #27
 80020f0:	0142      	lsls	r2, r0, #5
 80020f2:	4610      	mov	r0, r2
 80020f4:	4619      	mov	r1, r3
 80020f6:	ebb0 000a 	subs.w	r0, r0, sl
 80020fa:	eb61 010b 	sbc.w	r1, r1, fp
 80020fe:	f04f 0200 	mov.w	r2, #0
 8002102:	f04f 0300 	mov.w	r3, #0
 8002106:	018b      	lsls	r3, r1, #6
 8002108:	ea43 6390 	orr.w	r3, r3, r0, lsr #26
 800210c:	0182      	lsls	r2, r0, #6
 800210e:	1a12      	subs	r2, r2, r0
 8002110:	eb63 0301 	sbc.w	r3, r3, r1
 8002114:	f04f 0000 	mov.w	r0, #0
 8002118:	f04f 0100 	mov.w	r1, #0
 800211c:	00d9      	lsls	r1, r3, #3
 800211e:	ea41 7152 	orr.w	r1, r1, r2, lsr #29
 8002122:	00d0      	lsls	r0, r2, #3
 8002124:	4602      	mov	r2, r0
 8002126:	460b      	mov	r3, r1
 8002128:	eb12 020a 	adds.w	r2, r2, sl
 800212c:	eb43 030b 	adc.w	r3, r3, fp
 8002130:	f04f 0000 	mov.w	r0, #0
 8002134:	f04f 0100 	mov.w	r1, #0
 8002138:	0299      	lsls	r1, r3, #10
 800213a:	ea41 5192 	orr.w	r1, r1, r2, lsr #22
 800213e:	0290      	lsls	r0, r2, #10
 8002140:	4602      	mov	r2, r0
 8002142:	460b      	mov	r3, r1
 8002144:	4610      	mov	r0, r2
 8002146:	4619      	mov	r1, r3
 8002148:	697b      	ldr	r3, [r7, #20]
 800214a:	461a      	mov	r2, r3
 800214c:	f04f 0300 	mov.w	r3, #0
 8002150:	f7fe fd4a 	bl	8000be8 <__aeabi_uldivmod>
 8002154:	4602      	mov	r2, r0
 8002156:	460b      	mov	r3, r1
 8002158:	4613      	mov	r3, r2
 800215a:	61fb      	str	r3, [r7, #28]
      }
      pllp = ((((RCC->PLLCFGR & RCC_PLLCFGR_PLLP) >> RCC_PLLCFGR_PLLP_Pos) + 1U) *2U);
 800215c:	4b63      	ldr	r3, [pc, #396]	; (80022ec <HAL_RCC_GetSysClockFreq+0x358>)
 800215e:	685b      	ldr	r3, [r3, #4]
 8002160:	0c1b      	lsrs	r3, r3, #16
 8002162:	f003 0303 	and.w	r3, r3, #3
 8002166:	3301      	adds	r3, #1
 8002168:	005b      	lsls	r3, r3, #1
 800216a:	613b      	str	r3, [r7, #16]

      sysclockfreq = pllvco/pllp;
 800216c:	69fa      	ldr	r2, [r7, #28]
 800216e:	693b      	ldr	r3, [r7, #16]
 8002170:	fbb2 f3f3 	udiv	r3, r2, r3
 8002174:	61bb      	str	r3, [r7, #24]
      break;
 8002176:	e0b2      	b.n	80022de <HAL_RCC_GetSysClockFreq+0x34a>
    }
    case RCC_CFGR_SWS_PLLR:  /* PLL/PLLR used as system clock  source */
    {
      /* PLL_VCO = (HSE_VALUE or HSI_VALUE / PLLM) * PLLN
      SYSCLK = PLL_VCO / PLLR */
      pllm = RCC->PLLCFGR & RCC_PLLCFGR_PLLM;
 8002178:	4b5c      	ldr	r3, [pc, #368]	; (80022ec <HAL_RCC_GetSysClockFreq+0x358>)
 800217a:	685b      	ldr	r3, [r3, #4]
 800217c:	f003 033f 	and.w	r3, r3, #63	; 0x3f
 8002180:	617b      	str	r3, [r7, #20]
      if(__HAL_RCC_GET_PLL_OSCSOURCE() != RCC_PLLSOURCE_HSI)
 8002182:	4b5a      	ldr	r3, [pc, #360]	; (80022ec <HAL_RCC_GetSysClockFreq+0x358>)
 8002184:	685b      	ldr	r3, [r3, #4]
 8002186:	f403 0380 	and.w	r3, r3, #4194304	; 0x400000
 800218a:	2b00      	cmp	r3, #0
 800218c:	d04d      	beq.n	800222a <HAL_RCC_GetSysClockFreq+0x296>
      {
        /* HSE used as PLL clock source */
        pllvco = (uint32_t) ((((uint64_t) HSE_VALUE * ((uint64_t) ((RCC->PLLCFGR & RCC_PLLCFGR_PLLN) >> RCC_PLLCFGR_PLLN_Pos)))) / (uint64_t)pllm);
 800218e:	4b57      	ldr	r3, [pc, #348]	; (80022ec <HAL_RCC_GetSysClockFreq+0x358>)
 8002190:	685b      	ldr	r3, [r3, #4]
 8002192:	099b      	lsrs	r3, r3, #6
 8002194:	461a      	mov	r2, r3
 8002196:	f04f 0300 	mov.w	r3, #0
 800219a:	f240 10ff 	movw	r0, #511	; 0x1ff
 800219e:	f04f 0100 	mov.w	r1, #0
 80021a2:	ea02 0800 	and.w	r8, r2, r0
 80021a6:	ea03 0901 	and.w	r9, r3, r1
 80021aa:	4640      	mov	r0, r8
 80021ac:	4649      	mov	r1, r9
 80021ae:	f04f 0200 	mov.w	r2, #0
 80021b2:	f04f 0300 	mov.w	r3, #0
 80021b6:	014b      	lsls	r3, r1, #5
 80021b8:	ea43 63d0 	orr.w	r3, r3, r0, lsr #27
 80021bc:	0142      	lsls	r2, r0, #5
 80021be:	4610      	mov	r0, r2
 80021c0:	4619      	mov	r1, r3
 80021c2:	ebb0 0008 	subs.w	r0, r0, r8
 80021c6:	eb61 0109 	sbc.w	r1, r1, r9
 80021ca:	f04f 0200 	mov.w	r2, #0
 80021ce:	f04f 0300 	mov.w	r3, #0
 80021d2:	018b      	lsls	r3, r1, #6
 80021d4:	ea43 6390 	orr.w	r3, r3, r0, lsr #26
 80021d8:	0182      	lsls	r2, r0, #6
 80021da:	1a12      	subs	r2, r2, r0
 80021dc:	eb63 0301 	sbc.w	r3, r3, r1
 80021e0:	f04f 0000 	mov.w	r0, #0
 80021e4:	f04f 0100 	mov.w	r1, #0
 80021e8:	00d9      	lsls	r1, r3, #3
 80021ea:	ea41 7152 	orr.w	r1, r1, r2, lsr #29
 80021ee:	00d0      	lsls	r0, r2, #3
 80021f0:	4602      	mov	r2, r0
 80021f2:	460b      	mov	r3, r1
 80021f4:	eb12 0208 	adds.w	r2, r2, r8
 80021f8:	eb43 0309 	adc.w	r3, r3, r9
 80021fc:	f04f 0000 	mov.w	r0, #0
 8002200:	f04f 0100 	mov.w	r1, #0
 8002204:	0259      	lsls	r1, r3, #9
 8002206:	ea41 51d2 	orr.w	r1, r1, r2, lsr #23
 800220a:	0250      	lsls	r0, r2, #9
 800220c:	4602      	mov	r2, r0
 800220e:	460b      	mov	r3, r1
 8002210:	4610      	mov	r0, r2
 8002212:	4619      	mov	r1, r3
 8002214:	697b      	ldr	r3, [r7, #20]
 8002216:	461a      	mov	r2, r3
 8002218:	f04f 0300 	mov.w	r3, #0
 800221c:	f7fe fce4 	bl	8000be8 <__aeabi_uldivmod>
 8002220:	4602      	mov	r2, r0
 8002222:	460b      	mov	r3, r1
 8002224:	4613      	mov	r3, r2
 8002226:	61fb      	str	r3, [r7, #28]
 8002228:	e04a      	b.n	80022c0 <HAL_RCC_GetSysClockFreq+0x32c>
      }
      else
      {
        /* HSI used as PLL clock source */
        pllvco = (uint32_t) ((((uint64_t) HSI_VALUE * ((uint64_t) ((RCC->PLLCFGR & RCC_PLLCFGR_PLLN) >> RCC_PLLCFGR_PLLN_Pos)))) / (uint64_t)pllm);
 800222a:	4b30      	ldr	r3, [pc, #192]	; (80022ec <HAL_RCC_GetSysClockFreq+0x358>)
 800222c:	685b      	ldr	r3, [r3, #4]
 800222e:	099b      	lsrs	r3, r3, #6
 8002230:	461a      	mov	r2, r3
 8002232:	f04f 0300 	mov.w	r3, #0
 8002236:	f240 10ff 	movw	r0, #511	; 0x1ff
 800223a:	f04f 0100 	mov.w	r1, #0
 800223e:	ea02 0400 	and.w	r4, r2, r0
 8002242:	ea03 0501 	and.w	r5, r3, r1
 8002246:	4620      	mov	r0, r4
 8002248:	4629      	mov	r1, r5
 800224a:	f04f 0200 	mov.w	r2, #0
 800224e:	f04f 0300 	mov.w	r3, #0
 8002252:	014b      	lsls	r3, r1, #5
 8002254:	ea43 63d0 	orr.w	r3, r3, r0, lsr #27
 8002258:	0142      	lsls	r2, r0, #5
 800225a:	4610      	mov	r0, r2
 800225c:	4619      	mov	r1, r3
 800225e:	1b00      	subs	r0, r0, r4
 8002260:	eb61 0105 	sbc.w	r1, r1, r5
 8002264:	f04f 0200 	mov.w	r2, #0
 8002268:	f04f 0300 	mov.w	r3, #0
 800226c:	018b      	lsls	r3, r1, #6
 800226e:	ea43 6390 	orr.w	r3, r3, r0, lsr #26
 8002272:	0182      	lsls	r2, r0, #6
 8002274:	1a12      	subs	r2, r2, r0
 8002276:	eb63 0301 	sbc.w	r3, r3, r1
 800227a:	f04f 0000 	mov.w	r0, #0
 800227e:	f04f 0100 	mov.w	r1, #0
 8002282:	00d9      	lsls	r1, r3, #3
 8002284:	ea41 7152 	orr.w	r1, r1, r2, lsr #29
 8002288:	00d0      	lsls	r0, r2, #3
 800228a:	4602      	mov	r2, r0
 800228c:	460b      	mov	r3, r1
 800228e:	1912      	adds	r2, r2, r4
 8002290:	eb45 0303 	adc.w	r3, r5, r3
 8002294:	f04f 0000 	mov.w	r0, #0
 8002298:	f04f 0100 	mov.w	r1, #0
 800229c:	0299      	lsls	r1, r3, #10
 800229e:	ea41 5192 	orr.w	r1, r1, r2, lsr #22
 80022a2:	0290      	lsls	r0, r2, #10
 80022a4:	4602      	mov	r2, r0
 80022a6:	460b      	mov	r3, r1
 80022a8:	4610      	mov	r0, r2
 80022aa:	4619      	mov	r1, r3
 80022ac:	697b      	ldr	r3, [r7, #20]
 80022ae:	461a      	mov	r2, r3
 80022b0:	f04f 0300 	mov.w	r3, #0
 80022b4:	f7fe fc98 	bl	8000be8 <__aeabi_uldivmod>
 80022b8:	4602      	mov	r2, r0
 80022ba:	460b      	mov	r3, r1
 80022bc:	4613      	mov	r3, r2
 80022be:	61fb      	str	r3, [r7, #28]
      }
      pllr = ((RCC->PLLCFGR & RCC_PLLCFGR_PLLR) >> RCC_PLLCFGR_PLLR_Pos);
 80022c0:	4b0a      	ldr	r3, [pc, #40]	; (80022ec <HAL_RCC_GetSysClockFreq+0x358>)
 80022c2:	685b      	ldr	r3, [r3, #4]
 80022c4:	0f1b      	lsrs	r3, r3, #28
 80022c6:	f003 0307 	and.w	r3, r3, #7
 80022ca:	60fb      	str	r3, [r7, #12]

      sysclockfreq = pllvco/pllr;
 80022cc:	69fa      	ldr	r2, [r7, #28]
 80022ce:	68fb      	ldr	r3, [r7, #12]
 80022d0:	fbb2 f3f3 	udiv	r3, r2, r3
 80022d4:	61bb      	str	r3, [r7, #24]
      break;
 80022d6:	e002      	b.n	80022de <HAL_RCC_GetSysClockFreq+0x34a>
    }
    default:
    {
      sysclockfreq = HSI_VALUE;
 80022d8:	4b05      	ldr	r3, [pc, #20]	; (80022f0 <HAL_RCC_GetSysClockFreq+0x35c>)
 80022da:	61bb      	str	r3, [r7, #24]
      break;
 80022dc:	bf00      	nop
    }
  }
  return sysclockfreq;
 80022de:	69bb      	ldr	r3, [r7, #24]
}
 80022e0:	4618      	mov	r0, r3
 80022e2:	3720      	adds	r7, #32
 80022e4:	46bd      	mov	sp, r7
 80022e6:	e8bd 8fb0 	ldmia.w	sp!, {r4, r5, r7, r8, r9, sl, fp, pc}
 80022ea:	bf00      	nop
 80022ec:	40023800 	.word	0x40023800
 80022f0:	00f42400 	.word	0x00f42400
 80022f4:	007a1200 	.word	0x007a1200

080022f8 <HAL_RCC_OscConfig>:
  * @note   This function add the PLL/PLLR factor management during PLL configuration this feature
  *         is only available in STM32F410xx/STM32F446xx/STM32F469xx/STM32F479xx/STM32F412Zx/STM32F412Vx/STM32F412Rx/STM32F412Cx devices
  * @retval HAL status
  */
HAL_StatusTypeDef HAL_RCC_OscConfig(RCC_OscInitTypeDef  *RCC_OscInitStruct)
{
 80022f8:	b580      	push	{r7, lr}
 80022fa:	b086      	sub	sp, #24
 80022fc:	af00      	add	r7, sp, #0
 80022fe:	6078      	str	r0, [r7, #4]
  uint32_t tickstart, pll_config;

  /* Check Null pointer */
  if(RCC_OscInitStruct == NULL)
 8002300:	687b      	ldr	r3, [r7, #4]
 8002302:	2b00      	cmp	r3, #0
 8002304:	d101      	bne.n	800230a <HAL_RCC_OscConfig+0x12>
  {
    return HAL_ERROR;
 8002306:	2301      	movs	r3, #1
 8002308:	e28d      	b.n	8002826 <HAL_RCC_OscConfig+0x52e>
  }

  /* Check the parameters */
  assert_param(IS_RCC_OSCILLATORTYPE(RCC_OscInitStruct->OscillatorType));
  /*------------------------------- HSE Configuration ------------------------*/
  if(((RCC_OscInitStruct->OscillatorType) & RCC_OSCILLATORTYPE_HSE) == RCC_OSCILLATORTYPE_HSE)
 800230a:	687b      	ldr	r3, [r7, #4]
 800230c:	681b      	ldr	r3, [r3, #0]
 800230e:	f003 0301 	and.w	r3, r3, #1
 8002312:	2b00      	cmp	r3, #0
 8002314:	f000 8083 	beq.w	800241e <HAL_RCC_OscConfig+0x126>
  {
    /* Check the parameters */
    assert_param(IS_RCC_HSE(RCC_OscInitStruct->HSEState));
    /* When the HSE is used as system clock or clock source for PLL in these cases HSE will not disabled */
#if defined(STM32F446xx)
    if((__HAL_RCC_GET_SYSCLK_SOURCE() == RCC_CFGR_SWS_HSE)                                                                     ||\
 8002318:	4b94      	ldr	r3, [pc, #592]	; (800256c <HAL_RCC_OscConfig+0x274>)
 800231a:	689b      	ldr	r3, [r3, #8]
 800231c:	f003 030c 	and.w	r3, r3, #12
 8002320:	2b04      	cmp	r3, #4
 8002322:	d019      	beq.n	8002358 <HAL_RCC_OscConfig+0x60>
      ((__HAL_RCC_GET_SYSCLK_SOURCE() == RCC_CFGR_SWS_PLL) && ((RCC->PLLCFGR & RCC_PLLCFGR_PLLSRC) == RCC_PLLCFGR_PLLSRC_HSE)) ||\
 8002324:	4b91      	ldr	r3, [pc, #580]	; (800256c <HAL_RCC_OscConfig+0x274>)
 8002326:	689b      	ldr	r3, [r3, #8]
 8002328:	f003 030c 	and.w	r3, r3, #12
    if((__HAL_RCC_GET_SYSCLK_SOURCE() == RCC_CFGR_SWS_HSE)                                                                     ||\
 800232c:	2b08      	cmp	r3, #8
 800232e:	d106      	bne.n	800233e <HAL_RCC_OscConfig+0x46>
      ((__HAL_RCC_GET_SYSCLK_SOURCE() == RCC_CFGR_SWS_PLL) && ((RCC->PLLCFGR & RCC_PLLCFGR_PLLSRC) == RCC_PLLCFGR_PLLSRC_HSE)) ||\
 8002330:	4b8e      	ldr	r3, [pc, #568]	; (800256c <HAL_RCC_OscConfig+0x274>)
 8002332:	685b      	ldr	r3, [r3, #4]
 8002334:	f403 0380 	and.w	r3, r3, #4194304	; 0x400000
 8002338:	f5b3 0f80 	cmp.w	r3, #4194304	; 0x400000
 800233c:	d00c      	beq.n	8002358 <HAL_RCC_OscConfig+0x60>
      ((__HAL_RCC_GET_SYSCLK_SOURCE() == RCC_CFGR_SWS_PLLR) && ((RCC->PLLCFGR & RCC_PLLCFGR_PLLSRC) == RCC_PLLCFGR_PLLSRC_HSE)))
 800233e:	4b8b      	ldr	r3, [pc, #556]	; (800256c <HAL_RCC_OscConfig+0x274>)
 8002340:	689b      	ldr	r3, [r3, #8]
 8002342:	f003 030c 	and.w	r3, r3, #12
      ((__HAL_RCC_GET_SYSCLK_SOURCE() == RCC_CFGR_SWS_PLL) && ((RCC->PLLCFGR & RCC_PLLCFGR_PLLSRC) == RCC_PLLCFGR_PLLSRC_HSE)) ||\
 8002346:	2b0c      	cmp	r3, #12
 8002348:	d112      	bne.n	8002370 <HAL_RCC_OscConfig+0x78>
      ((__HAL_RCC_GET_SYSCLK_SOURCE() == RCC_CFGR_SWS_PLLR) && ((RCC->PLLCFGR & RCC_PLLCFGR_PLLSRC) == RCC_PLLCFGR_PLLSRC_HSE)))
 800234a:	4b88      	ldr	r3, [pc, #544]	; (800256c <HAL_RCC_OscConfig+0x274>)
 800234c:	685b      	ldr	r3, [r3, #4]
 800234e:	f403 0380 	and.w	r3, r3, #4194304	; 0x400000
 8002352:	f5b3 0f80 	cmp.w	r3, #4194304	; 0x400000
 8002356:	d10b      	bne.n	8002370 <HAL_RCC_OscConfig+0x78>
#else
    if((__HAL_RCC_GET_SYSCLK_SOURCE() == RCC_CFGR_SWS_HSE)                                                                     ||\
      ((__HAL_RCC_GET_SYSCLK_SOURCE() == RCC_CFGR_SWS_PLL) && ((RCC->PLLCFGR & RCC_PLLCFGR_PLLSRC) == RCC_PLLCFGR_PLLSRC_HSE)))
#endif /* STM32F446xx */
    {
      if((__HAL_RCC_GET_FLAG(RCC_FLAG_HSERDY) != RESET) && (RCC_OscInitStruct->HSEState == RCC_HSE_OFF))
 8002358:	4b84      	ldr	r3, [pc, #528]	; (800256c <HAL_RCC_OscConfig+0x274>)
 800235a:	681b      	ldr	r3, [r3, #0]
 800235c:	f403 3300 	and.w	r3, r3, #131072	; 0x20000
 8002360:	2b00      	cmp	r3, #0
 8002362:	d05b      	beq.n	800241c <HAL_RCC_OscConfig+0x124>
 8002364:	687b      	ldr	r3, [r7, #4]
 8002366:	685b      	ldr	r3, [r3, #4]
 8002368:	2b00      	cmp	r3, #0
 800236a:	d157      	bne.n	800241c <HAL_RCC_OscConfig+0x124>
      {
        return HAL_ERROR;
 800236c:	2301      	movs	r3, #1
 800236e:	e25a      	b.n	8002826 <HAL_RCC_OscConfig+0x52e>
      }
    }
    else
    {
      /* Set the new HSE configuration ---------------------------------------*/
      __HAL_RCC_HSE_CONFIG(RCC_OscInitStruct->HSEState);
 8002370:	687b      	ldr	r3, [r7, #4]
 8002372:	685b      	ldr	r3, [r3, #4]
 8002374:	f5b3 3f80 	cmp.w	r3, #65536	; 0x10000
 8002378:	d106      	bne.n	8002388 <HAL_RCC_OscConfig+0x90>
 800237a:	4b7c      	ldr	r3, [pc, #496]	; (800256c <HAL_RCC_OscConfig+0x274>)
 800237c:	681b      	ldr	r3, [r3, #0]
 800237e:	4a7b      	ldr	r2, [pc, #492]	; (800256c <HAL_RCC_OscConfig+0x274>)
 8002380:	f443 3380 	orr.w	r3, r3, #65536	; 0x10000
 8002384:	6013      	str	r3, [r2, #0]
 8002386:	e01d      	b.n	80023c4 <HAL_RCC_OscConfig+0xcc>
 8002388:	687b      	ldr	r3, [r7, #4]
 800238a:	685b      	ldr	r3, [r3, #4]
 800238c:	f5b3 2fa0 	cmp.w	r3, #327680	; 0x50000
 8002390:	d10c      	bne.n	80023ac <HAL_RCC_OscConfig+0xb4>
 8002392:	4b76      	ldr	r3, [pc, #472]	; (800256c <HAL_RCC_OscConfig+0x274>)
 8002394:	681b      	ldr	r3, [r3, #0]
 8002396:	4a75      	ldr	r2, [pc, #468]	; (800256c <HAL_RCC_OscConfig+0x274>)
 8002398:	f443 2380 	orr.w	r3, r3, #262144	; 0x40000
 800239c:	6013      	str	r3, [r2, #0]
 800239e:	4b73      	ldr	r3, [pc, #460]	; (800256c <HAL_RCC_OscConfig+0x274>)
 80023a0:	681b      	ldr	r3, [r3, #0]
 80023a2:	4a72      	ldr	r2, [pc, #456]	; (800256c <HAL_RCC_OscConfig+0x274>)
 80023a4:	f443 3380 	orr.w	r3, r3, #65536	; 0x10000
 80023a8:	6013      	str	r3, [r2, #0]
 80023aa:	e00b      	b.n	80023c4 <HAL_RCC_OscConfig+0xcc>
 80023ac:	4b6f      	ldr	r3, [pc, #444]	; (800256c <HAL_RCC_OscConfig+0x274>)
 80023ae:	681b      	ldr	r3, [r3, #0]
 80023b0:	4a6e      	ldr	r2, [pc, #440]	; (800256c <HAL_RCC_OscConfig+0x274>)
 80023b2:	f423 3380 	bic.w	r3, r3, #65536	; 0x10000
 80023b6:	6013      	str	r3, [r2, #0]
 80023b8:	4b6c      	ldr	r3, [pc, #432]	; (800256c <HAL_RCC_OscConfig+0x274>)
 80023ba:	681b      	ldr	r3, [r3, #0]
 80023bc:	4a6b      	ldr	r2, [pc, #428]	; (800256c <HAL_RCC_OscConfig+0x274>)
 80023be:	f423 2380 	bic.w	r3, r3, #262144	; 0x40000
 80023c2:	6013      	str	r3, [r2, #0]

      /* Check the HSE State */
      if((RCC_OscInitStruct->HSEState) != RCC_HSE_OFF)
 80023c4:	687b      	ldr	r3, [r7, #4]
 80023c6:	685b      	ldr	r3, [r3, #4]
 80023c8:	2b00      	cmp	r3, #0
 80023ca:	d013      	beq.n	80023f4 <HAL_RCC_OscConfig+0xfc>
      {
        /* Get Start Tick*/
        tickstart = HAL_GetTick();
 80023cc:	f7ff f9d8 	bl	8001780 <HAL_GetTick>
 80023d0:	6138      	str	r0, [r7, #16]

        /* Wait till HSE is ready */
        while(__HAL_RCC_GET_FLAG(RCC_FLAG_HSERDY) == RESET)
 80023d2:	e008      	b.n	80023e6 <HAL_RCC_OscConfig+0xee>
        {
          if((HAL_GetTick() - tickstart ) > HSE_TIMEOUT_VALUE)
 80023d4:	f7ff f9d4 	bl	8001780 <HAL_GetTick>
 80023d8:	4602      	mov	r2, r0
 80023da:	693b      	ldr	r3, [r7, #16]
 80023dc:	1ad3      	subs	r3, r2, r3
 80023de:	2b64      	cmp	r3, #100	; 0x64
 80023e0:	d901      	bls.n	80023e6 <HAL_RCC_OscConfig+0xee>
          {
            return HAL_TIMEOUT;
 80023e2:	2303      	movs	r3, #3
 80023e4:	e21f      	b.n	8002826 <HAL_RCC_OscConfig+0x52e>
        while(__HAL_RCC_GET_FLAG(RCC_FLAG_HSERDY) == RESET)
 80023e6:	4b61      	ldr	r3, [pc, #388]	; (800256c <HAL_RCC_OscConfig+0x274>)
 80023e8:	681b      	ldr	r3, [r3, #0]
 80023ea:	f403 3300 	and.w	r3, r3, #131072	; 0x20000
 80023ee:	2b00      	cmp	r3, #0
 80023f0:	d0f0      	beq.n	80023d4 <HAL_RCC_OscConfig+0xdc>
 80023f2:	e014      	b.n	800241e <HAL_RCC_OscConfig+0x126>
        }
      }
      else
      {
        /* Get Start Tick*/
        tickstart = HAL_GetTick();
 80023f4:	f7ff f9c4 	bl	8001780 <HAL_GetTick>
 80023f8:	6138      	str	r0, [r7, #16]

        /* Wait till HSE is bypassed or disabled */
        while(__HAL_RCC_GET_FLAG(RCC_FLAG_HSERDY) != RESET)
 80023fa:	e008      	b.n	800240e <HAL_RCC_OscConfig+0x116>
        {
          if((HAL_GetTick() - tickstart ) > HSE_TIMEOUT_VALUE)
 80023fc:	f7ff f9c0 	bl	8001780 <HAL_GetTick>
 8002400:	4602      	mov	r2, r0
 8002402:	693b      	ldr	r3, [r7, #16]
 8002404:	1ad3      	subs	r3, r2, r3
 8002406:	2b64      	cmp	r3, #100	; 0x64
 8002408:	d901      	bls.n	800240e <HAL_RCC_OscConfig+0x116>
          {
            return HAL_TIMEOUT;
 800240a:	2303      	movs	r3, #3
 800240c:	e20b      	b.n	8002826 <HAL_RCC_OscConfig+0x52e>
        while(__HAL_RCC_GET_FLAG(RCC_FLAG_HSERDY) != RESET)
 800240e:	4b57      	ldr	r3, [pc, #348]	; (800256c <HAL_RCC_OscConfig+0x274>)
 8002410:	681b      	ldr	r3, [r3, #0]
 8002412:	f403 3300 	and.w	r3, r3, #131072	; 0x20000
 8002416:	2b00      	cmp	r3, #0
 8002418:	d1f0      	bne.n	80023fc <HAL_RCC_OscConfig+0x104>
 800241a:	e000      	b.n	800241e <HAL_RCC_OscConfig+0x126>
      if((__HAL_RCC_GET_FLAG(RCC_FLAG_HSERDY) != RESET) && (RCC_OscInitStruct->HSEState == RCC_HSE_OFF))
 800241c:	bf00      	nop
        }
      }
    }
  }
  /*----------------------------- HSI Configuration --------------------------*/
  if(((RCC_OscInitStruct->OscillatorType) & RCC_OSCILLATORTYPE_HSI) == RCC_OSCILLATORTYPE_HSI)
 800241e:	687b      	ldr	r3, [r7, #4]
 8002420:	681b      	ldr	r3, [r3, #0]
 8002422:	f003 0302 	and.w	r3, r3, #2
 8002426:	2b00      	cmp	r3, #0
 8002428:	d06f      	beq.n	800250a <HAL_RCC_OscConfig+0x212>
    assert_param(IS_RCC_HSI(RCC_OscInitStruct->HSIState));
    assert_param(IS_RCC_CALIBRATION_VALUE(RCC_OscInitStruct->HSICalibrationValue));

    /* Check if HSI is used as system clock or as PLL source when PLL is selected as system clock */
#if defined(STM32F446xx)
    if((__HAL_RCC_GET_SYSCLK_SOURCE() == RCC_CFGR_SWS_HSI)                                                                     ||\
 800242a:	4b50      	ldr	r3, [pc, #320]	; (800256c <HAL_RCC_OscConfig+0x274>)
 800242c:	689b      	ldr	r3, [r3, #8]
 800242e:	f003 030c 	and.w	r3, r3, #12
 8002432:	2b00      	cmp	r3, #0
 8002434:	d017      	beq.n	8002466 <HAL_RCC_OscConfig+0x16e>
      ((__HAL_RCC_GET_SYSCLK_SOURCE() == RCC_CFGR_SWS_PLL) && ((RCC->PLLCFGR & RCC_PLLCFGR_PLLSRC) == RCC_PLLCFGR_PLLSRC_HSI)) ||\
 8002436:	4b4d      	ldr	r3, [pc, #308]	; (800256c <HAL_RCC_OscConfig+0x274>)
 8002438:	689b      	ldr	r3, [r3, #8]
 800243a:	f003 030c 	and.w	r3, r3, #12
    if((__HAL_RCC_GET_SYSCLK_SOURCE() == RCC_CFGR_SWS_HSI)                                                                     ||\
 800243e:	2b08      	cmp	r3, #8
 8002440:	d105      	bne.n	800244e <HAL_RCC_OscConfig+0x156>
      ((__HAL_RCC_GET_SYSCLK_SOURCE() == RCC_CFGR_SWS_PLL) && ((RCC->PLLCFGR & RCC_PLLCFGR_PLLSRC) == RCC_PLLCFGR_PLLSRC_HSI)) ||\
 8002442:	4b4a      	ldr	r3, [pc, #296]	; (800256c <HAL_RCC_OscConfig+0x274>)
 8002444:	685b      	ldr	r3, [r3, #4]
 8002446:	f403 0380 	and.w	r3, r3, #4194304	; 0x400000
 800244a:	2b00      	cmp	r3, #0
 800244c:	d00b      	beq.n	8002466 <HAL_RCC_OscConfig+0x16e>
      ((__HAL_RCC_GET_SYSCLK_SOURCE() == RCC_CFGR_SWS_PLLR) && ((RCC->PLLCFGR & RCC_PLLCFGR_PLLSRC) == RCC_PLLCFGR_PLLSRC_HSI)))
 800244e:	4b47      	ldr	r3, [pc, #284]	; (800256c <HAL_RCC_OscConfig+0x274>)
 8002450:	689b      	ldr	r3, [r3, #8]
 8002452:	f003 030c 	and.w	r3, r3, #12
      ((__HAL_RCC_GET_SYSCLK_SOURCE() == RCC_CFGR_SWS_PLL) && ((RCC->PLLCFGR & RCC_PLLCFGR_PLLSRC) == RCC_PLLCFGR_PLLSRC_HSI)) ||\
 8002456:	2b0c      	cmp	r3, #12
 8002458:	d11c      	bne.n	8002494 <HAL_RCC_OscConfig+0x19c>
      ((__HAL_RCC_GET_SYSCLK_SOURCE() == RCC_CFGR_SWS_PLLR) && ((RCC->PLLCFGR & RCC_PLLCFGR_PLLSRC) == RCC_PLLCFGR_PLLSRC_HSI)))
 800245a:	4b44      	ldr	r3, [pc, #272]	; (800256c <HAL_RCC_OscConfig+0x274>)
 800245c:	685b      	ldr	r3, [r3, #4]
 800245e:	f403 0380 	and.w	r3, r3, #4194304	; 0x400000
 8002462:	2b00      	cmp	r3, #0
 8002464:	d116      	bne.n	8002494 <HAL_RCC_OscConfig+0x19c>
    if((__HAL_RCC_GET_SYSCLK_SOURCE() == RCC_CFGR_SWS_HSI)                                                                     ||\
      ((__HAL_RCC_GET_SYSCLK_SOURCE() == RCC_CFGR_SWS_PLL) && ((RCC->PLLCFGR & RCC_PLLCFGR_PLLSRC) == RCC_PLLCFGR_PLLSRC_HSI)))
#endif /* STM32F446xx */
    {
      /* When HSI is used as system clock it will not disabled */
      if((__HAL_RCC_GET_FLAG(RCC_FLAG_HSIRDY) != RESET) && (RCC_OscInitStruct->HSIState != RCC_HSI_ON))
 8002466:	4b41      	ldr	r3, [pc, #260]	; (800256c <HAL_RCC_OscConfig+0x274>)
 8002468:	681b      	ldr	r3, [r3, #0]
 800246a:	f003 0302 	and.w	r3, r3, #2
 800246e:	2b00      	cmp	r3, #0
 8002470:	d005      	beq.n	800247e <HAL_RCC_OscConfig+0x186>
 8002472:	687b      	ldr	r3, [r7, #4]
 8002474:	68db      	ldr	r3, [r3, #12]
 8002476:	2b01      	cmp	r3, #1
 8002478:	d001      	beq.n	800247e <HAL_RCC_OscConfig+0x186>
      {
        return HAL_ERROR;
 800247a:	2301      	movs	r3, #1
 800247c:	e1d3      	b.n	8002826 <HAL_RCC_OscConfig+0x52e>
      }
      /* Otherwise, just the calibration is allowed */
      else
      {
        /* Adjusts the Internal High Speed oscillator (HSI) calibration value.*/
        __HAL_RCC_HSI_CALIBRATIONVALUE_ADJUST(RCC_OscInitStruct->HSICalibrationValue);
 800247e:	4b3b      	ldr	r3, [pc, #236]	; (800256c <HAL_RCC_OscConfig+0x274>)
 8002480:	681b      	ldr	r3, [r3, #0]
 8002482:	f023 02f8 	bic.w	r2, r3, #248	; 0xf8
 8002486:	687b      	ldr	r3, [r7, #4]
 8002488:	691b      	ldr	r3, [r3, #16]
 800248a:	00db      	lsls	r3, r3, #3
 800248c:	4937      	ldr	r1, [pc, #220]	; (800256c <HAL_RCC_OscConfig+0x274>)
 800248e:	4313      	orrs	r3, r2
 8002490:	600b      	str	r3, [r1, #0]
      if((__HAL_RCC_GET_FLAG(RCC_FLAG_HSIRDY) != RESET) && (RCC_OscInitStruct->HSIState != RCC_HSI_ON))
 8002492:	e03a      	b.n	800250a <HAL_RCC_OscConfig+0x212>
      }
    }
    else
    {
      /* Check the HSI State */
      if((RCC_OscInitStruct->HSIState)!= RCC_HSI_OFF)
 8002494:	687b      	ldr	r3, [r7, #4]
 8002496:	68db      	ldr	r3, [r3, #12]
 8002498:	2b00      	cmp	r3, #0
 800249a:	d020      	beq.n	80024de <HAL_RCC_OscConfig+0x1e6>
      {
        /* Enable the Internal High Speed oscillator (HSI). */
        __HAL_RCC_HSI_ENABLE();
 800249c:	4b34      	ldr	r3, [pc, #208]	; (8002570 <HAL_RCC_OscConfig+0x278>)
 800249e:	2201      	movs	r2, #1
 80024a0:	601a      	str	r2, [r3, #0]

        /* Get Start Tick*/
        tickstart = HAL_GetTick();
 80024a2:	f7ff f96d 	bl	8001780 <HAL_GetTick>
 80024a6:	6138      	str	r0, [r7, #16]

        /* Wait till HSI is ready */
        while(__HAL_RCC_GET_FLAG(RCC_FLAG_HSIRDY) == RESET)
 80024a8:	e008      	b.n	80024bc <HAL_RCC_OscConfig+0x1c4>
        {
          if((HAL_GetTick() - tickstart ) > HSI_TIMEOUT_VALUE)
 80024aa:	f7ff f969 	bl	8001780 <HAL_GetTick>
 80024ae:	4602      	mov	r2, r0
 80024b0:	693b      	ldr	r3, [r7, #16]
 80024b2:	1ad3      	subs	r3, r2, r3
 80024b4:	2b02      	cmp	r3, #2
 80024b6:	d901      	bls.n	80024bc <HAL_RCC_OscConfig+0x1c4>
          {
            return HAL_TIMEOUT;
 80024b8:	2303      	movs	r3, #3
 80024ba:	e1b4      	b.n	8002826 <HAL_RCC_OscConfig+0x52e>
        while(__HAL_RCC_GET_FLAG(RCC_FLAG_HSIRDY) == RESET)
 80024bc:	4b2b      	ldr	r3, [pc, #172]	; (800256c <HAL_RCC_OscConfig+0x274>)
 80024be:	681b      	ldr	r3, [r3, #0]
 80024c0:	f003 0302 	and.w	r3, r3, #2
 80024c4:	2b00      	cmp	r3, #0
 80024c6:	d0f0      	beq.n	80024aa <HAL_RCC_OscConfig+0x1b2>
          }
        }

        /* Adjusts the Internal High Speed oscillator (HSI) calibration value.*/
        __HAL_RCC_HSI_CALIBRATIONVALUE_ADJUST(RCC_OscInitStruct->HSICalibrationValue);
 80024c8:	4b28      	ldr	r3, [pc, #160]	; (800256c <HAL_RCC_OscConfig+0x274>)
 80024ca:	681b      	ldr	r3, [r3, #0]
 80024cc:	f023 02f8 	bic.w	r2, r3, #248	; 0xf8
 80024d0:	687b      	ldr	r3, [r7, #4]
 80024d2:	691b      	ldr	r3, [r3, #16]
 80024d4:	00db      	lsls	r3, r3, #3
 80024d6:	4925      	ldr	r1, [pc, #148]	; (800256c <HAL_RCC_OscConfig+0x274>)
 80024d8:	4313      	orrs	r3, r2
 80024da:	600b      	str	r3, [r1, #0]
 80024dc:	e015      	b.n	800250a <HAL_RCC_OscConfig+0x212>
      }
      else
      {
        /* Disable the Internal High Speed oscillator (HSI). */
        __HAL_RCC_HSI_DISABLE();
 80024de:	4b24      	ldr	r3, [pc, #144]	; (8002570 <HAL_RCC_OscConfig+0x278>)
 80024e0:	2200      	movs	r2, #0
 80024e2:	601a      	str	r2, [r3, #0]

        /* Get Start Tick*/
        tickstart = HAL_GetTick();
 80024e4:	f7ff f94c 	bl	8001780 <HAL_GetTick>
 80024e8:	6138      	str	r0, [r7, #16]

        /* Wait till HSI is ready */
        while(__HAL_RCC_GET_FLAG(RCC_FLAG_HSIRDY) != RESET)
 80024ea:	e008      	b.n	80024fe <HAL_RCC_OscConfig+0x206>
        {
          if((HAL_GetTick() - tickstart ) > HSI_TIMEOUT_VALUE)
 80024ec:	f7ff f948 	bl	8001780 <HAL_GetTick>
 80024f0:	4602      	mov	r2, r0
 80024f2:	693b      	ldr	r3, [r7, #16]
 80024f4:	1ad3      	subs	r3, r2, r3
 80024f6:	2b02      	cmp	r3, #2
 80024f8:	d901      	bls.n	80024fe <HAL_RCC_OscConfig+0x206>
          {
            return HAL_TIMEOUT;
 80024fa:	2303      	movs	r3, #3
 80024fc:	e193      	b.n	8002826 <HAL_RCC_OscConfig+0x52e>
        while(__HAL_RCC_GET_FLAG(RCC_FLAG_HSIRDY) != RESET)
 80024fe:	4b1b      	ldr	r3, [pc, #108]	; (800256c <HAL_RCC_OscConfig+0x274>)
 8002500:	681b      	ldr	r3, [r3, #0]
 8002502:	f003 0302 	and.w	r3, r3, #2
 8002506:	2b00      	cmp	r3, #0
 8002508:	d1f0      	bne.n	80024ec <HAL_RCC_OscConfig+0x1f4>
        }
      }
    }
  }
  /*------------------------------ LSI Configuration -------------------------*/
  if(((RCC_OscInitStruct->OscillatorType) & RCC_OSCILLATORTYPE_LSI) == RCC_OSCILLATORTYPE_LSI)
 800250a:	687b      	ldr	r3, [r7, #4]
 800250c:	681b      	ldr	r3, [r3, #0]
 800250e:	f003 0308 	and.w	r3, r3, #8
 8002512:	2b00      	cmp	r3, #0
 8002514:	d036      	beq.n	8002584 <HAL_RCC_OscConfig+0x28c>
  {
    /* Check the parameters */
    assert_param(IS_RCC_LSI(RCC_OscInitStruct->LSIState));

    /* Check the LSI State */
    if((RCC_OscInitStruct->LSIState)!= RCC_LSI_OFF)
 8002516:	687b      	ldr	r3, [r7, #4]
 8002518:	695b      	ldr	r3, [r3, #20]
 800251a:	2b00      	cmp	r3, #0
 800251c:	d016      	beq.n	800254c <HAL_RCC_OscConfig+0x254>
    {
      /* Enable the Internal Low Speed oscillator (LSI). */
      __HAL_RCC_LSI_ENABLE();
 800251e:	4b15      	ldr	r3, [pc, #84]	; (8002574 <HAL_RCC_OscConfig+0x27c>)
 8002520:	2201      	movs	r2, #1
 8002522:	601a      	str	r2, [r3, #0]

      /* Get Start Tick*/
      tickstart = HAL_GetTick();
 8002524:	f7ff f92c 	bl	8001780 <HAL_GetTick>
 8002528:	6138      	str	r0, [r7, #16]

      /* Wait till LSI is ready */
      while(__HAL_RCC_GET_FLAG(RCC_FLAG_LSIRDY) == RESET)
 800252a:	e008      	b.n	800253e <HAL_RCC_OscConfig+0x246>
      {
        if((HAL_GetTick() - tickstart ) > LSI_TIMEOUT_VALUE)
 800252c:	f7ff f928 	bl	8001780 <HAL_GetTick>
 8002530:	4602      	mov	r2, r0
 8002532:	693b      	ldr	r3, [r7, #16]
 8002534:	1ad3      	subs	r3, r2, r3
 8002536:	2b02      	cmp	r3, #2
 8002538:	d901      	bls.n	800253e <HAL_RCC_OscConfig+0x246>
        {
          return HAL_TIMEOUT;
 800253a:	2303      	movs	r3, #3
 800253c:	e173      	b.n	8002826 <HAL_RCC_OscConfig+0x52e>
      while(__HAL_RCC_GET_FLAG(RCC_FLAG_LSIRDY) == RESET)
 800253e:	4b0b      	ldr	r3, [pc, #44]	; (800256c <HAL_RCC_OscConfig+0x274>)
 8002540:	6f5b      	ldr	r3, [r3, #116]	; 0x74
 8002542:	f003 0302 	and.w	r3, r3, #2
 8002546:	2b00      	cmp	r3, #0
 8002548:	d0f0      	beq.n	800252c <HAL_RCC_OscConfig+0x234>
 800254a:	e01b      	b.n	8002584 <HAL_RCC_OscConfig+0x28c>
      }
    }
    else
    {
      /* Disable the Internal Low Speed oscillator (LSI). */
      __HAL_RCC_LSI_DISABLE();
 800254c:	4b09      	ldr	r3, [pc, #36]	; (8002574 <HAL_RCC_OscConfig+0x27c>)
 800254e:	2200      	movs	r2, #0
 8002550:	601a      	str	r2, [r3, #0]

      /* Get Start Tick*/
      tickstart = HAL_GetTick();
 8002552:	f7ff f915 	bl	8001780 <HAL_GetTick>
 8002556:	6138      	str	r0, [r7, #16]

      /* Wait till LSI is ready */
      while(__HAL_RCC_GET_FLAG(RCC_FLAG_LSIRDY) != RESET)
 8002558:	e00e      	b.n	8002578 <HAL_RCC_OscConfig+0x280>
      {
        if((HAL_GetTick() - tickstart ) > LSI_TIMEOUT_VALUE)
 800255a:	f7ff f911 	bl	8001780 <HAL_GetTick>
 800255e:	4602      	mov	r2, r0
 8002560:	693b      	ldr	r3, [r7, #16]
 8002562:	1ad3      	subs	r3, r2, r3
 8002564:	2b02      	cmp	r3, #2
 8002566:	d907      	bls.n	8002578 <HAL_RCC_OscConfig+0x280>
        {
          return HAL_TIMEOUT;
 8002568:	2303      	movs	r3, #3
 800256a:	e15c      	b.n	8002826 <HAL_RCC_OscConfig+0x52e>
 800256c:	40023800 	.word	0x40023800
 8002570:	42470000 	.word	0x42470000
 8002574:	42470e80 	.word	0x42470e80
      while(__HAL_RCC_GET_FLAG(RCC_FLAG_LSIRDY) != RESET)
 8002578:	4b8a      	ldr	r3, [pc, #552]	; (80027a4 <HAL_RCC_OscConfig+0x4ac>)
 800257a:	6f5b      	ldr	r3, [r3, #116]	; 0x74
 800257c:	f003 0302 	and.w	r3, r3, #2
 8002580:	2b00      	cmp	r3, #0
 8002582:	d1ea      	bne.n	800255a <HAL_RCC_OscConfig+0x262>
        }
      }
    }
  }
  /*------------------------------ LSE Configuration -------------------------*/
  if(((RCC_OscInitStruct->OscillatorType) & RCC_OSCILLATORTYPE_LSE) == RCC_OSCILLATORTYPE_LSE)
 8002584:	687b      	ldr	r3, [r7, #4]
 8002586:	681b      	ldr	r3, [r3, #0]
 8002588:	f003 0304 	and.w	r3, r3, #4
 800258c:	2b00      	cmp	r3, #0
 800258e:	f000 8097 	beq.w	80026c0 <HAL_RCC_OscConfig+0x3c8>
  {
    FlagStatus       pwrclkchanged = RESET;
 8002592:	2300      	movs	r3, #0
 8002594:	75fb      	strb	r3, [r7, #23]
    /* Check the parameters */
    assert_param(IS_RCC_LSE(RCC_OscInitStruct->LSEState));

    /* Update LSE configuration in Backup Domain control register    */
    /* Requires to enable write access to Backup Domain of necessary */
    if(__HAL_RCC_PWR_IS_CLK_DISABLED())
 8002596:	4b83      	ldr	r3, [pc, #524]	; (80027a4 <HAL_RCC_OscConfig+0x4ac>)
 8002598:	6c1b      	ldr	r3, [r3, #64]	; 0x40
 800259a:	f003 5380 	and.w	r3, r3, #268435456	; 0x10000000
 800259e:	2b00      	cmp	r3, #0
 80025a0:	d10f      	bne.n	80025c2 <HAL_RCC_OscConfig+0x2ca>
    {
      __HAL_RCC_PWR_CLK_ENABLE();
 80025a2:	2300      	movs	r3, #0
 80025a4:	60bb      	str	r3, [r7, #8]
 80025a6:	4b7f      	ldr	r3, [pc, #508]	; (80027a4 <HAL_RCC_OscConfig+0x4ac>)
 80025a8:	6c1b      	ldr	r3, [r3, #64]	; 0x40
 80025aa:	4a7e      	ldr	r2, [pc, #504]	; (80027a4 <HAL_RCC_OscConfig+0x4ac>)
 80025ac:	f043 5380 	orr.w	r3, r3, #268435456	; 0x10000000
 80025b0:	6413      	str	r3, [r2, #64]	; 0x40
 80025b2:	4b7c      	ldr	r3, [pc, #496]	; (80027a4 <HAL_RCC_OscConfig+0x4ac>)
 80025b4:	6c1b      	ldr	r3, [r3, #64]	; 0x40
 80025b6:	f003 5380 	and.w	r3, r3, #268435456	; 0x10000000
 80025ba:	60bb      	str	r3, [r7, #8]
 80025bc:	68bb      	ldr	r3, [r7, #8]
      pwrclkchanged = SET;
 80025be:	2301      	movs	r3, #1
 80025c0:	75fb      	strb	r3, [r7, #23]
    }

    if(HAL_IS_BIT_CLR(PWR->CR, PWR_CR_DBP))
 80025c2:	4b79      	ldr	r3, [pc, #484]	; (80027a8 <HAL_RCC_OscConfig+0x4b0>)
 80025c4:	681b      	ldr	r3, [r3, #0]
 80025c6:	f403 7380 	and.w	r3, r3, #256	; 0x100
 80025ca:	2b00      	cmp	r3, #0
 80025cc:	d118      	bne.n	8002600 <HAL_RCC_OscConfig+0x308>
    {
      /* Enable write access to Backup domain */
      SET_BIT(PWR->CR, PWR_CR_DBP);
 80025ce:	4b76      	ldr	r3, [pc, #472]	; (80027a8 <HAL_RCC_OscConfig+0x4b0>)
 80025d0:	681b      	ldr	r3, [r3, #0]
 80025d2:	4a75      	ldr	r2, [pc, #468]	; (80027a8 <HAL_RCC_OscConfig+0x4b0>)
 80025d4:	f443 7380 	orr.w	r3, r3, #256	; 0x100
 80025d8:	6013      	str	r3, [r2, #0]

      /* Wait for Backup domain Write protection disable */
      tickstart = HAL_GetTick();
 80025da:	f7ff f8d1 	bl	8001780 <HAL_GetTick>
 80025de:	6138      	str	r0, [r7, #16]

      while(HAL_IS_BIT_CLR(PWR->CR, PWR_CR_DBP))
 80025e0:	e008      	b.n	80025f4 <HAL_RCC_OscConfig+0x2fc>
      {
        if((HAL_GetTick() - tickstart) > RCC_DBP_TIMEOUT_VALUE)
 80025e2:	f7ff f8cd 	bl	8001780 <HAL_GetTick>
 80025e6:	4602      	mov	r2, r0
 80025e8:	693b      	ldr	r3, [r7, #16]
 80025ea:	1ad3      	subs	r3, r2, r3
 80025ec:	2b02      	cmp	r3, #2
 80025ee:	d901      	bls.n	80025f4 <HAL_RCC_OscConfig+0x2fc>
        {
          return HAL_TIMEOUT;
 80025f0:	2303      	movs	r3, #3
 80025f2:	e118      	b.n	8002826 <HAL_RCC_OscConfig+0x52e>
      while(HAL_IS_BIT_CLR(PWR->CR, PWR_CR_DBP))
 80025f4:	4b6c      	ldr	r3, [pc, #432]	; (80027a8 <HAL_RCC_OscConfig+0x4b0>)
 80025f6:	681b      	ldr	r3, [r3, #0]
 80025f8:	f403 7380 	and.w	r3, r3, #256	; 0x100
 80025fc:	2b00      	cmp	r3, #0
 80025fe:	d0f0      	beq.n	80025e2 <HAL_RCC_OscConfig+0x2ea>
        }
      }
    }

    /* Set the new LSE configuration -----------------------------------------*/
    __HAL_RCC_LSE_CONFIG(RCC_OscInitStruct->LSEState);
 8002600:	687b      	ldr	r3, [r7, #4]
 8002602:	689b      	ldr	r3, [r3, #8]
 8002604:	2b01      	cmp	r3, #1
 8002606:	d106      	bne.n	8002616 <HAL_RCC_OscConfig+0x31e>
 8002608:	4b66      	ldr	r3, [pc, #408]	; (80027a4 <HAL_RCC_OscConfig+0x4ac>)
 800260a:	6f1b      	ldr	r3, [r3, #112]	; 0x70
 800260c:	4a65      	ldr	r2, [pc, #404]	; (80027a4 <HAL_RCC_OscConfig+0x4ac>)
 800260e:	f043 0301 	orr.w	r3, r3, #1
 8002612:	6713      	str	r3, [r2, #112]	; 0x70
 8002614:	e01c      	b.n	8002650 <HAL_RCC_OscConfig+0x358>
 8002616:	687b      	ldr	r3, [r7, #4]
 8002618:	689b      	ldr	r3, [r3, #8]
 800261a:	2b05      	cmp	r3, #5
 800261c:	d10c      	bne.n	8002638 <HAL_RCC_OscConfig+0x340>
 800261e:	4b61      	ldr	r3, [pc, #388]	; (80027a4 <HAL_RCC_OscConfig+0x4ac>)
 8002620:	6f1b      	ldr	r3, [r3, #112]	; 0x70
 8002622:	4a60      	ldr	r2, [pc, #384]	; (80027a4 <HAL_RCC_OscConfig+0x4ac>)
 8002624:	f043 0304 	orr.w	r3, r3, #4
 8002628:	6713      	str	r3, [r2, #112]	; 0x70
 800262a:	4b5e      	ldr	r3, [pc, #376]	; (80027a4 <HAL_RCC_OscConfig+0x4ac>)
 800262c:	6f1b      	ldr	r3, [r3, #112]	; 0x70
 800262e:	4a5d      	ldr	r2, [pc, #372]	; (80027a4 <HAL_RCC_OscConfig+0x4ac>)
 8002630:	f043 0301 	orr.w	r3, r3, #1
 8002634:	6713      	str	r3, [r2, #112]	; 0x70
 8002636:	e00b      	b.n	8002650 <HAL_RCC_OscConfig+0x358>
 8002638:	4b5a      	ldr	r3, [pc, #360]	; (80027a4 <HAL_RCC_OscConfig+0x4ac>)
 800263a:	6f1b      	ldr	r3, [r3, #112]	; 0x70
 800263c:	4a59      	ldr	r2, [pc, #356]	; (80027a4 <HAL_RCC_OscConfig+0x4ac>)
 800263e:	f023 0301 	bic.w	r3, r3, #1
 8002642:	6713      	str	r3, [r2, #112]	; 0x70
 8002644:	4b57      	ldr	r3, [pc, #348]	; (80027a4 <HAL_RCC_OscConfig+0x4ac>)
 8002646:	6f1b      	ldr	r3, [r3, #112]	; 0x70
 8002648:	4a56      	ldr	r2, [pc, #344]	; (80027a4 <HAL_RCC_OscConfig+0x4ac>)
 800264a:	f023 0304 	bic.w	r3, r3, #4
 800264e:	6713      	str	r3, [r2, #112]	; 0x70
    /* Check the LSE State */
    if((RCC_OscInitStruct->LSEState) != RCC_LSE_OFF)
 8002650:	687b      	ldr	r3, [r7, #4]
 8002652:	689b      	ldr	r3, [r3, #8]
 8002654:	2b00      	cmp	r3, #0
 8002656:	d015      	beq.n	8002684 <HAL_RCC_OscConfig+0x38c>
    {
      /* Get Start Tick*/
      tickstart = HAL_GetTick();
 8002658:	f7ff f892 	bl	8001780 <HAL_GetTick>
 800265c:	6138      	str	r0, [r7, #16]

      /* Wait till LSE is ready */
      while(__HAL_RCC_GET_FLAG(RCC_FLAG_LSERDY) == RESET)
 800265e:	e00a      	b.n	8002676 <HAL_RCC_OscConfig+0x37e>
      {
        if((HAL_GetTick() - tickstart ) > RCC_LSE_TIMEOUT_VALUE)
 8002660:	f7ff f88e 	bl	8001780 <HAL_GetTick>
 8002664:	4602      	mov	r2, r0
 8002666:	693b      	ldr	r3, [r7, #16]
 8002668:	1ad3      	subs	r3, r2, r3
 800266a:	f241 3288 	movw	r2, #5000	; 0x1388
 800266e:	4293      	cmp	r3, r2
 8002670:	d901      	bls.n	8002676 <HAL_RCC_OscConfig+0x37e>
        {
          return HAL_TIMEOUT;
 8002672:	2303      	movs	r3, #3
 8002674:	e0d7      	b.n	8002826 <HAL_RCC_OscConfig+0x52e>
      while(__HAL_RCC_GET_FLAG(RCC_FLAG_LSERDY) == RESET)
 8002676:	4b4b      	ldr	r3, [pc, #300]	; (80027a4 <HAL_RCC_OscConfig+0x4ac>)
 8002678:	6f1b      	ldr	r3, [r3, #112]	; 0x70
 800267a:	f003 0302 	and.w	r3, r3, #2
 800267e:	2b00      	cmp	r3, #0
 8002680:	d0ee      	beq.n	8002660 <HAL_RCC_OscConfig+0x368>
 8002682:	e014      	b.n	80026ae <HAL_RCC_OscConfig+0x3b6>
      }
    }
    else
    {
      /* Get Start Tick*/
      tickstart = HAL_GetTick();
 8002684:	f7ff f87c 	bl	8001780 <HAL_GetTick>
 8002688:	6138      	str	r0, [r7, #16]

      /* Wait till LSE is ready */
      while(__HAL_RCC_GET_FLAG(RCC_FLAG_LSERDY) != RESET)
 800268a:	e00a      	b.n	80026a2 <HAL_RCC_OscConfig+0x3aa>
      {
        if((HAL_GetTick() - tickstart ) > RCC_LSE_TIMEOUT_VALUE)
 800268c:	f7ff f878 	bl	8001780 <HAL_GetTick>
 8002690:	4602      	mov	r2, r0
 8002692:	693b      	ldr	r3, [r7, #16]
 8002694:	1ad3      	subs	r3, r2, r3
 8002696:	f241 3288 	movw	r2, #5000	; 0x1388
 800269a:	4293      	cmp	r3, r2
 800269c:	d901      	bls.n	80026a2 <HAL_RCC_OscConfig+0x3aa>
        {
          return HAL_TIMEOUT;
 800269e:	2303      	movs	r3, #3
 80026a0:	e0c1      	b.n	8002826 <HAL_RCC_OscConfig+0x52e>
      while(__HAL_RCC_GET_FLAG(RCC_FLAG_LSERDY) != RESET)
 80026a2:	4b40      	ldr	r3, [pc, #256]	; (80027a4 <HAL_RCC_OscConfig+0x4ac>)
 80026a4:	6f1b      	ldr	r3, [r3, #112]	; 0x70
 80026a6:	f003 0302 	and.w	r3, r3, #2
 80026aa:	2b00      	cmp	r3, #0
 80026ac:	d1ee      	bne.n	800268c <HAL_RCC_OscConfig+0x394>
        }
      }
    }

    /* Restore clock configuration if changed */
    if(pwrclkchanged == SET)
 80026ae:	7dfb      	ldrb	r3, [r7, #23]
 80026b0:	2b01      	cmp	r3, #1
 80026b2:	d105      	bne.n	80026c0 <HAL_RCC_OscConfig+0x3c8>
    {
      __HAL_RCC_PWR_CLK_DISABLE();
 80026b4:	4b3b      	ldr	r3, [pc, #236]	; (80027a4 <HAL_RCC_OscConfig+0x4ac>)
 80026b6:	6c1b      	ldr	r3, [r3, #64]	; 0x40
 80026b8:	4a3a      	ldr	r2, [pc, #232]	; (80027a4 <HAL_RCC_OscConfig+0x4ac>)
 80026ba:	f023 5380 	bic.w	r3, r3, #268435456	; 0x10000000
 80026be:	6413      	str	r3, [r2, #64]	; 0x40
    }
  }
  /*-------------------------------- PLL Configuration -----------------------*/
  /* Check the parameters */
  assert_param(IS_RCC_PLL(RCC_OscInitStruct->PLL.PLLState));
  if ((RCC_OscInitStruct->PLL.PLLState) != RCC_PLL_NONE)
 80026c0:	687b      	ldr	r3, [r7, #4]
 80026c2:	699b      	ldr	r3, [r3, #24]
 80026c4:	2b00      	cmp	r3, #0
 80026c6:	f000 80ad 	beq.w	8002824 <HAL_RCC_OscConfig+0x52c>
  {
    /* Check if the PLL is used as system clock or not */
    if(__HAL_RCC_GET_SYSCLK_SOURCE() != RCC_CFGR_SWS_PLL)
 80026ca:	4b36      	ldr	r3, [pc, #216]	; (80027a4 <HAL_RCC_OscConfig+0x4ac>)
 80026cc:	689b      	ldr	r3, [r3, #8]
 80026ce:	f003 030c 	and.w	r3, r3, #12
 80026d2:	2b08      	cmp	r3, #8
 80026d4:	d060      	beq.n	8002798 <HAL_RCC_OscConfig+0x4a0>
    {
      if((RCC_OscInitStruct->PLL.PLLState) == RCC_PLL_ON)
 80026d6:	687b      	ldr	r3, [r7, #4]
 80026d8:	699b      	ldr	r3, [r3, #24]
 80026da:	2b02      	cmp	r3, #2
 80026dc:	d145      	bne.n	800276a <HAL_RCC_OscConfig+0x472>
        assert_param(IS_RCC_PLLP_VALUE(RCC_OscInitStruct->PLL.PLLP));
        assert_param(IS_RCC_PLLQ_VALUE(RCC_OscInitStruct->PLL.PLLQ));
        assert_param(IS_RCC_PLLR_VALUE(RCC_OscInitStruct->PLL.PLLR));

        /* Disable the main PLL. */
        __HAL_RCC_PLL_DISABLE();
 80026de:	4b33      	ldr	r3, [pc, #204]	; (80027ac <HAL_RCC_OscConfig+0x4b4>)
 80026e0:	2200      	movs	r2, #0
 80026e2:	601a      	str	r2, [r3, #0]

        /* Get Start Tick*/
        tickstart = HAL_GetTick();
 80026e4:	f7ff f84c 	bl	8001780 <HAL_GetTick>
 80026e8:	6138      	str	r0, [r7, #16]

        /* Wait till PLL is ready */
        while(__HAL_RCC_GET_FLAG(RCC_FLAG_PLLRDY) != RESET)
 80026ea:	e008      	b.n	80026fe <HAL_RCC_OscConfig+0x406>
        {
          if((HAL_GetTick() - tickstart ) > PLL_TIMEOUT_VALUE)
 80026ec:	f7ff f848 	bl	8001780 <HAL_GetTick>
 80026f0:	4602      	mov	r2, r0
 80026f2:	693b      	ldr	r3, [r7, #16]
 80026f4:	1ad3      	subs	r3, r2, r3
 80026f6:	2b02      	cmp	r3, #2
 80026f8:	d901      	bls.n	80026fe <HAL_RCC_OscConfig+0x406>
          {
            return HAL_TIMEOUT;
 80026fa:	2303      	movs	r3, #3
 80026fc:	e093      	b.n	8002826 <HAL_RCC_OscConfig+0x52e>
        while(__HAL_RCC_GET_FLAG(RCC_FLAG_PLLRDY) != RESET)
 80026fe:	4b29      	ldr	r3, [pc, #164]	; (80027a4 <HAL_RCC_OscConfig+0x4ac>)
 8002700:	681b      	ldr	r3, [r3, #0]
 8002702:	f003 7300 	and.w	r3, r3, #33554432	; 0x2000000
 8002706:	2b00      	cmp	r3, #0
 8002708:	d1f0      	bne.n	80026ec <HAL_RCC_OscConfig+0x3f4>
          }
        }

        /* Configure the main PLL clock source, multiplication and division factors. */
        WRITE_REG(RCC->PLLCFGR, (RCC_OscInitStruct->PLL.PLLSource                                            | \
 800270a:	687b      	ldr	r3, [r7, #4]
 800270c:	69da      	ldr	r2, [r3, #28]
 800270e:	687b      	ldr	r3, [r7, #4]
 8002710:	6a1b      	ldr	r3, [r3, #32]
 8002712:	431a      	orrs	r2, r3
 8002714:	687b      	ldr	r3, [r7, #4]
 8002716:	6a5b      	ldr	r3, [r3, #36]	; 0x24
 8002718:	019b      	lsls	r3, r3, #6
 800271a:	431a      	orrs	r2, r3
 800271c:	687b      	ldr	r3, [r7, #4]
 800271e:	6a9b      	ldr	r3, [r3, #40]	; 0x28
 8002720:	085b      	lsrs	r3, r3, #1
 8002722:	3b01      	subs	r3, #1
 8002724:	041b      	lsls	r3, r3, #16
 8002726:	431a      	orrs	r2, r3
 8002728:	687b      	ldr	r3, [r7, #4]
 800272a:	6adb      	ldr	r3, [r3, #44]	; 0x2c
 800272c:	061b      	lsls	r3, r3, #24
 800272e:	431a      	orrs	r2, r3
 8002730:	687b      	ldr	r3, [r7, #4]
 8002732:	6b1b      	ldr	r3, [r3, #48]	; 0x30
 8002734:	071b      	lsls	r3, r3, #28
 8002736:	491b      	ldr	r1, [pc, #108]	; (80027a4 <HAL_RCC_OscConfig+0x4ac>)
 8002738:	4313      	orrs	r3, r2
 800273a:	604b      	str	r3, [r1, #4]
                                 (RCC_OscInitStruct->PLL.PLLN << RCC_PLLCFGR_PLLN_Pos)                       | \
                                 (((RCC_OscInitStruct->PLL.PLLP >> 1U) - 1U) << RCC_PLLCFGR_PLLP_Pos)        | \
                                 (RCC_OscInitStruct->PLL.PLLQ << RCC_PLLCFGR_PLLQ_Pos)                       | \
                                 (RCC_OscInitStruct->PLL.PLLR << RCC_PLLCFGR_PLLR_Pos)));
        /* Enable the main PLL. */
        __HAL_RCC_PLL_ENABLE();
 800273c:	4b1b      	ldr	r3, [pc, #108]	; (80027ac <HAL_RCC_OscConfig+0x4b4>)
 800273e:	2201      	movs	r2, #1
 8002740:	601a      	str	r2, [r3, #0]

        /* Get Start Tick*/
        tickstart = HAL_GetTick();
 8002742:	f7ff f81d 	bl	8001780 <HAL_GetTick>
 8002746:	6138      	str	r0, [r7, #16]

        /* Wait till PLL is ready */
        while(__HAL_RCC_GET_FLAG(RCC_FLAG_PLLRDY) == RESET)
 8002748:	e008      	b.n	800275c <HAL_RCC_OscConfig+0x464>
        {
          if((HAL_GetTick() - tickstart ) > PLL_TIMEOUT_VALUE)
 800274a:	f7ff f819 	bl	8001780 <HAL_GetTick>
 800274e:	4602      	mov	r2, r0
 8002750:	693b      	ldr	r3, [r7, #16]
 8002752:	1ad3      	subs	r3, r2, r3
 8002754:	2b02      	cmp	r3, #2
 8002756:	d901      	bls.n	800275c <HAL_RCC_OscConfig+0x464>
          {
            return HAL_TIMEOUT;
 8002758:	2303      	movs	r3, #3
 800275a:	e064      	b.n	8002826 <HAL_RCC_OscConfig+0x52e>
        while(__HAL_RCC_GET_FLAG(RCC_FLAG_PLLRDY) == RESET)
 800275c:	4b11      	ldr	r3, [pc, #68]	; (80027a4 <HAL_RCC_OscConfig+0x4ac>)
 800275e:	681b      	ldr	r3, [r3, #0]
 8002760:	f003 7300 	and.w	r3, r3, #33554432	; 0x2000000
 8002764:	2b00      	cmp	r3, #0
 8002766:	d0f0      	beq.n	800274a <HAL_RCC_OscConfig+0x452>
 8002768:	e05c      	b.n	8002824 <HAL_RCC_OscConfig+0x52c>
        }
      }
      else
      {
        /* Disable the main PLL. */
        __HAL_RCC_PLL_DISABLE();
 800276a:	4b10      	ldr	r3, [pc, #64]	; (80027ac <HAL_RCC_OscConfig+0x4b4>)
 800276c:	2200      	movs	r2, #0
 800276e:	601a      	str	r2, [r3, #0]

        /* Get Start Tick*/
        tickstart = HAL_GetTick();
 8002770:	f7ff f806 	bl	8001780 <HAL_GetTick>
 8002774:	6138      	str	r0, [r7, #16]

        /* Wait till PLL is ready */
        while(__HAL_RCC_GET_FLAG(RCC_FLAG_PLLRDY) != RESET)
 8002776:	e008      	b.n	800278a <HAL_RCC_OscConfig+0x492>
        {
          if((HAL_GetTick() - tickstart ) > PLL_TIMEOUT_VALUE)
 8002778:	f7ff f802 	bl	8001780 <HAL_GetTick>
 800277c:	4602      	mov	r2, r0
 800277e:	693b      	ldr	r3, [r7, #16]
 8002780:	1ad3      	subs	r3, r2, r3
 8002782:	2b02      	cmp	r3, #2
 8002784:	d901      	bls.n	800278a <HAL_RCC_OscConfig+0x492>
          {
            return HAL_TIMEOUT;
 8002786:	2303      	movs	r3, #3
 8002788:	e04d      	b.n	8002826 <HAL_RCC_OscConfig+0x52e>
        while(__HAL_RCC_GET_FLAG(RCC_FLAG_PLLRDY) != RESET)
 800278a:	4b06      	ldr	r3, [pc, #24]	; (80027a4 <HAL_RCC_OscConfig+0x4ac>)
 800278c:	681b      	ldr	r3, [r3, #0]
 800278e:	f003 7300 	and.w	r3, r3, #33554432	; 0x2000000
 8002792:	2b00      	cmp	r3, #0
 8002794:	d1f0      	bne.n	8002778 <HAL_RCC_OscConfig+0x480>
 8002796:	e045      	b.n	8002824 <HAL_RCC_OscConfig+0x52c>
      }
    }
    else
    {
      /* Check if there is a request to disable the PLL used as System clock source */
      if((RCC_OscInitStruct->PLL.PLLState) == RCC_PLL_OFF)
 8002798:	687b      	ldr	r3, [r7, #4]
 800279a:	699b      	ldr	r3, [r3, #24]
 800279c:	2b01      	cmp	r3, #1
 800279e:	d107      	bne.n	80027b0 <HAL_RCC_OscConfig+0x4b8>
      {
        return HAL_ERROR;
 80027a0:	2301      	movs	r3, #1
 80027a2:	e040      	b.n	8002826 <HAL_RCC_OscConfig+0x52e>
 80027a4:	40023800 	.word	0x40023800
 80027a8:	40007000 	.word	0x40007000
 80027ac:	42470060 	.word	0x42470060
      }
      else
      {
        /* Do not return HAL_ERROR if request repeats the current configuration */
        pll_config = RCC->PLLCFGR;
 80027b0:	4b1f      	ldr	r3, [pc, #124]	; (8002830 <HAL_RCC_OscConfig+0x538>)
 80027b2:	685b      	ldr	r3, [r3, #4]
 80027b4:	60fb      	str	r3, [r7, #12]
#if defined (RCC_PLLCFGR_PLLR)
        if (((RCC_OscInitStruct->PLL.PLLState) == RCC_PLL_OFF) ||
 80027b6:	687b      	ldr	r3, [r7, #4]
 80027b8:	699b      	ldr	r3, [r3, #24]
 80027ba:	2b01      	cmp	r3, #1
 80027bc:	d030      	beq.n	8002820 <HAL_RCC_OscConfig+0x528>
            (READ_BIT(pll_config, RCC_PLLCFGR_PLLSRC) != RCC_OscInitStruct->PLL.PLLSource) ||
 80027be:	68fb      	ldr	r3, [r7, #12]
 80027c0:	f403 0280 	and.w	r2, r3, #4194304	; 0x400000
 80027c4:	687b      	ldr	r3, [r7, #4]
 80027c6:	69db      	ldr	r3, [r3, #28]
        if (((RCC_OscInitStruct->PLL.PLLState) == RCC_PLL_OFF) ||
 80027c8:	429a      	cmp	r2, r3
 80027ca:	d129      	bne.n	8002820 <HAL_RCC_OscConfig+0x528>
            (READ_BIT(pll_config, RCC_PLLCFGR_PLLM) != (RCC_OscInitStruct->PLL.PLLM) << RCC_PLLCFGR_PLLM_Pos) ||
 80027cc:	68fb      	ldr	r3, [r7, #12]
 80027ce:	f003 023f 	and.w	r2, r3, #63	; 0x3f
 80027d2:	687b      	ldr	r3, [r7, #4]
 80027d4:	6a1b      	ldr	r3, [r3, #32]
            (READ_BIT(pll_config, RCC_PLLCFGR_PLLSRC) != RCC_OscInitStruct->PLL.PLLSource) ||
 80027d6:	429a      	cmp	r2, r3
 80027d8:	d122      	bne.n	8002820 <HAL_RCC_OscConfig+0x528>
            (READ_BIT(pll_config, RCC_PLLCFGR_PLLN) != (RCC_OscInitStruct->PLL.PLLN) << RCC_PLLCFGR_PLLN_Pos) ||
 80027da:	68fa      	ldr	r2, [r7, #12]
 80027dc:	f647 73c0 	movw	r3, #32704	; 0x7fc0
 80027e0:	4013      	ands	r3, r2
 80027e2:	687a      	ldr	r2, [r7, #4]
 80027e4:	6a52      	ldr	r2, [r2, #36]	; 0x24
 80027e6:	0192      	lsls	r2, r2, #6
            (READ_BIT(pll_config, RCC_PLLCFGR_PLLM) != (RCC_OscInitStruct->PLL.PLLM) << RCC_PLLCFGR_PLLM_Pos) ||
 80027e8:	4293      	cmp	r3, r2
 80027ea:	d119      	bne.n	8002820 <HAL_RCC_OscConfig+0x528>
            (READ_BIT(pll_config, RCC_PLLCFGR_PLLP) != (((RCC_OscInitStruct->PLL.PLLP >> 1U) - 1U)) << RCC_PLLCFGR_PLLP_Pos) ||
 80027ec:	68fb      	ldr	r3, [r7, #12]
 80027ee:	f403 3240 	and.w	r2, r3, #196608	; 0x30000
 80027f2:	687b      	ldr	r3, [r7, #4]
 80027f4:	6a9b      	ldr	r3, [r3, #40]	; 0x28
 80027f6:	085b      	lsrs	r3, r3, #1
 80027f8:	3b01      	subs	r3, #1
 80027fa:	041b      	lsls	r3, r3, #16
            (READ_BIT(pll_config, RCC_PLLCFGR_PLLN) != (RCC_OscInitStruct->PLL.PLLN) << RCC_PLLCFGR_PLLN_Pos) ||
 80027fc:	429a      	cmp	r2, r3
 80027fe:	d10f      	bne.n	8002820 <HAL_RCC_OscConfig+0x528>
            (READ_BIT(pll_config, RCC_PLLCFGR_PLLQ) != (RCC_OscInitStruct->PLL.PLLQ << RCC_PLLCFGR_PLLQ_Pos)) ||
 8002800:	68fb      	ldr	r3, [r7, #12]
 8002802:	f003 6270 	and.w	r2, r3, #251658240	; 0xf000000
 8002806:	687b      	ldr	r3, [r7, #4]
 8002808:	6adb      	ldr	r3, [r3, #44]	; 0x2c
 800280a:	061b      	lsls	r3, r3, #24
            (READ_BIT(pll_config, RCC_PLLCFGR_PLLP) != (((RCC_OscInitStruct->PLL.PLLP >> 1U) - 1U)) << RCC_PLLCFGR_PLLP_Pos) ||
 800280c:	429a      	cmp	r2, r3
 800280e:	d107      	bne.n	8002820 <HAL_RCC_OscConfig+0x528>
            (READ_BIT(pll_config, RCC_PLLCFGR_PLLR) != (RCC_OscInitStruct->PLL.PLLR << RCC_PLLCFGR_PLLR_Pos)))
 8002810:	68fb      	ldr	r3, [r7, #12]
 8002812:	f003 42e0 	and.w	r2, r3, #1879048192	; 0x70000000
 8002816:	687b      	ldr	r3, [r7, #4]
 8002818:	6b1b      	ldr	r3, [r3, #48]	; 0x30
 800281a:	071b      	lsls	r3, r3, #28
            (READ_BIT(pll_config, RCC_PLLCFGR_PLLQ) != (RCC_OscInitStruct->PLL.PLLQ << RCC_PLLCFGR_PLLQ_Pos)) ||
 800281c:	429a      	cmp	r2, r3
 800281e:	d001      	beq.n	8002824 <HAL_RCC_OscConfig+0x52c>
            (READ_BIT(pll_config, RCC_PLLCFGR_PLLN) != (RCC_OscInitStruct->PLL.PLLN) << RCC_PLLCFGR_PLLN_Pos) ||
            (READ_BIT(pll_config, RCC_PLLCFGR_PLLP) != (((RCC_OscInitStruct->PLL.PLLP >> 1U) - 1U)) << RCC_PLLCFGR_PLLP_Pos) ||
            (READ_BIT(pll_config, RCC_PLLCFGR_PLLQ) != (RCC_OscInitStruct->PLL.PLLQ << RCC_PLLCFGR_PLLQ_Pos)))
#endif
        {
          return HAL_ERROR;
 8002820:	2301      	movs	r3, #1
 8002822:	e000      	b.n	8002826 <HAL_RCC_OscConfig+0x52e>
        }
      }
    }
  }
  return HAL_OK;
 8002824:	2300      	movs	r3, #0
}
 8002826:	4618      	mov	r0, r3
 8002828:	3718      	adds	r7, #24
 800282a:	46bd      	mov	sp, r7
 800282c:	bd80      	pop	{r7, pc}
 800282e:	bf00      	nop
 8002830:	40023800 	.word	0x40023800

08002834 <HAL_TIM_Base_Init>:
  *         Ex: call @ref HAL_TIM_Base_DeInit() before HAL_TIM_Base_Init()
  * @param  htim TIM Base handle
  * @retval HAL status
  */
HAL_StatusTypeDef HAL_TIM_Base_Init(TIM_HandleTypeDef *htim)
{
 8002834:	b580      	push	{r7, lr}
 8002836:	b082      	sub	sp, #8
 8002838:	af00      	add	r7, sp, #0
 800283a:	6078      	str	r0, [r7, #4]
  /* Check the TIM handle allocation */
  if (htim == NULL)
 800283c:	687b      	ldr	r3, [r7, #4]
 800283e:	2b00      	cmp	r3, #0
 8002840:	d101      	bne.n	8002846 <HAL_TIM_Base_Init+0x12>
  {
    return HAL_ERROR;
 8002842:	2301      	movs	r3, #1
 8002844:	e041      	b.n	80028ca <HAL_TIM_Base_Init+0x96>
  assert_param(IS_TIM_INSTANCE(htim->Instance));
  assert_param(IS_TIM_COUNTER_MODE(htim->Init.CounterMode));
  assert_param(IS_TIM_CLOCKDIVISION_DIV(htim->Init.ClockDivision));
  assert_param(IS_TIM_AUTORELOAD_PRELOAD(htim->Init.AutoReloadPreload));

  if (htim->State == HAL_TIM_STATE_RESET)
 8002846:	687b      	ldr	r3, [r7, #4]
 8002848:	f893 303d 	ldrb.w	r3, [r3, #61]	; 0x3d
 800284c:	b2db      	uxtb	r3, r3
 800284e:	2b00      	cmp	r3, #0
 8002850:	d106      	bne.n	8002860 <HAL_TIM_Base_Init+0x2c>
  {
    /* Allocate lock resource and initialize it */
    htim->Lock = HAL_UNLOCKED;
 8002852:	687b      	ldr	r3, [r7, #4]
 8002854:	2200      	movs	r2, #0
 8002856:	f883 203c 	strb.w	r2, [r3, #60]	; 0x3c
    }
    /* Init the low level hardware : GPIO, CLOCK, NVIC */
    htim->Base_MspInitCallback(htim);
#else
    /* Init the low level hardware : GPIO, CLOCK, NVIC */
    HAL_TIM_Base_MspInit(htim);
 800285a:	6878      	ldr	r0, [r7, #4]
 800285c:	f7fe fd3c 	bl	80012d8 <HAL_TIM_Base_MspInit>
#endif /* USE_HAL_TIM_REGISTER_CALLBACKS */
  }

  /* Set the TIM state */
  htim->State = HAL_TIM_STATE_BUSY;
 8002860:	687b      	ldr	r3, [r7, #4]
 8002862:	2202      	movs	r2, #2
 8002864:	f883 203d 	strb.w	r2, [r3, #61]	; 0x3d

  /* Set the Time Base configuration */
  TIM_Base_SetConfig(htim->Instance, &htim->Init);
 8002868:	687b      	ldr	r3, [r7, #4]
 800286a:	681a      	ldr	r2, [r3, #0]
 800286c:	687b      	ldr	r3, [r7, #4]
 800286e:	3304      	adds	r3, #4
 8002870:	4619      	mov	r1, r3
 8002872:	4610      	mov	r0, r2
 8002874:	f000 fcbe 	bl	80031f4 <TIM_Base_SetConfig>

  /* Initialize the DMA burst operation state */
  htim->DMABurstState = HAL_DMA_BURST_STATE_READY;
 8002878:	687b      	ldr	r3, [r7, #4]
 800287a:	2201      	movs	r2, #1
 800287c:	f883 2046 	strb.w	r2, [r3, #70]	; 0x46

  /* Initialize the TIM channels state */
  TIM_CHANNEL_STATE_SET_ALL(htim, HAL_TIM_CHANNEL_STATE_READY);
 8002880:	687b      	ldr	r3, [r7, #4]
 8002882:	2201      	movs	r2, #1
 8002884:	f883 203e 	strb.w	r2, [r3, #62]	; 0x3e
 8002888:	687b      	ldr	r3, [r7, #4]
 800288a:	2201      	movs	r2, #1
 800288c:	f883 203f 	strb.w	r2, [r3, #63]	; 0x3f
 8002890:	687b      	ldr	r3, [r7, #4]
 8002892:	2201      	movs	r2, #1
 8002894:	f883 2040 	strb.w	r2, [r3, #64]	; 0x40
 8002898:	687b      	ldr	r3, [r7, #4]
 800289a:	2201      	movs	r2, #1
 800289c:	f883 2041 	strb.w	r2, [r3, #65]	; 0x41
  TIM_CHANNEL_N_STATE_SET_ALL(htim, HAL_TIM_CHANNEL_STATE_READY);
 80028a0:	687b      	ldr	r3, [r7, #4]
 80028a2:	2201      	movs	r2, #1
 80028a4:	f883 2042 	strb.w	r2, [r3, #66]	; 0x42
 80028a8:	687b      	ldr	r3, [r7, #4]
 80028aa:	2201      	movs	r2, #1
 80028ac:	f883 2043 	strb.w	r2, [r3, #67]	; 0x43
 80028b0:	687b      	ldr	r3, [r7, #4]
 80028b2:	2201      	movs	r2, #1
 80028b4:	f883 2044 	strb.w	r2, [r3, #68]	; 0x44
 80028b8:	687b      	ldr	r3, [r7, #4]
 80028ba:	2201      	movs	r2, #1
 80028bc:	f883 2045 	strb.w	r2, [r3, #69]	; 0x45

  /* Initialize the TIM state*/
  htim->State = HAL_TIM_STATE_READY;
 80028c0:	687b      	ldr	r3, [r7, #4]
 80028c2:	2201      	movs	r2, #1
 80028c4:	f883 203d 	strb.w	r2, [r3, #61]	; 0x3d

  return HAL_OK;
 80028c8:	2300      	movs	r3, #0
}
 80028ca:	4618      	mov	r0, r3
 80028cc:	3708      	adds	r7, #8
 80028ce:	46bd      	mov	sp, r7
 80028d0:	bd80      	pop	{r7, pc}
	...

080028d4 <HAL_TIM_Base_Start_IT>:
  * @brief  Starts the TIM Base generation in interrupt mode.
  * @param  htim TIM Base handle
  * @retval HAL status
  */
HAL_StatusTypeDef HAL_TIM_Base_Start_IT(TIM_HandleTypeDef *htim)
{
 80028d4:	b480      	push	{r7}
 80028d6:	b085      	sub	sp, #20
 80028d8:	af00      	add	r7, sp, #0
 80028da:	6078      	str	r0, [r7, #4]

  /* Check the parameters */
  assert_param(IS_TIM_INSTANCE(htim->Instance));

  /* Check the TIM state */
  if (htim->State != HAL_TIM_STATE_READY)
 80028dc:	687b      	ldr	r3, [r7, #4]
 80028de:	f893 303d 	ldrb.w	r3, [r3, #61]	; 0x3d
 80028e2:	b2db      	uxtb	r3, r3
 80028e4:	2b01      	cmp	r3, #1
 80028e6:	d001      	beq.n	80028ec <HAL_TIM_Base_Start_IT+0x18>
  {
    return HAL_ERROR;
 80028e8:	2301      	movs	r3, #1
 80028ea:	e04e      	b.n	800298a <HAL_TIM_Base_Start_IT+0xb6>
  }

  /* Set the TIM state */
  htim->State = HAL_TIM_STATE_BUSY;
 80028ec:	687b      	ldr	r3, [r7, #4]
 80028ee:	2202      	movs	r2, #2
 80028f0:	f883 203d 	strb.w	r2, [r3, #61]	; 0x3d

  /* Enable the TIM Update interrupt */
  __HAL_TIM_ENABLE_IT(htim, TIM_IT_UPDATE);
 80028f4:	687b      	ldr	r3, [r7, #4]
 80028f6:	681b      	ldr	r3, [r3, #0]
 80028f8:	68da      	ldr	r2, [r3, #12]
 80028fa:	687b      	ldr	r3, [r7, #4]
 80028fc:	681b      	ldr	r3, [r3, #0]
 80028fe:	f042 0201 	orr.w	r2, r2, #1
 8002902:	60da      	str	r2, [r3, #12]

  /* Enable the Peripheral, except in trigger mode where enable is automatically done with trigger */
  if (IS_TIM_SLAVE_INSTANCE(htim->Instance))
 8002904:	687b      	ldr	r3, [r7, #4]
 8002906:	681b      	ldr	r3, [r3, #0]
 8002908:	4a23      	ldr	r2, [pc, #140]	; (8002998 <HAL_TIM_Base_Start_IT+0xc4>)
 800290a:	4293      	cmp	r3, r2
 800290c:	d022      	beq.n	8002954 <HAL_TIM_Base_Start_IT+0x80>
 800290e:	687b      	ldr	r3, [r7, #4]
 8002910:	681b      	ldr	r3, [r3, #0]
 8002912:	f1b3 4f80 	cmp.w	r3, #1073741824	; 0x40000000
 8002916:	d01d      	beq.n	8002954 <HAL_TIM_Base_Start_IT+0x80>
 8002918:	687b      	ldr	r3, [r7, #4]
 800291a:	681b      	ldr	r3, [r3, #0]
 800291c:	4a1f      	ldr	r2, [pc, #124]	; (800299c <HAL_TIM_Base_Start_IT+0xc8>)
 800291e:	4293      	cmp	r3, r2
 8002920:	d018      	beq.n	8002954 <HAL_TIM_Base_Start_IT+0x80>
 8002922:	687b      	ldr	r3, [r7, #4]
 8002924:	681b      	ldr	r3, [r3, #0]
 8002926:	4a1e      	ldr	r2, [pc, #120]	; (80029a0 <HAL_TIM_Base_Start_IT+0xcc>)
 8002928:	4293      	cmp	r3, r2
 800292a:	d013      	beq.n	8002954 <HAL_TIM_Base_Start_IT+0x80>
 800292c:	687b      	ldr	r3, [r7, #4]
 800292e:	681b      	ldr	r3, [r3, #0]
 8002930:	4a1c      	ldr	r2, [pc, #112]	; (80029a4 <HAL_TIM_Base_Start_IT+0xd0>)
 8002932:	4293      	cmp	r3, r2
 8002934:	d00e      	beq.n	8002954 <HAL_TIM_Base_Start_IT+0x80>
 8002936:	687b      	ldr	r3, [r7, #4]
 8002938:	681b      	ldr	r3, [r3, #0]
 800293a:	4a1b      	ldr	r2, [pc, #108]	; (80029a8 <HAL_TIM_Base_Start_IT+0xd4>)
 800293c:	4293      	cmp	r3, r2
 800293e:	d009      	beq.n	8002954 <HAL_TIM_Base_Start_IT+0x80>
 8002940:	687b      	ldr	r3, [r7, #4]
 8002942:	681b      	ldr	r3, [r3, #0]
 8002944:	4a19      	ldr	r2, [pc, #100]	; (80029ac <HAL_TIM_Base_Start_IT+0xd8>)
 8002946:	4293      	cmp	r3, r2
 8002948:	d004      	beq.n	8002954 <HAL_TIM_Base_Start_IT+0x80>
 800294a:	687b      	ldr	r3, [r7, #4]
 800294c:	681b      	ldr	r3, [r3, #0]
 800294e:	4a18      	ldr	r2, [pc, #96]	; (80029b0 <HAL_TIM_Base_Start_IT+0xdc>)
 8002950:	4293      	cmp	r3, r2
 8002952:	d111      	bne.n	8002978 <HAL_TIM_Base_Start_IT+0xa4>
  {
    tmpsmcr = htim->Instance->SMCR & TIM_SMCR_SMS;
 8002954:	687b      	ldr	r3, [r7, #4]
 8002956:	681b      	ldr	r3, [r3, #0]
 8002958:	689b      	ldr	r3, [r3, #8]
 800295a:	f003 0307 	and.w	r3, r3, #7
 800295e:	60fb      	str	r3, [r7, #12]
    if (!IS_TIM_SLAVEMODE_TRIGGER_ENABLED(tmpsmcr))
 8002960:	68fb      	ldr	r3, [r7, #12]
 8002962:	2b06      	cmp	r3, #6
 8002964:	d010      	beq.n	8002988 <HAL_TIM_Base_Start_IT+0xb4>
    {
      __HAL_TIM_ENABLE(htim);
 8002966:	687b      	ldr	r3, [r7, #4]
 8002968:	681b      	ldr	r3, [r3, #0]
 800296a:	681a      	ldr	r2, [r3, #0]
 800296c:	687b      	ldr	r3, [r7, #4]
 800296e:	681b      	ldr	r3, [r3, #0]
 8002970:	f042 0201 	orr.w	r2, r2, #1
 8002974:	601a      	str	r2, [r3, #0]
    if (!IS_TIM_SLAVEMODE_TRIGGER_ENABLED(tmpsmcr))
 8002976:	e007      	b.n	8002988 <HAL_TIM_Base_Start_IT+0xb4>
    }
  }
  else
  {
    __HAL_TIM_ENABLE(htim);
 8002978:	687b      	ldr	r3, [r7, #4]
 800297a:	681b      	ldr	r3, [r3, #0]
 800297c:	681a      	ldr	r2, [r3, #0]
 800297e:	687b      	ldr	r3, [r7, #4]
 8002980:	681b      	ldr	r3, [r3, #0]
 8002982:	f042 0201 	orr.w	r2, r2, #1
 8002986:	601a      	str	r2, [r3, #0]
  }

  /* Return function status */
  return HAL_OK;
 8002988:	2300      	movs	r3, #0
}
 800298a:	4618      	mov	r0, r3
 800298c:	3714      	adds	r7, #20
 800298e:	46bd      	mov	sp, r7
 8002990:	f85d 7b04 	ldr.w	r7, [sp], #4
 8002994:	4770      	bx	lr
 8002996:	bf00      	nop
 8002998:	40010000 	.word	0x40010000
 800299c:	40000400 	.word	0x40000400
 80029a0:	40000800 	.word	0x40000800
 80029a4:	40000c00 	.word	0x40000c00
 80029a8:	40010400 	.word	0x40010400
 80029ac:	40014000 	.word	0x40014000
 80029b0:	40001800 	.word	0x40001800

080029b4 <HAL_TIM_IC_Init>:
  *         Ex: call @ref HAL_TIM_IC_DeInit() before HAL_TIM_IC_Init()
  * @param  htim TIM Input Capture handle
  * @retval HAL status
  */
HAL_StatusTypeDef HAL_TIM_IC_Init(TIM_HandleTypeDef *htim)
{
 80029b4:	b580      	push	{r7, lr}
 80029b6:	b082      	sub	sp, #8
 80029b8:	af00      	add	r7, sp, #0
 80029ba:	6078      	str	r0, [r7, #4]
  /* Check the TIM handle allocation */
  if (htim == NULL)
 80029bc:	687b      	ldr	r3, [r7, #4]
 80029be:	2b00      	cmp	r3, #0
 80029c0:	d101      	bne.n	80029c6 <HAL_TIM_IC_Init+0x12>
  {
    return HAL_ERROR;
 80029c2:	2301      	movs	r3, #1
 80029c4:	e041      	b.n	8002a4a <HAL_TIM_IC_Init+0x96>
  assert_param(IS_TIM_INSTANCE(htim->Instance));
  assert_param(IS_TIM_COUNTER_MODE(htim->Init.CounterMode));
  assert_param(IS_TIM_CLOCKDIVISION_DIV(htim->Init.ClockDivision));
  assert_param(IS_TIM_AUTORELOAD_PRELOAD(htim->Init.AutoReloadPreload));

  if (htim->State == HAL_TIM_STATE_RESET)
 80029c6:	687b      	ldr	r3, [r7, #4]
 80029c8:	f893 303d 	ldrb.w	r3, [r3, #61]	; 0x3d
 80029cc:	b2db      	uxtb	r3, r3
 80029ce:	2b00      	cmp	r3, #0
 80029d0:	d106      	bne.n	80029e0 <HAL_TIM_IC_Init+0x2c>
  {
    /* Allocate lock resource and initialize it */
    htim->Lock = HAL_UNLOCKED;
 80029d2:	687b      	ldr	r3, [r7, #4]
 80029d4:	2200      	movs	r2, #0
 80029d6:	f883 203c 	strb.w	r2, [r3, #60]	; 0x3c
    }
    /* Init the low level hardware : GPIO, CLOCK, NVIC */
    htim->IC_MspInitCallback(htim);
#else
    /* Init the low level hardware : GPIO, CLOCK, NVIC and DMA */
    HAL_TIM_IC_MspInit(htim);
 80029da:	6878      	ldr	r0, [r7, #4]
 80029dc:	f000 f839 	bl	8002a52 <HAL_TIM_IC_MspInit>
#endif /* USE_HAL_TIM_REGISTER_CALLBACKS */
  }

  /* Set the TIM state */
  htim->State = HAL_TIM_STATE_BUSY;
 80029e0:	687b      	ldr	r3, [r7, #4]
 80029e2:	2202      	movs	r2, #2
 80029e4:	f883 203d 	strb.w	r2, [r3, #61]	; 0x3d

  /* Init the base time for the input capture */
  TIM_Base_SetConfig(htim->Instance, &htim->Init);
 80029e8:	687b      	ldr	r3, [r7, #4]
 80029ea:	681a      	ldr	r2, [r3, #0]
 80029ec:	687b      	ldr	r3, [r7, #4]
 80029ee:	3304      	adds	r3, #4
 80029f0:	4619      	mov	r1, r3
 80029f2:	4610      	mov	r0, r2
 80029f4:	f000 fbfe 	bl	80031f4 <TIM_Base_SetConfig>

  /* Initialize the DMA burst operation state */
  htim->DMABurstState = HAL_DMA_BURST_STATE_READY;
 80029f8:	687b      	ldr	r3, [r7, #4]
 80029fa:	2201      	movs	r2, #1
 80029fc:	f883 2046 	strb.w	r2, [r3, #70]	; 0x46

  /* Initialize the TIM channels state */
  TIM_CHANNEL_STATE_SET_ALL(htim, HAL_TIM_CHANNEL_STATE_READY);
 8002a00:	687b      	ldr	r3, [r7, #4]
 8002a02:	2201      	movs	r2, #1
 8002a04:	f883 203e 	strb.w	r2, [r3, #62]	; 0x3e
 8002a08:	687b      	ldr	r3, [r7, #4]
 8002a0a:	2201      	movs	r2, #1
 8002a0c:	f883 203f 	strb.w	r2, [r3, #63]	; 0x3f
 8002a10:	687b      	ldr	r3, [r7, #4]
 8002a12:	2201      	movs	r2, #1
 8002a14:	f883 2040 	strb.w	r2, [r3, #64]	; 0x40
 8002a18:	687b      	ldr	r3, [r7, #4]
 8002a1a:	2201      	movs	r2, #1
 8002a1c:	f883 2041 	strb.w	r2, [r3, #65]	; 0x41
  TIM_CHANNEL_N_STATE_SET_ALL(htim, HAL_TIM_CHANNEL_STATE_READY);
 8002a20:	687b      	ldr	r3, [r7, #4]
 8002a22:	2201      	movs	r2, #1
 8002a24:	f883 2042 	strb.w	r2, [r3, #66]	; 0x42
 8002a28:	687b      	ldr	r3, [r7, #4]
 8002a2a:	2201      	movs	r2, #1
 8002a2c:	f883 2043 	strb.w	r2, [r3, #67]	; 0x43
 8002a30:	687b      	ldr	r3, [r7, #4]
 8002a32:	2201      	movs	r2, #1
 8002a34:	f883 2044 	strb.w	r2, [r3, #68]	; 0x44
 8002a38:	687b      	ldr	r3, [r7, #4]
 8002a3a:	2201      	movs	r2, #1
 8002a3c:	f883 2045 	strb.w	r2, [r3, #69]	; 0x45

  /* Initialize the TIM state*/
  htim->State = HAL_TIM_STATE_READY;
 8002a40:	687b      	ldr	r3, [r7, #4]
 8002a42:	2201      	movs	r2, #1
 8002a44:	f883 203d 	strb.w	r2, [r3, #61]	; 0x3d

  return HAL_OK;
 8002a48:	2300      	movs	r3, #0
}
 8002a4a:	4618      	mov	r0, r3
 8002a4c:	3708      	adds	r7, #8
 8002a4e:	46bd      	mov	sp, r7
 8002a50:	bd80      	pop	{r7, pc}

08002a52 <HAL_TIM_IC_MspInit>:
  * @brief  Initializes the TIM Input Capture MSP.
  * @param  htim TIM Input Capture handle
  * @retval None
  */
__weak void HAL_TIM_IC_MspInit(TIM_HandleTypeDef *htim)
{
 8002a52:	b480      	push	{r7}
 8002a54:	b083      	sub	sp, #12
 8002a56:	af00      	add	r7, sp, #0
 8002a58:	6078      	str	r0, [r7, #4]
  UNUSED(htim);

  /* NOTE : This function should not be modified, when the callback is needed,
            the HAL_TIM_IC_MspInit could be implemented in the user file
   */
}
 8002a5a:	bf00      	nop
 8002a5c:	370c      	adds	r7, #12
 8002a5e:	46bd      	mov	sp, r7
 8002a60:	f85d 7b04 	ldr.w	r7, [sp], #4
 8002a64:	4770      	bx	lr
	...

08002a68 <HAL_TIM_IC_Start_IT>:
  *            @arg TIM_CHANNEL_3: TIM Channel 3 selected
  *            @arg TIM_CHANNEL_4: TIM Channel 4 selected
  * @retval HAL status
  */
HAL_StatusTypeDef HAL_TIM_IC_Start_IT(TIM_HandleTypeDef *htim, uint32_t Channel)
{
 8002a68:	b580      	push	{r7, lr}
 8002a6a:	b084      	sub	sp, #16
 8002a6c:	af00      	add	r7, sp, #0
 8002a6e:	6078      	str	r0, [r7, #4]
 8002a70:	6039      	str	r1, [r7, #0]
  HAL_StatusTypeDef status = HAL_OK;
 8002a72:	2300      	movs	r3, #0
 8002a74:	73fb      	strb	r3, [r7, #15]
  uint32_t tmpsmcr;

  HAL_TIM_ChannelStateTypeDef channel_state = TIM_CHANNEL_STATE_GET(htim, Channel);
 8002a76:	683b      	ldr	r3, [r7, #0]
 8002a78:	2b00      	cmp	r3, #0
 8002a7a:	d104      	bne.n	8002a86 <HAL_TIM_IC_Start_IT+0x1e>
 8002a7c:	687b      	ldr	r3, [r7, #4]
 8002a7e:	f893 303e 	ldrb.w	r3, [r3, #62]	; 0x3e
 8002a82:	b2db      	uxtb	r3, r3
 8002a84:	e013      	b.n	8002aae <HAL_TIM_IC_Start_IT+0x46>
 8002a86:	683b      	ldr	r3, [r7, #0]
 8002a88:	2b04      	cmp	r3, #4
 8002a8a:	d104      	bne.n	8002a96 <HAL_TIM_IC_Start_IT+0x2e>
 8002a8c:	687b      	ldr	r3, [r7, #4]
 8002a8e:	f893 303f 	ldrb.w	r3, [r3, #63]	; 0x3f
 8002a92:	b2db      	uxtb	r3, r3
 8002a94:	e00b      	b.n	8002aae <HAL_TIM_IC_Start_IT+0x46>
 8002a96:	683b      	ldr	r3, [r7, #0]
 8002a98:	2b08      	cmp	r3, #8
 8002a9a:	d104      	bne.n	8002aa6 <HAL_TIM_IC_Start_IT+0x3e>
 8002a9c:	687b      	ldr	r3, [r7, #4]
 8002a9e:	f893 3040 	ldrb.w	r3, [r3, #64]	; 0x40
 8002aa2:	b2db      	uxtb	r3, r3
 8002aa4:	e003      	b.n	8002aae <HAL_TIM_IC_Start_IT+0x46>
 8002aa6:	687b      	ldr	r3, [r7, #4]
 8002aa8:	f893 3041 	ldrb.w	r3, [r3, #65]	; 0x41
 8002aac:	b2db      	uxtb	r3, r3
 8002aae:	73bb      	strb	r3, [r7, #14]
  HAL_TIM_ChannelStateTypeDef complementary_channel_state = TIM_CHANNEL_N_STATE_GET(htim, Channel);
 8002ab0:	683b      	ldr	r3, [r7, #0]
 8002ab2:	2b00      	cmp	r3, #0
 8002ab4:	d104      	bne.n	8002ac0 <HAL_TIM_IC_Start_IT+0x58>
 8002ab6:	687b      	ldr	r3, [r7, #4]
 8002ab8:	f893 3042 	ldrb.w	r3, [r3, #66]	; 0x42
 8002abc:	b2db      	uxtb	r3, r3
 8002abe:	e013      	b.n	8002ae8 <HAL_TIM_IC_Start_IT+0x80>
 8002ac0:	683b      	ldr	r3, [r7, #0]
 8002ac2:	2b04      	cmp	r3, #4
 8002ac4:	d104      	bne.n	8002ad0 <HAL_TIM_IC_Start_IT+0x68>
 8002ac6:	687b      	ldr	r3, [r7, #4]
 8002ac8:	f893 3043 	ldrb.w	r3, [r3, #67]	; 0x43
 8002acc:	b2db      	uxtb	r3, r3
 8002ace:	e00b      	b.n	8002ae8 <HAL_TIM_IC_Start_IT+0x80>
 8002ad0:	683b      	ldr	r3, [r7, #0]
 8002ad2:	2b08      	cmp	r3, #8
 8002ad4:	d104      	bne.n	8002ae0 <HAL_TIM_IC_Start_IT+0x78>
 8002ad6:	687b      	ldr	r3, [r7, #4]
 8002ad8:	f893 3044 	ldrb.w	r3, [r3, #68]	; 0x44
 8002adc:	b2db      	uxtb	r3, r3
 8002ade:	e003      	b.n	8002ae8 <HAL_TIM_IC_Start_IT+0x80>
 8002ae0:	687b      	ldr	r3, [r7, #4]
 8002ae2:	f893 3045 	ldrb.w	r3, [r3, #69]	; 0x45
 8002ae6:	b2db      	uxtb	r3, r3
 8002ae8:	737b      	strb	r3, [r7, #13]

  /* Check the parameters */
  assert_param(IS_TIM_CCX_INSTANCE(htim->Instance, Channel));

  /* Check the TIM channel state */
  if ((channel_state != HAL_TIM_CHANNEL_STATE_READY)
 8002aea:	7bbb      	ldrb	r3, [r7, #14]
 8002aec:	2b01      	cmp	r3, #1
 8002aee:	d102      	bne.n	8002af6 <HAL_TIM_IC_Start_IT+0x8e>
      || (complementary_channel_state != HAL_TIM_CHANNEL_STATE_READY))
 8002af0:	7b7b      	ldrb	r3, [r7, #13]
 8002af2:	2b01      	cmp	r3, #1
 8002af4:	d001      	beq.n	8002afa <HAL_TIM_IC_Start_IT+0x92>
  {
    return HAL_ERROR;
 8002af6:	2301      	movs	r3, #1
 8002af8:	e0cc      	b.n	8002c94 <HAL_TIM_IC_Start_IT+0x22c>
  }

  /* Set the TIM channel state */
  TIM_CHANNEL_STATE_SET(htim, Channel, HAL_TIM_CHANNEL_STATE_BUSY);
 8002afa:	683b      	ldr	r3, [r7, #0]
 8002afc:	2b00      	cmp	r3, #0
 8002afe:	d104      	bne.n	8002b0a <HAL_TIM_IC_Start_IT+0xa2>
 8002b00:	687b      	ldr	r3, [r7, #4]
 8002b02:	2202      	movs	r2, #2
 8002b04:	f883 203e 	strb.w	r2, [r3, #62]	; 0x3e
 8002b08:	e013      	b.n	8002b32 <HAL_TIM_IC_Start_IT+0xca>
 8002b0a:	683b      	ldr	r3, [r7, #0]
 8002b0c:	2b04      	cmp	r3, #4
 8002b0e:	d104      	bne.n	8002b1a <HAL_TIM_IC_Start_IT+0xb2>
 8002b10:	687b      	ldr	r3, [r7, #4]
 8002b12:	2202      	movs	r2, #2
 8002b14:	f883 203f 	strb.w	r2, [r3, #63]	; 0x3f
 8002b18:	e00b      	b.n	8002b32 <HAL_TIM_IC_Start_IT+0xca>
 8002b1a:	683b      	ldr	r3, [r7, #0]
 8002b1c:	2b08      	cmp	r3, #8
 8002b1e:	d104      	bne.n	8002b2a <HAL_TIM_IC_Start_IT+0xc2>
 8002b20:	687b      	ldr	r3, [r7, #4]
 8002b22:	2202      	movs	r2, #2
 8002b24:	f883 2040 	strb.w	r2, [r3, #64]	; 0x40
 8002b28:	e003      	b.n	8002b32 <HAL_TIM_IC_Start_IT+0xca>
 8002b2a:	687b      	ldr	r3, [r7, #4]
 8002b2c:	2202      	movs	r2, #2
 8002b2e:	f883 2041 	strb.w	r2, [r3, #65]	; 0x41
  TIM_CHANNEL_N_STATE_SET(htim, Channel, HAL_TIM_CHANNEL_STATE_BUSY);
 8002b32:	683b      	ldr	r3, [r7, #0]
 8002b34:	2b00      	cmp	r3, #0
 8002b36:	d104      	bne.n	8002b42 <HAL_TIM_IC_Start_IT+0xda>
 8002b38:	687b      	ldr	r3, [r7, #4]
 8002b3a:	2202      	movs	r2, #2
 8002b3c:	f883 2042 	strb.w	r2, [r3, #66]	; 0x42
 8002b40:	e013      	b.n	8002b6a <HAL_TIM_IC_Start_IT+0x102>
 8002b42:	683b      	ldr	r3, [r7, #0]
 8002b44:	2b04      	cmp	r3, #4
 8002b46:	d104      	bne.n	8002b52 <HAL_TIM_IC_Start_IT+0xea>
 8002b48:	687b      	ldr	r3, [r7, #4]
 8002b4a:	2202      	movs	r2, #2
 8002b4c:	f883 2043 	strb.w	r2, [r3, #67]	; 0x43
 8002b50:	e00b      	b.n	8002b6a <HAL_TIM_IC_Start_IT+0x102>
 8002b52:	683b      	ldr	r3, [r7, #0]
 8002b54:	2b08      	cmp	r3, #8
 8002b56:	d104      	bne.n	8002b62 <HAL_TIM_IC_Start_IT+0xfa>
 8002b58:	687b      	ldr	r3, [r7, #4]
 8002b5a:	2202      	movs	r2, #2
 8002b5c:	f883 2044 	strb.w	r2, [r3, #68]	; 0x44
 8002b60:	e003      	b.n	8002b6a <HAL_TIM_IC_Start_IT+0x102>
 8002b62:	687b      	ldr	r3, [r7, #4]
 8002b64:	2202      	movs	r2, #2
 8002b66:	f883 2045 	strb.w	r2, [r3, #69]	; 0x45
 8002b6a:	683b      	ldr	r3, [r7, #0]
 8002b6c:	2b0c      	cmp	r3, #12
 8002b6e:	d841      	bhi.n	8002bf4 <HAL_TIM_IC_Start_IT+0x18c>
 8002b70:	a201      	add	r2, pc, #4	; (adr r2, 8002b78 <HAL_TIM_IC_Start_IT+0x110>)
 8002b72:	f852 f023 	ldr.w	pc, [r2, r3, lsl #2]
 8002b76:	bf00      	nop
 8002b78:	08002bad 	.word	0x08002bad
 8002b7c:	08002bf5 	.word	0x08002bf5
 8002b80:	08002bf5 	.word	0x08002bf5
 8002b84:	08002bf5 	.word	0x08002bf5
 8002b88:	08002bbf 	.word	0x08002bbf
 8002b8c:	08002bf5 	.word	0x08002bf5
 8002b90:	08002bf5 	.word	0x08002bf5
 8002b94:	08002bf5 	.word	0x08002bf5
 8002b98:	08002bd1 	.word	0x08002bd1
 8002b9c:	08002bf5 	.word	0x08002bf5
 8002ba0:	08002bf5 	.word	0x08002bf5
 8002ba4:	08002bf5 	.word	0x08002bf5
 8002ba8:	08002be3 	.word	0x08002be3
  switch (Channel)
  {
    case TIM_CHANNEL_1:
    {
      /* Enable the TIM Capture/Compare 1 interrupt */
      __HAL_TIM_ENABLE_IT(htim, TIM_IT_CC1);
 8002bac:	687b      	ldr	r3, [r7, #4]
 8002bae:	681b      	ldr	r3, [r3, #0]
 8002bb0:	68da      	ldr	r2, [r3, #12]
 8002bb2:	687b      	ldr	r3, [r7, #4]
 8002bb4:	681b      	ldr	r3, [r3, #0]
 8002bb6:	f042 0202 	orr.w	r2, r2, #2
 8002bba:	60da      	str	r2, [r3, #12]
      break;
 8002bbc:	e01d      	b.n	8002bfa <HAL_TIM_IC_Start_IT+0x192>
    }

    case TIM_CHANNEL_2:
    {
      /* Enable the TIM Capture/Compare 2 interrupt */
      __HAL_TIM_ENABLE_IT(htim, TIM_IT_CC2);
 8002bbe:	687b      	ldr	r3, [r7, #4]
 8002bc0:	681b      	ldr	r3, [r3, #0]
 8002bc2:	68da      	ldr	r2, [r3, #12]
 8002bc4:	687b      	ldr	r3, [r7, #4]
 8002bc6:	681b      	ldr	r3, [r3, #0]
 8002bc8:	f042 0204 	orr.w	r2, r2, #4
 8002bcc:	60da      	str	r2, [r3, #12]
      break;
 8002bce:	e014      	b.n	8002bfa <HAL_TIM_IC_Start_IT+0x192>
    }

    case TIM_CHANNEL_3:
    {
      /* Enable the TIM Capture/Compare 3 interrupt */
      __HAL_TIM_ENABLE_IT(htim, TIM_IT_CC3);
 8002bd0:	687b      	ldr	r3, [r7, #4]
 8002bd2:	681b      	ldr	r3, [r3, #0]
 8002bd4:	68da      	ldr	r2, [r3, #12]
 8002bd6:	687b      	ldr	r3, [r7, #4]
 8002bd8:	681b      	ldr	r3, [r3, #0]
 8002bda:	f042 0208 	orr.w	r2, r2, #8
 8002bde:	60da      	str	r2, [r3, #12]
      break;
 8002be0:	e00b      	b.n	8002bfa <HAL_TIM_IC_Start_IT+0x192>
    }

    case TIM_CHANNEL_4:
    {
      /* Enable the TIM Capture/Compare 4 interrupt */
      __HAL_TIM_ENABLE_IT(htim, TIM_IT_CC4);
 8002be2:	687b      	ldr	r3, [r7, #4]
 8002be4:	681b      	ldr	r3, [r3, #0]
 8002be6:	68da      	ldr	r2, [r3, #12]
 8002be8:	687b      	ldr	r3, [r7, #4]
 8002bea:	681b      	ldr	r3, [r3, #0]
 8002bec:	f042 0210 	orr.w	r2, r2, #16
 8002bf0:	60da      	str	r2, [r3, #12]
      break;
 8002bf2:	e002      	b.n	8002bfa <HAL_TIM_IC_Start_IT+0x192>
    }

    default:
      status = HAL_ERROR;
 8002bf4:	2301      	movs	r3, #1
 8002bf6:	73fb      	strb	r3, [r7, #15]
      break;
 8002bf8:	bf00      	nop
  }

  if (status == HAL_OK)
 8002bfa:	7bfb      	ldrb	r3, [r7, #15]
 8002bfc:	2b00      	cmp	r3, #0
 8002bfe:	d148      	bne.n	8002c92 <HAL_TIM_IC_Start_IT+0x22a>
  {
    /* Enable the Input Capture channel */
    TIM_CCxChannelCmd(htim->Instance, Channel, TIM_CCx_ENABLE);
 8002c00:	687b      	ldr	r3, [r7, #4]
 8002c02:	681b      	ldr	r3, [r3, #0]
 8002c04:	2201      	movs	r2, #1
 8002c06:	6839      	ldr	r1, [r7, #0]
 8002c08:	4618      	mov	r0, r3
 8002c0a:	f000 fd57 	bl	80036bc <TIM_CCxChannelCmd>

    /* Enable the Peripheral, except in trigger mode where enable is automatically done with trigger */
    if (IS_TIM_SLAVE_INSTANCE(htim->Instance))
 8002c0e:	687b      	ldr	r3, [r7, #4]
 8002c10:	681b      	ldr	r3, [r3, #0]
 8002c12:	4a22      	ldr	r2, [pc, #136]	; (8002c9c <HAL_TIM_IC_Start_IT+0x234>)
 8002c14:	4293      	cmp	r3, r2
 8002c16:	d022      	beq.n	8002c5e <HAL_TIM_IC_Start_IT+0x1f6>
 8002c18:	687b      	ldr	r3, [r7, #4]
 8002c1a:	681b      	ldr	r3, [r3, #0]
 8002c1c:	f1b3 4f80 	cmp.w	r3, #1073741824	; 0x40000000
 8002c20:	d01d      	beq.n	8002c5e <HAL_TIM_IC_Start_IT+0x1f6>
 8002c22:	687b      	ldr	r3, [r7, #4]
 8002c24:	681b      	ldr	r3, [r3, #0]
 8002c26:	4a1e      	ldr	r2, [pc, #120]	; (8002ca0 <HAL_TIM_IC_Start_IT+0x238>)
 8002c28:	4293      	cmp	r3, r2
 8002c2a:	d018      	beq.n	8002c5e <HAL_TIM_IC_Start_IT+0x1f6>
 8002c2c:	687b      	ldr	r3, [r7, #4]
 8002c2e:	681b      	ldr	r3, [r3, #0]
 8002c30:	4a1c      	ldr	r2, [pc, #112]	; (8002ca4 <HAL_TIM_IC_Start_IT+0x23c>)
 8002c32:	4293      	cmp	r3, r2
 8002c34:	d013      	beq.n	8002c5e <HAL_TIM_IC_Start_IT+0x1f6>
 8002c36:	687b      	ldr	r3, [r7, #4]
 8002c38:	681b      	ldr	r3, [r3, #0]
 8002c3a:	4a1b      	ldr	r2, [pc, #108]	; (8002ca8 <HAL_TIM_IC_Start_IT+0x240>)
 8002c3c:	4293      	cmp	r3, r2
 8002c3e:	d00e      	beq.n	8002c5e <HAL_TIM_IC_Start_IT+0x1f6>
 8002c40:	687b      	ldr	r3, [r7, #4]
 8002c42:	681b      	ldr	r3, [r3, #0]
 8002c44:	4a19      	ldr	r2, [pc, #100]	; (8002cac <HAL_TIM_IC_Start_IT+0x244>)
 8002c46:	4293      	cmp	r3, r2
 8002c48:	d009      	beq.n	8002c5e <HAL_TIM_IC_Start_IT+0x1f6>
 8002c4a:	687b      	ldr	r3, [r7, #4]
 8002c4c:	681b      	ldr	r3, [r3, #0]
 8002c4e:	4a18      	ldr	r2, [pc, #96]	; (8002cb0 <HAL_TIM_IC_Start_IT+0x248>)
 8002c50:	4293      	cmp	r3, r2
 8002c52:	d004      	beq.n	8002c5e <HAL_TIM_IC_Start_IT+0x1f6>
 8002c54:	687b      	ldr	r3, [r7, #4]
 8002c56:	681b      	ldr	r3, [r3, #0]
 8002c58:	4a16      	ldr	r2, [pc, #88]	; (8002cb4 <HAL_TIM_IC_Start_IT+0x24c>)
 8002c5a:	4293      	cmp	r3, r2
 8002c5c:	d111      	bne.n	8002c82 <HAL_TIM_IC_Start_IT+0x21a>
    {
      tmpsmcr = htim->Instance->SMCR & TIM_SMCR_SMS;
 8002c5e:	687b      	ldr	r3, [r7, #4]
 8002c60:	681b      	ldr	r3, [r3, #0]
 8002c62:	689b      	ldr	r3, [r3, #8]
 8002c64:	f003 0307 	and.w	r3, r3, #7
 8002c68:	60bb      	str	r3, [r7, #8]
      if (!IS_TIM_SLAVEMODE_TRIGGER_ENABLED(tmpsmcr))
 8002c6a:	68bb      	ldr	r3, [r7, #8]
 8002c6c:	2b06      	cmp	r3, #6
 8002c6e:	d010      	beq.n	8002c92 <HAL_TIM_IC_Start_IT+0x22a>
      {
        __HAL_TIM_ENABLE(htim);
 8002c70:	687b      	ldr	r3, [r7, #4]
 8002c72:	681b      	ldr	r3, [r3, #0]
 8002c74:	681a      	ldr	r2, [r3, #0]
 8002c76:	687b      	ldr	r3, [r7, #4]
 8002c78:	681b      	ldr	r3, [r3, #0]
 8002c7a:	f042 0201 	orr.w	r2, r2, #1
 8002c7e:	601a      	str	r2, [r3, #0]
      if (!IS_TIM_SLAVEMODE_TRIGGER_ENABLED(tmpsmcr))
 8002c80:	e007      	b.n	8002c92 <HAL_TIM_IC_Start_IT+0x22a>
      }
    }
    else
    {
      __HAL_TIM_ENABLE(htim);
 8002c82:	687b      	ldr	r3, [r7, #4]
 8002c84:	681b      	ldr	r3, [r3, #0]
 8002c86:	681a      	ldr	r2, [r3, #0]
 8002c88:	687b      	ldr	r3, [r7, #4]
 8002c8a:	681b      	ldr	r3, [r3, #0]
 8002c8c:	f042 0201 	orr.w	r2, r2, #1
 8002c90:	601a      	str	r2, [r3, #0]
    }
  }

  /* Return function status */
  return status;
 8002c92:	7bfb      	ldrb	r3, [r7, #15]
}
 8002c94:	4618      	mov	r0, r3
 8002c96:	3710      	adds	r7, #16
 8002c98:	46bd      	mov	sp, r7
 8002c9a:	bd80      	pop	{r7, pc}
 8002c9c:	40010000 	.word	0x40010000
 8002ca0:	40000400 	.word	0x40000400
 8002ca4:	40000800 	.word	0x40000800
 8002ca8:	40000c00 	.word	0x40000c00
 8002cac:	40010400 	.word	0x40010400
 8002cb0:	40014000 	.word	0x40014000
 8002cb4:	40001800 	.word	0x40001800

08002cb8 <HAL_TIM_IRQHandler>:
  * @brief  This function handles TIM interrupts requests.
  * @param  htim TIM  handle
  * @retval None
  */
void HAL_TIM_IRQHandler(TIM_HandleTypeDef *htim)
{
 8002cb8:	b580      	push	{r7, lr}
 8002cba:	b082      	sub	sp, #8
 8002cbc:	af00      	add	r7, sp, #0
 8002cbe:	6078      	str	r0, [r7, #4]
  /* Capture compare 1 event */
  if (__HAL_TIM_GET_FLAG(htim, TIM_FLAG_CC1) != RESET)
 8002cc0:	687b      	ldr	r3, [r7, #4]
 8002cc2:	681b      	ldr	r3, [r3, #0]
 8002cc4:	691b      	ldr	r3, [r3, #16]
 8002cc6:	f003 0302 	and.w	r3, r3, #2
 8002cca:	2b02      	cmp	r3, #2
 8002ccc:	d122      	bne.n	8002d14 <HAL_TIM_IRQHandler+0x5c>
  {
    if (__HAL_TIM_GET_IT_SOURCE(htim, TIM_IT_CC1) != RESET)
 8002cce:	687b      	ldr	r3, [r7, #4]
 8002cd0:	681b      	ldr	r3, [r3, #0]
 8002cd2:	68db      	ldr	r3, [r3, #12]
 8002cd4:	f003 0302 	and.w	r3, r3, #2
 8002cd8:	2b02      	cmp	r3, #2
 8002cda:	d11b      	bne.n	8002d14 <HAL_TIM_IRQHandler+0x5c>
    {
      {
        __HAL_TIM_CLEAR_IT(htim, TIM_IT_CC1);
 8002cdc:	687b      	ldr	r3, [r7, #4]
 8002cde:	681b      	ldr	r3, [r3, #0]
 8002ce0:	f06f 0202 	mvn.w	r2, #2
 8002ce4:	611a      	str	r2, [r3, #16]
        htim->Channel = HAL_TIM_ACTIVE_CHANNEL_1;
 8002ce6:	687b      	ldr	r3, [r7, #4]
 8002ce8:	2201      	movs	r2, #1
 8002cea:	771a      	strb	r2, [r3, #28]

        /* Input capture event */
        if ((htim->Instance->CCMR1 & TIM_CCMR1_CC1S) != 0x00U)
 8002cec:	687b      	ldr	r3, [r7, #4]
 8002cee:	681b      	ldr	r3, [r3, #0]
 8002cf0:	699b      	ldr	r3, [r3, #24]
 8002cf2:	f003 0303 	and.w	r3, r3, #3
 8002cf6:	2b00      	cmp	r3, #0
 8002cf8:	d003      	beq.n	8002d02 <HAL_TIM_IRQHandler+0x4a>
        {
#if (USE_HAL_TIM_REGISTER_CALLBACKS == 1)
          htim->IC_CaptureCallback(htim);
#else
          HAL_TIM_IC_CaptureCallback(htim);
 8002cfa:	6878      	ldr	r0, [r7, #4]
 8002cfc:	f000 fa5b 	bl	80031b6 <HAL_TIM_IC_CaptureCallback>
 8002d00:	e005      	b.n	8002d0e <HAL_TIM_IRQHandler+0x56>
        {
#if (USE_HAL_TIM_REGISTER_CALLBACKS == 1)
          htim->OC_DelayElapsedCallback(htim);
          htim->PWM_PulseFinishedCallback(htim);
#else
          HAL_TIM_OC_DelayElapsedCallback(htim);
 8002d02:	6878      	ldr	r0, [r7, #4]
 8002d04:	f000 fa4d 	bl	80031a2 <HAL_TIM_OC_DelayElapsedCallback>
          HAL_TIM_PWM_PulseFinishedCallback(htim);
 8002d08:	6878      	ldr	r0, [r7, #4]
 8002d0a:	f000 fa5e 	bl	80031ca <HAL_TIM_PWM_PulseFinishedCallback>
#endif /* USE_HAL_TIM_REGISTER_CALLBACKS */
        }
        htim->Channel = HAL_TIM_ACTIVE_CHANNEL_CLEARED;
 8002d0e:	687b      	ldr	r3, [r7, #4]
 8002d10:	2200      	movs	r2, #0
 8002d12:	771a      	strb	r2, [r3, #28]
      }
    }
  }
  /* Capture compare 2 event */
  if (__HAL_TIM_GET_FLAG(htim, TIM_FLAG_CC2) != RESET)
 8002d14:	687b      	ldr	r3, [r7, #4]
 8002d16:	681b      	ldr	r3, [r3, #0]
 8002d18:	691b      	ldr	r3, [r3, #16]
 8002d1a:	f003 0304 	and.w	r3, r3, #4
 8002d1e:	2b04      	cmp	r3, #4
 8002d20:	d122      	bne.n	8002d68 <HAL_TIM_IRQHandler+0xb0>
  {
    if (__HAL_TIM_GET_IT_SOURCE(htim, TIM_IT_CC2) != RESET)
 8002d22:	687b      	ldr	r3, [r7, #4]
 8002d24:	681b      	ldr	r3, [r3, #0]
 8002d26:	68db      	ldr	r3, [r3, #12]
 8002d28:	f003 0304 	and.w	r3, r3, #4
 8002d2c:	2b04      	cmp	r3, #4
 8002d2e:	d11b      	bne.n	8002d68 <HAL_TIM_IRQHandler+0xb0>
    {
      __HAL_TIM_CLEAR_IT(htim, TIM_IT_CC2);
 8002d30:	687b      	ldr	r3, [r7, #4]
 8002d32:	681b      	ldr	r3, [r3, #0]
 8002d34:	f06f 0204 	mvn.w	r2, #4
 8002d38:	611a      	str	r2, [r3, #16]
      htim->Channel = HAL_TIM_ACTIVE_CHANNEL_2;
 8002d3a:	687b      	ldr	r3, [r7, #4]
 8002d3c:	2202      	movs	r2, #2
 8002d3e:	771a      	strb	r2, [r3, #28]
      /* Input capture event */
      if ((htim->Instance->CCMR1 & TIM_CCMR1_CC2S) != 0x00U)
 8002d40:	687b      	ldr	r3, [r7, #4]
 8002d42:	681b      	ldr	r3, [r3, #0]
 8002d44:	699b      	ldr	r3, [r3, #24]
 8002d46:	f403 7340 	and.w	r3, r3, #768	; 0x300
 8002d4a:	2b00      	cmp	r3, #0
 8002d4c:	d003      	beq.n	8002d56 <HAL_TIM_IRQHandler+0x9e>
      {
#if (USE_HAL_TIM_REGISTER_CALLBACKS == 1)
        htim->IC_CaptureCallback(htim);
#else
        HAL_TIM_IC_CaptureCallback(htim);
 8002d4e:	6878      	ldr	r0, [r7, #4]
 8002d50:	f000 fa31 	bl	80031b6 <HAL_TIM_IC_CaptureCallback>
 8002d54:	e005      	b.n	8002d62 <HAL_TIM_IRQHandler+0xaa>
      {
#if (USE_HAL_TIM_REGISTER_CALLBACKS == 1)
        htim->OC_DelayElapsedCallback(htim);
        htim->PWM_PulseFinishedCallback(htim);
#else
        HAL_TIM_OC_DelayElapsedCallback(htim);
 8002d56:	6878      	ldr	r0, [r7, #4]
 8002d58:	f000 fa23 	bl	80031a2 <HAL_TIM_OC_DelayElapsedCallback>
        HAL_TIM_PWM_PulseFinishedCallback(htim);
 8002d5c:	6878      	ldr	r0, [r7, #4]
 8002d5e:	f000 fa34 	bl	80031ca <HAL_TIM_PWM_PulseFinishedCallback>
#endif /* USE_HAL_TIM_REGISTER_CALLBACKS */
      }
      htim->Channel = HAL_TIM_ACTIVE_CHANNEL_CLEARED;
 8002d62:	687b      	ldr	r3, [r7, #4]
 8002d64:	2200      	movs	r2, #0
 8002d66:	771a      	strb	r2, [r3, #28]
    }
  }
  /* Capture compare 3 event */
  if (__HAL_TIM_GET_FLAG(htim, TIM_FLAG_CC3) != RESET)
 8002d68:	687b      	ldr	r3, [r7, #4]
 8002d6a:	681b      	ldr	r3, [r3, #0]
 8002d6c:	691b      	ldr	r3, [r3, #16]
 8002d6e:	f003 0308 	and.w	r3, r3, #8
 8002d72:	2b08      	cmp	r3, #8
 8002d74:	d122      	bne.n	8002dbc <HAL_TIM_IRQHandler+0x104>
  {
    if (__HAL_TIM_GET_IT_SOURCE(htim, TIM_IT_CC3) != RESET)
 8002d76:	687b      	ldr	r3, [r7, #4]
 8002d78:	681b      	ldr	r3, [r3, #0]
 8002d7a:	68db      	ldr	r3, [r3, #12]
 8002d7c:	f003 0308 	and.w	r3, r3, #8
 8002d80:	2b08      	cmp	r3, #8
 8002d82:	d11b      	bne.n	8002dbc <HAL_TIM_IRQHandler+0x104>
    {
      __HAL_TIM_CLEAR_IT(htim, TIM_IT_CC3);
 8002d84:	687b      	ldr	r3, [r7, #4]
 8002d86:	681b      	ldr	r3, [r3, #0]
 8002d88:	f06f 0208 	mvn.w	r2, #8
 8002d8c:	611a      	str	r2, [r3, #16]
      htim->Channel = HAL_TIM_ACTIVE_CHANNEL_3;
 8002d8e:	687b      	ldr	r3, [r7, #4]
 8002d90:	2204      	movs	r2, #4
 8002d92:	771a      	strb	r2, [r3, #28]
      /* Input capture event */
      if ((htim->Instance->CCMR2 & TIM_CCMR2_CC3S) != 0x00U)
 8002d94:	687b      	ldr	r3, [r7, #4]
 8002d96:	681b      	ldr	r3, [r3, #0]
 8002d98:	69db      	ldr	r3, [r3, #28]
 8002d9a:	f003 0303 	and.w	r3, r3, #3
 8002d9e:	2b00      	cmp	r3, #0
 8002da0:	d003      	beq.n	8002daa <HAL_TIM_IRQHandler+0xf2>
      {
#if (USE_HAL_TIM_REGISTER_CALLBACKS == 1)
        htim->IC_CaptureCallback(htim);
#else
        HAL_TIM_IC_CaptureCallback(htim);
 8002da2:	6878      	ldr	r0, [r7, #4]
 8002da4:	f000 fa07 	bl	80031b6 <HAL_TIM_IC_CaptureCallback>
 8002da8:	e005      	b.n	8002db6 <HAL_TIM_IRQHandler+0xfe>
      {
#if (USE_HAL_TIM_REGISTER_CALLBACKS == 1)
        htim->OC_DelayElapsedCallback(htim);
        htim->PWM_PulseFinishedCallback(htim);
#else
        HAL_TIM_OC_DelayElapsedCallback(htim);
 8002daa:	6878      	ldr	r0, [r7, #4]
 8002dac:	f000 f9f9 	bl	80031a2 <HAL_TIM_OC_DelayElapsedCallback>
        HAL_TIM_PWM_PulseFinishedCallback(htim);
 8002db0:	6878      	ldr	r0, [r7, #4]
 8002db2:	f000 fa0a 	bl	80031ca <HAL_TIM_PWM_PulseFinishedCallback>
#endif /* USE_HAL_TIM_REGISTER_CALLBACKS */
      }
      htim->Channel = HAL_TIM_ACTIVE_CHANNEL_CLEARED;
 8002db6:	687b      	ldr	r3, [r7, #4]
 8002db8:	2200      	movs	r2, #0
 8002dba:	771a      	strb	r2, [r3, #28]
    }
  }
  /* Capture compare 4 event */
  if (__HAL_TIM_GET_FLAG(htim, TIM_FLAG_CC4) != RESET)
 8002dbc:	687b      	ldr	r3, [r7, #4]
 8002dbe:	681b      	ldr	r3, [r3, #0]
 8002dc0:	691b      	ldr	r3, [r3, #16]
 8002dc2:	f003 0310 	and.w	r3, r3, #16
 8002dc6:	2b10      	cmp	r3, #16
 8002dc8:	d122      	bne.n	8002e10 <HAL_TIM_IRQHandler+0x158>
  {
    if (__HAL_TIM_GET_IT_SOURCE(htim, TIM_IT_CC4) != RESET)
 8002dca:	687b      	ldr	r3, [r7, #4]
 8002dcc:	681b      	ldr	r3, [r3, #0]
 8002dce:	68db      	ldr	r3, [r3, #12]
 8002dd0:	f003 0310 	and.w	r3, r3, #16
 8002dd4:	2b10      	cmp	r3, #16
 8002dd6:	d11b      	bne.n	8002e10 <HAL_TIM_IRQHandler+0x158>
    {
      __HAL_TIM_CLEAR_IT(htim, TIM_IT_CC4);
 8002dd8:	687b      	ldr	r3, [r7, #4]
 8002dda:	681b      	ldr	r3, [r3, #0]
 8002ddc:	f06f 0210 	mvn.w	r2, #16
 8002de0:	611a      	str	r2, [r3, #16]
      htim->Channel = HAL_TIM_ACTIVE_CHANNEL_4;
 8002de2:	687b      	ldr	r3, [r7, #4]
 8002de4:	2208      	movs	r2, #8
 8002de6:	771a      	strb	r2, [r3, #28]
      /* Input capture event */
      if ((htim->Instance->CCMR2 & TIM_CCMR2_CC4S) != 0x00U)
 8002de8:	687b      	ldr	r3, [r7, #4]
 8002dea:	681b      	ldr	r3, [r3, #0]
 8002dec:	69db      	ldr	r3, [r3, #28]
 8002dee:	f403 7340 	and.w	r3, r3, #768	; 0x300
 8002df2:	2b00      	cmp	r3, #0
 8002df4:	d003      	beq.n	8002dfe <HAL_TIM_IRQHandler+0x146>
      {
#if (USE_HAL_TIM_REGISTER_CALLBACKS == 1)
        htim->IC_CaptureCallback(htim);
#else
        HAL_TIM_IC_CaptureCallback(htim);
 8002df6:	6878      	ldr	r0, [r7, #4]
 8002df8:	f000 f9dd 	bl	80031b6 <HAL_TIM_IC_CaptureCallback>
 8002dfc:	e005      	b.n	8002e0a <HAL_TIM_IRQHandler+0x152>
      {
#if (USE_HAL_TIM_REGISTER_CALLBACKS == 1)
        htim->OC_DelayElapsedCallback(htim);
        htim->PWM_PulseFinishedCallback(htim);
#else
        HAL_TIM_OC_DelayElapsedCallback(htim);
 8002dfe:	6878      	ldr	r0, [r7, #4]
 8002e00:	f000 f9cf 	bl	80031a2 <HAL_TIM_OC_DelayElapsedCallback>
        HAL_TIM_PWM_PulseFinishedCallback(htim);
 8002e04:	6878      	ldr	r0, [r7, #4]
 8002e06:	f000 f9e0 	bl	80031ca <HAL_TIM_PWM_PulseFinishedCallback>
#endif /* USE_HAL_TIM_REGISTER_CALLBACKS */
      }
      htim->Channel = HAL_TIM_ACTIVE_CHANNEL_CLEARED;
 8002e0a:	687b      	ldr	r3, [r7, #4]
 8002e0c:	2200      	movs	r2, #0
 8002e0e:	771a      	strb	r2, [r3, #28]
    }
  }
  /* TIM Update event */
  if (__HAL_TIM_GET_FLAG(htim, TIM_FLAG_UPDATE) != RESET)
 8002e10:	687b      	ldr	r3, [r7, #4]
 8002e12:	681b      	ldr	r3, [r3, #0]
 8002e14:	691b      	ldr	r3, [r3, #16]
 8002e16:	f003 0301 	and.w	r3, r3, #1
 8002e1a:	2b01      	cmp	r3, #1
 8002e1c:	d10e      	bne.n	8002e3c <HAL_TIM_IRQHandler+0x184>
  {
    if (__HAL_TIM_GET_IT_SOURCE(htim, TIM_IT_UPDATE) != RESET)
 8002e1e:	687b      	ldr	r3, [r7, #4]
 8002e20:	681b      	ldr	r3, [r3, #0]
 8002e22:	68db      	ldr	r3, [r3, #12]
 8002e24:	f003 0301 	and.w	r3, r3, #1
 8002e28:	2b01      	cmp	r3, #1
 8002e2a:	d107      	bne.n	8002e3c <HAL_TIM_IRQHandler+0x184>
    {
      __HAL_TIM_CLEAR_IT(htim, TIM_IT_UPDATE);
 8002e2c:	687b      	ldr	r3, [r7, #4]
 8002e2e:	681b      	ldr	r3, [r3, #0]
 8002e30:	f06f 0201 	mvn.w	r2, #1
 8002e34:	611a      	str	r2, [r3, #16]
#if (USE_HAL_TIM_REGISTER_CALLBACKS == 1)
      htim->PeriodElapsedCallback(htim);
#else
      HAL_TIM_PeriodElapsedCallback(htim);
 8002e36:	6878      	ldr	r0, [r7, #4]
 8002e38:	f000 f9a9 	bl	800318e <HAL_TIM_PeriodElapsedCallback>
#endif /* USE_HAL_TIM_REGISTER_CALLBACKS */
    }
  }
  /* TIM Break input event */
  if (__HAL_TIM_GET_FLAG(htim, TIM_FLAG_BREAK) != RESET)
 8002e3c:	687b      	ldr	r3, [r7, #4]
 8002e3e:	681b      	ldr	r3, [r3, #0]
 8002e40:	691b      	ldr	r3, [r3, #16]
 8002e42:	f003 0380 	and.w	r3, r3, #128	; 0x80
 8002e46:	2b80      	cmp	r3, #128	; 0x80
 8002e48:	d10e      	bne.n	8002e68 <HAL_TIM_IRQHandler+0x1b0>
  {
    if (__HAL_TIM_GET_IT_SOURCE(htim, TIM_IT_BREAK) != RESET)
 8002e4a:	687b      	ldr	r3, [r7, #4]
 8002e4c:	681b      	ldr	r3, [r3, #0]
 8002e4e:	68db      	ldr	r3, [r3, #12]
 8002e50:	f003 0380 	and.w	r3, r3, #128	; 0x80
 8002e54:	2b80      	cmp	r3, #128	; 0x80
 8002e56:	d107      	bne.n	8002e68 <HAL_TIM_IRQHandler+0x1b0>
    {
      __HAL_TIM_CLEAR_IT(htim, TIM_IT_BREAK);
 8002e58:	687b      	ldr	r3, [r7, #4]
 8002e5a:	681b      	ldr	r3, [r3, #0]
 8002e5c:	f06f 0280 	mvn.w	r2, #128	; 0x80
 8002e60:	611a      	str	r2, [r3, #16]
#if (USE_HAL_TIM_REGISTER_CALLBACKS == 1)
      htim->BreakCallback(htim);
#else
      HAL_TIMEx_BreakCallback(htim);
 8002e62:	6878      	ldr	r0, [r7, #4]
 8002e64:	f000 fcd6 	bl	8003814 <HAL_TIMEx_BreakCallback>
#endif /* USE_HAL_TIM_REGISTER_CALLBACKS */
    }
  }
  /* TIM Trigger detection event */
  if (__HAL_TIM_GET_FLAG(htim, TIM_FLAG_TRIGGER) != RESET)
 8002e68:	687b      	ldr	r3, [r7, #4]
 8002e6a:	681b      	ldr	r3, [r3, #0]
 8002e6c:	691b      	ldr	r3, [r3, #16]
 8002e6e:	f003 0340 	and.w	r3, r3, #64	; 0x40
 8002e72:	2b40      	cmp	r3, #64	; 0x40
 8002e74:	d10e      	bne.n	8002e94 <HAL_TIM_IRQHandler+0x1dc>
  {
    if (__HAL_TIM_GET_IT_SOURCE(htim, TIM_IT_TRIGGER) != RESET)
 8002e76:	687b      	ldr	r3, [r7, #4]
 8002e78:	681b      	ldr	r3, [r3, #0]
 8002e7a:	68db      	ldr	r3, [r3, #12]
 8002e7c:	f003 0340 	and.w	r3, r3, #64	; 0x40
 8002e80:	2b40      	cmp	r3, #64	; 0x40
 8002e82:	d107      	bne.n	8002e94 <HAL_TIM_IRQHandler+0x1dc>
    {
      __HAL_TIM_CLEAR_IT(htim, TIM_IT_TRIGGER);
 8002e84:	687b      	ldr	r3, [r7, #4]
 8002e86:	681b      	ldr	r3, [r3, #0]
 8002e88:	f06f 0240 	mvn.w	r2, #64	; 0x40
 8002e8c:	611a      	str	r2, [r3, #16]
#if (USE_HAL_TIM_REGISTER_CALLBACKS == 1)
      htim->TriggerCallback(htim);
#else
      HAL_TIM_TriggerCallback(htim);
 8002e8e:	6878      	ldr	r0, [r7, #4]
 8002e90:	f000 f9a5 	bl	80031de <HAL_TIM_TriggerCallback>
#endif /* USE_HAL_TIM_REGISTER_CALLBACKS */
    }
  }
  /* TIM commutation event */
  if (__HAL_TIM_GET_FLAG(htim, TIM_FLAG_COM) != RESET)
 8002e94:	687b      	ldr	r3, [r7, #4]
 8002e96:	681b      	ldr	r3, [r3, #0]
 8002e98:	691b      	ldr	r3, [r3, #16]
 8002e9a:	f003 0320 	and.w	r3, r3, #32
 8002e9e:	2b20      	cmp	r3, #32
 8002ea0:	d10e      	bne.n	8002ec0 <HAL_TIM_IRQHandler+0x208>
  {
    if (__HAL_TIM_GET_IT_SOURCE(htim, TIM_IT_COM) != RESET)
 8002ea2:	687b      	ldr	r3, [r7, #4]
 8002ea4:	681b      	ldr	r3, [r3, #0]
 8002ea6:	68db      	ldr	r3, [r3, #12]
 8002ea8:	f003 0320 	and.w	r3, r3, #32
 8002eac:	2b20      	cmp	r3, #32
 8002eae:	d107      	bne.n	8002ec0 <HAL_TIM_IRQHandler+0x208>
    {
      __HAL_TIM_CLEAR_IT(htim, TIM_FLAG_COM);
 8002eb0:	687b      	ldr	r3, [r7, #4]
 8002eb2:	681b      	ldr	r3, [r3, #0]
 8002eb4:	f06f 0220 	mvn.w	r2, #32
 8002eb8:	611a      	str	r2, [r3, #16]
#if (USE_HAL_TIM_REGISTER_CALLBACKS == 1)
      htim->CommutationCallback(htim);
#else
      HAL_TIMEx_CommutCallback(htim);
 8002eba:	6878      	ldr	r0, [r7, #4]
 8002ebc:	f000 fca0 	bl	8003800 <HAL_TIMEx_CommutCallback>
#endif /* USE_HAL_TIM_REGISTER_CALLBACKS */
    }
  }
}
 8002ec0:	bf00      	nop
 8002ec2:	3708      	adds	r7, #8
 8002ec4:	46bd      	mov	sp, r7
 8002ec6:	bd80      	pop	{r7, pc}

08002ec8 <HAL_TIM_IC_ConfigChannel>:
  *            @arg TIM_CHANNEL_3: TIM Channel 3 selected
  *            @arg TIM_CHANNEL_4: TIM Channel 4 selected
  * @retval HAL status
  */
HAL_StatusTypeDef HAL_TIM_IC_ConfigChannel(TIM_HandleTypeDef *htim, TIM_IC_InitTypeDef *sConfig, uint32_t Channel)
{
 8002ec8:	b580      	push	{r7, lr}
 8002eca:	b086      	sub	sp, #24
 8002ecc:	af00      	add	r7, sp, #0
 8002ece:	60f8      	str	r0, [r7, #12]
 8002ed0:	60b9      	str	r1, [r7, #8]
 8002ed2:	607a      	str	r2, [r7, #4]
  HAL_StatusTypeDef status = HAL_OK;
 8002ed4:	2300      	movs	r3, #0
 8002ed6:	75fb      	strb	r3, [r7, #23]
  assert_param(IS_TIM_IC_SELECTION(sConfig->ICSelection));
  assert_param(IS_TIM_IC_PRESCALER(sConfig->ICPrescaler));
  assert_param(IS_TIM_IC_FILTER(sConfig->ICFilter));

  /* Process Locked */
  __HAL_LOCK(htim);
 8002ed8:	68fb      	ldr	r3, [r7, #12]
 8002eda:	f893 303c 	ldrb.w	r3, [r3, #60]	; 0x3c
 8002ede:	2b01      	cmp	r3, #1
 8002ee0:	d101      	bne.n	8002ee6 <HAL_TIM_IC_ConfigChannel+0x1e>
 8002ee2:	2302      	movs	r3, #2
 8002ee4:	e088      	b.n	8002ff8 <HAL_TIM_IC_ConfigChannel+0x130>
 8002ee6:	68fb      	ldr	r3, [r7, #12]
 8002ee8:	2201      	movs	r2, #1
 8002eea:	f883 203c 	strb.w	r2, [r3, #60]	; 0x3c

  if (Channel == TIM_CHANNEL_1)
 8002eee:	687b      	ldr	r3, [r7, #4]
 8002ef0:	2b00      	cmp	r3, #0
 8002ef2:	d11b      	bne.n	8002f2c <HAL_TIM_IC_ConfigChannel+0x64>
  {
    /* TI1 Configuration */
    TIM_TI1_SetConfig(htim->Instance,
 8002ef4:	68fb      	ldr	r3, [r7, #12]
 8002ef6:	6818      	ldr	r0, [r3, #0]
 8002ef8:	68bb      	ldr	r3, [r7, #8]
 8002efa:	6819      	ldr	r1, [r3, #0]
 8002efc:	68bb      	ldr	r3, [r7, #8]
 8002efe:	685a      	ldr	r2, [r3, #4]
 8002f00:	68bb      	ldr	r3, [r7, #8]
 8002f02:	68db      	ldr	r3, [r3, #12]
 8002f04:	f000 fa16 	bl	8003334 <TIM_TI1_SetConfig>
                      sConfig->ICPolarity,
                      sConfig->ICSelection,
                      sConfig->ICFilter);

    /* Reset the IC1PSC Bits */
    htim->Instance->CCMR1 &= ~TIM_CCMR1_IC1PSC;
 8002f08:	68fb      	ldr	r3, [r7, #12]
 8002f0a:	681b      	ldr	r3, [r3, #0]
 8002f0c:	699a      	ldr	r2, [r3, #24]
 8002f0e:	68fb      	ldr	r3, [r7, #12]
 8002f10:	681b      	ldr	r3, [r3, #0]
 8002f12:	f022 020c 	bic.w	r2, r2, #12
 8002f16:	619a      	str	r2, [r3, #24]

    /* Set the IC1PSC value */
    htim->Instance->CCMR1 |= sConfig->ICPrescaler;
 8002f18:	68fb      	ldr	r3, [r7, #12]
 8002f1a:	681b      	ldr	r3, [r3, #0]
 8002f1c:	6999      	ldr	r1, [r3, #24]
 8002f1e:	68bb      	ldr	r3, [r7, #8]
 8002f20:	689a      	ldr	r2, [r3, #8]
 8002f22:	68fb      	ldr	r3, [r7, #12]
 8002f24:	681b      	ldr	r3, [r3, #0]
 8002f26:	430a      	orrs	r2, r1
 8002f28:	619a      	str	r2, [r3, #24]
 8002f2a:	e060      	b.n	8002fee <HAL_TIM_IC_ConfigChannel+0x126>
  }
  else if (Channel == TIM_CHANNEL_2)
 8002f2c:	687b      	ldr	r3, [r7, #4]
 8002f2e:	2b04      	cmp	r3, #4
 8002f30:	d11c      	bne.n	8002f6c <HAL_TIM_IC_ConfigChannel+0xa4>
  {
    /* TI2 Configuration */
    assert_param(IS_TIM_CC2_INSTANCE(htim->Instance));

    TIM_TI2_SetConfig(htim->Instance,
 8002f32:	68fb      	ldr	r3, [r7, #12]
 8002f34:	6818      	ldr	r0, [r3, #0]
 8002f36:	68bb      	ldr	r3, [r7, #8]
 8002f38:	6819      	ldr	r1, [r3, #0]
 8002f3a:	68bb      	ldr	r3, [r7, #8]
 8002f3c:	685a      	ldr	r2, [r3, #4]
 8002f3e:	68bb      	ldr	r3, [r7, #8]
 8002f40:	68db      	ldr	r3, [r3, #12]
 8002f42:	f000 fa9a 	bl	800347a <TIM_TI2_SetConfig>
                      sConfig->ICPolarity,
                      sConfig->ICSelection,
                      sConfig->ICFilter);

    /* Reset the IC2PSC Bits */
    htim->Instance->CCMR1 &= ~TIM_CCMR1_IC2PSC;
 8002f46:	68fb      	ldr	r3, [r7, #12]
 8002f48:	681b      	ldr	r3, [r3, #0]
 8002f4a:	699a      	ldr	r2, [r3, #24]
 8002f4c:	68fb      	ldr	r3, [r7, #12]
 8002f4e:	681b      	ldr	r3, [r3, #0]
 8002f50:	f422 6240 	bic.w	r2, r2, #3072	; 0xc00
 8002f54:	619a      	str	r2, [r3, #24]

    /* Set the IC2PSC value */
    htim->Instance->CCMR1 |= (sConfig->ICPrescaler << 8U);
 8002f56:	68fb      	ldr	r3, [r7, #12]
 8002f58:	681b      	ldr	r3, [r3, #0]
 8002f5a:	6999      	ldr	r1, [r3, #24]
 8002f5c:	68bb      	ldr	r3, [r7, #8]
 8002f5e:	689b      	ldr	r3, [r3, #8]
 8002f60:	021a      	lsls	r2, r3, #8
 8002f62:	68fb      	ldr	r3, [r7, #12]
 8002f64:	681b      	ldr	r3, [r3, #0]
 8002f66:	430a      	orrs	r2, r1
 8002f68:	619a      	str	r2, [r3, #24]
 8002f6a:	e040      	b.n	8002fee <HAL_TIM_IC_ConfigChannel+0x126>
  }
  else if (Channel == TIM_CHANNEL_3)
 8002f6c:	687b      	ldr	r3, [r7, #4]
 8002f6e:	2b08      	cmp	r3, #8
 8002f70:	d11b      	bne.n	8002faa <HAL_TIM_IC_ConfigChannel+0xe2>
  {
    /* TI3 Configuration */
    assert_param(IS_TIM_CC3_INSTANCE(htim->Instance));

    TIM_TI3_SetConfig(htim->Instance,
 8002f72:	68fb      	ldr	r3, [r7, #12]
 8002f74:	6818      	ldr	r0, [r3, #0]
 8002f76:	68bb      	ldr	r3, [r7, #8]
 8002f78:	6819      	ldr	r1, [r3, #0]
 8002f7a:	68bb      	ldr	r3, [r7, #8]
 8002f7c:	685a      	ldr	r2, [r3, #4]
 8002f7e:	68bb      	ldr	r3, [r7, #8]
 8002f80:	68db      	ldr	r3, [r3, #12]
 8002f82:	f000 fae7 	bl	8003554 <TIM_TI3_SetConfig>
                      sConfig->ICPolarity,
                      sConfig->ICSelection,
                      sConfig->ICFilter);

    /* Reset the IC3PSC Bits */
    htim->Instance->CCMR2 &= ~TIM_CCMR2_IC3PSC;
 8002f86:	68fb      	ldr	r3, [r7, #12]
 8002f88:	681b      	ldr	r3, [r3, #0]
 8002f8a:	69da      	ldr	r2, [r3, #28]
 8002f8c:	68fb      	ldr	r3, [r7, #12]
 8002f8e:	681b      	ldr	r3, [r3, #0]
 8002f90:	f022 020c 	bic.w	r2, r2, #12
 8002f94:	61da      	str	r2, [r3, #28]

    /* Set the IC3PSC value */
    htim->Instance->CCMR2 |= sConfig->ICPrescaler;
 8002f96:	68fb      	ldr	r3, [r7, #12]
 8002f98:	681b      	ldr	r3, [r3, #0]
 8002f9a:	69d9      	ldr	r1, [r3, #28]
 8002f9c:	68bb      	ldr	r3, [r7, #8]
 8002f9e:	689a      	ldr	r2, [r3, #8]
 8002fa0:	68fb      	ldr	r3, [r7, #12]
 8002fa2:	681b      	ldr	r3, [r3, #0]
 8002fa4:	430a      	orrs	r2, r1
 8002fa6:	61da      	str	r2, [r3, #28]
 8002fa8:	e021      	b.n	8002fee <HAL_TIM_IC_ConfigChannel+0x126>
  }
  else if (Channel == TIM_CHANNEL_4)
 8002faa:	687b      	ldr	r3, [r7, #4]
 8002fac:	2b0c      	cmp	r3, #12
 8002fae:	d11c      	bne.n	8002fea <HAL_TIM_IC_ConfigChannel+0x122>
  {
    /* TI4 Configuration */
    assert_param(IS_TIM_CC4_INSTANCE(htim->Instance));

    TIM_TI4_SetConfig(htim->Instance,
 8002fb0:	68fb      	ldr	r3, [r7, #12]
 8002fb2:	6818      	ldr	r0, [r3, #0]
 8002fb4:	68bb      	ldr	r3, [r7, #8]
 8002fb6:	6819      	ldr	r1, [r3, #0]
 8002fb8:	68bb      	ldr	r3, [r7, #8]
 8002fba:	685a      	ldr	r2, [r3, #4]
 8002fbc:	68bb      	ldr	r3, [r7, #8]
 8002fbe:	68db      	ldr	r3, [r3, #12]
 8002fc0:	f000 fb04 	bl	80035cc <TIM_TI4_SetConfig>
                      sConfig->ICPolarity,
                      sConfig->ICSelection,
                      sConfig->ICFilter);

    /* Reset the IC4PSC Bits */
    htim->Instance->CCMR2 &= ~TIM_CCMR2_IC4PSC;
 8002fc4:	68fb      	ldr	r3, [r7, #12]
 8002fc6:	681b      	ldr	r3, [r3, #0]
 8002fc8:	69da      	ldr	r2, [r3, #28]
 8002fca:	68fb      	ldr	r3, [r7, #12]
 8002fcc:	681b      	ldr	r3, [r3, #0]
 8002fce:	f422 6240 	bic.w	r2, r2, #3072	; 0xc00
 8002fd2:	61da      	str	r2, [r3, #28]

    /* Set the IC4PSC value */
    htim->Instance->CCMR2 |= (sConfig->ICPrescaler << 8U);
 8002fd4:	68fb      	ldr	r3, [r7, #12]
 8002fd6:	681b      	ldr	r3, [r3, #0]
 8002fd8:	69d9      	ldr	r1, [r3, #28]
 8002fda:	68bb      	ldr	r3, [r7, #8]
 8002fdc:	689b      	ldr	r3, [r3, #8]
 8002fde:	021a      	lsls	r2, r3, #8
 8002fe0:	68fb      	ldr	r3, [r7, #12]
 8002fe2:	681b      	ldr	r3, [r3, #0]
 8002fe4:	430a      	orrs	r2, r1
 8002fe6:	61da      	str	r2, [r3, #28]
 8002fe8:	e001      	b.n	8002fee <HAL_TIM_IC_ConfigChannel+0x126>
  }
  else
  {
    status = HAL_ERROR;
 8002fea:	2301      	movs	r3, #1
 8002fec:	75fb      	strb	r3, [r7, #23]
  }

  __HAL_UNLOCK(htim);
 8002fee:	68fb      	ldr	r3, [r7, #12]
 8002ff0:	2200      	movs	r2, #0
 8002ff2:	f883 203c 	strb.w	r2, [r3, #60]	; 0x3c

  return status;
 8002ff6:	7dfb      	ldrb	r3, [r7, #23]
}
 8002ff8:	4618      	mov	r0, r3
 8002ffa:	3718      	adds	r7, #24
 8002ffc:	46bd      	mov	sp, r7
 8002ffe:	bd80      	pop	{r7, pc}

08003000 <HAL_TIM_ConfigClockSource>:
  * @param  sClockSourceConfig pointer to a TIM_ClockConfigTypeDef structure that
  *         contains the clock source information for the TIM peripheral.
  * @retval HAL status
  */
HAL_StatusTypeDef HAL_TIM_ConfigClockSource(TIM_HandleTypeDef *htim, TIM_ClockConfigTypeDef *sClockSourceConfig)
{
 8003000:	b580      	push	{r7, lr}
 8003002:	b084      	sub	sp, #16
 8003004:	af00      	add	r7, sp, #0
 8003006:	6078      	str	r0, [r7, #4]
 8003008:	6039      	str	r1, [r7, #0]
  HAL_StatusTypeDef status = HAL_OK;
 800300a:	2300      	movs	r3, #0
 800300c:	73fb      	strb	r3, [r7, #15]
  uint32_t tmpsmcr;

  /* Process Locked */
  __HAL_LOCK(htim);
 800300e:	687b      	ldr	r3, [r7, #4]
 8003010:	f893 303c 	ldrb.w	r3, [r3, #60]	; 0x3c
 8003014:	2b01      	cmp	r3, #1
 8003016:	d101      	bne.n	800301c <HAL_TIM_ConfigClockSource+0x1c>
 8003018:	2302      	movs	r3, #2
 800301a:	e0b4      	b.n	8003186 <HAL_TIM_ConfigClockSource+0x186>
 800301c:	687b      	ldr	r3, [r7, #4]
 800301e:	2201      	movs	r2, #1
 8003020:	f883 203c 	strb.w	r2, [r3, #60]	; 0x3c

  htim->State = HAL_TIM_STATE_BUSY;
 8003024:	687b      	ldr	r3, [r7, #4]
 8003026:	2202      	movs	r2, #2
 8003028:	f883 203d 	strb.w	r2, [r3, #61]	; 0x3d

  /* Check the parameters */
  assert_param(IS_TIM_CLOCKSOURCE(sClockSourceConfig->ClockSource));

  /* Reset the SMS, TS, ECE, ETPS and ETRF bits */
  tmpsmcr = htim->Instance->SMCR;
 800302c:	687b      	ldr	r3, [r7, #4]
 800302e:	681b      	ldr	r3, [r3, #0]
 8003030:	689b      	ldr	r3, [r3, #8]
 8003032:	60bb      	str	r3, [r7, #8]
  tmpsmcr &= ~(TIM_SMCR_SMS | TIM_SMCR_TS);
 8003034:	68bb      	ldr	r3, [r7, #8]
 8003036:	f023 0377 	bic.w	r3, r3, #119	; 0x77
 800303a:	60bb      	str	r3, [r7, #8]
  tmpsmcr &= ~(TIM_SMCR_ETF | TIM_SMCR_ETPS | TIM_SMCR_ECE | TIM_SMCR_ETP);
 800303c:	68bb      	ldr	r3, [r7, #8]
 800303e:	f423 437f 	bic.w	r3, r3, #65280	; 0xff00
 8003042:	60bb      	str	r3, [r7, #8]
  htim->Instance->SMCR = tmpsmcr;
 8003044:	687b      	ldr	r3, [r7, #4]
 8003046:	681b      	ldr	r3, [r3, #0]
 8003048:	68ba      	ldr	r2, [r7, #8]
 800304a:	609a      	str	r2, [r3, #8]

  switch (sClockSourceConfig->ClockSource)
 800304c:	683b      	ldr	r3, [r7, #0]
 800304e:	681b      	ldr	r3, [r3, #0]
 8003050:	f5b3 5f00 	cmp.w	r3, #8192	; 0x2000
 8003054:	d03e      	beq.n	80030d4 <HAL_TIM_ConfigClockSource+0xd4>
 8003056:	f5b3 5f00 	cmp.w	r3, #8192	; 0x2000
 800305a:	f200 8087 	bhi.w	800316c <HAL_TIM_ConfigClockSource+0x16c>
 800305e:	f5b3 5f80 	cmp.w	r3, #4096	; 0x1000
 8003062:	f000 8086 	beq.w	8003172 <HAL_TIM_ConfigClockSource+0x172>
 8003066:	f5b3 5f80 	cmp.w	r3, #4096	; 0x1000
 800306a:	d87f      	bhi.n	800316c <HAL_TIM_ConfigClockSource+0x16c>
 800306c:	2b70      	cmp	r3, #112	; 0x70
 800306e:	d01a      	beq.n	80030a6 <HAL_TIM_ConfigClockSource+0xa6>
 8003070:	2b70      	cmp	r3, #112	; 0x70
 8003072:	d87b      	bhi.n	800316c <HAL_TIM_ConfigClockSource+0x16c>
 8003074:	2b60      	cmp	r3, #96	; 0x60
 8003076:	d050      	beq.n	800311a <HAL_TIM_ConfigClockSource+0x11a>
 8003078:	2b60      	cmp	r3, #96	; 0x60
 800307a:	d877      	bhi.n	800316c <HAL_TIM_ConfigClockSource+0x16c>
 800307c:	2b50      	cmp	r3, #80	; 0x50
 800307e:	d03c      	beq.n	80030fa <HAL_TIM_ConfigClockSource+0xfa>
 8003080:	2b50      	cmp	r3, #80	; 0x50
 8003082:	d873      	bhi.n	800316c <HAL_TIM_ConfigClockSource+0x16c>
 8003084:	2b40      	cmp	r3, #64	; 0x40
 8003086:	d058      	beq.n	800313a <HAL_TIM_ConfigClockSource+0x13a>
 8003088:	2b40      	cmp	r3, #64	; 0x40
 800308a:	d86f      	bhi.n	800316c <HAL_TIM_ConfigClockSource+0x16c>
 800308c:	2b30      	cmp	r3, #48	; 0x30
 800308e:	d064      	beq.n	800315a <HAL_TIM_ConfigClockSource+0x15a>
 8003090:	2b30      	cmp	r3, #48	; 0x30
 8003092:	d86b      	bhi.n	800316c <HAL_TIM_ConfigClockSource+0x16c>
 8003094:	2b20      	cmp	r3, #32
 8003096:	d060      	beq.n	800315a <HAL_TIM_ConfigClockSource+0x15a>
 8003098:	2b20      	cmp	r3, #32
 800309a:	d867      	bhi.n	800316c <HAL_TIM_ConfigClockSource+0x16c>
 800309c:	2b00      	cmp	r3, #0
 800309e:	d05c      	beq.n	800315a <HAL_TIM_ConfigClockSource+0x15a>
 80030a0:	2b10      	cmp	r3, #16
 80030a2:	d05a      	beq.n	800315a <HAL_TIM_ConfigClockSource+0x15a>
 80030a4:	e062      	b.n	800316c <HAL_TIM_ConfigClockSource+0x16c>
      assert_param(IS_TIM_CLOCKPRESCALER(sClockSourceConfig->ClockPrescaler));
      assert_param(IS_TIM_CLOCKPOLARITY(sClockSourceConfig->ClockPolarity));
      assert_param(IS_TIM_CLOCKFILTER(sClockSourceConfig->ClockFilter));

      /* Configure the ETR Clock source */
      TIM_ETR_SetConfig(htim->Instance,
 80030a6:	687b      	ldr	r3, [r7, #4]
 80030a8:	6818      	ldr	r0, [r3, #0]
 80030aa:	683b      	ldr	r3, [r7, #0]
 80030ac:	6899      	ldr	r1, [r3, #8]
 80030ae:	683b      	ldr	r3, [r7, #0]
 80030b0:	685a      	ldr	r2, [r3, #4]
 80030b2:	683b      	ldr	r3, [r7, #0]
 80030b4:	68db      	ldr	r3, [r3, #12]
 80030b6:	f000 fae1 	bl	800367c <TIM_ETR_SetConfig>
                        sClockSourceConfig->ClockPrescaler,
                        sClockSourceConfig->ClockPolarity,
                        sClockSourceConfig->ClockFilter);

      /* Select the External clock mode1 and the ETRF trigger */
      tmpsmcr = htim->Instance->SMCR;
 80030ba:	687b      	ldr	r3, [r7, #4]
 80030bc:	681b      	ldr	r3, [r3, #0]
 80030be:	689b      	ldr	r3, [r3, #8]
 80030c0:	60bb      	str	r3, [r7, #8]
      tmpsmcr |= (TIM_SLAVEMODE_EXTERNAL1 | TIM_CLOCKSOURCE_ETRMODE1);
 80030c2:	68bb      	ldr	r3, [r7, #8]
 80030c4:	f043 0377 	orr.w	r3, r3, #119	; 0x77
 80030c8:	60bb      	str	r3, [r7, #8]
      /* Write to TIMx SMCR */
      htim->Instance->SMCR = tmpsmcr;
 80030ca:	687b      	ldr	r3, [r7, #4]
 80030cc:	681b      	ldr	r3, [r3, #0]
 80030ce:	68ba      	ldr	r2, [r7, #8]
 80030d0:	609a      	str	r2, [r3, #8]
      break;
 80030d2:	e04f      	b.n	8003174 <HAL_TIM_ConfigClockSource+0x174>
      assert_param(IS_TIM_CLOCKPRESCALER(sClockSourceConfig->ClockPrescaler));
      assert_param(IS_TIM_CLOCKPOLARITY(sClockSourceConfig->ClockPolarity));
      assert_param(IS_TIM_CLOCKFILTER(sClockSourceConfig->ClockFilter));

      /* Configure the ETR Clock source */
      TIM_ETR_SetConfig(htim->Instance,
 80030d4:	687b      	ldr	r3, [r7, #4]
 80030d6:	6818      	ldr	r0, [r3, #0]
 80030d8:	683b      	ldr	r3, [r7, #0]
 80030da:	6899      	ldr	r1, [r3, #8]
 80030dc:	683b      	ldr	r3, [r7, #0]
 80030de:	685a      	ldr	r2, [r3, #4]
 80030e0:	683b      	ldr	r3, [r7, #0]
 80030e2:	68db      	ldr	r3, [r3, #12]
 80030e4:	f000 faca 	bl	800367c <TIM_ETR_SetConfig>
                        sClockSourceConfig->ClockPrescaler,
                        sClockSourceConfig->ClockPolarity,
                        sClockSourceConfig->ClockFilter);
      /* Enable the External clock mode2 */
      htim->Instance->SMCR |= TIM_SMCR_ECE;
 80030e8:	687b      	ldr	r3, [r7, #4]
 80030ea:	681b      	ldr	r3, [r3, #0]
 80030ec:	689a      	ldr	r2, [r3, #8]
 80030ee:	687b      	ldr	r3, [r7, #4]
 80030f0:	681b      	ldr	r3, [r3, #0]
 80030f2:	f442 4280 	orr.w	r2, r2, #16384	; 0x4000
 80030f6:	609a      	str	r2, [r3, #8]
      break;
 80030f8:	e03c      	b.n	8003174 <HAL_TIM_ConfigClockSource+0x174>

      /* Check TI1 input conditioning related parameters */
      assert_param(IS_TIM_CLOCKPOLARITY(sClockSourceConfig->ClockPolarity));
      assert_param(IS_TIM_CLOCKFILTER(sClockSourceConfig->ClockFilter));

      TIM_TI1_ConfigInputStage(htim->Instance,
 80030fa:	687b      	ldr	r3, [r7, #4]
 80030fc:	6818      	ldr	r0, [r3, #0]
 80030fe:	683b      	ldr	r3, [r7, #0]
 8003100:	6859      	ldr	r1, [r3, #4]
 8003102:	683b      	ldr	r3, [r7, #0]
 8003104:	68db      	ldr	r3, [r3, #12]
 8003106:	461a      	mov	r2, r3
 8003108:	f000 f988 	bl	800341c <TIM_TI1_ConfigInputStage>
                               sClockSourceConfig->ClockPolarity,
                               sClockSourceConfig->ClockFilter);
      TIM_ITRx_SetConfig(htim->Instance, TIM_CLOCKSOURCE_TI1);
 800310c:	687b      	ldr	r3, [r7, #4]
 800310e:	681b      	ldr	r3, [r3, #0]
 8003110:	2150      	movs	r1, #80	; 0x50
 8003112:	4618      	mov	r0, r3
 8003114:	f000 fa97 	bl	8003646 <TIM_ITRx_SetConfig>
      break;
 8003118:	e02c      	b.n	8003174 <HAL_TIM_ConfigClockSource+0x174>

      /* Check TI2 input conditioning related parameters */
      assert_param(IS_TIM_CLOCKPOLARITY(sClockSourceConfig->ClockPolarity));
      assert_param(IS_TIM_CLOCKFILTER(sClockSourceConfig->ClockFilter));

      TIM_TI2_ConfigInputStage(htim->Instance,
 800311a:	687b      	ldr	r3, [r7, #4]
 800311c:	6818      	ldr	r0, [r3, #0]
 800311e:	683b      	ldr	r3, [r7, #0]
 8003120:	6859      	ldr	r1, [r3, #4]
 8003122:	683b      	ldr	r3, [r7, #0]
 8003124:	68db      	ldr	r3, [r3, #12]
 8003126:	461a      	mov	r2, r3
 8003128:	f000 f9e4 	bl	80034f4 <TIM_TI2_ConfigInputStage>
                               sClockSourceConfig->ClockPolarity,
                               sClockSourceConfig->ClockFilter);
      TIM_ITRx_SetConfig(htim->Instance, TIM_CLOCKSOURCE_TI2);
 800312c:	687b      	ldr	r3, [r7, #4]
 800312e:	681b      	ldr	r3, [r3, #0]
 8003130:	2160      	movs	r1, #96	; 0x60
 8003132:	4618      	mov	r0, r3
 8003134:	f000 fa87 	bl	8003646 <TIM_ITRx_SetConfig>
      break;
 8003138:	e01c      	b.n	8003174 <HAL_TIM_ConfigClockSource+0x174>

      /* Check TI1 input conditioning related parameters */
      assert_param(IS_TIM_CLOCKPOLARITY(sClockSourceConfig->ClockPolarity));
      assert_param(IS_TIM_CLOCKFILTER(sClockSourceConfig->ClockFilter));

      TIM_TI1_ConfigInputStage(htim->Instance,
 800313a:	687b      	ldr	r3, [r7, #4]
 800313c:	6818      	ldr	r0, [r3, #0]
 800313e:	683b      	ldr	r3, [r7, #0]
 8003140:	6859      	ldr	r1, [r3, #4]
 8003142:	683b      	ldr	r3, [r7, #0]
 8003144:	68db      	ldr	r3, [r3, #12]
 8003146:	461a      	mov	r2, r3
 8003148:	f000 f968 	bl	800341c <TIM_TI1_ConfigInputStage>
                               sClockSourceConfig->ClockPolarity,
                               sClockSourceConfig->ClockFilter);
      TIM_ITRx_SetConfig(htim->Instance, TIM_CLOCKSOURCE_TI1ED);
 800314c:	687b      	ldr	r3, [r7, #4]
 800314e:	681b      	ldr	r3, [r3, #0]
 8003150:	2140      	movs	r1, #64	; 0x40
 8003152:	4618      	mov	r0, r3
 8003154:	f000 fa77 	bl	8003646 <TIM_ITRx_SetConfig>
      break;
 8003158:	e00c      	b.n	8003174 <HAL_TIM_ConfigClockSource+0x174>
    case TIM_CLOCKSOURCE_ITR3:
    {
      /* Check whether or not the timer instance supports internal trigger input */
      assert_param(IS_TIM_CLOCKSOURCE_ITRX_INSTANCE(htim->Instance));

      TIM_ITRx_SetConfig(htim->Instance, sClockSourceConfig->ClockSource);
 800315a:	687b      	ldr	r3, [r7, #4]
 800315c:	681a      	ldr	r2, [r3, #0]
 800315e:	683b      	ldr	r3, [r7, #0]
 8003160:	681b      	ldr	r3, [r3, #0]
 8003162:	4619      	mov	r1, r3
 8003164:	4610      	mov	r0, r2
 8003166:	f000 fa6e 	bl	8003646 <TIM_ITRx_SetConfig>
      break;
 800316a:	e003      	b.n	8003174 <HAL_TIM_ConfigClockSource+0x174>
    }

    default:
      status = HAL_ERROR;
 800316c:	2301      	movs	r3, #1
 800316e:	73fb      	strb	r3, [r7, #15]
      break;
 8003170:	e000      	b.n	8003174 <HAL_TIM_ConfigClockSource+0x174>
      break;
 8003172:	bf00      	nop
  }
  htim->State = HAL_TIM_STATE_READY;
 8003174:	687b      	ldr	r3, [r7, #4]
 8003176:	2201      	movs	r2, #1
 8003178:	f883 203d 	strb.w	r2, [r3, #61]	; 0x3d

  __HAL_UNLOCK(htim);
 800317c:	687b      	ldr	r3, [r7, #4]
 800317e:	2200      	movs	r2, #0
 8003180:	f883 203c 	strb.w	r2, [r3, #60]	; 0x3c

  return status;
 8003184:	7bfb      	ldrb	r3, [r7, #15]
}
 8003186:	4618      	mov	r0, r3
 8003188:	3710      	adds	r7, #16
 800318a:	46bd      	mov	sp, r7
 800318c:	bd80      	pop	{r7, pc}

0800318e <HAL_TIM_PeriodElapsedCallback>:
  * @brief  Period elapsed callback in non-blocking mode
  * @param  htim TIM handle
  * @retval None
  */
__weak void HAL_TIM_PeriodElapsedCallback(TIM_HandleTypeDef *htim)
{
 800318e:	b480      	push	{r7}
 8003190:	b083      	sub	sp, #12
 8003192:	af00      	add	r7, sp, #0
 8003194:	6078      	str	r0, [r7, #4]
  UNUSED(htim);

  /* NOTE : This function should not be modified, when the callback is needed,
            the HAL_TIM_PeriodElapsedCallback could be implemented in the user file
   */
}
 8003196:	bf00      	nop
 8003198:	370c      	adds	r7, #12
 800319a:	46bd      	mov	sp, r7
 800319c:	f85d 7b04 	ldr.w	r7, [sp], #4
 80031a0:	4770      	bx	lr

080031a2 <HAL_TIM_OC_DelayElapsedCallback>:
  * @brief  Output Compare callback in non-blocking mode
  * @param  htim TIM OC handle
  * @retval None
  */
__weak void HAL_TIM_OC_DelayElapsedCallback(TIM_HandleTypeDef *htim)
{
 80031a2:	b480      	push	{r7}
 80031a4:	b083      	sub	sp, #12
 80031a6:	af00      	add	r7, sp, #0
 80031a8:	6078      	str	r0, [r7, #4]
  UNUSED(htim);

  /* NOTE : This function should not be modified, when the callback is needed,
            the HAL_TIM_OC_DelayElapsedCallback could be implemented in the user file
   */
}
 80031aa:	bf00      	nop
 80031ac:	370c      	adds	r7, #12
 80031ae:	46bd      	mov	sp, r7
 80031b0:	f85d 7b04 	ldr.w	r7, [sp], #4
 80031b4:	4770      	bx	lr

080031b6 <HAL_TIM_IC_CaptureCallback>:
  * @brief  Input Capture callback in non-blocking mode
  * @param  htim TIM IC handle
  * @retval None
  */
__weak void HAL_TIM_IC_CaptureCallback(TIM_HandleTypeDef *htim)
{
 80031b6:	b480      	push	{r7}
 80031b8:	b083      	sub	sp, #12
 80031ba:	af00      	add	r7, sp, #0
 80031bc:	6078      	str	r0, [r7, #4]
  UNUSED(htim);

  /* NOTE : This function should not be modified, when the callback is needed,
            the HAL_TIM_IC_CaptureCallback could be implemented in the user file
   */
}
 80031be:	bf00      	nop
 80031c0:	370c      	adds	r7, #12
 80031c2:	46bd      	mov	sp, r7
 80031c4:	f85d 7b04 	ldr.w	r7, [sp], #4
 80031c8:	4770      	bx	lr

080031ca <HAL_TIM_PWM_PulseFinishedCallback>:
  * @brief  PWM Pulse finished callback in non-blocking mode
  * @param  htim TIM handle
  * @retval None
  */
__weak void HAL_TIM_PWM_PulseFinishedCallback(TIM_HandleTypeDef *htim)
{
 80031ca:	b480      	push	{r7}
 80031cc:	b083      	sub	sp, #12
 80031ce:	af00      	add	r7, sp, #0
 80031d0:	6078      	str	r0, [r7, #4]
  UNUSED(htim);

  /* NOTE : This function should not be modified, when the callback is needed,
            the HAL_TIM_PWM_PulseFinishedCallback could be implemented in the user file
   */
}
 80031d2:	bf00      	nop
 80031d4:	370c      	adds	r7, #12
 80031d6:	46bd      	mov	sp, r7
 80031d8:	f85d 7b04 	ldr.w	r7, [sp], #4
 80031dc:	4770      	bx	lr

080031de <HAL_TIM_TriggerCallback>:
  * @brief  Hall Trigger detection callback in non-blocking mode
  * @param  htim TIM handle
  * @retval None
  */
__weak void HAL_TIM_TriggerCallback(TIM_HandleTypeDef *htim)
{
 80031de:	b480      	push	{r7}
 80031e0:	b083      	sub	sp, #12
 80031e2:	af00      	add	r7, sp, #0
 80031e4:	6078      	str	r0, [r7, #4]
  UNUSED(htim);

  /* NOTE : This function should not be modified, when the callback is needed,
            the HAL_TIM_TriggerCallback could be implemented in the user file
   */
}
 80031e6:	bf00      	nop
 80031e8:	370c      	adds	r7, #12
 80031ea:	46bd      	mov	sp, r7
 80031ec:	f85d 7b04 	ldr.w	r7, [sp], #4
 80031f0:	4770      	bx	lr
	...

080031f4 <TIM_Base_SetConfig>:
  * @param  TIMx TIM peripheral
  * @param  Structure TIM Base configuration structure
  * @retval None
  */
void TIM_Base_SetConfig(TIM_TypeDef *TIMx, TIM_Base_InitTypeDef *Structure)
{
 80031f4:	b480      	push	{r7}
 80031f6:	b085      	sub	sp, #20
 80031f8:	af00      	add	r7, sp, #0
 80031fa:	6078      	str	r0, [r7, #4]
 80031fc:	6039      	str	r1, [r7, #0]
  uint32_t tmpcr1;
  tmpcr1 = TIMx->CR1;
 80031fe:	687b      	ldr	r3, [r7, #4]
 8003200:	681b      	ldr	r3, [r3, #0]
 8003202:	60fb      	str	r3, [r7, #12]

  /* Set TIM Time Base Unit parameters ---------------------------------------*/
  if (IS_TIM_COUNTER_MODE_SELECT_INSTANCE(TIMx))
 8003204:	687b      	ldr	r3, [r7, #4]
 8003206:	4a40      	ldr	r2, [pc, #256]	; (8003308 <TIM_Base_SetConfig+0x114>)
 8003208:	4293      	cmp	r3, r2
 800320a:	d013      	beq.n	8003234 <TIM_Base_SetConfig+0x40>
 800320c:	687b      	ldr	r3, [r7, #4]
 800320e:	f1b3 4f80 	cmp.w	r3, #1073741824	; 0x40000000
 8003212:	d00f      	beq.n	8003234 <TIM_Base_SetConfig+0x40>
 8003214:	687b      	ldr	r3, [r7, #4]
 8003216:	4a3d      	ldr	r2, [pc, #244]	; (800330c <TIM_Base_SetConfig+0x118>)
 8003218:	4293      	cmp	r3, r2
 800321a:	d00b      	beq.n	8003234 <TIM_Base_SetConfig+0x40>
 800321c:	687b      	ldr	r3, [r7, #4]
 800321e:	4a3c      	ldr	r2, [pc, #240]	; (8003310 <TIM_Base_SetConfig+0x11c>)
 8003220:	4293      	cmp	r3, r2
 8003222:	d007      	beq.n	8003234 <TIM_Base_SetConfig+0x40>
 8003224:	687b      	ldr	r3, [r7, #4]
 8003226:	4a3b      	ldr	r2, [pc, #236]	; (8003314 <TIM_Base_SetConfig+0x120>)
 8003228:	4293      	cmp	r3, r2
 800322a:	d003      	beq.n	8003234 <TIM_Base_SetConfig+0x40>
 800322c:	687b      	ldr	r3, [r7, #4]
 800322e:	4a3a      	ldr	r2, [pc, #232]	; (8003318 <TIM_Base_SetConfig+0x124>)
 8003230:	4293      	cmp	r3, r2
 8003232:	d108      	bne.n	8003246 <TIM_Base_SetConfig+0x52>
  {
    /* Select the Counter Mode */
    tmpcr1 &= ~(TIM_CR1_DIR | TIM_CR1_CMS);
 8003234:	68fb      	ldr	r3, [r7, #12]
 8003236:	f023 0370 	bic.w	r3, r3, #112	; 0x70
 800323a:	60fb      	str	r3, [r7, #12]
    tmpcr1 |= Structure->CounterMode;
 800323c:	683b      	ldr	r3, [r7, #0]
 800323e:	685b      	ldr	r3, [r3, #4]
 8003240:	68fa      	ldr	r2, [r7, #12]
 8003242:	4313      	orrs	r3, r2
 8003244:	60fb      	str	r3, [r7, #12]
  }

  if (IS_TIM_CLOCK_DIVISION_INSTANCE(TIMx))
 8003246:	687b      	ldr	r3, [r7, #4]
 8003248:	4a2f      	ldr	r2, [pc, #188]	; (8003308 <TIM_Base_SetConfig+0x114>)
 800324a:	4293      	cmp	r3, r2
 800324c:	d02b      	beq.n	80032a6 <TIM_Base_SetConfig+0xb2>
 800324e:	687b      	ldr	r3, [r7, #4]
 8003250:	f1b3 4f80 	cmp.w	r3, #1073741824	; 0x40000000
 8003254:	d027      	beq.n	80032a6 <TIM_Base_SetConfig+0xb2>
 8003256:	687b      	ldr	r3, [r7, #4]
 8003258:	4a2c      	ldr	r2, [pc, #176]	; (800330c <TIM_Base_SetConfig+0x118>)
 800325a:	4293      	cmp	r3, r2
 800325c:	d023      	beq.n	80032a6 <TIM_Base_SetConfig+0xb2>
 800325e:	687b      	ldr	r3, [r7, #4]
 8003260:	4a2b      	ldr	r2, [pc, #172]	; (8003310 <TIM_Base_SetConfig+0x11c>)
 8003262:	4293      	cmp	r3, r2
 8003264:	d01f      	beq.n	80032a6 <TIM_Base_SetConfig+0xb2>
 8003266:	687b      	ldr	r3, [r7, #4]
 8003268:	4a2a      	ldr	r2, [pc, #168]	; (8003314 <TIM_Base_SetConfig+0x120>)
 800326a:	4293      	cmp	r3, r2
 800326c:	d01b      	beq.n	80032a6 <TIM_Base_SetConfig+0xb2>
 800326e:	687b      	ldr	r3, [r7, #4]
 8003270:	4a29      	ldr	r2, [pc, #164]	; (8003318 <TIM_Base_SetConfig+0x124>)
 8003272:	4293      	cmp	r3, r2
 8003274:	d017      	beq.n	80032a6 <TIM_Base_SetConfig+0xb2>
 8003276:	687b      	ldr	r3, [r7, #4]
 8003278:	4a28      	ldr	r2, [pc, #160]	; (800331c <TIM_Base_SetConfig+0x128>)
 800327a:	4293      	cmp	r3, r2
 800327c:	d013      	beq.n	80032a6 <TIM_Base_SetConfig+0xb2>
 800327e:	687b      	ldr	r3, [r7, #4]
 8003280:	4a27      	ldr	r2, [pc, #156]	; (8003320 <TIM_Base_SetConfig+0x12c>)
 8003282:	4293      	cmp	r3, r2
 8003284:	d00f      	beq.n	80032a6 <TIM_Base_SetConfig+0xb2>
 8003286:	687b      	ldr	r3, [r7, #4]
 8003288:	4a26      	ldr	r2, [pc, #152]	; (8003324 <TIM_Base_SetConfig+0x130>)
 800328a:	4293      	cmp	r3, r2
 800328c:	d00b      	beq.n	80032a6 <TIM_Base_SetConfig+0xb2>
 800328e:	687b      	ldr	r3, [r7, #4]
 8003290:	4a25      	ldr	r2, [pc, #148]	; (8003328 <TIM_Base_SetConfig+0x134>)
 8003292:	4293      	cmp	r3, r2
 8003294:	d007      	beq.n	80032a6 <TIM_Base_SetConfig+0xb2>
 8003296:	687b      	ldr	r3, [r7, #4]
 8003298:	4a24      	ldr	r2, [pc, #144]	; (800332c <TIM_Base_SetConfig+0x138>)
 800329a:	4293      	cmp	r3, r2
 800329c:	d003      	beq.n	80032a6 <TIM_Base_SetConfig+0xb2>
 800329e:	687b      	ldr	r3, [r7, #4]
 80032a0:	4a23      	ldr	r2, [pc, #140]	; (8003330 <TIM_Base_SetConfig+0x13c>)
 80032a2:	4293      	cmp	r3, r2
 80032a4:	d108      	bne.n	80032b8 <TIM_Base_SetConfig+0xc4>
  {
    /* Set the clock division */
    tmpcr1 &= ~TIM_CR1_CKD;
 80032a6:	68fb      	ldr	r3, [r7, #12]
 80032a8:	f423 7340 	bic.w	r3, r3, #768	; 0x300
 80032ac:	60fb      	str	r3, [r7, #12]
    tmpcr1 |= (uint32_t)Structure->ClockDivision;
 80032ae:	683b      	ldr	r3, [r7, #0]
 80032b0:	68db      	ldr	r3, [r3, #12]
 80032b2:	68fa      	ldr	r2, [r7, #12]
 80032b4:	4313      	orrs	r3, r2
 80032b6:	60fb      	str	r3, [r7, #12]
  }

  /* Set the auto-reload preload */
  MODIFY_REG(tmpcr1, TIM_CR1_ARPE, Structure->AutoReloadPreload);
 80032b8:	68fb      	ldr	r3, [r7, #12]
 80032ba:	f023 0280 	bic.w	r2, r3, #128	; 0x80
 80032be:	683b      	ldr	r3, [r7, #0]
 80032c0:	695b      	ldr	r3, [r3, #20]
 80032c2:	4313      	orrs	r3, r2
 80032c4:	60fb      	str	r3, [r7, #12]

  TIMx->CR1 = tmpcr1;
 80032c6:	687b      	ldr	r3, [r7, #4]
 80032c8:	68fa      	ldr	r2, [r7, #12]
 80032ca:	601a      	str	r2, [r3, #0]

  /* Set the Autoreload value */
  TIMx->ARR = (uint32_t)Structure->Period ;
 80032cc:	683b      	ldr	r3, [r7, #0]
 80032ce:	689a      	ldr	r2, [r3, #8]
 80032d0:	687b      	ldr	r3, [r7, #4]
 80032d2:	62da      	str	r2, [r3, #44]	; 0x2c

  /* Set the Prescaler value */
  TIMx->PSC = Structure->Prescaler;
 80032d4:	683b      	ldr	r3, [r7, #0]
 80032d6:	681a      	ldr	r2, [r3, #0]
 80032d8:	687b      	ldr	r3, [r7, #4]
 80032da:	629a      	str	r2, [r3, #40]	; 0x28

  if (IS_TIM_REPETITION_COUNTER_INSTANCE(TIMx))
 80032dc:	687b      	ldr	r3, [r7, #4]
 80032de:	4a0a      	ldr	r2, [pc, #40]	; (8003308 <TIM_Base_SetConfig+0x114>)
 80032e0:	4293      	cmp	r3, r2
 80032e2:	d003      	beq.n	80032ec <TIM_Base_SetConfig+0xf8>
 80032e4:	687b      	ldr	r3, [r7, #4]
 80032e6:	4a0c      	ldr	r2, [pc, #48]	; (8003318 <TIM_Base_SetConfig+0x124>)
 80032e8:	4293      	cmp	r3, r2
 80032ea:	d103      	bne.n	80032f4 <TIM_Base_SetConfig+0x100>
  {
    /* Set the Repetition Counter value */
    TIMx->RCR = Structure->RepetitionCounter;
 80032ec:	683b      	ldr	r3, [r7, #0]
 80032ee:	691a      	ldr	r2, [r3, #16]
 80032f0:	687b      	ldr	r3, [r7, #4]
 80032f2:	631a      	str	r2, [r3, #48]	; 0x30
  }

  /* Generate an update event to reload the Prescaler
     and the repetition counter (only for advanced timer) value immediately */
  TIMx->EGR = TIM_EGR_UG;
 80032f4:	687b      	ldr	r3, [r7, #4]
 80032f6:	2201      	movs	r2, #1
 80032f8:	615a      	str	r2, [r3, #20]
}
 80032fa:	bf00      	nop
 80032fc:	3714      	adds	r7, #20
 80032fe:	46bd      	mov	sp, r7
 8003300:	f85d 7b04 	ldr.w	r7, [sp], #4
 8003304:	4770      	bx	lr
 8003306:	bf00      	nop
 8003308:	40010000 	.word	0x40010000
 800330c:	40000400 	.word	0x40000400
 8003310:	40000800 	.word	0x40000800
 8003314:	40000c00 	.word	0x40000c00
 8003318:	40010400 	.word	0x40010400
 800331c:	40014000 	.word	0x40014000
 8003320:	40014400 	.word	0x40014400
 8003324:	40014800 	.word	0x40014800
 8003328:	40001800 	.word	0x40001800
 800332c:	40001c00 	.word	0x40001c00
 8003330:	40002000 	.word	0x40002000

08003334 <TIM_TI1_SetConfig>:
  *       (on channel2 path) is used as the input signal. Therefore CCMR1 must be
  *        protected against un-initialized filter and polarity values.
  */
void TIM_TI1_SetConfig(TIM_TypeDef *TIMx, uint32_t TIM_ICPolarity, uint32_t TIM_ICSelection,
                       uint32_t TIM_ICFilter)
{
 8003334:	b480      	push	{r7}
 8003336:	b087      	sub	sp, #28
 8003338:	af00      	add	r7, sp, #0
 800333a:	60f8      	str	r0, [r7, #12]
 800333c:	60b9      	str	r1, [r7, #8]
 800333e:	607a      	str	r2, [r7, #4]
 8003340:	603b      	str	r3, [r7, #0]
  uint32_t tmpccmr1;
  uint32_t tmpccer;

  /* Disable the Channel 1: Reset the CC1E Bit */
  TIMx->CCER &= ~TIM_CCER_CC1E;
 8003342:	68fb      	ldr	r3, [r7, #12]
 8003344:	6a1b      	ldr	r3, [r3, #32]
 8003346:	f023 0201 	bic.w	r2, r3, #1
 800334a:	68fb      	ldr	r3, [r7, #12]
 800334c:	621a      	str	r2, [r3, #32]
  tmpccmr1 = TIMx->CCMR1;
 800334e:	68fb      	ldr	r3, [r7, #12]
 8003350:	699b      	ldr	r3, [r3, #24]
 8003352:	617b      	str	r3, [r7, #20]
  tmpccer = TIMx->CCER;
 8003354:	68fb      	ldr	r3, [r7, #12]
 8003356:	6a1b      	ldr	r3, [r3, #32]
 8003358:	613b      	str	r3, [r7, #16]

  /* Select the Input */
  if (IS_TIM_CC2_INSTANCE(TIMx) != RESET)
 800335a:	68fb      	ldr	r3, [r7, #12]
 800335c:	4a28      	ldr	r2, [pc, #160]	; (8003400 <TIM_TI1_SetConfig+0xcc>)
 800335e:	4293      	cmp	r3, r2
 8003360:	d01b      	beq.n	800339a <TIM_TI1_SetConfig+0x66>
 8003362:	68fb      	ldr	r3, [r7, #12]
 8003364:	f1b3 4f80 	cmp.w	r3, #1073741824	; 0x40000000
 8003368:	d017      	beq.n	800339a <TIM_TI1_SetConfig+0x66>
 800336a:	68fb      	ldr	r3, [r7, #12]
 800336c:	4a25      	ldr	r2, [pc, #148]	; (8003404 <TIM_TI1_SetConfig+0xd0>)
 800336e:	4293      	cmp	r3, r2
 8003370:	d013      	beq.n	800339a <TIM_TI1_SetConfig+0x66>
 8003372:	68fb      	ldr	r3, [r7, #12]
 8003374:	4a24      	ldr	r2, [pc, #144]	; (8003408 <TIM_TI1_SetConfig+0xd4>)
 8003376:	4293      	cmp	r3, r2
 8003378:	d00f      	beq.n	800339a <TIM_TI1_SetConfig+0x66>
 800337a:	68fb      	ldr	r3, [r7, #12]
 800337c:	4a23      	ldr	r2, [pc, #140]	; (800340c <TIM_TI1_SetConfig+0xd8>)
 800337e:	4293      	cmp	r3, r2
 8003380:	d00b      	beq.n	800339a <TIM_TI1_SetConfig+0x66>
 8003382:	68fb      	ldr	r3, [r7, #12]
 8003384:	4a22      	ldr	r2, [pc, #136]	; (8003410 <TIM_TI1_SetConfig+0xdc>)
 8003386:	4293      	cmp	r3, r2
 8003388:	d007      	beq.n	800339a <TIM_TI1_SetConfig+0x66>
 800338a:	68fb      	ldr	r3, [r7, #12]
 800338c:	4a21      	ldr	r2, [pc, #132]	; (8003414 <TIM_TI1_SetConfig+0xe0>)
 800338e:	4293      	cmp	r3, r2
 8003390:	d003      	beq.n	800339a <TIM_TI1_SetConfig+0x66>
 8003392:	68fb      	ldr	r3, [r7, #12]
 8003394:	4a20      	ldr	r2, [pc, #128]	; (8003418 <TIM_TI1_SetConfig+0xe4>)
 8003396:	4293      	cmp	r3, r2
 8003398:	d101      	bne.n	800339e <TIM_TI1_SetConfig+0x6a>
 800339a:	2301      	movs	r3, #1
 800339c:	e000      	b.n	80033a0 <TIM_TI1_SetConfig+0x6c>
 800339e:	2300      	movs	r3, #0
 80033a0:	2b00      	cmp	r3, #0
 80033a2:	d008      	beq.n	80033b6 <TIM_TI1_SetConfig+0x82>
  {
    tmpccmr1 &= ~TIM_CCMR1_CC1S;
 80033a4:	697b      	ldr	r3, [r7, #20]
 80033a6:	f023 0303 	bic.w	r3, r3, #3
 80033aa:	617b      	str	r3, [r7, #20]
    tmpccmr1 |= TIM_ICSelection;
 80033ac:	697a      	ldr	r2, [r7, #20]
 80033ae:	687b      	ldr	r3, [r7, #4]
 80033b0:	4313      	orrs	r3, r2
 80033b2:	617b      	str	r3, [r7, #20]
 80033b4:	e003      	b.n	80033be <TIM_TI1_SetConfig+0x8a>
  }
  else
  {
    tmpccmr1 |= TIM_CCMR1_CC1S_0;
 80033b6:	697b      	ldr	r3, [r7, #20]
 80033b8:	f043 0301 	orr.w	r3, r3, #1
 80033bc:	617b      	str	r3, [r7, #20]
  }

  /* Set the filter */
  tmpccmr1 &= ~TIM_CCMR1_IC1F;
 80033be:	697b      	ldr	r3, [r7, #20]
 80033c0:	f023 03f0 	bic.w	r3, r3, #240	; 0xf0
 80033c4:	617b      	str	r3, [r7, #20]
  tmpccmr1 |= ((TIM_ICFilter << 4U) & TIM_CCMR1_IC1F);
 80033c6:	683b      	ldr	r3, [r7, #0]
 80033c8:	011b      	lsls	r3, r3, #4
 80033ca:	b2db      	uxtb	r3, r3
 80033cc:	697a      	ldr	r2, [r7, #20]
 80033ce:	4313      	orrs	r3, r2
 80033d0:	617b      	str	r3, [r7, #20]

  /* Select the Polarity and set the CC1E Bit */
  tmpccer &= ~(TIM_CCER_CC1P | TIM_CCER_CC1NP);
 80033d2:	693b      	ldr	r3, [r7, #16]
 80033d4:	f023 030a 	bic.w	r3, r3, #10
 80033d8:	613b      	str	r3, [r7, #16]
  tmpccer |= (TIM_ICPolarity & (TIM_CCER_CC1P | TIM_CCER_CC1NP));
 80033da:	68bb      	ldr	r3, [r7, #8]
 80033dc:	f003 030a 	and.w	r3, r3, #10
 80033e0:	693a      	ldr	r2, [r7, #16]
 80033e2:	4313      	orrs	r3, r2
 80033e4:	613b      	str	r3, [r7, #16]

  /* Write to TIMx CCMR1 and CCER registers */
  TIMx->CCMR1 = tmpccmr1;
 80033e6:	68fb      	ldr	r3, [r7, #12]
 80033e8:	697a      	ldr	r2, [r7, #20]
 80033ea:	619a      	str	r2, [r3, #24]
  TIMx->CCER = tmpccer;
 80033ec:	68fb      	ldr	r3, [r7, #12]
 80033ee:	693a      	ldr	r2, [r7, #16]
 80033f0:	621a      	str	r2, [r3, #32]
}
 80033f2:	bf00      	nop
 80033f4:	371c      	adds	r7, #28
 80033f6:	46bd      	mov	sp, r7
 80033f8:	f85d 7b04 	ldr.w	r7, [sp], #4
 80033fc:	4770      	bx	lr
 80033fe:	bf00      	nop
 8003400:	40010000 	.word	0x40010000
 8003404:	40000400 	.word	0x40000400
 8003408:	40000800 	.word	0x40000800
 800340c:	40000c00 	.word	0x40000c00
 8003410:	40010400 	.word	0x40010400
 8003414:	40014000 	.word	0x40014000
 8003418:	40001800 	.word	0x40001800

0800341c <TIM_TI1_ConfigInputStage>:
  * @param  TIM_ICFilter Specifies the Input Capture Filter.
  *          This parameter must be a value between 0x00 and 0x0F.
  * @retval None
  */
static void TIM_TI1_ConfigInputStage(TIM_TypeDef *TIMx, uint32_t TIM_ICPolarity, uint32_t TIM_ICFilter)
{
 800341c:	b480      	push	{r7}
 800341e:	b087      	sub	sp, #28
 8003420:	af00      	add	r7, sp, #0
 8003422:	60f8      	str	r0, [r7, #12]
 8003424:	60b9      	str	r1, [r7, #8]
 8003426:	607a      	str	r2, [r7, #4]
  uint32_t tmpccmr1;
  uint32_t tmpccer;

  /* Disable the Channel 1: Reset the CC1E Bit */
  tmpccer = TIMx->CCER;
 8003428:	68fb      	ldr	r3, [r7, #12]
 800342a:	6a1b      	ldr	r3, [r3, #32]
 800342c:	617b      	str	r3, [r7, #20]
  TIMx->CCER &= ~TIM_CCER_CC1E;
 800342e:	68fb      	ldr	r3, [r7, #12]
 8003430:	6a1b      	ldr	r3, [r3, #32]
 8003432:	f023 0201 	bic.w	r2, r3, #1
 8003436:	68fb      	ldr	r3, [r7, #12]
 8003438:	621a      	str	r2, [r3, #32]
  tmpccmr1 = TIMx->CCMR1;
 800343a:	68fb      	ldr	r3, [r7, #12]
 800343c:	699b      	ldr	r3, [r3, #24]
 800343e:	613b      	str	r3, [r7, #16]

  /* Set the filter */
  tmpccmr1 &= ~TIM_CCMR1_IC1F;
 8003440:	693b      	ldr	r3, [r7, #16]
 8003442:	f023 03f0 	bic.w	r3, r3, #240	; 0xf0
 8003446:	613b      	str	r3, [r7, #16]
  tmpccmr1 |= (TIM_ICFilter << 4U);
 8003448:	687b      	ldr	r3, [r7, #4]
 800344a:	011b      	lsls	r3, r3, #4
 800344c:	693a      	ldr	r2, [r7, #16]
 800344e:	4313      	orrs	r3, r2
 8003450:	613b      	str	r3, [r7, #16]

  /* Select the Polarity and set the CC1E Bit */
  tmpccer &= ~(TIM_CCER_CC1P | TIM_CCER_CC1NP);
 8003452:	697b      	ldr	r3, [r7, #20]
 8003454:	f023 030a 	bic.w	r3, r3, #10
 8003458:	617b      	str	r3, [r7, #20]
  tmpccer |= TIM_ICPolarity;
 800345a:	697a      	ldr	r2, [r7, #20]
 800345c:	68bb      	ldr	r3, [r7, #8]
 800345e:	4313      	orrs	r3, r2
 8003460:	617b      	str	r3, [r7, #20]

  /* Write to TIMx CCMR1 and CCER registers */
  TIMx->CCMR1 = tmpccmr1;
 8003462:	68fb      	ldr	r3, [r7, #12]
 8003464:	693a      	ldr	r2, [r7, #16]
 8003466:	619a      	str	r2, [r3, #24]
  TIMx->CCER = tmpccer;
 8003468:	68fb      	ldr	r3, [r7, #12]
 800346a:	697a      	ldr	r2, [r7, #20]
 800346c:	621a      	str	r2, [r3, #32]
}
 800346e:	bf00      	nop
 8003470:	371c      	adds	r7, #28
 8003472:	46bd      	mov	sp, r7
 8003474:	f85d 7b04 	ldr.w	r7, [sp], #4
 8003478:	4770      	bx	lr

0800347a <TIM_TI2_SetConfig>:
  *       (on channel1 path) is used as the input signal. Therefore CCMR1 must be
  *        protected against un-initialized filter and polarity values.
  */
static void TIM_TI2_SetConfig(TIM_TypeDef *TIMx, uint32_t TIM_ICPolarity, uint32_t TIM_ICSelection,
                              uint32_t TIM_ICFilter)
{
 800347a:	b480      	push	{r7}
 800347c:	b087      	sub	sp, #28
 800347e:	af00      	add	r7, sp, #0
 8003480:	60f8      	str	r0, [r7, #12]
 8003482:	60b9      	str	r1, [r7, #8]
 8003484:	607a      	str	r2, [r7, #4]
 8003486:	603b      	str	r3, [r7, #0]
  uint32_t tmpccmr1;
  uint32_t tmpccer;

  /* Disable the Channel 2: Reset the CC2E Bit */
  TIMx->CCER &= ~TIM_CCER_CC2E;
 8003488:	68fb      	ldr	r3, [r7, #12]
 800348a:	6a1b      	ldr	r3, [r3, #32]
 800348c:	f023 0210 	bic.w	r2, r3, #16
 8003490:	68fb      	ldr	r3, [r7, #12]
 8003492:	621a      	str	r2, [r3, #32]
  tmpccmr1 = TIMx->CCMR1;
 8003494:	68fb      	ldr	r3, [r7, #12]
 8003496:	699b      	ldr	r3, [r3, #24]
 8003498:	617b      	str	r3, [r7, #20]
  tmpccer = TIMx->CCER;
 800349a:	68fb      	ldr	r3, [r7, #12]
 800349c:	6a1b      	ldr	r3, [r3, #32]
 800349e:	613b      	str	r3, [r7, #16]

  /* Select the Input */
  tmpccmr1 &= ~TIM_CCMR1_CC2S;
 80034a0:	697b      	ldr	r3, [r7, #20]
 80034a2:	f423 7340 	bic.w	r3, r3, #768	; 0x300
 80034a6:	617b      	str	r3, [r7, #20]
  tmpccmr1 |= (TIM_ICSelection << 8U);
 80034a8:	687b      	ldr	r3, [r7, #4]
 80034aa:	021b      	lsls	r3, r3, #8
 80034ac:	697a      	ldr	r2, [r7, #20]
 80034ae:	4313      	orrs	r3, r2
 80034b0:	617b      	str	r3, [r7, #20]

  /* Set the filter */
  tmpccmr1 &= ~TIM_CCMR1_IC2F;
 80034b2:	697b      	ldr	r3, [r7, #20]
 80034b4:	f423 4370 	bic.w	r3, r3, #61440	; 0xf000
 80034b8:	617b      	str	r3, [r7, #20]
  tmpccmr1 |= ((TIM_ICFilter << 12U) & TIM_CCMR1_IC2F);
 80034ba:	683b      	ldr	r3, [r7, #0]
 80034bc:	031b      	lsls	r3, r3, #12
 80034be:	b29b      	uxth	r3, r3
 80034c0:	697a      	ldr	r2, [r7, #20]
 80034c2:	4313      	orrs	r3, r2
 80034c4:	617b      	str	r3, [r7, #20]

  /* Select the Polarity and set the CC2E Bit */
  tmpccer &= ~(TIM_CCER_CC2P | TIM_CCER_CC2NP);
 80034c6:	693b      	ldr	r3, [r7, #16]
 80034c8:	f023 03a0 	bic.w	r3, r3, #160	; 0xa0
 80034cc:	613b      	str	r3, [r7, #16]
  tmpccer |= ((TIM_ICPolarity << 4U) & (TIM_CCER_CC2P | TIM_CCER_CC2NP));
 80034ce:	68bb      	ldr	r3, [r7, #8]
 80034d0:	011b      	lsls	r3, r3, #4
 80034d2:	f003 03a0 	and.w	r3, r3, #160	; 0xa0
 80034d6:	693a      	ldr	r2, [r7, #16]
 80034d8:	4313      	orrs	r3, r2
 80034da:	613b      	str	r3, [r7, #16]

  /* Write to TIMx CCMR1 and CCER registers */
  TIMx->CCMR1 = tmpccmr1 ;
 80034dc:	68fb      	ldr	r3, [r7, #12]
 80034de:	697a      	ldr	r2, [r7, #20]
 80034e0:	619a      	str	r2, [r3, #24]
  TIMx->CCER = tmpccer;
 80034e2:	68fb      	ldr	r3, [r7, #12]
 80034e4:	693a      	ldr	r2, [r7, #16]
 80034e6:	621a      	str	r2, [r3, #32]
}
 80034e8:	bf00      	nop
 80034ea:	371c      	adds	r7, #28
 80034ec:	46bd      	mov	sp, r7
 80034ee:	f85d 7b04 	ldr.w	r7, [sp], #4
 80034f2:	4770      	bx	lr

080034f4 <TIM_TI2_ConfigInputStage>:
  * @param  TIM_ICFilter Specifies the Input Capture Filter.
  *          This parameter must be a value between 0x00 and 0x0F.
  * @retval None
  */
static void TIM_TI2_ConfigInputStage(TIM_TypeDef *TIMx, uint32_t TIM_ICPolarity, uint32_t TIM_ICFilter)
{
 80034f4:	b480      	push	{r7}
 80034f6:	b087      	sub	sp, #28
 80034f8:	af00      	add	r7, sp, #0
 80034fa:	60f8      	str	r0, [r7, #12]
 80034fc:	60b9      	str	r1, [r7, #8]
 80034fe:	607a      	str	r2, [r7, #4]
  uint32_t tmpccmr1;
  uint32_t tmpccer;

  /* Disable the Channel 2: Reset the CC2E Bit */
  TIMx->CCER &= ~TIM_CCER_CC2E;
 8003500:	68fb      	ldr	r3, [r7, #12]
 8003502:	6a1b      	ldr	r3, [r3, #32]
 8003504:	f023 0210 	bic.w	r2, r3, #16
 8003508:	68fb      	ldr	r3, [r7, #12]
 800350a:	621a      	str	r2, [r3, #32]
  tmpccmr1 = TIMx->CCMR1;
 800350c:	68fb      	ldr	r3, [r7, #12]
 800350e:	699b      	ldr	r3, [r3, #24]
 8003510:	617b      	str	r3, [r7, #20]
  tmpccer = TIMx->CCER;
 8003512:	68fb      	ldr	r3, [r7, #12]
 8003514:	6a1b      	ldr	r3, [r3, #32]
 8003516:	613b      	str	r3, [r7, #16]

  /* Set the filter */
  tmpccmr1 &= ~TIM_CCMR1_IC2F;
 8003518:	697b      	ldr	r3, [r7, #20]
 800351a:	f423 4370 	bic.w	r3, r3, #61440	; 0xf000
 800351e:	617b      	str	r3, [r7, #20]
  tmpccmr1 |= (TIM_ICFilter << 12U);
 8003520:	687b      	ldr	r3, [r7, #4]
 8003522:	031b      	lsls	r3, r3, #12
 8003524:	697a      	ldr	r2, [r7, #20]
 8003526:	4313      	orrs	r3, r2
 8003528:	617b      	str	r3, [r7, #20]

  /* Select the Polarity and set the CC2E Bit */
  tmpccer &= ~(TIM_CCER_CC2P | TIM_CCER_CC2NP);
 800352a:	693b      	ldr	r3, [r7, #16]
 800352c:	f023 03a0 	bic.w	r3, r3, #160	; 0xa0
 8003530:	613b      	str	r3, [r7, #16]
  tmpccer |= (TIM_ICPolarity << 4U);
 8003532:	68bb      	ldr	r3, [r7, #8]
 8003534:	011b      	lsls	r3, r3, #4
 8003536:	693a      	ldr	r2, [r7, #16]
 8003538:	4313      	orrs	r3, r2
 800353a:	613b      	str	r3, [r7, #16]

  /* Write to TIMx CCMR1 and CCER registers */
  TIMx->CCMR1 = tmpccmr1 ;
 800353c:	68fb      	ldr	r3, [r7, #12]
 800353e:	697a      	ldr	r2, [r7, #20]
 8003540:	619a      	str	r2, [r3, #24]
  TIMx->CCER = tmpccer;
 8003542:	68fb      	ldr	r3, [r7, #12]
 8003544:	693a      	ldr	r2, [r7, #16]
 8003546:	621a      	str	r2, [r3, #32]
}
 8003548:	bf00      	nop
 800354a:	371c      	adds	r7, #28
 800354c:	46bd      	mov	sp, r7
 800354e:	f85d 7b04 	ldr.w	r7, [sp], #4
 8003552:	4770      	bx	lr

08003554 <TIM_TI3_SetConfig>:
  *       (on channel1 path) is used as the input signal. Therefore CCMR2 must be
  *        protected against un-initialized filter and polarity values.
  */
static void TIM_TI3_SetConfig(TIM_TypeDef *TIMx, uint32_t TIM_ICPolarity, uint32_t TIM_ICSelection,
                              uint32_t TIM_ICFilter)
{
 8003554:	b480      	push	{r7}
 8003556:	b087      	sub	sp, #28
 8003558:	af00      	add	r7, sp, #0
 800355a:	60f8      	str	r0, [r7, #12]
 800355c:	60b9      	str	r1, [r7, #8]
 800355e:	607a      	str	r2, [r7, #4]
 8003560:	603b      	str	r3, [r7, #0]
  uint32_t tmpccmr2;
  uint32_t tmpccer;

  /* Disable the Channel 3: Reset the CC3E Bit */
  TIMx->CCER &= ~TIM_CCER_CC3E;
 8003562:	68fb      	ldr	r3, [r7, #12]
 8003564:	6a1b      	ldr	r3, [r3, #32]
 8003566:	f423 7280 	bic.w	r2, r3, #256	; 0x100
 800356a:	68fb      	ldr	r3, [r7, #12]
 800356c:	621a      	str	r2, [r3, #32]
  tmpccmr2 = TIMx->CCMR2;
 800356e:	68fb      	ldr	r3, [r7, #12]
 8003570:	69db      	ldr	r3, [r3, #28]
 8003572:	617b      	str	r3, [r7, #20]
  tmpccer = TIMx->CCER;
 8003574:	68fb      	ldr	r3, [r7, #12]
 8003576:	6a1b      	ldr	r3, [r3, #32]
 8003578:	613b      	str	r3, [r7, #16]

  /* Select the Input */
  tmpccmr2 &= ~TIM_CCMR2_CC3S;
 800357a:	697b      	ldr	r3, [r7, #20]
 800357c:	f023 0303 	bic.w	r3, r3, #3
 8003580:	617b      	str	r3, [r7, #20]
  tmpccmr2 |= TIM_ICSelection;
 8003582:	697a      	ldr	r2, [r7, #20]
 8003584:	687b      	ldr	r3, [r7, #4]
 8003586:	4313      	orrs	r3, r2
 8003588:	617b      	str	r3, [r7, #20]

  /* Set the filter */
  tmpccmr2 &= ~TIM_CCMR2_IC3F;
 800358a:	697b      	ldr	r3, [r7, #20]
 800358c:	f023 03f0 	bic.w	r3, r3, #240	; 0xf0
 8003590:	617b      	str	r3, [r7, #20]
  tmpccmr2 |= ((TIM_ICFilter << 4U) & TIM_CCMR2_IC3F);
 8003592:	683b      	ldr	r3, [r7, #0]
 8003594:	011b      	lsls	r3, r3, #4
 8003596:	b2db      	uxtb	r3, r3
 8003598:	697a      	ldr	r2, [r7, #20]
 800359a:	4313      	orrs	r3, r2
 800359c:	617b      	str	r3, [r7, #20]

  /* Select the Polarity and set the CC3E Bit */
  tmpccer &= ~(TIM_CCER_CC3P | TIM_CCER_CC3NP);
 800359e:	693b      	ldr	r3, [r7, #16]
 80035a0:	f423 6320 	bic.w	r3, r3, #2560	; 0xa00
 80035a4:	613b      	str	r3, [r7, #16]
  tmpccer |= ((TIM_ICPolarity << 8U) & (TIM_CCER_CC3P | TIM_CCER_CC3NP));
 80035a6:	68bb      	ldr	r3, [r7, #8]
 80035a8:	021b      	lsls	r3, r3, #8
 80035aa:	f403 6320 	and.w	r3, r3, #2560	; 0xa00
 80035ae:	693a      	ldr	r2, [r7, #16]
 80035b0:	4313      	orrs	r3, r2
 80035b2:	613b      	str	r3, [r7, #16]

  /* Write to TIMx CCMR2 and CCER registers */
  TIMx->CCMR2 = tmpccmr2;
 80035b4:	68fb      	ldr	r3, [r7, #12]
 80035b6:	697a      	ldr	r2, [r7, #20]
 80035b8:	61da      	str	r2, [r3, #28]
  TIMx->CCER = tmpccer;
 80035ba:	68fb      	ldr	r3, [r7, #12]
 80035bc:	693a      	ldr	r2, [r7, #16]
 80035be:	621a      	str	r2, [r3, #32]
}
 80035c0:	bf00      	nop
 80035c2:	371c      	adds	r7, #28
 80035c4:	46bd      	mov	sp, r7
 80035c6:	f85d 7b04 	ldr.w	r7, [sp], #4
 80035ca:	4770      	bx	lr

080035cc <TIM_TI4_SetConfig>:
  *        protected against un-initialized filter and polarity values.
  * @retval None
  */
static void TIM_TI4_SetConfig(TIM_TypeDef *TIMx, uint32_t TIM_ICPolarity, uint32_t TIM_ICSelection,
                              uint32_t TIM_ICFilter)
{
 80035cc:	b480      	push	{r7}
 80035ce:	b087      	sub	sp, #28
 80035d0:	af00      	add	r7, sp, #0
 80035d2:	60f8      	str	r0, [r7, #12]
 80035d4:	60b9      	str	r1, [r7, #8]
 80035d6:	607a      	str	r2, [r7, #4]
 80035d8:	603b      	str	r3, [r7, #0]
  uint32_t tmpccmr2;
  uint32_t tmpccer;

  /* Disable the Channel 4: Reset the CC4E Bit */
  TIMx->CCER &= ~TIM_CCER_CC4E;
 80035da:	68fb      	ldr	r3, [r7, #12]
 80035dc:	6a1b      	ldr	r3, [r3, #32]
 80035de:	f423 5280 	bic.w	r2, r3, #4096	; 0x1000
 80035e2:	68fb      	ldr	r3, [r7, #12]
 80035e4:	621a      	str	r2, [r3, #32]
  tmpccmr2 = TIMx->CCMR2;
 80035e6:	68fb      	ldr	r3, [r7, #12]
 80035e8:	69db      	ldr	r3, [r3, #28]
 80035ea:	617b      	str	r3, [r7, #20]
  tmpccer = TIMx->CCER;
 80035ec:	68fb      	ldr	r3, [r7, #12]
 80035ee:	6a1b      	ldr	r3, [r3, #32]
 80035f0:	613b      	str	r3, [r7, #16]

  /* Select the Input */
  tmpccmr2 &= ~TIM_CCMR2_CC4S;
 80035f2:	697b      	ldr	r3, [r7, #20]
 80035f4:	f423 7340 	bic.w	r3, r3, #768	; 0x300
 80035f8:	617b      	str	r3, [r7, #20]
  tmpccmr2 |= (TIM_ICSelection << 8U);
 80035fa:	687b      	ldr	r3, [r7, #4]
 80035fc:	021b      	lsls	r3, r3, #8
 80035fe:	697a      	ldr	r2, [r7, #20]
 8003600:	4313      	orrs	r3, r2
 8003602:	617b      	str	r3, [r7, #20]

  /* Set the filter */
  tmpccmr2 &= ~TIM_CCMR2_IC4F;
 8003604:	697b      	ldr	r3, [r7, #20]
 8003606:	f423 4370 	bic.w	r3, r3, #61440	; 0xf000
 800360a:	617b      	str	r3, [r7, #20]
  tmpccmr2 |= ((TIM_ICFilter << 12U) & TIM_CCMR2_IC4F);
 800360c:	683b      	ldr	r3, [r7, #0]
 800360e:	031b      	lsls	r3, r3, #12
 8003610:	b29b      	uxth	r3, r3
 8003612:	697a      	ldr	r2, [r7, #20]
 8003614:	4313      	orrs	r3, r2
 8003616:	617b      	str	r3, [r7, #20]

  /* Select the Polarity and set the CC4E Bit */
  tmpccer &= ~(TIM_CCER_CC4P | TIM_CCER_CC4NP);
 8003618:	693b      	ldr	r3, [r7, #16]
 800361a:	f423 4320 	bic.w	r3, r3, #40960	; 0xa000
 800361e:	613b      	str	r3, [r7, #16]
  tmpccer |= ((TIM_ICPolarity << 12U) & (TIM_CCER_CC4P | TIM_CCER_CC4NP));
 8003620:	68bb      	ldr	r3, [r7, #8]
 8003622:	031b      	lsls	r3, r3, #12
 8003624:	f403 4320 	and.w	r3, r3, #40960	; 0xa000
 8003628:	693a      	ldr	r2, [r7, #16]
 800362a:	4313      	orrs	r3, r2
 800362c:	613b      	str	r3, [r7, #16]

  /* Write to TIMx CCMR2 and CCER registers */
  TIMx->CCMR2 = tmpccmr2;
 800362e:	68fb      	ldr	r3, [r7, #12]
 8003630:	697a      	ldr	r2, [r7, #20]
 8003632:	61da      	str	r2, [r3, #28]
  TIMx->CCER = tmpccer ;
 8003634:	68fb      	ldr	r3, [r7, #12]
 8003636:	693a      	ldr	r2, [r7, #16]
 8003638:	621a      	str	r2, [r3, #32]
}
 800363a:	bf00      	nop
 800363c:	371c      	adds	r7, #28
 800363e:	46bd      	mov	sp, r7
 8003640:	f85d 7b04 	ldr.w	r7, [sp], #4
 8003644:	4770      	bx	lr

08003646 <TIM_ITRx_SetConfig>:
  *            @arg TIM_TS_TI2FP2: Filtered Timer Input 2
  *            @arg TIM_TS_ETRF: External Trigger input
  * @retval None
  */
static void TIM_ITRx_SetConfig(TIM_TypeDef *TIMx, uint32_t InputTriggerSource)
{
 8003646:	b480      	push	{r7}
 8003648:	b085      	sub	sp, #20
 800364a:	af00      	add	r7, sp, #0
 800364c:	6078      	str	r0, [r7, #4]
 800364e:	6039      	str	r1, [r7, #0]
  uint32_t tmpsmcr;

  /* Get the TIMx SMCR register value */
  tmpsmcr = TIMx->SMCR;
 8003650:	687b      	ldr	r3, [r7, #4]
 8003652:	689b      	ldr	r3, [r3, #8]
 8003654:	60fb      	str	r3, [r7, #12]
  /* Reset the TS Bits */
  tmpsmcr &= ~TIM_SMCR_TS;
 8003656:	68fb      	ldr	r3, [r7, #12]
 8003658:	f023 0370 	bic.w	r3, r3, #112	; 0x70
 800365c:	60fb      	str	r3, [r7, #12]
  /* Set the Input Trigger source and the slave mode*/
  tmpsmcr |= (InputTriggerSource | TIM_SLAVEMODE_EXTERNAL1);
 800365e:	683a      	ldr	r2, [r7, #0]
 8003660:	68fb      	ldr	r3, [r7, #12]
 8003662:	4313      	orrs	r3, r2
 8003664:	f043 0307 	orr.w	r3, r3, #7
 8003668:	60fb      	str	r3, [r7, #12]
  /* Write to TIMx SMCR */
  TIMx->SMCR = tmpsmcr;
 800366a:	687b      	ldr	r3, [r7, #4]
 800366c:	68fa      	ldr	r2, [r7, #12]
 800366e:	609a      	str	r2, [r3, #8]
}
 8003670:	bf00      	nop
 8003672:	3714      	adds	r7, #20
 8003674:	46bd      	mov	sp, r7
 8003676:	f85d 7b04 	ldr.w	r7, [sp], #4
 800367a:	4770      	bx	lr

0800367c <TIM_ETR_SetConfig>:
  *          This parameter must be a value between 0x00 and 0x0F
  * @retval None
  */
void TIM_ETR_SetConfig(TIM_TypeDef *TIMx, uint32_t TIM_ExtTRGPrescaler,
                       uint32_t TIM_ExtTRGPolarity, uint32_t ExtTRGFilter)
{
 800367c:	b480      	push	{r7}
 800367e:	b087      	sub	sp, #28
 8003680:	af00      	add	r7, sp, #0
 8003682:	60f8      	str	r0, [r7, #12]
 8003684:	60b9      	str	r1, [r7, #8]
 8003686:	607a      	str	r2, [r7, #4]
 8003688:	603b      	str	r3, [r7, #0]
  uint32_t tmpsmcr;

  tmpsmcr = TIMx->SMCR;
 800368a:	68fb      	ldr	r3, [r7, #12]
 800368c:	689b      	ldr	r3, [r3, #8]
 800368e:	617b      	str	r3, [r7, #20]

  /* Reset the ETR Bits */
  tmpsmcr &= ~(TIM_SMCR_ETF | TIM_SMCR_ETPS | TIM_SMCR_ECE | TIM_SMCR_ETP);
 8003690:	697b      	ldr	r3, [r7, #20]
 8003692:	f423 437f 	bic.w	r3, r3, #65280	; 0xff00
 8003696:	617b      	str	r3, [r7, #20]

  /* Set the Prescaler, the Filter value and the Polarity */
  tmpsmcr |= (uint32_t)(TIM_ExtTRGPrescaler | (TIM_ExtTRGPolarity | (ExtTRGFilter << 8U)));
 8003698:	683b      	ldr	r3, [r7, #0]
 800369a:	021a      	lsls	r2, r3, #8
 800369c:	687b      	ldr	r3, [r7, #4]
 800369e:	431a      	orrs	r2, r3
 80036a0:	68bb      	ldr	r3, [r7, #8]
 80036a2:	4313      	orrs	r3, r2
 80036a4:	697a      	ldr	r2, [r7, #20]
 80036a6:	4313      	orrs	r3, r2
 80036a8:	617b      	str	r3, [r7, #20]

  /* Write to TIMx SMCR */
  TIMx->SMCR = tmpsmcr;
 80036aa:	68fb      	ldr	r3, [r7, #12]
 80036ac:	697a      	ldr	r2, [r7, #20]
 80036ae:	609a      	str	r2, [r3, #8]
}
 80036b0:	bf00      	nop
 80036b2:	371c      	adds	r7, #28
 80036b4:	46bd      	mov	sp, r7
 80036b6:	f85d 7b04 	ldr.w	r7, [sp], #4
 80036ba:	4770      	bx	lr

080036bc <TIM_CCxChannelCmd>:
  * @param  ChannelState specifies the TIM Channel CCxE bit new state.
  *          This parameter can be: TIM_CCx_ENABLE or TIM_CCx_DISABLE.
  * @retval None
  */
void TIM_CCxChannelCmd(TIM_TypeDef *TIMx, uint32_t Channel, uint32_t ChannelState)
{
 80036bc:	b480      	push	{r7}
 80036be:	b087      	sub	sp, #28
 80036c0:	af00      	add	r7, sp, #0
 80036c2:	60f8      	str	r0, [r7, #12]
 80036c4:	60b9      	str	r1, [r7, #8]
 80036c6:	607a      	str	r2, [r7, #4]

  /* Check the parameters */
  assert_param(IS_TIM_CC1_INSTANCE(TIMx));
  assert_param(IS_TIM_CHANNELS(Channel));

  tmp = TIM_CCER_CC1E << (Channel & 0x1FU); /* 0x1FU = 31 bits max shift */
 80036c8:	68bb      	ldr	r3, [r7, #8]
 80036ca:	f003 031f 	and.w	r3, r3, #31
 80036ce:	2201      	movs	r2, #1
 80036d0:	fa02 f303 	lsl.w	r3, r2, r3
 80036d4:	617b      	str	r3, [r7, #20]

  /* Reset the CCxE Bit */
  TIMx->CCER &= ~tmp;
 80036d6:	68fb      	ldr	r3, [r7, #12]
 80036d8:	6a1a      	ldr	r2, [r3, #32]
 80036da:	697b      	ldr	r3, [r7, #20]
 80036dc:	43db      	mvns	r3, r3
 80036de:	401a      	ands	r2, r3
 80036e0:	68fb      	ldr	r3, [r7, #12]
 80036e2:	621a      	str	r2, [r3, #32]

  /* Set or reset the CCxE Bit */
  TIMx->CCER |= (uint32_t)(ChannelState << (Channel & 0x1FU)); /* 0x1FU = 31 bits max shift */
 80036e4:	68fb      	ldr	r3, [r7, #12]
 80036e6:	6a1a      	ldr	r2, [r3, #32]
 80036e8:	68bb      	ldr	r3, [r7, #8]
 80036ea:	f003 031f 	and.w	r3, r3, #31
 80036ee:	6879      	ldr	r1, [r7, #4]
 80036f0:	fa01 f303 	lsl.w	r3, r1, r3
 80036f4:	431a      	orrs	r2, r3
 80036f6:	68fb      	ldr	r3, [r7, #12]
 80036f8:	621a      	str	r2, [r3, #32]
}
 80036fa:	bf00      	nop
 80036fc:	371c      	adds	r7, #28
 80036fe:	46bd      	mov	sp, r7
 8003700:	f85d 7b04 	ldr.w	r7, [sp], #4
 8003704:	4770      	bx	lr
	...

08003708 <HAL_TIMEx_MasterConfigSynchronization>:
  *         mode.
  * @retval HAL status
  */
HAL_StatusTypeDef HAL_TIMEx_MasterConfigSynchronization(TIM_HandleTypeDef *htim,
                                                        TIM_MasterConfigTypeDef *sMasterConfig)
{
 8003708:	b480      	push	{r7}
 800370a:	b085      	sub	sp, #20
 800370c:	af00      	add	r7, sp, #0
 800370e:	6078      	str	r0, [r7, #4]
 8003710:	6039      	str	r1, [r7, #0]
  assert_param(IS_TIM_MASTER_INSTANCE(htim->Instance));
  assert_param(IS_TIM_TRGO_SOURCE(sMasterConfig->MasterOutputTrigger));
  assert_param(IS_TIM_MSM_STATE(sMasterConfig->MasterSlaveMode));

  /* Check input state */
  __HAL_LOCK(htim);
 8003712:	687b      	ldr	r3, [r7, #4]
 8003714:	f893 303c 	ldrb.w	r3, [r3, #60]	; 0x3c
 8003718:	2b01      	cmp	r3, #1
 800371a:	d101      	bne.n	8003720 <HAL_TIMEx_MasterConfigSynchronization+0x18>
 800371c:	2302      	movs	r3, #2
 800371e:	e05a      	b.n	80037d6 <HAL_TIMEx_MasterConfigSynchronization+0xce>
 8003720:	687b      	ldr	r3, [r7, #4]
 8003722:	2201      	movs	r2, #1
 8003724:	f883 203c 	strb.w	r2, [r3, #60]	; 0x3c

  /* Change the handler state */
  htim->State = HAL_TIM_STATE_BUSY;
 8003728:	687b      	ldr	r3, [r7, #4]
 800372a:	2202      	movs	r2, #2
 800372c:	f883 203d 	strb.w	r2, [r3, #61]	; 0x3d

  /* Get the TIMx CR2 register value */
  tmpcr2 = htim->Instance->CR2;
 8003730:	687b      	ldr	r3, [r7, #4]
 8003732:	681b      	ldr	r3, [r3, #0]
 8003734:	685b      	ldr	r3, [r3, #4]
 8003736:	60fb      	str	r3, [r7, #12]

  /* Get the TIMx SMCR register value */
  tmpsmcr = htim->Instance->SMCR;
 8003738:	687b      	ldr	r3, [r7, #4]
 800373a:	681b      	ldr	r3, [r3, #0]
 800373c:	689b      	ldr	r3, [r3, #8]
 800373e:	60bb      	str	r3, [r7, #8]

  /* Reset the MMS Bits */
  tmpcr2 &= ~TIM_CR2_MMS;
 8003740:	68fb      	ldr	r3, [r7, #12]
 8003742:	f023 0370 	bic.w	r3, r3, #112	; 0x70
 8003746:	60fb      	str	r3, [r7, #12]
  /* Select the TRGO source */
  tmpcr2 |=  sMasterConfig->MasterOutputTrigger;
 8003748:	683b      	ldr	r3, [r7, #0]
 800374a:	681b      	ldr	r3, [r3, #0]
 800374c:	68fa      	ldr	r2, [r7, #12]
 800374e:	4313      	orrs	r3, r2
 8003750:	60fb      	str	r3, [r7, #12]

  /* Update TIMx CR2 */
  htim->Instance->CR2 = tmpcr2;
 8003752:	687b      	ldr	r3, [r7, #4]
 8003754:	681b      	ldr	r3, [r3, #0]
 8003756:	68fa      	ldr	r2, [r7, #12]
 8003758:	605a      	str	r2, [r3, #4]

  if (IS_TIM_SLAVE_INSTANCE(htim->Instance))
 800375a:	687b      	ldr	r3, [r7, #4]
 800375c:	681b      	ldr	r3, [r3, #0]
 800375e:	4a21      	ldr	r2, [pc, #132]	; (80037e4 <HAL_TIMEx_MasterConfigSynchronization+0xdc>)
 8003760:	4293      	cmp	r3, r2
 8003762:	d022      	beq.n	80037aa <HAL_TIMEx_MasterConfigSynchronization+0xa2>
 8003764:	687b      	ldr	r3, [r7, #4]
 8003766:	681b      	ldr	r3, [r3, #0]
 8003768:	f1b3 4f80 	cmp.w	r3, #1073741824	; 0x40000000
 800376c:	d01d      	beq.n	80037aa <HAL_TIMEx_MasterConfigSynchronization+0xa2>
 800376e:	687b      	ldr	r3, [r7, #4]
 8003770:	681b      	ldr	r3, [r3, #0]
 8003772:	4a1d      	ldr	r2, [pc, #116]	; (80037e8 <HAL_TIMEx_MasterConfigSynchronization+0xe0>)
 8003774:	4293      	cmp	r3, r2
 8003776:	d018      	beq.n	80037aa <HAL_TIMEx_MasterConfigSynchronization+0xa2>
 8003778:	687b      	ldr	r3, [r7, #4]
 800377a:	681b      	ldr	r3, [r3, #0]
 800377c:	4a1b      	ldr	r2, [pc, #108]	; (80037ec <HAL_TIMEx_MasterConfigSynchronization+0xe4>)
 800377e:	4293      	cmp	r3, r2
 8003780:	d013      	beq.n	80037aa <HAL_TIMEx_MasterConfigSynchronization+0xa2>
 8003782:	687b      	ldr	r3, [r7, #4]
 8003784:	681b      	ldr	r3, [r3, #0]
 8003786:	4a1a      	ldr	r2, [pc, #104]	; (80037f0 <HAL_TIMEx_MasterConfigSynchronization+0xe8>)
 8003788:	4293      	cmp	r3, r2
 800378a:	d00e      	beq.n	80037aa <HAL_TIMEx_MasterConfigSynchronization+0xa2>
 800378c:	687b      	ldr	r3, [r7, #4]
 800378e:	681b      	ldr	r3, [r3, #0]
 8003790:	4a18      	ldr	r2, [pc, #96]	; (80037f4 <HAL_TIMEx_MasterConfigSynchronization+0xec>)
 8003792:	4293      	cmp	r3, r2
 8003794:	d009      	beq.n	80037aa <HAL_TIMEx_MasterConfigSynchronization+0xa2>
 8003796:	687b      	ldr	r3, [r7, #4]
 8003798:	681b      	ldr	r3, [r3, #0]
 800379a:	4a17      	ldr	r2, [pc, #92]	; (80037f8 <HAL_TIMEx_MasterConfigSynchronization+0xf0>)
 800379c:	4293      	cmp	r3, r2
 800379e:	d004      	beq.n	80037aa <HAL_TIMEx_MasterConfigSynchronization+0xa2>
 80037a0:	687b      	ldr	r3, [r7, #4]
 80037a2:	681b      	ldr	r3, [r3, #0]
 80037a4:	4a15      	ldr	r2, [pc, #84]	; (80037fc <HAL_TIMEx_MasterConfigSynchronization+0xf4>)
 80037a6:	4293      	cmp	r3, r2
 80037a8:	d10c      	bne.n	80037c4 <HAL_TIMEx_MasterConfigSynchronization+0xbc>
  {
    /* Reset the MSM Bit */
    tmpsmcr &= ~TIM_SMCR_MSM;
 80037aa:	68bb      	ldr	r3, [r7, #8]
 80037ac:	f023 0380 	bic.w	r3, r3, #128	; 0x80
 80037b0:	60bb      	str	r3, [r7, #8]
    /* Set master mode */
    tmpsmcr |= sMasterConfig->MasterSlaveMode;
 80037b2:	683b      	ldr	r3, [r7, #0]
 80037b4:	685b      	ldr	r3, [r3, #4]
 80037b6:	68ba      	ldr	r2, [r7, #8]
 80037b8:	4313      	orrs	r3, r2
 80037ba:	60bb      	str	r3, [r7, #8]

    /* Update TIMx SMCR */
    htim->Instance->SMCR = tmpsmcr;
 80037bc:	687b      	ldr	r3, [r7, #4]
 80037be:	681b      	ldr	r3, [r3, #0]
 80037c0:	68ba      	ldr	r2, [r7, #8]
 80037c2:	609a      	str	r2, [r3, #8]
  }

  /* Change the htim state */
  htim->State = HAL_TIM_STATE_READY;
 80037c4:	687b      	ldr	r3, [r7, #4]
 80037c6:	2201      	movs	r2, #1
 80037c8:	f883 203d 	strb.w	r2, [r3, #61]	; 0x3d

  __HAL_UNLOCK(htim);
 80037cc:	687b      	ldr	r3, [r7, #4]
 80037ce:	2200      	movs	r2, #0
 80037d0:	f883 203c 	strb.w	r2, [r3, #60]	; 0x3c

  return HAL_OK;
 80037d4:	2300      	movs	r3, #0
}
 80037d6:	4618      	mov	r0, r3
 80037d8:	3714      	adds	r7, #20
 80037da:	46bd      	mov	sp, r7
 80037dc:	f85d 7b04 	ldr.w	r7, [sp], #4
 80037e0:	4770      	bx	lr
 80037e2:	bf00      	nop
 80037e4:	40010000 	.word	0x40010000
 80037e8:	40000400 	.word	0x40000400
 80037ec:	40000800 	.word	0x40000800
 80037f0:	40000c00 	.word	0x40000c00
 80037f4:	40010400 	.word	0x40010400
 80037f8:	40014000 	.word	0x40014000
 80037fc:	40001800 	.word	0x40001800

08003800 <HAL_TIMEx_CommutCallback>:
  * @brief  Hall commutation changed callback in non-blocking mode
  * @param  htim TIM handle
  * @retval None
  */
__weak void HAL_TIMEx_CommutCallback(TIM_HandleTypeDef *htim)
{
 8003800:	b480      	push	{r7}
 8003802:	b083      	sub	sp, #12
 8003804:	af00      	add	r7, sp, #0
 8003806:	6078      	str	r0, [r7, #4]
  UNUSED(htim);

  /* NOTE : This function should not be modified, when the callback is needed,
            the HAL_TIMEx_CommutCallback could be implemented in the user file
   */
}
 8003808:	bf00      	nop
 800380a:	370c      	adds	r7, #12
 800380c:	46bd      	mov	sp, r7
 800380e:	f85d 7b04 	ldr.w	r7, [sp], #4
 8003812:	4770      	bx	lr

08003814 <HAL_TIMEx_BreakCallback>:
  * @brief  Hall Break detection callback in non-blocking mode
  * @param  htim TIM handle
  * @retval None
  */
__weak void HAL_TIMEx_BreakCallback(TIM_HandleTypeDef *htim)
{
 8003814:	b480      	push	{r7}
 8003816:	b083      	sub	sp, #12
 8003818:	af00      	add	r7, sp, #0
 800381a:	6078      	str	r0, [r7, #4]
  UNUSED(htim);

  /* NOTE : This function should not be modified, when the callback is needed,
            the HAL_TIMEx_BreakCallback could be implemented in the user file
   */
}
 800381c:	bf00      	nop
 800381e:	370c      	adds	r7, #12
 8003820:	46bd      	mov	sp, r7
 8003822:	f85d 7b04 	ldr.w	r7, [sp], #4
 8003826:	4770      	bx	lr

08003828 <HAL_UART_Init>:
  * @param  huart  Pointer to a UART_HandleTypeDef structure that contains
  *                the configuration information for the specified UART module.
  * @retval HAL status
  */
HAL_StatusTypeDef HAL_UART_Init(UART_HandleTypeDef *huart)
{
 8003828:	b580      	push	{r7, lr}
 800382a:	b082      	sub	sp, #8
 800382c:	af00      	add	r7, sp, #0
 800382e:	6078      	str	r0, [r7, #4]
  /* Check the UART handle allocation */
  if (huart == NULL)
 8003830:	687b      	ldr	r3, [r7, #4]
 8003832:	2b00      	cmp	r3, #0
 8003834:	d101      	bne.n	800383a <HAL_UART_Init+0x12>
  {
    return HAL_ERROR;
 8003836:	2301      	movs	r3, #1
 8003838:	e03f      	b.n	80038ba <HAL_UART_Init+0x92>
    assert_param(IS_UART_INSTANCE(huart->Instance));
  }
  assert_param(IS_UART_WORD_LENGTH(huart->Init.WordLength));
  assert_param(IS_UART_OVERSAMPLING(huart->Init.OverSampling));

  if (huart->gState == HAL_UART_STATE_RESET)
 800383a:	687b      	ldr	r3, [r7, #4]
 800383c:	f893 303d 	ldrb.w	r3, [r3, #61]	; 0x3d
 8003840:	b2db      	uxtb	r3, r3
 8003842:	2b00      	cmp	r3, #0
 8003844:	d106      	bne.n	8003854 <HAL_UART_Init+0x2c>
  {
    /* Allocate lock resource and initialize it */
    huart->Lock = HAL_UNLOCKED;
 8003846:	687b      	ldr	r3, [r7, #4]
 8003848:	2200      	movs	r2, #0
 800384a:	f883 203c 	strb.w	r2, [r3, #60]	; 0x3c

    /* Init the low level hardware */
    huart->MspInitCallback(huart);
#else
    /* Init the low level hardware : GPIO, CLOCK */
    HAL_UART_MspInit(huart);
 800384e:	6878      	ldr	r0, [r7, #4]
 8003850:	f7fd fdb0 	bl	80013b4 <HAL_UART_MspInit>
#endif /* (USE_HAL_UART_REGISTER_CALLBACKS) */
  }

  huart->gState = HAL_UART_STATE_BUSY;
 8003854:	687b      	ldr	r3, [r7, #4]
 8003856:	2224      	movs	r2, #36	; 0x24
 8003858:	f883 203d 	strb.w	r2, [r3, #61]	; 0x3d

  /* Disable the peripheral */
  __HAL_UART_DISABLE(huart);
 800385c:	687b      	ldr	r3, [r7, #4]
 800385e:	681b      	ldr	r3, [r3, #0]
 8003860:	68da      	ldr	r2, [r3, #12]
 8003862:	687b      	ldr	r3, [r7, #4]
 8003864:	681b      	ldr	r3, [r3, #0]
 8003866:	f422 5200 	bic.w	r2, r2, #8192	; 0x2000
 800386a:	60da      	str	r2, [r3, #12]

  /* Set the UART Communication parameters */
  UART_SetConfig(huart);
 800386c:	6878      	ldr	r0, [r7, #4]
 800386e:	f000 f929 	bl	8003ac4 <UART_SetConfig>

  /* In asynchronous mode, the following bits must be kept cleared:
     - LINEN and CLKEN bits in the USART_CR2 register,
     - SCEN, HDSEL and IREN  bits in the USART_CR3 register.*/
  CLEAR_BIT(huart->Instance->CR2, (USART_CR2_LINEN | USART_CR2_CLKEN));
 8003872:	687b      	ldr	r3, [r7, #4]
 8003874:	681b      	ldr	r3, [r3, #0]
 8003876:	691a      	ldr	r2, [r3, #16]
 8003878:	687b      	ldr	r3, [r7, #4]
 800387a:	681b      	ldr	r3, [r3, #0]
 800387c:	f422 4290 	bic.w	r2, r2, #18432	; 0x4800
 8003880:	611a      	str	r2, [r3, #16]
  CLEAR_BIT(huart->Instance->CR3, (USART_CR3_SCEN | USART_CR3_HDSEL | USART_CR3_IREN));
 8003882:	687b      	ldr	r3, [r7, #4]
 8003884:	681b      	ldr	r3, [r3, #0]
 8003886:	695a      	ldr	r2, [r3, #20]
 8003888:	687b      	ldr	r3, [r7, #4]
 800388a:	681b      	ldr	r3, [r3, #0]
 800388c:	f022 022a 	bic.w	r2, r2, #42	; 0x2a
 8003890:	615a      	str	r2, [r3, #20]

  /* Enable the peripheral */
  __HAL_UART_ENABLE(huart);
 8003892:	687b      	ldr	r3, [r7, #4]
 8003894:	681b      	ldr	r3, [r3, #0]
 8003896:	68da      	ldr	r2, [r3, #12]
 8003898:	687b      	ldr	r3, [r7, #4]
 800389a:	681b      	ldr	r3, [r3, #0]
 800389c:	f442 5200 	orr.w	r2, r2, #8192	; 0x2000
 80038a0:	60da      	str	r2, [r3, #12]

  /* Initialize the UART state */
  huart->ErrorCode = HAL_UART_ERROR_NONE;
 80038a2:	687b      	ldr	r3, [r7, #4]
 80038a4:	2200      	movs	r2, #0
 80038a6:	641a      	str	r2, [r3, #64]	; 0x40
  huart->gState = HAL_UART_STATE_READY;
 80038a8:	687b      	ldr	r3, [r7, #4]
 80038aa:	2220      	movs	r2, #32
 80038ac:	f883 203d 	strb.w	r2, [r3, #61]	; 0x3d
  huart->RxState = HAL_UART_STATE_READY;
 80038b0:	687b      	ldr	r3, [r7, #4]
 80038b2:	2220      	movs	r2, #32
 80038b4:	f883 203e 	strb.w	r2, [r3, #62]	; 0x3e

  return HAL_OK;
 80038b8:	2300      	movs	r3, #0
}
 80038ba:	4618      	mov	r0, r3
 80038bc:	3708      	adds	r7, #8
 80038be:	46bd      	mov	sp, r7
 80038c0:	bd80      	pop	{r7, pc}

080038c2 <HAL_UART_Transmit>:
  * @param  Size  Amount of data elements (u8 or u16) to be sent
  * @param  Timeout Timeout duration
  * @retval HAL status
  */
HAL_StatusTypeDef HAL_UART_Transmit(UART_HandleTypeDef *huart, uint8_t *pData, uint16_t Size, uint32_t Timeout)
{
 80038c2:	b580      	push	{r7, lr}
 80038c4:	b08a      	sub	sp, #40	; 0x28
 80038c6:	af02      	add	r7, sp, #8
 80038c8:	60f8      	str	r0, [r7, #12]
 80038ca:	60b9      	str	r1, [r7, #8]
 80038cc:	603b      	str	r3, [r7, #0]
 80038ce:	4613      	mov	r3, r2
 80038d0:	80fb      	strh	r3, [r7, #6]
  uint8_t  *pdata8bits;
  uint16_t *pdata16bits;
  uint32_t tickstart = 0U;
 80038d2:	2300      	movs	r3, #0
 80038d4:	617b      	str	r3, [r7, #20]

  /* Check that a Tx process is not already ongoing */
  if (huart->gState == HAL_UART_STATE_READY)
 80038d6:	68fb      	ldr	r3, [r7, #12]
 80038d8:	f893 303d 	ldrb.w	r3, [r3, #61]	; 0x3d
 80038dc:	b2db      	uxtb	r3, r3
 80038de:	2b20      	cmp	r3, #32
 80038e0:	d17c      	bne.n	80039dc <HAL_UART_Transmit+0x11a>
  {
    if ((pData == NULL) || (Size == 0U))
 80038e2:	68bb      	ldr	r3, [r7, #8]
 80038e4:	2b00      	cmp	r3, #0
 80038e6:	d002      	beq.n	80038ee <HAL_UART_Transmit+0x2c>
 80038e8:	88fb      	ldrh	r3, [r7, #6]
 80038ea:	2b00      	cmp	r3, #0
 80038ec:	d101      	bne.n	80038f2 <HAL_UART_Transmit+0x30>
    {
      return  HAL_ERROR;
 80038ee:	2301      	movs	r3, #1
 80038f0:	e075      	b.n	80039de <HAL_UART_Transmit+0x11c>
    }

    /* Process Locked */
    __HAL_LOCK(huart);
 80038f2:	68fb      	ldr	r3, [r7, #12]
 80038f4:	f893 303c 	ldrb.w	r3, [r3, #60]	; 0x3c
 80038f8:	2b01      	cmp	r3, #1
 80038fa:	d101      	bne.n	8003900 <HAL_UART_Transmit+0x3e>
 80038fc:	2302      	movs	r3, #2
 80038fe:	e06e      	b.n	80039de <HAL_UART_Transmit+0x11c>
 8003900:	68fb      	ldr	r3, [r7, #12]
 8003902:	2201      	movs	r2, #1
 8003904:	f883 203c 	strb.w	r2, [r3, #60]	; 0x3c

    huart->ErrorCode = HAL_UART_ERROR_NONE;
 8003908:	68fb      	ldr	r3, [r7, #12]
 800390a:	2200      	movs	r2, #0
 800390c:	641a      	str	r2, [r3, #64]	; 0x40
    huart->gState = HAL_UART_STATE_BUSY_TX;
 800390e:	68fb      	ldr	r3, [r7, #12]
 8003910:	2221      	movs	r2, #33	; 0x21
 8003912:	f883 203d 	strb.w	r2, [r3, #61]	; 0x3d

    /* Init tickstart for timeout management */
    tickstart = HAL_GetTick();
 8003916:	f7fd ff33 	bl	8001780 <HAL_GetTick>
 800391a:	6178      	str	r0, [r7, #20]

    huart->TxXferSize = Size;
 800391c:	68fb      	ldr	r3, [r7, #12]
 800391e:	88fa      	ldrh	r2, [r7, #6]
 8003920:	849a      	strh	r2, [r3, #36]	; 0x24
    huart->TxXferCount = Size;
 8003922:	68fb      	ldr	r3, [r7, #12]
 8003924:	88fa      	ldrh	r2, [r7, #6]
 8003926:	84da      	strh	r2, [r3, #38]	; 0x26

    /* In case of 9bits/No Parity transfer, pData needs to be handled as a uint16_t pointer */
    if ((huart->Init.WordLength == UART_WORDLENGTH_9B) && (huart->Init.Parity == UART_PARITY_NONE))
 8003928:	68fb      	ldr	r3, [r7, #12]
 800392a:	689b      	ldr	r3, [r3, #8]
 800392c:	f5b3 5f80 	cmp.w	r3, #4096	; 0x1000
 8003930:	d108      	bne.n	8003944 <HAL_UART_Transmit+0x82>
 8003932:	68fb      	ldr	r3, [r7, #12]
 8003934:	691b      	ldr	r3, [r3, #16]
 8003936:	2b00      	cmp	r3, #0
 8003938:	d104      	bne.n	8003944 <HAL_UART_Transmit+0x82>
    {
      pdata8bits  = NULL;
 800393a:	2300      	movs	r3, #0
 800393c:	61fb      	str	r3, [r7, #28]
      pdata16bits = (uint16_t *) pData;
 800393e:	68bb      	ldr	r3, [r7, #8]
 8003940:	61bb      	str	r3, [r7, #24]
 8003942:	e003      	b.n	800394c <HAL_UART_Transmit+0x8a>
    }
    else
    {
      pdata8bits  = pData;
 8003944:	68bb      	ldr	r3, [r7, #8]
 8003946:	61fb      	str	r3, [r7, #28]
      pdata16bits = NULL;
 8003948:	2300      	movs	r3, #0
 800394a:	61bb      	str	r3, [r7, #24]
    }

    /* Process Unlocked */
    __HAL_UNLOCK(huart);
 800394c:	68fb      	ldr	r3, [r7, #12]
 800394e:	2200      	movs	r2, #0
 8003950:	f883 203c 	strb.w	r2, [r3, #60]	; 0x3c

    while (huart->TxXferCount > 0U)
 8003954:	e02a      	b.n	80039ac <HAL_UART_Transmit+0xea>
    {
      if (UART_WaitOnFlagUntilTimeout(huart, UART_FLAG_TXE, RESET, tickstart, Timeout) != HAL_OK)
 8003956:	683b      	ldr	r3, [r7, #0]
 8003958:	9300      	str	r3, [sp, #0]
 800395a:	697b      	ldr	r3, [r7, #20]
 800395c:	2200      	movs	r2, #0
 800395e:	2180      	movs	r1, #128	; 0x80
 8003960:	68f8      	ldr	r0, [r7, #12]
 8003962:	f000 f840 	bl	80039e6 <UART_WaitOnFlagUntilTimeout>
 8003966:	4603      	mov	r3, r0
 8003968:	2b00      	cmp	r3, #0
 800396a:	d001      	beq.n	8003970 <HAL_UART_Transmit+0xae>
      {
        return HAL_TIMEOUT;
 800396c:	2303      	movs	r3, #3
 800396e:	e036      	b.n	80039de <HAL_UART_Transmit+0x11c>
      }
      if (pdata8bits == NULL)
 8003970:	69fb      	ldr	r3, [r7, #28]
 8003972:	2b00      	cmp	r3, #0
 8003974:	d10b      	bne.n	800398e <HAL_UART_Transmit+0xcc>
      {
        huart->Instance->DR = (uint16_t)(*pdata16bits & 0x01FFU);
 8003976:	69bb      	ldr	r3, [r7, #24]
 8003978:	881b      	ldrh	r3, [r3, #0]
 800397a:	461a      	mov	r2, r3
 800397c:	68fb      	ldr	r3, [r7, #12]
 800397e:	681b      	ldr	r3, [r3, #0]
 8003980:	f3c2 0208 	ubfx	r2, r2, #0, #9
 8003984:	605a      	str	r2, [r3, #4]
        pdata16bits++;
 8003986:	69bb      	ldr	r3, [r7, #24]
 8003988:	3302      	adds	r3, #2
 800398a:	61bb      	str	r3, [r7, #24]
 800398c:	e007      	b.n	800399e <HAL_UART_Transmit+0xdc>
      }
      else
      {
        huart->Instance->DR = (uint8_t)(*pdata8bits & 0xFFU);
 800398e:	69fb      	ldr	r3, [r7, #28]
 8003990:	781a      	ldrb	r2, [r3, #0]
 8003992:	68fb      	ldr	r3, [r7, #12]
 8003994:	681b      	ldr	r3, [r3, #0]
 8003996:	605a      	str	r2, [r3, #4]
        pdata8bits++;
 8003998:	69fb      	ldr	r3, [r7, #28]
 800399a:	3301      	adds	r3, #1
 800399c:	61fb      	str	r3, [r7, #28]
      }
      huart->TxXferCount--;
 800399e:	68fb      	ldr	r3, [r7, #12]
 80039a0:	8cdb      	ldrh	r3, [r3, #38]	; 0x26
 80039a2:	b29b      	uxth	r3, r3
 80039a4:	3b01      	subs	r3, #1
 80039a6:	b29a      	uxth	r2, r3
 80039a8:	68fb      	ldr	r3, [r7, #12]
 80039aa:	84da      	strh	r2, [r3, #38]	; 0x26
    while (huart->TxXferCount > 0U)
 80039ac:	68fb      	ldr	r3, [r7, #12]
 80039ae:	8cdb      	ldrh	r3, [r3, #38]	; 0x26
 80039b0:	b29b      	uxth	r3, r3
 80039b2:	2b00      	cmp	r3, #0
 80039b4:	d1cf      	bne.n	8003956 <HAL_UART_Transmit+0x94>
    }

    if (UART_WaitOnFlagUntilTimeout(huart, UART_FLAG_TC, RESET, tickstart, Timeout) != HAL_OK)
 80039b6:	683b      	ldr	r3, [r7, #0]
 80039b8:	9300      	str	r3, [sp, #0]
 80039ba:	697b      	ldr	r3, [r7, #20]
 80039bc:	2200      	movs	r2, #0
 80039be:	2140      	movs	r1, #64	; 0x40
 80039c0:	68f8      	ldr	r0, [r7, #12]
 80039c2:	f000 f810 	bl	80039e6 <UART_WaitOnFlagUntilTimeout>
 80039c6:	4603      	mov	r3, r0
 80039c8:	2b00      	cmp	r3, #0
 80039ca:	d001      	beq.n	80039d0 <HAL_UART_Transmit+0x10e>
    {
      return HAL_TIMEOUT;
 80039cc:	2303      	movs	r3, #3
 80039ce:	e006      	b.n	80039de <HAL_UART_Transmit+0x11c>
    }

    /* At end of Tx process, restore huart->gState to Ready */
    huart->gState = HAL_UART_STATE_READY;
 80039d0:	68fb      	ldr	r3, [r7, #12]
 80039d2:	2220      	movs	r2, #32
 80039d4:	f883 203d 	strb.w	r2, [r3, #61]	; 0x3d

    return HAL_OK;
 80039d8:	2300      	movs	r3, #0
 80039da:	e000      	b.n	80039de <HAL_UART_Transmit+0x11c>
  }
  else
  {
    return HAL_BUSY;
 80039dc:	2302      	movs	r3, #2
  }
}
 80039de:	4618      	mov	r0, r3
 80039e0:	3720      	adds	r7, #32
 80039e2:	46bd      	mov	sp, r7
 80039e4:	bd80      	pop	{r7, pc}

080039e6 <UART_WaitOnFlagUntilTimeout>:
  * @param  Timeout Timeout duration
  * @retval HAL status
  */
static HAL_StatusTypeDef UART_WaitOnFlagUntilTimeout(UART_HandleTypeDef *huart, uint32_t Flag, FlagStatus Status,
                                                     uint32_t Tickstart, uint32_t Timeout)
{
 80039e6:	b580      	push	{r7, lr}
 80039e8:	b090      	sub	sp, #64	; 0x40
 80039ea:	af00      	add	r7, sp, #0
 80039ec:	60f8      	str	r0, [r7, #12]
 80039ee:	60b9      	str	r1, [r7, #8]
 80039f0:	603b      	str	r3, [r7, #0]
 80039f2:	4613      	mov	r3, r2
 80039f4:	71fb      	strb	r3, [r7, #7]
  /* Wait until flag is set */
  while ((__HAL_UART_GET_FLAG(huart, Flag) ? SET : RESET) == Status)
 80039f6:	e050      	b.n	8003a9a <UART_WaitOnFlagUntilTimeout+0xb4>
  {
    /* Check for the Timeout */
    if (Timeout != HAL_MAX_DELAY)
 80039f8:	6cbb      	ldr	r3, [r7, #72]	; 0x48
 80039fa:	f1b3 3fff 	cmp.w	r3, #4294967295	; 0xffffffff
 80039fe:	d04c      	beq.n	8003a9a <UART_WaitOnFlagUntilTimeout+0xb4>
    {
      if ((Timeout == 0U) || ((HAL_GetTick() - Tickstart) > Timeout))
 8003a00:	6cbb      	ldr	r3, [r7, #72]	; 0x48
 8003a02:	2b00      	cmp	r3, #0
 8003a04:	d007      	beq.n	8003a16 <UART_WaitOnFlagUntilTimeout+0x30>
 8003a06:	f7fd febb 	bl	8001780 <HAL_GetTick>
 8003a0a:	4602      	mov	r2, r0
 8003a0c:	683b      	ldr	r3, [r7, #0]
 8003a0e:	1ad3      	subs	r3, r2, r3
 8003a10:	6cba      	ldr	r2, [r7, #72]	; 0x48
 8003a12:	429a      	cmp	r2, r3
 8003a14:	d241      	bcs.n	8003a9a <UART_WaitOnFlagUntilTimeout+0xb4>
      {
        /* Disable TXE, RXNE, PE and ERR (Frame error, noise error, overrun error) interrupts for the interrupt process */
        ATOMIC_CLEAR_BIT(huart->Instance->CR1, (USART_CR1_RXNEIE | USART_CR1_PEIE | USART_CR1_TXEIE));
 8003a16:	68fb      	ldr	r3, [r7, #12]
 8003a18:	681b      	ldr	r3, [r3, #0]
 8003a1a:	330c      	adds	r3, #12
 8003a1c:	62bb      	str	r3, [r7, #40]	; 0x28
 */
__STATIC_FORCEINLINE uint32_t __LDREXW(volatile uint32_t *addr)
{
    uint32_t result;

   __ASM volatile ("ldrex %0, %1" : "=r" (result) : "Q" (*addr) );
 8003a1e:	6abb      	ldr	r3, [r7, #40]	; 0x28
 8003a20:	e853 3f00 	ldrex	r3, [r3]
 8003a24:	627b      	str	r3, [r7, #36]	; 0x24
   return(result);
 8003a26:	6a7b      	ldr	r3, [r7, #36]	; 0x24
 8003a28:	f423 73d0 	bic.w	r3, r3, #416	; 0x1a0
 8003a2c:	63fb      	str	r3, [r7, #60]	; 0x3c
 8003a2e:	68fb      	ldr	r3, [r7, #12]
 8003a30:	681b      	ldr	r3, [r3, #0]
 8003a32:	330c      	adds	r3, #12
 8003a34:	6bfa      	ldr	r2, [r7, #60]	; 0x3c
 8003a36:	637a      	str	r2, [r7, #52]	; 0x34
 8003a38:	633b      	str	r3, [r7, #48]	; 0x30
 */
__STATIC_FORCEINLINE uint32_t __STREXW(uint32_t value, volatile uint32_t *addr)
{
   uint32_t result;

   __ASM volatile ("strex %0, %2, %1" : "=&r" (result), "=Q" (*addr) : "r" (value) );
 8003a3a:	6b39      	ldr	r1, [r7, #48]	; 0x30
 8003a3c:	6b7a      	ldr	r2, [r7, #52]	; 0x34
 8003a3e:	e841 2300 	strex	r3, r2, [r1]
 8003a42:	62fb      	str	r3, [r7, #44]	; 0x2c
   return(result);
 8003a44:	6afb      	ldr	r3, [r7, #44]	; 0x2c
 8003a46:	2b00      	cmp	r3, #0
 8003a48:	d1e5      	bne.n	8003a16 <UART_WaitOnFlagUntilTimeout+0x30>
        ATOMIC_CLEAR_BIT(huart->Instance->CR3, USART_CR3_EIE);
 8003a4a:	68fb      	ldr	r3, [r7, #12]
 8003a4c:	681b      	ldr	r3, [r3, #0]
 8003a4e:	3314      	adds	r3, #20
 8003a50:	617b      	str	r3, [r7, #20]
   __ASM volatile ("ldrex %0, %1" : "=r" (result) : "Q" (*addr) );
 8003a52:	697b      	ldr	r3, [r7, #20]
 8003a54:	e853 3f00 	ldrex	r3, [r3]
 8003a58:	613b      	str	r3, [r7, #16]
   return(result);
 8003a5a:	693b      	ldr	r3, [r7, #16]
 8003a5c:	f023 0301 	bic.w	r3, r3, #1
 8003a60:	63bb      	str	r3, [r7, #56]	; 0x38
 8003a62:	68fb      	ldr	r3, [r7, #12]
 8003a64:	681b      	ldr	r3, [r3, #0]
 8003a66:	3314      	adds	r3, #20
 8003a68:	6bba      	ldr	r2, [r7, #56]	; 0x38
 8003a6a:	623a      	str	r2, [r7, #32]
 8003a6c:	61fb      	str	r3, [r7, #28]
   __ASM volatile ("strex %0, %2, %1" : "=&r" (result), "=Q" (*addr) : "r" (value) );
 8003a6e:	69f9      	ldr	r1, [r7, #28]
 8003a70:	6a3a      	ldr	r2, [r7, #32]
 8003a72:	e841 2300 	strex	r3, r2, [r1]
 8003a76:	61bb      	str	r3, [r7, #24]
   return(result);
 8003a78:	69bb      	ldr	r3, [r7, #24]
 8003a7a:	2b00      	cmp	r3, #0
 8003a7c:	d1e5      	bne.n	8003a4a <UART_WaitOnFlagUntilTimeout+0x64>

        huart->gState  = HAL_UART_STATE_READY;
 8003a7e:	68fb      	ldr	r3, [r7, #12]
 8003a80:	2220      	movs	r2, #32
 8003a82:	f883 203d 	strb.w	r2, [r3, #61]	; 0x3d
        huart->RxState = HAL_UART_STATE_READY;
 8003a86:	68fb      	ldr	r3, [r7, #12]
 8003a88:	2220      	movs	r2, #32
 8003a8a:	f883 203e 	strb.w	r2, [r3, #62]	; 0x3e

        /* Process Unlocked */
        __HAL_UNLOCK(huart);
 8003a8e:	68fb      	ldr	r3, [r7, #12]
 8003a90:	2200      	movs	r2, #0
 8003a92:	f883 203c 	strb.w	r2, [r3, #60]	; 0x3c

        return HAL_TIMEOUT;
 8003a96:	2303      	movs	r3, #3
 8003a98:	e00f      	b.n	8003aba <UART_WaitOnFlagUntilTimeout+0xd4>
  while ((__HAL_UART_GET_FLAG(huart, Flag) ? SET : RESET) == Status)
 8003a9a:	68fb      	ldr	r3, [r7, #12]
 8003a9c:	681b      	ldr	r3, [r3, #0]
 8003a9e:	681a      	ldr	r2, [r3, #0]
 8003aa0:	68bb      	ldr	r3, [r7, #8]
 8003aa2:	4013      	ands	r3, r2
 8003aa4:	68ba      	ldr	r2, [r7, #8]
 8003aa6:	429a      	cmp	r2, r3
 8003aa8:	bf0c      	ite	eq
 8003aaa:	2301      	moveq	r3, #1
 8003aac:	2300      	movne	r3, #0
 8003aae:	b2db      	uxtb	r3, r3
 8003ab0:	461a      	mov	r2, r3
 8003ab2:	79fb      	ldrb	r3, [r7, #7]
 8003ab4:	429a      	cmp	r2, r3
 8003ab6:	d09f      	beq.n	80039f8 <UART_WaitOnFlagUntilTimeout+0x12>
      }
    }
  }
  return HAL_OK;
 8003ab8:	2300      	movs	r3, #0
}
 8003aba:	4618      	mov	r0, r3
 8003abc:	3740      	adds	r7, #64	; 0x40
 8003abe:	46bd      	mov	sp, r7
 8003ac0:	bd80      	pop	{r7, pc}
	...

08003ac4 <UART_SetConfig>:
  * @param  huart  Pointer to a UART_HandleTypeDef structure that contains
  *                the configuration information for the specified UART module.
  * @retval None
  */
static void UART_SetConfig(UART_HandleTypeDef *huart)
{
 8003ac4:	e92d 4ff0 	stmdb	sp!, {r4, r5, r6, r7, r8, r9, sl, fp, lr}
 8003ac8:	b09f      	sub	sp, #124	; 0x7c
 8003aca:	af00      	add	r7, sp, #0
 8003acc:	66f8      	str	r0, [r7, #108]	; 0x6c
  assert_param(IS_UART_MODE(huart->Init.Mode));

  /*-------------------------- USART CR2 Configuration -----------------------*/
  /* Configure the UART Stop Bits: Set STOP[13:12] bits
     according to huart->Init.StopBits value */
  MODIFY_REG(huart->Instance->CR2, USART_CR2_STOP, huart->Init.StopBits);
 8003ace:	6efb      	ldr	r3, [r7, #108]	; 0x6c
 8003ad0:	681b      	ldr	r3, [r3, #0]
 8003ad2:	691b      	ldr	r3, [r3, #16]
 8003ad4:	f423 5040 	bic.w	r0, r3, #12288	; 0x3000
 8003ad8:	6efb      	ldr	r3, [r7, #108]	; 0x6c
 8003ada:	68d9      	ldr	r1, [r3, #12]
 8003adc:	6efb      	ldr	r3, [r7, #108]	; 0x6c
 8003ade:	681a      	ldr	r2, [r3, #0]
 8003ae0:	ea40 0301 	orr.w	r3, r0, r1
 8003ae4:	6113      	str	r3, [r2, #16]
     Set the M bits according to huart->Init.WordLength value
     Set PCE and PS bits according to huart->Init.Parity value
     Set TE and RE bits according to huart->Init.Mode value
     Set OVER8 bit according to huart->Init.OverSampling value */

  tmpreg = (uint32_t)huart->Init.WordLength | huart->Init.Parity | huart->Init.Mode | huart->Init.OverSampling;
 8003ae6:	6efb      	ldr	r3, [r7, #108]	; 0x6c
 8003ae8:	689a      	ldr	r2, [r3, #8]
 8003aea:	6efb      	ldr	r3, [r7, #108]	; 0x6c
 8003aec:	691b      	ldr	r3, [r3, #16]
 8003aee:	431a      	orrs	r2, r3
 8003af0:	6efb      	ldr	r3, [r7, #108]	; 0x6c
 8003af2:	695b      	ldr	r3, [r3, #20]
 8003af4:	431a      	orrs	r2, r3
 8003af6:	6efb      	ldr	r3, [r7, #108]	; 0x6c
 8003af8:	69db      	ldr	r3, [r3, #28]
 8003afa:	4313      	orrs	r3, r2
 8003afc:	673b      	str	r3, [r7, #112]	; 0x70
  MODIFY_REG(huart->Instance->CR1,
 8003afe:	6efb      	ldr	r3, [r7, #108]	; 0x6c
 8003b00:	681b      	ldr	r3, [r3, #0]
 8003b02:	68db      	ldr	r3, [r3, #12]
 8003b04:	f423 4116 	bic.w	r1, r3, #38400	; 0x9600
 8003b08:	f021 010c 	bic.w	r1, r1, #12
 8003b0c:	6efb      	ldr	r3, [r7, #108]	; 0x6c
 8003b0e:	681a      	ldr	r2, [r3, #0]
 8003b10:	6f3b      	ldr	r3, [r7, #112]	; 0x70
 8003b12:	430b      	orrs	r3, r1
 8003b14:	60d3      	str	r3, [r2, #12]
             (uint32_t)(USART_CR1_M | USART_CR1_PCE | USART_CR1_PS | USART_CR1_TE | USART_CR1_RE | USART_CR1_OVER8),
             tmpreg);

  /*-------------------------- USART CR3 Configuration -----------------------*/
  /* Configure the UART HFC: Set CTSE and RTSE bits according to huart->Init.HwFlowCtl value */
  MODIFY_REG(huart->Instance->CR3, (USART_CR3_RTSE | USART_CR3_CTSE), huart->Init.HwFlowCtl);
 8003b16:	6efb      	ldr	r3, [r7, #108]	; 0x6c
 8003b18:	681b      	ldr	r3, [r3, #0]
 8003b1a:	695b      	ldr	r3, [r3, #20]
 8003b1c:	f423 7040 	bic.w	r0, r3, #768	; 0x300
 8003b20:	6efb      	ldr	r3, [r7, #108]	; 0x6c
 8003b22:	6999      	ldr	r1, [r3, #24]
 8003b24:	6efb      	ldr	r3, [r7, #108]	; 0x6c
 8003b26:	681a      	ldr	r2, [r3, #0]
 8003b28:	ea40 0301 	orr.w	r3, r0, r1
 8003b2c:	6153      	str	r3, [r2, #20]
    if ((huart->Instance == USART1) || (huart->Instance == USART6) || (huart->Instance == UART9) || (huart->Instance == UART10))
    {
      pclk = HAL_RCC_GetPCLK2Freq();
    }
#elif defined(USART6)
    if ((huart->Instance == USART1) || (huart->Instance == USART6))
 8003b2e:	6efb      	ldr	r3, [r7, #108]	; 0x6c
 8003b30:	681a      	ldr	r2, [r3, #0]
 8003b32:	4bc5      	ldr	r3, [pc, #788]	; (8003e48 <UART_SetConfig+0x384>)
 8003b34:	429a      	cmp	r2, r3
 8003b36:	d004      	beq.n	8003b42 <UART_SetConfig+0x7e>
 8003b38:	6efb      	ldr	r3, [r7, #108]	; 0x6c
 8003b3a:	681a      	ldr	r2, [r3, #0]
 8003b3c:	4bc3      	ldr	r3, [pc, #780]	; (8003e4c <UART_SetConfig+0x388>)
 8003b3e:	429a      	cmp	r2, r3
 8003b40:	d103      	bne.n	8003b4a <UART_SetConfig+0x86>
    {
      pclk = HAL_RCC_GetPCLK2Freq();
 8003b42:	f7fe fa13 	bl	8001f6c <HAL_RCC_GetPCLK2Freq>
 8003b46:	6778      	str	r0, [r7, #116]	; 0x74
 8003b48:	e002      	b.n	8003b50 <UART_SetConfig+0x8c>
      pclk = HAL_RCC_GetPCLK2Freq();
    }
#endif /* USART6 */
    else
    {
      pclk = HAL_RCC_GetPCLK1Freq();
 8003b4a:	f7fe f9fb 	bl	8001f44 <HAL_RCC_GetPCLK1Freq>
 8003b4e:	6778      	str	r0, [r7, #116]	; 0x74
    }
  /*-------------------------- USART BRR Configuration ---------------------*/
  if (huart->Init.OverSampling == UART_OVERSAMPLING_8)
 8003b50:	6efb      	ldr	r3, [r7, #108]	; 0x6c
 8003b52:	69db      	ldr	r3, [r3, #28]
 8003b54:	f5b3 4f00 	cmp.w	r3, #32768	; 0x8000
 8003b58:	f040 80b6 	bne.w	8003cc8 <UART_SetConfig+0x204>
  {
    huart->Instance->BRR = UART_BRR_SAMPLING8(pclk, huart->Init.BaudRate);
 8003b5c:	6f7b      	ldr	r3, [r7, #116]	; 0x74
 8003b5e:	461c      	mov	r4, r3
 8003b60:	f04f 0500 	mov.w	r5, #0
 8003b64:	4622      	mov	r2, r4
 8003b66:	462b      	mov	r3, r5
 8003b68:	1891      	adds	r1, r2, r2
 8003b6a:	6439      	str	r1, [r7, #64]	; 0x40
 8003b6c:	415b      	adcs	r3, r3
 8003b6e:	647b      	str	r3, [r7, #68]	; 0x44
 8003b70:	e9d7 2310 	ldrd	r2, r3, [r7, #64]	; 0x40
 8003b74:	1912      	adds	r2, r2, r4
 8003b76:	eb45 0303 	adc.w	r3, r5, r3
 8003b7a:	f04f 0000 	mov.w	r0, #0
 8003b7e:	f04f 0100 	mov.w	r1, #0
 8003b82:	00d9      	lsls	r1, r3, #3
 8003b84:	ea41 7152 	orr.w	r1, r1, r2, lsr #29
 8003b88:	00d0      	lsls	r0, r2, #3
 8003b8a:	4602      	mov	r2, r0
 8003b8c:	460b      	mov	r3, r1
 8003b8e:	1911      	adds	r1, r2, r4
 8003b90:	6639      	str	r1, [r7, #96]	; 0x60
 8003b92:	416b      	adcs	r3, r5
 8003b94:	667b      	str	r3, [r7, #100]	; 0x64
 8003b96:	6efb      	ldr	r3, [r7, #108]	; 0x6c
 8003b98:	685b      	ldr	r3, [r3, #4]
 8003b9a:	461a      	mov	r2, r3
 8003b9c:	f04f 0300 	mov.w	r3, #0
 8003ba0:	1891      	adds	r1, r2, r2
 8003ba2:	63b9      	str	r1, [r7, #56]	; 0x38
 8003ba4:	415b      	adcs	r3, r3
 8003ba6:	63fb      	str	r3, [r7, #60]	; 0x3c
 8003ba8:	e9d7 230e 	ldrd	r2, r3, [r7, #56]	; 0x38
 8003bac:	e9d7 0118 	ldrd	r0, r1, [r7, #96]	; 0x60
 8003bb0:	f7fd f81a 	bl	8000be8 <__aeabi_uldivmod>
 8003bb4:	4602      	mov	r2, r0
 8003bb6:	460b      	mov	r3, r1
 8003bb8:	4ba5      	ldr	r3, [pc, #660]	; (8003e50 <UART_SetConfig+0x38c>)
 8003bba:	fba3 2302 	umull	r2, r3, r3, r2
 8003bbe:	095b      	lsrs	r3, r3, #5
 8003bc0:	011e      	lsls	r6, r3, #4
 8003bc2:	6f7b      	ldr	r3, [r7, #116]	; 0x74
 8003bc4:	461c      	mov	r4, r3
 8003bc6:	f04f 0500 	mov.w	r5, #0
 8003bca:	4622      	mov	r2, r4
 8003bcc:	462b      	mov	r3, r5
 8003bce:	1891      	adds	r1, r2, r2
 8003bd0:	6339      	str	r1, [r7, #48]	; 0x30
 8003bd2:	415b      	adcs	r3, r3
 8003bd4:	637b      	str	r3, [r7, #52]	; 0x34
 8003bd6:	e9d7 230c 	ldrd	r2, r3, [r7, #48]	; 0x30
 8003bda:	1912      	adds	r2, r2, r4
 8003bdc:	eb45 0303 	adc.w	r3, r5, r3
 8003be0:	f04f 0000 	mov.w	r0, #0
 8003be4:	f04f 0100 	mov.w	r1, #0
 8003be8:	00d9      	lsls	r1, r3, #3
 8003bea:	ea41 7152 	orr.w	r1, r1, r2, lsr #29
 8003bee:	00d0      	lsls	r0, r2, #3
 8003bf0:	4602      	mov	r2, r0
 8003bf2:	460b      	mov	r3, r1
 8003bf4:	1911      	adds	r1, r2, r4
 8003bf6:	65b9      	str	r1, [r7, #88]	; 0x58
 8003bf8:	416b      	adcs	r3, r5
 8003bfa:	65fb      	str	r3, [r7, #92]	; 0x5c
 8003bfc:	6efb      	ldr	r3, [r7, #108]	; 0x6c
 8003bfe:	685b      	ldr	r3, [r3, #4]
 8003c00:	461a      	mov	r2, r3
 8003c02:	f04f 0300 	mov.w	r3, #0
 8003c06:	1891      	adds	r1, r2, r2
 8003c08:	62b9      	str	r1, [r7, #40]	; 0x28
 8003c0a:	415b      	adcs	r3, r3
 8003c0c:	62fb      	str	r3, [r7, #44]	; 0x2c
 8003c0e:	e9d7 230a 	ldrd	r2, r3, [r7, #40]	; 0x28
 8003c12:	e9d7 0116 	ldrd	r0, r1, [r7, #88]	; 0x58
 8003c16:	f7fc ffe7 	bl	8000be8 <__aeabi_uldivmod>
 8003c1a:	4602      	mov	r2, r0
 8003c1c:	460b      	mov	r3, r1
 8003c1e:	4b8c      	ldr	r3, [pc, #560]	; (8003e50 <UART_SetConfig+0x38c>)
 8003c20:	fba3 1302 	umull	r1, r3, r3, r2
 8003c24:	095b      	lsrs	r3, r3, #5
 8003c26:	2164      	movs	r1, #100	; 0x64
 8003c28:	fb01 f303 	mul.w	r3, r1, r3
 8003c2c:	1ad3      	subs	r3, r2, r3
 8003c2e:	00db      	lsls	r3, r3, #3
 8003c30:	3332      	adds	r3, #50	; 0x32
 8003c32:	4a87      	ldr	r2, [pc, #540]	; (8003e50 <UART_SetConfig+0x38c>)
 8003c34:	fba2 2303 	umull	r2, r3, r2, r3
 8003c38:	095b      	lsrs	r3, r3, #5
 8003c3a:	005b      	lsls	r3, r3, #1
 8003c3c:	f403 73f8 	and.w	r3, r3, #496	; 0x1f0
 8003c40:	441e      	add	r6, r3
 8003c42:	6f7b      	ldr	r3, [r7, #116]	; 0x74
 8003c44:	4618      	mov	r0, r3
 8003c46:	f04f 0100 	mov.w	r1, #0
 8003c4a:	4602      	mov	r2, r0
 8003c4c:	460b      	mov	r3, r1
 8003c4e:	1894      	adds	r4, r2, r2
 8003c50:	623c      	str	r4, [r7, #32]
 8003c52:	415b      	adcs	r3, r3
 8003c54:	627b      	str	r3, [r7, #36]	; 0x24
 8003c56:	e9d7 2308 	ldrd	r2, r3, [r7, #32]
 8003c5a:	1812      	adds	r2, r2, r0
 8003c5c:	eb41 0303 	adc.w	r3, r1, r3
 8003c60:	f04f 0400 	mov.w	r4, #0
 8003c64:	f04f 0500 	mov.w	r5, #0
 8003c68:	00dd      	lsls	r5, r3, #3
 8003c6a:	ea45 7552 	orr.w	r5, r5, r2, lsr #29
 8003c6e:	00d4      	lsls	r4, r2, #3
 8003c70:	4622      	mov	r2, r4
 8003c72:	462b      	mov	r3, r5
 8003c74:	1814      	adds	r4, r2, r0
 8003c76:	653c      	str	r4, [r7, #80]	; 0x50
 8003c78:	414b      	adcs	r3, r1
 8003c7a:	657b      	str	r3, [r7, #84]	; 0x54
 8003c7c:	6efb      	ldr	r3, [r7, #108]	; 0x6c
 8003c7e:	685b      	ldr	r3, [r3, #4]
 8003c80:	461a      	mov	r2, r3
 8003c82:	f04f 0300 	mov.w	r3, #0
 8003c86:	1891      	adds	r1, r2, r2
 8003c88:	61b9      	str	r1, [r7, #24]
 8003c8a:	415b      	adcs	r3, r3
 8003c8c:	61fb      	str	r3, [r7, #28]
 8003c8e:	e9d7 2306 	ldrd	r2, r3, [r7, #24]
 8003c92:	e9d7 0114 	ldrd	r0, r1, [r7, #80]	; 0x50
 8003c96:	f7fc ffa7 	bl	8000be8 <__aeabi_uldivmod>
 8003c9a:	4602      	mov	r2, r0
 8003c9c:	460b      	mov	r3, r1
 8003c9e:	4b6c      	ldr	r3, [pc, #432]	; (8003e50 <UART_SetConfig+0x38c>)
 8003ca0:	fba3 1302 	umull	r1, r3, r3, r2
 8003ca4:	095b      	lsrs	r3, r3, #5
 8003ca6:	2164      	movs	r1, #100	; 0x64
 8003ca8:	fb01 f303 	mul.w	r3, r1, r3
 8003cac:	1ad3      	subs	r3, r2, r3
 8003cae:	00db      	lsls	r3, r3, #3
 8003cb0:	3332      	adds	r3, #50	; 0x32
 8003cb2:	4a67      	ldr	r2, [pc, #412]	; (8003e50 <UART_SetConfig+0x38c>)
 8003cb4:	fba2 2303 	umull	r2, r3, r2, r3
 8003cb8:	095b      	lsrs	r3, r3, #5
 8003cba:	f003 0207 	and.w	r2, r3, #7
 8003cbe:	6efb      	ldr	r3, [r7, #108]	; 0x6c
 8003cc0:	681b      	ldr	r3, [r3, #0]
 8003cc2:	4432      	add	r2, r6
 8003cc4:	609a      	str	r2, [r3, #8]
  }
  else
  {
    huart->Instance->BRR = UART_BRR_SAMPLING16(pclk, huart->Init.BaudRate);
  }
}
 8003cc6:	e0b9      	b.n	8003e3c <UART_SetConfig+0x378>
    huart->Instance->BRR = UART_BRR_SAMPLING16(pclk, huart->Init.BaudRate);
 8003cc8:	6f7b      	ldr	r3, [r7, #116]	; 0x74
 8003cca:	461c      	mov	r4, r3
 8003ccc:	f04f 0500 	mov.w	r5, #0
 8003cd0:	4622      	mov	r2, r4
 8003cd2:	462b      	mov	r3, r5
 8003cd4:	1891      	adds	r1, r2, r2
 8003cd6:	6139      	str	r1, [r7, #16]
 8003cd8:	415b      	adcs	r3, r3
 8003cda:	617b      	str	r3, [r7, #20]
 8003cdc:	e9d7 2304 	ldrd	r2, r3, [r7, #16]
 8003ce0:	1912      	adds	r2, r2, r4
 8003ce2:	eb45 0303 	adc.w	r3, r5, r3
 8003ce6:	f04f 0000 	mov.w	r0, #0
 8003cea:	f04f 0100 	mov.w	r1, #0
 8003cee:	00d9      	lsls	r1, r3, #3
 8003cf0:	ea41 7152 	orr.w	r1, r1, r2, lsr #29
 8003cf4:	00d0      	lsls	r0, r2, #3
 8003cf6:	4602      	mov	r2, r0
 8003cf8:	460b      	mov	r3, r1
 8003cfa:	eb12 0804 	adds.w	r8, r2, r4
 8003cfe:	eb43 0905 	adc.w	r9, r3, r5
 8003d02:	6efb      	ldr	r3, [r7, #108]	; 0x6c
 8003d04:	685b      	ldr	r3, [r3, #4]
 8003d06:	4618      	mov	r0, r3
 8003d08:	f04f 0100 	mov.w	r1, #0
 8003d0c:	f04f 0200 	mov.w	r2, #0
 8003d10:	f04f 0300 	mov.w	r3, #0
 8003d14:	008b      	lsls	r3, r1, #2
 8003d16:	ea43 7390 	orr.w	r3, r3, r0, lsr #30
 8003d1a:	0082      	lsls	r2, r0, #2
 8003d1c:	4640      	mov	r0, r8
 8003d1e:	4649      	mov	r1, r9
 8003d20:	f7fc ff62 	bl	8000be8 <__aeabi_uldivmod>
 8003d24:	4602      	mov	r2, r0
 8003d26:	460b      	mov	r3, r1
 8003d28:	4b49      	ldr	r3, [pc, #292]	; (8003e50 <UART_SetConfig+0x38c>)
 8003d2a:	fba3 2302 	umull	r2, r3, r3, r2
 8003d2e:	095b      	lsrs	r3, r3, #5
 8003d30:	011e      	lsls	r6, r3, #4
 8003d32:	6f7b      	ldr	r3, [r7, #116]	; 0x74
 8003d34:	4618      	mov	r0, r3
 8003d36:	f04f 0100 	mov.w	r1, #0
 8003d3a:	4602      	mov	r2, r0
 8003d3c:	460b      	mov	r3, r1
 8003d3e:	1894      	adds	r4, r2, r2
 8003d40:	60bc      	str	r4, [r7, #8]
 8003d42:	415b      	adcs	r3, r3
 8003d44:	60fb      	str	r3, [r7, #12]
 8003d46:	e9d7 2302 	ldrd	r2, r3, [r7, #8]
 8003d4a:	1812      	adds	r2, r2, r0
 8003d4c:	eb41 0303 	adc.w	r3, r1, r3
 8003d50:	f04f 0400 	mov.w	r4, #0
 8003d54:	f04f 0500 	mov.w	r5, #0
 8003d58:	00dd      	lsls	r5, r3, #3
 8003d5a:	ea45 7552 	orr.w	r5, r5, r2, lsr #29
 8003d5e:	00d4      	lsls	r4, r2, #3
 8003d60:	4622      	mov	r2, r4
 8003d62:	462b      	mov	r3, r5
 8003d64:	1814      	adds	r4, r2, r0
 8003d66:	64bc      	str	r4, [r7, #72]	; 0x48
 8003d68:	414b      	adcs	r3, r1
 8003d6a:	64fb      	str	r3, [r7, #76]	; 0x4c
 8003d6c:	6efb      	ldr	r3, [r7, #108]	; 0x6c
 8003d6e:	685b      	ldr	r3, [r3, #4]
 8003d70:	4618      	mov	r0, r3
 8003d72:	f04f 0100 	mov.w	r1, #0
 8003d76:	f04f 0200 	mov.w	r2, #0
 8003d7a:	f04f 0300 	mov.w	r3, #0
 8003d7e:	008b      	lsls	r3, r1, #2
 8003d80:	ea43 7390 	orr.w	r3, r3, r0, lsr #30
 8003d84:	0082      	lsls	r2, r0, #2
 8003d86:	e9d7 0112 	ldrd	r0, r1, [r7, #72]	; 0x48
 8003d8a:	f7fc ff2d 	bl	8000be8 <__aeabi_uldivmod>
 8003d8e:	4602      	mov	r2, r0
 8003d90:	460b      	mov	r3, r1
 8003d92:	4b2f      	ldr	r3, [pc, #188]	; (8003e50 <UART_SetConfig+0x38c>)
 8003d94:	fba3 1302 	umull	r1, r3, r3, r2
 8003d98:	095b      	lsrs	r3, r3, #5
 8003d9a:	2164      	movs	r1, #100	; 0x64
 8003d9c:	fb01 f303 	mul.w	r3, r1, r3
 8003da0:	1ad3      	subs	r3, r2, r3
 8003da2:	011b      	lsls	r3, r3, #4
 8003da4:	3332      	adds	r3, #50	; 0x32
 8003da6:	4a2a      	ldr	r2, [pc, #168]	; (8003e50 <UART_SetConfig+0x38c>)
 8003da8:	fba2 2303 	umull	r2, r3, r2, r3
 8003dac:	095b      	lsrs	r3, r3, #5
 8003dae:	f003 03f0 	and.w	r3, r3, #240	; 0xf0
 8003db2:	441e      	add	r6, r3
 8003db4:	6f7b      	ldr	r3, [r7, #116]	; 0x74
 8003db6:	4618      	mov	r0, r3
 8003db8:	f04f 0100 	mov.w	r1, #0
 8003dbc:	4602      	mov	r2, r0
 8003dbe:	460b      	mov	r3, r1
 8003dc0:	1894      	adds	r4, r2, r2
 8003dc2:	603c      	str	r4, [r7, #0]
 8003dc4:	415b      	adcs	r3, r3
 8003dc6:	607b      	str	r3, [r7, #4]
 8003dc8:	e9d7 2300 	ldrd	r2, r3, [r7]
 8003dcc:	1812      	adds	r2, r2, r0
 8003dce:	eb41 0303 	adc.w	r3, r1, r3
 8003dd2:	f04f 0400 	mov.w	r4, #0
 8003dd6:	f04f 0500 	mov.w	r5, #0
 8003dda:	00dd      	lsls	r5, r3, #3
 8003ddc:	ea45 7552 	orr.w	r5, r5, r2, lsr #29
 8003de0:	00d4      	lsls	r4, r2, #3
 8003de2:	4622      	mov	r2, r4
 8003de4:	462b      	mov	r3, r5
 8003de6:	eb12 0a00 	adds.w	sl, r2, r0
 8003dea:	eb43 0b01 	adc.w	fp, r3, r1
 8003dee:	6efb      	ldr	r3, [r7, #108]	; 0x6c
 8003df0:	685b      	ldr	r3, [r3, #4]
 8003df2:	4618      	mov	r0, r3
 8003df4:	f04f 0100 	mov.w	r1, #0
 8003df8:	f04f 0200 	mov.w	r2, #0
 8003dfc:	f04f 0300 	mov.w	r3, #0
 8003e00:	008b      	lsls	r3, r1, #2
 8003e02:	ea43 7390 	orr.w	r3, r3, r0, lsr #30
 8003e06:	0082      	lsls	r2, r0, #2
 8003e08:	4650      	mov	r0, sl
 8003e0a:	4659      	mov	r1, fp
 8003e0c:	f7fc feec 	bl	8000be8 <__aeabi_uldivmod>
 8003e10:	4602      	mov	r2, r0
 8003e12:	460b      	mov	r3, r1
 8003e14:	4b0e      	ldr	r3, [pc, #56]	; (8003e50 <UART_SetConfig+0x38c>)
 8003e16:	fba3 1302 	umull	r1, r3, r3, r2
 8003e1a:	095b      	lsrs	r3, r3, #5
 8003e1c:	2164      	movs	r1, #100	; 0x64
 8003e1e:	fb01 f303 	mul.w	r3, r1, r3
 8003e22:	1ad3      	subs	r3, r2, r3
 8003e24:	011b      	lsls	r3, r3, #4
 8003e26:	3332      	adds	r3, #50	; 0x32
 8003e28:	4a09      	ldr	r2, [pc, #36]	; (8003e50 <UART_SetConfig+0x38c>)
 8003e2a:	fba2 2303 	umull	r2, r3, r2, r3
 8003e2e:	095b      	lsrs	r3, r3, #5
 8003e30:	f003 020f 	and.w	r2, r3, #15
 8003e34:	6efb      	ldr	r3, [r7, #108]	; 0x6c
 8003e36:	681b      	ldr	r3, [r3, #0]
 8003e38:	4432      	add	r2, r6
 8003e3a:	609a      	str	r2, [r3, #8]
}
 8003e3c:	bf00      	nop
 8003e3e:	377c      	adds	r7, #124	; 0x7c
 8003e40:	46bd      	mov	sp, r7
 8003e42:	e8bd 8ff0 	ldmia.w	sp!, {r4, r5, r6, r7, r8, r9, sl, fp, pc}
 8003e46:	bf00      	nop
 8003e48:	40011000 	.word	0x40011000
 8003e4c:	40011400 	.word	0x40011400
 8003e50:	51eb851f 	.word	0x51eb851f

08003e54 <DWT_Delay_us>:
uint32_t DWT_Delay_Init(void);


// This Function Provides Delay In Microseconds Using DWT
__STATIC_INLINE void DWT_Delay_us(volatile uint32_t au32_microseconds)
{
 8003e54:	b580      	push	{r7, lr}
 8003e56:	b084      	sub	sp, #16
 8003e58:	af00      	add	r7, sp, #0
 8003e5a:	6078      	str	r0, [r7, #4]
  uint32_t au32_initial_ticks = DWT->CYCCNT;
 8003e5c:	4b0f      	ldr	r3, [pc, #60]	; (8003e9c <DWT_Delay_us+0x48>)
 8003e5e:	685b      	ldr	r3, [r3, #4]
 8003e60:	60fb      	str	r3, [r7, #12]
  uint32_t au32_ticks = (HAL_RCC_GetHCLKFreq() / 1000000);
 8003e62:	f7fe f863 	bl	8001f2c <HAL_RCC_GetHCLKFreq>
 8003e66:	4603      	mov	r3, r0
 8003e68:	4a0d      	ldr	r2, [pc, #52]	; (8003ea0 <DWT_Delay_us+0x4c>)
 8003e6a:	fba2 2303 	umull	r2, r3, r2, r3
 8003e6e:	0c9b      	lsrs	r3, r3, #18
 8003e70:	60bb      	str	r3, [r7, #8]
  au32_microseconds *= au32_ticks;
 8003e72:	687b      	ldr	r3, [r7, #4]
 8003e74:	68ba      	ldr	r2, [r7, #8]
 8003e76:	fb02 f303 	mul.w	r3, r2, r3
 8003e7a:	607b      	str	r3, [r7, #4]
  while ((DWT->CYCCNT - au32_initial_ticks) < au32_microseconds-au32_ticks);
 8003e7c:	bf00      	nop
 8003e7e:	4b07      	ldr	r3, [pc, #28]	; (8003e9c <DWT_Delay_us+0x48>)
 8003e80:	685a      	ldr	r2, [r3, #4]
 8003e82:	68fb      	ldr	r3, [r7, #12]
 8003e84:	1ad2      	subs	r2, r2, r3
 8003e86:	6879      	ldr	r1, [r7, #4]
 8003e88:	68bb      	ldr	r3, [r7, #8]
 8003e8a:	1acb      	subs	r3, r1, r3
 8003e8c:	429a      	cmp	r2, r3
 8003e8e:	d3f6      	bcc.n	8003e7e <DWT_Delay_us+0x2a>
}
 8003e90:	bf00      	nop
 8003e92:	bf00      	nop
 8003e94:	3710      	adds	r7, #16
 8003e96:	46bd      	mov	sp, r7
 8003e98:	bd80      	pop	{r7, pc}
 8003e9a:	bf00      	nop
 8003e9c:	e0001000 	.word	0xe0001000
 8003ea0:	431bde83 	.word	0x431bde83

08003ea4 <HCSR04_Init>:
static HCSR04_info gs_HCSR04_info[HCSR04_UNITS] = {0};



void HCSR04_Init(uint8_t au8_HCSR04_Instance, TIM_HandleTypeDef* TMR_Handle)
{
 8003ea4:	b580      	push	{r7, lr}
 8003ea6:	b096      	sub	sp, #88	; 0x58
 8003ea8:	af00      	add	r7, sp, #0
 8003eaa:	4603      	mov	r3, r0
 8003eac:	6039      	str	r1, [r7, #0]
 8003eae:	71fb      	strb	r3, [r7, #7]
	GPIO_InitTypeDef TRIG_GPIO_InitStruct = {0};
 8003eb0:	f107 0344 	add.w	r3, r7, #68	; 0x44
 8003eb4:	2200      	movs	r2, #0
 8003eb6:	601a      	str	r2, [r3, #0]
 8003eb8:	605a      	str	r2, [r3, #4]
 8003eba:	609a      	str	r2, [r3, #8]
 8003ebc:	60da      	str	r2, [r3, #12]
 8003ebe:	611a      	str	r2, [r3, #16]
	TIM_ClockConfigTypeDef sClockSourceConfig = {0};
 8003ec0:	f107 0334 	add.w	r3, r7, #52	; 0x34
 8003ec4:	2200      	movs	r2, #0
 8003ec6:	601a      	str	r2, [r3, #0]
 8003ec8:	605a      	str	r2, [r3, #4]
 8003eca:	609a      	str	r2, [r3, #8]
 8003ecc:	60da      	str	r2, [r3, #12]
	TIM_MasterConfigTypeDef sMasterConfig = {0};
 8003ece:	f107 032c 	add.w	r3, r7, #44	; 0x2c
 8003ed2:	2200      	movs	r2, #0
 8003ed4:	601a      	str	r2, [r3, #0]
 8003ed6:	605a      	str	r2, [r3, #4]
	TIM_IC_InitTypeDef sConfigIC = {0};
 8003ed8:	f107 031c 	add.w	r3, r7, #28
 8003edc:	2200      	movs	r2, #0
 8003ede:	601a      	str	r2, [r3, #0]
 8003ee0:	605a      	str	r2, [r3, #4]
 8003ee2:	609a      	str	r2, [r3, #8]
 8003ee4:	60da      	str	r2, [r3, #12]

    DWT_Delay_Init();
 8003ee6:	f000 fa1b 	bl	8004320 <DWT_Delay_Init>

	/*--------[ Configure The HCSR04 TRIGGER GPIO Pin ]-------*/

    if(HCSR04_CfgParam[au8_HCSR04_Instance].TRIG_GPIO == GPIOA)
 8003eea:	79fa      	ldrb	r2, [r7, #7]
 8003eec:	4997      	ldr	r1, [pc, #604]	; (800414c <HCSR04_Init+0x2a8>)
 8003eee:	4613      	mov	r3, r2
 8003ef0:	009b      	lsls	r3, r3, #2
 8003ef2:	4413      	add	r3, r2
 8003ef4:	009b      	lsls	r3, r3, #2
 8003ef6:	440b      	add	r3, r1
 8003ef8:	681b      	ldr	r3, [r3, #0]
 8003efa:	4a95      	ldr	r2, [pc, #596]	; (8004150 <HCSR04_Init+0x2ac>)
 8003efc:	4293      	cmp	r3, r2
 8003efe:	d10e      	bne.n	8003f1e <HCSR04_Init+0x7a>
    {
    	__HAL_RCC_GPIOA_CLK_ENABLE();
 8003f00:	2300      	movs	r3, #0
 8003f02:	61bb      	str	r3, [r7, #24]
 8003f04:	4b93      	ldr	r3, [pc, #588]	; (8004154 <HCSR04_Init+0x2b0>)
 8003f06:	6b1b      	ldr	r3, [r3, #48]	; 0x30
 8003f08:	4a92      	ldr	r2, [pc, #584]	; (8004154 <HCSR04_Init+0x2b0>)
 8003f0a:	f043 0301 	orr.w	r3, r3, #1
 8003f0e:	6313      	str	r3, [r2, #48]	; 0x30
 8003f10:	4b90      	ldr	r3, [pc, #576]	; (8004154 <HCSR04_Init+0x2b0>)
 8003f12:	6b1b      	ldr	r3, [r3, #48]	; 0x30
 8003f14:	f003 0301 	and.w	r3, r3, #1
 8003f18:	61bb      	str	r3, [r7, #24]
 8003f1a:	69bb      	ldr	r3, [r7, #24]
 8003f1c:	e066      	b.n	8003fec <HCSR04_Init+0x148>
    }
    else if(HCSR04_CfgParam[au8_HCSR04_Instance].TRIG_GPIO == GPIOB)
 8003f1e:	79fa      	ldrb	r2, [r7, #7]
 8003f20:	498a      	ldr	r1, [pc, #552]	; (800414c <HCSR04_Init+0x2a8>)
 8003f22:	4613      	mov	r3, r2
 8003f24:	009b      	lsls	r3, r3, #2
 8003f26:	4413      	add	r3, r2
 8003f28:	009b      	lsls	r3, r3, #2
 8003f2a:	440b      	add	r3, r1
 8003f2c:	681b      	ldr	r3, [r3, #0]
 8003f2e:	4a8a      	ldr	r2, [pc, #552]	; (8004158 <HCSR04_Init+0x2b4>)
 8003f30:	4293      	cmp	r3, r2
 8003f32:	d10e      	bne.n	8003f52 <HCSR04_Init+0xae>
    {
    	__HAL_RCC_GPIOB_CLK_ENABLE();
 8003f34:	2300      	movs	r3, #0
 8003f36:	617b      	str	r3, [r7, #20]
 8003f38:	4b86      	ldr	r3, [pc, #536]	; (8004154 <HCSR04_Init+0x2b0>)
 8003f3a:	6b1b      	ldr	r3, [r3, #48]	; 0x30
 8003f3c:	4a85      	ldr	r2, [pc, #532]	; (8004154 <HCSR04_Init+0x2b0>)
 8003f3e:	f043 0302 	orr.w	r3, r3, #2
 8003f42:	6313      	str	r3, [r2, #48]	; 0x30
 8003f44:	4b83      	ldr	r3, [pc, #524]	; (8004154 <HCSR04_Init+0x2b0>)
 8003f46:	6b1b      	ldr	r3, [r3, #48]	; 0x30
 8003f48:	f003 0302 	and.w	r3, r3, #2
 8003f4c:	617b      	str	r3, [r7, #20]
 8003f4e:	697b      	ldr	r3, [r7, #20]
 8003f50:	e04c      	b.n	8003fec <HCSR04_Init+0x148>
    }
    else if(HCSR04_CfgParam[au8_HCSR04_Instance].TRIG_GPIO == GPIOC)
 8003f52:	79fa      	ldrb	r2, [r7, #7]
 8003f54:	497d      	ldr	r1, [pc, #500]	; (800414c <HCSR04_Init+0x2a8>)
 8003f56:	4613      	mov	r3, r2
 8003f58:	009b      	lsls	r3, r3, #2
 8003f5a:	4413      	add	r3, r2
 8003f5c:	009b      	lsls	r3, r3, #2
 8003f5e:	440b      	add	r3, r1
 8003f60:	681b      	ldr	r3, [r3, #0]
 8003f62:	4a7e      	ldr	r2, [pc, #504]	; (800415c <HCSR04_Init+0x2b8>)
 8003f64:	4293      	cmp	r3, r2
 8003f66:	d10e      	bne.n	8003f86 <HCSR04_Init+0xe2>
    {
        __HAL_RCC_GPIOC_CLK_ENABLE();
 8003f68:	2300      	movs	r3, #0
 8003f6a:	613b      	str	r3, [r7, #16]
 8003f6c:	4b79      	ldr	r3, [pc, #484]	; (8004154 <HCSR04_Init+0x2b0>)
 8003f6e:	6b1b      	ldr	r3, [r3, #48]	; 0x30
 8003f70:	4a78      	ldr	r2, [pc, #480]	; (8004154 <HCSR04_Init+0x2b0>)
 8003f72:	f043 0304 	orr.w	r3, r3, #4
 8003f76:	6313      	str	r3, [r2, #48]	; 0x30
 8003f78:	4b76      	ldr	r3, [pc, #472]	; (8004154 <HCSR04_Init+0x2b0>)
 8003f7a:	6b1b      	ldr	r3, [r3, #48]	; 0x30
 8003f7c:	f003 0304 	and.w	r3, r3, #4
 8003f80:	613b      	str	r3, [r7, #16]
 8003f82:	693b      	ldr	r3, [r7, #16]
 8003f84:	e032      	b.n	8003fec <HCSR04_Init+0x148>
    }
    else if(HCSR04_CfgParam[au8_HCSR04_Instance].TRIG_GPIO == GPIOD)
 8003f86:	79fa      	ldrb	r2, [r7, #7]
 8003f88:	4970      	ldr	r1, [pc, #448]	; (800414c <HCSR04_Init+0x2a8>)
 8003f8a:	4613      	mov	r3, r2
 8003f8c:	009b      	lsls	r3, r3, #2
 8003f8e:	4413      	add	r3, r2
 8003f90:	009b      	lsls	r3, r3, #2
 8003f92:	440b      	add	r3, r1
 8003f94:	681b      	ldr	r3, [r3, #0]
 8003f96:	4a72      	ldr	r2, [pc, #456]	; (8004160 <HCSR04_Init+0x2bc>)
 8003f98:	4293      	cmp	r3, r2
 8003f9a:	d10e      	bne.n	8003fba <HCSR04_Init+0x116>
    {
        __HAL_RCC_GPIOD_CLK_ENABLE();
 8003f9c:	2300      	movs	r3, #0
 8003f9e:	60fb      	str	r3, [r7, #12]
 8003fa0:	4b6c      	ldr	r3, [pc, #432]	; (8004154 <HCSR04_Init+0x2b0>)
 8003fa2:	6b1b      	ldr	r3, [r3, #48]	; 0x30
 8003fa4:	4a6b      	ldr	r2, [pc, #428]	; (8004154 <HCSR04_Init+0x2b0>)
 8003fa6:	f043 0308 	orr.w	r3, r3, #8
 8003faa:	6313      	str	r3, [r2, #48]	; 0x30
 8003fac:	4b69      	ldr	r3, [pc, #420]	; (8004154 <HCSR04_Init+0x2b0>)
 8003fae:	6b1b      	ldr	r3, [r3, #48]	; 0x30
 8003fb0:	f003 0308 	and.w	r3, r3, #8
 8003fb4:	60fb      	str	r3, [r7, #12]
 8003fb6:	68fb      	ldr	r3, [r7, #12]
 8003fb8:	e018      	b.n	8003fec <HCSR04_Init+0x148>
    }
    else if(HCSR04_CfgParam[au8_HCSR04_Instance].TRIG_GPIO == GPIOE)
 8003fba:	79fa      	ldrb	r2, [r7, #7]
 8003fbc:	4963      	ldr	r1, [pc, #396]	; (800414c <HCSR04_Init+0x2a8>)
 8003fbe:	4613      	mov	r3, r2
 8003fc0:	009b      	lsls	r3, r3, #2
 8003fc2:	4413      	add	r3, r2
 8003fc4:	009b      	lsls	r3, r3, #2
 8003fc6:	440b      	add	r3, r1
 8003fc8:	681b      	ldr	r3, [r3, #0]
 8003fca:	4a66      	ldr	r2, [pc, #408]	; (8004164 <HCSR04_Init+0x2c0>)
 8003fcc:	4293      	cmp	r3, r2
 8003fce:	d10d      	bne.n	8003fec <HCSR04_Init+0x148>
    {
        __HAL_RCC_GPIOE_CLK_ENABLE();
 8003fd0:	2300      	movs	r3, #0
 8003fd2:	60bb      	str	r3, [r7, #8]
 8003fd4:	4b5f      	ldr	r3, [pc, #380]	; (8004154 <HCSR04_Init+0x2b0>)
 8003fd6:	6b1b      	ldr	r3, [r3, #48]	; 0x30
 8003fd8:	4a5e      	ldr	r2, [pc, #376]	; (8004154 <HCSR04_Init+0x2b0>)
 8003fda:	f043 0310 	orr.w	r3, r3, #16
 8003fde:	6313      	str	r3, [r2, #48]	; 0x30
 8003fe0:	4b5c      	ldr	r3, [pc, #368]	; (8004154 <HCSR04_Init+0x2b0>)
 8003fe2:	6b1b      	ldr	r3, [r3, #48]	; 0x30
 8003fe4:	f003 0310 	and.w	r3, r3, #16
 8003fe8:	60bb      	str	r3, [r7, #8]
 8003fea:	68bb      	ldr	r3, [r7, #8]
    }
    TRIG_GPIO_InitStruct.Pin = HCSR04_CfgParam[au8_HCSR04_Instance].TRIG_PIN;
 8003fec:	79fa      	ldrb	r2, [r7, #7]
 8003fee:	4957      	ldr	r1, [pc, #348]	; (800414c <HCSR04_Init+0x2a8>)
 8003ff0:	4613      	mov	r3, r2
 8003ff2:	009b      	lsls	r3, r3, #2
 8003ff4:	4413      	add	r3, r2
 8003ff6:	009b      	lsls	r3, r3, #2
 8003ff8:	440b      	add	r3, r1
 8003ffa:	3304      	adds	r3, #4
 8003ffc:	881b      	ldrh	r3, [r3, #0]
 8003ffe:	647b      	str	r3, [r7, #68]	; 0x44
    TRIG_GPIO_InitStruct.Mode = GPIO_MODE_OUTPUT_PP;
 8004000:	2301      	movs	r3, #1
 8004002:	64bb      	str	r3, [r7, #72]	; 0x48
    TRIG_GPIO_InitStruct.Pull = GPIO_NOPULL;
 8004004:	2300      	movs	r3, #0
 8004006:	64fb      	str	r3, [r7, #76]	; 0x4c
    TRIG_GPIO_InitStruct.Speed = GPIO_SPEED_FREQ_LOW;
 8004008:	2300      	movs	r3, #0
 800400a:	653b      	str	r3, [r7, #80]	; 0x50
	HAL_GPIO_Init(HCSR04_CfgParam[au8_HCSR04_Instance].TRIG_GPIO, &TRIG_GPIO_InitStruct);
 800400c:	79fa      	ldrb	r2, [r7, #7]
 800400e:	494f      	ldr	r1, [pc, #316]	; (800414c <HCSR04_Init+0x2a8>)
 8004010:	4613      	mov	r3, r2
 8004012:	009b      	lsls	r3, r3, #2
 8004014:	4413      	add	r3, r2
 8004016:	009b      	lsls	r3, r3, #2
 8004018:	440b      	add	r3, r1
 800401a:	681b      	ldr	r3, [r3, #0]
 800401c:	f107 0244 	add.w	r2, r7, #68	; 0x44
 8004020:	4611      	mov	r1, r2
 8004022:	4618      	mov	r0, r3
 8004024:	f7fd fcee 	bl	8001a04 <HAL_GPIO_Init>

	/*--------[ Initialize The HCSR04 Static Global Info ]-------*/

	gs_HCSR04_info[au8_HCSR04_Instance].TMR_PSC = HCSR04_CfgParam[au8_HCSR04_Instance].TIM_Instance->PSC;
 8004028:	79fa      	ldrb	r2, [r7, #7]
 800402a:	4948      	ldr	r1, [pc, #288]	; (800414c <HCSR04_Init+0x2a8>)
 800402c:	4613      	mov	r3, r2
 800402e:	009b      	lsls	r3, r3, #2
 8004030:	4413      	add	r3, r2
 8004032:	009b      	lsls	r3, r3, #2
 8004034:	440b      	add	r3, r1
 8004036:	3308      	adds	r3, #8
 8004038:	681b      	ldr	r3, [r3, #0]
 800403a:	79fa      	ldrb	r2, [r7, #7]
 800403c:	6a99      	ldr	r1, [r3, #40]	; 0x28
 800403e:	484a      	ldr	r0, [pc, #296]	; (8004168 <HCSR04_Init+0x2c4>)
 8004040:	4613      	mov	r3, r2
 8004042:	00db      	lsls	r3, r3, #3
 8004044:	4413      	add	r3, r2
 8004046:	009b      	lsls	r3, r3, #2
 8004048:	4403      	add	r3, r0
 800404a:	3304      	adds	r3, #4
 800404c:	6019      	str	r1, [r3, #0]
	gs_HCSR04_info[au8_HCSR04_Instance].TMR_ARR = HCSR04_CfgParam[au8_HCSR04_Instance].TIM_Instance->ARR;
 800404e:	79fa      	ldrb	r2, [r7, #7]
 8004050:	493e      	ldr	r1, [pc, #248]	; (800414c <HCSR04_Init+0x2a8>)
 8004052:	4613      	mov	r3, r2
 8004054:	009b      	lsls	r3, r3, #2
 8004056:	4413      	add	r3, r2
 8004058:	009b      	lsls	r3, r3, #2
 800405a:	440b      	add	r3, r1
 800405c:	3308      	adds	r3, #8
 800405e:	681b      	ldr	r3, [r3, #0]
 8004060:	79fa      	ldrb	r2, [r7, #7]
 8004062:	6ad9      	ldr	r1, [r3, #44]	; 0x2c
 8004064:	4840      	ldr	r0, [pc, #256]	; (8004168 <HCSR04_Init+0x2c4>)
 8004066:	4613      	mov	r3, r2
 8004068:	00db      	lsls	r3, r3, #3
 800406a:	4413      	add	r3, r2
 800406c:	009b      	lsls	r3, r3, #2
 800406e:	4403      	add	r3, r0
 8004070:	3308      	adds	r3, #8
 8004072:	6019      	str	r1, [r3, #0]
	gs_HCSR04_info[au8_HCSR04_Instance].TMR_OVC = 0;
 8004074:	79fa      	ldrb	r2, [r7, #7]
 8004076:	493c      	ldr	r1, [pc, #240]	; (8004168 <HCSR04_Init+0x2c4>)
 8004078:	4613      	mov	r3, r2
 800407a:	00db      	lsls	r3, r3, #3
 800407c:	4413      	add	r3, r2
 800407e:	009b      	lsls	r3, r3, #2
 8004080:	440b      	add	r3, r1
 8004082:	3302      	adds	r3, #2
 8004084:	2200      	movs	r2, #0
 8004086:	801a      	strh	r2, [r3, #0]
		gs_HCSR04_info[au8_HCSR04_Instance].HTIM = TMR_Handle;
 8004088:	79fa      	ldrb	r2, [r7, #7]
 800408a:	4937      	ldr	r1, [pc, #220]	; (8004168 <HCSR04_Init+0x2c4>)
 800408c:	4613      	mov	r3, r2
 800408e:	00db      	lsls	r3, r3, #3
 8004090:	4413      	add	r3, r2
 8004092:	009b      	lsls	r3, r3, #2
 8004094:	440b      	add	r3, r1
 8004096:	331c      	adds	r3, #28
 8004098:	683a      	ldr	r2, [r7, #0]
 800409a:	601a      	str	r2, [r3, #0]
	if(gs_HCSR04_info[au8_HCSR04_Instance].TMR_ARR == 0)
 800409c:	79fa      	ldrb	r2, [r7, #7]
 800409e:	4932      	ldr	r1, [pc, #200]	; (8004168 <HCSR04_Init+0x2c4>)
 80040a0:	4613      	mov	r3, r2
 80040a2:	00db      	lsls	r3, r3, #3
 80040a4:	4413      	add	r3, r2
 80040a6:	009b      	lsls	r3, r3, #2
 80040a8:	440b      	add	r3, r1
 80040aa:	3308      	adds	r3, #8
 80040ac:	681b      	ldr	r3, [r3, #0]
 80040ae:	2b00      	cmp	r3, #0
 80040b0:	d10a      	bne.n	80040c8 <HCSR04_Init+0x224>
	{
		gs_HCSR04_info[au8_HCSR04_Instance].TMR_ARR = 65535;
 80040b2:	79fa      	ldrb	r2, [r7, #7]
 80040b4:	492c      	ldr	r1, [pc, #176]	; (8004168 <HCSR04_Init+0x2c4>)
 80040b6:	4613      	mov	r3, r2
 80040b8:	00db      	lsls	r3, r3, #3
 80040ba:	4413      	add	r3, r2
 80040bc:	009b      	lsls	r3, r3, #2
 80040be:	440b      	add	r3, r1
 80040c0:	3308      	adds	r3, #8
 80040c2:	f64f 72ff 	movw	r2, #65535	; 0xffff
 80040c6:	601a      	str	r2, [r3, #0]
	}
	if(HCSR04_CfgParam[au8_HCSR04_Instance].IC_TIM_CH == TIM_CHANNEL_1)
 80040c8:	79fa      	ldrb	r2, [r7, #7]
 80040ca:	4920      	ldr	r1, [pc, #128]	; (800414c <HCSR04_Init+0x2a8>)
 80040cc:	4613      	mov	r3, r2
 80040ce:	009b      	lsls	r3, r3, #2
 80040d0:	4413      	add	r3, r2
 80040d2:	009b      	lsls	r3, r3, #2
 80040d4:	440b      	add	r3, r1
 80040d6:	330c      	adds	r3, #12
 80040d8:	681b      	ldr	r3, [r3, #0]
 80040da:	2b00      	cmp	r3, #0
 80040dc:	d10a      	bne.n	80040f4 <HCSR04_Init+0x250>
	{
		gs_HCSR04_info[au8_HCSR04_Instance].ACTIV_CH = HAL_TIM_ACTIVE_CHANNEL_1;
 80040de:	79fa      	ldrb	r2, [r7, #7]
 80040e0:	4921      	ldr	r1, [pc, #132]	; (8004168 <HCSR04_Init+0x2c4>)
 80040e2:	4613      	mov	r3, r2
 80040e4:	00db      	lsls	r3, r3, #3
 80040e6:	4413      	add	r3, r2
 80040e8:	009b      	lsls	r3, r3, #2
 80040ea:	440b      	add	r3, r1
 80040ec:	3320      	adds	r3, #32
 80040ee:	2201      	movs	r2, #1
 80040f0:	701a      	strb	r2, [r3, #0]
 80040f2:	e050      	b.n	8004196 <HCSR04_Init+0x2f2>
	}
	else if(HCSR04_CfgParam[au8_HCSR04_Instance].IC_TIM_CH == TIM_CHANNEL_2)
 80040f4:	79fa      	ldrb	r2, [r7, #7]
 80040f6:	4915      	ldr	r1, [pc, #84]	; (800414c <HCSR04_Init+0x2a8>)
 80040f8:	4613      	mov	r3, r2
 80040fa:	009b      	lsls	r3, r3, #2
 80040fc:	4413      	add	r3, r2
 80040fe:	009b      	lsls	r3, r3, #2
 8004100:	440b      	add	r3, r1
 8004102:	330c      	adds	r3, #12
 8004104:	681b      	ldr	r3, [r3, #0]
 8004106:	2b04      	cmp	r3, #4
 8004108:	d10a      	bne.n	8004120 <HCSR04_Init+0x27c>
	{
		gs_HCSR04_info[au8_HCSR04_Instance].ACTIV_CH = HAL_TIM_ACTIVE_CHANNEL_2;
 800410a:	79fa      	ldrb	r2, [r7, #7]
 800410c:	4916      	ldr	r1, [pc, #88]	; (8004168 <HCSR04_Init+0x2c4>)
 800410e:	4613      	mov	r3, r2
 8004110:	00db      	lsls	r3, r3, #3
 8004112:	4413      	add	r3, r2
 8004114:	009b      	lsls	r3, r3, #2
 8004116:	440b      	add	r3, r1
 8004118:	3320      	adds	r3, #32
 800411a:	2202      	movs	r2, #2
 800411c:	701a      	strb	r2, [r3, #0]
 800411e:	e03a      	b.n	8004196 <HCSR04_Init+0x2f2>
	}
	else if(HCSR04_CfgParam[au8_HCSR04_Instance].IC_TIM_CH == TIM_CHANNEL_3)
 8004120:	79fa      	ldrb	r2, [r7, #7]
 8004122:	490a      	ldr	r1, [pc, #40]	; (800414c <HCSR04_Init+0x2a8>)
 8004124:	4613      	mov	r3, r2
 8004126:	009b      	lsls	r3, r3, #2
 8004128:	4413      	add	r3, r2
 800412a:	009b      	lsls	r3, r3, #2
 800412c:	440b      	add	r3, r1
 800412e:	330c      	adds	r3, #12
 8004130:	681b      	ldr	r3, [r3, #0]
 8004132:	2b08      	cmp	r3, #8
 8004134:	d11a      	bne.n	800416c <HCSR04_Init+0x2c8>
	{
		gs_HCSR04_info[au8_HCSR04_Instance].ACTIV_CH = HAL_TIM_ACTIVE_CHANNEL_3;
 8004136:	79fa      	ldrb	r2, [r7, #7]
 8004138:	490b      	ldr	r1, [pc, #44]	; (8004168 <HCSR04_Init+0x2c4>)
 800413a:	4613      	mov	r3, r2
 800413c:	00db      	lsls	r3, r3, #3
 800413e:	4413      	add	r3, r2
 8004140:	009b      	lsls	r3, r3, #2
 8004142:	440b      	add	r3, r1
 8004144:	3320      	adds	r3, #32
 8004146:	2204      	movs	r2, #4
 8004148:	701a      	strb	r2, [r3, #0]
 800414a:	e024      	b.n	8004196 <HCSR04_Init+0x2f2>
 800414c:	08007164 	.word	0x08007164
 8004150:	40020000 	.word	0x40020000
 8004154:	40023800 	.word	0x40023800
 8004158:	40020400 	.word	0x40020400
 800415c:	40020800 	.word	0x40020800
 8004160:	40020c00 	.word	0x40020c00
 8004164:	40021000 	.word	0x40021000
 8004168:	2000020c 	.word	0x2000020c
	}
	else if(HCSR04_CfgParam[au8_HCSR04_Instance].IC_TIM_CH == TIM_CHANNEL_4)
 800416c:	79fa      	ldrb	r2, [r7, #7]
 800416e:	4941      	ldr	r1, [pc, #260]	; (8004274 <HCSR04_Init+0x3d0>)
 8004170:	4613      	mov	r3, r2
 8004172:	009b      	lsls	r3, r3, #2
 8004174:	4413      	add	r3, r2
 8004176:	009b      	lsls	r3, r3, #2
 8004178:	440b      	add	r3, r1
 800417a:	330c      	adds	r3, #12
 800417c:	681b      	ldr	r3, [r3, #0]
 800417e:	2b0c      	cmp	r3, #12
 8004180:	d109      	bne.n	8004196 <HCSR04_Init+0x2f2>
	{
		gs_HCSR04_info[au8_HCSR04_Instance].ACTIV_CH = HAL_TIM_ACTIVE_CHANNEL_4;
 8004182:	79fa      	ldrb	r2, [r7, #7]
 8004184:	493c      	ldr	r1, [pc, #240]	; (8004278 <HCSR04_Init+0x3d4>)
 8004186:	4613      	mov	r3, r2
 8004188:	00db      	lsls	r3, r3, #3
 800418a:	4413      	add	r3, r2
 800418c:	009b      	lsls	r3, r3, #2
 800418e:	440b      	add	r3, r1
 8004190:	3320      	adds	r3, #32
 8004192:	2208      	movs	r2, #8
 8004194:	701a      	strb	r2, [r3, #0]
	}

	/*--------[ Configure The HCSR04 IC Timer Channel ]-------*/

	TMR_Handle->Instance = HCSR04_CfgParam[au8_HCSR04_Instance].TIM_Instance;
 8004196:	79fa      	ldrb	r2, [r7, #7]
 8004198:	4936      	ldr	r1, [pc, #216]	; (8004274 <HCSR04_Init+0x3d0>)
 800419a:	4613      	mov	r3, r2
 800419c:	009b      	lsls	r3, r3, #2
 800419e:	4413      	add	r3, r2
 80041a0:	009b      	lsls	r3, r3, #2
 80041a2:	440b      	add	r3, r1
 80041a4:	3308      	adds	r3, #8
 80041a6:	681a      	ldr	r2, [r3, #0]
 80041a8:	683b      	ldr	r3, [r7, #0]
 80041aa:	601a      	str	r2, [r3, #0]
	TMR_Handle->Init.Prescaler = gs_HCSR04_info[au8_HCSR04_Instance].TMR_PSC;
 80041ac:	79fa      	ldrb	r2, [r7, #7]
 80041ae:	4932      	ldr	r1, [pc, #200]	; (8004278 <HCSR04_Init+0x3d4>)
 80041b0:	4613      	mov	r3, r2
 80041b2:	00db      	lsls	r3, r3, #3
 80041b4:	4413      	add	r3, r2
 80041b6:	009b      	lsls	r3, r3, #2
 80041b8:	440b      	add	r3, r1
 80041ba:	3304      	adds	r3, #4
 80041bc:	681a      	ldr	r2, [r3, #0]
 80041be:	683b      	ldr	r3, [r7, #0]
 80041c0:	605a      	str	r2, [r3, #4]
	TMR_Handle->Init.CounterMode = TIM_COUNTERMODE_UP;
 80041c2:	683b      	ldr	r3, [r7, #0]
 80041c4:	2200      	movs	r2, #0
 80041c6:	609a      	str	r2, [r3, #8]
	TMR_Handle->Init.Period = gs_HCSR04_info[au8_HCSR04_Instance].TMR_ARR;
 80041c8:	79fa      	ldrb	r2, [r7, #7]
 80041ca:	492b      	ldr	r1, [pc, #172]	; (8004278 <HCSR04_Init+0x3d4>)
 80041cc:	4613      	mov	r3, r2
 80041ce:	00db      	lsls	r3, r3, #3
 80041d0:	4413      	add	r3, r2
 80041d2:	009b      	lsls	r3, r3, #2
 80041d4:	440b      	add	r3, r1
 80041d6:	3308      	adds	r3, #8
 80041d8:	681a      	ldr	r2, [r3, #0]
 80041da:	683b      	ldr	r3, [r7, #0]
 80041dc:	60da      	str	r2, [r3, #12]
	TMR_Handle->Init.ClockDivision = TIM_CLOCKDIVISION_DIV1;
 80041de:	683b      	ldr	r3, [r7, #0]
 80041e0:	2200      	movs	r2, #0
 80041e2:	611a      	str	r2, [r3, #16]
	TMR_Handle->Init.AutoReloadPreload = TIM_AUTORELOAD_PRELOAD_ENABLE;
 80041e4:	683b      	ldr	r3, [r7, #0]
 80041e6:	2280      	movs	r2, #128	; 0x80
 80041e8:	619a      	str	r2, [r3, #24]
	HAL_TIM_Base_Init(TMR_Handle);
 80041ea:	6838      	ldr	r0, [r7, #0]
 80041ec:	f7fe fb22 	bl	8002834 <HAL_TIM_Base_Init>
	sClockSourceConfig.ClockSource = TIM_CLOCKSOURCE_INTERNAL;
 80041f0:	f44f 5380 	mov.w	r3, #4096	; 0x1000
 80041f4:	637b      	str	r3, [r7, #52]	; 0x34
	HAL_TIM_ConfigClockSource(TMR_Handle, &sClockSourceConfig);
 80041f6:	f107 0334 	add.w	r3, r7, #52	; 0x34
 80041fa:	4619      	mov	r1, r3
 80041fc:	6838      	ldr	r0, [r7, #0]
 80041fe:	f7fe feff 	bl	8003000 <HAL_TIM_ConfigClockSource>
	HAL_TIM_IC_Init(TMR_Handle);
 8004202:	6838      	ldr	r0, [r7, #0]
 8004204:	f7fe fbd6 	bl	80029b4 <HAL_TIM_IC_Init>
	sMasterConfig.MasterOutputTrigger = TIM_TRGO_RESET;
 8004208:	2300      	movs	r3, #0
 800420a:	62fb      	str	r3, [r7, #44]	; 0x2c
	sMasterConfig.MasterSlaveMode = TIM_MASTERSLAVEMODE_DISABLE;
 800420c:	2300      	movs	r3, #0
 800420e:	633b      	str	r3, [r7, #48]	; 0x30
	HAL_TIMEx_MasterConfigSynchronization(TMR_Handle, &sMasterConfig);
 8004210:	f107 032c 	add.w	r3, r7, #44	; 0x2c
 8004214:	4619      	mov	r1, r3
 8004216:	6838      	ldr	r0, [r7, #0]
 8004218:	f7ff fa76 	bl	8003708 <HAL_TIMEx_MasterConfigSynchronization>
	sConfigIC.ICPolarity = TIM_INPUTCHANNELPOLARITY_RISING;
 800421c:	2300      	movs	r3, #0
 800421e:	61fb      	str	r3, [r7, #28]
	sConfigIC.ICSelection = TIM_ICSELECTION_DIRECTTI;
 8004220:	2301      	movs	r3, #1
 8004222:	623b      	str	r3, [r7, #32]
	sConfigIC.ICPrescaler = TIM_ICPSC_DIV1;
 8004224:	2300      	movs	r3, #0
 8004226:	627b      	str	r3, [r7, #36]	; 0x24
	sConfigIC.ICFilter = 0;
 8004228:	2300      	movs	r3, #0
 800422a:	62bb      	str	r3, [r7, #40]	; 0x28
	HAL_TIM_IC_ConfigChannel(TMR_Handle, &sConfigIC, HCSR04_CfgParam[au8_HCSR04_Instance].IC_TIM_CH);
 800422c:	79fa      	ldrb	r2, [r7, #7]
 800422e:	4911      	ldr	r1, [pc, #68]	; (8004274 <HCSR04_Init+0x3d0>)
 8004230:	4613      	mov	r3, r2
 8004232:	009b      	lsls	r3, r3, #2
 8004234:	4413      	add	r3, r2
 8004236:	009b      	lsls	r3, r3, #2
 8004238:	440b      	add	r3, r1
 800423a:	330c      	adds	r3, #12
 800423c:	681a      	ldr	r2, [r3, #0]
 800423e:	f107 031c 	add.w	r3, r7, #28
 8004242:	4619      	mov	r1, r3
 8004244:	6838      	ldr	r0, [r7, #0]
 8004246:	f7fe fe3f 	bl	8002ec8 <HAL_TIM_IC_ConfigChannel>

	/*--------[ Start The ICU Channel ]-------*/

	HAL_TIM_Base_Start_IT(TMR_Handle);
 800424a:	6838      	ldr	r0, [r7, #0]
 800424c:	f7fe fb42 	bl	80028d4 <HAL_TIM_Base_Start_IT>
	HAL_TIM_IC_Start_IT(TMR_Handle, HCSR04_CfgParam[au8_HCSR04_Instance].IC_TIM_CH);
 8004250:	79fa      	ldrb	r2, [r7, #7]
 8004252:	4908      	ldr	r1, [pc, #32]	; (8004274 <HCSR04_Init+0x3d0>)
 8004254:	4613      	mov	r3, r2
 8004256:	009b      	lsls	r3, r3, #2
 8004258:	4413      	add	r3, r2
 800425a:	009b      	lsls	r3, r3, #2
 800425c:	440b      	add	r3, r1
 800425e:	330c      	adds	r3, #12
 8004260:	681b      	ldr	r3, [r3, #0]
 8004262:	4619      	mov	r1, r3
 8004264:	6838      	ldr	r0, [r7, #0]
 8004266:	f7fe fbff 	bl	8002a68 <HAL_TIM_IC_Start_IT>
}
 800426a:	bf00      	nop
 800426c:	3758      	adds	r7, #88	; 0x58
 800426e:	46bd      	mov	sp, r7
 8004270:	bd80      	pop	{r7, pc}
 8004272:	bf00      	nop
 8004274:	08007164 	.word	0x08007164
 8004278:	2000020c 	.word	0x2000020c

0800427c <HCSR04_Read>:
		}
	}
}

float HCSR04_Read(uint8_t au8_HCSR04_Instance)
{
 800427c:	b480      	push	{r7}
 800427e:	b083      	sub	sp, #12
 8004280:	af00      	add	r7, sp, #0
 8004282:	4603      	mov	r3, r0
 8004284:	71fb      	strb	r3, [r7, #7]
	return gs_HCSR04_info[au8_HCSR04_Instance].DISTANCE;
 8004286:	79fa      	ldrb	r2, [r7, #7]
 8004288:	4908      	ldr	r1, [pc, #32]	; (80042ac <HCSR04_Read+0x30>)
 800428a:	4613      	mov	r3, r2
 800428c:	00db      	lsls	r3, r3, #3
 800428e:	4413      	add	r3, r2
 8004290:	009b      	lsls	r3, r3, #2
 8004292:	440b      	add	r3, r1
 8004294:	3318      	adds	r3, #24
 8004296:	681b      	ldr	r3, [r3, #0]
 8004298:	ee07 3a90 	vmov	s15, r3
}
 800429c:	eeb0 0a67 	vmov.f32	s0, s15
 80042a0:	370c      	adds	r7, #12
 80042a2:	46bd      	mov	sp, r7
 80042a4:	f85d 7b04 	ldr.w	r7, [sp], #4
 80042a8:	4770      	bx	lr
 80042aa:	bf00      	nop
 80042ac:	2000020c 	.word	0x2000020c

080042b0 <HCSR04_Trigger>:

void HCSR04_Trigger(uint8_t au8_HCSR04_Instance)
{
 80042b0:	b580      	push	{r7, lr}
 80042b2:	b082      	sub	sp, #8
 80042b4:	af00      	add	r7, sp, #0
 80042b6:	4603      	mov	r3, r0
 80042b8:	71fb      	strb	r3, [r7, #7]
	HAL_GPIO_WritePin(HCSR04_CfgParam[au8_HCSR04_Instance].TRIG_GPIO, HCSR04_CfgParam[au8_HCSR04_Instance].TRIG_PIN, 1);
 80042ba:	79fa      	ldrb	r2, [r7, #7]
 80042bc:	4917      	ldr	r1, [pc, #92]	; (800431c <HCSR04_Trigger+0x6c>)
 80042be:	4613      	mov	r3, r2
 80042c0:	009b      	lsls	r3, r3, #2
 80042c2:	4413      	add	r3, r2
 80042c4:	009b      	lsls	r3, r3, #2
 80042c6:	440b      	add	r3, r1
 80042c8:	6818      	ldr	r0, [r3, #0]
 80042ca:	79fa      	ldrb	r2, [r7, #7]
 80042cc:	4913      	ldr	r1, [pc, #76]	; (800431c <HCSR04_Trigger+0x6c>)
 80042ce:	4613      	mov	r3, r2
 80042d0:	009b      	lsls	r3, r3, #2
 80042d2:	4413      	add	r3, r2
 80042d4:	009b      	lsls	r3, r3, #2
 80042d6:	440b      	add	r3, r1
 80042d8:	3304      	adds	r3, #4
 80042da:	881b      	ldrh	r3, [r3, #0]
 80042dc:	2201      	movs	r2, #1
 80042de:	4619      	mov	r1, r3
 80042e0:	f7fd fd24 	bl	8001d2c <HAL_GPIO_WritePin>
	DWT_Delay_us(2);
 80042e4:	2002      	movs	r0, #2
 80042e6:	f7ff fdb5 	bl	8003e54 <DWT_Delay_us>
	HAL_GPIO_WritePin(HCSR04_CfgParam[au8_HCSR04_Instance].TRIG_GPIO, HCSR04_CfgParam[au8_HCSR04_Instance].TRIG_PIN, 0);
 80042ea:	79fa      	ldrb	r2, [r7, #7]
 80042ec:	490b      	ldr	r1, [pc, #44]	; (800431c <HCSR04_Trigger+0x6c>)
 80042ee:	4613      	mov	r3, r2
 80042f0:	009b      	lsls	r3, r3, #2
 80042f2:	4413      	add	r3, r2
 80042f4:	009b      	lsls	r3, r3, #2
 80042f6:	440b      	add	r3, r1
 80042f8:	6818      	ldr	r0, [r3, #0]
 80042fa:	79fa      	ldrb	r2, [r7, #7]
 80042fc:	4907      	ldr	r1, [pc, #28]	; (800431c <HCSR04_Trigger+0x6c>)
 80042fe:	4613      	mov	r3, r2
 8004300:	009b      	lsls	r3, r3, #2
 8004302:	4413      	add	r3, r2
 8004304:	009b      	lsls	r3, r3, #2
 8004306:	440b      	add	r3, r1
 8004308:	3304      	adds	r3, #4
 800430a:	881b      	ldrh	r3, [r3, #0]
 800430c:	2200      	movs	r2, #0
 800430e:	4619      	mov	r1, r3
 8004310:	f7fd fd0c 	bl	8001d2c <HAL_GPIO_WritePin>
}
 8004314:	bf00      	nop
 8004316:	3708      	adds	r7, #8
 8004318:	46bd      	mov	sp, r7
 800431a:	bd80      	pop	{r7, pc}
 800431c:	08007164 	.word	0x08007164

08004320 <DWT_Delay_Init>:

#include "DWT_Delay.h"


uint32_t DWT_Delay_Init(void)
{
 8004320:	b480      	push	{r7}
 8004322:	af00      	add	r7, sp, #0
    /* Disable TRC */
    CoreDebug->DEMCR &= ~CoreDebug_DEMCR_TRCENA_Msk; // ~0x01000000;
 8004324:	4b14      	ldr	r3, [pc, #80]	; (8004378 <DWT_Delay_Init+0x58>)
 8004326:	68db      	ldr	r3, [r3, #12]
 8004328:	4a13      	ldr	r2, [pc, #76]	; (8004378 <DWT_Delay_Init+0x58>)
 800432a:	f023 7380 	bic.w	r3, r3, #16777216	; 0x1000000
 800432e:	60d3      	str	r3, [r2, #12]
    /* Enable TRC */
    CoreDebug->DEMCR |=  CoreDebug_DEMCR_TRCENA_Msk; // 0x01000000;
 8004330:	4b11      	ldr	r3, [pc, #68]	; (8004378 <DWT_Delay_Init+0x58>)
 8004332:	68db      	ldr	r3, [r3, #12]
 8004334:	4a10      	ldr	r2, [pc, #64]	; (8004378 <DWT_Delay_Init+0x58>)
 8004336:	f043 7380 	orr.w	r3, r3, #16777216	; 0x1000000
 800433a:	60d3      	str	r3, [r2, #12]

    /* Disable clock cycle counter */
    DWT->CTRL &= ~DWT_CTRL_CYCCNTENA_Msk; //~0x00000001;
 800433c:	4b0f      	ldr	r3, [pc, #60]	; (800437c <DWT_Delay_Init+0x5c>)
 800433e:	681b      	ldr	r3, [r3, #0]
 8004340:	4a0e      	ldr	r2, [pc, #56]	; (800437c <DWT_Delay_Init+0x5c>)
 8004342:	f023 0301 	bic.w	r3, r3, #1
 8004346:	6013      	str	r3, [r2, #0]
    /* Enable  clock cycle counter */
    DWT->CTRL |=  DWT_CTRL_CYCCNTENA_Msk; //0x00000001;
 8004348:	4b0c      	ldr	r3, [pc, #48]	; (800437c <DWT_Delay_Init+0x5c>)
 800434a:	681b      	ldr	r3, [r3, #0]
 800434c:	4a0b      	ldr	r2, [pc, #44]	; (800437c <DWT_Delay_Init+0x5c>)
 800434e:	f043 0301 	orr.w	r3, r3, #1
 8004352:	6013      	str	r3, [r2, #0]

    /* Reset the clock cycle counter value */
    DWT->CYCCNT = 0;
 8004354:	4b09      	ldr	r3, [pc, #36]	; (800437c <DWT_Delay_Init+0x5c>)
 8004356:	2200      	movs	r2, #0
 8004358:	605a      	str	r2, [r3, #4]

    /* 3 NO OPERATION instructions */
    __ASM volatile ("NOP");
 800435a:	bf00      	nop
    __ASM volatile ("NOP");
 800435c:	bf00      	nop
    __ASM volatile ("NOP");
 800435e:	bf00      	nop

    /* Check if clock cycle counter has started */
    if(DWT->CYCCNT)
 8004360:	4b06      	ldr	r3, [pc, #24]	; (800437c <DWT_Delay_Init+0x5c>)
 8004362:	685b      	ldr	r3, [r3, #4]
 8004364:	2b00      	cmp	r3, #0
 8004366:	d001      	beq.n	800436c <DWT_Delay_Init+0x4c>
    {
       return 0; /*clock cycle counter started*/
 8004368:	2300      	movs	r3, #0
 800436a:	e000      	b.n	800436e <DWT_Delay_Init+0x4e>
    }
    else
    {
      return 1; /*clock cycle counter not started*/
 800436c:	2301      	movs	r3, #1
    }
}
 800436e:	4618      	mov	r0, r3
 8004370:	46bd      	mov	sp, r7
 8004372:	f85d 7b04 	ldr.w	r7, [sp], #4
 8004376:	4770      	bx	lr
 8004378:	e000edf0 	.word	0xe000edf0
 800437c:	e0001000 	.word	0xe0001000

08004380 <__errno>:
 8004380:	4b01      	ldr	r3, [pc, #4]	; (8004388 <__errno+0x8>)
 8004382:	6818      	ldr	r0, [r3, #0]
 8004384:	4770      	bx	lr
 8004386:	bf00      	nop
 8004388:	2000000c 	.word	0x2000000c

0800438c <__libc_init_array>:
 800438c:	b570      	push	{r4, r5, r6, lr}
 800438e:	4d0d      	ldr	r5, [pc, #52]	; (80043c4 <__libc_init_array+0x38>)
 8004390:	4c0d      	ldr	r4, [pc, #52]	; (80043c8 <__libc_init_array+0x3c>)
 8004392:	1b64      	subs	r4, r4, r5
 8004394:	10a4      	asrs	r4, r4, #2
 8004396:	2600      	movs	r6, #0
 8004398:	42a6      	cmp	r6, r4
 800439a:	d109      	bne.n	80043b0 <__libc_init_array+0x24>
 800439c:	4d0b      	ldr	r5, [pc, #44]	; (80043cc <__libc_init_array+0x40>)
 800439e:	4c0c      	ldr	r4, [pc, #48]	; (80043d0 <__libc_init_array+0x44>)
 80043a0:	f002 feb4 	bl	800710c <_init>
 80043a4:	1b64      	subs	r4, r4, r5
 80043a6:	10a4      	asrs	r4, r4, #2
 80043a8:	2600      	movs	r6, #0
 80043aa:	42a6      	cmp	r6, r4
 80043ac:	d105      	bne.n	80043ba <__libc_init_array+0x2e>
 80043ae:	bd70      	pop	{r4, r5, r6, pc}
 80043b0:	f855 3b04 	ldr.w	r3, [r5], #4
 80043b4:	4798      	blx	r3
 80043b6:	3601      	adds	r6, #1
 80043b8:	e7ee      	b.n	8004398 <__libc_init_array+0xc>
 80043ba:	f855 3b04 	ldr.w	r3, [r5], #4
 80043be:	4798      	blx	r3
 80043c0:	3601      	adds	r6, #1
 80043c2:	e7f2      	b.n	80043aa <__libc_init_array+0x1e>
 80043c4:	0800759c 	.word	0x0800759c
 80043c8:	0800759c 	.word	0x0800759c
 80043cc:	0800759c 	.word	0x0800759c
 80043d0:	080075a0 	.word	0x080075a0

080043d4 <memset>:
 80043d4:	4402      	add	r2, r0
 80043d6:	4603      	mov	r3, r0
 80043d8:	4293      	cmp	r3, r2
 80043da:	d100      	bne.n	80043de <memset+0xa>
 80043dc:	4770      	bx	lr
 80043de:	f803 1b01 	strb.w	r1, [r3], #1
 80043e2:	e7f9      	b.n	80043d8 <memset+0x4>

080043e4 <__cvt>:
 80043e4:	e92d 47ff 	stmdb	sp!, {r0, r1, r2, r3, r4, r5, r6, r7, r8, r9, sl, lr}
 80043e8:	ec55 4b10 	vmov	r4, r5, d0
 80043ec:	2d00      	cmp	r5, #0
 80043ee:	460e      	mov	r6, r1
 80043f0:	4619      	mov	r1, r3
 80043f2:	462b      	mov	r3, r5
 80043f4:	bfbb      	ittet	lt
 80043f6:	f105 4300 	addlt.w	r3, r5, #2147483648	; 0x80000000
 80043fa:	461d      	movlt	r5, r3
 80043fc:	2300      	movge	r3, #0
 80043fe:	232d      	movlt	r3, #45	; 0x2d
 8004400:	700b      	strb	r3, [r1, #0]
 8004402:	9b0d      	ldr	r3, [sp, #52]	; 0x34
 8004404:	f8dd a030 	ldr.w	sl, [sp, #48]	; 0x30
 8004408:	4691      	mov	r9, r2
 800440a:	f023 0820 	bic.w	r8, r3, #32
 800440e:	bfbc      	itt	lt
 8004410:	4622      	movlt	r2, r4
 8004412:	4614      	movlt	r4, r2
 8004414:	f1b8 0f46 	cmp.w	r8, #70	; 0x46
 8004418:	d005      	beq.n	8004426 <__cvt+0x42>
 800441a:	f1b8 0f45 	cmp.w	r8, #69	; 0x45
 800441e:	d100      	bne.n	8004422 <__cvt+0x3e>
 8004420:	3601      	adds	r6, #1
 8004422:	2102      	movs	r1, #2
 8004424:	e000      	b.n	8004428 <__cvt+0x44>
 8004426:	2103      	movs	r1, #3
 8004428:	ab03      	add	r3, sp, #12
 800442a:	9301      	str	r3, [sp, #4]
 800442c:	ab02      	add	r3, sp, #8
 800442e:	9300      	str	r3, [sp, #0]
 8004430:	ec45 4b10 	vmov	d0, r4, r5
 8004434:	4653      	mov	r3, sl
 8004436:	4632      	mov	r2, r6
 8004438:	f000 fcea 	bl	8004e10 <_dtoa_r>
 800443c:	f1b8 0f47 	cmp.w	r8, #71	; 0x47
 8004440:	4607      	mov	r7, r0
 8004442:	d102      	bne.n	800444a <__cvt+0x66>
 8004444:	f019 0f01 	tst.w	r9, #1
 8004448:	d022      	beq.n	8004490 <__cvt+0xac>
 800444a:	f1b8 0f46 	cmp.w	r8, #70	; 0x46
 800444e:	eb07 0906 	add.w	r9, r7, r6
 8004452:	d110      	bne.n	8004476 <__cvt+0x92>
 8004454:	783b      	ldrb	r3, [r7, #0]
 8004456:	2b30      	cmp	r3, #48	; 0x30
 8004458:	d10a      	bne.n	8004470 <__cvt+0x8c>
 800445a:	2200      	movs	r2, #0
 800445c:	2300      	movs	r3, #0
 800445e:	4620      	mov	r0, r4
 8004460:	4629      	mov	r1, r5
 8004462:	f7fc fb51 	bl	8000b08 <__aeabi_dcmpeq>
 8004466:	b918      	cbnz	r0, 8004470 <__cvt+0x8c>
 8004468:	f1c6 0601 	rsb	r6, r6, #1
 800446c:	f8ca 6000 	str.w	r6, [sl]
 8004470:	f8da 3000 	ldr.w	r3, [sl]
 8004474:	4499      	add	r9, r3
 8004476:	2200      	movs	r2, #0
 8004478:	2300      	movs	r3, #0
 800447a:	4620      	mov	r0, r4
 800447c:	4629      	mov	r1, r5
 800447e:	f7fc fb43 	bl	8000b08 <__aeabi_dcmpeq>
 8004482:	b108      	cbz	r0, 8004488 <__cvt+0xa4>
 8004484:	f8cd 900c 	str.w	r9, [sp, #12]
 8004488:	2230      	movs	r2, #48	; 0x30
 800448a:	9b03      	ldr	r3, [sp, #12]
 800448c:	454b      	cmp	r3, r9
 800448e:	d307      	bcc.n	80044a0 <__cvt+0xbc>
 8004490:	9b03      	ldr	r3, [sp, #12]
 8004492:	9a0e      	ldr	r2, [sp, #56]	; 0x38
 8004494:	1bdb      	subs	r3, r3, r7
 8004496:	4638      	mov	r0, r7
 8004498:	6013      	str	r3, [r2, #0]
 800449a:	b004      	add	sp, #16
 800449c:	e8bd 87f0 	ldmia.w	sp!, {r4, r5, r6, r7, r8, r9, sl, pc}
 80044a0:	1c59      	adds	r1, r3, #1
 80044a2:	9103      	str	r1, [sp, #12]
 80044a4:	701a      	strb	r2, [r3, #0]
 80044a6:	e7f0      	b.n	800448a <__cvt+0xa6>

080044a8 <__exponent>:
 80044a8:	b5f7      	push	{r0, r1, r2, r4, r5, r6, r7, lr}
 80044aa:	4603      	mov	r3, r0
 80044ac:	2900      	cmp	r1, #0
 80044ae:	bfb8      	it	lt
 80044b0:	4249      	neglt	r1, r1
 80044b2:	f803 2b02 	strb.w	r2, [r3], #2
 80044b6:	bfb4      	ite	lt
 80044b8:	222d      	movlt	r2, #45	; 0x2d
 80044ba:	222b      	movge	r2, #43	; 0x2b
 80044bc:	2909      	cmp	r1, #9
 80044be:	7042      	strb	r2, [r0, #1]
 80044c0:	dd2a      	ble.n	8004518 <__exponent+0x70>
 80044c2:	f10d 0407 	add.w	r4, sp, #7
 80044c6:	46a4      	mov	ip, r4
 80044c8:	270a      	movs	r7, #10
 80044ca:	46a6      	mov	lr, r4
 80044cc:	460a      	mov	r2, r1
 80044ce:	fb91 f6f7 	sdiv	r6, r1, r7
 80044d2:	fb07 1516 	mls	r5, r7, r6, r1
 80044d6:	3530      	adds	r5, #48	; 0x30
 80044d8:	2a63      	cmp	r2, #99	; 0x63
 80044da:	f104 34ff 	add.w	r4, r4, #4294967295	; 0xffffffff
 80044de:	f80e 5c01 	strb.w	r5, [lr, #-1]
 80044e2:	4631      	mov	r1, r6
 80044e4:	dcf1      	bgt.n	80044ca <__exponent+0x22>
 80044e6:	3130      	adds	r1, #48	; 0x30
 80044e8:	f1ae 0502 	sub.w	r5, lr, #2
 80044ec:	f804 1c01 	strb.w	r1, [r4, #-1]
 80044f0:	1c44      	adds	r4, r0, #1
 80044f2:	4629      	mov	r1, r5
 80044f4:	4561      	cmp	r1, ip
 80044f6:	d30a      	bcc.n	800450e <__exponent+0x66>
 80044f8:	f10d 0209 	add.w	r2, sp, #9
 80044fc:	eba2 020e 	sub.w	r2, r2, lr
 8004500:	4565      	cmp	r5, ip
 8004502:	bf88      	it	hi
 8004504:	2200      	movhi	r2, #0
 8004506:	4413      	add	r3, r2
 8004508:	1a18      	subs	r0, r3, r0
 800450a:	b003      	add	sp, #12
 800450c:	bdf0      	pop	{r4, r5, r6, r7, pc}
 800450e:	f811 2b01 	ldrb.w	r2, [r1], #1
 8004512:	f804 2f01 	strb.w	r2, [r4, #1]!
 8004516:	e7ed      	b.n	80044f4 <__exponent+0x4c>
 8004518:	2330      	movs	r3, #48	; 0x30
 800451a:	3130      	adds	r1, #48	; 0x30
 800451c:	7083      	strb	r3, [r0, #2]
 800451e:	70c1      	strb	r1, [r0, #3]
 8004520:	1d03      	adds	r3, r0, #4
 8004522:	e7f1      	b.n	8004508 <__exponent+0x60>

08004524 <_printf_float>:
 8004524:	e92d 4ff0 	stmdb	sp!, {r4, r5, r6, r7, r8, r9, sl, fp, lr}
 8004528:	ed2d 8b02 	vpush	{d8}
 800452c:	b08d      	sub	sp, #52	; 0x34
 800452e:	460c      	mov	r4, r1
 8004530:	f8dd 8060 	ldr.w	r8, [sp, #96]	; 0x60
 8004534:	4616      	mov	r6, r2
 8004536:	461f      	mov	r7, r3
 8004538:	4605      	mov	r5, r0
 800453a:	f001 fa55 	bl	80059e8 <_localeconv_r>
 800453e:	f8d0 a000 	ldr.w	sl, [r0]
 8004542:	4650      	mov	r0, sl
 8004544:	f7fb fe64 	bl	8000210 <strlen>
 8004548:	2300      	movs	r3, #0
 800454a:	930a      	str	r3, [sp, #40]	; 0x28
 800454c:	6823      	ldr	r3, [r4, #0]
 800454e:	9305      	str	r3, [sp, #20]
 8004550:	f8d8 3000 	ldr.w	r3, [r8]
 8004554:	f894 b018 	ldrb.w	fp, [r4, #24]
 8004558:	3307      	adds	r3, #7
 800455a:	f023 0307 	bic.w	r3, r3, #7
 800455e:	f103 0208 	add.w	r2, r3, #8
 8004562:	f8c8 2000 	str.w	r2, [r8]
 8004566:	e9d3 2300 	ldrd	r2, r3, [r3]
 800456a:	e9c4 2312 	strd	r2, r3, [r4, #72]	; 0x48
 800456e:	e9d4 8912 	ldrd	r8, r9, [r4, #72]	; 0x48
 8004572:	f029 4300 	bic.w	r3, r9, #2147483648	; 0x80000000
 8004576:	9307      	str	r3, [sp, #28]
 8004578:	f8cd 8018 	str.w	r8, [sp, #24]
 800457c:	ee08 0a10 	vmov	s16, r0
 8004580:	4b9f      	ldr	r3, [pc, #636]	; (8004800 <_printf_float+0x2dc>)
 8004582:	e9dd 0106 	ldrd	r0, r1, [sp, #24]
 8004586:	f04f 32ff 	mov.w	r2, #4294967295	; 0xffffffff
 800458a:	f7fc faef 	bl	8000b6c <__aeabi_dcmpun>
 800458e:	bb88      	cbnz	r0, 80045f4 <_printf_float+0xd0>
 8004590:	e9dd 0106 	ldrd	r0, r1, [sp, #24]
 8004594:	4b9a      	ldr	r3, [pc, #616]	; (8004800 <_printf_float+0x2dc>)
 8004596:	f04f 32ff 	mov.w	r2, #4294967295	; 0xffffffff
 800459a:	f7fc fac9 	bl	8000b30 <__aeabi_dcmple>
 800459e:	bb48      	cbnz	r0, 80045f4 <_printf_float+0xd0>
 80045a0:	2200      	movs	r2, #0
 80045a2:	2300      	movs	r3, #0
 80045a4:	4640      	mov	r0, r8
 80045a6:	4649      	mov	r1, r9
 80045a8:	f7fc fab8 	bl	8000b1c <__aeabi_dcmplt>
 80045ac:	b110      	cbz	r0, 80045b4 <_printf_float+0x90>
 80045ae:	232d      	movs	r3, #45	; 0x2d
 80045b0:	f884 3043 	strb.w	r3, [r4, #67]	; 0x43
 80045b4:	4b93      	ldr	r3, [pc, #588]	; (8004804 <_printf_float+0x2e0>)
 80045b6:	4894      	ldr	r0, [pc, #592]	; (8004808 <_printf_float+0x2e4>)
 80045b8:	f1bb 0f47 	cmp.w	fp, #71	; 0x47
 80045bc:	bf94      	ite	ls
 80045be:	4698      	movls	r8, r3
 80045c0:	4680      	movhi	r8, r0
 80045c2:	2303      	movs	r3, #3
 80045c4:	6123      	str	r3, [r4, #16]
 80045c6:	9b05      	ldr	r3, [sp, #20]
 80045c8:	f023 0204 	bic.w	r2, r3, #4
 80045cc:	6022      	str	r2, [r4, #0]
 80045ce:	f04f 0900 	mov.w	r9, #0
 80045d2:	9700      	str	r7, [sp, #0]
 80045d4:	4633      	mov	r3, r6
 80045d6:	aa0b      	add	r2, sp, #44	; 0x2c
 80045d8:	4621      	mov	r1, r4
 80045da:	4628      	mov	r0, r5
 80045dc:	f000 f9d8 	bl	8004990 <_printf_common>
 80045e0:	3001      	adds	r0, #1
 80045e2:	f040 8090 	bne.w	8004706 <_printf_float+0x1e2>
 80045e6:	f04f 30ff 	mov.w	r0, #4294967295	; 0xffffffff
 80045ea:	b00d      	add	sp, #52	; 0x34
 80045ec:	ecbd 8b02 	vpop	{d8}
 80045f0:	e8bd 8ff0 	ldmia.w	sp!, {r4, r5, r6, r7, r8, r9, sl, fp, pc}
 80045f4:	4642      	mov	r2, r8
 80045f6:	464b      	mov	r3, r9
 80045f8:	4640      	mov	r0, r8
 80045fa:	4649      	mov	r1, r9
 80045fc:	f7fc fab6 	bl	8000b6c <__aeabi_dcmpun>
 8004600:	b140      	cbz	r0, 8004614 <_printf_float+0xf0>
 8004602:	464b      	mov	r3, r9
 8004604:	2b00      	cmp	r3, #0
 8004606:	bfbc      	itt	lt
 8004608:	232d      	movlt	r3, #45	; 0x2d
 800460a:	f884 3043 	strblt.w	r3, [r4, #67]	; 0x43
 800460e:	487f      	ldr	r0, [pc, #508]	; (800480c <_printf_float+0x2e8>)
 8004610:	4b7f      	ldr	r3, [pc, #508]	; (8004810 <_printf_float+0x2ec>)
 8004612:	e7d1      	b.n	80045b8 <_printf_float+0x94>
 8004614:	6863      	ldr	r3, [r4, #4]
 8004616:	f00b 02df 	and.w	r2, fp, #223	; 0xdf
 800461a:	9206      	str	r2, [sp, #24]
 800461c:	1c5a      	adds	r2, r3, #1
 800461e:	d13f      	bne.n	80046a0 <_printf_float+0x17c>
 8004620:	2306      	movs	r3, #6
 8004622:	6063      	str	r3, [r4, #4]
 8004624:	9b05      	ldr	r3, [sp, #20]
 8004626:	6861      	ldr	r1, [r4, #4]
 8004628:	f443 6280 	orr.w	r2, r3, #1024	; 0x400
 800462c:	2300      	movs	r3, #0
 800462e:	9303      	str	r3, [sp, #12]
 8004630:	ab0a      	add	r3, sp, #40	; 0x28
 8004632:	e9cd b301 	strd	fp, r3, [sp, #4]
 8004636:	ab09      	add	r3, sp, #36	; 0x24
 8004638:	ec49 8b10 	vmov	d0, r8, r9
 800463c:	9300      	str	r3, [sp, #0]
 800463e:	6022      	str	r2, [r4, #0]
 8004640:	f10d 0323 	add.w	r3, sp, #35	; 0x23
 8004644:	4628      	mov	r0, r5
 8004646:	f7ff fecd 	bl	80043e4 <__cvt>
 800464a:	9b06      	ldr	r3, [sp, #24]
 800464c:	9909      	ldr	r1, [sp, #36]	; 0x24
 800464e:	2b47      	cmp	r3, #71	; 0x47
 8004650:	4680      	mov	r8, r0
 8004652:	d108      	bne.n	8004666 <_printf_float+0x142>
 8004654:	1cc8      	adds	r0, r1, #3
 8004656:	db02      	blt.n	800465e <_printf_float+0x13a>
 8004658:	6863      	ldr	r3, [r4, #4]
 800465a:	4299      	cmp	r1, r3
 800465c:	dd41      	ble.n	80046e2 <_printf_float+0x1be>
 800465e:	f1ab 0b02 	sub.w	fp, fp, #2
 8004662:	fa5f fb8b 	uxtb.w	fp, fp
 8004666:	f1bb 0f65 	cmp.w	fp, #101	; 0x65
 800466a:	d820      	bhi.n	80046ae <_printf_float+0x18a>
 800466c:	3901      	subs	r1, #1
 800466e:	465a      	mov	r2, fp
 8004670:	f104 0050 	add.w	r0, r4, #80	; 0x50
 8004674:	9109      	str	r1, [sp, #36]	; 0x24
 8004676:	f7ff ff17 	bl	80044a8 <__exponent>
 800467a:	9a0a      	ldr	r2, [sp, #40]	; 0x28
 800467c:	1813      	adds	r3, r2, r0
 800467e:	2a01      	cmp	r2, #1
 8004680:	4681      	mov	r9, r0
 8004682:	6123      	str	r3, [r4, #16]
 8004684:	dc02      	bgt.n	800468c <_printf_float+0x168>
 8004686:	6822      	ldr	r2, [r4, #0]
 8004688:	07d2      	lsls	r2, r2, #31
 800468a:	d501      	bpl.n	8004690 <_printf_float+0x16c>
 800468c:	3301      	adds	r3, #1
 800468e:	6123      	str	r3, [r4, #16]
 8004690:	f89d 3023 	ldrb.w	r3, [sp, #35]	; 0x23
 8004694:	2b00      	cmp	r3, #0
 8004696:	d09c      	beq.n	80045d2 <_printf_float+0xae>
 8004698:	232d      	movs	r3, #45	; 0x2d
 800469a:	f884 3043 	strb.w	r3, [r4, #67]	; 0x43
 800469e:	e798      	b.n	80045d2 <_printf_float+0xae>
 80046a0:	9a06      	ldr	r2, [sp, #24]
 80046a2:	2a47      	cmp	r2, #71	; 0x47
 80046a4:	d1be      	bne.n	8004624 <_printf_float+0x100>
 80046a6:	2b00      	cmp	r3, #0
 80046a8:	d1bc      	bne.n	8004624 <_printf_float+0x100>
 80046aa:	2301      	movs	r3, #1
 80046ac:	e7b9      	b.n	8004622 <_printf_float+0xfe>
 80046ae:	f1bb 0f66 	cmp.w	fp, #102	; 0x66
 80046b2:	d118      	bne.n	80046e6 <_printf_float+0x1c2>
 80046b4:	2900      	cmp	r1, #0
 80046b6:	6863      	ldr	r3, [r4, #4]
 80046b8:	dd0b      	ble.n	80046d2 <_printf_float+0x1ae>
 80046ba:	6121      	str	r1, [r4, #16]
 80046bc:	b913      	cbnz	r3, 80046c4 <_printf_float+0x1a0>
 80046be:	6822      	ldr	r2, [r4, #0]
 80046c0:	07d0      	lsls	r0, r2, #31
 80046c2:	d502      	bpl.n	80046ca <_printf_float+0x1a6>
 80046c4:	3301      	adds	r3, #1
 80046c6:	440b      	add	r3, r1
 80046c8:	6123      	str	r3, [r4, #16]
 80046ca:	65a1      	str	r1, [r4, #88]	; 0x58
 80046cc:	f04f 0900 	mov.w	r9, #0
 80046d0:	e7de      	b.n	8004690 <_printf_float+0x16c>
 80046d2:	b913      	cbnz	r3, 80046da <_printf_float+0x1b6>
 80046d4:	6822      	ldr	r2, [r4, #0]
 80046d6:	07d2      	lsls	r2, r2, #31
 80046d8:	d501      	bpl.n	80046de <_printf_float+0x1ba>
 80046da:	3302      	adds	r3, #2
 80046dc:	e7f4      	b.n	80046c8 <_printf_float+0x1a4>
 80046de:	2301      	movs	r3, #1
 80046e0:	e7f2      	b.n	80046c8 <_printf_float+0x1a4>
 80046e2:	f04f 0b67 	mov.w	fp, #103	; 0x67
 80046e6:	9b0a      	ldr	r3, [sp, #40]	; 0x28
 80046e8:	4299      	cmp	r1, r3
 80046ea:	db05      	blt.n	80046f8 <_printf_float+0x1d4>
 80046ec:	6823      	ldr	r3, [r4, #0]
 80046ee:	6121      	str	r1, [r4, #16]
 80046f0:	07d8      	lsls	r0, r3, #31
 80046f2:	d5ea      	bpl.n	80046ca <_printf_float+0x1a6>
 80046f4:	1c4b      	adds	r3, r1, #1
 80046f6:	e7e7      	b.n	80046c8 <_printf_float+0x1a4>
 80046f8:	2900      	cmp	r1, #0
 80046fa:	bfd4      	ite	le
 80046fc:	f1c1 0202 	rsble	r2, r1, #2
 8004700:	2201      	movgt	r2, #1
 8004702:	4413      	add	r3, r2
 8004704:	e7e0      	b.n	80046c8 <_printf_float+0x1a4>
 8004706:	6823      	ldr	r3, [r4, #0]
 8004708:	055a      	lsls	r2, r3, #21
 800470a:	d407      	bmi.n	800471c <_printf_float+0x1f8>
 800470c:	6923      	ldr	r3, [r4, #16]
 800470e:	4642      	mov	r2, r8
 8004710:	4631      	mov	r1, r6
 8004712:	4628      	mov	r0, r5
 8004714:	47b8      	blx	r7
 8004716:	3001      	adds	r0, #1
 8004718:	d12c      	bne.n	8004774 <_printf_float+0x250>
 800471a:	e764      	b.n	80045e6 <_printf_float+0xc2>
 800471c:	f1bb 0f65 	cmp.w	fp, #101	; 0x65
 8004720:	f240 80e0 	bls.w	80048e4 <_printf_float+0x3c0>
 8004724:	e9d4 0112 	ldrd	r0, r1, [r4, #72]	; 0x48
 8004728:	2200      	movs	r2, #0
 800472a:	2300      	movs	r3, #0
 800472c:	f7fc f9ec 	bl	8000b08 <__aeabi_dcmpeq>
 8004730:	2800      	cmp	r0, #0
 8004732:	d034      	beq.n	800479e <_printf_float+0x27a>
 8004734:	4a37      	ldr	r2, [pc, #220]	; (8004814 <_printf_float+0x2f0>)
 8004736:	2301      	movs	r3, #1
 8004738:	4631      	mov	r1, r6
 800473a:	4628      	mov	r0, r5
 800473c:	47b8      	blx	r7
 800473e:	3001      	adds	r0, #1
 8004740:	f43f af51 	beq.w	80045e6 <_printf_float+0xc2>
 8004744:	e9dd 2309 	ldrd	r2, r3, [sp, #36]	; 0x24
 8004748:	429a      	cmp	r2, r3
 800474a:	db02      	blt.n	8004752 <_printf_float+0x22e>
 800474c:	6823      	ldr	r3, [r4, #0]
 800474e:	07d8      	lsls	r0, r3, #31
 8004750:	d510      	bpl.n	8004774 <_printf_float+0x250>
 8004752:	ee18 3a10 	vmov	r3, s16
 8004756:	4652      	mov	r2, sl
 8004758:	4631      	mov	r1, r6
 800475a:	4628      	mov	r0, r5
 800475c:	47b8      	blx	r7
 800475e:	3001      	adds	r0, #1
 8004760:	f43f af41 	beq.w	80045e6 <_printf_float+0xc2>
 8004764:	f04f 0800 	mov.w	r8, #0
 8004768:	f104 091a 	add.w	r9, r4, #26
 800476c:	9b0a      	ldr	r3, [sp, #40]	; 0x28
 800476e:	3b01      	subs	r3, #1
 8004770:	4543      	cmp	r3, r8
 8004772:	dc09      	bgt.n	8004788 <_printf_float+0x264>
 8004774:	6823      	ldr	r3, [r4, #0]
 8004776:	079b      	lsls	r3, r3, #30
 8004778:	f100 8105 	bmi.w	8004986 <_printf_float+0x462>
 800477c:	68e0      	ldr	r0, [r4, #12]
 800477e:	9b0b      	ldr	r3, [sp, #44]	; 0x2c
 8004780:	4298      	cmp	r0, r3
 8004782:	bfb8      	it	lt
 8004784:	4618      	movlt	r0, r3
 8004786:	e730      	b.n	80045ea <_printf_float+0xc6>
 8004788:	2301      	movs	r3, #1
 800478a:	464a      	mov	r2, r9
 800478c:	4631      	mov	r1, r6
 800478e:	4628      	mov	r0, r5
 8004790:	47b8      	blx	r7
 8004792:	3001      	adds	r0, #1
 8004794:	f43f af27 	beq.w	80045e6 <_printf_float+0xc2>
 8004798:	f108 0801 	add.w	r8, r8, #1
 800479c:	e7e6      	b.n	800476c <_printf_float+0x248>
 800479e:	9b09      	ldr	r3, [sp, #36]	; 0x24
 80047a0:	2b00      	cmp	r3, #0
 80047a2:	dc39      	bgt.n	8004818 <_printf_float+0x2f4>
 80047a4:	4a1b      	ldr	r2, [pc, #108]	; (8004814 <_printf_float+0x2f0>)
 80047a6:	2301      	movs	r3, #1
 80047a8:	4631      	mov	r1, r6
 80047aa:	4628      	mov	r0, r5
 80047ac:	47b8      	blx	r7
 80047ae:	3001      	adds	r0, #1
 80047b0:	f43f af19 	beq.w	80045e6 <_printf_float+0xc2>
 80047b4:	e9dd 2309 	ldrd	r2, r3, [sp, #36]	; 0x24
 80047b8:	4313      	orrs	r3, r2
 80047ba:	d102      	bne.n	80047c2 <_printf_float+0x29e>
 80047bc:	6823      	ldr	r3, [r4, #0]
 80047be:	07d9      	lsls	r1, r3, #31
 80047c0:	d5d8      	bpl.n	8004774 <_printf_float+0x250>
 80047c2:	ee18 3a10 	vmov	r3, s16
 80047c6:	4652      	mov	r2, sl
 80047c8:	4631      	mov	r1, r6
 80047ca:	4628      	mov	r0, r5
 80047cc:	47b8      	blx	r7
 80047ce:	3001      	adds	r0, #1
 80047d0:	f43f af09 	beq.w	80045e6 <_printf_float+0xc2>
 80047d4:	f04f 0900 	mov.w	r9, #0
 80047d8:	f104 0a1a 	add.w	sl, r4, #26
 80047dc:	9b09      	ldr	r3, [sp, #36]	; 0x24
 80047de:	425b      	negs	r3, r3
 80047e0:	454b      	cmp	r3, r9
 80047e2:	dc01      	bgt.n	80047e8 <_printf_float+0x2c4>
 80047e4:	9b0a      	ldr	r3, [sp, #40]	; 0x28
 80047e6:	e792      	b.n	800470e <_printf_float+0x1ea>
 80047e8:	2301      	movs	r3, #1
 80047ea:	4652      	mov	r2, sl
 80047ec:	4631      	mov	r1, r6
 80047ee:	4628      	mov	r0, r5
 80047f0:	47b8      	blx	r7
 80047f2:	3001      	adds	r0, #1
 80047f4:	f43f aef7 	beq.w	80045e6 <_printf_float+0xc2>
 80047f8:	f109 0901 	add.w	r9, r9, #1
 80047fc:	e7ee      	b.n	80047dc <_printf_float+0x2b8>
 80047fe:	bf00      	nop
 8004800:	7fefffff 	.word	0x7fefffff
 8004804:	080071b8 	.word	0x080071b8
 8004808:	080071bc 	.word	0x080071bc
 800480c:	080071c4 	.word	0x080071c4
 8004810:	080071c0 	.word	0x080071c0
 8004814:	080071c8 	.word	0x080071c8
 8004818:	9a0a      	ldr	r2, [sp, #40]	; 0x28
 800481a:	6da3      	ldr	r3, [r4, #88]	; 0x58
 800481c:	429a      	cmp	r2, r3
 800481e:	bfa8      	it	ge
 8004820:	461a      	movge	r2, r3
 8004822:	2a00      	cmp	r2, #0
 8004824:	4691      	mov	r9, r2
 8004826:	dc37      	bgt.n	8004898 <_printf_float+0x374>
 8004828:	f04f 0b00 	mov.w	fp, #0
 800482c:	ea29 79e9 	bic.w	r9, r9, r9, asr #31
 8004830:	f104 021a 	add.w	r2, r4, #26
 8004834:	6da3      	ldr	r3, [r4, #88]	; 0x58
 8004836:	9305      	str	r3, [sp, #20]
 8004838:	eba3 0309 	sub.w	r3, r3, r9
 800483c:	455b      	cmp	r3, fp
 800483e:	dc33      	bgt.n	80048a8 <_printf_float+0x384>
 8004840:	e9dd 2309 	ldrd	r2, r3, [sp, #36]	; 0x24
 8004844:	429a      	cmp	r2, r3
 8004846:	db3b      	blt.n	80048c0 <_printf_float+0x39c>
 8004848:	6823      	ldr	r3, [r4, #0]
 800484a:	07da      	lsls	r2, r3, #31
 800484c:	d438      	bmi.n	80048c0 <_printf_float+0x39c>
 800484e:	9a0a      	ldr	r2, [sp, #40]	; 0x28
 8004850:	9b05      	ldr	r3, [sp, #20]
 8004852:	9909      	ldr	r1, [sp, #36]	; 0x24
 8004854:	1ad3      	subs	r3, r2, r3
 8004856:	eba2 0901 	sub.w	r9, r2, r1
 800485a:	4599      	cmp	r9, r3
 800485c:	bfa8      	it	ge
 800485e:	4699      	movge	r9, r3
 8004860:	f1b9 0f00 	cmp.w	r9, #0
 8004864:	dc35      	bgt.n	80048d2 <_printf_float+0x3ae>
 8004866:	f04f 0800 	mov.w	r8, #0
 800486a:	ea29 79e9 	bic.w	r9, r9, r9, asr #31
 800486e:	f104 0a1a 	add.w	sl, r4, #26
 8004872:	e9dd 2309 	ldrd	r2, r3, [sp, #36]	; 0x24
 8004876:	1a9b      	subs	r3, r3, r2
 8004878:	eba3 0309 	sub.w	r3, r3, r9
 800487c:	4543      	cmp	r3, r8
 800487e:	f77f af79 	ble.w	8004774 <_printf_float+0x250>
 8004882:	2301      	movs	r3, #1
 8004884:	4652      	mov	r2, sl
 8004886:	4631      	mov	r1, r6
 8004888:	4628      	mov	r0, r5
 800488a:	47b8      	blx	r7
 800488c:	3001      	adds	r0, #1
 800488e:	f43f aeaa 	beq.w	80045e6 <_printf_float+0xc2>
 8004892:	f108 0801 	add.w	r8, r8, #1
 8004896:	e7ec      	b.n	8004872 <_printf_float+0x34e>
 8004898:	4613      	mov	r3, r2
 800489a:	4631      	mov	r1, r6
 800489c:	4642      	mov	r2, r8
 800489e:	4628      	mov	r0, r5
 80048a0:	47b8      	blx	r7
 80048a2:	3001      	adds	r0, #1
 80048a4:	d1c0      	bne.n	8004828 <_printf_float+0x304>
 80048a6:	e69e      	b.n	80045e6 <_printf_float+0xc2>
 80048a8:	2301      	movs	r3, #1
 80048aa:	4631      	mov	r1, r6
 80048ac:	4628      	mov	r0, r5
 80048ae:	9205      	str	r2, [sp, #20]
 80048b0:	47b8      	blx	r7
 80048b2:	3001      	adds	r0, #1
 80048b4:	f43f ae97 	beq.w	80045e6 <_printf_float+0xc2>
 80048b8:	9a05      	ldr	r2, [sp, #20]
 80048ba:	f10b 0b01 	add.w	fp, fp, #1
 80048be:	e7b9      	b.n	8004834 <_printf_float+0x310>
 80048c0:	ee18 3a10 	vmov	r3, s16
 80048c4:	4652      	mov	r2, sl
 80048c6:	4631      	mov	r1, r6
 80048c8:	4628      	mov	r0, r5
 80048ca:	47b8      	blx	r7
 80048cc:	3001      	adds	r0, #1
 80048ce:	d1be      	bne.n	800484e <_printf_float+0x32a>
 80048d0:	e689      	b.n	80045e6 <_printf_float+0xc2>
 80048d2:	9a05      	ldr	r2, [sp, #20]
 80048d4:	464b      	mov	r3, r9
 80048d6:	4442      	add	r2, r8
 80048d8:	4631      	mov	r1, r6
 80048da:	4628      	mov	r0, r5
 80048dc:	47b8      	blx	r7
 80048de:	3001      	adds	r0, #1
 80048e0:	d1c1      	bne.n	8004866 <_printf_float+0x342>
 80048e2:	e680      	b.n	80045e6 <_printf_float+0xc2>
 80048e4:	9a0a      	ldr	r2, [sp, #40]	; 0x28
 80048e6:	2a01      	cmp	r2, #1
 80048e8:	dc01      	bgt.n	80048ee <_printf_float+0x3ca>
 80048ea:	07db      	lsls	r3, r3, #31
 80048ec:	d538      	bpl.n	8004960 <_printf_float+0x43c>
 80048ee:	2301      	movs	r3, #1
 80048f0:	4642      	mov	r2, r8
 80048f2:	4631      	mov	r1, r6
 80048f4:	4628      	mov	r0, r5
 80048f6:	47b8      	blx	r7
 80048f8:	3001      	adds	r0, #1
 80048fa:	f43f ae74 	beq.w	80045e6 <_printf_float+0xc2>
 80048fe:	ee18 3a10 	vmov	r3, s16
 8004902:	4652      	mov	r2, sl
 8004904:	4631      	mov	r1, r6
 8004906:	4628      	mov	r0, r5
 8004908:	47b8      	blx	r7
 800490a:	3001      	adds	r0, #1
 800490c:	f43f ae6b 	beq.w	80045e6 <_printf_float+0xc2>
 8004910:	e9d4 0112 	ldrd	r0, r1, [r4, #72]	; 0x48
 8004914:	2200      	movs	r2, #0
 8004916:	2300      	movs	r3, #0
 8004918:	f7fc f8f6 	bl	8000b08 <__aeabi_dcmpeq>
 800491c:	b9d8      	cbnz	r0, 8004956 <_printf_float+0x432>
 800491e:	9b0a      	ldr	r3, [sp, #40]	; 0x28
 8004920:	f108 0201 	add.w	r2, r8, #1
 8004924:	3b01      	subs	r3, #1
 8004926:	4631      	mov	r1, r6
 8004928:	4628      	mov	r0, r5
 800492a:	47b8      	blx	r7
 800492c:	3001      	adds	r0, #1
 800492e:	d10e      	bne.n	800494e <_printf_float+0x42a>
 8004930:	e659      	b.n	80045e6 <_printf_float+0xc2>
 8004932:	2301      	movs	r3, #1
 8004934:	4652      	mov	r2, sl
 8004936:	4631      	mov	r1, r6
 8004938:	4628      	mov	r0, r5
 800493a:	47b8      	blx	r7
 800493c:	3001      	adds	r0, #1
 800493e:	f43f ae52 	beq.w	80045e6 <_printf_float+0xc2>
 8004942:	f108 0801 	add.w	r8, r8, #1
 8004946:	9b0a      	ldr	r3, [sp, #40]	; 0x28
 8004948:	3b01      	subs	r3, #1
 800494a:	4543      	cmp	r3, r8
 800494c:	dcf1      	bgt.n	8004932 <_printf_float+0x40e>
 800494e:	464b      	mov	r3, r9
 8004950:	f104 0250 	add.w	r2, r4, #80	; 0x50
 8004954:	e6dc      	b.n	8004710 <_printf_float+0x1ec>
 8004956:	f04f 0800 	mov.w	r8, #0
 800495a:	f104 0a1a 	add.w	sl, r4, #26
 800495e:	e7f2      	b.n	8004946 <_printf_float+0x422>
 8004960:	2301      	movs	r3, #1
 8004962:	4642      	mov	r2, r8
 8004964:	e7df      	b.n	8004926 <_printf_float+0x402>
 8004966:	2301      	movs	r3, #1
 8004968:	464a      	mov	r2, r9
 800496a:	4631      	mov	r1, r6
 800496c:	4628      	mov	r0, r5
 800496e:	47b8      	blx	r7
 8004970:	3001      	adds	r0, #1
 8004972:	f43f ae38 	beq.w	80045e6 <_printf_float+0xc2>
 8004976:	f108 0801 	add.w	r8, r8, #1
 800497a:	68e3      	ldr	r3, [r4, #12]
 800497c:	990b      	ldr	r1, [sp, #44]	; 0x2c
 800497e:	1a5b      	subs	r3, r3, r1
 8004980:	4543      	cmp	r3, r8
 8004982:	dcf0      	bgt.n	8004966 <_printf_float+0x442>
 8004984:	e6fa      	b.n	800477c <_printf_float+0x258>
 8004986:	f04f 0800 	mov.w	r8, #0
 800498a:	f104 0919 	add.w	r9, r4, #25
 800498e:	e7f4      	b.n	800497a <_printf_float+0x456>

08004990 <_printf_common>:
 8004990:	e92d 47f0 	stmdb	sp!, {r4, r5, r6, r7, r8, r9, sl, lr}
 8004994:	4616      	mov	r6, r2
 8004996:	4699      	mov	r9, r3
 8004998:	688a      	ldr	r2, [r1, #8]
 800499a:	690b      	ldr	r3, [r1, #16]
 800499c:	f8dd 8020 	ldr.w	r8, [sp, #32]
 80049a0:	4293      	cmp	r3, r2
 80049a2:	bfb8      	it	lt
 80049a4:	4613      	movlt	r3, r2
 80049a6:	6033      	str	r3, [r6, #0]
 80049a8:	f891 2043 	ldrb.w	r2, [r1, #67]	; 0x43
 80049ac:	4607      	mov	r7, r0
 80049ae:	460c      	mov	r4, r1
 80049b0:	b10a      	cbz	r2, 80049b6 <_printf_common+0x26>
 80049b2:	3301      	adds	r3, #1
 80049b4:	6033      	str	r3, [r6, #0]
 80049b6:	6823      	ldr	r3, [r4, #0]
 80049b8:	0699      	lsls	r1, r3, #26
 80049ba:	bf42      	ittt	mi
 80049bc:	6833      	ldrmi	r3, [r6, #0]
 80049be:	3302      	addmi	r3, #2
 80049c0:	6033      	strmi	r3, [r6, #0]
 80049c2:	6825      	ldr	r5, [r4, #0]
 80049c4:	f015 0506 	ands.w	r5, r5, #6
 80049c8:	d106      	bne.n	80049d8 <_printf_common+0x48>
 80049ca:	f104 0a19 	add.w	sl, r4, #25
 80049ce:	68e3      	ldr	r3, [r4, #12]
 80049d0:	6832      	ldr	r2, [r6, #0]
 80049d2:	1a9b      	subs	r3, r3, r2
 80049d4:	42ab      	cmp	r3, r5
 80049d6:	dc26      	bgt.n	8004a26 <_printf_common+0x96>
 80049d8:	f894 2043 	ldrb.w	r2, [r4, #67]	; 0x43
 80049dc:	1e13      	subs	r3, r2, #0
 80049de:	6822      	ldr	r2, [r4, #0]
 80049e0:	bf18      	it	ne
 80049e2:	2301      	movne	r3, #1
 80049e4:	0692      	lsls	r2, r2, #26
 80049e6:	d42b      	bmi.n	8004a40 <_printf_common+0xb0>
 80049e8:	f104 0243 	add.w	r2, r4, #67	; 0x43
 80049ec:	4649      	mov	r1, r9
 80049ee:	4638      	mov	r0, r7
 80049f0:	47c0      	blx	r8
 80049f2:	3001      	adds	r0, #1
 80049f4:	d01e      	beq.n	8004a34 <_printf_common+0xa4>
 80049f6:	6823      	ldr	r3, [r4, #0]
 80049f8:	68e5      	ldr	r5, [r4, #12]
 80049fa:	6832      	ldr	r2, [r6, #0]
 80049fc:	f003 0306 	and.w	r3, r3, #6
 8004a00:	2b04      	cmp	r3, #4
 8004a02:	bf08      	it	eq
 8004a04:	1aad      	subeq	r5, r5, r2
 8004a06:	68a3      	ldr	r3, [r4, #8]
 8004a08:	6922      	ldr	r2, [r4, #16]
 8004a0a:	bf0c      	ite	eq
 8004a0c:	ea25 75e5 	biceq.w	r5, r5, r5, asr #31
 8004a10:	2500      	movne	r5, #0
 8004a12:	4293      	cmp	r3, r2
 8004a14:	bfc4      	itt	gt
 8004a16:	1a9b      	subgt	r3, r3, r2
 8004a18:	18ed      	addgt	r5, r5, r3
 8004a1a:	2600      	movs	r6, #0
 8004a1c:	341a      	adds	r4, #26
 8004a1e:	42b5      	cmp	r5, r6
 8004a20:	d11a      	bne.n	8004a58 <_printf_common+0xc8>
 8004a22:	2000      	movs	r0, #0
 8004a24:	e008      	b.n	8004a38 <_printf_common+0xa8>
 8004a26:	2301      	movs	r3, #1
 8004a28:	4652      	mov	r2, sl
 8004a2a:	4649      	mov	r1, r9
 8004a2c:	4638      	mov	r0, r7
 8004a2e:	47c0      	blx	r8
 8004a30:	3001      	adds	r0, #1
 8004a32:	d103      	bne.n	8004a3c <_printf_common+0xac>
 8004a34:	f04f 30ff 	mov.w	r0, #4294967295	; 0xffffffff
 8004a38:	e8bd 87f0 	ldmia.w	sp!, {r4, r5, r6, r7, r8, r9, sl, pc}
 8004a3c:	3501      	adds	r5, #1
 8004a3e:	e7c6      	b.n	80049ce <_printf_common+0x3e>
 8004a40:	18e1      	adds	r1, r4, r3
 8004a42:	1c5a      	adds	r2, r3, #1
 8004a44:	2030      	movs	r0, #48	; 0x30
 8004a46:	f881 0043 	strb.w	r0, [r1, #67]	; 0x43
 8004a4a:	4422      	add	r2, r4
 8004a4c:	f894 1045 	ldrb.w	r1, [r4, #69]	; 0x45
 8004a50:	f882 1043 	strb.w	r1, [r2, #67]	; 0x43
 8004a54:	3302      	adds	r3, #2
 8004a56:	e7c7      	b.n	80049e8 <_printf_common+0x58>
 8004a58:	2301      	movs	r3, #1
 8004a5a:	4622      	mov	r2, r4
 8004a5c:	4649      	mov	r1, r9
 8004a5e:	4638      	mov	r0, r7
 8004a60:	47c0      	blx	r8
 8004a62:	3001      	adds	r0, #1
 8004a64:	d0e6      	beq.n	8004a34 <_printf_common+0xa4>
 8004a66:	3601      	adds	r6, #1
 8004a68:	e7d9      	b.n	8004a1e <_printf_common+0x8e>
	...

08004a6c <_printf_i>:
 8004a6c:	e92d 47ff 	stmdb	sp!, {r0, r1, r2, r3, r4, r5, r6, r7, r8, r9, sl, lr}
 8004a70:	460c      	mov	r4, r1
 8004a72:	4691      	mov	r9, r2
 8004a74:	7e27      	ldrb	r7, [r4, #24]
 8004a76:	990c      	ldr	r1, [sp, #48]	; 0x30
 8004a78:	2f78      	cmp	r7, #120	; 0x78
 8004a7a:	4680      	mov	r8, r0
 8004a7c:	469a      	mov	sl, r3
 8004a7e:	f104 0243 	add.w	r2, r4, #67	; 0x43
 8004a82:	d807      	bhi.n	8004a94 <_printf_i+0x28>
 8004a84:	2f62      	cmp	r7, #98	; 0x62
 8004a86:	d80a      	bhi.n	8004a9e <_printf_i+0x32>
 8004a88:	2f00      	cmp	r7, #0
 8004a8a:	f000 80d8 	beq.w	8004c3e <_printf_i+0x1d2>
 8004a8e:	2f58      	cmp	r7, #88	; 0x58
 8004a90:	f000 80a3 	beq.w	8004bda <_printf_i+0x16e>
 8004a94:	f104 0642 	add.w	r6, r4, #66	; 0x42
 8004a98:	f884 7042 	strb.w	r7, [r4, #66]	; 0x42
 8004a9c:	e03a      	b.n	8004b14 <_printf_i+0xa8>
 8004a9e:	f1a7 0363 	sub.w	r3, r7, #99	; 0x63
 8004aa2:	2b15      	cmp	r3, #21
 8004aa4:	d8f6      	bhi.n	8004a94 <_printf_i+0x28>
 8004aa6:	a001      	add	r0, pc, #4	; (adr r0, 8004aac <_printf_i+0x40>)
 8004aa8:	f850 f023 	ldr.w	pc, [r0, r3, lsl #2]
 8004aac:	08004b05 	.word	0x08004b05
 8004ab0:	08004b19 	.word	0x08004b19
 8004ab4:	08004a95 	.word	0x08004a95
 8004ab8:	08004a95 	.word	0x08004a95
 8004abc:	08004a95 	.word	0x08004a95
 8004ac0:	08004a95 	.word	0x08004a95
 8004ac4:	08004b19 	.word	0x08004b19
 8004ac8:	08004a95 	.word	0x08004a95
 8004acc:	08004a95 	.word	0x08004a95
 8004ad0:	08004a95 	.word	0x08004a95
 8004ad4:	08004a95 	.word	0x08004a95
 8004ad8:	08004c25 	.word	0x08004c25
 8004adc:	08004b49 	.word	0x08004b49
 8004ae0:	08004c07 	.word	0x08004c07
 8004ae4:	08004a95 	.word	0x08004a95
 8004ae8:	08004a95 	.word	0x08004a95
 8004aec:	08004c47 	.word	0x08004c47
 8004af0:	08004a95 	.word	0x08004a95
 8004af4:	08004b49 	.word	0x08004b49
 8004af8:	08004a95 	.word	0x08004a95
 8004afc:	08004a95 	.word	0x08004a95
 8004b00:	08004c0f 	.word	0x08004c0f
 8004b04:	680b      	ldr	r3, [r1, #0]
 8004b06:	1d1a      	adds	r2, r3, #4
 8004b08:	681b      	ldr	r3, [r3, #0]
 8004b0a:	600a      	str	r2, [r1, #0]
 8004b0c:	f104 0642 	add.w	r6, r4, #66	; 0x42
 8004b10:	f884 3042 	strb.w	r3, [r4, #66]	; 0x42
 8004b14:	2301      	movs	r3, #1
 8004b16:	e0a3      	b.n	8004c60 <_printf_i+0x1f4>
 8004b18:	6825      	ldr	r5, [r4, #0]
 8004b1a:	6808      	ldr	r0, [r1, #0]
 8004b1c:	062e      	lsls	r6, r5, #24
 8004b1e:	f100 0304 	add.w	r3, r0, #4
 8004b22:	d50a      	bpl.n	8004b3a <_printf_i+0xce>
 8004b24:	6805      	ldr	r5, [r0, #0]
 8004b26:	600b      	str	r3, [r1, #0]
 8004b28:	2d00      	cmp	r5, #0
 8004b2a:	da03      	bge.n	8004b34 <_printf_i+0xc8>
 8004b2c:	232d      	movs	r3, #45	; 0x2d
 8004b2e:	426d      	negs	r5, r5
 8004b30:	f884 3043 	strb.w	r3, [r4, #67]	; 0x43
 8004b34:	485e      	ldr	r0, [pc, #376]	; (8004cb0 <_printf_i+0x244>)
 8004b36:	230a      	movs	r3, #10
 8004b38:	e019      	b.n	8004b6e <_printf_i+0x102>
 8004b3a:	f015 0f40 	tst.w	r5, #64	; 0x40
 8004b3e:	6805      	ldr	r5, [r0, #0]
 8004b40:	600b      	str	r3, [r1, #0]
 8004b42:	bf18      	it	ne
 8004b44:	b22d      	sxthne	r5, r5
 8004b46:	e7ef      	b.n	8004b28 <_printf_i+0xbc>
 8004b48:	680b      	ldr	r3, [r1, #0]
 8004b4a:	6825      	ldr	r5, [r4, #0]
 8004b4c:	1d18      	adds	r0, r3, #4
 8004b4e:	6008      	str	r0, [r1, #0]
 8004b50:	0628      	lsls	r0, r5, #24
 8004b52:	d501      	bpl.n	8004b58 <_printf_i+0xec>
 8004b54:	681d      	ldr	r5, [r3, #0]
 8004b56:	e002      	b.n	8004b5e <_printf_i+0xf2>
 8004b58:	0669      	lsls	r1, r5, #25
 8004b5a:	d5fb      	bpl.n	8004b54 <_printf_i+0xe8>
 8004b5c:	881d      	ldrh	r5, [r3, #0]
 8004b5e:	4854      	ldr	r0, [pc, #336]	; (8004cb0 <_printf_i+0x244>)
 8004b60:	2f6f      	cmp	r7, #111	; 0x6f
 8004b62:	bf0c      	ite	eq
 8004b64:	2308      	moveq	r3, #8
 8004b66:	230a      	movne	r3, #10
 8004b68:	2100      	movs	r1, #0
 8004b6a:	f884 1043 	strb.w	r1, [r4, #67]	; 0x43
 8004b6e:	6866      	ldr	r6, [r4, #4]
 8004b70:	60a6      	str	r6, [r4, #8]
 8004b72:	2e00      	cmp	r6, #0
 8004b74:	bfa2      	ittt	ge
 8004b76:	6821      	ldrge	r1, [r4, #0]
 8004b78:	f021 0104 	bicge.w	r1, r1, #4
 8004b7c:	6021      	strge	r1, [r4, #0]
 8004b7e:	b90d      	cbnz	r5, 8004b84 <_printf_i+0x118>
 8004b80:	2e00      	cmp	r6, #0
 8004b82:	d04d      	beq.n	8004c20 <_printf_i+0x1b4>
 8004b84:	4616      	mov	r6, r2
 8004b86:	fbb5 f1f3 	udiv	r1, r5, r3
 8004b8a:	fb03 5711 	mls	r7, r3, r1, r5
 8004b8e:	5dc7      	ldrb	r7, [r0, r7]
 8004b90:	f806 7d01 	strb.w	r7, [r6, #-1]!
 8004b94:	462f      	mov	r7, r5
 8004b96:	42bb      	cmp	r3, r7
 8004b98:	460d      	mov	r5, r1
 8004b9a:	d9f4      	bls.n	8004b86 <_printf_i+0x11a>
 8004b9c:	2b08      	cmp	r3, #8
 8004b9e:	d10b      	bne.n	8004bb8 <_printf_i+0x14c>
 8004ba0:	6823      	ldr	r3, [r4, #0]
 8004ba2:	07df      	lsls	r7, r3, #31
 8004ba4:	d508      	bpl.n	8004bb8 <_printf_i+0x14c>
 8004ba6:	6923      	ldr	r3, [r4, #16]
 8004ba8:	6861      	ldr	r1, [r4, #4]
 8004baa:	4299      	cmp	r1, r3
 8004bac:	bfde      	ittt	le
 8004bae:	2330      	movle	r3, #48	; 0x30
 8004bb0:	f806 3c01 	strble.w	r3, [r6, #-1]
 8004bb4:	f106 36ff 	addle.w	r6, r6, #4294967295	; 0xffffffff
 8004bb8:	1b92      	subs	r2, r2, r6
 8004bba:	6122      	str	r2, [r4, #16]
 8004bbc:	f8cd a000 	str.w	sl, [sp]
 8004bc0:	464b      	mov	r3, r9
 8004bc2:	aa03      	add	r2, sp, #12
 8004bc4:	4621      	mov	r1, r4
 8004bc6:	4640      	mov	r0, r8
 8004bc8:	f7ff fee2 	bl	8004990 <_printf_common>
 8004bcc:	3001      	adds	r0, #1
 8004bce:	d14c      	bne.n	8004c6a <_printf_i+0x1fe>
 8004bd0:	f04f 30ff 	mov.w	r0, #4294967295	; 0xffffffff
 8004bd4:	b004      	add	sp, #16
 8004bd6:	e8bd 87f0 	ldmia.w	sp!, {r4, r5, r6, r7, r8, r9, sl, pc}
 8004bda:	4835      	ldr	r0, [pc, #212]	; (8004cb0 <_printf_i+0x244>)
 8004bdc:	f884 7045 	strb.w	r7, [r4, #69]	; 0x45
 8004be0:	6823      	ldr	r3, [r4, #0]
 8004be2:	680e      	ldr	r6, [r1, #0]
 8004be4:	061f      	lsls	r7, r3, #24
 8004be6:	f856 5b04 	ldr.w	r5, [r6], #4
 8004bea:	600e      	str	r6, [r1, #0]
 8004bec:	d514      	bpl.n	8004c18 <_printf_i+0x1ac>
 8004bee:	07d9      	lsls	r1, r3, #31
 8004bf0:	bf44      	itt	mi
 8004bf2:	f043 0320 	orrmi.w	r3, r3, #32
 8004bf6:	6023      	strmi	r3, [r4, #0]
 8004bf8:	b91d      	cbnz	r5, 8004c02 <_printf_i+0x196>
 8004bfa:	6823      	ldr	r3, [r4, #0]
 8004bfc:	f023 0320 	bic.w	r3, r3, #32
 8004c00:	6023      	str	r3, [r4, #0]
 8004c02:	2310      	movs	r3, #16
 8004c04:	e7b0      	b.n	8004b68 <_printf_i+0xfc>
 8004c06:	6823      	ldr	r3, [r4, #0]
 8004c08:	f043 0320 	orr.w	r3, r3, #32
 8004c0c:	6023      	str	r3, [r4, #0]
 8004c0e:	2378      	movs	r3, #120	; 0x78
 8004c10:	4828      	ldr	r0, [pc, #160]	; (8004cb4 <_printf_i+0x248>)
 8004c12:	f884 3045 	strb.w	r3, [r4, #69]	; 0x45
 8004c16:	e7e3      	b.n	8004be0 <_printf_i+0x174>
 8004c18:	065e      	lsls	r6, r3, #25
 8004c1a:	bf48      	it	mi
 8004c1c:	b2ad      	uxthmi	r5, r5
 8004c1e:	e7e6      	b.n	8004bee <_printf_i+0x182>
 8004c20:	4616      	mov	r6, r2
 8004c22:	e7bb      	b.n	8004b9c <_printf_i+0x130>
 8004c24:	680b      	ldr	r3, [r1, #0]
 8004c26:	6826      	ldr	r6, [r4, #0]
 8004c28:	6960      	ldr	r0, [r4, #20]
 8004c2a:	1d1d      	adds	r5, r3, #4
 8004c2c:	600d      	str	r5, [r1, #0]
 8004c2e:	0635      	lsls	r5, r6, #24
 8004c30:	681b      	ldr	r3, [r3, #0]
 8004c32:	d501      	bpl.n	8004c38 <_printf_i+0x1cc>
 8004c34:	6018      	str	r0, [r3, #0]
 8004c36:	e002      	b.n	8004c3e <_printf_i+0x1d2>
 8004c38:	0671      	lsls	r1, r6, #25
 8004c3a:	d5fb      	bpl.n	8004c34 <_printf_i+0x1c8>
 8004c3c:	8018      	strh	r0, [r3, #0]
 8004c3e:	2300      	movs	r3, #0
 8004c40:	6123      	str	r3, [r4, #16]
 8004c42:	4616      	mov	r6, r2
 8004c44:	e7ba      	b.n	8004bbc <_printf_i+0x150>
 8004c46:	680b      	ldr	r3, [r1, #0]
 8004c48:	1d1a      	adds	r2, r3, #4
 8004c4a:	600a      	str	r2, [r1, #0]
 8004c4c:	681e      	ldr	r6, [r3, #0]
 8004c4e:	6862      	ldr	r2, [r4, #4]
 8004c50:	2100      	movs	r1, #0
 8004c52:	4630      	mov	r0, r6
 8004c54:	f7fb fae4 	bl	8000220 <memchr>
 8004c58:	b108      	cbz	r0, 8004c5e <_printf_i+0x1f2>
 8004c5a:	1b80      	subs	r0, r0, r6
 8004c5c:	6060      	str	r0, [r4, #4]
 8004c5e:	6863      	ldr	r3, [r4, #4]
 8004c60:	6123      	str	r3, [r4, #16]
 8004c62:	2300      	movs	r3, #0
 8004c64:	f884 3043 	strb.w	r3, [r4, #67]	; 0x43
 8004c68:	e7a8      	b.n	8004bbc <_printf_i+0x150>
 8004c6a:	6923      	ldr	r3, [r4, #16]
 8004c6c:	4632      	mov	r2, r6
 8004c6e:	4649      	mov	r1, r9
 8004c70:	4640      	mov	r0, r8
 8004c72:	47d0      	blx	sl
 8004c74:	3001      	adds	r0, #1
 8004c76:	d0ab      	beq.n	8004bd0 <_printf_i+0x164>
 8004c78:	6823      	ldr	r3, [r4, #0]
 8004c7a:	079b      	lsls	r3, r3, #30
 8004c7c:	d413      	bmi.n	8004ca6 <_printf_i+0x23a>
 8004c7e:	68e0      	ldr	r0, [r4, #12]
 8004c80:	9b03      	ldr	r3, [sp, #12]
 8004c82:	4298      	cmp	r0, r3
 8004c84:	bfb8      	it	lt
 8004c86:	4618      	movlt	r0, r3
 8004c88:	e7a4      	b.n	8004bd4 <_printf_i+0x168>
 8004c8a:	2301      	movs	r3, #1
 8004c8c:	4632      	mov	r2, r6
 8004c8e:	4649      	mov	r1, r9
 8004c90:	4640      	mov	r0, r8
 8004c92:	47d0      	blx	sl
 8004c94:	3001      	adds	r0, #1
 8004c96:	d09b      	beq.n	8004bd0 <_printf_i+0x164>
 8004c98:	3501      	adds	r5, #1
 8004c9a:	68e3      	ldr	r3, [r4, #12]
 8004c9c:	9903      	ldr	r1, [sp, #12]
 8004c9e:	1a5b      	subs	r3, r3, r1
 8004ca0:	42ab      	cmp	r3, r5
 8004ca2:	dcf2      	bgt.n	8004c8a <_printf_i+0x21e>
 8004ca4:	e7eb      	b.n	8004c7e <_printf_i+0x212>
 8004ca6:	2500      	movs	r5, #0
 8004ca8:	f104 0619 	add.w	r6, r4, #25
 8004cac:	e7f5      	b.n	8004c9a <_printf_i+0x22e>
 8004cae:	bf00      	nop
 8004cb0:	080071ca 	.word	0x080071ca
 8004cb4:	080071db 	.word	0x080071db

08004cb8 <siprintf>:
 8004cb8:	b40e      	push	{r1, r2, r3}
 8004cba:	b500      	push	{lr}
 8004cbc:	b09c      	sub	sp, #112	; 0x70
 8004cbe:	ab1d      	add	r3, sp, #116	; 0x74
 8004cc0:	9002      	str	r0, [sp, #8]
 8004cc2:	9006      	str	r0, [sp, #24]
 8004cc4:	f06f 4100 	mvn.w	r1, #2147483648	; 0x80000000
 8004cc8:	4809      	ldr	r0, [pc, #36]	; (8004cf0 <siprintf+0x38>)
 8004cca:	9107      	str	r1, [sp, #28]
 8004ccc:	9104      	str	r1, [sp, #16]
 8004cce:	4909      	ldr	r1, [pc, #36]	; (8004cf4 <siprintf+0x3c>)
 8004cd0:	f853 2b04 	ldr.w	r2, [r3], #4
 8004cd4:	9105      	str	r1, [sp, #20]
 8004cd6:	6800      	ldr	r0, [r0, #0]
 8004cd8:	9301      	str	r3, [sp, #4]
 8004cda:	a902      	add	r1, sp, #8
 8004cdc:	f001 fb32 	bl	8006344 <_svfiprintf_r>
 8004ce0:	9b02      	ldr	r3, [sp, #8]
 8004ce2:	2200      	movs	r2, #0
 8004ce4:	701a      	strb	r2, [r3, #0]
 8004ce6:	b01c      	add	sp, #112	; 0x70
 8004ce8:	f85d eb04 	ldr.w	lr, [sp], #4
 8004cec:	b003      	add	sp, #12
 8004cee:	4770      	bx	lr
 8004cf0:	2000000c 	.word	0x2000000c
 8004cf4:	ffff0208 	.word	0xffff0208

08004cf8 <quorem>:
 8004cf8:	e92d 4ff7 	stmdb	sp!, {r0, r1, r2, r4, r5, r6, r7, r8, r9, sl, fp, lr}
 8004cfc:	6903      	ldr	r3, [r0, #16]
 8004cfe:	690c      	ldr	r4, [r1, #16]
 8004d00:	42a3      	cmp	r3, r4
 8004d02:	4607      	mov	r7, r0
 8004d04:	f2c0 8081 	blt.w	8004e0a <quorem+0x112>
 8004d08:	3c01      	subs	r4, #1
 8004d0a:	f101 0814 	add.w	r8, r1, #20
 8004d0e:	f100 0514 	add.w	r5, r0, #20
 8004d12:	eb05 0384 	add.w	r3, r5, r4, lsl #2
 8004d16:	9301      	str	r3, [sp, #4]
 8004d18:	f858 3024 	ldr.w	r3, [r8, r4, lsl #2]
 8004d1c:	f855 2024 	ldr.w	r2, [r5, r4, lsl #2]
 8004d20:	3301      	adds	r3, #1
 8004d22:	429a      	cmp	r2, r3
 8004d24:	ea4f 0b84 	mov.w	fp, r4, lsl #2
 8004d28:	eb08 0984 	add.w	r9, r8, r4, lsl #2
 8004d2c:	fbb2 f6f3 	udiv	r6, r2, r3
 8004d30:	d331      	bcc.n	8004d96 <quorem+0x9e>
 8004d32:	f04f 0e00 	mov.w	lr, #0
 8004d36:	4640      	mov	r0, r8
 8004d38:	46ac      	mov	ip, r5
 8004d3a:	46f2      	mov	sl, lr
 8004d3c:	f850 2b04 	ldr.w	r2, [r0], #4
 8004d40:	b293      	uxth	r3, r2
 8004d42:	fb06 e303 	mla	r3, r6, r3, lr
 8004d46:	ea4f 4e13 	mov.w	lr, r3, lsr #16
 8004d4a:	b29b      	uxth	r3, r3
 8004d4c:	ebaa 0303 	sub.w	r3, sl, r3
 8004d50:	0c12      	lsrs	r2, r2, #16
 8004d52:	f8dc a000 	ldr.w	sl, [ip]
 8004d56:	fb06 e202 	mla	r2, r6, r2, lr
 8004d5a:	fa13 f38a 	uxtah	r3, r3, sl
 8004d5e:	ea4f 4e12 	mov.w	lr, r2, lsr #16
 8004d62:	fa1f fa82 	uxth.w	sl, r2
 8004d66:	f8dc 2000 	ldr.w	r2, [ip]
 8004d6a:	ebca 4212 	rsb	r2, sl, r2, lsr #16
 8004d6e:	eb02 4223 	add.w	r2, r2, r3, asr #16
 8004d72:	b29b      	uxth	r3, r3
 8004d74:	ea43 4302 	orr.w	r3, r3, r2, lsl #16
 8004d78:	4581      	cmp	r9, r0
 8004d7a:	f84c 3b04 	str.w	r3, [ip], #4
 8004d7e:	ea4f 4a22 	mov.w	sl, r2, asr #16
 8004d82:	d2db      	bcs.n	8004d3c <quorem+0x44>
 8004d84:	f855 300b 	ldr.w	r3, [r5, fp]
 8004d88:	b92b      	cbnz	r3, 8004d96 <quorem+0x9e>
 8004d8a:	9b01      	ldr	r3, [sp, #4]
 8004d8c:	3b04      	subs	r3, #4
 8004d8e:	429d      	cmp	r5, r3
 8004d90:	461a      	mov	r2, r3
 8004d92:	d32e      	bcc.n	8004df2 <quorem+0xfa>
 8004d94:	613c      	str	r4, [r7, #16]
 8004d96:	4638      	mov	r0, r7
 8004d98:	f001 f8be 	bl	8005f18 <__mcmp>
 8004d9c:	2800      	cmp	r0, #0
 8004d9e:	db24      	blt.n	8004dea <quorem+0xf2>
 8004da0:	3601      	adds	r6, #1
 8004da2:	4628      	mov	r0, r5
 8004da4:	f04f 0c00 	mov.w	ip, #0
 8004da8:	f858 2b04 	ldr.w	r2, [r8], #4
 8004dac:	f8d0 e000 	ldr.w	lr, [r0]
 8004db0:	b293      	uxth	r3, r2
 8004db2:	ebac 0303 	sub.w	r3, ip, r3
 8004db6:	0c12      	lsrs	r2, r2, #16
 8004db8:	fa13 f38e 	uxtah	r3, r3, lr
 8004dbc:	ebc2 421e 	rsb	r2, r2, lr, lsr #16
 8004dc0:	eb02 4223 	add.w	r2, r2, r3, asr #16
 8004dc4:	b29b      	uxth	r3, r3
 8004dc6:	ea43 4302 	orr.w	r3, r3, r2, lsl #16
 8004dca:	45c1      	cmp	r9, r8
 8004dcc:	f840 3b04 	str.w	r3, [r0], #4
 8004dd0:	ea4f 4c22 	mov.w	ip, r2, asr #16
 8004dd4:	d2e8      	bcs.n	8004da8 <quorem+0xb0>
 8004dd6:	f855 2024 	ldr.w	r2, [r5, r4, lsl #2]
 8004dda:	eb05 0384 	add.w	r3, r5, r4, lsl #2
 8004dde:	b922      	cbnz	r2, 8004dea <quorem+0xf2>
 8004de0:	3b04      	subs	r3, #4
 8004de2:	429d      	cmp	r5, r3
 8004de4:	461a      	mov	r2, r3
 8004de6:	d30a      	bcc.n	8004dfe <quorem+0x106>
 8004de8:	613c      	str	r4, [r7, #16]
 8004dea:	4630      	mov	r0, r6
 8004dec:	b003      	add	sp, #12
 8004dee:	e8bd 8ff0 	ldmia.w	sp!, {r4, r5, r6, r7, r8, r9, sl, fp, pc}
 8004df2:	6812      	ldr	r2, [r2, #0]
 8004df4:	3b04      	subs	r3, #4
 8004df6:	2a00      	cmp	r2, #0
 8004df8:	d1cc      	bne.n	8004d94 <quorem+0x9c>
 8004dfa:	3c01      	subs	r4, #1
 8004dfc:	e7c7      	b.n	8004d8e <quorem+0x96>
 8004dfe:	6812      	ldr	r2, [r2, #0]
 8004e00:	3b04      	subs	r3, #4
 8004e02:	2a00      	cmp	r2, #0
 8004e04:	d1f0      	bne.n	8004de8 <quorem+0xf0>
 8004e06:	3c01      	subs	r4, #1
 8004e08:	e7eb      	b.n	8004de2 <quorem+0xea>
 8004e0a:	2000      	movs	r0, #0
 8004e0c:	e7ee      	b.n	8004dec <quorem+0xf4>
	...

08004e10 <_dtoa_r>:
 8004e10:	e92d 4ff0 	stmdb	sp!, {r4, r5, r6, r7, r8, r9, sl, fp, lr}
 8004e14:	ed2d 8b02 	vpush	{d8}
 8004e18:	ec57 6b10 	vmov	r6, r7, d0
 8004e1c:	b095      	sub	sp, #84	; 0x54
 8004e1e:	6a45      	ldr	r5, [r0, #36]	; 0x24
 8004e20:	f8dd 8080 	ldr.w	r8, [sp, #128]	; 0x80
 8004e24:	9105      	str	r1, [sp, #20]
 8004e26:	e9cd 6702 	strd	r6, r7, [sp, #8]
 8004e2a:	4604      	mov	r4, r0
 8004e2c:	9209      	str	r2, [sp, #36]	; 0x24
 8004e2e:	930f      	str	r3, [sp, #60]	; 0x3c
 8004e30:	b975      	cbnz	r5, 8004e50 <_dtoa_r+0x40>
 8004e32:	2010      	movs	r0, #16
 8004e34:	f000 fddc 	bl	80059f0 <malloc>
 8004e38:	4602      	mov	r2, r0
 8004e3a:	6260      	str	r0, [r4, #36]	; 0x24
 8004e3c:	b920      	cbnz	r0, 8004e48 <_dtoa_r+0x38>
 8004e3e:	4bb2      	ldr	r3, [pc, #712]	; (8005108 <_dtoa_r+0x2f8>)
 8004e40:	21ea      	movs	r1, #234	; 0xea
 8004e42:	48b2      	ldr	r0, [pc, #712]	; (800510c <_dtoa_r+0x2fc>)
 8004e44:	f001 fb8e 	bl	8006564 <__assert_func>
 8004e48:	e9c0 5501 	strd	r5, r5, [r0, #4]
 8004e4c:	6005      	str	r5, [r0, #0]
 8004e4e:	60c5      	str	r5, [r0, #12]
 8004e50:	6a63      	ldr	r3, [r4, #36]	; 0x24
 8004e52:	6819      	ldr	r1, [r3, #0]
 8004e54:	b151      	cbz	r1, 8004e6c <_dtoa_r+0x5c>
 8004e56:	685a      	ldr	r2, [r3, #4]
 8004e58:	604a      	str	r2, [r1, #4]
 8004e5a:	2301      	movs	r3, #1
 8004e5c:	4093      	lsls	r3, r2
 8004e5e:	608b      	str	r3, [r1, #8]
 8004e60:	4620      	mov	r0, r4
 8004e62:	f000 fe1b 	bl	8005a9c <_Bfree>
 8004e66:	6a63      	ldr	r3, [r4, #36]	; 0x24
 8004e68:	2200      	movs	r2, #0
 8004e6a:	601a      	str	r2, [r3, #0]
 8004e6c:	1e3b      	subs	r3, r7, #0
 8004e6e:	bfb9      	ittee	lt
 8004e70:	f023 4300 	biclt.w	r3, r3, #2147483648	; 0x80000000
 8004e74:	9303      	strlt	r3, [sp, #12]
 8004e76:	2300      	movge	r3, #0
 8004e78:	f8c8 3000 	strge.w	r3, [r8]
 8004e7c:	f8dd 900c 	ldr.w	r9, [sp, #12]
 8004e80:	4ba3      	ldr	r3, [pc, #652]	; (8005110 <_dtoa_r+0x300>)
 8004e82:	bfbc      	itt	lt
 8004e84:	2201      	movlt	r2, #1
 8004e86:	f8c8 2000 	strlt.w	r2, [r8]
 8004e8a:	ea33 0309 	bics.w	r3, r3, r9
 8004e8e:	d11b      	bne.n	8004ec8 <_dtoa_r+0xb8>
 8004e90:	9a0f      	ldr	r2, [sp, #60]	; 0x3c
 8004e92:	f242 730f 	movw	r3, #9999	; 0x270f
 8004e96:	6013      	str	r3, [r2, #0]
 8004e98:	f3c9 0313 	ubfx	r3, r9, #0, #20
 8004e9c:	4333      	orrs	r3, r6
 8004e9e:	f000 857a 	beq.w	8005996 <_dtoa_r+0xb86>
 8004ea2:	9b21      	ldr	r3, [sp, #132]	; 0x84
 8004ea4:	b963      	cbnz	r3, 8004ec0 <_dtoa_r+0xb0>
 8004ea6:	4b9b      	ldr	r3, [pc, #620]	; (8005114 <_dtoa_r+0x304>)
 8004ea8:	e024      	b.n	8004ef4 <_dtoa_r+0xe4>
 8004eaa:	4b9b      	ldr	r3, [pc, #620]	; (8005118 <_dtoa_r+0x308>)
 8004eac:	9300      	str	r3, [sp, #0]
 8004eae:	3308      	adds	r3, #8
 8004eb0:	9a21      	ldr	r2, [sp, #132]	; 0x84
 8004eb2:	6013      	str	r3, [r2, #0]
 8004eb4:	9800      	ldr	r0, [sp, #0]
 8004eb6:	b015      	add	sp, #84	; 0x54
 8004eb8:	ecbd 8b02 	vpop	{d8}
 8004ebc:	e8bd 8ff0 	ldmia.w	sp!, {r4, r5, r6, r7, r8, r9, sl, fp, pc}
 8004ec0:	4b94      	ldr	r3, [pc, #592]	; (8005114 <_dtoa_r+0x304>)
 8004ec2:	9300      	str	r3, [sp, #0]
 8004ec4:	3303      	adds	r3, #3
 8004ec6:	e7f3      	b.n	8004eb0 <_dtoa_r+0xa0>
 8004ec8:	ed9d 7b02 	vldr	d7, [sp, #8]
 8004ecc:	2200      	movs	r2, #0
 8004ece:	ec51 0b17 	vmov	r0, r1, d7
 8004ed2:	2300      	movs	r3, #0
 8004ed4:	ed8d 7b0a 	vstr	d7, [sp, #40]	; 0x28
 8004ed8:	f7fb fe16 	bl	8000b08 <__aeabi_dcmpeq>
 8004edc:	4680      	mov	r8, r0
 8004ede:	b158      	cbz	r0, 8004ef8 <_dtoa_r+0xe8>
 8004ee0:	9a0f      	ldr	r2, [sp, #60]	; 0x3c
 8004ee2:	2301      	movs	r3, #1
 8004ee4:	6013      	str	r3, [r2, #0]
 8004ee6:	9b21      	ldr	r3, [sp, #132]	; 0x84
 8004ee8:	2b00      	cmp	r3, #0
 8004eea:	f000 8551 	beq.w	8005990 <_dtoa_r+0xb80>
 8004eee:	488b      	ldr	r0, [pc, #556]	; (800511c <_dtoa_r+0x30c>)
 8004ef0:	6018      	str	r0, [r3, #0]
 8004ef2:	1e43      	subs	r3, r0, #1
 8004ef4:	9300      	str	r3, [sp, #0]
 8004ef6:	e7dd      	b.n	8004eb4 <_dtoa_r+0xa4>
 8004ef8:	ed9d 0b0a 	vldr	d0, [sp, #40]	; 0x28
 8004efc:	aa12      	add	r2, sp, #72	; 0x48
 8004efe:	a913      	add	r1, sp, #76	; 0x4c
 8004f00:	4620      	mov	r0, r4
 8004f02:	f001 f8ad 	bl	8006060 <__d2b>
 8004f06:	f3c9 550a 	ubfx	r5, r9, #20, #11
 8004f0a:	4683      	mov	fp, r0
 8004f0c:	2d00      	cmp	r5, #0
 8004f0e:	d07c      	beq.n	800500a <_dtoa_r+0x1fa>
 8004f10:	9b0b      	ldr	r3, [sp, #44]	; 0x2c
 8004f12:	f8cd 8040 	str.w	r8, [sp, #64]	; 0x40
 8004f16:	f3c3 0313 	ubfx	r3, r3, #0, #20
 8004f1a:	e9dd 670a 	ldrd	r6, r7, [sp, #40]	; 0x28
 8004f1e:	f043 577f 	orr.w	r7, r3, #1069547520	; 0x3fc00000
 8004f22:	f447 1740 	orr.w	r7, r7, #3145728	; 0x300000
 8004f26:	f2a5 35ff 	subw	r5, r5, #1023	; 0x3ff
 8004f2a:	4b7d      	ldr	r3, [pc, #500]	; (8005120 <_dtoa_r+0x310>)
 8004f2c:	2200      	movs	r2, #0
 8004f2e:	4630      	mov	r0, r6
 8004f30:	4639      	mov	r1, r7
 8004f32:	f7fb f9c9 	bl	80002c8 <__aeabi_dsub>
 8004f36:	a36e      	add	r3, pc, #440	; (adr r3, 80050f0 <_dtoa_r+0x2e0>)
 8004f38:	e9d3 2300 	ldrd	r2, r3, [r3]
 8004f3c:	f7fb fb7c 	bl	8000638 <__aeabi_dmul>
 8004f40:	a36d      	add	r3, pc, #436	; (adr r3, 80050f8 <_dtoa_r+0x2e8>)
 8004f42:	e9d3 2300 	ldrd	r2, r3, [r3]
 8004f46:	f7fb f9c1 	bl	80002cc <__adddf3>
 8004f4a:	4606      	mov	r6, r0
 8004f4c:	4628      	mov	r0, r5
 8004f4e:	460f      	mov	r7, r1
 8004f50:	f7fb fb08 	bl	8000564 <__aeabi_i2d>
 8004f54:	a36a      	add	r3, pc, #424	; (adr r3, 8005100 <_dtoa_r+0x2f0>)
 8004f56:	e9d3 2300 	ldrd	r2, r3, [r3]
 8004f5a:	f7fb fb6d 	bl	8000638 <__aeabi_dmul>
 8004f5e:	4602      	mov	r2, r0
 8004f60:	460b      	mov	r3, r1
 8004f62:	4630      	mov	r0, r6
 8004f64:	4639      	mov	r1, r7
 8004f66:	f7fb f9b1 	bl	80002cc <__adddf3>
 8004f6a:	4606      	mov	r6, r0
 8004f6c:	460f      	mov	r7, r1
 8004f6e:	f7fb fe13 	bl	8000b98 <__aeabi_d2iz>
 8004f72:	2200      	movs	r2, #0
 8004f74:	4682      	mov	sl, r0
 8004f76:	2300      	movs	r3, #0
 8004f78:	4630      	mov	r0, r6
 8004f7a:	4639      	mov	r1, r7
 8004f7c:	f7fb fdce 	bl	8000b1c <__aeabi_dcmplt>
 8004f80:	b148      	cbz	r0, 8004f96 <_dtoa_r+0x186>
 8004f82:	4650      	mov	r0, sl
 8004f84:	f7fb faee 	bl	8000564 <__aeabi_i2d>
 8004f88:	4632      	mov	r2, r6
 8004f8a:	463b      	mov	r3, r7
 8004f8c:	f7fb fdbc 	bl	8000b08 <__aeabi_dcmpeq>
 8004f90:	b908      	cbnz	r0, 8004f96 <_dtoa_r+0x186>
 8004f92:	f10a 3aff 	add.w	sl, sl, #4294967295	; 0xffffffff
 8004f96:	f1ba 0f16 	cmp.w	sl, #22
 8004f9a:	d854      	bhi.n	8005046 <_dtoa_r+0x236>
 8004f9c:	4b61      	ldr	r3, [pc, #388]	; (8005124 <_dtoa_r+0x314>)
 8004f9e:	eb03 03ca 	add.w	r3, r3, sl, lsl #3
 8004fa2:	e9d3 2300 	ldrd	r2, r3, [r3]
 8004fa6:	e9dd 010a 	ldrd	r0, r1, [sp, #40]	; 0x28
 8004faa:	f7fb fdb7 	bl	8000b1c <__aeabi_dcmplt>
 8004fae:	2800      	cmp	r0, #0
 8004fb0:	d04b      	beq.n	800504a <_dtoa_r+0x23a>
 8004fb2:	f10a 3aff 	add.w	sl, sl, #4294967295	; 0xffffffff
 8004fb6:	2300      	movs	r3, #0
 8004fb8:	930e      	str	r3, [sp, #56]	; 0x38
 8004fba:	9b12      	ldr	r3, [sp, #72]	; 0x48
 8004fbc:	1b5d      	subs	r5, r3, r5
 8004fbe:	1e6b      	subs	r3, r5, #1
 8004fc0:	9304      	str	r3, [sp, #16]
 8004fc2:	bf43      	ittte	mi
 8004fc4:	2300      	movmi	r3, #0
 8004fc6:	f1c5 0801 	rsbmi	r8, r5, #1
 8004fca:	9304      	strmi	r3, [sp, #16]
 8004fcc:	f04f 0800 	movpl.w	r8, #0
 8004fd0:	f1ba 0f00 	cmp.w	sl, #0
 8004fd4:	db3b      	blt.n	800504e <_dtoa_r+0x23e>
 8004fd6:	9b04      	ldr	r3, [sp, #16]
 8004fd8:	f8cd a034 	str.w	sl, [sp, #52]	; 0x34
 8004fdc:	4453      	add	r3, sl
 8004fde:	9304      	str	r3, [sp, #16]
 8004fe0:	2300      	movs	r3, #0
 8004fe2:	9306      	str	r3, [sp, #24]
 8004fe4:	9b05      	ldr	r3, [sp, #20]
 8004fe6:	2b09      	cmp	r3, #9
 8004fe8:	d869      	bhi.n	80050be <_dtoa_r+0x2ae>
 8004fea:	2b05      	cmp	r3, #5
 8004fec:	bfc4      	itt	gt
 8004fee:	3b04      	subgt	r3, #4
 8004ff0:	9305      	strgt	r3, [sp, #20]
 8004ff2:	9b05      	ldr	r3, [sp, #20]
 8004ff4:	f1a3 0302 	sub.w	r3, r3, #2
 8004ff8:	bfcc      	ite	gt
 8004ffa:	2500      	movgt	r5, #0
 8004ffc:	2501      	movle	r5, #1
 8004ffe:	2b03      	cmp	r3, #3
 8005000:	d869      	bhi.n	80050d6 <_dtoa_r+0x2c6>
 8005002:	e8df f003 	tbb	[pc, r3]
 8005006:	4e2c      	.short	0x4e2c
 8005008:	5a4c      	.short	0x5a4c
 800500a:	e9dd 5312 	ldrd	r5, r3, [sp, #72]	; 0x48
 800500e:	441d      	add	r5, r3
 8005010:	f205 4332 	addw	r3, r5, #1074	; 0x432
 8005014:	2b20      	cmp	r3, #32
 8005016:	bfc1      	itttt	gt
 8005018:	f1c3 0340 	rsbgt	r3, r3, #64	; 0x40
 800501c:	f205 4012 	addwgt	r0, r5, #1042	; 0x412
 8005020:	fa09 f303 	lslgt.w	r3, r9, r3
 8005024:	fa26 f000 	lsrgt.w	r0, r6, r0
 8005028:	bfda      	itte	le
 800502a:	f1c3 0320 	rsble	r3, r3, #32
 800502e:	fa06 f003 	lslle.w	r0, r6, r3
 8005032:	4318      	orrgt	r0, r3
 8005034:	f7fb fa86 	bl	8000544 <__aeabi_ui2d>
 8005038:	2301      	movs	r3, #1
 800503a:	4606      	mov	r6, r0
 800503c:	f1a1 77f8 	sub.w	r7, r1, #32505856	; 0x1f00000
 8005040:	3d01      	subs	r5, #1
 8005042:	9310      	str	r3, [sp, #64]	; 0x40
 8005044:	e771      	b.n	8004f2a <_dtoa_r+0x11a>
 8005046:	2301      	movs	r3, #1
 8005048:	e7b6      	b.n	8004fb8 <_dtoa_r+0x1a8>
 800504a:	900e      	str	r0, [sp, #56]	; 0x38
 800504c:	e7b5      	b.n	8004fba <_dtoa_r+0x1aa>
 800504e:	f1ca 0300 	rsb	r3, sl, #0
 8005052:	9306      	str	r3, [sp, #24]
 8005054:	2300      	movs	r3, #0
 8005056:	eba8 080a 	sub.w	r8, r8, sl
 800505a:	930d      	str	r3, [sp, #52]	; 0x34
 800505c:	e7c2      	b.n	8004fe4 <_dtoa_r+0x1d4>
 800505e:	2300      	movs	r3, #0
 8005060:	9308      	str	r3, [sp, #32]
 8005062:	9b09      	ldr	r3, [sp, #36]	; 0x24
 8005064:	2b00      	cmp	r3, #0
 8005066:	dc39      	bgt.n	80050dc <_dtoa_r+0x2cc>
 8005068:	f04f 0901 	mov.w	r9, #1
 800506c:	f8cd 9004 	str.w	r9, [sp, #4]
 8005070:	464b      	mov	r3, r9
 8005072:	f8cd 9024 	str.w	r9, [sp, #36]	; 0x24
 8005076:	6a60      	ldr	r0, [r4, #36]	; 0x24
 8005078:	2200      	movs	r2, #0
 800507a:	6042      	str	r2, [r0, #4]
 800507c:	2204      	movs	r2, #4
 800507e:	f102 0614 	add.w	r6, r2, #20
 8005082:	429e      	cmp	r6, r3
 8005084:	6841      	ldr	r1, [r0, #4]
 8005086:	d92f      	bls.n	80050e8 <_dtoa_r+0x2d8>
 8005088:	4620      	mov	r0, r4
 800508a:	f000 fcc7 	bl	8005a1c <_Balloc>
 800508e:	9000      	str	r0, [sp, #0]
 8005090:	2800      	cmp	r0, #0
 8005092:	d14b      	bne.n	800512c <_dtoa_r+0x31c>
 8005094:	4b24      	ldr	r3, [pc, #144]	; (8005128 <_dtoa_r+0x318>)
 8005096:	4602      	mov	r2, r0
 8005098:	f44f 71d5 	mov.w	r1, #426	; 0x1aa
 800509c:	e6d1      	b.n	8004e42 <_dtoa_r+0x32>
 800509e:	2301      	movs	r3, #1
 80050a0:	e7de      	b.n	8005060 <_dtoa_r+0x250>
 80050a2:	2300      	movs	r3, #0
 80050a4:	9308      	str	r3, [sp, #32]
 80050a6:	9b09      	ldr	r3, [sp, #36]	; 0x24
 80050a8:	eb0a 0903 	add.w	r9, sl, r3
 80050ac:	f109 0301 	add.w	r3, r9, #1
 80050b0:	2b01      	cmp	r3, #1
 80050b2:	9301      	str	r3, [sp, #4]
 80050b4:	bfb8      	it	lt
 80050b6:	2301      	movlt	r3, #1
 80050b8:	e7dd      	b.n	8005076 <_dtoa_r+0x266>
 80050ba:	2301      	movs	r3, #1
 80050bc:	e7f2      	b.n	80050a4 <_dtoa_r+0x294>
 80050be:	2501      	movs	r5, #1
 80050c0:	2300      	movs	r3, #0
 80050c2:	9305      	str	r3, [sp, #20]
 80050c4:	9508      	str	r5, [sp, #32]
 80050c6:	f04f 39ff 	mov.w	r9, #4294967295	; 0xffffffff
 80050ca:	2200      	movs	r2, #0
 80050cc:	f8cd 9004 	str.w	r9, [sp, #4]
 80050d0:	2312      	movs	r3, #18
 80050d2:	9209      	str	r2, [sp, #36]	; 0x24
 80050d4:	e7cf      	b.n	8005076 <_dtoa_r+0x266>
 80050d6:	2301      	movs	r3, #1
 80050d8:	9308      	str	r3, [sp, #32]
 80050da:	e7f4      	b.n	80050c6 <_dtoa_r+0x2b6>
 80050dc:	f8dd 9024 	ldr.w	r9, [sp, #36]	; 0x24
 80050e0:	f8cd 9004 	str.w	r9, [sp, #4]
 80050e4:	464b      	mov	r3, r9
 80050e6:	e7c6      	b.n	8005076 <_dtoa_r+0x266>
 80050e8:	3101      	adds	r1, #1
 80050ea:	6041      	str	r1, [r0, #4]
 80050ec:	0052      	lsls	r2, r2, #1
 80050ee:	e7c6      	b.n	800507e <_dtoa_r+0x26e>
 80050f0:	636f4361 	.word	0x636f4361
 80050f4:	3fd287a7 	.word	0x3fd287a7
 80050f8:	8b60c8b3 	.word	0x8b60c8b3
 80050fc:	3fc68a28 	.word	0x3fc68a28
 8005100:	509f79fb 	.word	0x509f79fb
 8005104:	3fd34413 	.word	0x3fd34413
 8005108:	080071f9 	.word	0x080071f9
 800510c:	08007210 	.word	0x08007210
 8005110:	7ff00000 	.word	0x7ff00000
 8005114:	080071f5 	.word	0x080071f5
 8005118:	080071ec 	.word	0x080071ec
 800511c:	080071c9 	.word	0x080071c9
 8005120:	3ff80000 	.word	0x3ff80000
 8005124:	08007308 	.word	0x08007308
 8005128:	0800726f 	.word	0x0800726f
 800512c:	6a63      	ldr	r3, [r4, #36]	; 0x24
 800512e:	9a00      	ldr	r2, [sp, #0]
 8005130:	601a      	str	r2, [r3, #0]
 8005132:	9b01      	ldr	r3, [sp, #4]
 8005134:	2b0e      	cmp	r3, #14
 8005136:	f200 80ad 	bhi.w	8005294 <_dtoa_r+0x484>
 800513a:	2d00      	cmp	r5, #0
 800513c:	f000 80aa 	beq.w	8005294 <_dtoa_r+0x484>
 8005140:	f1ba 0f00 	cmp.w	sl, #0
 8005144:	dd36      	ble.n	80051b4 <_dtoa_r+0x3a4>
 8005146:	4ac3      	ldr	r2, [pc, #780]	; (8005454 <_dtoa_r+0x644>)
 8005148:	f00a 030f 	and.w	r3, sl, #15
 800514c:	eb02 03c3 	add.w	r3, r2, r3, lsl #3
 8005150:	ed93 7b00 	vldr	d7, [r3]
 8005154:	f41a 7f80 	tst.w	sl, #256	; 0x100
 8005158:	ea4f 172a 	mov.w	r7, sl, asr #4
 800515c:	eeb0 8a47 	vmov.f32	s16, s14
 8005160:	eef0 8a67 	vmov.f32	s17, s15
 8005164:	d016      	beq.n	8005194 <_dtoa_r+0x384>
 8005166:	4bbc      	ldr	r3, [pc, #752]	; (8005458 <_dtoa_r+0x648>)
 8005168:	e9dd 010a 	ldrd	r0, r1, [sp, #40]	; 0x28
 800516c:	e9d3 2308 	ldrd	r2, r3, [r3, #32]
 8005170:	f7fb fb8c 	bl	800088c <__aeabi_ddiv>
 8005174:	e9cd 0102 	strd	r0, r1, [sp, #8]
 8005178:	f007 070f 	and.w	r7, r7, #15
 800517c:	2503      	movs	r5, #3
 800517e:	4eb6      	ldr	r6, [pc, #728]	; (8005458 <_dtoa_r+0x648>)
 8005180:	b957      	cbnz	r7, 8005198 <_dtoa_r+0x388>
 8005182:	e9dd 0102 	ldrd	r0, r1, [sp, #8]
 8005186:	ec53 2b18 	vmov	r2, r3, d8
 800518a:	f7fb fb7f 	bl	800088c <__aeabi_ddiv>
 800518e:	e9cd 0102 	strd	r0, r1, [sp, #8]
 8005192:	e029      	b.n	80051e8 <_dtoa_r+0x3d8>
 8005194:	2502      	movs	r5, #2
 8005196:	e7f2      	b.n	800517e <_dtoa_r+0x36e>
 8005198:	07f9      	lsls	r1, r7, #31
 800519a:	d508      	bpl.n	80051ae <_dtoa_r+0x39e>
 800519c:	ec51 0b18 	vmov	r0, r1, d8
 80051a0:	e9d6 2300 	ldrd	r2, r3, [r6]
 80051a4:	f7fb fa48 	bl	8000638 <__aeabi_dmul>
 80051a8:	ec41 0b18 	vmov	d8, r0, r1
 80051ac:	3501      	adds	r5, #1
 80051ae:	107f      	asrs	r7, r7, #1
 80051b0:	3608      	adds	r6, #8
 80051b2:	e7e5      	b.n	8005180 <_dtoa_r+0x370>
 80051b4:	f000 80a6 	beq.w	8005304 <_dtoa_r+0x4f4>
 80051b8:	f1ca 0600 	rsb	r6, sl, #0
 80051bc:	4ba5      	ldr	r3, [pc, #660]	; (8005454 <_dtoa_r+0x644>)
 80051be:	4fa6      	ldr	r7, [pc, #664]	; (8005458 <_dtoa_r+0x648>)
 80051c0:	f006 020f 	and.w	r2, r6, #15
 80051c4:	eb03 03c2 	add.w	r3, r3, r2, lsl #3
 80051c8:	e9d3 2300 	ldrd	r2, r3, [r3]
 80051cc:	e9dd 010a 	ldrd	r0, r1, [sp, #40]	; 0x28
 80051d0:	f7fb fa32 	bl	8000638 <__aeabi_dmul>
 80051d4:	e9cd 0102 	strd	r0, r1, [sp, #8]
 80051d8:	1136      	asrs	r6, r6, #4
 80051da:	2300      	movs	r3, #0
 80051dc:	2502      	movs	r5, #2
 80051de:	2e00      	cmp	r6, #0
 80051e0:	f040 8085 	bne.w	80052ee <_dtoa_r+0x4de>
 80051e4:	2b00      	cmp	r3, #0
 80051e6:	d1d2      	bne.n	800518e <_dtoa_r+0x37e>
 80051e8:	9b0e      	ldr	r3, [sp, #56]	; 0x38
 80051ea:	2b00      	cmp	r3, #0
 80051ec:	f000 808c 	beq.w	8005308 <_dtoa_r+0x4f8>
 80051f0:	e9dd 6702 	ldrd	r6, r7, [sp, #8]
 80051f4:	4b99      	ldr	r3, [pc, #612]	; (800545c <_dtoa_r+0x64c>)
 80051f6:	2200      	movs	r2, #0
 80051f8:	4630      	mov	r0, r6
 80051fa:	4639      	mov	r1, r7
 80051fc:	f7fb fc8e 	bl	8000b1c <__aeabi_dcmplt>
 8005200:	2800      	cmp	r0, #0
 8005202:	f000 8081 	beq.w	8005308 <_dtoa_r+0x4f8>
 8005206:	9b01      	ldr	r3, [sp, #4]
 8005208:	2b00      	cmp	r3, #0
 800520a:	d07d      	beq.n	8005308 <_dtoa_r+0x4f8>
 800520c:	f1b9 0f00 	cmp.w	r9, #0
 8005210:	dd3c      	ble.n	800528c <_dtoa_r+0x47c>
 8005212:	f10a 33ff 	add.w	r3, sl, #4294967295	; 0xffffffff
 8005216:	9307      	str	r3, [sp, #28]
 8005218:	2200      	movs	r2, #0
 800521a:	4b91      	ldr	r3, [pc, #580]	; (8005460 <_dtoa_r+0x650>)
 800521c:	4630      	mov	r0, r6
 800521e:	4639      	mov	r1, r7
 8005220:	f7fb fa0a 	bl	8000638 <__aeabi_dmul>
 8005224:	e9cd 0102 	strd	r0, r1, [sp, #8]
 8005228:	3501      	adds	r5, #1
 800522a:	f8cd 9030 	str.w	r9, [sp, #48]	; 0x30
 800522e:	e9dd 6702 	ldrd	r6, r7, [sp, #8]
 8005232:	4628      	mov	r0, r5
 8005234:	f7fb f996 	bl	8000564 <__aeabi_i2d>
 8005238:	4632      	mov	r2, r6
 800523a:	463b      	mov	r3, r7
 800523c:	f7fb f9fc 	bl	8000638 <__aeabi_dmul>
 8005240:	4b88      	ldr	r3, [pc, #544]	; (8005464 <_dtoa_r+0x654>)
 8005242:	2200      	movs	r2, #0
 8005244:	f7fb f842 	bl	80002cc <__adddf3>
 8005248:	f1a1 7350 	sub.w	r3, r1, #54525952	; 0x3400000
 800524c:	e9cd 0102 	strd	r0, r1, [sp, #8]
 8005250:	9303      	str	r3, [sp, #12]
 8005252:	9b0c      	ldr	r3, [sp, #48]	; 0x30
 8005254:	2b00      	cmp	r3, #0
 8005256:	d15c      	bne.n	8005312 <_dtoa_r+0x502>
 8005258:	4b83      	ldr	r3, [pc, #524]	; (8005468 <_dtoa_r+0x658>)
 800525a:	2200      	movs	r2, #0
 800525c:	4630      	mov	r0, r6
 800525e:	4639      	mov	r1, r7
 8005260:	f7fb f832 	bl	80002c8 <__aeabi_dsub>
 8005264:	e9dd 2302 	ldrd	r2, r3, [sp, #8]
 8005268:	4606      	mov	r6, r0
 800526a:	460f      	mov	r7, r1
 800526c:	f7fb fc74 	bl	8000b58 <__aeabi_dcmpgt>
 8005270:	2800      	cmp	r0, #0
 8005272:	f040 8296 	bne.w	80057a2 <_dtoa_r+0x992>
 8005276:	e9dd 2102 	ldrd	r2, r1, [sp, #8]
 800527a:	4630      	mov	r0, r6
 800527c:	f101 4300 	add.w	r3, r1, #2147483648	; 0x80000000
 8005280:	4639      	mov	r1, r7
 8005282:	f7fb fc4b 	bl	8000b1c <__aeabi_dcmplt>
 8005286:	2800      	cmp	r0, #0
 8005288:	f040 8288 	bne.w	800579c <_dtoa_r+0x98c>
 800528c:	e9dd 230a 	ldrd	r2, r3, [sp, #40]	; 0x28
 8005290:	e9cd 2302 	strd	r2, r3, [sp, #8]
 8005294:	9b13      	ldr	r3, [sp, #76]	; 0x4c
 8005296:	2b00      	cmp	r3, #0
 8005298:	f2c0 8158 	blt.w	800554c <_dtoa_r+0x73c>
 800529c:	f1ba 0f0e 	cmp.w	sl, #14
 80052a0:	f300 8154 	bgt.w	800554c <_dtoa_r+0x73c>
 80052a4:	4b6b      	ldr	r3, [pc, #428]	; (8005454 <_dtoa_r+0x644>)
 80052a6:	eb03 03ca 	add.w	r3, r3, sl, lsl #3
 80052aa:	e9d3 8900 	ldrd	r8, r9, [r3]
 80052ae:	9b09      	ldr	r3, [sp, #36]	; 0x24
 80052b0:	2b00      	cmp	r3, #0
 80052b2:	f280 80e3 	bge.w	800547c <_dtoa_r+0x66c>
 80052b6:	9b01      	ldr	r3, [sp, #4]
 80052b8:	2b00      	cmp	r3, #0
 80052ba:	f300 80df 	bgt.w	800547c <_dtoa_r+0x66c>
 80052be:	f040 826d 	bne.w	800579c <_dtoa_r+0x98c>
 80052c2:	4b69      	ldr	r3, [pc, #420]	; (8005468 <_dtoa_r+0x658>)
 80052c4:	2200      	movs	r2, #0
 80052c6:	4640      	mov	r0, r8
 80052c8:	4649      	mov	r1, r9
 80052ca:	f7fb f9b5 	bl	8000638 <__aeabi_dmul>
 80052ce:	e9dd 2302 	ldrd	r2, r3, [sp, #8]
 80052d2:	f7fb fc37 	bl	8000b44 <__aeabi_dcmpge>
 80052d6:	9e01      	ldr	r6, [sp, #4]
 80052d8:	4637      	mov	r7, r6
 80052da:	2800      	cmp	r0, #0
 80052dc:	f040 8243 	bne.w	8005766 <_dtoa_r+0x956>
 80052e0:	9d00      	ldr	r5, [sp, #0]
 80052e2:	2331      	movs	r3, #49	; 0x31
 80052e4:	f805 3b01 	strb.w	r3, [r5], #1
 80052e8:	f10a 0a01 	add.w	sl, sl, #1
 80052ec:	e23f      	b.n	800576e <_dtoa_r+0x95e>
 80052ee:	07f2      	lsls	r2, r6, #31
 80052f0:	d505      	bpl.n	80052fe <_dtoa_r+0x4ee>
 80052f2:	e9d7 2300 	ldrd	r2, r3, [r7]
 80052f6:	f7fb f99f 	bl	8000638 <__aeabi_dmul>
 80052fa:	3501      	adds	r5, #1
 80052fc:	2301      	movs	r3, #1
 80052fe:	1076      	asrs	r6, r6, #1
 8005300:	3708      	adds	r7, #8
 8005302:	e76c      	b.n	80051de <_dtoa_r+0x3ce>
 8005304:	2502      	movs	r5, #2
 8005306:	e76f      	b.n	80051e8 <_dtoa_r+0x3d8>
 8005308:	9b01      	ldr	r3, [sp, #4]
 800530a:	f8cd a01c 	str.w	sl, [sp, #28]
 800530e:	930c      	str	r3, [sp, #48]	; 0x30
 8005310:	e78d      	b.n	800522e <_dtoa_r+0x41e>
 8005312:	9900      	ldr	r1, [sp, #0]
 8005314:	980c      	ldr	r0, [sp, #48]	; 0x30
 8005316:	9a0c      	ldr	r2, [sp, #48]	; 0x30
 8005318:	4b4e      	ldr	r3, [pc, #312]	; (8005454 <_dtoa_r+0x644>)
 800531a:	ed9d 7b02 	vldr	d7, [sp, #8]
 800531e:	4401      	add	r1, r0
 8005320:	9102      	str	r1, [sp, #8]
 8005322:	9908      	ldr	r1, [sp, #32]
 8005324:	eeb0 8a47 	vmov.f32	s16, s14
 8005328:	eef0 8a67 	vmov.f32	s17, s15
 800532c:	eb03 03c2 	add.w	r3, r3, r2, lsl #3
 8005330:	e953 2302 	ldrd	r2, r3, [r3, #-8]
 8005334:	2900      	cmp	r1, #0
 8005336:	d045      	beq.n	80053c4 <_dtoa_r+0x5b4>
 8005338:	494c      	ldr	r1, [pc, #304]	; (800546c <_dtoa_r+0x65c>)
 800533a:	2000      	movs	r0, #0
 800533c:	f7fb faa6 	bl	800088c <__aeabi_ddiv>
 8005340:	ec53 2b18 	vmov	r2, r3, d8
 8005344:	f7fa ffc0 	bl	80002c8 <__aeabi_dsub>
 8005348:	9d00      	ldr	r5, [sp, #0]
 800534a:	ec41 0b18 	vmov	d8, r0, r1
 800534e:	4639      	mov	r1, r7
 8005350:	4630      	mov	r0, r6
 8005352:	f7fb fc21 	bl	8000b98 <__aeabi_d2iz>
 8005356:	900c      	str	r0, [sp, #48]	; 0x30
 8005358:	f7fb f904 	bl	8000564 <__aeabi_i2d>
 800535c:	4602      	mov	r2, r0
 800535e:	460b      	mov	r3, r1
 8005360:	4630      	mov	r0, r6
 8005362:	4639      	mov	r1, r7
 8005364:	f7fa ffb0 	bl	80002c8 <__aeabi_dsub>
 8005368:	9b0c      	ldr	r3, [sp, #48]	; 0x30
 800536a:	3330      	adds	r3, #48	; 0x30
 800536c:	f805 3b01 	strb.w	r3, [r5], #1
 8005370:	ec53 2b18 	vmov	r2, r3, d8
 8005374:	4606      	mov	r6, r0
 8005376:	460f      	mov	r7, r1
 8005378:	f7fb fbd0 	bl	8000b1c <__aeabi_dcmplt>
 800537c:	2800      	cmp	r0, #0
 800537e:	d165      	bne.n	800544c <_dtoa_r+0x63c>
 8005380:	4632      	mov	r2, r6
 8005382:	463b      	mov	r3, r7
 8005384:	4935      	ldr	r1, [pc, #212]	; (800545c <_dtoa_r+0x64c>)
 8005386:	2000      	movs	r0, #0
 8005388:	f7fa ff9e 	bl	80002c8 <__aeabi_dsub>
 800538c:	ec53 2b18 	vmov	r2, r3, d8
 8005390:	f7fb fbc4 	bl	8000b1c <__aeabi_dcmplt>
 8005394:	2800      	cmp	r0, #0
 8005396:	f040 80b9 	bne.w	800550c <_dtoa_r+0x6fc>
 800539a:	9b02      	ldr	r3, [sp, #8]
 800539c:	429d      	cmp	r5, r3
 800539e:	f43f af75 	beq.w	800528c <_dtoa_r+0x47c>
 80053a2:	4b2f      	ldr	r3, [pc, #188]	; (8005460 <_dtoa_r+0x650>)
 80053a4:	ec51 0b18 	vmov	r0, r1, d8
 80053a8:	2200      	movs	r2, #0
 80053aa:	f7fb f945 	bl	8000638 <__aeabi_dmul>
 80053ae:	4b2c      	ldr	r3, [pc, #176]	; (8005460 <_dtoa_r+0x650>)
 80053b0:	ec41 0b18 	vmov	d8, r0, r1
 80053b4:	2200      	movs	r2, #0
 80053b6:	4630      	mov	r0, r6
 80053b8:	4639      	mov	r1, r7
 80053ba:	f7fb f93d 	bl	8000638 <__aeabi_dmul>
 80053be:	4606      	mov	r6, r0
 80053c0:	460f      	mov	r7, r1
 80053c2:	e7c4      	b.n	800534e <_dtoa_r+0x53e>
 80053c4:	ec51 0b17 	vmov	r0, r1, d7
 80053c8:	f7fb f936 	bl	8000638 <__aeabi_dmul>
 80053cc:	9b02      	ldr	r3, [sp, #8]
 80053ce:	9d00      	ldr	r5, [sp, #0]
 80053d0:	930c      	str	r3, [sp, #48]	; 0x30
 80053d2:	ec41 0b18 	vmov	d8, r0, r1
 80053d6:	4639      	mov	r1, r7
 80053d8:	4630      	mov	r0, r6
 80053da:	f7fb fbdd 	bl	8000b98 <__aeabi_d2iz>
 80053de:	9011      	str	r0, [sp, #68]	; 0x44
 80053e0:	f7fb f8c0 	bl	8000564 <__aeabi_i2d>
 80053e4:	4602      	mov	r2, r0
 80053e6:	460b      	mov	r3, r1
 80053e8:	4630      	mov	r0, r6
 80053ea:	4639      	mov	r1, r7
 80053ec:	f7fa ff6c 	bl	80002c8 <__aeabi_dsub>
 80053f0:	9b11      	ldr	r3, [sp, #68]	; 0x44
 80053f2:	3330      	adds	r3, #48	; 0x30
 80053f4:	f805 3b01 	strb.w	r3, [r5], #1
 80053f8:	9b02      	ldr	r3, [sp, #8]
 80053fa:	429d      	cmp	r5, r3
 80053fc:	4606      	mov	r6, r0
 80053fe:	460f      	mov	r7, r1
 8005400:	f04f 0200 	mov.w	r2, #0
 8005404:	d134      	bne.n	8005470 <_dtoa_r+0x660>
 8005406:	4b19      	ldr	r3, [pc, #100]	; (800546c <_dtoa_r+0x65c>)
 8005408:	ec51 0b18 	vmov	r0, r1, d8
 800540c:	f7fa ff5e 	bl	80002cc <__adddf3>
 8005410:	4602      	mov	r2, r0
 8005412:	460b      	mov	r3, r1
 8005414:	4630      	mov	r0, r6
 8005416:	4639      	mov	r1, r7
 8005418:	f7fb fb9e 	bl	8000b58 <__aeabi_dcmpgt>
 800541c:	2800      	cmp	r0, #0
 800541e:	d175      	bne.n	800550c <_dtoa_r+0x6fc>
 8005420:	ec53 2b18 	vmov	r2, r3, d8
 8005424:	4911      	ldr	r1, [pc, #68]	; (800546c <_dtoa_r+0x65c>)
 8005426:	2000      	movs	r0, #0
 8005428:	f7fa ff4e 	bl	80002c8 <__aeabi_dsub>
 800542c:	4602      	mov	r2, r0
 800542e:	460b      	mov	r3, r1
 8005430:	4630      	mov	r0, r6
 8005432:	4639      	mov	r1, r7
 8005434:	f7fb fb72 	bl	8000b1c <__aeabi_dcmplt>
 8005438:	2800      	cmp	r0, #0
 800543a:	f43f af27 	beq.w	800528c <_dtoa_r+0x47c>
 800543e:	9d0c      	ldr	r5, [sp, #48]	; 0x30
 8005440:	1e6b      	subs	r3, r5, #1
 8005442:	930c      	str	r3, [sp, #48]	; 0x30
 8005444:	f815 3c01 	ldrb.w	r3, [r5, #-1]
 8005448:	2b30      	cmp	r3, #48	; 0x30
 800544a:	d0f8      	beq.n	800543e <_dtoa_r+0x62e>
 800544c:	f8dd a01c 	ldr.w	sl, [sp, #28]
 8005450:	e04a      	b.n	80054e8 <_dtoa_r+0x6d8>
 8005452:	bf00      	nop
 8005454:	08007308 	.word	0x08007308
 8005458:	080072e0 	.word	0x080072e0
 800545c:	3ff00000 	.word	0x3ff00000
 8005460:	40240000 	.word	0x40240000
 8005464:	401c0000 	.word	0x401c0000
 8005468:	40140000 	.word	0x40140000
 800546c:	3fe00000 	.word	0x3fe00000
 8005470:	4baf      	ldr	r3, [pc, #700]	; (8005730 <_dtoa_r+0x920>)
 8005472:	f7fb f8e1 	bl	8000638 <__aeabi_dmul>
 8005476:	4606      	mov	r6, r0
 8005478:	460f      	mov	r7, r1
 800547a:	e7ac      	b.n	80053d6 <_dtoa_r+0x5c6>
 800547c:	e9dd 6702 	ldrd	r6, r7, [sp, #8]
 8005480:	9d00      	ldr	r5, [sp, #0]
 8005482:	4642      	mov	r2, r8
 8005484:	464b      	mov	r3, r9
 8005486:	4630      	mov	r0, r6
 8005488:	4639      	mov	r1, r7
 800548a:	f7fb f9ff 	bl	800088c <__aeabi_ddiv>
 800548e:	f7fb fb83 	bl	8000b98 <__aeabi_d2iz>
 8005492:	9002      	str	r0, [sp, #8]
 8005494:	f7fb f866 	bl	8000564 <__aeabi_i2d>
 8005498:	4642      	mov	r2, r8
 800549a:	464b      	mov	r3, r9
 800549c:	f7fb f8cc 	bl	8000638 <__aeabi_dmul>
 80054a0:	4602      	mov	r2, r0
 80054a2:	460b      	mov	r3, r1
 80054a4:	4630      	mov	r0, r6
 80054a6:	4639      	mov	r1, r7
 80054a8:	f7fa ff0e 	bl	80002c8 <__aeabi_dsub>
 80054ac:	9e02      	ldr	r6, [sp, #8]
 80054ae:	9f01      	ldr	r7, [sp, #4]
 80054b0:	3630      	adds	r6, #48	; 0x30
 80054b2:	f805 6b01 	strb.w	r6, [r5], #1
 80054b6:	9e00      	ldr	r6, [sp, #0]
 80054b8:	1bae      	subs	r6, r5, r6
 80054ba:	42b7      	cmp	r7, r6
 80054bc:	4602      	mov	r2, r0
 80054be:	460b      	mov	r3, r1
 80054c0:	d137      	bne.n	8005532 <_dtoa_r+0x722>
 80054c2:	f7fa ff03 	bl	80002cc <__adddf3>
 80054c6:	4642      	mov	r2, r8
 80054c8:	464b      	mov	r3, r9
 80054ca:	4606      	mov	r6, r0
 80054cc:	460f      	mov	r7, r1
 80054ce:	f7fb fb43 	bl	8000b58 <__aeabi_dcmpgt>
 80054d2:	b9c8      	cbnz	r0, 8005508 <_dtoa_r+0x6f8>
 80054d4:	4642      	mov	r2, r8
 80054d6:	464b      	mov	r3, r9
 80054d8:	4630      	mov	r0, r6
 80054da:	4639      	mov	r1, r7
 80054dc:	f7fb fb14 	bl	8000b08 <__aeabi_dcmpeq>
 80054e0:	b110      	cbz	r0, 80054e8 <_dtoa_r+0x6d8>
 80054e2:	9b02      	ldr	r3, [sp, #8]
 80054e4:	07d9      	lsls	r1, r3, #31
 80054e6:	d40f      	bmi.n	8005508 <_dtoa_r+0x6f8>
 80054e8:	4620      	mov	r0, r4
 80054ea:	4659      	mov	r1, fp
 80054ec:	f000 fad6 	bl	8005a9c <_Bfree>
 80054f0:	2300      	movs	r3, #0
 80054f2:	702b      	strb	r3, [r5, #0]
 80054f4:	9b0f      	ldr	r3, [sp, #60]	; 0x3c
 80054f6:	f10a 0001 	add.w	r0, sl, #1
 80054fa:	6018      	str	r0, [r3, #0]
 80054fc:	9b21      	ldr	r3, [sp, #132]	; 0x84
 80054fe:	2b00      	cmp	r3, #0
 8005500:	f43f acd8 	beq.w	8004eb4 <_dtoa_r+0xa4>
 8005504:	601d      	str	r5, [r3, #0]
 8005506:	e4d5      	b.n	8004eb4 <_dtoa_r+0xa4>
 8005508:	f8cd a01c 	str.w	sl, [sp, #28]
 800550c:	462b      	mov	r3, r5
 800550e:	461d      	mov	r5, r3
 8005510:	f813 2d01 	ldrb.w	r2, [r3, #-1]!
 8005514:	2a39      	cmp	r2, #57	; 0x39
 8005516:	d108      	bne.n	800552a <_dtoa_r+0x71a>
 8005518:	9a00      	ldr	r2, [sp, #0]
 800551a:	429a      	cmp	r2, r3
 800551c:	d1f7      	bne.n	800550e <_dtoa_r+0x6fe>
 800551e:	9a07      	ldr	r2, [sp, #28]
 8005520:	9900      	ldr	r1, [sp, #0]
 8005522:	3201      	adds	r2, #1
 8005524:	9207      	str	r2, [sp, #28]
 8005526:	2230      	movs	r2, #48	; 0x30
 8005528:	700a      	strb	r2, [r1, #0]
 800552a:	781a      	ldrb	r2, [r3, #0]
 800552c:	3201      	adds	r2, #1
 800552e:	701a      	strb	r2, [r3, #0]
 8005530:	e78c      	b.n	800544c <_dtoa_r+0x63c>
 8005532:	4b7f      	ldr	r3, [pc, #508]	; (8005730 <_dtoa_r+0x920>)
 8005534:	2200      	movs	r2, #0
 8005536:	f7fb f87f 	bl	8000638 <__aeabi_dmul>
 800553a:	2200      	movs	r2, #0
 800553c:	2300      	movs	r3, #0
 800553e:	4606      	mov	r6, r0
 8005540:	460f      	mov	r7, r1
 8005542:	f7fb fae1 	bl	8000b08 <__aeabi_dcmpeq>
 8005546:	2800      	cmp	r0, #0
 8005548:	d09b      	beq.n	8005482 <_dtoa_r+0x672>
 800554a:	e7cd      	b.n	80054e8 <_dtoa_r+0x6d8>
 800554c:	9a08      	ldr	r2, [sp, #32]
 800554e:	2a00      	cmp	r2, #0
 8005550:	f000 80c4 	beq.w	80056dc <_dtoa_r+0x8cc>
 8005554:	9a05      	ldr	r2, [sp, #20]
 8005556:	2a01      	cmp	r2, #1
 8005558:	f300 80a8 	bgt.w	80056ac <_dtoa_r+0x89c>
 800555c:	9a10      	ldr	r2, [sp, #64]	; 0x40
 800555e:	2a00      	cmp	r2, #0
 8005560:	f000 80a0 	beq.w	80056a4 <_dtoa_r+0x894>
 8005564:	f203 4333 	addw	r3, r3, #1075	; 0x433
 8005568:	9e06      	ldr	r6, [sp, #24]
 800556a:	4645      	mov	r5, r8
 800556c:	9a04      	ldr	r2, [sp, #16]
 800556e:	2101      	movs	r1, #1
 8005570:	441a      	add	r2, r3
 8005572:	4620      	mov	r0, r4
 8005574:	4498      	add	r8, r3
 8005576:	9204      	str	r2, [sp, #16]
 8005578:	f000 fb4c 	bl	8005c14 <__i2b>
 800557c:	4607      	mov	r7, r0
 800557e:	2d00      	cmp	r5, #0
 8005580:	dd0b      	ble.n	800559a <_dtoa_r+0x78a>
 8005582:	9b04      	ldr	r3, [sp, #16]
 8005584:	2b00      	cmp	r3, #0
 8005586:	dd08      	ble.n	800559a <_dtoa_r+0x78a>
 8005588:	42ab      	cmp	r3, r5
 800558a:	9a04      	ldr	r2, [sp, #16]
 800558c:	bfa8      	it	ge
 800558e:	462b      	movge	r3, r5
 8005590:	eba8 0803 	sub.w	r8, r8, r3
 8005594:	1aed      	subs	r5, r5, r3
 8005596:	1ad3      	subs	r3, r2, r3
 8005598:	9304      	str	r3, [sp, #16]
 800559a:	9b06      	ldr	r3, [sp, #24]
 800559c:	b1fb      	cbz	r3, 80055de <_dtoa_r+0x7ce>
 800559e:	9b08      	ldr	r3, [sp, #32]
 80055a0:	2b00      	cmp	r3, #0
 80055a2:	f000 809f 	beq.w	80056e4 <_dtoa_r+0x8d4>
 80055a6:	2e00      	cmp	r6, #0
 80055a8:	dd11      	ble.n	80055ce <_dtoa_r+0x7be>
 80055aa:	4639      	mov	r1, r7
 80055ac:	4632      	mov	r2, r6
 80055ae:	4620      	mov	r0, r4
 80055b0:	f000 fbec 	bl	8005d8c <__pow5mult>
 80055b4:	465a      	mov	r2, fp
 80055b6:	4601      	mov	r1, r0
 80055b8:	4607      	mov	r7, r0
 80055ba:	4620      	mov	r0, r4
 80055bc:	f000 fb40 	bl	8005c40 <__multiply>
 80055c0:	4659      	mov	r1, fp
 80055c2:	9007      	str	r0, [sp, #28]
 80055c4:	4620      	mov	r0, r4
 80055c6:	f000 fa69 	bl	8005a9c <_Bfree>
 80055ca:	9b07      	ldr	r3, [sp, #28]
 80055cc:	469b      	mov	fp, r3
 80055ce:	9b06      	ldr	r3, [sp, #24]
 80055d0:	1b9a      	subs	r2, r3, r6
 80055d2:	d004      	beq.n	80055de <_dtoa_r+0x7ce>
 80055d4:	4659      	mov	r1, fp
 80055d6:	4620      	mov	r0, r4
 80055d8:	f000 fbd8 	bl	8005d8c <__pow5mult>
 80055dc:	4683      	mov	fp, r0
 80055de:	2101      	movs	r1, #1
 80055e0:	4620      	mov	r0, r4
 80055e2:	f000 fb17 	bl	8005c14 <__i2b>
 80055e6:	9b0d      	ldr	r3, [sp, #52]	; 0x34
 80055e8:	2b00      	cmp	r3, #0
 80055ea:	4606      	mov	r6, r0
 80055ec:	dd7c      	ble.n	80056e8 <_dtoa_r+0x8d8>
 80055ee:	461a      	mov	r2, r3
 80055f0:	4601      	mov	r1, r0
 80055f2:	4620      	mov	r0, r4
 80055f4:	f000 fbca 	bl	8005d8c <__pow5mult>
 80055f8:	9b05      	ldr	r3, [sp, #20]
 80055fa:	2b01      	cmp	r3, #1
 80055fc:	4606      	mov	r6, r0
 80055fe:	dd76      	ble.n	80056ee <_dtoa_r+0x8de>
 8005600:	2300      	movs	r3, #0
 8005602:	9306      	str	r3, [sp, #24]
 8005604:	6933      	ldr	r3, [r6, #16]
 8005606:	eb06 0383 	add.w	r3, r6, r3, lsl #2
 800560a:	6918      	ldr	r0, [r3, #16]
 800560c:	f000 fab2 	bl	8005b74 <__hi0bits>
 8005610:	f1c0 0020 	rsb	r0, r0, #32
 8005614:	9b04      	ldr	r3, [sp, #16]
 8005616:	4418      	add	r0, r3
 8005618:	f010 001f 	ands.w	r0, r0, #31
 800561c:	f000 8086 	beq.w	800572c <_dtoa_r+0x91c>
 8005620:	f1c0 0320 	rsb	r3, r0, #32
 8005624:	2b04      	cmp	r3, #4
 8005626:	dd7f      	ble.n	8005728 <_dtoa_r+0x918>
 8005628:	f1c0 001c 	rsb	r0, r0, #28
 800562c:	9b04      	ldr	r3, [sp, #16]
 800562e:	4403      	add	r3, r0
 8005630:	4480      	add	r8, r0
 8005632:	4405      	add	r5, r0
 8005634:	9304      	str	r3, [sp, #16]
 8005636:	f1b8 0f00 	cmp.w	r8, #0
 800563a:	dd05      	ble.n	8005648 <_dtoa_r+0x838>
 800563c:	4659      	mov	r1, fp
 800563e:	4642      	mov	r2, r8
 8005640:	4620      	mov	r0, r4
 8005642:	f000 fbfd 	bl	8005e40 <__lshift>
 8005646:	4683      	mov	fp, r0
 8005648:	9b04      	ldr	r3, [sp, #16]
 800564a:	2b00      	cmp	r3, #0
 800564c:	dd05      	ble.n	800565a <_dtoa_r+0x84a>
 800564e:	4631      	mov	r1, r6
 8005650:	461a      	mov	r2, r3
 8005652:	4620      	mov	r0, r4
 8005654:	f000 fbf4 	bl	8005e40 <__lshift>
 8005658:	4606      	mov	r6, r0
 800565a:	9b0e      	ldr	r3, [sp, #56]	; 0x38
 800565c:	2b00      	cmp	r3, #0
 800565e:	d069      	beq.n	8005734 <_dtoa_r+0x924>
 8005660:	4631      	mov	r1, r6
 8005662:	4658      	mov	r0, fp
 8005664:	f000 fc58 	bl	8005f18 <__mcmp>
 8005668:	2800      	cmp	r0, #0
 800566a:	da63      	bge.n	8005734 <_dtoa_r+0x924>
 800566c:	2300      	movs	r3, #0
 800566e:	4659      	mov	r1, fp
 8005670:	220a      	movs	r2, #10
 8005672:	4620      	mov	r0, r4
 8005674:	f000 fa34 	bl	8005ae0 <__multadd>
 8005678:	9b08      	ldr	r3, [sp, #32]
 800567a:	f10a 3aff 	add.w	sl, sl, #4294967295	; 0xffffffff
 800567e:	4683      	mov	fp, r0
 8005680:	2b00      	cmp	r3, #0
 8005682:	f000 818f 	beq.w	80059a4 <_dtoa_r+0xb94>
 8005686:	4639      	mov	r1, r7
 8005688:	2300      	movs	r3, #0
 800568a:	220a      	movs	r2, #10
 800568c:	4620      	mov	r0, r4
 800568e:	f000 fa27 	bl	8005ae0 <__multadd>
 8005692:	f1b9 0f00 	cmp.w	r9, #0
 8005696:	4607      	mov	r7, r0
 8005698:	f300 808e 	bgt.w	80057b8 <_dtoa_r+0x9a8>
 800569c:	9b05      	ldr	r3, [sp, #20]
 800569e:	2b02      	cmp	r3, #2
 80056a0:	dc50      	bgt.n	8005744 <_dtoa_r+0x934>
 80056a2:	e089      	b.n	80057b8 <_dtoa_r+0x9a8>
 80056a4:	9b12      	ldr	r3, [sp, #72]	; 0x48
 80056a6:	f1c3 0336 	rsb	r3, r3, #54	; 0x36
 80056aa:	e75d      	b.n	8005568 <_dtoa_r+0x758>
 80056ac:	9b01      	ldr	r3, [sp, #4]
 80056ae:	1e5e      	subs	r6, r3, #1
 80056b0:	9b06      	ldr	r3, [sp, #24]
 80056b2:	42b3      	cmp	r3, r6
 80056b4:	bfbf      	itttt	lt
 80056b6:	9b06      	ldrlt	r3, [sp, #24]
 80056b8:	9606      	strlt	r6, [sp, #24]
 80056ba:	1af2      	sublt	r2, r6, r3
 80056bc:	9b0d      	ldrlt	r3, [sp, #52]	; 0x34
 80056be:	bfb6      	itet	lt
 80056c0:	189b      	addlt	r3, r3, r2
 80056c2:	1b9e      	subge	r6, r3, r6
 80056c4:	930d      	strlt	r3, [sp, #52]	; 0x34
 80056c6:	9b01      	ldr	r3, [sp, #4]
 80056c8:	bfb8      	it	lt
 80056ca:	2600      	movlt	r6, #0
 80056cc:	2b00      	cmp	r3, #0
 80056ce:	bfb5      	itete	lt
 80056d0:	eba8 0503 	sublt.w	r5, r8, r3
 80056d4:	9b01      	ldrge	r3, [sp, #4]
 80056d6:	2300      	movlt	r3, #0
 80056d8:	4645      	movge	r5, r8
 80056da:	e747      	b.n	800556c <_dtoa_r+0x75c>
 80056dc:	9e06      	ldr	r6, [sp, #24]
 80056de:	9f08      	ldr	r7, [sp, #32]
 80056e0:	4645      	mov	r5, r8
 80056e2:	e74c      	b.n	800557e <_dtoa_r+0x76e>
 80056e4:	9a06      	ldr	r2, [sp, #24]
 80056e6:	e775      	b.n	80055d4 <_dtoa_r+0x7c4>
 80056e8:	9b05      	ldr	r3, [sp, #20]
 80056ea:	2b01      	cmp	r3, #1
 80056ec:	dc18      	bgt.n	8005720 <_dtoa_r+0x910>
 80056ee:	9b02      	ldr	r3, [sp, #8]
 80056f0:	b9b3      	cbnz	r3, 8005720 <_dtoa_r+0x910>
 80056f2:	9b03      	ldr	r3, [sp, #12]
 80056f4:	f3c3 0313 	ubfx	r3, r3, #0, #20
 80056f8:	b9a3      	cbnz	r3, 8005724 <_dtoa_r+0x914>
 80056fa:	9b03      	ldr	r3, [sp, #12]
 80056fc:	f023 4300 	bic.w	r3, r3, #2147483648	; 0x80000000
 8005700:	0d1b      	lsrs	r3, r3, #20
 8005702:	051b      	lsls	r3, r3, #20
 8005704:	b12b      	cbz	r3, 8005712 <_dtoa_r+0x902>
 8005706:	9b04      	ldr	r3, [sp, #16]
 8005708:	3301      	adds	r3, #1
 800570a:	9304      	str	r3, [sp, #16]
 800570c:	f108 0801 	add.w	r8, r8, #1
 8005710:	2301      	movs	r3, #1
 8005712:	9306      	str	r3, [sp, #24]
 8005714:	9b0d      	ldr	r3, [sp, #52]	; 0x34
 8005716:	2b00      	cmp	r3, #0
 8005718:	f47f af74 	bne.w	8005604 <_dtoa_r+0x7f4>
 800571c:	2001      	movs	r0, #1
 800571e:	e779      	b.n	8005614 <_dtoa_r+0x804>
 8005720:	2300      	movs	r3, #0
 8005722:	e7f6      	b.n	8005712 <_dtoa_r+0x902>
 8005724:	9b02      	ldr	r3, [sp, #8]
 8005726:	e7f4      	b.n	8005712 <_dtoa_r+0x902>
 8005728:	d085      	beq.n	8005636 <_dtoa_r+0x826>
 800572a:	4618      	mov	r0, r3
 800572c:	301c      	adds	r0, #28
 800572e:	e77d      	b.n	800562c <_dtoa_r+0x81c>
 8005730:	40240000 	.word	0x40240000
 8005734:	9b01      	ldr	r3, [sp, #4]
 8005736:	2b00      	cmp	r3, #0
 8005738:	dc38      	bgt.n	80057ac <_dtoa_r+0x99c>
 800573a:	9b05      	ldr	r3, [sp, #20]
 800573c:	2b02      	cmp	r3, #2
 800573e:	dd35      	ble.n	80057ac <_dtoa_r+0x99c>
 8005740:	f8dd 9004 	ldr.w	r9, [sp, #4]
 8005744:	f1b9 0f00 	cmp.w	r9, #0
 8005748:	d10d      	bne.n	8005766 <_dtoa_r+0x956>
 800574a:	4631      	mov	r1, r6
 800574c:	464b      	mov	r3, r9
 800574e:	2205      	movs	r2, #5
 8005750:	4620      	mov	r0, r4
 8005752:	f000 f9c5 	bl	8005ae0 <__multadd>
 8005756:	4601      	mov	r1, r0
 8005758:	4606      	mov	r6, r0
 800575a:	4658      	mov	r0, fp
 800575c:	f000 fbdc 	bl	8005f18 <__mcmp>
 8005760:	2800      	cmp	r0, #0
 8005762:	f73f adbd 	bgt.w	80052e0 <_dtoa_r+0x4d0>
 8005766:	9b09      	ldr	r3, [sp, #36]	; 0x24
 8005768:	9d00      	ldr	r5, [sp, #0]
 800576a:	ea6f 0a03 	mvn.w	sl, r3
 800576e:	f04f 0800 	mov.w	r8, #0
 8005772:	4631      	mov	r1, r6
 8005774:	4620      	mov	r0, r4
 8005776:	f000 f991 	bl	8005a9c <_Bfree>
 800577a:	2f00      	cmp	r7, #0
 800577c:	f43f aeb4 	beq.w	80054e8 <_dtoa_r+0x6d8>
 8005780:	f1b8 0f00 	cmp.w	r8, #0
 8005784:	d005      	beq.n	8005792 <_dtoa_r+0x982>
 8005786:	45b8      	cmp	r8, r7
 8005788:	d003      	beq.n	8005792 <_dtoa_r+0x982>
 800578a:	4641      	mov	r1, r8
 800578c:	4620      	mov	r0, r4
 800578e:	f000 f985 	bl	8005a9c <_Bfree>
 8005792:	4639      	mov	r1, r7
 8005794:	4620      	mov	r0, r4
 8005796:	f000 f981 	bl	8005a9c <_Bfree>
 800579a:	e6a5      	b.n	80054e8 <_dtoa_r+0x6d8>
 800579c:	2600      	movs	r6, #0
 800579e:	4637      	mov	r7, r6
 80057a0:	e7e1      	b.n	8005766 <_dtoa_r+0x956>
 80057a2:	9e0c      	ldr	r6, [sp, #48]	; 0x30
 80057a4:	f8dd a01c 	ldr.w	sl, [sp, #28]
 80057a8:	4637      	mov	r7, r6
 80057aa:	e599      	b.n	80052e0 <_dtoa_r+0x4d0>
 80057ac:	9b08      	ldr	r3, [sp, #32]
 80057ae:	f8dd 9004 	ldr.w	r9, [sp, #4]
 80057b2:	2b00      	cmp	r3, #0
 80057b4:	f000 80fd 	beq.w	80059b2 <_dtoa_r+0xba2>
 80057b8:	2d00      	cmp	r5, #0
 80057ba:	dd05      	ble.n	80057c8 <_dtoa_r+0x9b8>
 80057bc:	4639      	mov	r1, r7
 80057be:	462a      	mov	r2, r5
 80057c0:	4620      	mov	r0, r4
 80057c2:	f000 fb3d 	bl	8005e40 <__lshift>
 80057c6:	4607      	mov	r7, r0
 80057c8:	9b06      	ldr	r3, [sp, #24]
 80057ca:	2b00      	cmp	r3, #0
 80057cc:	d05c      	beq.n	8005888 <_dtoa_r+0xa78>
 80057ce:	6879      	ldr	r1, [r7, #4]
 80057d0:	4620      	mov	r0, r4
 80057d2:	f000 f923 	bl	8005a1c <_Balloc>
 80057d6:	4605      	mov	r5, r0
 80057d8:	b928      	cbnz	r0, 80057e6 <_dtoa_r+0x9d6>
 80057da:	4b80      	ldr	r3, [pc, #512]	; (80059dc <_dtoa_r+0xbcc>)
 80057dc:	4602      	mov	r2, r0
 80057de:	f240 21ea 	movw	r1, #746	; 0x2ea
 80057e2:	f7ff bb2e 	b.w	8004e42 <_dtoa_r+0x32>
 80057e6:	693a      	ldr	r2, [r7, #16]
 80057e8:	3202      	adds	r2, #2
 80057ea:	0092      	lsls	r2, r2, #2
 80057ec:	f107 010c 	add.w	r1, r7, #12
 80057f0:	300c      	adds	r0, #12
 80057f2:	f000 f905 	bl	8005a00 <memcpy>
 80057f6:	2201      	movs	r2, #1
 80057f8:	4629      	mov	r1, r5
 80057fa:	4620      	mov	r0, r4
 80057fc:	f000 fb20 	bl	8005e40 <__lshift>
 8005800:	9b00      	ldr	r3, [sp, #0]
 8005802:	3301      	adds	r3, #1
 8005804:	9301      	str	r3, [sp, #4]
 8005806:	9b00      	ldr	r3, [sp, #0]
 8005808:	444b      	add	r3, r9
 800580a:	9307      	str	r3, [sp, #28]
 800580c:	9b02      	ldr	r3, [sp, #8]
 800580e:	f003 0301 	and.w	r3, r3, #1
 8005812:	46b8      	mov	r8, r7
 8005814:	9306      	str	r3, [sp, #24]
 8005816:	4607      	mov	r7, r0
 8005818:	9b01      	ldr	r3, [sp, #4]
 800581a:	4631      	mov	r1, r6
 800581c:	3b01      	subs	r3, #1
 800581e:	4658      	mov	r0, fp
 8005820:	9302      	str	r3, [sp, #8]
 8005822:	f7ff fa69 	bl	8004cf8 <quorem>
 8005826:	4603      	mov	r3, r0
 8005828:	3330      	adds	r3, #48	; 0x30
 800582a:	9004      	str	r0, [sp, #16]
 800582c:	4641      	mov	r1, r8
 800582e:	4658      	mov	r0, fp
 8005830:	9308      	str	r3, [sp, #32]
 8005832:	f000 fb71 	bl	8005f18 <__mcmp>
 8005836:	463a      	mov	r2, r7
 8005838:	4681      	mov	r9, r0
 800583a:	4631      	mov	r1, r6
 800583c:	4620      	mov	r0, r4
 800583e:	f000 fb87 	bl	8005f50 <__mdiff>
 8005842:	68c2      	ldr	r2, [r0, #12]
 8005844:	9b08      	ldr	r3, [sp, #32]
 8005846:	4605      	mov	r5, r0
 8005848:	bb02      	cbnz	r2, 800588c <_dtoa_r+0xa7c>
 800584a:	4601      	mov	r1, r0
 800584c:	4658      	mov	r0, fp
 800584e:	f000 fb63 	bl	8005f18 <__mcmp>
 8005852:	9b08      	ldr	r3, [sp, #32]
 8005854:	4602      	mov	r2, r0
 8005856:	4629      	mov	r1, r5
 8005858:	4620      	mov	r0, r4
 800585a:	e9cd 3208 	strd	r3, r2, [sp, #32]
 800585e:	f000 f91d 	bl	8005a9c <_Bfree>
 8005862:	9b05      	ldr	r3, [sp, #20]
 8005864:	9a09      	ldr	r2, [sp, #36]	; 0x24
 8005866:	9d01      	ldr	r5, [sp, #4]
 8005868:	ea43 0102 	orr.w	r1, r3, r2
 800586c:	9b06      	ldr	r3, [sp, #24]
 800586e:	430b      	orrs	r3, r1
 8005870:	9b08      	ldr	r3, [sp, #32]
 8005872:	d10d      	bne.n	8005890 <_dtoa_r+0xa80>
 8005874:	2b39      	cmp	r3, #57	; 0x39
 8005876:	d029      	beq.n	80058cc <_dtoa_r+0xabc>
 8005878:	f1b9 0f00 	cmp.w	r9, #0
 800587c:	dd01      	ble.n	8005882 <_dtoa_r+0xa72>
 800587e:	9b04      	ldr	r3, [sp, #16]
 8005880:	3331      	adds	r3, #49	; 0x31
 8005882:	9a02      	ldr	r2, [sp, #8]
 8005884:	7013      	strb	r3, [r2, #0]
 8005886:	e774      	b.n	8005772 <_dtoa_r+0x962>
 8005888:	4638      	mov	r0, r7
 800588a:	e7b9      	b.n	8005800 <_dtoa_r+0x9f0>
 800588c:	2201      	movs	r2, #1
 800588e:	e7e2      	b.n	8005856 <_dtoa_r+0xa46>
 8005890:	f1b9 0f00 	cmp.w	r9, #0
 8005894:	db06      	blt.n	80058a4 <_dtoa_r+0xa94>
 8005896:	9905      	ldr	r1, [sp, #20]
 8005898:	ea41 0909 	orr.w	r9, r1, r9
 800589c:	9906      	ldr	r1, [sp, #24]
 800589e:	ea59 0101 	orrs.w	r1, r9, r1
 80058a2:	d120      	bne.n	80058e6 <_dtoa_r+0xad6>
 80058a4:	2a00      	cmp	r2, #0
 80058a6:	ddec      	ble.n	8005882 <_dtoa_r+0xa72>
 80058a8:	4659      	mov	r1, fp
 80058aa:	2201      	movs	r2, #1
 80058ac:	4620      	mov	r0, r4
 80058ae:	9301      	str	r3, [sp, #4]
 80058b0:	f000 fac6 	bl	8005e40 <__lshift>
 80058b4:	4631      	mov	r1, r6
 80058b6:	4683      	mov	fp, r0
 80058b8:	f000 fb2e 	bl	8005f18 <__mcmp>
 80058bc:	2800      	cmp	r0, #0
 80058be:	9b01      	ldr	r3, [sp, #4]
 80058c0:	dc02      	bgt.n	80058c8 <_dtoa_r+0xab8>
 80058c2:	d1de      	bne.n	8005882 <_dtoa_r+0xa72>
 80058c4:	07da      	lsls	r2, r3, #31
 80058c6:	d5dc      	bpl.n	8005882 <_dtoa_r+0xa72>
 80058c8:	2b39      	cmp	r3, #57	; 0x39
 80058ca:	d1d8      	bne.n	800587e <_dtoa_r+0xa6e>
 80058cc:	9a02      	ldr	r2, [sp, #8]
 80058ce:	2339      	movs	r3, #57	; 0x39
 80058d0:	7013      	strb	r3, [r2, #0]
 80058d2:	462b      	mov	r3, r5
 80058d4:	461d      	mov	r5, r3
 80058d6:	3b01      	subs	r3, #1
 80058d8:	f815 2c01 	ldrb.w	r2, [r5, #-1]
 80058dc:	2a39      	cmp	r2, #57	; 0x39
 80058de:	d050      	beq.n	8005982 <_dtoa_r+0xb72>
 80058e0:	3201      	adds	r2, #1
 80058e2:	701a      	strb	r2, [r3, #0]
 80058e4:	e745      	b.n	8005772 <_dtoa_r+0x962>
 80058e6:	2a00      	cmp	r2, #0
 80058e8:	dd03      	ble.n	80058f2 <_dtoa_r+0xae2>
 80058ea:	2b39      	cmp	r3, #57	; 0x39
 80058ec:	d0ee      	beq.n	80058cc <_dtoa_r+0xabc>
 80058ee:	3301      	adds	r3, #1
 80058f0:	e7c7      	b.n	8005882 <_dtoa_r+0xa72>
 80058f2:	9a01      	ldr	r2, [sp, #4]
 80058f4:	9907      	ldr	r1, [sp, #28]
 80058f6:	f802 3c01 	strb.w	r3, [r2, #-1]
 80058fa:	428a      	cmp	r2, r1
 80058fc:	d02a      	beq.n	8005954 <_dtoa_r+0xb44>
 80058fe:	4659      	mov	r1, fp
 8005900:	2300      	movs	r3, #0
 8005902:	220a      	movs	r2, #10
 8005904:	4620      	mov	r0, r4
 8005906:	f000 f8eb 	bl	8005ae0 <__multadd>
 800590a:	45b8      	cmp	r8, r7
 800590c:	4683      	mov	fp, r0
 800590e:	f04f 0300 	mov.w	r3, #0
 8005912:	f04f 020a 	mov.w	r2, #10
 8005916:	4641      	mov	r1, r8
 8005918:	4620      	mov	r0, r4
 800591a:	d107      	bne.n	800592c <_dtoa_r+0xb1c>
 800591c:	f000 f8e0 	bl	8005ae0 <__multadd>
 8005920:	4680      	mov	r8, r0
 8005922:	4607      	mov	r7, r0
 8005924:	9b01      	ldr	r3, [sp, #4]
 8005926:	3301      	adds	r3, #1
 8005928:	9301      	str	r3, [sp, #4]
 800592a:	e775      	b.n	8005818 <_dtoa_r+0xa08>
 800592c:	f000 f8d8 	bl	8005ae0 <__multadd>
 8005930:	4639      	mov	r1, r7
 8005932:	4680      	mov	r8, r0
 8005934:	2300      	movs	r3, #0
 8005936:	220a      	movs	r2, #10
 8005938:	4620      	mov	r0, r4
 800593a:	f000 f8d1 	bl	8005ae0 <__multadd>
 800593e:	4607      	mov	r7, r0
 8005940:	e7f0      	b.n	8005924 <_dtoa_r+0xb14>
 8005942:	f1b9 0f00 	cmp.w	r9, #0
 8005946:	9a00      	ldr	r2, [sp, #0]
 8005948:	bfcc      	ite	gt
 800594a:	464d      	movgt	r5, r9
 800594c:	2501      	movle	r5, #1
 800594e:	4415      	add	r5, r2
 8005950:	f04f 0800 	mov.w	r8, #0
 8005954:	4659      	mov	r1, fp
 8005956:	2201      	movs	r2, #1
 8005958:	4620      	mov	r0, r4
 800595a:	9301      	str	r3, [sp, #4]
 800595c:	f000 fa70 	bl	8005e40 <__lshift>
 8005960:	4631      	mov	r1, r6
 8005962:	4683      	mov	fp, r0
 8005964:	f000 fad8 	bl	8005f18 <__mcmp>
 8005968:	2800      	cmp	r0, #0
 800596a:	dcb2      	bgt.n	80058d2 <_dtoa_r+0xac2>
 800596c:	d102      	bne.n	8005974 <_dtoa_r+0xb64>
 800596e:	9b01      	ldr	r3, [sp, #4]
 8005970:	07db      	lsls	r3, r3, #31
 8005972:	d4ae      	bmi.n	80058d2 <_dtoa_r+0xac2>
 8005974:	462b      	mov	r3, r5
 8005976:	461d      	mov	r5, r3
 8005978:	f813 2d01 	ldrb.w	r2, [r3, #-1]!
 800597c:	2a30      	cmp	r2, #48	; 0x30
 800597e:	d0fa      	beq.n	8005976 <_dtoa_r+0xb66>
 8005980:	e6f7      	b.n	8005772 <_dtoa_r+0x962>
 8005982:	9a00      	ldr	r2, [sp, #0]
 8005984:	429a      	cmp	r2, r3
 8005986:	d1a5      	bne.n	80058d4 <_dtoa_r+0xac4>
 8005988:	f10a 0a01 	add.w	sl, sl, #1
 800598c:	2331      	movs	r3, #49	; 0x31
 800598e:	e779      	b.n	8005884 <_dtoa_r+0xa74>
 8005990:	4b13      	ldr	r3, [pc, #76]	; (80059e0 <_dtoa_r+0xbd0>)
 8005992:	f7ff baaf 	b.w	8004ef4 <_dtoa_r+0xe4>
 8005996:	9b21      	ldr	r3, [sp, #132]	; 0x84
 8005998:	2b00      	cmp	r3, #0
 800599a:	f47f aa86 	bne.w	8004eaa <_dtoa_r+0x9a>
 800599e:	4b11      	ldr	r3, [pc, #68]	; (80059e4 <_dtoa_r+0xbd4>)
 80059a0:	f7ff baa8 	b.w	8004ef4 <_dtoa_r+0xe4>
 80059a4:	f1b9 0f00 	cmp.w	r9, #0
 80059a8:	dc03      	bgt.n	80059b2 <_dtoa_r+0xba2>
 80059aa:	9b05      	ldr	r3, [sp, #20]
 80059ac:	2b02      	cmp	r3, #2
 80059ae:	f73f aec9 	bgt.w	8005744 <_dtoa_r+0x934>
 80059b2:	9d00      	ldr	r5, [sp, #0]
 80059b4:	4631      	mov	r1, r6
 80059b6:	4658      	mov	r0, fp
 80059b8:	f7ff f99e 	bl	8004cf8 <quorem>
 80059bc:	f100 0330 	add.w	r3, r0, #48	; 0x30
 80059c0:	f805 3b01 	strb.w	r3, [r5], #1
 80059c4:	9a00      	ldr	r2, [sp, #0]
 80059c6:	1aaa      	subs	r2, r5, r2
 80059c8:	4591      	cmp	r9, r2
 80059ca:	ddba      	ble.n	8005942 <_dtoa_r+0xb32>
 80059cc:	4659      	mov	r1, fp
 80059ce:	2300      	movs	r3, #0
 80059d0:	220a      	movs	r2, #10
 80059d2:	4620      	mov	r0, r4
 80059d4:	f000 f884 	bl	8005ae0 <__multadd>
 80059d8:	4683      	mov	fp, r0
 80059da:	e7eb      	b.n	80059b4 <_dtoa_r+0xba4>
 80059dc:	0800726f 	.word	0x0800726f
 80059e0:	080071c8 	.word	0x080071c8
 80059e4:	080071ec 	.word	0x080071ec

080059e8 <_localeconv_r>:
 80059e8:	4800      	ldr	r0, [pc, #0]	; (80059ec <_localeconv_r+0x4>)
 80059ea:	4770      	bx	lr
 80059ec:	20000160 	.word	0x20000160

080059f0 <malloc>:
 80059f0:	4b02      	ldr	r3, [pc, #8]	; (80059fc <malloc+0xc>)
 80059f2:	4601      	mov	r1, r0
 80059f4:	6818      	ldr	r0, [r3, #0]
 80059f6:	f000 bbef 	b.w	80061d8 <_malloc_r>
 80059fa:	bf00      	nop
 80059fc:	2000000c 	.word	0x2000000c

08005a00 <memcpy>:
 8005a00:	440a      	add	r2, r1
 8005a02:	4291      	cmp	r1, r2
 8005a04:	f100 33ff 	add.w	r3, r0, #4294967295	; 0xffffffff
 8005a08:	d100      	bne.n	8005a0c <memcpy+0xc>
 8005a0a:	4770      	bx	lr
 8005a0c:	b510      	push	{r4, lr}
 8005a0e:	f811 4b01 	ldrb.w	r4, [r1], #1
 8005a12:	f803 4f01 	strb.w	r4, [r3, #1]!
 8005a16:	4291      	cmp	r1, r2
 8005a18:	d1f9      	bne.n	8005a0e <memcpy+0xe>
 8005a1a:	bd10      	pop	{r4, pc}

08005a1c <_Balloc>:
 8005a1c:	b570      	push	{r4, r5, r6, lr}
 8005a1e:	6a46      	ldr	r6, [r0, #36]	; 0x24
 8005a20:	4604      	mov	r4, r0
 8005a22:	460d      	mov	r5, r1
 8005a24:	b976      	cbnz	r6, 8005a44 <_Balloc+0x28>
 8005a26:	2010      	movs	r0, #16
 8005a28:	f7ff ffe2 	bl	80059f0 <malloc>
 8005a2c:	4602      	mov	r2, r0
 8005a2e:	6260      	str	r0, [r4, #36]	; 0x24
 8005a30:	b920      	cbnz	r0, 8005a3c <_Balloc+0x20>
 8005a32:	4b18      	ldr	r3, [pc, #96]	; (8005a94 <_Balloc+0x78>)
 8005a34:	4818      	ldr	r0, [pc, #96]	; (8005a98 <_Balloc+0x7c>)
 8005a36:	2166      	movs	r1, #102	; 0x66
 8005a38:	f000 fd94 	bl	8006564 <__assert_func>
 8005a3c:	e9c0 6601 	strd	r6, r6, [r0, #4]
 8005a40:	6006      	str	r6, [r0, #0]
 8005a42:	60c6      	str	r6, [r0, #12]
 8005a44:	6a66      	ldr	r6, [r4, #36]	; 0x24
 8005a46:	68f3      	ldr	r3, [r6, #12]
 8005a48:	b183      	cbz	r3, 8005a6c <_Balloc+0x50>
 8005a4a:	6a63      	ldr	r3, [r4, #36]	; 0x24
 8005a4c:	68db      	ldr	r3, [r3, #12]
 8005a4e:	f853 0025 	ldr.w	r0, [r3, r5, lsl #2]
 8005a52:	b9b8      	cbnz	r0, 8005a84 <_Balloc+0x68>
 8005a54:	2101      	movs	r1, #1
 8005a56:	fa01 f605 	lsl.w	r6, r1, r5
 8005a5a:	1d72      	adds	r2, r6, #5
 8005a5c:	0092      	lsls	r2, r2, #2
 8005a5e:	4620      	mov	r0, r4
 8005a60:	f000 fb5a 	bl	8006118 <_calloc_r>
 8005a64:	b160      	cbz	r0, 8005a80 <_Balloc+0x64>
 8005a66:	e9c0 5601 	strd	r5, r6, [r0, #4]
 8005a6a:	e00e      	b.n	8005a8a <_Balloc+0x6e>
 8005a6c:	2221      	movs	r2, #33	; 0x21
 8005a6e:	2104      	movs	r1, #4
 8005a70:	4620      	mov	r0, r4
 8005a72:	f000 fb51 	bl	8006118 <_calloc_r>
 8005a76:	6a63      	ldr	r3, [r4, #36]	; 0x24
 8005a78:	60f0      	str	r0, [r6, #12]
 8005a7a:	68db      	ldr	r3, [r3, #12]
 8005a7c:	2b00      	cmp	r3, #0
 8005a7e:	d1e4      	bne.n	8005a4a <_Balloc+0x2e>
 8005a80:	2000      	movs	r0, #0
 8005a82:	bd70      	pop	{r4, r5, r6, pc}
 8005a84:	6802      	ldr	r2, [r0, #0]
 8005a86:	f843 2025 	str.w	r2, [r3, r5, lsl #2]
 8005a8a:	2300      	movs	r3, #0
 8005a8c:	e9c0 3303 	strd	r3, r3, [r0, #12]
 8005a90:	e7f7      	b.n	8005a82 <_Balloc+0x66>
 8005a92:	bf00      	nop
 8005a94:	080071f9 	.word	0x080071f9
 8005a98:	08007280 	.word	0x08007280

08005a9c <_Bfree>:
 8005a9c:	b570      	push	{r4, r5, r6, lr}
 8005a9e:	6a46      	ldr	r6, [r0, #36]	; 0x24
 8005aa0:	4605      	mov	r5, r0
 8005aa2:	460c      	mov	r4, r1
 8005aa4:	b976      	cbnz	r6, 8005ac4 <_Bfree+0x28>
 8005aa6:	2010      	movs	r0, #16
 8005aa8:	f7ff ffa2 	bl	80059f0 <malloc>
 8005aac:	4602      	mov	r2, r0
 8005aae:	6268      	str	r0, [r5, #36]	; 0x24
 8005ab0:	b920      	cbnz	r0, 8005abc <_Bfree+0x20>
 8005ab2:	4b09      	ldr	r3, [pc, #36]	; (8005ad8 <_Bfree+0x3c>)
 8005ab4:	4809      	ldr	r0, [pc, #36]	; (8005adc <_Bfree+0x40>)
 8005ab6:	218a      	movs	r1, #138	; 0x8a
 8005ab8:	f000 fd54 	bl	8006564 <__assert_func>
 8005abc:	e9c0 6601 	strd	r6, r6, [r0, #4]
 8005ac0:	6006      	str	r6, [r0, #0]
 8005ac2:	60c6      	str	r6, [r0, #12]
 8005ac4:	b13c      	cbz	r4, 8005ad6 <_Bfree+0x3a>
 8005ac6:	6a6b      	ldr	r3, [r5, #36]	; 0x24
 8005ac8:	6862      	ldr	r2, [r4, #4]
 8005aca:	68db      	ldr	r3, [r3, #12]
 8005acc:	f853 1022 	ldr.w	r1, [r3, r2, lsl #2]
 8005ad0:	6021      	str	r1, [r4, #0]
 8005ad2:	f843 4022 	str.w	r4, [r3, r2, lsl #2]
 8005ad6:	bd70      	pop	{r4, r5, r6, pc}
 8005ad8:	080071f9 	.word	0x080071f9
 8005adc:	08007280 	.word	0x08007280

08005ae0 <__multadd>:
 8005ae0:	e92d 41f0 	stmdb	sp!, {r4, r5, r6, r7, r8, lr}
 8005ae4:	690e      	ldr	r6, [r1, #16]
 8005ae6:	4607      	mov	r7, r0
 8005ae8:	4698      	mov	r8, r3
 8005aea:	460c      	mov	r4, r1
 8005aec:	f101 0014 	add.w	r0, r1, #20
 8005af0:	2300      	movs	r3, #0
 8005af2:	6805      	ldr	r5, [r0, #0]
 8005af4:	b2a9      	uxth	r1, r5
 8005af6:	fb02 8101 	mla	r1, r2, r1, r8
 8005afa:	ea4f 4c11 	mov.w	ip, r1, lsr #16
 8005afe:	0c2d      	lsrs	r5, r5, #16
 8005b00:	fb02 c505 	mla	r5, r2, r5, ip
 8005b04:	b289      	uxth	r1, r1
 8005b06:	3301      	adds	r3, #1
 8005b08:	eb01 4105 	add.w	r1, r1, r5, lsl #16
 8005b0c:	429e      	cmp	r6, r3
 8005b0e:	f840 1b04 	str.w	r1, [r0], #4
 8005b12:	ea4f 4815 	mov.w	r8, r5, lsr #16
 8005b16:	dcec      	bgt.n	8005af2 <__multadd+0x12>
 8005b18:	f1b8 0f00 	cmp.w	r8, #0
 8005b1c:	d022      	beq.n	8005b64 <__multadd+0x84>
 8005b1e:	68a3      	ldr	r3, [r4, #8]
 8005b20:	42b3      	cmp	r3, r6
 8005b22:	dc19      	bgt.n	8005b58 <__multadd+0x78>
 8005b24:	6861      	ldr	r1, [r4, #4]
 8005b26:	4638      	mov	r0, r7
 8005b28:	3101      	adds	r1, #1
 8005b2a:	f7ff ff77 	bl	8005a1c <_Balloc>
 8005b2e:	4605      	mov	r5, r0
 8005b30:	b928      	cbnz	r0, 8005b3e <__multadd+0x5e>
 8005b32:	4602      	mov	r2, r0
 8005b34:	4b0d      	ldr	r3, [pc, #52]	; (8005b6c <__multadd+0x8c>)
 8005b36:	480e      	ldr	r0, [pc, #56]	; (8005b70 <__multadd+0x90>)
 8005b38:	21b5      	movs	r1, #181	; 0xb5
 8005b3a:	f000 fd13 	bl	8006564 <__assert_func>
 8005b3e:	6922      	ldr	r2, [r4, #16]
 8005b40:	3202      	adds	r2, #2
 8005b42:	f104 010c 	add.w	r1, r4, #12
 8005b46:	0092      	lsls	r2, r2, #2
 8005b48:	300c      	adds	r0, #12
 8005b4a:	f7ff ff59 	bl	8005a00 <memcpy>
 8005b4e:	4621      	mov	r1, r4
 8005b50:	4638      	mov	r0, r7
 8005b52:	f7ff ffa3 	bl	8005a9c <_Bfree>
 8005b56:	462c      	mov	r4, r5
 8005b58:	eb04 0386 	add.w	r3, r4, r6, lsl #2
 8005b5c:	3601      	adds	r6, #1
 8005b5e:	f8c3 8014 	str.w	r8, [r3, #20]
 8005b62:	6126      	str	r6, [r4, #16]
 8005b64:	4620      	mov	r0, r4
 8005b66:	e8bd 81f0 	ldmia.w	sp!, {r4, r5, r6, r7, r8, pc}
 8005b6a:	bf00      	nop
 8005b6c:	0800726f 	.word	0x0800726f
 8005b70:	08007280 	.word	0x08007280

08005b74 <__hi0bits>:
 8005b74:	0c03      	lsrs	r3, r0, #16
 8005b76:	041b      	lsls	r3, r3, #16
 8005b78:	b9d3      	cbnz	r3, 8005bb0 <__hi0bits+0x3c>
 8005b7a:	0400      	lsls	r0, r0, #16
 8005b7c:	2310      	movs	r3, #16
 8005b7e:	f010 4f7f 	tst.w	r0, #4278190080	; 0xff000000
 8005b82:	bf04      	itt	eq
 8005b84:	0200      	lsleq	r0, r0, #8
 8005b86:	3308      	addeq	r3, #8
 8005b88:	f010 4f70 	tst.w	r0, #4026531840	; 0xf0000000
 8005b8c:	bf04      	itt	eq
 8005b8e:	0100      	lsleq	r0, r0, #4
 8005b90:	3304      	addeq	r3, #4
 8005b92:	f010 4f40 	tst.w	r0, #3221225472	; 0xc0000000
 8005b96:	bf04      	itt	eq
 8005b98:	0080      	lsleq	r0, r0, #2
 8005b9a:	3302      	addeq	r3, #2
 8005b9c:	2800      	cmp	r0, #0
 8005b9e:	db05      	blt.n	8005bac <__hi0bits+0x38>
 8005ba0:	f010 4f80 	tst.w	r0, #1073741824	; 0x40000000
 8005ba4:	f103 0301 	add.w	r3, r3, #1
 8005ba8:	bf08      	it	eq
 8005baa:	2320      	moveq	r3, #32
 8005bac:	4618      	mov	r0, r3
 8005bae:	4770      	bx	lr
 8005bb0:	2300      	movs	r3, #0
 8005bb2:	e7e4      	b.n	8005b7e <__hi0bits+0xa>

08005bb4 <__lo0bits>:
 8005bb4:	6803      	ldr	r3, [r0, #0]
 8005bb6:	f013 0207 	ands.w	r2, r3, #7
 8005bba:	4601      	mov	r1, r0
 8005bbc:	d00b      	beq.n	8005bd6 <__lo0bits+0x22>
 8005bbe:	07da      	lsls	r2, r3, #31
 8005bc0:	d424      	bmi.n	8005c0c <__lo0bits+0x58>
 8005bc2:	0798      	lsls	r0, r3, #30
 8005bc4:	bf49      	itett	mi
 8005bc6:	085b      	lsrmi	r3, r3, #1
 8005bc8:	089b      	lsrpl	r3, r3, #2
 8005bca:	2001      	movmi	r0, #1
 8005bcc:	600b      	strmi	r3, [r1, #0]
 8005bce:	bf5c      	itt	pl
 8005bd0:	600b      	strpl	r3, [r1, #0]
 8005bd2:	2002      	movpl	r0, #2
 8005bd4:	4770      	bx	lr
 8005bd6:	b298      	uxth	r0, r3
 8005bd8:	b9b0      	cbnz	r0, 8005c08 <__lo0bits+0x54>
 8005bda:	0c1b      	lsrs	r3, r3, #16
 8005bdc:	2010      	movs	r0, #16
 8005bde:	f013 0fff 	tst.w	r3, #255	; 0xff
 8005be2:	bf04      	itt	eq
 8005be4:	0a1b      	lsreq	r3, r3, #8
 8005be6:	3008      	addeq	r0, #8
 8005be8:	071a      	lsls	r2, r3, #28
 8005bea:	bf04      	itt	eq
 8005bec:	091b      	lsreq	r3, r3, #4
 8005bee:	3004      	addeq	r0, #4
 8005bf0:	079a      	lsls	r2, r3, #30
 8005bf2:	bf04      	itt	eq
 8005bf4:	089b      	lsreq	r3, r3, #2
 8005bf6:	3002      	addeq	r0, #2
 8005bf8:	07da      	lsls	r2, r3, #31
 8005bfa:	d403      	bmi.n	8005c04 <__lo0bits+0x50>
 8005bfc:	085b      	lsrs	r3, r3, #1
 8005bfe:	f100 0001 	add.w	r0, r0, #1
 8005c02:	d005      	beq.n	8005c10 <__lo0bits+0x5c>
 8005c04:	600b      	str	r3, [r1, #0]
 8005c06:	4770      	bx	lr
 8005c08:	4610      	mov	r0, r2
 8005c0a:	e7e8      	b.n	8005bde <__lo0bits+0x2a>
 8005c0c:	2000      	movs	r0, #0
 8005c0e:	4770      	bx	lr
 8005c10:	2020      	movs	r0, #32
 8005c12:	4770      	bx	lr

08005c14 <__i2b>:
 8005c14:	b510      	push	{r4, lr}
 8005c16:	460c      	mov	r4, r1
 8005c18:	2101      	movs	r1, #1
 8005c1a:	f7ff feff 	bl	8005a1c <_Balloc>
 8005c1e:	4602      	mov	r2, r0
 8005c20:	b928      	cbnz	r0, 8005c2e <__i2b+0x1a>
 8005c22:	4b05      	ldr	r3, [pc, #20]	; (8005c38 <__i2b+0x24>)
 8005c24:	4805      	ldr	r0, [pc, #20]	; (8005c3c <__i2b+0x28>)
 8005c26:	f44f 71a0 	mov.w	r1, #320	; 0x140
 8005c2a:	f000 fc9b 	bl	8006564 <__assert_func>
 8005c2e:	2301      	movs	r3, #1
 8005c30:	6144      	str	r4, [r0, #20]
 8005c32:	6103      	str	r3, [r0, #16]
 8005c34:	bd10      	pop	{r4, pc}
 8005c36:	bf00      	nop
 8005c38:	0800726f 	.word	0x0800726f
 8005c3c:	08007280 	.word	0x08007280

08005c40 <__multiply>:
 8005c40:	e92d 4ff0 	stmdb	sp!, {r4, r5, r6, r7, r8, r9, sl, fp, lr}
 8005c44:	4614      	mov	r4, r2
 8005c46:	690a      	ldr	r2, [r1, #16]
 8005c48:	6923      	ldr	r3, [r4, #16]
 8005c4a:	429a      	cmp	r2, r3
 8005c4c:	bfb8      	it	lt
 8005c4e:	460b      	movlt	r3, r1
 8005c50:	460d      	mov	r5, r1
 8005c52:	bfbc      	itt	lt
 8005c54:	4625      	movlt	r5, r4
 8005c56:	461c      	movlt	r4, r3
 8005c58:	f8d5 a010 	ldr.w	sl, [r5, #16]
 8005c5c:	f8d4 9010 	ldr.w	r9, [r4, #16]
 8005c60:	68ab      	ldr	r3, [r5, #8]
 8005c62:	6869      	ldr	r1, [r5, #4]
 8005c64:	eb0a 0709 	add.w	r7, sl, r9
 8005c68:	42bb      	cmp	r3, r7
 8005c6a:	b085      	sub	sp, #20
 8005c6c:	bfb8      	it	lt
 8005c6e:	3101      	addlt	r1, #1
 8005c70:	f7ff fed4 	bl	8005a1c <_Balloc>
 8005c74:	b930      	cbnz	r0, 8005c84 <__multiply+0x44>
 8005c76:	4602      	mov	r2, r0
 8005c78:	4b42      	ldr	r3, [pc, #264]	; (8005d84 <__multiply+0x144>)
 8005c7a:	4843      	ldr	r0, [pc, #268]	; (8005d88 <__multiply+0x148>)
 8005c7c:	f240 115d 	movw	r1, #349	; 0x15d
 8005c80:	f000 fc70 	bl	8006564 <__assert_func>
 8005c84:	f100 0614 	add.w	r6, r0, #20
 8005c88:	eb06 0887 	add.w	r8, r6, r7, lsl #2
 8005c8c:	4633      	mov	r3, r6
 8005c8e:	2200      	movs	r2, #0
 8005c90:	4543      	cmp	r3, r8
 8005c92:	d31e      	bcc.n	8005cd2 <__multiply+0x92>
 8005c94:	f105 0c14 	add.w	ip, r5, #20
 8005c98:	f104 0314 	add.w	r3, r4, #20
 8005c9c:	eb0c 0c8a 	add.w	ip, ip, sl, lsl #2
 8005ca0:	eb03 0289 	add.w	r2, r3, r9, lsl #2
 8005ca4:	9202      	str	r2, [sp, #8]
 8005ca6:	ebac 0205 	sub.w	r2, ip, r5
 8005caa:	3a15      	subs	r2, #21
 8005cac:	f022 0203 	bic.w	r2, r2, #3
 8005cb0:	3204      	adds	r2, #4
 8005cb2:	f105 0115 	add.w	r1, r5, #21
 8005cb6:	458c      	cmp	ip, r1
 8005cb8:	bf38      	it	cc
 8005cba:	2204      	movcc	r2, #4
 8005cbc:	9201      	str	r2, [sp, #4]
 8005cbe:	9a02      	ldr	r2, [sp, #8]
 8005cc0:	9303      	str	r3, [sp, #12]
 8005cc2:	429a      	cmp	r2, r3
 8005cc4:	d808      	bhi.n	8005cd8 <__multiply+0x98>
 8005cc6:	2f00      	cmp	r7, #0
 8005cc8:	dc55      	bgt.n	8005d76 <__multiply+0x136>
 8005cca:	6107      	str	r7, [r0, #16]
 8005ccc:	b005      	add	sp, #20
 8005cce:	e8bd 8ff0 	ldmia.w	sp!, {r4, r5, r6, r7, r8, r9, sl, fp, pc}
 8005cd2:	f843 2b04 	str.w	r2, [r3], #4
 8005cd6:	e7db      	b.n	8005c90 <__multiply+0x50>
 8005cd8:	f8b3 a000 	ldrh.w	sl, [r3]
 8005cdc:	f1ba 0f00 	cmp.w	sl, #0
 8005ce0:	d020      	beq.n	8005d24 <__multiply+0xe4>
 8005ce2:	f105 0e14 	add.w	lr, r5, #20
 8005ce6:	46b1      	mov	r9, r6
 8005ce8:	2200      	movs	r2, #0
 8005cea:	f85e 4b04 	ldr.w	r4, [lr], #4
 8005cee:	f8d9 b000 	ldr.w	fp, [r9]
 8005cf2:	b2a1      	uxth	r1, r4
 8005cf4:	fa1f fb8b 	uxth.w	fp, fp
 8005cf8:	fb0a b101 	mla	r1, sl, r1, fp
 8005cfc:	4411      	add	r1, r2
 8005cfe:	f8d9 2000 	ldr.w	r2, [r9]
 8005d02:	0c24      	lsrs	r4, r4, #16
 8005d04:	0c12      	lsrs	r2, r2, #16
 8005d06:	fb0a 2404 	mla	r4, sl, r4, r2
 8005d0a:	eb04 4411 	add.w	r4, r4, r1, lsr #16
 8005d0e:	b289      	uxth	r1, r1
 8005d10:	ea41 4104 	orr.w	r1, r1, r4, lsl #16
 8005d14:	45f4      	cmp	ip, lr
 8005d16:	f849 1b04 	str.w	r1, [r9], #4
 8005d1a:	ea4f 4214 	mov.w	r2, r4, lsr #16
 8005d1e:	d8e4      	bhi.n	8005cea <__multiply+0xaa>
 8005d20:	9901      	ldr	r1, [sp, #4]
 8005d22:	5072      	str	r2, [r6, r1]
 8005d24:	9a03      	ldr	r2, [sp, #12]
 8005d26:	f8b2 9002 	ldrh.w	r9, [r2, #2]
 8005d2a:	3304      	adds	r3, #4
 8005d2c:	f1b9 0f00 	cmp.w	r9, #0
 8005d30:	d01f      	beq.n	8005d72 <__multiply+0x132>
 8005d32:	6834      	ldr	r4, [r6, #0]
 8005d34:	f105 0114 	add.w	r1, r5, #20
 8005d38:	46b6      	mov	lr, r6
 8005d3a:	f04f 0a00 	mov.w	sl, #0
 8005d3e:	880a      	ldrh	r2, [r1, #0]
 8005d40:	f8be b002 	ldrh.w	fp, [lr, #2]
 8005d44:	fb09 b202 	mla	r2, r9, r2, fp
 8005d48:	4492      	add	sl, r2
 8005d4a:	b2a4      	uxth	r4, r4
 8005d4c:	ea44 440a 	orr.w	r4, r4, sl, lsl #16
 8005d50:	f84e 4b04 	str.w	r4, [lr], #4
 8005d54:	f851 4b04 	ldr.w	r4, [r1], #4
 8005d58:	f8be 2000 	ldrh.w	r2, [lr]
 8005d5c:	0c24      	lsrs	r4, r4, #16
 8005d5e:	fb09 2404 	mla	r4, r9, r4, r2
 8005d62:	eb04 441a 	add.w	r4, r4, sl, lsr #16
 8005d66:	458c      	cmp	ip, r1
 8005d68:	ea4f 4a14 	mov.w	sl, r4, lsr #16
 8005d6c:	d8e7      	bhi.n	8005d3e <__multiply+0xfe>
 8005d6e:	9a01      	ldr	r2, [sp, #4]
 8005d70:	50b4      	str	r4, [r6, r2]
 8005d72:	3604      	adds	r6, #4
 8005d74:	e7a3      	b.n	8005cbe <__multiply+0x7e>
 8005d76:	f858 3d04 	ldr.w	r3, [r8, #-4]!
 8005d7a:	2b00      	cmp	r3, #0
 8005d7c:	d1a5      	bne.n	8005cca <__multiply+0x8a>
 8005d7e:	3f01      	subs	r7, #1
 8005d80:	e7a1      	b.n	8005cc6 <__multiply+0x86>
 8005d82:	bf00      	nop
 8005d84:	0800726f 	.word	0x0800726f
 8005d88:	08007280 	.word	0x08007280

08005d8c <__pow5mult>:
 8005d8c:	e92d 43f8 	stmdb	sp!, {r3, r4, r5, r6, r7, r8, r9, lr}
 8005d90:	4615      	mov	r5, r2
 8005d92:	f012 0203 	ands.w	r2, r2, #3
 8005d96:	4606      	mov	r6, r0
 8005d98:	460f      	mov	r7, r1
 8005d9a:	d007      	beq.n	8005dac <__pow5mult+0x20>
 8005d9c:	4c25      	ldr	r4, [pc, #148]	; (8005e34 <__pow5mult+0xa8>)
 8005d9e:	3a01      	subs	r2, #1
 8005da0:	2300      	movs	r3, #0
 8005da2:	f854 2022 	ldr.w	r2, [r4, r2, lsl #2]
 8005da6:	f7ff fe9b 	bl	8005ae0 <__multadd>
 8005daa:	4607      	mov	r7, r0
 8005dac:	10ad      	asrs	r5, r5, #2
 8005dae:	d03d      	beq.n	8005e2c <__pow5mult+0xa0>
 8005db0:	6a74      	ldr	r4, [r6, #36]	; 0x24
 8005db2:	b97c      	cbnz	r4, 8005dd4 <__pow5mult+0x48>
 8005db4:	2010      	movs	r0, #16
 8005db6:	f7ff fe1b 	bl	80059f0 <malloc>
 8005dba:	4602      	mov	r2, r0
 8005dbc:	6270      	str	r0, [r6, #36]	; 0x24
 8005dbe:	b928      	cbnz	r0, 8005dcc <__pow5mult+0x40>
 8005dc0:	4b1d      	ldr	r3, [pc, #116]	; (8005e38 <__pow5mult+0xac>)
 8005dc2:	481e      	ldr	r0, [pc, #120]	; (8005e3c <__pow5mult+0xb0>)
 8005dc4:	f44f 71d7 	mov.w	r1, #430	; 0x1ae
 8005dc8:	f000 fbcc 	bl	8006564 <__assert_func>
 8005dcc:	e9c0 4401 	strd	r4, r4, [r0, #4]
 8005dd0:	6004      	str	r4, [r0, #0]
 8005dd2:	60c4      	str	r4, [r0, #12]
 8005dd4:	f8d6 8024 	ldr.w	r8, [r6, #36]	; 0x24
 8005dd8:	f8d8 4008 	ldr.w	r4, [r8, #8]
 8005ddc:	b94c      	cbnz	r4, 8005df2 <__pow5mult+0x66>
 8005dde:	f240 2171 	movw	r1, #625	; 0x271
 8005de2:	4630      	mov	r0, r6
 8005de4:	f7ff ff16 	bl	8005c14 <__i2b>
 8005de8:	2300      	movs	r3, #0
 8005dea:	f8c8 0008 	str.w	r0, [r8, #8]
 8005dee:	4604      	mov	r4, r0
 8005df0:	6003      	str	r3, [r0, #0]
 8005df2:	f04f 0900 	mov.w	r9, #0
 8005df6:	07eb      	lsls	r3, r5, #31
 8005df8:	d50a      	bpl.n	8005e10 <__pow5mult+0x84>
 8005dfa:	4639      	mov	r1, r7
 8005dfc:	4622      	mov	r2, r4
 8005dfe:	4630      	mov	r0, r6
 8005e00:	f7ff ff1e 	bl	8005c40 <__multiply>
 8005e04:	4639      	mov	r1, r7
 8005e06:	4680      	mov	r8, r0
 8005e08:	4630      	mov	r0, r6
 8005e0a:	f7ff fe47 	bl	8005a9c <_Bfree>
 8005e0e:	4647      	mov	r7, r8
 8005e10:	106d      	asrs	r5, r5, #1
 8005e12:	d00b      	beq.n	8005e2c <__pow5mult+0xa0>
 8005e14:	6820      	ldr	r0, [r4, #0]
 8005e16:	b938      	cbnz	r0, 8005e28 <__pow5mult+0x9c>
 8005e18:	4622      	mov	r2, r4
 8005e1a:	4621      	mov	r1, r4
 8005e1c:	4630      	mov	r0, r6
 8005e1e:	f7ff ff0f 	bl	8005c40 <__multiply>
 8005e22:	6020      	str	r0, [r4, #0]
 8005e24:	f8c0 9000 	str.w	r9, [r0]
 8005e28:	4604      	mov	r4, r0
 8005e2a:	e7e4      	b.n	8005df6 <__pow5mult+0x6a>
 8005e2c:	4638      	mov	r0, r7
 8005e2e:	e8bd 83f8 	ldmia.w	sp!, {r3, r4, r5, r6, r7, r8, r9, pc}
 8005e32:	bf00      	nop
 8005e34:	080073d0 	.word	0x080073d0
 8005e38:	080071f9 	.word	0x080071f9
 8005e3c:	08007280 	.word	0x08007280

08005e40 <__lshift>:
 8005e40:	e92d 47f0 	stmdb	sp!, {r4, r5, r6, r7, r8, r9, sl, lr}
 8005e44:	460c      	mov	r4, r1
 8005e46:	6849      	ldr	r1, [r1, #4]
 8005e48:	6923      	ldr	r3, [r4, #16]
 8005e4a:	eb03 1862 	add.w	r8, r3, r2, asr #5
 8005e4e:	68a3      	ldr	r3, [r4, #8]
 8005e50:	4607      	mov	r7, r0
 8005e52:	4691      	mov	r9, r2
 8005e54:	ea4f 1a62 	mov.w	sl, r2, asr #5
 8005e58:	f108 0601 	add.w	r6, r8, #1
 8005e5c:	42b3      	cmp	r3, r6
 8005e5e:	db0b      	blt.n	8005e78 <__lshift+0x38>
 8005e60:	4638      	mov	r0, r7
 8005e62:	f7ff fddb 	bl	8005a1c <_Balloc>
 8005e66:	4605      	mov	r5, r0
 8005e68:	b948      	cbnz	r0, 8005e7e <__lshift+0x3e>
 8005e6a:	4602      	mov	r2, r0
 8005e6c:	4b28      	ldr	r3, [pc, #160]	; (8005f10 <__lshift+0xd0>)
 8005e6e:	4829      	ldr	r0, [pc, #164]	; (8005f14 <__lshift+0xd4>)
 8005e70:	f240 11d9 	movw	r1, #473	; 0x1d9
 8005e74:	f000 fb76 	bl	8006564 <__assert_func>
 8005e78:	3101      	adds	r1, #1
 8005e7a:	005b      	lsls	r3, r3, #1
 8005e7c:	e7ee      	b.n	8005e5c <__lshift+0x1c>
 8005e7e:	2300      	movs	r3, #0
 8005e80:	f100 0114 	add.w	r1, r0, #20
 8005e84:	f100 0210 	add.w	r2, r0, #16
 8005e88:	4618      	mov	r0, r3
 8005e8a:	4553      	cmp	r3, sl
 8005e8c:	db33      	blt.n	8005ef6 <__lshift+0xb6>
 8005e8e:	6920      	ldr	r0, [r4, #16]
 8005e90:	ea2a 7aea 	bic.w	sl, sl, sl, asr #31
 8005e94:	f104 0314 	add.w	r3, r4, #20
 8005e98:	f019 091f 	ands.w	r9, r9, #31
 8005e9c:	eb01 018a 	add.w	r1, r1, sl, lsl #2
 8005ea0:	eb03 0c80 	add.w	ip, r3, r0, lsl #2
 8005ea4:	d02b      	beq.n	8005efe <__lshift+0xbe>
 8005ea6:	f1c9 0e20 	rsb	lr, r9, #32
 8005eaa:	468a      	mov	sl, r1
 8005eac:	2200      	movs	r2, #0
 8005eae:	6818      	ldr	r0, [r3, #0]
 8005eb0:	fa00 f009 	lsl.w	r0, r0, r9
 8005eb4:	4302      	orrs	r2, r0
 8005eb6:	f84a 2b04 	str.w	r2, [sl], #4
 8005eba:	f853 2b04 	ldr.w	r2, [r3], #4
 8005ebe:	459c      	cmp	ip, r3
 8005ec0:	fa22 f20e 	lsr.w	r2, r2, lr
 8005ec4:	d8f3      	bhi.n	8005eae <__lshift+0x6e>
 8005ec6:	ebac 0304 	sub.w	r3, ip, r4
 8005eca:	3b15      	subs	r3, #21
 8005ecc:	f023 0303 	bic.w	r3, r3, #3
 8005ed0:	3304      	adds	r3, #4
 8005ed2:	f104 0015 	add.w	r0, r4, #21
 8005ed6:	4584      	cmp	ip, r0
 8005ed8:	bf38      	it	cc
 8005eda:	2304      	movcc	r3, #4
 8005edc:	50ca      	str	r2, [r1, r3]
 8005ede:	b10a      	cbz	r2, 8005ee4 <__lshift+0xa4>
 8005ee0:	f108 0602 	add.w	r6, r8, #2
 8005ee4:	3e01      	subs	r6, #1
 8005ee6:	4638      	mov	r0, r7
 8005ee8:	612e      	str	r6, [r5, #16]
 8005eea:	4621      	mov	r1, r4
 8005eec:	f7ff fdd6 	bl	8005a9c <_Bfree>
 8005ef0:	4628      	mov	r0, r5
 8005ef2:	e8bd 87f0 	ldmia.w	sp!, {r4, r5, r6, r7, r8, r9, sl, pc}
 8005ef6:	f842 0f04 	str.w	r0, [r2, #4]!
 8005efa:	3301      	adds	r3, #1
 8005efc:	e7c5      	b.n	8005e8a <__lshift+0x4a>
 8005efe:	3904      	subs	r1, #4
 8005f00:	f853 2b04 	ldr.w	r2, [r3], #4
 8005f04:	f841 2f04 	str.w	r2, [r1, #4]!
 8005f08:	459c      	cmp	ip, r3
 8005f0a:	d8f9      	bhi.n	8005f00 <__lshift+0xc0>
 8005f0c:	e7ea      	b.n	8005ee4 <__lshift+0xa4>
 8005f0e:	bf00      	nop
 8005f10:	0800726f 	.word	0x0800726f
 8005f14:	08007280 	.word	0x08007280

08005f18 <__mcmp>:
 8005f18:	b530      	push	{r4, r5, lr}
 8005f1a:	6902      	ldr	r2, [r0, #16]
 8005f1c:	690c      	ldr	r4, [r1, #16]
 8005f1e:	1b12      	subs	r2, r2, r4
 8005f20:	d10e      	bne.n	8005f40 <__mcmp+0x28>
 8005f22:	f100 0314 	add.w	r3, r0, #20
 8005f26:	3114      	adds	r1, #20
 8005f28:	eb03 0084 	add.w	r0, r3, r4, lsl #2
 8005f2c:	eb01 0184 	add.w	r1, r1, r4, lsl #2
 8005f30:	f850 5d04 	ldr.w	r5, [r0, #-4]!
 8005f34:	f851 4d04 	ldr.w	r4, [r1, #-4]!
 8005f38:	42a5      	cmp	r5, r4
 8005f3a:	d003      	beq.n	8005f44 <__mcmp+0x2c>
 8005f3c:	d305      	bcc.n	8005f4a <__mcmp+0x32>
 8005f3e:	2201      	movs	r2, #1
 8005f40:	4610      	mov	r0, r2
 8005f42:	bd30      	pop	{r4, r5, pc}
 8005f44:	4283      	cmp	r3, r0
 8005f46:	d3f3      	bcc.n	8005f30 <__mcmp+0x18>
 8005f48:	e7fa      	b.n	8005f40 <__mcmp+0x28>
 8005f4a:	f04f 32ff 	mov.w	r2, #4294967295	; 0xffffffff
 8005f4e:	e7f7      	b.n	8005f40 <__mcmp+0x28>

08005f50 <__mdiff>:
 8005f50:	e92d 4ff8 	stmdb	sp!, {r3, r4, r5, r6, r7, r8, r9, sl, fp, lr}
 8005f54:	460c      	mov	r4, r1
 8005f56:	4606      	mov	r6, r0
 8005f58:	4611      	mov	r1, r2
 8005f5a:	4620      	mov	r0, r4
 8005f5c:	4617      	mov	r7, r2
 8005f5e:	f7ff ffdb 	bl	8005f18 <__mcmp>
 8005f62:	1e05      	subs	r5, r0, #0
 8005f64:	d110      	bne.n	8005f88 <__mdiff+0x38>
 8005f66:	4629      	mov	r1, r5
 8005f68:	4630      	mov	r0, r6
 8005f6a:	f7ff fd57 	bl	8005a1c <_Balloc>
 8005f6e:	b930      	cbnz	r0, 8005f7e <__mdiff+0x2e>
 8005f70:	4b39      	ldr	r3, [pc, #228]	; (8006058 <__mdiff+0x108>)
 8005f72:	4602      	mov	r2, r0
 8005f74:	f240 2132 	movw	r1, #562	; 0x232
 8005f78:	4838      	ldr	r0, [pc, #224]	; (800605c <__mdiff+0x10c>)
 8005f7a:	f000 faf3 	bl	8006564 <__assert_func>
 8005f7e:	2301      	movs	r3, #1
 8005f80:	e9c0 3504 	strd	r3, r5, [r0, #16]
 8005f84:	e8bd 8ff8 	ldmia.w	sp!, {r3, r4, r5, r6, r7, r8, r9, sl, fp, pc}
 8005f88:	bfa4      	itt	ge
 8005f8a:	463b      	movge	r3, r7
 8005f8c:	4627      	movge	r7, r4
 8005f8e:	4630      	mov	r0, r6
 8005f90:	6879      	ldr	r1, [r7, #4]
 8005f92:	bfa6      	itte	ge
 8005f94:	461c      	movge	r4, r3
 8005f96:	2500      	movge	r5, #0
 8005f98:	2501      	movlt	r5, #1
 8005f9a:	f7ff fd3f 	bl	8005a1c <_Balloc>
 8005f9e:	b920      	cbnz	r0, 8005faa <__mdiff+0x5a>
 8005fa0:	4b2d      	ldr	r3, [pc, #180]	; (8006058 <__mdiff+0x108>)
 8005fa2:	4602      	mov	r2, r0
 8005fa4:	f44f 7110 	mov.w	r1, #576	; 0x240
 8005fa8:	e7e6      	b.n	8005f78 <__mdiff+0x28>
 8005faa:	693e      	ldr	r6, [r7, #16]
 8005fac:	60c5      	str	r5, [r0, #12]
 8005fae:	6925      	ldr	r5, [r4, #16]
 8005fb0:	f107 0114 	add.w	r1, r7, #20
 8005fb4:	f104 0914 	add.w	r9, r4, #20
 8005fb8:	f100 0e14 	add.w	lr, r0, #20
 8005fbc:	f107 0210 	add.w	r2, r7, #16
 8005fc0:	eb01 0c86 	add.w	ip, r1, r6, lsl #2
 8005fc4:	eb09 0585 	add.w	r5, r9, r5, lsl #2
 8005fc8:	46f2      	mov	sl, lr
 8005fca:	2700      	movs	r7, #0
 8005fcc:	f859 3b04 	ldr.w	r3, [r9], #4
 8005fd0:	f852 bf04 	ldr.w	fp, [r2, #4]!
 8005fd4:	fa1f f883 	uxth.w	r8, r3
 8005fd8:	fa17 f78b 	uxtah	r7, r7, fp
 8005fdc:	0c1b      	lsrs	r3, r3, #16
 8005fde:	eba7 0808 	sub.w	r8, r7, r8
 8005fe2:	ebc3 431b 	rsb	r3, r3, fp, lsr #16
 8005fe6:	eb03 4328 	add.w	r3, r3, r8, asr #16
 8005fea:	fa1f f888 	uxth.w	r8, r8
 8005fee:	141f      	asrs	r7, r3, #16
 8005ff0:	454d      	cmp	r5, r9
 8005ff2:	ea48 4303 	orr.w	r3, r8, r3, lsl #16
 8005ff6:	f84a 3b04 	str.w	r3, [sl], #4
 8005ffa:	d8e7      	bhi.n	8005fcc <__mdiff+0x7c>
 8005ffc:	1b2b      	subs	r3, r5, r4
 8005ffe:	3b15      	subs	r3, #21
 8006000:	f023 0303 	bic.w	r3, r3, #3
 8006004:	3304      	adds	r3, #4
 8006006:	3415      	adds	r4, #21
 8006008:	42a5      	cmp	r5, r4
 800600a:	bf38      	it	cc
 800600c:	2304      	movcc	r3, #4
 800600e:	4419      	add	r1, r3
 8006010:	4473      	add	r3, lr
 8006012:	469e      	mov	lr, r3
 8006014:	460d      	mov	r5, r1
 8006016:	4565      	cmp	r5, ip
 8006018:	d30e      	bcc.n	8006038 <__mdiff+0xe8>
 800601a:	f10c 0203 	add.w	r2, ip, #3
 800601e:	1a52      	subs	r2, r2, r1
 8006020:	f022 0203 	bic.w	r2, r2, #3
 8006024:	3903      	subs	r1, #3
 8006026:	458c      	cmp	ip, r1
 8006028:	bf38      	it	cc
 800602a:	2200      	movcc	r2, #0
 800602c:	441a      	add	r2, r3
 800602e:	f852 3d04 	ldr.w	r3, [r2, #-4]!
 8006032:	b17b      	cbz	r3, 8006054 <__mdiff+0x104>
 8006034:	6106      	str	r6, [r0, #16]
 8006036:	e7a5      	b.n	8005f84 <__mdiff+0x34>
 8006038:	f855 8b04 	ldr.w	r8, [r5], #4
 800603c:	fa17 f488 	uxtah	r4, r7, r8
 8006040:	1422      	asrs	r2, r4, #16
 8006042:	eb02 4218 	add.w	r2, r2, r8, lsr #16
 8006046:	b2a4      	uxth	r4, r4
 8006048:	ea44 4402 	orr.w	r4, r4, r2, lsl #16
 800604c:	f84e 4b04 	str.w	r4, [lr], #4
 8006050:	1417      	asrs	r7, r2, #16
 8006052:	e7e0      	b.n	8006016 <__mdiff+0xc6>
 8006054:	3e01      	subs	r6, #1
 8006056:	e7ea      	b.n	800602e <__mdiff+0xde>
 8006058:	0800726f 	.word	0x0800726f
 800605c:	08007280 	.word	0x08007280

08006060 <__d2b>:
 8006060:	e92d 43f7 	stmdb	sp!, {r0, r1, r2, r4, r5, r6, r7, r8, r9, lr}
 8006064:	4689      	mov	r9, r1
 8006066:	2101      	movs	r1, #1
 8006068:	ec57 6b10 	vmov	r6, r7, d0
 800606c:	4690      	mov	r8, r2
 800606e:	f7ff fcd5 	bl	8005a1c <_Balloc>
 8006072:	4604      	mov	r4, r0
 8006074:	b930      	cbnz	r0, 8006084 <__d2b+0x24>
 8006076:	4602      	mov	r2, r0
 8006078:	4b25      	ldr	r3, [pc, #148]	; (8006110 <__d2b+0xb0>)
 800607a:	4826      	ldr	r0, [pc, #152]	; (8006114 <__d2b+0xb4>)
 800607c:	f240 310a 	movw	r1, #778	; 0x30a
 8006080:	f000 fa70 	bl	8006564 <__assert_func>
 8006084:	f3c7 550a 	ubfx	r5, r7, #20, #11
 8006088:	f3c7 0313 	ubfx	r3, r7, #0, #20
 800608c:	bb35      	cbnz	r5, 80060dc <__d2b+0x7c>
 800608e:	2e00      	cmp	r6, #0
 8006090:	9301      	str	r3, [sp, #4]
 8006092:	d028      	beq.n	80060e6 <__d2b+0x86>
 8006094:	4668      	mov	r0, sp
 8006096:	9600      	str	r6, [sp, #0]
 8006098:	f7ff fd8c 	bl	8005bb4 <__lo0bits>
 800609c:	9900      	ldr	r1, [sp, #0]
 800609e:	b300      	cbz	r0, 80060e2 <__d2b+0x82>
 80060a0:	9a01      	ldr	r2, [sp, #4]
 80060a2:	f1c0 0320 	rsb	r3, r0, #32
 80060a6:	fa02 f303 	lsl.w	r3, r2, r3
 80060aa:	430b      	orrs	r3, r1
 80060ac:	40c2      	lsrs	r2, r0
 80060ae:	6163      	str	r3, [r4, #20]
 80060b0:	9201      	str	r2, [sp, #4]
 80060b2:	9b01      	ldr	r3, [sp, #4]
 80060b4:	61a3      	str	r3, [r4, #24]
 80060b6:	2b00      	cmp	r3, #0
 80060b8:	bf14      	ite	ne
 80060ba:	2202      	movne	r2, #2
 80060bc:	2201      	moveq	r2, #1
 80060be:	6122      	str	r2, [r4, #16]
 80060c0:	b1d5      	cbz	r5, 80060f8 <__d2b+0x98>
 80060c2:	f2a5 4533 	subw	r5, r5, #1075	; 0x433
 80060c6:	4405      	add	r5, r0
 80060c8:	f8c9 5000 	str.w	r5, [r9]
 80060cc:	f1c0 0035 	rsb	r0, r0, #53	; 0x35
 80060d0:	f8c8 0000 	str.w	r0, [r8]
 80060d4:	4620      	mov	r0, r4
 80060d6:	b003      	add	sp, #12
 80060d8:	e8bd 83f0 	ldmia.w	sp!, {r4, r5, r6, r7, r8, r9, pc}
 80060dc:	f443 1380 	orr.w	r3, r3, #1048576	; 0x100000
 80060e0:	e7d5      	b.n	800608e <__d2b+0x2e>
 80060e2:	6161      	str	r1, [r4, #20]
 80060e4:	e7e5      	b.n	80060b2 <__d2b+0x52>
 80060e6:	a801      	add	r0, sp, #4
 80060e8:	f7ff fd64 	bl	8005bb4 <__lo0bits>
 80060ec:	9b01      	ldr	r3, [sp, #4]
 80060ee:	6163      	str	r3, [r4, #20]
 80060f0:	2201      	movs	r2, #1
 80060f2:	6122      	str	r2, [r4, #16]
 80060f4:	3020      	adds	r0, #32
 80060f6:	e7e3      	b.n	80060c0 <__d2b+0x60>
 80060f8:	eb04 0382 	add.w	r3, r4, r2, lsl #2
 80060fc:	f2a0 4032 	subw	r0, r0, #1074	; 0x432
 8006100:	f8c9 0000 	str.w	r0, [r9]
 8006104:	6918      	ldr	r0, [r3, #16]
 8006106:	f7ff fd35 	bl	8005b74 <__hi0bits>
 800610a:	ebc0 1042 	rsb	r0, r0, r2, lsl #5
 800610e:	e7df      	b.n	80060d0 <__d2b+0x70>
 8006110:	0800726f 	.word	0x0800726f
 8006114:	08007280 	.word	0x08007280

08006118 <_calloc_r>:
 8006118:	b513      	push	{r0, r1, r4, lr}
 800611a:	434a      	muls	r2, r1
 800611c:	4611      	mov	r1, r2
 800611e:	9201      	str	r2, [sp, #4]
 8006120:	f000 f85a 	bl	80061d8 <_malloc_r>
 8006124:	4604      	mov	r4, r0
 8006126:	b118      	cbz	r0, 8006130 <_calloc_r+0x18>
 8006128:	9a01      	ldr	r2, [sp, #4]
 800612a:	2100      	movs	r1, #0
 800612c:	f7fe f952 	bl	80043d4 <memset>
 8006130:	4620      	mov	r0, r4
 8006132:	b002      	add	sp, #8
 8006134:	bd10      	pop	{r4, pc}
	...

08006138 <_free_r>:
 8006138:	b537      	push	{r0, r1, r2, r4, r5, lr}
 800613a:	2900      	cmp	r1, #0
 800613c:	d048      	beq.n	80061d0 <_free_r+0x98>
 800613e:	f851 3c04 	ldr.w	r3, [r1, #-4]
 8006142:	9001      	str	r0, [sp, #4]
 8006144:	2b00      	cmp	r3, #0
 8006146:	f1a1 0404 	sub.w	r4, r1, #4
 800614a:	bfb8      	it	lt
 800614c:	18e4      	addlt	r4, r4, r3
 800614e:	f000 fa65 	bl	800661c <__malloc_lock>
 8006152:	4a20      	ldr	r2, [pc, #128]	; (80061d4 <_free_r+0x9c>)
 8006154:	9801      	ldr	r0, [sp, #4]
 8006156:	6813      	ldr	r3, [r2, #0]
 8006158:	4615      	mov	r5, r2
 800615a:	b933      	cbnz	r3, 800616a <_free_r+0x32>
 800615c:	6063      	str	r3, [r4, #4]
 800615e:	6014      	str	r4, [r2, #0]
 8006160:	b003      	add	sp, #12
 8006162:	e8bd 4030 	ldmia.w	sp!, {r4, r5, lr}
 8006166:	f000 ba5f 	b.w	8006628 <__malloc_unlock>
 800616a:	42a3      	cmp	r3, r4
 800616c:	d90b      	bls.n	8006186 <_free_r+0x4e>
 800616e:	6821      	ldr	r1, [r4, #0]
 8006170:	1862      	adds	r2, r4, r1
 8006172:	4293      	cmp	r3, r2
 8006174:	bf04      	itt	eq
 8006176:	681a      	ldreq	r2, [r3, #0]
 8006178:	685b      	ldreq	r3, [r3, #4]
 800617a:	6063      	str	r3, [r4, #4]
 800617c:	bf04      	itt	eq
 800617e:	1852      	addeq	r2, r2, r1
 8006180:	6022      	streq	r2, [r4, #0]
 8006182:	602c      	str	r4, [r5, #0]
 8006184:	e7ec      	b.n	8006160 <_free_r+0x28>
 8006186:	461a      	mov	r2, r3
 8006188:	685b      	ldr	r3, [r3, #4]
 800618a:	b10b      	cbz	r3, 8006190 <_free_r+0x58>
 800618c:	42a3      	cmp	r3, r4
 800618e:	d9fa      	bls.n	8006186 <_free_r+0x4e>
 8006190:	6811      	ldr	r1, [r2, #0]
 8006192:	1855      	adds	r5, r2, r1
 8006194:	42a5      	cmp	r5, r4
 8006196:	d10b      	bne.n	80061b0 <_free_r+0x78>
 8006198:	6824      	ldr	r4, [r4, #0]
 800619a:	4421      	add	r1, r4
 800619c:	1854      	adds	r4, r2, r1
 800619e:	42a3      	cmp	r3, r4
 80061a0:	6011      	str	r1, [r2, #0]
 80061a2:	d1dd      	bne.n	8006160 <_free_r+0x28>
 80061a4:	681c      	ldr	r4, [r3, #0]
 80061a6:	685b      	ldr	r3, [r3, #4]
 80061a8:	6053      	str	r3, [r2, #4]
 80061aa:	4421      	add	r1, r4
 80061ac:	6011      	str	r1, [r2, #0]
 80061ae:	e7d7      	b.n	8006160 <_free_r+0x28>
 80061b0:	d902      	bls.n	80061b8 <_free_r+0x80>
 80061b2:	230c      	movs	r3, #12
 80061b4:	6003      	str	r3, [r0, #0]
 80061b6:	e7d3      	b.n	8006160 <_free_r+0x28>
 80061b8:	6825      	ldr	r5, [r4, #0]
 80061ba:	1961      	adds	r1, r4, r5
 80061bc:	428b      	cmp	r3, r1
 80061be:	bf04      	itt	eq
 80061c0:	6819      	ldreq	r1, [r3, #0]
 80061c2:	685b      	ldreq	r3, [r3, #4]
 80061c4:	6063      	str	r3, [r4, #4]
 80061c6:	bf04      	itt	eq
 80061c8:	1949      	addeq	r1, r1, r5
 80061ca:	6021      	streq	r1, [r4, #0]
 80061cc:	6054      	str	r4, [r2, #4]
 80061ce:	e7c7      	b.n	8006160 <_free_r+0x28>
 80061d0:	b003      	add	sp, #12
 80061d2:	bd30      	pop	{r4, r5, pc}
 80061d4:	2000029c 	.word	0x2000029c

080061d8 <_malloc_r>:
 80061d8:	b5f8      	push	{r3, r4, r5, r6, r7, lr}
 80061da:	1ccd      	adds	r5, r1, #3
 80061dc:	f025 0503 	bic.w	r5, r5, #3
 80061e0:	3508      	adds	r5, #8
 80061e2:	2d0c      	cmp	r5, #12
 80061e4:	bf38      	it	cc
 80061e6:	250c      	movcc	r5, #12
 80061e8:	2d00      	cmp	r5, #0
 80061ea:	4606      	mov	r6, r0
 80061ec:	db01      	blt.n	80061f2 <_malloc_r+0x1a>
 80061ee:	42a9      	cmp	r1, r5
 80061f0:	d903      	bls.n	80061fa <_malloc_r+0x22>
 80061f2:	230c      	movs	r3, #12
 80061f4:	6033      	str	r3, [r6, #0]
 80061f6:	2000      	movs	r0, #0
 80061f8:	bdf8      	pop	{r3, r4, r5, r6, r7, pc}
 80061fa:	f000 fa0f 	bl	800661c <__malloc_lock>
 80061fe:	4921      	ldr	r1, [pc, #132]	; (8006284 <_malloc_r+0xac>)
 8006200:	680a      	ldr	r2, [r1, #0]
 8006202:	4614      	mov	r4, r2
 8006204:	b99c      	cbnz	r4, 800622e <_malloc_r+0x56>
 8006206:	4f20      	ldr	r7, [pc, #128]	; (8006288 <_malloc_r+0xb0>)
 8006208:	683b      	ldr	r3, [r7, #0]
 800620a:	b923      	cbnz	r3, 8006216 <_malloc_r+0x3e>
 800620c:	4621      	mov	r1, r4
 800620e:	4630      	mov	r0, r6
 8006210:	f000 f998 	bl	8006544 <_sbrk_r>
 8006214:	6038      	str	r0, [r7, #0]
 8006216:	4629      	mov	r1, r5
 8006218:	4630      	mov	r0, r6
 800621a:	f000 f993 	bl	8006544 <_sbrk_r>
 800621e:	1c43      	adds	r3, r0, #1
 8006220:	d123      	bne.n	800626a <_malloc_r+0x92>
 8006222:	230c      	movs	r3, #12
 8006224:	6033      	str	r3, [r6, #0]
 8006226:	4630      	mov	r0, r6
 8006228:	f000 f9fe 	bl	8006628 <__malloc_unlock>
 800622c:	e7e3      	b.n	80061f6 <_malloc_r+0x1e>
 800622e:	6823      	ldr	r3, [r4, #0]
 8006230:	1b5b      	subs	r3, r3, r5
 8006232:	d417      	bmi.n	8006264 <_malloc_r+0x8c>
 8006234:	2b0b      	cmp	r3, #11
 8006236:	d903      	bls.n	8006240 <_malloc_r+0x68>
 8006238:	6023      	str	r3, [r4, #0]
 800623a:	441c      	add	r4, r3
 800623c:	6025      	str	r5, [r4, #0]
 800623e:	e004      	b.n	800624a <_malloc_r+0x72>
 8006240:	6863      	ldr	r3, [r4, #4]
 8006242:	42a2      	cmp	r2, r4
 8006244:	bf0c      	ite	eq
 8006246:	600b      	streq	r3, [r1, #0]
 8006248:	6053      	strne	r3, [r2, #4]
 800624a:	4630      	mov	r0, r6
 800624c:	f000 f9ec 	bl	8006628 <__malloc_unlock>
 8006250:	f104 000b 	add.w	r0, r4, #11
 8006254:	1d23      	adds	r3, r4, #4
 8006256:	f020 0007 	bic.w	r0, r0, #7
 800625a:	1ac2      	subs	r2, r0, r3
 800625c:	d0cc      	beq.n	80061f8 <_malloc_r+0x20>
 800625e:	1a1b      	subs	r3, r3, r0
 8006260:	50a3      	str	r3, [r4, r2]
 8006262:	e7c9      	b.n	80061f8 <_malloc_r+0x20>
 8006264:	4622      	mov	r2, r4
 8006266:	6864      	ldr	r4, [r4, #4]
 8006268:	e7cc      	b.n	8006204 <_malloc_r+0x2c>
 800626a:	1cc4      	adds	r4, r0, #3
 800626c:	f024 0403 	bic.w	r4, r4, #3
 8006270:	42a0      	cmp	r0, r4
 8006272:	d0e3      	beq.n	800623c <_malloc_r+0x64>
 8006274:	1a21      	subs	r1, r4, r0
 8006276:	4630      	mov	r0, r6
 8006278:	f000 f964 	bl	8006544 <_sbrk_r>
 800627c:	3001      	adds	r0, #1
 800627e:	d1dd      	bne.n	800623c <_malloc_r+0x64>
 8006280:	e7cf      	b.n	8006222 <_malloc_r+0x4a>
 8006282:	bf00      	nop
 8006284:	2000029c 	.word	0x2000029c
 8006288:	200002a0 	.word	0x200002a0

0800628c <__ssputs_r>:
 800628c:	e92d 47f0 	stmdb	sp!, {r4, r5, r6, r7, r8, r9, sl, lr}
 8006290:	688e      	ldr	r6, [r1, #8]
 8006292:	429e      	cmp	r6, r3
 8006294:	4682      	mov	sl, r0
 8006296:	460c      	mov	r4, r1
 8006298:	4690      	mov	r8, r2
 800629a:	461f      	mov	r7, r3
 800629c:	d838      	bhi.n	8006310 <__ssputs_r+0x84>
 800629e:	898a      	ldrh	r2, [r1, #12]
 80062a0:	f412 6f90 	tst.w	r2, #1152	; 0x480
 80062a4:	d032      	beq.n	800630c <__ssputs_r+0x80>
 80062a6:	6825      	ldr	r5, [r4, #0]
 80062a8:	6909      	ldr	r1, [r1, #16]
 80062aa:	eba5 0901 	sub.w	r9, r5, r1
 80062ae:	6965      	ldr	r5, [r4, #20]
 80062b0:	eb05 0545 	add.w	r5, r5, r5, lsl #1
 80062b4:	eb05 75d5 	add.w	r5, r5, r5, lsr #31
 80062b8:	3301      	adds	r3, #1
 80062ba:	444b      	add	r3, r9
 80062bc:	106d      	asrs	r5, r5, #1
 80062be:	429d      	cmp	r5, r3
 80062c0:	bf38      	it	cc
 80062c2:	461d      	movcc	r5, r3
 80062c4:	0553      	lsls	r3, r2, #21
 80062c6:	d531      	bpl.n	800632c <__ssputs_r+0xa0>
 80062c8:	4629      	mov	r1, r5
 80062ca:	f7ff ff85 	bl	80061d8 <_malloc_r>
 80062ce:	4606      	mov	r6, r0
 80062d0:	b950      	cbnz	r0, 80062e8 <__ssputs_r+0x5c>
 80062d2:	230c      	movs	r3, #12
 80062d4:	f8ca 3000 	str.w	r3, [sl]
 80062d8:	89a3      	ldrh	r3, [r4, #12]
 80062da:	f043 0340 	orr.w	r3, r3, #64	; 0x40
 80062de:	81a3      	strh	r3, [r4, #12]
 80062e0:	f04f 30ff 	mov.w	r0, #4294967295	; 0xffffffff
 80062e4:	e8bd 87f0 	ldmia.w	sp!, {r4, r5, r6, r7, r8, r9, sl, pc}
 80062e8:	6921      	ldr	r1, [r4, #16]
 80062ea:	464a      	mov	r2, r9
 80062ec:	f7ff fb88 	bl	8005a00 <memcpy>
 80062f0:	89a3      	ldrh	r3, [r4, #12]
 80062f2:	f423 6390 	bic.w	r3, r3, #1152	; 0x480
 80062f6:	f043 0380 	orr.w	r3, r3, #128	; 0x80
 80062fa:	81a3      	strh	r3, [r4, #12]
 80062fc:	6126      	str	r6, [r4, #16]
 80062fe:	6165      	str	r5, [r4, #20]
 8006300:	444e      	add	r6, r9
 8006302:	eba5 0509 	sub.w	r5, r5, r9
 8006306:	6026      	str	r6, [r4, #0]
 8006308:	60a5      	str	r5, [r4, #8]
 800630a:	463e      	mov	r6, r7
 800630c:	42be      	cmp	r6, r7
 800630e:	d900      	bls.n	8006312 <__ssputs_r+0x86>
 8006310:	463e      	mov	r6, r7
 8006312:	4632      	mov	r2, r6
 8006314:	6820      	ldr	r0, [r4, #0]
 8006316:	4641      	mov	r1, r8
 8006318:	f000 f966 	bl	80065e8 <memmove>
 800631c:	68a3      	ldr	r3, [r4, #8]
 800631e:	6822      	ldr	r2, [r4, #0]
 8006320:	1b9b      	subs	r3, r3, r6
 8006322:	4432      	add	r2, r6
 8006324:	60a3      	str	r3, [r4, #8]
 8006326:	6022      	str	r2, [r4, #0]
 8006328:	2000      	movs	r0, #0
 800632a:	e7db      	b.n	80062e4 <__ssputs_r+0x58>
 800632c:	462a      	mov	r2, r5
 800632e:	f000 f981 	bl	8006634 <_realloc_r>
 8006332:	4606      	mov	r6, r0
 8006334:	2800      	cmp	r0, #0
 8006336:	d1e1      	bne.n	80062fc <__ssputs_r+0x70>
 8006338:	6921      	ldr	r1, [r4, #16]
 800633a:	4650      	mov	r0, sl
 800633c:	f7ff fefc 	bl	8006138 <_free_r>
 8006340:	e7c7      	b.n	80062d2 <__ssputs_r+0x46>
	...

08006344 <_svfiprintf_r>:
 8006344:	e92d 4ff0 	stmdb	sp!, {r4, r5, r6, r7, r8, r9, sl, fp, lr}
 8006348:	4698      	mov	r8, r3
 800634a:	898b      	ldrh	r3, [r1, #12]
 800634c:	061b      	lsls	r3, r3, #24
 800634e:	b09d      	sub	sp, #116	; 0x74
 8006350:	4607      	mov	r7, r0
 8006352:	460d      	mov	r5, r1
 8006354:	4614      	mov	r4, r2
 8006356:	d50e      	bpl.n	8006376 <_svfiprintf_r+0x32>
 8006358:	690b      	ldr	r3, [r1, #16]
 800635a:	b963      	cbnz	r3, 8006376 <_svfiprintf_r+0x32>
 800635c:	2140      	movs	r1, #64	; 0x40
 800635e:	f7ff ff3b 	bl	80061d8 <_malloc_r>
 8006362:	6028      	str	r0, [r5, #0]
 8006364:	6128      	str	r0, [r5, #16]
 8006366:	b920      	cbnz	r0, 8006372 <_svfiprintf_r+0x2e>
 8006368:	230c      	movs	r3, #12
 800636a:	603b      	str	r3, [r7, #0]
 800636c:	f04f 30ff 	mov.w	r0, #4294967295	; 0xffffffff
 8006370:	e0d1      	b.n	8006516 <_svfiprintf_r+0x1d2>
 8006372:	2340      	movs	r3, #64	; 0x40
 8006374:	616b      	str	r3, [r5, #20]
 8006376:	2300      	movs	r3, #0
 8006378:	9309      	str	r3, [sp, #36]	; 0x24
 800637a:	2320      	movs	r3, #32
 800637c:	f88d 3029 	strb.w	r3, [sp, #41]	; 0x29
 8006380:	f8cd 800c 	str.w	r8, [sp, #12]
 8006384:	2330      	movs	r3, #48	; 0x30
 8006386:	f8df 81a8 	ldr.w	r8, [pc, #424]	; 8006530 <_svfiprintf_r+0x1ec>
 800638a:	f88d 302a 	strb.w	r3, [sp, #42]	; 0x2a
 800638e:	f04f 0901 	mov.w	r9, #1
 8006392:	4623      	mov	r3, r4
 8006394:	469a      	mov	sl, r3
 8006396:	f813 2b01 	ldrb.w	r2, [r3], #1
 800639a:	b10a      	cbz	r2, 80063a0 <_svfiprintf_r+0x5c>
 800639c:	2a25      	cmp	r2, #37	; 0x25
 800639e:	d1f9      	bne.n	8006394 <_svfiprintf_r+0x50>
 80063a0:	ebba 0b04 	subs.w	fp, sl, r4
 80063a4:	d00b      	beq.n	80063be <_svfiprintf_r+0x7a>
 80063a6:	465b      	mov	r3, fp
 80063a8:	4622      	mov	r2, r4
 80063aa:	4629      	mov	r1, r5
 80063ac:	4638      	mov	r0, r7
 80063ae:	f7ff ff6d 	bl	800628c <__ssputs_r>
 80063b2:	3001      	adds	r0, #1
 80063b4:	f000 80aa 	beq.w	800650c <_svfiprintf_r+0x1c8>
 80063b8:	9a09      	ldr	r2, [sp, #36]	; 0x24
 80063ba:	445a      	add	r2, fp
 80063bc:	9209      	str	r2, [sp, #36]	; 0x24
 80063be:	f89a 3000 	ldrb.w	r3, [sl]
 80063c2:	2b00      	cmp	r3, #0
 80063c4:	f000 80a2 	beq.w	800650c <_svfiprintf_r+0x1c8>
 80063c8:	2300      	movs	r3, #0
 80063ca:	f04f 32ff 	mov.w	r2, #4294967295	; 0xffffffff
 80063ce:	e9cd 2305 	strd	r2, r3, [sp, #20]
 80063d2:	f10a 0a01 	add.w	sl, sl, #1
 80063d6:	9304      	str	r3, [sp, #16]
 80063d8:	9307      	str	r3, [sp, #28]
 80063da:	f88d 3053 	strb.w	r3, [sp, #83]	; 0x53
 80063de:	931a      	str	r3, [sp, #104]	; 0x68
 80063e0:	4654      	mov	r4, sl
 80063e2:	2205      	movs	r2, #5
 80063e4:	f814 1b01 	ldrb.w	r1, [r4], #1
 80063e8:	4851      	ldr	r0, [pc, #324]	; (8006530 <_svfiprintf_r+0x1ec>)
 80063ea:	f7f9 ff19 	bl	8000220 <memchr>
 80063ee:	9a04      	ldr	r2, [sp, #16]
 80063f0:	b9d8      	cbnz	r0, 800642a <_svfiprintf_r+0xe6>
 80063f2:	06d0      	lsls	r0, r2, #27
 80063f4:	bf44      	itt	mi
 80063f6:	2320      	movmi	r3, #32
 80063f8:	f88d 3053 	strbmi.w	r3, [sp, #83]	; 0x53
 80063fc:	0711      	lsls	r1, r2, #28
 80063fe:	bf44      	itt	mi
 8006400:	232b      	movmi	r3, #43	; 0x2b
 8006402:	f88d 3053 	strbmi.w	r3, [sp, #83]	; 0x53
 8006406:	f89a 3000 	ldrb.w	r3, [sl]
 800640a:	2b2a      	cmp	r3, #42	; 0x2a
 800640c:	d015      	beq.n	800643a <_svfiprintf_r+0xf6>
 800640e:	9a07      	ldr	r2, [sp, #28]
 8006410:	4654      	mov	r4, sl
 8006412:	2000      	movs	r0, #0
 8006414:	f04f 0c0a 	mov.w	ip, #10
 8006418:	4621      	mov	r1, r4
 800641a:	f811 3b01 	ldrb.w	r3, [r1], #1
 800641e:	3b30      	subs	r3, #48	; 0x30
 8006420:	2b09      	cmp	r3, #9
 8006422:	d94e      	bls.n	80064c2 <_svfiprintf_r+0x17e>
 8006424:	b1b0      	cbz	r0, 8006454 <_svfiprintf_r+0x110>
 8006426:	9207      	str	r2, [sp, #28]
 8006428:	e014      	b.n	8006454 <_svfiprintf_r+0x110>
 800642a:	eba0 0308 	sub.w	r3, r0, r8
 800642e:	fa09 f303 	lsl.w	r3, r9, r3
 8006432:	4313      	orrs	r3, r2
 8006434:	9304      	str	r3, [sp, #16]
 8006436:	46a2      	mov	sl, r4
 8006438:	e7d2      	b.n	80063e0 <_svfiprintf_r+0x9c>
 800643a:	9b03      	ldr	r3, [sp, #12]
 800643c:	1d19      	adds	r1, r3, #4
 800643e:	681b      	ldr	r3, [r3, #0]
 8006440:	9103      	str	r1, [sp, #12]
 8006442:	2b00      	cmp	r3, #0
 8006444:	bfbb      	ittet	lt
 8006446:	425b      	neglt	r3, r3
 8006448:	f042 0202 	orrlt.w	r2, r2, #2
 800644c:	9307      	strge	r3, [sp, #28]
 800644e:	9307      	strlt	r3, [sp, #28]
 8006450:	bfb8      	it	lt
 8006452:	9204      	strlt	r2, [sp, #16]
 8006454:	7823      	ldrb	r3, [r4, #0]
 8006456:	2b2e      	cmp	r3, #46	; 0x2e
 8006458:	d10c      	bne.n	8006474 <_svfiprintf_r+0x130>
 800645a:	7863      	ldrb	r3, [r4, #1]
 800645c:	2b2a      	cmp	r3, #42	; 0x2a
 800645e:	d135      	bne.n	80064cc <_svfiprintf_r+0x188>
 8006460:	9b03      	ldr	r3, [sp, #12]
 8006462:	1d1a      	adds	r2, r3, #4
 8006464:	681b      	ldr	r3, [r3, #0]
 8006466:	9203      	str	r2, [sp, #12]
 8006468:	2b00      	cmp	r3, #0
 800646a:	bfb8      	it	lt
 800646c:	f04f 33ff 	movlt.w	r3, #4294967295	; 0xffffffff
 8006470:	3402      	adds	r4, #2
 8006472:	9305      	str	r3, [sp, #20]
 8006474:	f8df a0c8 	ldr.w	sl, [pc, #200]	; 8006540 <_svfiprintf_r+0x1fc>
 8006478:	7821      	ldrb	r1, [r4, #0]
 800647a:	2203      	movs	r2, #3
 800647c:	4650      	mov	r0, sl
 800647e:	f7f9 fecf 	bl	8000220 <memchr>
 8006482:	b140      	cbz	r0, 8006496 <_svfiprintf_r+0x152>
 8006484:	2340      	movs	r3, #64	; 0x40
 8006486:	eba0 000a 	sub.w	r0, r0, sl
 800648a:	fa03 f000 	lsl.w	r0, r3, r0
 800648e:	9b04      	ldr	r3, [sp, #16]
 8006490:	4303      	orrs	r3, r0
 8006492:	3401      	adds	r4, #1
 8006494:	9304      	str	r3, [sp, #16]
 8006496:	f814 1b01 	ldrb.w	r1, [r4], #1
 800649a:	4826      	ldr	r0, [pc, #152]	; (8006534 <_svfiprintf_r+0x1f0>)
 800649c:	f88d 1028 	strb.w	r1, [sp, #40]	; 0x28
 80064a0:	2206      	movs	r2, #6
 80064a2:	f7f9 febd 	bl	8000220 <memchr>
 80064a6:	2800      	cmp	r0, #0
 80064a8:	d038      	beq.n	800651c <_svfiprintf_r+0x1d8>
 80064aa:	4b23      	ldr	r3, [pc, #140]	; (8006538 <_svfiprintf_r+0x1f4>)
 80064ac:	bb1b      	cbnz	r3, 80064f6 <_svfiprintf_r+0x1b2>
 80064ae:	9b03      	ldr	r3, [sp, #12]
 80064b0:	3307      	adds	r3, #7
 80064b2:	f023 0307 	bic.w	r3, r3, #7
 80064b6:	3308      	adds	r3, #8
 80064b8:	9303      	str	r3, [sp, #12]
 80064ba:	9b09      	ldr	r3, [sp, #36]	; 0x24
 80064bc:	4433      	add	r3, r6
 80064be:	9309      	str	r3, [sp, #36]	; 0x24
 80064c0:	e767      	b.n	8006392 <_svfiprintf_r+0x4e>
 80064c2:	fb0c 3202 	mla	r2, ip, r2, r3
 80064c6:	460c      	mov	r4, r1
 80064c8:	2001      	movs	r0, #1
 80064ca:	e7a5      	b.n	8006418 <_svfiprintf_r+0xd4>
 80064cc:	2300      	movs	r3, #0
 80064ce:	3401      	adds	r4, #1
 80064d0:	9305      	str	r3, [sp, #20]
 80064d2:	4619      	mov	r1, r3
 80064d4:	f04f 0c0a 	mov.w	ip, #10
 80064d8:	4620      	mov	r0, r4
 80064da:	f810 2b01 	ldrb.w	r2, [r0], #1
 80064de:	3a30      	subs	r2, #48	; 0x30
 80064e0:	2a09      	cmp	r2, #9
 80064e2:	d903      	bls.n	80064ec <_svfiprintf_r+0x1a8>
 80064e4:	2b00      	cmp	r3, #0
 80064e6:	d0c5      	beq.n	8006474 <_svfiprintf_r+0x130>
 80064e8:	9105      	str	r1, [sp, #20]
 80064ea:	e7c3      	b.n	8006474 <_svfiprintf_r+0x130>
 80064ec:	fb0c 2101 	mla	r1, ip, r1, r2
 80064f0:	4604      	mov	r4, r0
 80064f2:	2301      	movs	r3, #1
 80064f4:	e7f0      	b.n	80064d8 <_svfiprintf_r+0x194>
 80064f6:	ab03      	add	r3, sp, #12
 80064f8:	9300      	str	r3, [sp, #0]
 80064fa:	462a      	mov	r2, r5
 80064fc:	4b0f      	ldr	r3, [pc, #60]	; (800653c <_svfiprintf_r+0x1f8>)
 80064fe:	a904      	add	r1, sp, #16
 8006500:	4638      	mov	r0, r7
 8006502:	f7fe f80f 	bl	8004524 <_printf_float>
 8006506:	1c42      	adds	r2, r0, #1
 8006508:	4606      	mov	r6, r0
 800650a:	d1d6      	bne.n	80064ba <_svfiprintf_r+0x176>
 800650c:	89ab      	ldrh	r3, [r5, #12]
 800650e:	065b      	lsls	r3, r3, #25
 8006510:	f53f af2c 	bmi.w	800636c <_svfiprintf_r+0x28>
 8006514:	9809      	ldr	r0, [sp, #36]	; 0x24
 8006516:	b01d      	add	sp, #116	; 0x74
 8006518:	e8bd 8ff0 	ldmia.w	sp!, {r4, r5, r6, r7, r8, r9, sl, fp, pc}
 800651c:	ab03      	add	r3, sp, #12
 800651e:	9300      	str	r3, [sp, #0]
 8006520:	462a      	mov	r2, r5
 8006522:	4b06      	ldr	r3, [pc, #24]	; (800653c <_svfiprintf_r+0x1f8>)
 8006524:	a904      	add	r1, sp, #16
 8006526:	4638      	mov	r0, r7
 8006528:	f7fe faa0 	bl	8004a6c <_printf_i>
 800652c:	e7eb      	b.n	8006506 <_svfiprintf_r+0x1c2>
 800652e:	bf00      	nop
 8006530:	080073dc 	.word	0x080073dc
 8006534:	080073e6 	.word	0x080073e6
 8006538:	08004525 	.word	0x08004525
 800653c:	0800628d 	.word	0x0800628d
 8006540:	080073e2 	.word	0x080073e2

08006544 <_sbrk_r>:
 8006544:	b538      	push	{r3, r4, r5, lr}
 8006546:	4d06      	ldr	r5, [pc, #24]	; (8006560 <_sbrk_r+0x1c>)
 8006548:	2300      	movs	r3, #0
 800654a:	4604      	mov	r4, r0
 800654c:	4608      	mov	r0, r1
 800654e:	602b      	str	r3, [r5, #0]
 8006550:	f7fb f83e 	bl	80015d0 <_sbrk>
 8006554:	1c43      	adds	r3, r0, #1
 8006556:	d102      	bne.n	800655e <_sbrk_r+0x1a>
 8006558:	682b      	ldr	r3, [r5, #0]
 800655a:	b103      	cbz	r3, 800655e <_sbrk_r+0x1a>
 800655c:	6023      	str	r3, [r4, #0]
 800655e:	bd38      	pop	{r3, r4, r5, pc}
 8006560:	2000036c 	.word	0x2000036c

08006564 <__assert_func>:
 8006564:	b51f      	push	{r0, r1, r2, r3, r4, lr}
 8006566:	4614      	mov	r4, r2
 8006568:	461a      	mov	r2, r3
 800656a:	4b09      	ldr	r3, [pc, #36]	; (8006590 <__assert_func+0x2c>)
 800656c:	681b      	ldr	r3, [r3, #0]
 800656e:	4605      	mov	r5, r0
 8006570:	68d8      	ldr	r0, [r3, #12]
 8006572:	b14c      	cbz	r4, 8006588 <__assert_func+0x24>
 8006574:	4b07      	ldr	r3, [pc, #28]	; (8006594 <__assert_func+0x30>)
 8006576:	9100      	str	r1, [sp, #0]
 8006578:	e9cd 3401 	strd	r3, r4, [sp, #4]
 800657c:	4906      	ldr	r1, [pc, #24]	; (8006598 <__assert_func+0x34>)
 800657e:	462b      	mov	r3, r5
 8006580:	f000 f80e 	bl	80065a0 <fiprintf>
 8006584:	f000 faa4 	bl	8006ad0 <abort>
 8006588:	4b04      	ldr	r3, [pc, #16]	; (800659c <__assert_func+0x38>)
 800658a:	461c      	mov	r4, r3
 800658c:	e7f3      	b.n	8006576 <__assert_func+0x12>
 800658e:	bf00      	nop
 8006590:	2000000c 	.word	0x2000000c
 8006594:	080073ed 	.word	0x080073ed
 8006598:	080073fa 	.word	0x080073fa
 800659c:	08007428 	.word	0x08007428

080065a0 <fiprintf>:
 80065a0:	b40e      	push	{r1, r2, r3}
 80065a2:	b503      	push	{r0, r1, lr}
 80065a4:	4601      	mov	r1, r0
 80065a6:	ab03      	add	r3, sp, #12
 80065a8:	4805      	ldr	r0, [pc, #20]	; (80065c0 <fiprintf+0x20>)
 80065aa:	f853 2b04 	ldr.w	r2, [r3], #4
 80065ae:	6800      	ldr	r0, [r0, #0]
 80065b0:	9301      	str	r3, [sp, #4]
 80065b2:	f000 f88f 	bl	80066d4 <_vfiprintf_r>
 80065b6:	b002      	add	sp, #8
 80065b8:	f85d eb04 	ldr.w	lr, [sp], #4
 80065bc:	b003      	add	sp, #12
 80065be:	4770      	bx	lr
 80065c0:	2000000c 	.word	0x2000000c

080065c4 <__ascii_mbtowc>:
 80065c4:	b082      	sub	sp, #8
 80065c6:	b901      	cbnz	r1, 80065ca <__ascii_mbtowc+0x6>
 80065c8:	a901      	add	r1, sp, #4
 80065ca:	b142      	cbz	r2, 80065de <__ascii_mbtowc+0x1a>
 80065cc:	b14b      	cbz	r3, 80065e2 <__ascii_mbtowc+0x1e>
 80065ce:	7813      	ldrb	r3, [r2, #0]
 80065d0:	600b      	str	r3, [r1, #0]
 80065d2:	7812      	ldrb	r2, [r2, #0]
 80065d4:	1e10      	subs	r0, r2, #0
 80065d6:	bf18      	it	ne
 80065d8:	2001      	movne	r0, #1
 80065da:	b002      	add	sp, #8
 80065dc:	4770      	bx	lr
 80065de:	4610      	mov	r0, r2
 80065e0:	e7fb      	b.n	80065da <__ascii_mbtowc+0x16>
 80065e2:	f06f 0001 	mvn.w	r0, #1
 80065e6:	e7f8      	b.n	80065da <__ascii_mbtowc+0x16>

080065e8 <memmove>:
 80065e8:	4288      	cmp	r0, r1
 80065ea:	b510      	push	{r4, lr}
 80065ec:	eb01 0402 	add.w	r4, r1, r2
 80065f0:	d902      	bls.n	80065f8 <memmove+0x10>
 80065f2:	4284      	cmp	r4, r0
 80065f4:	4623      	mov	r3, r4
 80065f6:	d807      	bhi.n	8006608 <memmove+0x20>
 80065f8:	1e43      	subs	r3, r0, #1
 80065fa:	42a1      	cmp	r1, r4
 80065fc:	d008      	beq.n	8006610 <memmove+0x28>
 80065fe:	f811 2b01 	ldrb.w	r2, [r1], #1
 8006602:	f803 2f01 	strb.w	r2, [r3, #1]!
 8006606:	e7f8      	b.n	80065fa <memmove+0x12>
 8006608:	4402      	add	r2, r0
 800660a:	4601      	mov	r1, r0
 800660c:	428a      	cmp	r2, r1
 800660e:	d100      	bne.n	8006612 <memmove+0x2a>
 8006610:	bd10      	pop	{r4, pc}
 8006612:	f813 4d01 	ldrb.w	r4, [r3, #-1]!
 8006616:	f802 4d01 	strb.w	r4, [r2, #-1]!
 800661a:	e7f7      	b.n	800660c <memmove+0x24>

0800661c <__malloc_lock>:
 800661c:	4801      	ldr	r0, [pc, #4]	; (8006624 <__malloc_lock+0x8>)
 800661e:	f000 bc17 	b.w	8006e50 <__retarget_lock_acquire_recursive>
 8006622:	bf00      	nop
 8006624:	20000374 	.word	0x20000374

08006628 <__malloc_unlock>:
 8006628:	4801      	ldr	r0, [pc, #4]	; (8006630 <__malloc_unlock+0x8>)
 800662a:	f000 bc12 	b.w	8006e52 <__retarget_lock_release_recursive>
 800662e:	bf00      	nop
 8006630:	20000374 	.word	0x20000374

08006634 <_realloc_r>:
 8006634:	b5f8      	push	{r3, r4, r5, r6, r7, lr}
 8006636:	4607      	mov	r7, r0
 8006638:	4614      	mov	r4, r2
 800663a:	460e      	mov	r6, r1
 800663c:	b921      	cbnz	r1, 8006648 <_realloc_r+0x14>
 800663e:	e8bd 40f8 	ldmia.w	sp!, {r3, r4, r5, r6, r7, lr}
 8006642:	4611      	mov	r1, r2
 8006644:	f7ff bdc8 	b.w	80061d8 <_malloc_r>
 8006648:	b922      	cbnz	r2, 8006654 <_realloc_r+0x20>
 800664a:	f7ff fd75 	bl	8006138 <_free_r>
 800664e:	4625      	mov	r5, r4
 8006650:	4628      	mov	r0, r5
 8006652:	bdf8      	pop	{r3, r4, r5, r6, r7, pc}
 8006654:	f000 fc62 	bl	8006f1c <_malloc_usable_size_r>
 8006658:	42a0      	cmp	r0, r4
 800665a:	d20f      	bcs.n	800667c <_realloc_r+0x48>
 800665c:	4621      	mov	r1, r4
 800665e:	4638      	mov	r0, r7
 8006660:	f7ff fdba 	bl	80061d8 <_malloc_r>
 8006664:	4605      	mov	r5, r0
 8006666:	2800      	cmp	r0, #0
 8006668:	d0f2      	beq.n	8006650 <_realloc_r+0x1c>
 800666a:	4631      	mov	r1, r6
 800666c:	4622      	mov	r2, r4
 800666e:	f7ff f9c7 	bl	8005a00 <memcpy>
 8006672:	4631      	mov	r1, r6
 8006674:	4638      	mov	r0, r7
 8006676:	f7ff fd5f 	bl	8006138 <_free_r>
 800667a:	e7e9      	b.n	8006650 <_realloc_r+0x1c>
 800667c:	4635      	mov	r5, r6
 800667e:	e7e7      	b.n	8006650 <_realloc_r+0x1c>

08006680 <__sfputc_r>:
 8006680:	6893      	ldr	r3, [r2, #8]
 8006682:	3b01      	subs	r3, #1
 8006684:	2b00      	cmp	r3, #0
 8006686:	b410      	push	{r4}
 8006688:	6093      	str	r3, [r2, #8]
 800668a:	da08      	bge.n	800669e <__sfputc_r+0x1e>
 800668c:	6994      	ldr	r4, [r2, #24]
 800668e:	42a3      	cmp	r3, r4
 8006690:	db01      	blt.n	8006696 <__sfputc_r+0x16>
 8006692:	290a      	cmp	r1, #10
 8006694:	d103      	bne.n	800669e <__sfputc_r+0x1e>
 8006696:	f85d 4b04 	ldr.w	r4, [sp], #4
 800669a:	f000 b94b 	b.w	8006934 <__swbuf_r>
 800669e:	6813      	ldr	r3, [r2, #0]
 80066a0:	1c58      	adds	r0, r3, #1
 80066a2:	6010      	str	r0, [r2, #0]
 80066a4:	7019      	strb	r1, [r3, #0]
 80066a6:	4608      	mov	r0, r1
 80066a8:	f85d 4b04 	ldr.w	r4, [sp], #4
 80066ac:	4770      	bx	lr

080066ae <__sfputs_r>:
 80066ae:	b5f8      	push	{r3, r4, r5, r6, r7, lr}
 80066b0:	4606      	mov	r6, r0
 80066b2:	460f      	mov	r7, r1
 80066b4:	4614      	mov	r4, r2
 80066b6:	18d5      	adds	r5, r2, r3
 80066b8:	42ac      	cmp	r4, r5
 80066ba:	d101      	bne.n	80066c0 <__sfputs_r+0x12>
 80066bc:	2000      	movs	r0, #0
 80066be:	e007      	b.n	80066d0 <__sfputs_r+0x22>
 80066c0:	f814 1b01 	ldrb.w	r1, [r4], #1
 80066c4:	463a      	mov	r2, r7
 80066c6:	4630      	mov	r0, r6
 80066c8:	f7ff ffda 	bl	8006680 <__sfputc_r>
 80066cc:	1c43      	adds	r3, r0, #1
 80066ce:	d1f3      	bne.n	80066b8 <__sfputs_r+0xa>
 80066d0:	bdf8      	pop	{r3, r4, r5, r6, r7, pc}
	...

080066d4 <_vfiprintf_r>:
 80066d4:	e92d 4ff0 	stmdb	sp!, {r4, r5, r6, r7, r8, r9, sl, fp, lr}
 80066d8:	460d      	mov	r5, r1
 80066da:	b09d      	sub	sp, #116	; 0x74
 80066dc:	4614      	mov	r4, r2
 80066de:	4698      	mov	r8, r3
 80066e0:	4606      	mov	r6, r0
 80066e2:	b118      	cbz	r0, 80066ec <_vfiprintf_r+0x18>
 80066e4:	6983      	ldr	r3, [r0, #24]
 80066e6:	b90b      	cbnz	r3, 80066ec <_vfiprintf_r+0x18>
 80066e8:	f000 fb14 	bl	8006d14 <__sinit>
 80066ec:	4b89      	ldr	r3, [pc, #548]	; (8006914 <_vfiprintf_r+0x240>)
 80066ee:	429d      	cmp	r5, r3
 80066f0:	d11b      	bne.n	800672a <_vfiprintf_r+0x56>
 80066f2:	6875      	ldr	r5, [r6, #4]
 80066f4:	6e6b      	ldr	r3, [r5, #100]	; 0x64
 80066f6:	07d9      	lsls	r1, r3, #31
 80066f8:	d405      	bmi.n	8006706 <_vfiprintf_r+0x32>
 80066fa:	89ab      	ldrh	r3, [r5, #12]
 80066fc:	059a      	lsls	r2, r3, #22
 80066fe:	d402      	bmi.n	8006706 <_vfiprintf_r+0x32>
 8006700:	6da8      	ldr	r0, [r5, #88]	; 0x58
 8006702:	f000 fba5 	bl	8006e50 <__retarget_lock_acquire_recursive>
 8006706:	89ab      	ldrh	r3, [r5, #12]
 8006708:	071b      	lsls	r3, r3, #28
 800670a:	d501      	bpl.n	8006710 <_vfiprintf_r+0x3c>
 800670c:	692b      	ldr	r3, [r5, #16]
 800670e:	b9eb      	cbnz	r3, 800674c <_vfiprintf_r+0x78>
 8006710:	4629      	mov	r1, r5
 8006712:	4630      	mov	r0, r6
 8006714:	f000 f96e 	bl	80069f4 <__swsetup_r>
 8006718:	b1c0      	cbz	r0, 800674c <_vfiprintf_r+0x78>
 800671a:	6e6b      	ldr	r3, [r5, #100]	; 0x64
 800671c:	07dc      	lsls	r4, r3, #31
 800671e:	d50e      	bpl.n	800673e <_vfiprintf_r+0x6a>
 8006720:	f04f 30ff 	mov.w	r0, #4294967295	; 0xffffffff
 8006724:	b01d      	add	sp, #116	; 0x74
 8006726:	e8bd 8ff0 	ldmia.w	sp!, {r4, r5, r6, r7, r8, r9, sl, fp, pc}
 800672a:	4b7b      	ldr	r3, [pc, #492]	; (8006918 <_vfiprintf_r+0x244>)
 800672c:	429d      	cmp	r5, r3
 800672e:	d101      	bne.n	8006734 <_vfiprintf_r+0x60>
 8006730:	68b5      	ldr	r5, [r6, #8]
 8006732:	e7df      	b.n	80066f4 <_vfiprintf_r+0x20>
 8006734:	4b79      	ldr	r3, [pc, #484]	; (800691c <_vfiprintf_r+0x248>)
 8006736:	429d      	cmp	r5, r3
 8006738:	bf08      	it	eq
 800673a:	68f5      	ldreq	r5, [r6, #12]
 800673c:	e7da      	b.n	80066f4 <_vfiprintf_r+0x20>
 800673e:	89ab      	ldrh	r3, [r5, #12]
 8006740:	0598      	lsls	r0, r3, #22
 8006742:	d4ed      	bmi.n	8006720 <_vfiprintf_r+0x4c>
 8006744:	6da8      	ldr	r0, [r5, #88]	; 0x58
 8006746:	f000 fb84 	bl	8006e52 <__retarget_lock_release_recursive>
 800674a:	e7e9      	b.n	8006720 <_vfiprintf_r+0x4c>
 800674c:	2300      	movs	r3, #0
 800674e:	9309      	str	r3, [sp, #36]	; 0x24
 8006750:	2320      	movs	r3, #32
 8006752:	f88d 3029 	strb.w	r3, [sp, #41]	; 0x29
 8006756:	f8cd 800c 	str.w	r8, [sp, #12]
 800675a:	2330      	movs	r3, #48	; 0x30
 800675c:	f8df 81c0 	ldr.w	r8, [pc, #448]	; 8006920 <_vfiprintf_r+0x24c>
 8006760:	f88d 302a 	strb.w	r3, [sp, #42]	; 0x2a
 8006764:	f04f 0901 	mov.w	r9, #1
 8006768:	4623      	mov	r3, r4
 800676a:	469a      	mov	sl, r3
 800676c:	f813 2b01 	ldrb.w	r2, [r3], #1
 8006770:	b10a      	cbz	r2, 8006776 <_vfiprintf_r+0xa2>
 8006772:	2a25      	cmp	r2, #37	; 0x25
 8006774:	d1f9      	bne.n	800676a <_vfiprintf_r+0x96>
 8006776:	ebba 0b04 	subs.w	fp, sl, r4
 800677a:	d00b      	beq.n	8006794 <_vfiprintf_r+0xc0>
 800677c:	465b      	mov	r3, fp
 800677e:	4622      	mov	r2, r4
 8006780:	4629      	mov	r1, r5
 8006782:	4630      	mov	r0, r6
 8006784:	f7ff ff93 	bl	80066ae <__sfputs_r>
 8006788:	3001      	adds	r0, #1
 800678a:	f000 80aa 	beq.w	80068e2 <_vfiprintf_r+0x20e>
 800678e:	9a09      	ldr	r2, [sp, #36]	; 0x24
 8006790:	445a      	add	r2, fp
 8006792:	9209      	str	r2, [sp, #36]	; 0x24
 8006794:	f89a 3000 	ldrb.w	r3, [sl]
 8006798:	2b00      	cmp	r3, #0
 800679a:	f000 80a2 	beq.w	80068e2 <_vfiprintf_r+0x20e>
 800679e:	2300      	movs	r3, #0
 80067a0:	f04f 32ff 	mov.w	r2, #4294967295	; 0xffffffff
 80067a4:	e9cd 2305 	strd	r2, r3, [sp, #20]
 80067a8:	f10a 0a01 	add.w	sl, sl, #1
 80067ac:	9304      	str	r3, [sp, #16]
 80067ae:	9307      	str	r3, [sp, #28]
 80067b0:	f88d 3053 	strb.w	r3, [sp, #83]	; 0x53
 80067b4:	931a      	str	r3, [sp, #104]	; 0x68
 80067b6:	4654      	mov	r4, sl
 80067b8:	2205      	movs	r2, #5
 80067ba:	f814 1b01 	ldrb.w	r1, [r4], #1
 80067be:	4858      	ldr	r0, [pc, #352]	; (8006920 <_vfiprintf_r+0x24c>)
 80067c0:	f7f9 fd2e 	bl	8000220 <memchr>
 80067c4:	9a04      	ldr	r2, [sp, #16]
 80067c6:	b9d8      	cbnz	r0, 8006800 <_vfiprintf_r+0x12c>
 80067c8:	06d1      	lsls	r1, r2, #27
 80067ca:	bf44      	itt	mi
 80067cc:	2320      	movmi	r3, #32
 80067ce:	f88d 3053 	strbmi.w	r3, [sp, #83]	; 0x53
 80067d2:	0713      	lsls	r3, r2, #28
 80067d4:	bf44      	itt	mi
 80067d6:	232b      	movmi	r3, #43	; 0x2b
 80067d8:	f88d 3053 	strbmi.w	r3, [sp, #83]	; 0x53
 80067dc:	f89a 3000 	ldrb.w	r3, [sl]
 80067e0:	2b2a      	cmp	r3, #42	; 0x2a
 80067e2:	d015      	beq.n	8006810 <_vfiprintf_r+0x13c>
 80067e4:	9a07      	ldr	r2, [sp, #28]
 80067e6:	4654      	mov	r4, sl
 80067e8:	2000      	movs	r0, #0
 80067ea:	f04f 0c0a 	mov.w	ip, #10
 80067ee:	4621      	mov	r1, r4
 80067f0:	f811 3b01 	ldrb.w	r3, [r1], #1
 80067f4:	3b30      	subs	r3, #48	; 0x30
 80067f6:	2b09      	cmp	r3, #9
 80067f8:	d94e      	bls.n	8006898 <_vfiprintf_r+0x1c4>
 80067fa:	b1b0      	cbz	r0, 800682a <_vfiprintf_r+0x156>
 80067fc:	9207      	str	r2, [sp, #28]
 80067fe:	e014      	b.n	800682a <_vfiprintf_r+0x156>
 8006800:	eba0 0308 	sub.w	r3, r0, r8
 8006804:	fa09 f303 	lsl.w	r3, r9, r3
 8006808:	4313      	orrs	r3, r2
 800680a:	9304      	str	r3, [sp, #16]
 800680c:	46a2      	mov	sl, r4
 800680e:	e7d2      	b.n	80067b6 <_vfiprintf_r+0xe2>
 8006810:	9b03      	ldr	r3, [sp, #12]
 8006812:	1d19      	adds	r1, r3, #4
 8006814:	681b      	ldr	r3, [r3, #0]
 8006816:	9103      	str	r1, [sp, #12]
 8006818:	2b00      	cmp	r3, #0
 800681a:	bfbb      	ittet	lt
 800681c:	425b      	neglt	r3, r3
 800681e:	f042 0202 	orrlt.w	r2, r2, #2
 8006822:	9307      	strge	r3, [sp, #28]
 8006824:	9307      	strlt	r3, [sp, #28]
 8006826:	bfb8      	it	lt
 8006828:	9204      	strlt	r2, [sp, #16]
 800682a:	7823      	ldrb	r3, [r4, #0]
 800682c:	2b2e      	cmp	r3, #46	; 0x2e
 800682e:	d10c      	bne.n	800684a <_vfiprintf_r+0x176>
 8006830:	7863      	ldrb	r3, [r4, #1]
 8006832:	2b2a      	cmp	r3, #42	; 0x2a
 8006834:	d135      	bne.n	80068a2 <_vfiprintf_r+0x1ce>
 8006836:	9b03      	ldr	r3, [sp, #12]
 8006838:	1d1a      	adds	r2, r3, #4
 800683a:	681b      	ldr	r3, [r3, #0]
 800683c:	9203      	str	r2, [sp, #12]
 800683e:	2b00      	cmp	r3, #0
 8006840:	bfb8      	it	lt
 8006842:	f04f 33ff 	movlt.w	r3, #4294967295	; 0xffffffff
 8006846:	3402      	adds	r4, #2
 8006848:	9305      	str	r3, [sp, #20]
 800684a:	f8df a0e4 	ldr.w	sl, [pc, #228]	; 8006930 <_vfiprintf_r+0x25c>
 800684e:	7821      	ldrb	r1, [r4, #0]
 8006850:	2203      	movs	r2, #3
 8006852:	4650      	mov	r0, sl
 8006854:	f7f9 fce4 	bl	8000220 <memchr>
 8006858:	b140      	cbz	r0, 800686c <_vfiprintf_r+0x198>
 800685a:	2340      	movs	r3, #64	; 0x40
 800685c:	eba0 000a 	sub.w	r0, r0, sl
 8006860:	fa03 f000 	lsl.w	r0, r3, r0
 8006864:	9b04      	ldr	r3, [sp, #16]
 8006866:	4303      	orrs	r3, r0
 8006868:	3401      	adds	r4, #1
 800686a:	9304      	str	r3, [sp, #16]
 800686c:	f814 1b01 	ldrb.w	r1, [r4], #1
 8006870:	482c      	ldr	r0, [pc, #176]	; (8006924 <_vfiprintf_r+0x250>)
 8006872:	f88d 1028 	strb.w	r1, [sp, #40]	; 0x28
 8006876:	2206      	movs	r2, #6
 8006878:	f7f9 fcd2 	bl	8000220 <memchr>
 800687c:	2800      	cmp	r0, #0
 800687e:	d03f      	beq.n	8006900 <_vfiprintf_r+0x22c>
 8006880:	4b29      	ldr	r3, [pc, #164]	; (8006928 <_vfiprintf_r+0x254>)
 8006882:	bb1b      	cbnz	r3, 80068cc <_vfiprintf_r+0x1f8>
 8006884:	9b03      	ldr	r3, [sp, #12]
 8006886:	3307      	adds	r3, #7
 8006888:	f023 0307 	bic.w	r3, r3, #7
 800688c:	3308      	adds	r3, #8
 800688e:	9303      	str	r3, [sp, #12]
 8006890:	9b09      	ldr	r3, [sp, #36]	; 0x24
 8006892:	443b      	add	r3, r7
 8006894:	9309      	str	r3, [sp, #36]	; 0x24
 8006896:	e767      	b.n	8006768 <_vfiprintf_r+0x94>
 8006898:	fb0c 3202 	mla	r2, ip, r2, r3
 800689c:	460c      	mov	r4, r1
 800689e:	2001      	movs	r0, #1
 80068a0:	e7a5      	b.n	80067ee <_vfiprintf_r+0x11a>
 80068a2:	2300      	movs	r3, #0
 80068a4:	3401      	adds	r4, #1
 80068a6:	9305      	str	r3, [sp, #20]
 80068a8:	4619      	mov	r1, r3
 80068aa:	f04f 0c0a 	mov.w	ip, #10
 80068ae:	4620      	mov	r0, r4
 80068b0:	f810 2b01 	ldrb.w	r2, [r0], #1
 80068b4:	3a30      	subs	r2, #48	; 0x30
 80068b6:	2a09      	cmp	r2, #9
 80068b8:	d903      	bls.n	80068c2 <_vfiprintf_r+0x1ee>
 80068ba:	2b00      	cmp	r3, #0
 80068bc:	d0c5      	beq.n	800684a <_vfiprintf_r+0x176>
 80068be:	9105      	str	r1, [sp, #20]
 80068c0:	e7c3      	b.n	800684a <_vfiprintf_r+0x176>
 80068c2:	fb0c 2101 	mla	r1, ip, r1, r2
 80068c6:	4604      	mov	r4, r0
 80068c8:	2301      	movs	r3, #1
 80068ca:	e7f0      	b.n	80068ae <_vfiprintf_r+0x1da>
 80068cc:	ab03      	add	r3, sp, #12
 80068ce:	9300      	str	r3, [sp, #0]
 80068d0:	462a      	mov	r2, r5
 80068d2:	4b16      	ldr	r3, [pc, #88]	; (800692c <_vfiprintf_r+0x258>)
 80068d4:	a904      	add	r1, sp, #16
 80068d6:	4630      	mov	r0, r6
 80068d8:	f7fd fe24 	bl	8004524 <_printf_float>
 80068dc:	4607      	mov	r7, r0
 80068de:	1c78      	adds	r0, r7, #1
 80068e0:	d1d6      	bne.n	8006890 <_vfiprintf_r+0x1bc>
 80068e2:	6e6b      	ldr	r3, [r5, #100]	; 0x64
 80068e4:	07d9      	lsls	r1, r3, #31
 80068e6:	d405      	bmi.n	80068f4 <_vfiprintf_r+0x220>
 80068e8:	89ab      	ldrh	r3, [r5, #12]
 80068ea:	059a      	lsls	r2, r3, #22
 80068ec:	d402      	bmi.n	80068f4 <_vfiprintf_r+0x220>
 80068ee:	6da8      	ldr	r0, [r5, #88]	; 0x58
 80068f0:	f000 faaf 	bl	8006e52 <__retarget_lock_release_recursive>
 80068f4:	89ab      	ldrh	r3, [r5, #12]
 80068f6:	065b      	lsls	r3, r3, #25
 80068f8:	f53f af12 	bmi.w	8006720 <_vfiprintf_r+0x4c>
 80068fc:	9809      	ldr	r0, [sp, #36]	; 0x24
 80068fe:	e711      	b.n	8006724 <_vfiprintf_r+0x50>
 8006900:	ab03      	add	r3, sp, #12
 8006902:	9300      	str	r3, [sp, #0]
 8006904:	462a      	mov	r2, r5
 8006906:	4b09      	ldr	r3, [pc, #36]	; (800692c <_vfiprintf_r+0x258>)
 8006908:	a904      	add	r1, sp, #16
 800690a:	4630      	mov	r0, r6
 800690c:	f7fe f8ae 	bl	8004a6c <_printf_i>
 8006910:	e7e4      	b.n	80068dc <_vfiprintf_r+0x208>
 8006912:	bf00      	nop
 8006914:	08007554 	.word	0x08007554
 8006918:	08007574 	.word	0x08007574
 800691c:	08007534 	.word	0x08007534
 8006920:	080073dc 	.word	0x080073dc
 8006924:	080073e6 	.word	0x080073e6
 8006928:	08004525 	.word	0x08004525
 800692c:	080066af 	.word	0x080066af
 8006930:	080073e2 	.word	0x080073e2

08006934 <__swbuf_r>:
 8006934:	b5f8      	push	{r3, r4, r5, r6, r7, lr}
 8006936:	460e      	mov	r6, r1
 8006938:	4614      	mov	r4, r2
 800693a:	4605      	mov	r5, r0
 800693c:	b118      	cbz	r0, 8006946 <__swbuf_r+0x12>
 800693e:	6983      	ldr	r3, [r0, #24]
 8006940:	b90b      	cbnz	r3, 8006946 <__swbuf_r+0x12>
 8006942:	f000 f9e7 	bl	8006d14 <__sinit>
 8006946:	4b21      	ldr	r3, [pc, #132]	; (80069cc <__swbuf_r+0x98>)
 8006948:	429c      	cmp	r4, r3
 800694a:	d12b      	bne.n	80069a4 <__swbuf_r+0x70>
 800694c:	686c      	ldr	r4, [r5, #4]
 800694e:	69a3      	ldr	r3, [r4, #24]
 8006950:	60a3      	str	r3, [r4, #8]
 8006952:	89a3      	ldrh	r3, [r4, #12]
 8006954:	071a      	lsls	r2, r3, #28
 8006956:	d52f      	bpl.n	80069b8 <__swbuf_r+0x84>
 8006958:	6923      	ldr	r3, [r4, #16]
 800695a:	b36b      	cbz	r3, 80069b8 <__swbuf_r+0x84>
 800695c:	6923      	ldr	r3, [r4, #16]
 800695e:	6820      	ldr	r0, [r4, #0]
 8006960:	1ac0      	subs	r0, r0, r3
 8006962:	6963      	ldr	r3, [r4, #20]
 8006964:	b2f6      	uxtb	r6, r6
 8006966:	4283      	cmp	r3, r0
 8006968:	4637      	mov	r7, r6
 800696a:	dc04      	bgt.n	8006976 <__swbuf_r+0x42>
 800696c:	4621      	mov	r1, r4
 800696e:	4628      	mov	r0, r5
 8006970:	f000 f93c 	bl	8006bec <_fflush_r>
 8006974:	bb30      	cbnz	r0, 80069c4 <__swbuf_r+0x90>
 8006976:	68a3      	ldr	r3, [r4, #8]
 8006978:	3b01      	subs	r3, #1
 800697a:	60a3      	str	r3, [r4, #8]
 800697c:	6823      	ldr	r3, [r4, #0]
 800697e:	1c5a      	adds	r2, r3, #1
 8006980:	6022      	str	r2, [r4, #0]
 8006982:	701e      	strb	r6, [r3, #0]
 8006984:	6963      	ldr	r3, [r4, #20]
 8006986:	3001      	adds	r0, #1
 8006988:	4283      	cmp	r3, r0
 800698a:	d004      	beq.n	8006996 <__swbuf_r+0x62>
 800698c:	89a3      	ldrh	r3, [r4, #12]
 800698e:	07db      	lsls	r3, r3, #31
 8006990:	d506      	bpl.n	80069a0 <__swbuf_r+0x6c>
 8006992:	2e0a      	cmp	r6, #10
 8006994:	d104      	bne.n	80069a0 <__swbuf_r+0x6c>
 8006996:	4621      	mov	r1, r4
 8006998:	4628      	mov	r0, r5
 800699a:	f000 f927 	bl	8006bec <_fflush_r>
 800699e:	b988      	cbnz	r0, 80069c4 <__swbuf_r+0x90>
 80069a0:	4638      	mov	r0, r7
 80069a2:	bdf8      	pop	{r3, r4, r5, r6, r7, pc}
 80069a4:	4b0a      	ldr	r3, [pc, #40]	; (80069d0 <__swbuf_r+0x9c>)
 80069a6:	429c      	cmp	r4, r3
 80069a8:	d101      	bne.n	80069ae <__swbuf_r+0x7a>
 80069aa:	68ac      	ldr	r4, [r5, #8]
 80069ac:	e7cf      	b.n	800694e <__swbuf_r+0x1a>
 80069ae:	4b09      	ldr	r3, [pc, #36]	; (80069d4 <__swbuf_r+0xa0>)
 80069b0:	429c      	cmp	r4, r3
 80069b2:	bf08      	it	eq
 80069b4:	68ec      	ldreq	r4, [r5, #12]
 80069b6:	e7ca      	b.n	800694e <__swbuf_r+0x1a>
 80069b8:	4621      	mov	r1, r4
 80069ba:	4628      	mov	r0, r5
 80069bc:	f000 f81a 	bl	80069f4 <__swsetup_r>
 80069c0:	2800      	cmp	r0, #0
 80069c2:	d0cb      	beq.n	800695c <__swbuf_r+0x28>
 80069c4:	f04f 37ff 	mov.w	r7, #4294967295	; 0xffffffff
 80069c8:	e7ea      	b.n	80069a0 <__swbuf_r+0x6c>
 80069ca:	bf00      	nop
 80069cc:	08007554 	.word	0x08007554
 80069d0:	08007574 	.word	0x08007574
 80069d4:	08007534 	.word	0x08007534

080069d8 <__ascii_wctomb>:
 80069d8:	b149      	cbz	r1, 80069ee <__ascii_wctomb+0x16>
 80069da:	2aff      	cmp	r2, #255	; 0xff
 80069dc:	bf85      	ittet	hi
 80069de:	238a      	movhi	r3, #138	; 0x8a
 80069e0:	6003      	strhi	r3, [r0, #0]
 80069e2:	700a      	strbls	r2, [r1, #0]
 80069e4:	f04f 30ff 	movhi.w	r0, #4294967295	; 0xffffffff
 80069e8:	bf98      	it	ls
 80069ea:	2001      	movls	r0, #1
 80069ec:	4770      	bx	lr
 80069ee:	4608      	mov	r0, r1
 80069f0:	4770      	bx	lr
	...

080069f4 <__swsetup_r>:
 80069f4:	4b32      	ldr	r3, [pc, #200]	; (8006ac0 <__swsetup_r+0xcc>)
 80069f6:	b570      	push	{r4, r5, r6, lr}
 80069f8:	681d      	ldr	r5, [r3, #0]
 80069fa:	4606      	mov	r6, r0
 80069fc:	460c      	mov	r4, r1
 80069fe:	b125      	cbz	r5, 8006a0a <__swsetup_r+0x16>
 8006a00:	69ab      	ldr	r3, [r5, #24]
 8006a02:	b913      	cbnz	r3, 8006a0a <__swsetup_r+0x16>
 8006a04:	4628      	mov	r0, r5
 8006a06:	f000 f985 	bl	8006d14 <__sinit>
 8006a0a:	4b2e      	ldr	r3, [pc, #184]	; (8006ac4 <__swsetup_r+0xd0>)
 8006a0c:	429c      	cmp	r4, r3
 8006a0e:	d10f      	bne.n	8006a30 <__swsetup_r+0x3c>
 8006a10:	686c      	ldr	r4, [r5, #4]
 8006a12:	89a3      	ldrh	r3, [r4, #12]
 8006a14:	f9b4 200c 	ldrsh.w	r2, [r4, #12]
 8006a18:	0719      	lsls	r1, r3, #28
 8006a1a:	d42c      	bmi.n	8006a76 <__swsetup_r+0x82>
 8006a1c:	06dd      	lsls	r5, r3, #27
 8006a1e:	d411      	bmi.n	8006a44 <__swsetup_r+0x50>
 8006a20:	2309      	movs	r3, #9
 8006a22:	6033      	str	r3, [r6, #0]
 8006a24:	f042 0340 	orr.w	r3, r2, #64	; 0x40
 8006a28:	81a3      	strh	r3, [r4, #12]
 8006a2a:	f04f 30ff 	mov.w	r0, #4294967295	; 0xffffffff
 8006a2e:	e03e      	b.n	8006aae <__swsetup_r+0xba>
 8006a30:	4b25      	ldr	r3, [pc, #148]	; (8006ac8 <__swsetup_r+0xd4>)
 8006a32:	429c      	cmp	r4, r3
 8006a34:	d101      	bne.n	8006a3a <__swsetup_r+0x46>
 8006a36:	68ac      	ldr	r4, [r5, #8]
 8006a38:	e7eb      	b.n	8006a12 <__swsetup_r+0x1e>
 8006a3a:	4b24      	ldr	r3, [pc, #144]	; (8006acc <__swsetup_r+0xd8>)
 8006a3c:	429c      	cmp	r4, r3
 8006a3e:	bf08      	it	eq
 8006a40:	68ec      	ldreq	r4, [r5, #12]
 8006a42:	e7e6      	b.n	8006a12 <__swsetup_r+0x1e>
 8006a44:	0758      	lsls	r0, r3, #29
 8006a46:	d512      	bpl.n	8006a6e <__swsetup_r+0x7a>
 8006a48:	6b61      	ldr	r1, [r4, #52]	; 0x34
 8006a4a:	b141      	cbz	r1, 8006a5e <__swsetup_r+0x6a>
 8006a4c:	f104 0344 	add.w	r3, r4, #68	; 0x44
 8006a50:	4299      	cmp	r1, r3
 8006a52:	d002      	beq.n	8006a5a <__swsetup_r+0x66>
 8006a54:	4630      	mov	r0, r6
 8006a56:	f7ff fb6f 	bl	8006138 <_free_r>
 8006a5a:	2300      	movs	r3, #0
 8006a5c:	6363      	str	r3, [r4, #52]	; 0x34
 8006a5e:	89a3      	ldrh	r3, [r4, #12]
 8006a60:	f023 0324 	bic.w	r3, r3, #36	; 0x24
 8006a64:	81a3      	strh	r3, [r4, #12]
 8006a66:	2300      	movs	r3, #0
 8006a68:	6063      	str	r3, [r4, #4]
 8006a6a:	6923      	ldr	r3, [r4, #16]
 8006a6c:	6023      	str	r3, [r4, #0]
 8006a6e:	89a3      	ldrh	r3, [r4, #12]
 8006a70:	f043 0308 	orr.w	r3, r3, #8
 8006a74:	81a3      	strh	r3, [r4, #12]
 8006a76:	6923      	ldr	r3, [r4, #16]
 8006a78:	b94b      	cbnz	r3, 8006a8e <__swsetup_r+0x9a>
 8006a7a:	89a3      	ldrh	r3, [r4, #12]
 8006a7c:	f403 7320 	and.w	r3, r3, #640	; 0x280
 8006a80:	f5b3 7f00 	cmp.w	r3, #512	; 0x200
 8006a84:	d003      	beq.n	8006a8e <__swsetup_r+0x9a>
 8006a86:	4621      	mov	r1, r4
 8006a88:	4630      	mov	r0, r6
 8006a8a:	f000 fa07 	bl	8006e9c <__smakebuf_r>
 8006a8e:	89a0      	ldrh	r0, [r4, #12]
 8006a90:	f9b4 200c 	ldrsh.w	r2, [r4, #12]
 8006a94:	f010 0301 	ands.w	r3, r0, #1
 8006a98:	d00a      	beq.n	8006ab0 <__swsetup_r+0xbc>
 8006a9a:	2300      	movs	r3, #0
 8006a9c:	60a3      	str	r3, [r4, #8]
 8006a9e:	6963      	ldr	r3, [r4, #20]
 8006aa0:	425b      	negs	r3, r3
 8006aa2:	61a3      	str	r3, [r4, #24]
 8006aa4:	6923      	ldr	r3, [r4, #16]
 8006aa6:	b943      	cbnz	r3, 8006aba <__swsetup_r+0xc6>
 8006aa8:	f010 0080 	ands.w	r0, r0, #128	; 0x80
 8006aac:	d1ba      	bne.n	8006a24 <__swsetup_r+0x30>
 8006aae:	bd70      	pop	{r4, r5, r6, pc}
 8006ab0:	0781      	lsls	r1, r0, #30
 8006ab2:	bf58      	it	pl
 8006ab4:	6963      	ldrpl	r3, [r4, #20]
 8006ab6:	60a3      	str	r3, [r4, #8]
 8006ab8:	e7f4      	b.n	8006aa4 <__swsetup_r+0xb0>
 8006aba:	2000      	movs	r0, #0
 8006abc:	e7f7      	b.n	8006aae <__swsetup_r+0xba>
 8006abe:	bf00      	nop
 8006ac0:	2000000c 	.word	0x2000000c
 8006ac4:	08007554 	.word	0x08007554
 8006ac8:	08007574 	.word	0x08007574
 8006acc:	08007534 	.word	0x08007534

08006ad0 <abort>:
 8006ad0:	b508      	push	{r3, lr}
 8006ad2:	2006      	movs	r0, #6
 8006ad4:	f000 fa52 	bl	8006f7c <raise>
 8006ad8:	2001      	movs	r0, #1
 8006ada:	f7fa fd01 	bl	80014e0 <_exit>
	...

08006ae0 <__sflush_r>:
 8006ae0:	898a      	ldrh	r2, [r1, #12]
 8006ae2:	e92d 41f0 	stmdb	sp!, {r4, r5, r6, r7, r8, lr}
 8006ae6:	4605      	mov	r5, r0
 8006ae8:	0710      	lsls	r0, r2, #28
 8006aea:	460c      	mov	r4, r1
 8006aec:	d458      	bmi.n	8006ba0 <__sflush_r+0xc0>
 8006aee:	684b      	ldr	r3, [r1, #4]
 8006af0:	2b00      	cmp	r3, #0
 8006af2:	dc05      	bgt.n	8006b00 <__sflush_r+0x20>
 8006af4:	6c0b      	ldr	r3, [r1, #64]	; 0x40
 8006af6:	2b00      	cmp	r3, #0
 8006af8:	dc02      	bgt.n	8006b00 <__sflush_r+0x20>
 8006afa:	2000      	movs	r0, #0
 8006afc:	e8bd 81f0 	ldmia.w	sp!, {r4, r5, r6, r7, r8, pc}
 8006b00:	6ae6      	ldr	r6, [r4, #44]	; 0x2c
 8006b02:	2e00      	cmp	r6, #0
 8006b04:	d0f9      	beq.n	8006afa <__sflush_r+0x1a>
 8006b06:	2300      	movs	r3, #0
 8006b08:	f412 5280 	ands.w	r2, r2, #4096	; 0x1000
 8006b0c:	682f      	ldr	r7, [r5, #0]
 8006b0e:	602b      	str	r3, [r5, #0]
 8006b10:	d032      	beq.n	8006b78 <__sflush_r+0x98>
 8006b12:	6d60      	ldr	r0, [r4, #84]	; 0x54
 8006b14:	89a3      	ldrh	r3, [r4, #12]
 8006b16:	075a      	lsls	r2, r3, #29
 8006b18:	d505      	bpl.n	8006b26 <__sflush_r+0x46>
 8006b1a:	6863      	ldr	r3, [r4, #4]
 8006b1c:	1ac0      	subs	r0, r0, r3
 8006b1e:	6b63      	ldr	r3, [r4, #52]	; 0x34
 8006b20:	b10b      	cbz	r3, 8006b26 <__sflush_r+0x46>
 8006b22:	6c23      	ldr	r3, [r4, #64]	; 0x40
 8006b24:	1ac0      	subs	r0, r0, r3
 8006b26:	2300      	movs	r3, #0
 8006b28:	4602      	mov	r2, r0
 8006b2a:	6ae6      	ldr	r6, [r4, #44]	; 0x2c
 8006b2c:	6a21      	ldr	r1, [r4, #32]
 8006b2e:	4628      	mov	r0, r5
 8006b30:	47b0      	blx	r6
 8006b32:	1c43      	adds	r3, r0, #1
 8006b34:	89a3      	ldrh	r3, [r4, #12]
 8006b36:	d106      	bne.n	8006b46 <__sflush_r+0x66>
 8006b38:	6829      	ldr	r1, [r5, #0]
 8006b3a:	291d      	cmp	r1, #29
 8006b3c:	d82c      	bhi.n	8006b98 <__sflush_r+0xb8>
 8006b3e:	4a2a      	ldr	r2, [pc, #168]	; (8006be8 <__sflush_r+0x108>)
 8006b40:	40ca      	lsrs	r2, r1
 8006b42:	07d6      	lsls	r6, r2, #31
 8006b44:	d528      	bpl.n	8006b98 <__sflush_r+0xb8>
 8006b46:	2200      	movs	r2, #0
 8006b48:	6062      	str	r2, [r4, #4]
 8006b4a:	04d9      	lsls	r1, r3, #19
 8006b4c:	6922      	ldr	r2, [r4, #16]
 8006b4e:	6022      	str	r2, [r4, #0]
 8006b50:	d504      	bpl.n	8006b5c <__sflush_r+0x7c>
 8006b52:	1c42      	adds	r2, r0, #1
 8006b54:	d101      	bne.n	8006b5a <__sflush_r+0x7a>
 8006b56:	682b      	ldr	r3, [r5, #0]
 8006b58:	b903      	cbnz	r3, 8006b5c <__sflush_r+0x7c>
 8006b5a:	6560      	str	r0, [r4, #84]	; 0x54
 8006b5c:	6b61      	ldr	r1, [r4, #52]	; 0x34
 8006b5e:	602f      	str	r7, [r5, #0]
 8006b60:	2900      	cmp	r1, #0
 8006b62:	d0ca      	beq.n	8006afa <__sflush_r+0x1a>
 8006b64:	f104 0344 	add.w	r3, r4, #68	; 0x44
 8006b68:	4299      	cmp	r1, r3
 8006b6a:	d002      	beq.n	8006b72 <__sflush_r+0x92>
 8006b6c:	4628      	mov	r0, r5
 8006b6e:	f7ff fae3 	bl	8006138 <_free_r>
 8006b72:	2000      	movs	r0, #0
 8006b74:	6360      	str	r0, [r4, #52]	; 0x34
 8006b76:	e7c1      	b.n	8006afc <__sflush_r+0x1c>
 8006b78:	6a21      	ldr	r1, [r4, #32]
 8006b7a:	2301      	movs	r3, #1
 8006b7c:	4628      	mov	r0, r5
 8006b7e:	47b0      	blx	r6
 8006b80:	1c41      	adds	r1, r0, #1
 8006b82:	d1c7      	bne.n	8006b14 <__sflush_r+0x34>
 8006b84:	682b      	ldr	r3, [r5, #0]
 8006b86:	2b00      	cmp	r3, #0
 8006b88:	d0c4      	beq.n	8006b14 <__sflush_r+0x34>
 8006b8a:	2b1d      	cmp	r3, #29
 8006b8c:	d001      	beq.n	8006b92 <__sflush_r+0xb2>
 8006b8e:	2b16      	cmp	r3, #22
 8006b90:	d101      	bne.n	8006b96 <__sflush_r+0xb6>
 8006b92:	602f      	str	r7, [r5, #0]
 8006b94:	e7b1      	b.n	8006afa <__sflush_r+0x1a>
 8006b96:	89a3      	ldrh	r3, [r4, #12]
 8006b98:	f043 0340 	orr.w	r3, r3, #64	; 0x40
 8006b9c:	81a3      	strh	r3, [r4, #12]
 8006b9e:	e7ad      	b.n	8006afc <__sflush_r+0x1c>
 8006ba0:	690f      	ldr	r7, [r1, #16]
 8006ba2:	2f00      	cmp	r7, #0
 8006ba4:	d0a9      	beq.n	8006afa <__sflush_r+0x1a>
 8006ba6:	0793      	lsls	r3, r2, #30
 8006ba8:	680e      	ldr	r6, [r1, #0]
 8006baa:	bf08      	it	eq
 8006bac:	694b      	ldreq	r3, [r1, #20]
 8006bae:	600f      	str	r7, [r1, #0]
 8006bb0:	bf18      	it	ne
 8006bb2:	2300      	movne	r3, #0
 8006bb4:	eba6 0807 	sub.w	r8, r6, r7
 8006bb8:	608b      	str	r3, [r1, #8]
 8006bba:	f1b8 0f00 	cmp.w	r8, #0
 8006bbe:	dd9c      	ble.n	8006afa <__sflush_r+0x1a>
 8006bc0:	6a21      	ldr	r1, [r4, #32]
 8006bc2:	6aa6      	ldr	r6, [r4, #40]	; 0x28
 8006bc4:	4643      	mov	r3, r8
 8006bc6:	463a      	mov	r2, r7
 8006bc8:	4628      	mov	r0, r5
 8006bca:	47b0      	blx	r6
 8006bcc:	2800      	cmp	r0, #0
 8006bce:	dc06      	bgt.n	8006bde <__sflush_r+0xfe>
 8006bd0:	89a3      	ldrh	r3, [r4, #12]
 8006bd2:	f043 0340 	orr.w	r3, r3, #64	; 0x40
 8006bd6:	81a3      	strh	r3, [r4, #12]
 8006bd8:	f04f 30ff 	mov.w	r0, #4294967295	; 0xffffffff
 8006bdc:	e78e      	b.n	8006afc <__sflush_r+0x1c>
 8006bde:	4407      	add	r7, r0
 8006be0:	eba8 0800 	sub.w	r8, r8, r0
 8006be4:	e7e9      	b.n	8006bba <__sflush_r+0xda>
 8006be6:	bf00      	nop
 8006be8:	20400001 	.word	0x20400001

08006bec <_fflush_r>:
 8006bec:	b538      	push	{r3, r4, r5, lr}
 8006bee:	690b      	ldr	r3, [r1, #16]
 8006bf0:	4605      	mov	r5, r0
 8006bf2:	460c      	mov	r4, r1
 8006bf4:	b913      	cbnz	r3, 8006bfc <_fflush_r+0x10>
 8006bf6:	2500      	movs	r5, #0
 8006bf8:	4628      	mov	r0, r5
 8006bfa:	bd38      	pop	{r3, r4, r5, pc}
 8006bfc:	b118      	cbz	r0, 8006c06 <_fflush_r+0x1a>
 8006bfe:	6983      	ldr	r3, [r0, #24]
 8006c00:	b90b      	cbnz	r3, 8006c06 <_fflush_r+0x1a>
 8006c02:	f000 f887 	bl	8006d14 <__sinit>
 8006c06:	4b14      	ldr	r3, [pc, #80]	; (8006c58 <_fflush_r+0x6c>)
 8006c08:	429c      	cmp	r4, r3
 8006c0a:	d11b      	bne.n	8006c44 <_fflush_r+0x58>
 8006c0c:	686c      	ldr	r4, [r5, #4]
 8006c0e:	f9b4 300c 	ldrsh.w	r3, [r4, #12]
 8006c12:	2b00      	cmp	r3, #0
 8006c14:	d0ef      	beq.n	8006bf6 <_fflush_r+0xa>
 8006c16:	6e62      	ldr	r2, [r4, #100]	; 0x64
 8006c18:	07d0      	lsls	r0, r2, #31
 8006c1a:	d404      	bmi.n	8006c26 <_fflush_r+0x3a>
 8006c1c:	0599      	lsls	r1, r3, #22
 8006c1e:	d402      	bmi.n	8006c26 <_fflush_r+0x3a>
 8006c20:	6da0      	ldr	r0, [r4, #88]	; 0x58
 8006c22:	f000 f915 	bl	8006e50 <__retarget_lock_acquire_recursive>
 8006c26:	4628      	mov	r0, r5
 8006c28:	4621      	mov	r1, r4
 8006c2a:	f7ff ff59 	bl	8006ae0 <__sflush_r>
 8006c2e:	6e63      	ldr	r3, [r4, #100]	; 0x64
 8006c30:	07da      	lsls	r2, r3, #31
 8006c32:	4605      	mov	r5, r0
 8006c34:	d4e0      	bmi.n	8006bf8 <_fflush_r+0xc>
 8006c36:	89a3      	ldrh	r3, [r4, #12]
 8006c38:	059b      	lsls	r3, r3, #22
 8006c3a:	d4dd      	bmi.n	8006bf8 <_fflush_r+0xc>
 8006c3c:	6da0      	ldr	r0, [r4, #88]	; 0x58
 8006c3e:	f000 f908 	bl	8006e52 <__retarget_lock_release_recursive>
 8006c42:	e7d9      	b.n	8006bf8 <_fflush_r+0xc>
 8006c44:	4b05      	ldr	r3, [pc, #20]	; (8006c5c <_fflush_r+0x70>)
 8006c46:	429c      	cmp	r4, r3
 8006c48:	d101      	bne.n	8006c4e <_fflush_r+0x62>
 8006c4a:	68ac      	ldr	r4, [r5, #8]
 8006c4c:	e7df      	b.n	8006c0e <_fflush_r+0x22>
 8006c4e:	4b04      	ldr	r3, [pc, #16]	; (8006c60 <_fflush_r+0x74>)
 8006c50:	429c      	cmp	r4, r3
 8006c52:	bf08      	it	eq
 8006c54:	68ec      	ldreq	r4, [r5, #12]
 8006c56:	e7da      	b.n	8006c0e <_fflush_r+0x22>
 8006c58:	08007554 	.word	0x08007554
 8006c5c:	08007574 	.word	0x08007574
 8006c60:	08007534 	.word	0x08007534

08006c64 <std>:
 8006c64:	2300      	movs	r3, #0
 8006c66:	b510      	push	{r4, lr}
 8006c68:	4604      	mov	r4, r0
 8006c6a:	e9c0 3300 	strd	r3, r3, [r0]
 8006c6e:	e9c0 3304 	strd	r3, r3, [r0, #16]
 8006c72:	6083      	str	r3, [r0, #8]
 8006c74:	8181      	strh	r1, [r0, #12]
 8006c76:	6643      	str	r3, [r0, #100]	; 0x64
 8006c78:	81c2      	strh	r2, [r0, #14]
 8006c7a:	6183      	str	r3, [r0, #24]
 8006c7c:	4619      	mov	r1, r3
 8006c7e:	2208      	movs	r2, #8
 8006c80:	305c      	adds	r0, #92	; 0x5c
 8006c82:	f7fd fba7 	bl	80043d4 <memset>
 8006c86:	4b05      	ldr	r3, [pc, #20]	; (8006c9c <std+0x38>)
 8006c88:	6263      	str	r3, [r4, #36]	; 0x24
 8006c8a:	4b05      	ldr	r3, [pc, #20]	; (8006ca0 <std+0x3c>)
 8006c8c:	62a3      	str	r3, [r4, #40]	; 0x28
 8006c8e:	4b05      	ldr	r3, [pc, #20]	; (8006ca4 <std+0x40>)
 8006c90:	62e3      	str	r3, [r4, #44]	; 0x2c
 8006c92:	4b05      	ldr	r3, [pc, #20]	; (8006ca8 <std+0x44>)
 8006c94:	6224      	str	r4, [r4, #32]
 8006c96:	6323      	str	r3, [r4, #48]	; 0x30
 8006c98:	bd10      	pop	{r4, pc}
 8006c9a:	bf00      	nop
 8006c9c:	08006fb5 	.word	0x08006fb5
 8006ca0:	08006fd7 	.word	0x08006fd7
 8006ca4:	0800700f 	.word	0x0800700f
 8006ca8:	08007033 	.word	0x08007033

08006cac <_cleanup_r>:
 8006cac:	4901      	ldr	r1, [pc, #4]	; (8006cb4 <_cleanup_r+0x8>)
 8006cae:	f000 b8af 	b.w	8006e10 <_fwalk_reent>
 8006cb2:	bf00      	nop
 8006cb4:	08006bed 	.word	0x08006bed

08006cb8 <__sfmoreglue>:
 8006cb8:	b570      	push	{r4, r5, r6, lr}
 8006cba:	1e4a      	subs	r2, r1, #1
 8006cbc:	2568      	movs	r5, #104	; 0x68
 8006cbe:	4355      	muls	r5, r2
 8006cc0:	460e      	mov	r6, r1
 8006cc2:	f105 0174 	add.w	r1, r5, #116	; 0x74
 8006cc6:	f7ff fa87 	bl	80061d8 <_malloc_r>
 8006cca:	4604      	mov	r4, r0
 8006ccc:	b140      	cbz	r0, 8006ce0 <__sfmoreglue+0x28>
 8006cce:	2100      	movs	r1, #0
 8006cd0:	e9c0 1600 	strd	r1, r6, [r0]
 8006cd4:	300c      	adds	r0, #12
 8006cd6:	60a0      	str	r0, [r4, #8]
 8006cd8:	f105 0268 	add.w	r2, r5, #104	; 0x68
 8006cdc:	f7fd fb7a 	bl	80043d4 <memset>
 8006ce0:	4620      	mov	r0, r4
 8006ce2:	bd70      	pop	{r4, r5, r6, pc}

08006ce4 <__sfp_lock_acquire>:
 8006ce4:	4801      	ldr	r0, [pc, #4]	; (8006cec <__sfp_lock_acquire+0x8>)
 8006ce6:	f000 b8b3 	b.w	8006e50 <__retarget_lock_acquire_recursive>
 8006cea:	bf00      	nop
 8006cec:	20000378 	.word	0x20000378

08006cf0 <__sfp_lock_release>:
 8006cf0:	4801      	ldr	r0, [pc, #4]	; (8006cf8 <__sfp_lock_release+0x8>)
 8006cf2:	f000 b8ae 	b.w	8006e52 <__retarget_lock_release_recursive>
 8006cf6:	bf00      	nop
 8006cf8:	20000378 	.word	0x20000378

08006cfc <__sinit_lock_acquire>:
 8006cfc:	4801      	ldr	r0, [pc, #4]	; (8006d04 <__sinit_lock_acquire+0x8>)
 8006cfe:	f000 b8a7 	b.w	8006e50 <__retarget_lock_acquire_recursive>
 8006d02:	bf00      	nop
 8006d04:	20000373 	.word	0x20000373

08006d08 <__sinit_lock_release>:
 8006d08:	4801      	ldr	r0, [pc, #4]	; (8006d10 <__sinit_lock_release+0x8>)
 8006d0a:	f000 b8a2 	b.w	8006e52 <__retarget_lock_release_recursive>
 8006d0e:	bf00      	nop
 8006d10:	20000373 	.word	0x20000373

08006d14 <__sinit>:
 8006d14:	b510      	push	{r4, lr}
 8006d16:	4604      	mov	r4, r0
 8006d18:	f7ff fff0 	bl	8006cfc <__sinit_lock_acquire>
 8006d1c:	69a3      	ldr	r3, [r4, #24]
 8006d1e:	b11b      	cbz	r3, 8006d28 <__sinit+0x14>
 8006d20:	e8bd 4010 	ldmia.w	sp!, {r4, lr}
 8006d24:	f7ff bff0 	b.w	8006d08 <__sinit_lock_release>
 8006d28:	e9c4 3312 	strd	r3, r3, [r4, #72]	; 0x48
 8006d2c:	6523      	str	r3, [r4, #80]	; 0x50
 8006d2e:	4b13      	ldr	r3, [pc, #76]	; (8006d7c <__sinit+0x68>)
 8006d30:	4a13      	ldr	r2, [pc, #76]	; (8006d80 <__sinit+0x6c>)
 8006d32:	681b      	ldr	r3, [r3, #0]
 8006d34:	62a2      	str	r2, [r4, #40]	; 0x28
 8006d36:	42a3      	cmp	r3, r4
 8006d38:	bf04      	itt	eq
 8006d3a:	2301      	moveq	r3, #1
 8006d3c:	61a3      	streq	r3, [r4, #24]
 8006d3e:	4620      	mov	r0, r4
 8006d40:	f000 f820 	bl	8006d84 <__sfp>
 8006d44:	6060      	str	r0, [r4, #4]
 8006d46:	4620      	mov	r0, r4
 8006d48:	f000 f81c 	bl	8006d84 <__sfp>
 8006d4c:	60a0      	str	r0, [r4, #8]
 8006d4e:	4620      	mov	r0, r4
 8006d50:	f000 f818 	bl	8006d84 <__sfp>
 8006d54:	2200      	movs	r2, #0
 8006d56:	60e0      	str	r0, [r4, #12]
 8006d58:	2104      	movs	r1, #4
 8006d5a:	6860      	ldr	r0, [r4, #4]
 8006d5c:	f7ff ff82 	bl	8006c64 <std>
 8006d60:	68a0      	ldr	r0, [r4, #8]
 8006d62:	2201      	movs	r2, #1
 8006d64:	2109      	movs	r1, #9
 8006d66:	f7ff ff7d 	bl	8006c64 <std>
 8006d6a:	68e0      	ldr	r0, [r4, #12]
 8006d6c:	2202      	movs	r2, #2
 8006d6e:	2112      	movs	r1, #18
 8006d70:	f7ff ff78 	bl	8006c64 <std>
 8006d74:	2301      	movs	r3, #1
 8006d76:	61a3      	str	r3, [r4, #24]
 8006d78:	e7d2      	b.n	8006d20 <__sinit+0xc>
 8006d7a:	bf00      	nop
 8006d7c:	080071b4 	.word	0x080071b4
 8006d80:	08006cad 	.word	0x08006cad

08006d84 <__sfp>:
 8006d84:	b5f8      	push	{r3, r4, r5, r6, r7, lr}
 8006d86:	4607      	mov	r7, r0
 8006d88:	f7ff ffac 	bl	8006ce4 <__sfp_lock_acquire>
 8006d8c:	4b1e      	ldr	r3, [pc, #120]	; (8006e08 <__sfp+0x84>)
 8006d8e:	681e      	ldr	r6, [r3, #0]
 8006d90:	69b3      	ldr	r3, [r6, #24]
 8006d92:	b913      	cbnz	r3, 8006d9a <__sfp+0x16>
 8006d94:	4630      	mov	r0, r6
 8006d96:	f7ff ffbd 	bl	8006d14 <__sinit>
 8006d9a:	3648      	adds	r6, #72	; 0x48
 8006d9c:	e9d6 3401 	ldrd	r3, r4, [r6, #4]
 8006da0:	3b01      	subs	r3, #1
 8006da2:	d503      	bpl.n	8006dac <__sfp+0x28>
 8006da4:	6833      	ldr	r3, [r6, #0]
 8006da6:	b30b      	cbz	r3, 8006dec <__sfp+0x68>
 8006da8:	6836      	ldr	r6, [r6, #0]
 8006daa:	e7f7      	b.n	8006d9c <__sfp+0x18>
 8006dac:	f9b4 500c 	ldrsh.w	r5, [r4, #12]
 8006db0:	b9d5      	cbnz	r5, 8006de8 <__sfp+0x64>
 8006db2:	4b16      	ldr	r3, [pc, #88]	; (8006e0c <__sfp+0x88>)
 8006db4:	60e3      	str	r3, [r4, #12]
 8006db6:	f104 0058 	add.w	r0, r4, #88	; 0x58
 8006dba:	6665      	str	r5, [r4, #100]	; 0x64
 8006dbc:	f000 f847 	bl	8006e4e <__retarget_lock_init_recursive>
 8006dc0:	f7ff ff96 	bl	8006cf0 <__sfp_lock_release>
 8006dc4:	e9c4 5501 	strd	r5, r5, [r4, #4]
 8006dc8:	e9c4 5504 	strd	r5, r5, [r4, #16]
 8006dcc:	6025      	str	r5, [r4, #0]
 8006dce:	61a5      	str	r5, [r4, #24]
 8006dd0:	2208      	movs	r2, #8
 8006dd2:	4629      	mov	r1, r5
 8006dd4:	f104 005c 	add.w	r0, r4, #92	; 0x5c
 8006dd8:	f7fd fafc 	bl	80043d4 <memset>
 8006ddc:	e9c4 550d 	strd	r5, r5, [r4, #52]	; 0x34
 8006de0:	e9c4 5512 	strd	r5, r5, [r4, #72]	; 0x48
 8006de4:	4620      	mov	r0, r4
 8006de6:	bdf8      	pop	{r3, r4, r5, r6, r7, pc}
 8006de8:	3468      	adds	r4, #104	; 0x68
 8006dea:	e7d9      	b.n	8006da0 <__sfp+0x1c>
 8006dec:	2104      	movs	r1, #4
 8006dee:	4638      	mov	r0, r7
 8006df0:	f7ff ff62 	bl	8006cb8 <__sfmoreglue>
 8006df4:	4604      	mov	r4, r0
 8006df6:	6030      	str	r0, [r6, #0]
 8006df8:	2800      	cmp	r0, #0
 8006dfa:	d1d5      	bne.n	8006da8 <__sfp+0x24>
 8006dfc:	f7ff ff78 	bl	8006cf0 <__sfp_lock_release>
 8006e00:	230c      	movs	r3, #12
 8006e02:	603b      	str	r3, [r7, #0]
 8006e04:	e7ee      	b.n	8006de4 <__sfp+0x60>
 8006e06:	bf00      	nop
 8006e08:	080071b4 	.word	0x080071b4
 8006e0c:	ffff0001 	.word	0xffff0001

08006e10 <_fwalk_reent>:
 8006e10:	e92d 43f8 	stmdb	sp!, {r3, r4, r5, r6, r7, r8, r9, lr}
 8006e14:	4606      	mov	r6, r0
 8006e16:	4688      	mov	r8, r1
 8006e18:	f100 0448 	add.w	r4, r0, #72	; 0x48
 8006e1c:	2700      	movs	r7, #0
 8006e1e:	e9d4 9501 	ldrd	r9, r5, [r4, #4]
 8006e22:	f1b9 0901 	subs.w	r9, r9, #1
 8006e26:	d505      	bpl.n	8006e34 <_fwalk_reent+0x24>
 8006e28:	6824      	ldr	r4, [r4, #0]
 8006e2a:	2c00      	cmp	r4, #0
 8006e2c:	d1f7      	bne.n	8006e1e <_fwalk_reent+0xe>
 8006e2e:	4638      	mov	r0, r7
 8006e30:	e8bd 83f8 	ldmia.w	sp!, {r3, r4, r5, r6, r7, r8, r9, pc}
 8006e34:	89ab      	ldrh	r3, [r5, #12]
 8006e36:	2b01      	cmp	r3, #1
 8006e38:	d907      	bls.n	8006e4a <_fwalk_reent+0x3a>
 8006e3a:	f9b5 300e 	ldrsh.w	r3, [r5, #14]
 8006e3e:	3301      	adds	r3, #1
 8006e40:	d003      	beq.n	8006e4a <_fwalk_reent+0x3a>
 8006e42:	4629      	mov	r1, r5
 8006e44:	4630      	mov	r0, r6
 8006e46:	47c0      	blx	r8
 8006e48:	4307      	orrs	r7, r0
 8006e4a:	3568      	adds	r5, #104	; 0x68
 8006e4c:	e7e9      	b.n	8006e22 <_fwalk_reent+0x12>

08006e4e <__retarget_lock_init_recursive>:
 8006e4e:	4770      	bx	lr

08006e50 <__retarget_lock_acquire_recursive>:
 8006e50:	4770      	bx	lr

08006e52 <__retarget_lock_release_recursive>:
 8006e52:	4770      	bx	lr

08006e54 <__swhatbuf_r>:
 8006e54:	b570      	push	{r4, r5, r6, lr}
 8006e56:	460e      	mov	r6, r1
 8006e58:	f9b1 100e 	ldrsh.w	r1, [r1, #14]
 8006e5c:	2900      	cmp	r1, #0
 8006e5e:	b096      	sub	sp, #88	; 0x58
 8006e60:	4614      	mov	r4, r2
 8006e62:	461d      	mov	r5, r3
 8006e64:	da07      	bge.n	8006e76 <__swhatbuf_r+0x22>
 8006e66:	2300      	movs	r3, #0
 8006e68:	602b      	str	r3, [r5, #0]
 8006e6a:	89b3      	ldrh	r3, [r6, #12]
 8006e6c:	061a      	lsls	r2, r3, #24
 8006e6e:	d410      	bmi.n	8006e92 <__swhatbuf_r+0x3e>
 8006e70:	f44f 6380 	mov.w	r3, #1024	; 0x400
 8006e74:	e00e      	b.n	8006e94 <__swhatbuf_r+0x40>
 8006e76:	466a      	mov	r2, sp
 8006e78:	f000 f902 	bl	8007080 <_fstat_r>
 8006e7c:	2800      	cmp	r0, #0
 8006e7e:	dbf2      	blt.n	8006e66 <__swhatbuf_r+0x12>
 8006e80:	9a01      	ldr	r2, [sp, #4]
 8006e82:	f402 4270 	and.w	r2, r2, #61440	; 0xf000
 8006e86:	f5a2 5300 	sub.w	r3, r2, #8192	; 0x2000
 8006e8a:	425a      	negs	r2, r3
 8006e8c:	415a      	adcs	r2, r3
 8006e8e:	602a      	str	r2, [r5, #0]
 8006e90:	e7ee      	b.n	8006e70 <__swhatbuf_r+0x1c>
 8006e92:	2340      	movs	r3, #64	; 0x40
 8006e94:	2000      	movs	r0, #0
 8006e96:	6023      	str	r3, [r4, #0]
 8006e98:	b016      	add	sp, #88	; 0x58
 8006e9a:	bd70      	pop	{r4, r5, r6, pc}

08006e9c <__smakebuf_r>:
 8006e9c:	898b      	ldrh	r3, [r1, #12]
 8006e9e:	b573      	push	{r0, r1, r4, r5, r6, lr}
 8006ea0:	079d      	lsls	r5, r3, #30
 8006ea2:	4606      	mov	r6, r0
 8006ea4:	460c      	mov	r4, r1
 8006ea6:	d507      	bpl.n	8006eb8 <__smakebuf_r+0x1c>
 8006ea8:	f104 0347 	add.w	r3, r4, #71	; 0x47
 8006eac:	6023      	str	r3, [r4, #0]
 8006eae:	6123      	str	r3, [r4, #16]
 8006eb0:	2301      	movs	r3, #1
 8006eb2:	6163      	str	r3, [r4, #20]
 8006eb4:	b002      	add	sp, #8
 8006eb6:	bd70      	pop	{r4, r5, r6, pc}
 8006eb8:	ab01      	add	r3, sp, #4
 8006eba:	466a      	mov	r2, sp
 8006ebc:	f7ff ffca 	bl	8006e54 <__swhatbuf_r>
 8006ec0:	9900      	ldr	r1, [sp, #0]
 8006ec2:	4605      	mov	r5, r0
 8006ec4:	4630      	mov	r0, r6
 8006ec6:	f7ff f987 	bl	80061d8 <_malloc_r>
 8006eca:	b948      	cbnz	r0, 8006ee0 <__smakebuf_r+0x44>
 8006ecc:	f9b4 300c 	ldrsh.w	r3, [r4, #12]
 8006ed0:	059a      	lsls	r2, r3, #22
 8006ed2:	d4ef      	bmi.n	8006eb4 <__smakebuf_r+0x18>
 8006ed4:	f023 0303 	bic.w	r3, r3, #3
 8006ed8:	f043 0302 	orr.w	r3, r3, #2
 8006edc:	81a3      	strh	r3, [r4, #12]
 8006ede:	e7e3      	b.n	8006ea8 <__smakebuf_r+0xc>
 8006ee0:	4b0d      	ldr	r3, [pc, #52]	; (8006f18 <__smakebuf_r+0x7c>)
 8006ee2:	62b3      	str	r3, [r6, #40]	; 0x28
 8006ee4:	89a3      	ldrh	r3, [r4, #12]
 8006ee6:	6020      	str	r0, [r4, #0]
 8006ee8:	f043 0380 	orr.w	r3, r3, #128	; 0x80
 8006eec:	81a3      	strh	r3, [r4, #12]
 8006eee:	9b00      	ldr	r3, [sp, #0]
 8006ef0:	6163      	str	r3, [r4, #20]
 8006ef2:	9b01      	ldr	r3, [sp, #4]
 8006ef4:	6120      	str	r0, [r4, #16]
 8006ef6:	b15b      	cbz	r3, 8006f10 <__smakebuf_r+0x74>
 8006ef8:	f9b4 100e 	ldrsh.w	r1, [r4, #14]
 8006efc:	4630      	mov	r0, r6
 8006efe:	f000 f8d1 	bl	80070a4 <_isatty_r>
 8006f02:	b128      	cbz	r0, 8006f10 <__smakebuf_r+0x74>
 8006f04:	89a3      	ldrh	r3, [r4, #12]
 8006f06:	f023 0303 	bic.w	r3, r3, #3
 8006f0a:	f043 0301 	orr.w	r3, r3, #1
 8006f0e:	81a3      	strh	r3, [r4, #12]
 8006f10:	89a0      	ldrh	r0, [r4, #12]
 8006f12:	4305      	orrs	r5, r0
 8006f14:	81a5      	strh	r5, [r4, #12]
 8006f16:	e7cd      	b.n	8006eb4 <__smakebuf_r+0x18>
 8006f18:	08006cad 	.word	0x08006cad

08006f1c <_malloc_usable_size_r>:
 8006f1c:	f851 3c04 	ldr.w	r3, [r1, #-4]
 8006f20:	1f18      	subs	r0, r3, #4
 8006f22:	2b00      	cmp	r3, #0
 8006f24:	bfbc      	itt	lt
 8006f26:	580b      	ldrlt	r3, [r1, r0]
 8006f28:	18c0      	addlt	r0, r0, r3
 8006f2a:	4770      	bx	lr

08006f2c <_raise_r>:
 8006f2c:	291f      	cmp	r1, #31
 8006f2e:	b538      	push	{r3, r4, r5, lr}
 8006f30:	4604      	mov	r4, r0
 8006f32:	460d      	mov	r5, r1
 8006f34:	d904      	bls.n	8006f40 <_raise_r+0x14>
 8006f36:	2316      	movs	r3, #22
 8006f38:	6003      	str	r3, [r0, #0]
 8006f3a:	f04f 30ff 	mov.w	r0, #4294967295	; 0xffffffff
 8006f3e:	bd38      	pop	{r3, r4, r5, pc}
 8006f40:	6c42      	ldr	r2, [r0, #68]	; 0x44
 8006f42:	b112      	cbz	r2, 8006f4a <_raise_r+0x1e>
 8006f44:	f852 3021 	ldr.w	r3, [r2, r1, lsl #2]
 8006f48:	b94b      	cbnz	r3, 8006f5e <_raise_r+0x32>
 8006f4a:	4620      	mov	r0, r4
 8006f4c:	f000 f830 	bl	8006fb0 <_getpid_r>
 8006f50:	462a      	mov	r2, r5
 8006f52:	4601      	mov	r1, r0
 8006f54:	4620      	mov	r0, r4
 8006f56:	e8bd 4038 	ldmia.w	sp!, {r3, r4, r5, lr}
 8006f5a:	f000 b817 	b.w	8006f8c <_kill_r>
 8006f5e:	2b01      	cmp	r3, #1
 8006f60:	d00a      	beq.n	8006f78 <_raise_r+0x4c>
 8006f62:	1c59      	adds	r1, r3, #1
 8006f64:	d103      	bne.n	8006f6e <_raise_r+0x42>
 8006f66:	2316      	movs	r3, #22
 8006f68:	6003      	str	r3, [r0, #0]
 8006f6a:	2001      	movs	r0, #1
 8006f6c:	e7e7      	b.n	8006f3e <_raise_r+0x12>
 8006f6e:	2400      	movs	r4, #0
 8006f70:	f842 4025 	str.w	r4, [r2, r5, lsl #2]
 8006f74:	4628      	mov	r0, r5
 8006f76:	4798      	blx	r3
 8006f78:	2000      	movs	r0, #0
 8006f7a:	e7e0      	b.n	8006f3e <_raise_r+0x12>

08006f7c <raise>:
 8006f7c:	4b02      	ldr	r3, [pc, #8]	; (8006f88 <raise+0xc>)
 8006f7e:	4601      	mov	r1, r0
 8006f80:	6818      	ldr	r0, [r3, #0]
 8006f82:	f7ff bfd3 	b.w	8006f2c <_raise_r>
 8006f86:	bf00      	nop
 8006f88:	2000000c 	.word	0x2000000c

08006f8c <_kill_r>:
 8006f8c:	b538      	push	{r3, r4, r5, lr}
 8006f8e:	4d07      	ldr	r5, [pc, #28]	; (8006fac <_kill_r+0x20>)
 8006f90:	2300      	movs	r3, #0
 8006f92:	4604      	mov	r4, r0
 8006f94:	4608      	mov	r0, r1
 8006f96:	4611      	mov	r1, r2
 8006f98:	602b      	str	r3, [r5, #0]
 8006f9a:	f7fa fa91 	bl	80014c0 <_kill>
 8006f9e:	1c43      	adds	r3, r0, #1
 8006fa0:	d102      	bne.n	8006fa8 <_kill_r+0x1c>
 8006fa2:	682b      	ldr	r3, [r5, #0]
 8006fa4:	b103      	cbz	r3, 8006fa8 <_kill_r+0x1c>
 8006fa6:	6023      	str	r3, [r4, #0]
 8006fa8:	bd38      	pop	{r3, r4, r5, pc}
 8006faa:	bf00      	nop
 8006fac:	2000036c 	.word	0x2000036c

08006fb0 <_getpid_r>:
 8006fb0:	f7fa ba7e 	b.w	80014b0 <_getpid>

08006fb4 <__sread>:
 8006fb4:	b510      	push	{r4, lr}
 8006fb6:	460c      	mov	r4, r1
 8006fb8:	f9b1 100e 	ldrsh.w	r1, [r1, #14]
 8006fbc:	f000 f894 	bl	80070e8 <_read_r>
 8006fc0:	2800      	cmp	r0, #0
 8006fc2:	bfab      	itete	ge
 8006fc4:	6d63      	ldrge	r3, [r4, #84]	; 0x54
 8006fc6:	89a3      	ldrhlt	r3, [r4, #12]
 8006fc8:	181b      	addge	r3, r3, r0
 8006fca:	f423 5380 	biclt.w	r3, r3, #4096	; 0x1000
 8006fce:	bfac      	ite	ge
 8006fd0:	6563      	strge	r3, [r4, #84]	; 0x54
 8006fd2:	81a3      	strhlt	r3, [r4, #12]
 8006fd4:	bd10      	pop	{r4, pc}

08006fd6 <__swrite>:
 8006fd6:	e92d 41f0 	stmdb	sp!, {r4, r5, r6, r7, r8, lr}
 8006fda:	461f      	mov	r7, r3
 8006fdc:	898b      	ldrh	r3, [r1, #12]
 8006fde:	05db      	lsls	r3, r3, #23
 8006fe0:	4605      	mov	r5, r0
 8006fe2:	460c      	mov	r4, r1
 8006fe4:	4616      	mov	r6, r2
 8006fe6:	d505      	bpl.n	8006ff4 <__swrite+0x1e>
 8006fe8:	f9b1 100e 	ldrsh.w	r1, [r1, #14]
 8006fec:	2302      	movs	r3, #2
 8006fee:	2200      	movs	r2, #0
 8006ff0:	f000 f868 	bl	80070c4 <_lseek_r>
 8006ff4:	89a3      	ldrh	r3, [r4, #12]
 8006ff6:	f9b4 100e 	ldrsh.w	r1, [r4, #14]
 8006ffa:	f423 5380 	bic.w	r3, r3, #4096	; 0x1000
 8006ffe:	81a3      	strh	r3, [r4, #12]
 8007000:	4632      	mov	r2, r6
 8007002:	463b      	mov	r3, r7
 8007004:	4628      	mov	r0, r5
 8007006:	e8bd 41f0 	ldmia.w	sp!, {r4, r5, r6, r7, r8, lr}
 800700a:	f000 b817 	b.w	800703c <_write_r>

0800700e <__sseek>:
 800700e:	b510      	push	{r4, lr}
 8007010:	460c      	mov	r4, r1
 8007012:	f9b1 100e 	ldrsh.w	r1, [r1, #14]
 8007016:	f000 f855 	bl	80070c4 <_lseek_r>
 800701a:	1c43      	adds	r3, r0, #1
 800701c:	89a3      	ldrh	r3, [r4, #12]
 800701e:	bf15      	itete	ne
 8007020:	6560      	strne	r0, [r4, #84]	; 0x54
 8007022:	f423 5380 	biceq.w	r3, r3, #4096	; 0x1000
 8007026:	f443 5380 	orrne.w	r3, r3, #4096	; 0x1000
 800702a:	81a3      	strheq	r3, [r4, #12]
 800702c:	bf18      	it	ne
 800702e:	81a3      	strhne	r3, [r4, #12]
 8007030:	bd10      	pop	{r4, pc}

08007032 <__sclose>:
 8007032:	f9b1 100e 	ldrsh.w	r1, [r1, #14]
 8007036:	f000 b813 	b.w	8007060 <_close_r>
	...

0800703c <_write_r>:
 800703c:	b538      	push	{r3, r4, r5, lr}
 800703e:	4d07      	ldr	r5, [pc, #28]	; (800705c <_write_r+0x20>)
 8007040:	4604      	mov	r4, r0
 8007042:	4608      	mov	r0, r1
 8007044:	4611      	mov	r1, r2
 8007046:	2200      	movs	r2, #0
 8007048:	602a      	str	r2, [r5, #0]
 800704a:	461a      	mov	r2, r3
 800704c:	f7fa fa6f 	bl	800152e <_write>
 8007050:	1c43      	adds	r3, r0, #1
 8007052:	d102      	bne.n	800705a <_write_r+0x1e>
 8007054:	682b      	ldr	r3, [r5, #0]
 8007056:	b103      	cbz	r3, 800705a <_write_r+0x1e>
 8007058:	6023      	str	r3, [r4, #0]
 800705a:	bd38      	pop	{r3, r4, r5, pc}
 800705c:	2000036c 	.word	0x2000036c

08007060 <_close_r>:
 8007060:	b538      	push	{r3, r4, r5, lr}
 8007062:	4d06      	ldr	r5, [pc, #24]	; (800707c <_close_r+0x1c>)
 8007064:	2300      	movs	r3, #0
 8007066:	4604      	mov	r4, r0
 8007068:	4608      	mov	r0, r1
 800706a:	602b      	str	r3, [r5, #0]
 800706c:	f7fa fa7b 	bl	8001566 <_close>
 8007070:	1c43      	adds	r3, r0, #1
 8007072:	d102      	bne.n	800707a <_close_r+0x1a>
 8007074:	682b      	ldr	r3, [r5, #0]
 8007076:	b103      	cbz	r3, 800707a <_close_r+0x1a>
 8007078:	6023      	str	r3, [r4, #0]
 800707a:	bd38      	pop	{r3, r4, r5, pc}
 800707c:	2000036c 	.word	0x2000036c

08007080 <_fstat_r>:
 8007080:	b538      	push	{r3, r4, r5, lr}
 8007082:	4d07      	ldr	r5, [pc, #28]	; (80070a0 <_fstat_r+0x20>)
 8007084:	2300      	movs	r3, #0
 8007086:	4604      	mov	r4, r0
 8007088:	4608      	mov	r0, r1
 800708a:	4611      	mov	r1, r2
 800708c:	602b      	str	r3, [r5, #0]
 800708e:	f7fa fa76 	bl	800157e <_fstat>
 8007092:	1c43      	adds	r3, r0, #1
 8007094:	d102      	bne.n	800709c <_fstat_r+0x1c>
 8007096:	682b      	ldr	r3, [r5, #0]
 8007098:	b103      	cbz	r3, 800709c <_fstat_r+0x1c>
 800709a:	6023      	str	r3, [r4, #0]
 800709c:	bd38      	pop	{r3, r4, r5, pc}
 800709e:	bf00      	nop
 80070a0:	2000036c 	.word	0x2000036c

080070a4 <_isatty_r>:
 80070a4:	b538      	push	{r3, r4, r5, lr}
 80070a6:	4d06      	ldr	r5, [pc, #24]	; (80070c0 <_isatty_r+0x1c>)
 80070a8:	2300      	movs	r3, #0
 80070aa:	4604      	mov	r4, r0
 80070ac:	4608      	mov	r0, r1
 80070ae:	602b      	str	r3, [r5, #0]
 80070b0:	f7fa fa75 	bl	800159e <_isatty>
 80070b4:	1c43      	adds	r3, r0, #1
 80070b6:	d102      	bne.n	80070be <_isatty_r+0x1a>
 80070b8:	682b      	ldr	r3, [r5, #0]
 80070ba:	b103      	cbz	r3, 80070be <_isatty_r+0x1a>
 80070bc:	6023      	str	r3, [r4, #0]
 80070be:	bd38      	pop	{r3, r4, r5, pc}
 80070c0:	2000036c 	.word	0x2000036c

080070c4 <_lseek_r>:
 80070c4:	b538      	push	{r3, r4, r5, lr}
 80070c6:	4d07      	ldr	r5, [pc, #28]	; (80070e4 <_lseek_r+0x20>)
 80070c8:	4604      	mov	r4, r0
 80070ca:	4608      	mov	r0, r1
 80070cc:	4611      	mov	r1, r2
 80070ce:	2200      	movs	r2, #0
 80070d0:	602a      	str	r2, [r5, #0]
 80070d2:	461a      	mov	r2, r3
 80070d4:	f7fa fa6e 	bl	80015b4 <_lseek>
 80070d8:	1c43      	adds	r3, r0, #1
 80070da:	d102      	bne.n	80070e2 <_lseek_r+0x1e>
 80070dc:	682b      	ldr	r3, [r5, #0]
 80070de:	b103      	cbz	r3, 80070e2 <_lseek_r+0x1e>
 80070e0:	6023      	str	r3, [r4, #0]
 80070e2:	bd38      	pop	{r3, r4, r5, pc}
 80070e4:	2000036c 	.word	0x2000036c

080070e8 <_read_r>:
 80070e8:	b538      	push	{r3, r4, r5, lr}
 80070ea:	4d07      	ldr	r5, [pc, #28]	; (8007108 <_read_r+0x20>)
 80070ec:	4604      	mov	r4, r0
 80070ee:	4608      	mov	r0, r1
 80070f0:	4611      	mov	r1, r2
 80070f2:	2200      	movs	r2, #0
 80070f4:	602a      	str	r2, [r5, #0]
 80070f6:	461a      	mov	r2, r3
 80070f8:	f7fa f9fc 	bl	80014f4 <_read>
 80070fc:	1c43      	adds	r3, r0, #1
 80070fe:	d102      	bne.n	8007106 <_read_r+0x1e>
 8007100:	682b      	ldr	r3, [r5, #0]
 8007102:	b103      	cbz	r3, 8007106 <_read_r+0x1e>
 8007104:	6023      	str	r3, [r4, #0]
 8007106:	bd38      	pop	{r3, r4, r5, pc}
 8007108:	2000036c 	.word	0x2000036c

0800710c <_init>:
 800710c:	b5f8      	push	{r3, r4, r5, r6, r7, lr}
 800710e:	bf00      	nop
 8007110:	bcf8      	pop	{r3, r4, r5, r6, r7}
 8007112:	bc08      	pop	{r3}
 8007114:	469e      	mov	lr, r3
 8007116:	4770      	bx	lr

08007118 <_fini>:
 8007118:	b5f8      	push	{r3, r4, r5, r6, r7, lr}
 800711a:	bf00      	nop
 800711c:	bcf8      	pop	{r3, r4, r5, r6, r7}
 800711e:	bc08      	pop	{r3}
 8007120:	469e      	mov	lr, r3
 8007122:	4770      	bx	lr
